(icharlie.tools.data
Data
p1
(dp2
S'lang'
p3
S'EN'
p4
sS'control'
p5
(lp6
(S'sam1'
p7
S'stroop'
p8
S'test'
p9
I14
S'Congruent'
p10
S'/Volumes/TOSHIBA EXT/Charlie/charlie/stimuli/visual/stroop/42-Congruent.png'
S'Left'
p11
tp12
a(g7
g8
g9
I15
g10
S'/Volumes/TOSHIBA EXT/Charlie/charlie/stimuli/visual/stroop/17-Congruent.png'
S'Right'
p13
tp14
a(g7
g8
g9
I16
S'Incongruent'
p15
S'/Volumes/TOSHIBA EXT/Charlie/charlie/stimuli/visual/stroop/42-Incongruent.png'
g13
tp16
a(g7
g8
g9
I17
g15
S'/Volumes/TOSHIBA EXT/Charlie/charlie/stimuli/visual/stroop/36-Incongruent.png'
g13
tp17
a(g7
g8
g9
I18
g15
S'/Volumes/TOSHIBA EXT/Charlie/charlie/stimuli/visual/stroop/43-Incongruent.png'
g13
tp18
a(g7
g8
g9
I19
g10
S'/Volumes/TOSHIBA EXT/Charlie/charlie/stimuli/visual/stroop/49-Congruent.png'
g11
tp19
a(g7
g8
g9
I20
g10
S'/Volumes/TOSHIBA EXT/Charlie/charlie/stimuli/visual/stroop/43-Congruent.png'
g11
tp20
a(g7
g8
g9
I21
g15
S'/Volumes/TOSHIBA EXT/Charlie/charlie/stimuli/visual/stroop/15-Incongruent.png'
g11
tp21
a(g7
g8
g9
I22
g15
S'/Volumes/TOSHIBA EXT/Charlie/charlie/stimuli/visual/stroop/35-Incongruent.png'
g13
tp22
a(g7
g8
g9
I23
g15
S'/Volumes/TOSHIBA EXT/Charlie/charlie/stimuli/visual/stroop/44-Incongruent.png'
g13
tp23
a(g7
g8
g9
I24
g15
S'/Volumes/TOSHIBA EXT/Charlie/charlie/stimuli/visual/stroop/47-Incongruent.png'
g13
tp24
a(g7
g8
g9
I25
g15
S'/Volumes/TOSHIBA EXT/Charlie/charlie/stimuli/visual/stroop/40-Incongruent.png'
g13
tp25
a(g7
g8
g9
I26
g15
S'/Volumes/TOSHIBA EXT/Charlie/charlie/stimuli/visual/stroop/25-Incongruent.png'
g11
tp26
a(g7
g8
g9
I27
g15
S'/Volumes/TOSHIBA EXT/Charlie/charlie/stimuli/visual/stroop/27-Incongruent.png'
g11
tp27
a(g7
g8
g9
I28
g15
S'/Volumes/TOSHIBA EXT/Charlie/charlie/stimuli/visual/stroop/56-Incongruent.png'
g13
tp28
a(g7
g8
g9
I29
g10
S'/Volumes/TOSHIBA EXT/Charlie/charlie/stimuli/visual/stroop/2-Congruent.png'
g13
tp29
a(g7
g8
g9
I30
g15
S'/Volumes/TOSHIBA EXT/Charlie/charlie/stimuli/visual/stroop/17-Incongruent.png'
g11
tp30
a(g7
g8
g9
I31
g10
S'/Volumes/TOSHIBA EXT/Charlie/charlie/stimuli/visual/stroop/12-Congruent.png'
g13
tp31
a(g7
g8
g9
I32
g15
S'/Volumes/TOSHIBA EXT/Charlie/charlie/stimuli/visual/stroop/12-Incongruent.png'
g11
tp32
a(g7
g8
g9
I33
g15
S'/Volumes/TOSHIBA EXT/Charlie/charlie/stimuli/visual/stroop/26-Incongruent.png'
g11
tp33
a(g7
g8
g9
I34
g10
S'/Volumes/TOSHIBA EXT/Charlie/charlie/stimuli/visual/stroop/19-Congruent.png'
g13
tp34
a(g7
g8
g9
I35
g10
S'/Volumes/TOSHIBA EXT/Charlie/charlie/stimuli/visual/stroop/23-Congruent.png'
g13
tp35
a(g7
g8
g9
I36
g10
S'/Volumes/TOSHIBA EXT/Charlie/charlie/stimuli/visual/stroop/35-Congruent.png'
g11
tp36
a(g7
g8
g9
I37
g10
S'/Volumes/TOSHIBA EXT/Charlie/charlie/stimuli/visual/stroop/46-Congruent.png'
g11
tp37
a(g7
g8
g9
I38
g15
S'/Volumes/TOSHIBA EXT/Charlie/charlie/stimuli/visual/stroop/8-Incongruent.png'
g11
tp38
a(g7
g8
g9
I39
g10
S'/Volumes/TOSHIBA EXT/Charlie/charlie/stimuli/visual/stroop/29-Congruent.png'
g11
tp39
a(g7
g8
g9
I40
g10
S'/Volumes/TOSHIBA EXT/Charlie/charlie/stimuli/visual/stroop/14-Congruent.png'
g13
tp40
a(g7
g8
g9
I41
g10
S'/Volumes/TOSHIBA EXT/Charlie/charlie/stimuli/visual/stroop/33-Congruent.png'
g11
tp41
a(g7
g8
g9
I42
g15
S'/Volumes/TOSHIBA EXT/Charlie/charlie/stimuli/visual/stroop/13-Incongruent.png'
g11
tp42
a(g7
g8
g9
I43
g15
S'/Volumes/TOSHIBA EXT/Charlie/charlie/stimuli/visual/stroop/55-Incongruent.png'
g13
tp43
a(g7
g8
g9
I44
g10
S'/Volumes/TOSHIBA EXT/Charlie/charlie/stimuli/visual/stroop/54-Congruent.png'
g11
tp44
a(g7
g8
g9
I45
g10
S'/Volumes/TOSHIBA EXT/Charlie/charlie/stimuli/visual/stroop/8-Congruent.png'
g13
tp45
a(g7
g8
g9
I46
g10
S'/Volumes/TOSHIBA EXT/Charlie/charlie/stimuli/visual/stroop/13-Congruent.png'
g13
tp46
a(g7
g8
g9
I47
g10
S'/Volumes/TOSHIBA EXT/Charlie/charlie/stimuli/visual/stroop/40-Congruent.png'
g11
tp47
a(g7
g8
g9
I48
g15
S'/Volumes/TOSHIBA EXT/Charlie/charlie/stimuli/visual/stroop/9-Incongruent.png'
g11
tp48
a(g7
g8
g9
I49
g10
S'/Volumes/TOSHIBA EXT/Charlie/charlie/stimuli/visual/stroop/50-Congruent.png'
g11
tp49
a(g7
g8
g9
I50
g10
S'/Volumes/TOSHIBA EXT/Charlie/charlie/stimuli/visual/stroop/5-Congruent.png'
g13
tp50
a(g7
g8
g9
I51
g15
S'/Volumes/TOSHIBA EXT/Charlie/charlie/stimuli/visual/stroop/5-Incongruent.png'
g11
tp51
a(g7
g8
g9
I52
g15
S'/Volumes/TOSHIBA EXT/Charlie/charlie/stimuli/visual/stroop/53-Incongruent.png'
g13
tp52
a(g7
g8
g9
I53
g15
S'/Volumes/TOSHIBA EXT/Charlie/charlie/stimuli/visual/stroop/1-Incongruent.png'
g11
tp53
a(g7
g8
g9
I54
g10
S'/Volumes/TOSHIBA EXT/Charlie/charlie/stimuli/visual/stroop/28-Congruent.png'
g11
tp54
a(g7
g8
g9
I55
g15
S'/Volumes/TOSHIBA EXT/Charlie/charlie/stimuli/visual/stroop/34-Incongruent.png'
g13
tp55
a(g7
g8
g9
I56
g15
S'/Volumes/TOSHIBA EXT/Charlie/charlie/stimuli/visual/stroop/20-Incongruent.png'
g11
tp56
a(g7
g8
g9
I57
g15
S'/Volumes/TOSHIBA EXT/Charlie/charlie/stimuli/visual/stroop/38-Incongruent.png'
g13
tp57
a(g7
g8
g9
I58
g15
S'/Volumes/TOSHIBA EXT/Charlie/charlie/stimuli/visual/stroop/32-Incongruent.png'
g13
tp58
a(g7
g8
g9
I59
g10
S'/Volumes/TOSHIBA EXT/Charlie/charlie/stimuli/visual/stroop/9-Congruent.png'
g13
tp59
a(g7
g8
g9
I60
g10
S'/Volumes/TOSHIBA EXT/Charlie/charlie/stimuli/visual/stroop/55-Congruent.png'
g11
tp60
a(g7
g8
g9
I61
g15
S'/Volumes/TOSHIBA EXT/Charlie/charlie/stimuli/visual/stroop/33-Incongruent.png'
g13
tp61
a(g7
g8
g9
I62
g15
S'/Volumes/TOSHIBA EXT/Charlie/charlie/stimuli/visual/stroop/49-Incongruent.png'
g13
tp62
a(g7
g8
g9
I63
g10
S'/Volumes/TOSHIBA EXT/Charlie/charlie/stimuli/visual/stroop/4-Congruent.png'
g13
tp63
a(g7
g8
g9
I64
g10
S'/Volumes/TOSHIBA EXT/Charlie/charlie/stimuli/visual/stroop/6-Congruent.png'
g13
tp64
a(g7
g8
g9
I65
g10
S'/Volumes/TOSHIBA EXT/Charlie/charlie/stimuli/visual/stroop/48-Congruent.png'
g11
tp65
a(g7
g8
g9
I66
g10
S'/Volumes/TOSHIBA EXT/Charlie/charlie/stimuli/visual/stroop/52-Congruent.png'
g11
tp66
a(g7
g8
g9
I67
g10
S'/Volumes/TOSHIBA EXT/Charlie/charlie/stimuli/visual/stroop/51-Congruent.png'
g11
tp67
a(g7
g8
g9
I68
g10
S'/Volumes/TOSHIBA EXT/Charlie/charlie/stimuli/visual/stroop/16-Congruent.png'
g13
tp68
a(g7
g8
g9
I69
g10
S'/Volumes/TOSHIBA EXT/Charlie/charlie/stimuli/visual/stroop/24-Congruent.png'
g13
tp69
a(g7
g8
g9
I70
g15
S'/Volumes/TOSHIBA EXT/Charlie/charlie/stimuli/visual/stroop/41-Incongruent.png'
g13
tp70
a(g7
g8
g9
I71
g15
S'/Volumes/TOSHIBA EXT/Charlie/charlie/stimuli/visual/stroop/48-Incongruent.png'
g13
tp71
a(g7
g8
g9
I72
g15
S'/Volumes/TOSHIBA EXT/Charlie/charlie/stimuli/visual/stroop/4-Incongruent.png'
g11
tp72
a(g7
g8
g9
I73
g15
S'/Volumes/TOSHIBA EXT/Charlie/charlie/stimuli/visual/stroop/54-Incongruent.png'
g13
tp73
a(g7
g8
g9
I74
g15
S'/Volumes/TOSHIBA EXT/Charlie/charlie/stimuli/visual/stroop/39-Incongruent.png'
g13
tp74
a(g7
g8
g9
I75
g10
S'/Volumes/TOSHIBA EXT/Charlie/charlie/stimuli/visual/stroop/56-Congruent.png'
g11
tp75
a(g7
g8
g9
I76
g15
S'/Volumes/TOSHIBA EXT/Charlie/charlie/stimuli/visual/stroop/46-Incongruent.png'
g13
tp76
a(g7
g8
g9
I77
g10
S'/Volumes/TOSHIBA EXT/Charlie/charlie/stimuli/visual/stroop/22-Congruent.png'
g13
tp77
a(g7
g8
g9
I78
g15
S'/Volumes/TOSHIBA EXT/Charlie/charlie/stimuli/visual/stroop/21-Incongruent.png'
g11
tp78
a(g7
g8
g9
I79
g15
S'/Volumes/TOSHIBA EXT/Charlie/charlie/stimuli/visual/stroop/37-Incongruent.png'
g13
tp79
a(g7
g8
g9
I80
g15
S'/Volumes/TOSHIBA EXT/Charlie/charlie/stimuli/visual/stroop/2-Incongruent.png'
g11
tp80
a(g7
g8
g9
I81
g10
S'/Volumes/TOSHIBA EXT/Charlie/charlie/stimuli/visual/stroop/21-Congruent.png'
g13
tp81
a(g7
g8
g9
I82
g15
S'/Volumes/TOSHIBA EXT/Charlie/charlie/stimuli/visual/stroop/7-Incongruent.png'
g11
tp82
a(g7
g8
g9
I83
g10
S'/Volumes/TOSHIBA EXT/Charlie/charlie/stimuli/visual/stroop/20-Congruent.png'
g13
tp83
a(g7
g8
g9
I84
g10
S'/Volumes/TOSHIBA EXT/Charlie/charlie/stimuli/visual/stroop/15-Congruent.png'
g13
tp84
a(g7
g8
g9
I85
g10
S'/Volumes/TOSHIBA EXT/Charlie/charlie/stimuli/visual/stroop/26-Congruent.png'
g13
tp85
a(g7
g8
g9
I86
g15
S'/Volumes/TOSHIBA EXT/Charlie/charlie/stimuli/visual/stroop/16-Incongruent.png'
g11
tp86
a(g7
g8
g9
I87
g15
S'/Volumes/TOSHIBA EXT/Charlie/charlie/stimuli/visual/stroop/50-Incongruent.png'
g13
tp87
a(g7
g8
g9
I88
g10
S'/Volumes/TOSHIBA EXT/Charlie/charlie/stimuli/visual/stroop/41-Congruent.png'
g11
tp88
a(g7
g8
g9
I89
g10
S'/Volumes/TOSHIBA EXT/Charlie/charlie/stimuli/visual/stroop/25-Congruent.png'
g13
tp89
a(g7
g8
g9
I90
g10
S'/Volumes/TOSHIBA EXT/Charlie/charlie/stimuli/visual/stroop/27-Congruent.png'
g13
tp90
a(g7
g8
g9
I91
g15
S'/Volumes/TOSHIBA EXT/Charlie/charlie/stimuli/visual/stroop/18-Incongruent.png'
g11
tp91
a(g7
g8
g9
I92
g15
S'/Volumes/TOSHIBA EXT/Charlie/charlie/stimuli/visual/stroop/30-Incongruent.png'
g13
tp92
a(g7
g8
g9
I93
g10
S'/Volumes/TOSHIBA EXT/Charlie/charlie/stimuli/visual/stroop/44-Congruent.png'
g11
tp93
a(g7
g8
g9
I94
g10
S'/Volumes/TOSHIBA EXT/Charlie/charlie/stimuli/visual/stroop/37-Congruent.png'
g11
tp94
a(g7
g8
g9
I95
g15
S'/Volumes/TOSHIBA EXT/Charlie/charlie/stimuli/visual/stroop/11-Incongruent.png'
g11
tp95
a(g7
g8
g9
I96
g15
S'/Volumes/TOSHIBA EXT/Charlie/charlie/stimuli/visual/stroop/29-Incongruent.png'
g13
tp96
a(g7
g8
g9
I97
g15
S'/Volumes/TOSHIBA EXT/Charlie/charlie/stimuli/visual/stroop/3-Incongruent.png'
g11
tp97
a(g7
g8
g9
I98
g10
S'/Volumes/TOSHIBA EXT/Charlie/charlie/stimuli/visual/stroop/1-Congruent.png'
g13
tp98
a(g7
g8
g9
I99
g15
S'/Volumes/TOSHIBA EXT/Charlie/charlie/stimuli/visual/stroop/52-Incongruent.png'
g13
tp99
a(g7
g8
g9
I100
g15
S'/Volumes/TOSHIBA EXT/Charlie/charlie/stimuli/visual/stroop/14-Incongruent.png'
g11
tp100
a(g7
g8
g9
I101
g10
S'/Volumes/TOSHIBA EXT/Charlie/charlie/stimuli/visual/stroop/47-Congruent.png'
g11
tp101
a(g7
g8
g9
I102
g15
S'/Volumes/TOSHIBA EXT/Charlie/charlie/stimuli/visual/stroop/19-Incongruent.png'
g11
tp102
a(g7
g8
g9
I103
g10
S'/Volumes/TOSHIBA EXT/Charlie/charlie/stimuli/visual/stroop/11-Congruent.png'
g13
tp103
a(g7
g8
g9
I104
g15
S'/Volumes/TOSHIBA EXT/Charlie/charlie/stimuli/visual/stroop/22-Incongruent.png'
g11
tp104
a(g7
g8
g9
I105
g10
S'/Volumes/TOSHIBA EXT/Charlie/charlie/stimuli/visual/stroop/7-Congruent.png'
g13
tp105
a(g7
g8
g9
I106
g10
S'/Volumes/TOSHIBA EXT/Charlie/charlie/stimuli/visual/stroop/53-Congruent.png'
g11
tp106
a(g7
g8
g9
I107
g10
S'/Volumes/TOSHIBA EXT/Charlie/charlie/stimuli/visual/stroop/32-Congruent.png'
g11
tp107
a(g7
g8
g9
I108
g15
S'/Volumes/TOSHIBA EXT/Charlie/charlie/stimuli/visual/stroop/45-Incongruent.png'
g13
tp108
a(g7
g8
g9
I109
g10
S'/Volumes/TOSHIBA EXT/Charlie/charlie/stimuli/visual/stroop/36-Congruent.png'
g11
tp109
a(g7
g8
g9
I110
g15
S'/Volumes/TOSHIBA EXT/Charlie/charlie/stimuli/visual/stroop/51-Incongruent.png'
g13
tp110
a(g7
g8
g9
I111
g10
S'/Volumes/TOSHIBA EXT/Charlie/charlie/stimuli/visual/stroop/18-Congruent.png'
g13
tp111
asS'last_opened'
p112
cdatetime
datetime
p113
(S'\x07\xdf\x01\x0f\x17\x18,\x06g\xfe'
tRp114
sS'last_updated'
p115
g113
(S"\x07\xdf\x01\x0f\x17\x181\x06'\xd7"
tRp116
sS'test_done'
p117
I00
sS'date_done'
p118
NsS'proj_id'
p119
S''
sS'data'
p120
(lp121
(g7
g8
S'practice'
p122
I0
S'n/a'
p123
S'/Volumes/TOSHIBA EXT/Charlie/charlie/stimuli/visual/stroop/prac_1.png'
g13
g13
I2368
tp124
a(g7
g8
g122
I1
g123
S'/Volumes/TOSHIBA EXT/Charlie/charlie/stimuli/visual/stroop/prac_2.png'
g11
g13
I541
tp125
a(g7
g8
g122
I2
g123
S'/Volumes/TOSHIBA EXT/Charlie/charlie/stimuli/visual/stroop/prac_3.png'
g13
g13
I455
tp126
a(g7
g8
g122
I3
g123
S'/Volumes/TOSHIBA EXT/Charlie/charlie/stimuli/visual/stroop/prac_4.png'
g13
g13
I511
tp127
a(g7
g8
g9
I0
g15
S'/Volumes/TOSHIBA EXT/Charlie/charlie/stimuli/visual/stroop/6-Incongruent.png'
g11
g13
I553
tp128
a(g7
g8
g9
I1
g10
S'/Volumes/TOSHIBA EXT/Charlie/charlie/stimuli/visual/stroop/30-Congruent.png'
g11
g13
I119
tp129
a(g7
g8
g9
I2
g10
S'/Volumes/TOSHIBA EXT/Charlie/charlie/stimuli/visual/stroop/3-Congruent.png'
g13
g13
I153
tp130
a(g7
g8
g9
I3
g15
S'/Volumes/TOSHIBA EXT/Charlie/charlie/stimuli/visual/stroop/23-Incongruent.png'
g11
S'Right'
p131
I1283
tp132
a(g7
g8
g9
I4
g10
S'/Volumes/TOSHIBA EXT/Charlie/charlie/stimuli/visual/stroop/39-Congruent.png'
g11
g131
I85
tp133
a(g7
g8
g9
I5
g10
S'/Volumes/TOSHIBA EXT/Charlie/charlie/stimuli/visual/stroop/45-Congruent.png'
g11
g131
I108
tp134
a(g7
g8
g9
I6
g15
S'/Volumes/TOSHIBA EXT/Charlie/charlie/stimuli/visual/stroop/31-Incongruent.png'
g13
g131
I108
tp135
a(g7
g8
g9
I7
g15
S'/Volumes/TOSHIBA EXT/Charlie/charlie/stimuli/visual/stroop/28-Incongruent.png'
g13
g131
I108
tp136
a(g7
g8
g9
I8
g10
S'/Volumes/TOSHIBA EXT/Charlie/charlie/stimuli/visual/stroop/31-Congruent.png'
g11
g131
I130
tp137
a(g7
g8
g9
I9
g10
S'/Volumes/TOSHIBA EXT/Charlie/charlie/stimuli/visual/stroop/10-Congruent.png'
g13
g131
I89
tp138
a(g7
g8
g9
I10
g15
S'/Volumes/TOSHIBA EXT/Charlie/charlie/stimuli/visual/stroop/10-Incongruent.png'
g11
S'Right'
p139
I1759
tp140
a(g7
g8
g9
I11
g15
S'/Volumes/TOSHIBA EXT/Charlie/charlie/stimuli/visual/stroop/24-Incongruent.png'
g11
g139
I109
tp141
a(g7
g8
g9
I12
g10
S'/Volumes/TOSHIBA EXT/Charlie/charlie/stimuli/visual/stroop/34-Congruent.png'
g11
g139
I109
tp142
asS'output_format'
p143
(lp144
(S'proband_id'
p145
c__builtin__
str
p146
tp147
a(S'test_name'
p148
g146
tp149
a(S'phase'
p150
g146
tp151
a(S'trialn'
p152
c__builtin__
int
p153
tp154
a(S'cong'
p155
g146
tp156
a(S'f'
g146
tp157
a(S'ans'
p158
g146
tp159
a(S'rsp'
p160
g146
tp161
a(S'rt'
p162
g153
tp163
asS'proband_id'
p164
g7
sS'filename'
p165
S'sam1_stroop.data'
p166
sS'initialised'
p167
g113
(S'\x07\xdf\x01\x0f\x17\x17+\x02\x13\xbb'
tRp168
sS'last_udated'
p169
g113
(S'\x07\xdf\x01\x0f\x17\x17+\x02\x13\xc4'
tRp170
sS'test_name'
p171
g8
sS'directory'
p172
S'/Volumes/TOSHIBA EXT/Charlie/charlie/data/backups/2015-01-15 23:25:00'
p173
sS'user_id'
p174
S''
sS'test_started'
p175
I01
sS'abs_filename'
p176
S'/Volumes/TOSHIBA EXT/Charlie/charlie/data/backups/2015-01-15 23:25:00/sam1_stroop.data'
p177
sS'date_started'
p178
g113
(S'\x07\xdf\x01\x0f\x17\x170\x04\xe4\x7f'
tRp179
sS'log'
p180
(lp181
(S'2015-01-15 23:23:43.136134'
S'instance created'
tp182
a(S'2015-01-15 23:23:48.323645'
S'instance updated'
p183
tp184
a(S'2015-01-15 23:23:48.329950'
S'pandas DataFrame of data created'
p185
tp186
a(S'2015-01-15 23:23:48.330915'
S'data saved as csv to /Volumes/TOSHIBA EXT/Charlie/charlie/data/csv/sam1_stroop.csv'
tp187
a(S'2015-01-15 23:23:48.940257'
g183
tp188
a(S'2015-01-15 23:23:48.945063'
g185
tp189
a(S'2015-01-15 23:23:48.945753'
S'data saved as csv to /Volumes/TOSHIBA EXT/Charlie/charlie/data/csv/sam1_stroop.csv'
tp190
a(S'2015-01-15 23:23:49.456241'
g183
tp191
a(S'2015-01-15 23:23:49.458953'
g185
tp192
a(S'2015-01-15 23:23:49.459344'
S'data saved as csv to /Volumes/TOSHIBA EXT/Charlie/charlie/data/csv/sam1_stroop.csv'
tp193
a(S'2015-01-15 23:23:50.025701'
g183
tp194
a(S'2015-01-15 23:23:50.028584'
g185
tp195
a(S'2015-01-15 23:23:50.028983'
S'data saved as csv to /Volumes/TOSHIBA EXT/Charlie/charlie/data/csv/sam1_stroop.csv'
tp196
a(S'2015-01-15 23:23:57.679989'
g183
tp197
a(S'2015-01-15 23:23:57.684018'
g185
tp198
a(S'2015-01-15 23:23:57.684573'
S'data saved as csv to /Volumes/TOSHIBA EXT/Charlie/charlie/data/csv/sam1_stroop.csv'
tp199
a(S'2015-01-15 23:23:57.862069'
g183
tp200
a(S'2015-01-15 23:23:57.864742'
g185
tp201
a(S'2015-01-15 23:23:57.865139'
S'data saved as csv to /Volumes/TOSHIBA EXT/Charlie/charlie/data/csv/sam1_stroop.csv'
tp202
a(S'2015-01-15 23:24:13.057628'
S'instance updated'
p203
tp204
a(S'2015-01-15 23:24:13.062991'
S'pandas DataFrame of data created'
p205
tp206
a(S'2015-01-15 23:24:13.063883'
S'data saved as csv to /Volumes/TOSHIBA EXT/Charlie/charlie/data/csv/sam1_stroop.csv'
tp207
a(S'2015-01-15 23:24:13.203670'
g203
tp208
a(S'2015-01-15 23:24:13.206500'
g205
tp209
a(S'2015-01-15 23:24:13.206910'
S'data saved as csv to /Volumes/TOSHIBA EXT/Charlie/charlie/data/csv/sam1_stroop.csv'
tp210
a(S'2015-01-15 23:24:13.370469'
g203
tp211
a(S'2015-01-15 23:24:13.373463'
g205
tp212
a(S'2015-01-15 23:24:13.373910'
S'data saved as csv to /Volumes/TOSHIBA EXT/Charlie/charlie/data/csv/sam1_stroop.csv'
tp213
a(S'2015-01-15 23:24:13.536595'
g203
tp214
a(S'2015-01-15 23:24:13.539365'
g205
tp215
a(S'2015-01-15 23:24:13.539767'
S'data saved as csv to /Volumes/TOSHIBA EXT/Charlie/charlie/data/csv/sam1_stroop.csv'
tp216
a(S'2015-01-15 23:24:13.705404'
g203
tp217
a(S'2015-01-15 23:24:13.708527'
g205
tp218
a(S'2015-01-15 23:24:13.709293'
S'data saved as csv to /Volumes/TOSHIBA EXT/Charlie/charlie/data/csv/sam1_stroop.csv'
tp219
a(S'2015-01-15 23:24:13.906082'
g203
tp220
a(S'2015-01-15 23:24:13.910984'
g205
tp221
a(S'2015-01-15 23:24:13.911632'
S'data saved as csv to /Volumes/TOSHIBA EXT/Charlie/charlie/data/csv/sam1_stroop.csv'
tp222
a(S'2015-01-15 23:24:49.031284'
S'instance updated'
p223
tp224
a(S'2015-01-15 23:24:49.034231'
S'pandas DataFrame of data created'
p225
tp226
a(S'2015-01-15 23:24:49.034703'
S'data saved as csv to /Volumes/TOSHIBA EXT/Charlie/charlie/data/csv/sam1_stroop.csv'
tp227
a(S'2015-01-15 23:24:49.216642'
g223
tp228
a(S'2015-01-15 23:24:49.222024'
g225
tp229
a(S'2015-01-15 23:24:49.222733'
S'data saved as csv to /Volumes/TOSHIBA EXT/Charlie/charlie/data/csv/sam1_stroop.csv'
tp230
a(S'2015-01-15 23:24:49.405348'
g223
tp231
a(S'2015-01-15 23:24:49.410155'
g225
tp232
a(S'2015-01-15 23:24:49.410713'
S'data saved as csv to /Volumes/TOSHIBA EXT/Charlie/charlie/data/csv/sam1_stroop.csv'
tp233
asb.