(icharlie.tools.data
Data
p1
(dp2
S'lang'
p3
S'EN'
p4
sS'control'
p5
(lp6
sS'last_updated'
p7
cdatetime
datetime
p8
(S'\x07\xdf\x03\x11\x0b\t\x1c\x03\xd0\x90'
tRp9
sS'last_opened'
p10
g8
(S'\x07\xdf\x03\x11\x0b\x04.\x06Q0'
tRp11
sS'proj_id'
p12
S''
sS'date_done'
p13
NsS'test_done'
p14
I01
sS'data'
p15
(lp16
(S'4307'
p17
S'ctrails'
p18
S'number'
p19
S'practice'
p20
I0
I1
S'Correct'
p21
I3581
I11655
tp22
a(g17
g18
g19
g20
I1
I2
g21
I1410
I11655
tp23
a(g17
g18
g19
g20
I2
I3
g21
I1710
I11655
tp24
a(g17
g18
g19
g20
I3
I4
g21
I1100
I11655
tp25
a(g17
g18
g19
g20
I4
I5
g21
I840
I11655
tp26
a(g17
g18
g19
g20
I5
I6
g21
I1210
I11655
tp27
a(g17
g18
g19
g20
I6
I7
g21
I960
I11655
tp28
a(g17
g18
g19
g20
I7
I8
g21
I800
I11655
tp29
a(g17
g18
g19
S'test'
p30
I0
I1
g21
I3130
I35430
tp31
a(g17
g18
g19
g30
I1
I2
g21
I1590
I35430
tp32
a(g17
g18
g19
g30
I2
I3
g21
I1090
I35430
tp33
a(g17
g18
g19
g30
I3
I4
g21
I1250
I35430
tp34
a(g17
g18
g19
g30
I4
I5
g21
I1040
I35430
tp35
a(g17
g18
g19
g30
I5
I6
g21
I920
I35430
tp36
a(g17
g18
g19
g30
I6
I7
g21
I880
I35430
tp37
a(g17
g18
g19
g30
I7
I8
g21
I830
I35430
tp38
a(g17
g18
g19
g30
I8
I9
g21
I830
I35430
tp39
a(g17
g18
g19
g30
I9
I10
g21
I830
I35430
tp40
a(g17
g18
g19
g30
I10
I11
g21
I830
I35430
tp41
a(g17
g18
g19
g30
I11
I12
g21
I860
I35430
tp42
a(g17
g18
g19
g30
I12
I13
g21
I950
I35430
tp43
a(g17
g18
g19
g30
I13
I14
g21
I830
I35430
tp44
a(g17
g18
g19
g30
I14
I15
g21
I850
I35430
tp45
a(g17
g18
g19
g30
I15
I16
g21
I1031
I35430
tp46
a(g17
g18
g19
g30
I16
I17
g21
I1000
I35430
tp47
a(g17
g18
g19
g30
I17
I18
g21
I1710
I35430
tp48
a(g17
g18
g19
g30
I18
I19
g21
I1880
I35430
tp49
a(g17
g18
g19
g30
I19
I20
g21
I1290
I35430
tp50
a(g17
g18
g19
g30
I20
I21
g21
I1070
I35430
tp51
a(g17
g18
g19
g30
I21
I22
g21
I1340
I35430
tp52
a(g17
g18
g19
g30
I22
I23
g21
I1260
I35430
tp53
a(g17
g18
g19
g30
I23
I24
g21
I1010
I35430
tp54
a(g17
g18
g19
g30
I24
I25
g21
I980
I35430
tp55
a(g17
g18
g19
g30
I25
I26
g21
I6031
I35430
tp56
a(g17
g18
S'letter'
p57
g20
I0
S'a'
g21
I1680
I9575
tp58
a(g17
g18
g57
g20
I1
S'b'
g21
I1000
I9575
tp59
a(g17
g18
g57
g20
I2
S'c'
g21
I1030
I9575
tp60
a(g17
g18
g57
g20
I3
S'd'
g21
I1040
I9575
tp61
a(g17
g18
g57
g20
I4
S'e'
g21
I940
I9575
tp62
a(g17
g18
g57
g20
I5
S'f'
g21
I430
I9575
tp63
a(g17
g18
g57
g20
I6
S'g'
g21
I990
I9575
tp64
a(g17
g18
g57
g20
I7
S'h'
g21
I1451
I9575
tp65
a(g17
g18
g57
g30
I0
S'a'
g21
I3850
I38837
tp66
a(g17
g18
g57
g30
I1
S'b'
g21
I1040
I38837
tp67
a(g17
g18
g57
g30
I2
S'c'
g21
I1151
I38837
tp68
a(g17
g18
g57
g30
I3
S'd'
g21
I1140
I38837
tp69
a(g17
g18
g57
g30
I4
S'e'
g21
I1020
I38837
tp70
a(g17
g18
g57
g30
I5
S'f'
g21
I1080
I38837
tp71
a(g17
g18
g57
g30
I6
S'g'
g21
I1080
I38837
tp72
a(g17
g18
g57
g30
I7
S'h'
g21
I4470
I38837
tp73
a(g17
g18
g57
g30
I8
S'i'
g21
I870
I38837
tp74
a(g17
g18
g57
g30
I9
S'j'
g21
I1030
I38837
tp75
a(g17
g18
g57
g30
I10
S'k'
g21
I1310
I38837
tp76
a(g17
g18
g57
g30
I11
S'l'
g21
I1100
I38837
tp77
a(g17
g18
g57
g30
I12
S'm'
g21
I1120
I38837
tp78
a(g17
g18
g57
g30
I13
S'n'
g21
I950
I38837
tp79
a(g17
g18
g57
g30
I14
S'o'
g21
I1040
I38837
tp80
a(g17
g18
g57
g30
I15
S'p'
g21
I2621
I38837
tp81
a(g17
g18
g57
g30
I16
S'q'
g21
I1480
I38837
tp82
a(g17
g18
g57
g30
I17
S'r'
g21
I940
I38837
tp83
a(g17
g18
g57
g30
I18
S's'
g21
I950
I38837
tp84
a(g17
g18
g57
g30
I19
S't'
g21
I3970
I38837
tp85
a(g17
g18
g57
g30
I20
S'u'
g21
I830
I38837
tp86
a(g17
g18
g57
g30
I21
S'v'
g21
I1050
I38837
tp87
a(g17
g18
g57
g30
I22
S'w'
g21
I1080
I38837
tp88
a(g17
g18
g57
g30
I23
S'x'
g21
I1800
I38837
tp89
a(g17
g18
g57
g30
I24
S'y'
g21
I890
I38837
tp90
a(g17
g18
g57
g30
I25
S'z'
g21
I860
I38837
tp91
a(g17
g18
S'number-letter'
p92
g20
I0
I1
g21
I3420
I15124
tp93
a(g17
g18
g92
g20
I1
S'a'
g21
I2210
I15124
tp94
a(g17
g18
g92
g20
I2
S'b'
S'Incorrect'
p95
I1160
I15124
tp96
a(g17
g18
g92
g20
I3
I2
g21
I1730
I15124
tp97
a(g17
g18
g92
g20
I4
S'b'
g21
I1261
I15124
tp98
a(g17
g18
g92
g20
I5
I3
g21
I2340
I15124
tp99
a(g17
g18
g92
g20
I6
S'c'
g21
I1020
I15124
tp100
a(g17
g18
g92
g20
I7
I4
g21
I980
I15124
tp101
a(g17
g18
g92
g20
I8
S'd'
g21
I960
I15124
tp102
a(g17
g18
g92
g30
I0
I1
g21
I6571
I58871
tp103
a(g17
g18
g92
g30
I1
S'a'
g21
I1370
I58871
tp104
a(g17
g18
g92
g30
I2
I2
g21
I1490
I58871
tp105
a(g17
g18
g92
g30
I3
S'b'
g21
I2630
I58871
tp106
a(g17
g18
g92
g30
I4
I3
g21
I1120
I58871
tp107
a(g17
g18
g92
g30
I5
S'c'
g21
I1270
I58871
tp108
a(g17
g18
g92
g30
I6
I4
g21
I1020
I58871
tp109
a(g17
g18
g92
g30
I7
S'd'
g21
I1130
I58871
tp110
a(g17
g18
g92
g30
I8
I5
g21
I3571
I58871
tp111
a(g17
g18
g92
g30
I9
S'e'
g21
I1250
I58871
tp112
a(g17
g18
g92
g30
I10
I6
g21
I2530
I58871
tp113
a(g17
g18
g92
g30
I11
S'f'
g21
I1930
I58871
tp114
a(g17
g18
g92
g30
I12
I7
g21
I2270
I58871
tp115
a(g17
g18
g92
g30
I13
S'g'
g21
I3080
I58871
tp116
a(g17
g18
g92
g30
I14
I8
g21
I1640
I58871
tp117
a(g17
g18
g92
g30
I15
S'h'
g21
I2010
I58871
tp118
a(g17
g18
g92
g30
I16
I9
g21
I2861
I58871
tp119
a(g17
g18
g92
g30
I17
S'i'
g21
I2010
I58871
tp120
a(g17
g18
g92
g30
I18
I10
g21
I1880
I58871
tp121
a(g17
g18
g92
g30
I19
S'j'
g21
I3510
I58871
tp122
a(g17
g18
g92
g30
I20
I11
g21
I2650
I58871
tp123
a(g17
g18
g92
g30
I21
S'k'
g21
I3360
I58871
tp124
a(g17
g18
g92
g30
I22
I12
g21
I1490
I58871
tp125
a(g17
g18
g92
g30
I23
S'l'
g21
I2451
I58871
tp126
a(g17
g18
g92
g30
I24
I13
g21
I1960
I58871
tp127
a(g17
g18
g92
g30
I25
S'm'
g21
I1700
I58871
tp128
asS'output_format'
p129
(lp130
(S'proband_id'
p131
c__builtin__
str
p132
tp133
a(S'test_name'
p134
g132
tp135
a(S'phase'
p136
g132
tp137
a(S'trial_type'
p138
g132
tp139
a(S'n'
c__builtin__
int
p140
tp141
a(S'rsp'
p142
g132
tp143
a(S'corr'
p144
g132
tp145
a(S'rt'
p146
g140
tp147
a(S'total_time'
p148
g140
tp149
asg131
g17
sS'filename'
p150
S'4307_ctrails.data'
p151
sS'initialised'
p152
g8
(S'\x07\xdf\x03\x11\x0b\x04.\x06Q0'
tRp153
sS'last_udated'
p154
g8
(S'\x07\xdf\x03\x11\x0b\x04.\x06Q0'
tRp155
sg134
S'ctrails'
p156
sS'directory'
p157
S'C:\\Users\\Jbarrett\\Charlie\\charlie\\data\\raw'
p158
sS'user_id'
p159
S''
sS'test_started'
p160
I01
sS'abs_filename'
p161
S'C:\\Users\\Jbarrett\\Charlie\\charlie\\data\\raw\\4307_ctrails.data'
p162
sS'date_started'
p163
g8
(S'\x07\xdf\x03\x11\x0b\x06\x01\x04x\x88'
tRp164
sS'log'
p165
(lp166
(S'2015-03-17 11:04:46.414000'
S'instance created'
p167
tp168
a(S'2015-03-17 11:06:01.302000'
S'instance updated'
p169
tp170
a(S'2015-03-17 11:06:01.312000'
S'pandas DataFrame of data created'
p171
tp172
a(S'2015-03-17 11:06:01.316000'
S'data saved as csv to C:\\Users\\Jbarrett\\Charlie\\charlie\\data\\csv\\4307_ctrails.csv'
tp173
a(S'2015-03-17 11:06:46.154000'
g169
tp174
a(S'2015-03-17 11:06:46.164000'
g171
tp175
a(S'2015-03-17 11:06:46.169000'
S'data saved as csv to C:\\Users\\Jbarrett\\Charlie\\charlie\\data\\csv\\4307_ctrails.csv'
tp176
a(S'2015-03-17 11:07:03.577000'
g169
tp177
a(S'2015-03-17 11:07:03.587000'
g171
tp178
a(S'2015-03-17 11:07:03.591000'
S'data saved as csv to C:\\Users\\Jbarrett\\Charlie\\charlie\\data\\csv\\4307_ctrails.csv'
tp179
a(S'2015-03-17 11:07:53.350000'
g169
tp180
a(S'2015-03-17 11:07:53.360000'
g171
tp181
a(S'2015-03-17 11:07:53.364000'
S'data saved as csv to C:\\Users\\Jbarrett\\Charlie\\charlie\\data\\csv\\4307_ctrails.csv'
tp182
a(S'2015-03-17 11:08:18.815000'
g169
tp183
a(S'2015-03-17 11:08:18.825000'
g171
tp184
a(S'2015-03-17 11:08:18.830000'
S'data saved as csv to C:\\Users\\Jbarrett\\Charlie\\charlie\\data\\csv\\4307_ctrails.csv'
tp185
a(S'2015-03-17 11:09:28.233000'
g169
tp186
a(S'2015-03-17 11:09:28.245000'
g171
tp187
a(S'2015-03-17 11:09:28.249000'
S'data saved as csv to C:\\Users\\Jbarrett\\Charlie\\charlie\\data\\csv\\4307_ctrails.csv'
tp188
asb.