(icharlie.tools.data
Data
p1
(dp2
S'lang'
p3
S'EN'
p4
sS'control'
p5
(lp6
sS'last_updated'
p7
cdatetime
datetime
p8
(S'\x07\xdf\x03\x11\n\x06\x11\x04\x9b\xb0'
tRp9
sS'last_opened'
p10
g8
(S'\x07\xdf\x03\x11\n\x03\x1d\nXp'
tRp11
sS'proj_id'
p12
S''
sS'date_done'
p13
NsS'test_done'
p14
I01
sS'data'
p15
(lp16
(S'4307'
p17
S'digit_symbol'
p18
S'practice'
p19
I0
I2
I2
S'Yes'
p20
S'C:\\Users\\Jbarrett\\Charlie\\charlie\\stimuli\\visual\\digit_symbol\\sym2.bmp'
g20
I8170
tp21
a(g17
g18
g19
I1
I6
I6
g20
S'C:\\Users\\Jbarrett\\Charlie\\charlie\\stimuli\\visual\\digit_symbol\\sym6.bmp'
g20
I1660
tp22
a(g17
g18
g19
I2
I8
I4
S'No'
p23
S'C:\\Users\\Jbarrett\\Charlie\\charlie\\stimuli\\visual\\digit_symbol\\sym4.bmp'
g23
I2680
tp24
a(g17
g18
g19
I3
I4
I4
g20
S'C:\\Users\\Jbarrett\\Charlie\\charlie\\stimuli\\visual\\digit_symbol\\sym4.bmp'
g20
I2671
tp25
a(g17
g18
g19
I4
I7
I7
g20
S'C:\\Users\\Jbarrett\\Charlie\\charlie\\stimuli\\visual\\digit_symbol\\sym7.bmp'
g20
I1440
tp26
a(g17
g18
g19
I5
I6
I5
g23
S'C:\\Users\\Jbarrett\\Charlie\\charlie\\stimuli\\visual\\digit_symbol\\sym5.bmp'
g23
I2210
tp27
a(g17
g18
g19
I6
I2
I8
g23
S'C:\\Users\\Jbarrett\\Charlie\\charlie\\stimuli\\visual\\digit_symbol\\sym8.bmp'
g23
I2290
tp28
a(g17
g18
g19
I7
I9
I2
g23
S'C:\\Users\\Jbarrett\\Charlie\\charlie\\stimuli\\visual\\digit_symbol\\sym2.bmp'
g23
I2390
tp29
a(g17
g18
g19
I8
I3
I7
g23
S'C:\\Users\\Jbarrett\\Charlie\\charlie\\stimuli\\visual\\digit_symbol\\sym7.bmp'
g23
I2070
tp30
a(g17
g18
g19
I9
I5
I6
g23
S'C:\\Users\\Jbarrett\\Charlie\\charlie\\stimuli\\visual\\digit_symbol\\sym6.bmp'
g23
I1880
tp31
a(g17
g18
S'test'
p32
I0
I8
I8
g20
S'C:\\Users\\Jbarrett\\Charlie\\charlie\\stimuli\\visual\\digit_symbol\\sym8.bmp'
g20
I2256
tp33
a(g17
g18
g32
I1
I1
I4
g23
S'C:\\Users\\Jbarrett\\Charlie\\charlie\\stimuli\\visual\\digit_symbol\\sym4.bmp'
g23
I2003
tp34
a(g17
g18
g32
I2
I2
I8
g23
S'C:\\Users\\Jbarrett\\Charlie\\charlie\\stimuli\\visual\\digit_symbol\\sym8.bmp'
g23
I2003
tp35
a(g17
g18
g32
I3
I6
I2
g23
S'C:\\Users\\Jbarrett\\Charlie\\charlie\\stimuli\\visual\\digit_symbol\\sym2.bmp'
g23
I1753
tp36
a(g17
g18
g32
I4
I4
I4
g20
S'C:\\Users\\Jbarrett\\Charlie\\charlie\\stimuli\\visual\\digit_symbol\\sym4.bmp'
g20
I2504
tp37
a(g17
g18
g32
I5
I9
I5
g23
S'C:\\Users\\Jbarrett\\Charlie\\charlie\\stimuli\\visual\\digit_symbol\\sym5.bmp'
g23
I1753
tp38
a(g17
g18
g32
I6
I5
I6
g23
S'C:\\Users\\Jbarrett\\Charlie\\charlie\\stimuli\\visual\\digit_symbol\\sym6.bmp'
g23
I1253
tp39
a(g17
g18
g32
I7
I3
I3
g20
S'C:\\Users\\Jbarrett\\Charlie\\charlie\\stimuli\\visual\\digit_symbol\\sym3.bmp'
g20
I2003
tp40
a(g17
g18
g32
I8
I4
I4
g20
S'C:\\Users\\Jbarrett\\Charlie\\charlie\\stimuli\\visual\\digit_symbol\\sym4.bmp'
g20
I1253
tp41
a(g17
g18
g32
I9
I9
I9
g20
S'C:\\Users\\Jbarrett\\Charlie\\charlie\\stimuli\\visual\\digit_symbol\\sym9.bmp'
g20
I3503
tp42
a(g17
g18
g32
I10
I6
I6
g20
S'C:\\Users\\Jbarrett\\Charlie\\charlie\\stimuli\\visual\\digit_symbol\\sym6.bmp'
g20
I1503
tp43
a(g17
g18
g32
I11
I1
I1
g20
S'C:\\Users\\Jbarrett\\Charlie\\charlie\\stimuli\\visual\\digit_symbol\\sym1.bmp'
g20
I1503
tp44
a(g17
g18
g32
I12
I2
I2
g20
S'C:\\Users\\Jbarrett\\Charlie\\charlie\\stimuli\\visual\\digit_symbol\\sym2.bmp'
g20
I1504
tp45
a(g17
g18
g32
I13
I7
I7
g20
S'C:\\Users\\Jbarrett\\Charlie\\charlie\\stimuli\\visual\\digit_symbol\\sym7.bmp'
g20
I1253
tp46
a(g17
g18
g32
I14
I3
I3
g20
S'C:\\Users\\Jbarrett\\Charlie\\charlie\\stimuli\\visual\\digit_symbol\\sym3.bmp'
g20
I1753
tp47
a(g17
g18
g32
I15
I8
I8
g20
S'C:\\Users\\Jbarrett\\Charlie\\charlie\\stimuli\\visual\\digit_symbol\\sym8.bmp'
g20
I1253
tp48
a(g17
g18
g32
I16
I7
I7
g20
S'C:\\Users\\Jbarrett\\Charlie\\charlie\\stimuli\\visual\\digit_symbol\\sym7.bmp'
g20
I1503
tp49
a(g17
g18
g32
I17
I5
I3
g23
S'C:\\Users\\Jbarrett\\Charlie\\charlie\\stimuli\\visual\\digit_symbol\\sym3.bmp'
g23
I2003
tp50
a(g17
g18
g32
I18
I1
I5
g23
S'C:\\Users\\Jbarrett\\Charlie\\charlie\\stimuli\\visual\\digit_symbol\\sym5.bmp'
g23
I3253
tp51
a(g17
g18
g32
I19
I4
I4
g20
S'C:\\Users\\Jbarrett\\Charlie\\charlie\\stimuli\\visual\\digit_symbol\\sym4.bmp'
g20
I2503
tp52
a(g17
g18
g32
I20
I7
I8
g23
S'C:\\Users\\Jbarrett\\Charlie\\charlie\\stimuli\\visual\\digit_symbol\\sym8.bmp'
g20
I5754
tp53
a(g17
g18
g32
I21
I4
I4
g20
S'C:\\Users\\Jbarrett\\Charlie\\charlie\\stimuli\\visual\\digit_symbol\\sym4.bmp'
g20
I2753
tp54
a(g17
g18
g32
I22
I8
I8
g20
S'C:\\Users\\Jbarrett\\Charlie\\charlie\\stimuli\\visual\\digit_symbol\\sym8.bmp'
g20
I2254
tp55
a(g17
g18
g32
I23
I3
I3
g20
S'C:\\Users\\Jbarrett\\Charlie\\charlie\\stimuli\\visual\\digit_symbol\\sym3.bmp'
g20
I2003
tp56
a(g17
g18
g32
I24
I5
I5
g20
S'C:\\Users\\Jbarrett\\Charlie\\charlie\\stimuli\\visual\\digit_symbol\\sym5.bmp'
g20
I2003
tp57
a(g17
g18
g32
I25
I3
I1
g23
S'C:\\Users\\Jbarrett\\Charlie\\charlie\\stimuli\\visual\\digit_symbol\\sym1.bmp'
g23
I2504
tp58
a(g17
g18
g32
I26
I6
I9
g23
S'C:\\Users\\Jbarrett\\Charlie\\charlie\\stimuli\\visual\\digit_symbol\\sym9.bmp'
g23
I3753
tp59
a(g17
g18
g32
I27
I2
I2
g20
S'C:\\Users\\Jbarrett\\Charlie\\charlie\\stimuli\\visual\\digit_symbol\\sym2.bmp'
g20
I1503
tp60
a(g17
g18
g32
I28
I8
I8
g20
S'C:\\Users\\Jbarrett\\Charlie\\charlie\\stimuli\\visual\\digit_symbol\\sym8.bmp'
g20
I2003
tp61
a(g17
g18
g32
I29
I9
I2
g23
S'C:\\Users\\Jbarrett\\Charlie\\charlie\\stimuli\\visual\\digit_symbol\\sym2.bmp'
g23
I2003
tp62
a(g17
g18
g32
I30
I1
I6
g23
S'C:\\Users\\Jbarrett\\Charlie\\charlie\\stimuli\\visual\\digit_symbol\\sym6.bmp'
g23
I2753
tp63
a(g17
g18
g32
I31
I5
I4
g23
S'C:\\Users\\Jbarrett\\Charlie\\charlie\\stimuli\\visual\\digit_symbol\\sym4.bmp'
g23
I2753
tp64
a(g17
g18
g32
I32
I6
I6
g20
S'C:\\Users\\Jbarrett\\Charlie\\charlie\\stimuli\\visual\\digit_symbol\\sym6.bmp'
g20
I2504
tp65
a(g17
g18
g32
I33
I2
I2
g20
S'C:\\Users\\Jbarrett\\Charlie\\charlie\\stimuli\\visual\\digit_symbol\\sym2.bmp'
g20
I1753
tp66
a(g17
g18
g32
I34
I9
I9
g20
S'C:\\Users\\Jbarrett\\Charlie\\charlie\\stimuli\\visual\\digit_symbol\\sym9.bmp'
g20
I3003
tp67
a(g17
g18
g32
I35
I7
I7
g20
S'C:\\Users\\Jbarrett\\Charlie\\charlie\\stimuli\\visual\\digit_symbol\\sym7.bmp'
g20
I1753
tp68
a(g17
g18
g32
I36
I3
I3
g20
S'C:\\Users\\Jbarrett\\Charlie\\charlie\\stimuli\\visual\\digit_symbol\\sym3.bmp'
g20
I1753
tp69
asS'output_format'
p70
(lp71
(S'proband_id'
p72
c__builtin__
str
p73
tp74
a(S'test_name'
p75
g73
tp76
a(S'phase'
p77
g73
tp78
a(S'trialn'
p79
c__builtin__
int
p80
tp81
a(S'digit'
p82
g80
tp83
a(S'symbol'
p84
g80
tp85
a(S'ans'
p86
g73
tp87
a(S'f'
g73
tp88
a(S'rsp'
p89
g73
tp90
a(S'rt'
p91
g80
tp92
asg72
g17
sS'filename'
p93
S'4307_digit_symbol.data'
p94
sS'initialised'
p95
g8
(S'\x07\xdf\x03\x11\n\x03\x1d\nXp'
tRp96
sS'last_udated'
p97
g8
(S'\x07\xdf\x03\x11\n\x03\x1d\nXp'
tRp98
sg75
S'digit_symbol'
p99
sS'directory'
p100
S'C:\\Users\\Jbarrett\\Charlie\\charlie\\data\\raw'
p101
sS'user_id'
p102
S''
sS'test_started'
p103
I01
sS'abs_filename'
p104
S'C:\\Users\\Jbarrett\\Charlie\\charlie\\data\\raw\\4307_digit_symbol.data'
p105
sS'date_started'
p106
g8
(S'\x07\xdf\x03\x11\n\x038\x02\xd2\xa8'
tRp107
sS'log'
p108
(lp109
(S'2015-03-17 10:03:29.678000'
S'instance created'
p110
tp111
a(S'2015-03-17 10:03:56.194000'
S'instance updated'
p112
tp113
a(S'2015-03-17 10:03:56.204000'
S'pandas DataFrame of data created'
p114
tp115
a(S'2015-03-17 10:03:56.208000'
S'data saved as csv to C:\\Users\\Jbarrett\\Charlie\\charlie\\data\\csv\\4307_digit_symbol.csv'
tp116
a(S'2015-03-17 10:03:58.882000'
g112
tp117
a(S'2015-03-17 10:03:58.893000'
g114
tp118
a(S'2015-03-17 10:03:58.896000'
S'data saved as csv to C:\\Users\\Jbarrett\\Charlie\\charlie\\data\\csv\\4307_digit_symbol.csv'
tp119
a(S'2015-03-17 10:04:02.590000'
g112
tp120
a(S'2015-03-17 10:04:02.601000'
g114
tp121
a(S'2015-03-17 10:04:02.604000'
S'data saved as csv to C:\\Users\\Jbarrett\\Charlie\\charlie\\data\\csv\\4307_digit_symbol.csv'
tp122
a(S'2015-03-17 10:04:06.289000'
g112
tp123
a(S'2015-03-17 10:04:06.300000'
g114
tp124
a(S'2015-03-17 10:04:06.302000'
S'data saved as csv to C:\\Users\\Jbarrett\\Charlie\\charlie\\data\\csv\\4307_digit_symbol.csv'
tp125
a(S'2015-03-17 10:04:08.754000'
g112
tp126
a(S'2015-03-17 10:04:08.764000'
g114
tp127
a(S'2015-03-17 10:04:08.767000'
S'data saved as csv to C:\\Users\\Jbarrett\\Charlie\\charlie\\data\\csv\\4307_digit_symbol.csv'
tp128
a(S'2015-03-17 10:04:11.989000'
g112
tp129
a(S'2015-03-17 10:04:12'
g114
tp130
a(S'2015-03-17 10:04:12.004000'
S'data saved as csv to C:\\Users\\Jbarrett\\Charlie\\charlie\\data\\csv\\4307_digit_symbol.csv'
tp131
a(S'2015-03-17 10:04:15.307000'
g112
tp132
a(S'2015-03-17 10:04:15.317000'
g114
tp133
a(S'2015-03-17 10:04:15.321000'
S'data saved as csv to C:\\Users\\Jbarrett\\Charlie\\charlie\\data\\csv\\4307_digit_symbol.csv'
tp134
a(S'2015-03-17 10:04:18.726000'
g112
tp135
a(S'2015-03-17 10:04:18.737000'
g114
tp136
a(S'2015-03-17 10:04:18.741000'
S'data saved as csv to C:\\Users\\Jbarrett\\Charlie\\charlie\\data\\csv\\4307_digit_symbol.csv'
tp137
a(S'2015-03-17 10:04:21.824000'
g112
tp138
a(S'2015-03-17 10:04:21.835000'
g114
tp139
a(S'2015-03-17 10:04:21.841000'
S'data saved as csv to C:\\Users\\Jbarrett\\Charlie\\charlie\\data\\csv\\4307_digit_symbol.csv'
tp140
a(S'2015-03-17 10:04:24.735000'
g112
tp141
a(S'2015-03-17 10:04:24.746000'
g114
tp142
a(S'2015-03-17 10:04:24.750000'
S'data saved as csv to C:\\Users\\Jbarrett\\Charlie\\charlie\\data\\csv\\4307_digit_symbol.csv'
tp143
a(S'2015-03-17 10:06:17.285000'
g112
tp144
a(S'2015-03-17 10:06:17.297000'
g114
tp145
a(S'2015-03-17 10:06:17.301000'
S'data saved as csv to C:\\Users\\Jbarrett\\Charlie\\charlie\\data\\csv\\4307_digit_symbol.csv'
tp146
asb.