(icharlie.tools.data
Data
p1
(dp2
S'lang'
p3
S'EN'
p4
sS'control'
p5
(lp6
sS'last_updated'
p7
cdatetime
datetime
p8
(S'\x07\xdf\x06\x01\x0c#\x00\r\xe2\xb0'
tRp9
sS'last_opened'
p10
g8
(S'\x07\xdf\x06\x01\x0c\x1c9\x05SH'
tRp11
sS'proj_id'
p12
S'connectivity'
p13
sS'date_done'
p14
g8
(S'\x07\xdf\x06\x01\x0c#\x00\x0c\xf4h'
tRp15
sS'test_done'
p16
I01
sS'data'
p17
(lp18
(S'4346'
p19
S'cvlt2'
p20
I0
csip
_unpickle_type
p21
(S'PyQt4.QtCore'
p22
S'QString'
(Vtruck
p23
ttRp24
tp25
a(g19
g20
I0
g21
(g22
S'QString'
(Vspinach
p26
ttRp27
tp28
a(g19
g20
I0
g21
(g22
S'QString'
(Vboat
p29
ttRp30
tp31
a(g19
g20
I0
g21
(g22
S'QString'
(Vgiraffe
p32
ttRp33
tp34
a(g19
g20
I0
g21
(g22
S'QString'
(Vcabbage
p35
ttRp36
tp37
a(g19
g20
I0
g21
(g22
S'QString'
(Vcabinet
p38
ttRp39
tp40
a(g19
g20
I0
g21
(g22
S'QString'
(Vintrusion
p41
ttRp42
tp43
a(g19
g20
I0
g21
(g22
S'QString'
(Vonion
p44
ttRp45
tp46
a(g19
g20
I1
g21
(g22
S'QString'
(Vcabbage
p47
ttRp48
tp49
a(g19
g20
I1
g21
(g22
S'QString'
(Vsquirrel
p50
ttRp51
tp52
a(g19
g20
I1
g21
(g22
S'QString'
(Vboat
p53
ttRp54
tp55
a(g19
g20
I1
g21
(g22
S'QString'
(Vbookcase
p56
ttRp57
tp58
a(g19
g20
I1
g21
(g22
S'QString'
(Vonion
p59
ttRp60
tp61
a(g19
g20
I1
g21
(g22
S'QString'
(Vzebra
p62
ttRp63
tp64
a(g19
g20
I1
g21
(g22
S'QString'
(Vboat
p65
ttRp66
tp67
a(g19
g20
I1
g21
(g22
S'QString'
(Vintrusion
p68
ttRp69
tp70
a(g19
g20
I1
g21
(g22
S'QString'
(Vdesk
p71
ttRp72
tp73
a(g19
g20
I2
g21
(g22
S'QString'
(Vtruck
p74
ttRp75
tp76
a(g19
g20
I2
g21
(g22
S'QString'
(Vspinach
p77
ttRp78
tp79
a(g19
g20
I2
g21
(g22
S'QString'
(Vboat
p80
ttRp81
tp82
a(g19
g20
I2
g21
(g22
S'QString'
(Vcabbage
p83
ttRp84
tp85
a(g19
g20
I2
g21
(g22
S'QString'
(Vsquirrel
p86
ttRp87
tp88
a(g19
g20
I2
g21
(g22
S'QString'
(Vgiraffe
p89
ttRp90
tp91
a(g19
g20
I2
g21
(g22
S'QString'
(Vlamp
p92
ttRp93
tp94
a(g19
g20
I2
g21
(g22
S'QString'
(Vdesk
p95
ttRp96
tp97
a(g19
g20
I2
g21
(g22
S'QString'
(Vcelery
p98
ttRp99
tp100
a(g19
g20
I2
g21
(g22
S'QString'
(Vmotorcycle
p101
ttRp102
tp103
a(g19
g20
I2
g21
(g22
S'QString'
(Vtruck
p104
ttRp105
tp106
a(g19
g20
I2
g21
(g22
S'QString'
(Vgiraffe
p107
ttRp108
tp109
a(g19
g20
I2
g21
(g22
S'QString'
(Vboat
p110
ttRp111
tp112
a(g19
g20
I2
g21
(g22
S'QString'
(Vcelery
p113
ttRp114
tp115
a(g19
g20
I2
g21
(g22
S'QString'
(Vdesk
p116
ttRp117
tp118
a(g19
g20
I2
g21
(g22
S'QString'
(Vzebra
p119
ttRp120
tp121
a(g19
g20
I3
g21
(g22
S'QString'
(Vsquirrel
p122
ttRp123
tp124
a(g19
g20
I3
g21
(g22
S'QString'
(Vcabinet
p125
ttRp126
tp127
a(g19
g20
I3
g21
(g22
S'QString'
(Vbookcase
p128
ttRp129
tp130
a(g19
g20
I3
g21
(g22
S'QString'
(Vdesk
p131
ttRp132
tp133
a(g19
g20
I3
g21
(g22
S'QString'
(Vsubway
p134
ttRp135
tp136
a(g19
g20
I3
g21
(g22
S'QString'
(Vonion
p137
ttRp138
tp139
a(g19
g20
I3
g21
(g22
S'QString'
(Vcelery
p140
ttRp141
tp142
a(g19
g20
I3
g21
(g22
S'QString'
(Vzebra
p143
ttRp144
tp145
a(g19
g20
I3
g21
(g22
S'QString'
(Vmotorcycle
p146
ttRp147
tp148
a(g19
g20
I3
g21
(g22
S'QString'
(Vboat
p149
ttRp150
tp151
a(g19
g20
I3
g21
(g22
S'QString'
(Vgiraffe
p152
ttRp153
tp154
a(g19
g20
I4
g21
(g22
S'QString'
(Vlamp
p155
ttRp156
tp157
a(g19
g20
I4
g21
(g22
S'QString'
(Vcow
p158
ttRp159
tp160
a(g19
g20
I4
g21
(g22
S'QString'
(Vsquirrel
p161
ttRp162
tp163
a(g19
g20
I4
g21
(g22
S'QString'
(Vcabbage
p164
ttRp165
tp166
a(g19
g20
I4
g21
(g22
S'QString'
(Vboat
p167
ttRp168
tp169
a(g19
g20
I4
g21
(g22
S'QString'
(Vcabinet
p170
ttRp171
tp172
a(g19
g20
I4
g21
(g22
S'QString'
(Vdesk
p173
ttRp174
tp175
a(g19
g20
I4
g21
(g22
S'QString'
(Vzebra
p176
ttRp177
tp178
a(g19
g20
I4
g21
(g22
S'QString'
(Vcelery
p179
ttRp180
tp181
a(g19
g20
I4
g21
(g22
S'QString'
(Vcabbage
p182
ttRp183
tp184
a(g19
g20
I4
g21
(g22
S'QString'
(Vtruck
p185
ttRp186
tp187
a(g19
g20
I4
g21
(g22
S'QString'
(Vmotorcycle
p188
ttRp189
tp190
a(g19
g20
I4
g21
(g22
S'QString'
(Vdesk
p191
ttRp192
tp193
asS'output_format'
p194
(lp195
(S'proband_id'
p196
c__builtin__
str
p197
tp198
a(S'test_name'
p199
g197
tp200
a(S'trialn'
p201
c__builtin__
int
p202
tp203
a(S'rsp'
p204
g197
tp205
asg196
g19
sS'filename'
p206
S'4346_cvlt2.data'
p207
sS'initialised'
p208
g8
(S'\x07\xdf\x06\x01\x0c\x1c9\x05SH'
tRp209
sS'last_udated'
p210
g8
(S'\x07\xdf\x06\x01\x0c\x1c9\x05SH'
tRp211
sg199
S'cvlt2'
p212
sS'directory'
p213
S'C:\\Users\\Jbarrett\\Charlie\\charlie\\data\\raw'
p214
sS'user_id'
p215
S'barrett'
p216
sS'test_started'
p217
I01
sS'abs_filename'
p218
S'C:\\Users\\Jbarrett\\Charlie\\charlie\\data\\raw\\4346_cvlt2.data'
p219
sS'date_started'
p220
g8
(S'\x07\xdf\x06\x01\x0c\x1e\x14\x07\x00\xf8'
tRp221
sS'log'
p222
(lp223
(S'2015-06-01 12:28:57.349000'
S'instance created'
p224
tp225
a(S'2015-06-01 12:30:20.468000'
S'instance updated'
p226
tp227
a(S'2015-06-01 12:30:20.491000'
S'pandas DataFrame of data created'
p228
tp229
a(S'2015-06-01 12:30:20.495000'
S'data saved as csv to C:\\Users\\Jbarrett\\Charlie\\charlie\\data\\csv\\4346_cvlt2.csv'
tp230
a(S'2015-06-01 12:31:06.744000'
g226
tp231
a(S'2015-06-01 12:31:06.765000'
g228
tp232
a(S'2015-06-01 12:31:06.768000'
S'data saved as csv to C:\\Users\\Jbarrett\\Charlie\\charlie\\data\\csv\\4346_cvlt2.csv'
tp233
a(S'2015-06-01 12:31:29.086000'
g226
tp234
a(S'2015-06-01 12:31:29.120000'
g228
tp235
a(S'2015-06-01 12:31:29.121000'
S'data saved as csv to C:\\Users\\Jbarrett\\Charlie\\charlie\\data\\csv\\4346_cvlt2.csv'
tp236
a(S'2015-06-01 12:32:08.508000'
g226
tp237
a(S'2015-06-01 12:32:08.539000'
g228
tp238
a(S'2015-06-01 12:32:08.541000'
S'data saved as csv to C:\\Users\\Jbarrett\\Charlie\\charlie\\data\\csv\\4346_cvlt2.csv'
tp239
a(S'2015-06-01 12:32:46.963000'
g226
tp240
a(S'2015-06-01 12:32:46.994000'
g228
tp241
a(S'2015-06-01 12:32:46.996000'
S'data saved as csv to C:\\Users\\Jbarrett\\Charlie\\charlie\\data\\csv\\4346_cvlt2.csv'
tp242
a(S'2015-06-01 12:33:28.287000'
g226
tp243
a(S'2015-06-01 12:33:28.337000'
g228
tp244
a(S'2015-06-01 12:33:28.339000'
S'data saved as csv to C:\\Users\\Jbarrett\\Charlie\\charlie\\data\\csv\\4346_cvlt2.csv'
tp245
a(S'2015-06-01 12:33:50.174000'
g226
tp246
a(S'2015-06-01 12:33:50.225000'
g228
tp247
a(S'2015-06-01 12:33:50.227000'
S'data saved as csv to C:\\Users\\Jbarrett\\Charlie\\charlie\\data\\csv\\4346_cvlt2.csv'
tp248
a(S'2015-06-01 12:34:31.507000'
g226
tp249
a(S'2015-06-01 12:34:31.562000'
g228
tp250
a(S'2015-06-01 12:34:31.563000'
S'data saved as csv to C:\\Users\\Jbarrett\\Charlie\\charlie\\data\\csv\\4346_cvlt2.csv'
tp251
a(S'2015-06-01 12:35:00.849000'
g226
tp252
a(S'2015-06-01 12:35:00.909000'
g228
tp253
a(S'2015-06-01 12:35:00.910000'
S'data saved as csv to C:\\Users\\Jbarrett\\Charlie\\charlie\\data\\csv\\4346_cvlt2.csv'
tp254
asb.