(icharlie.tools.data
Data
p1
(dp2
S'lang'
p3
S'EN'
p4
sS'control'
p5
(lp6
sS'last_updated'
p7
cdatetime
datetime
p8
(S'\x07\xdf\x06\x01\r\x05-\x00U\xf0'
tRp9
sS'last_opened'
p10
g8
(S'\x07\xdf\x06\x01\r\x02\x0b\t3x'
tRp11
sS'proj_id'
p12
S'connectivity'
p13
sS'date_done'
p14
NsS'test_done'
p15
I01
sS'data'
p16
(lp17
(S'4346'
p18
S'stroop'
p19
S'practice'
p20
I0
S'n/a'
p21
S'C:\\Users\\Jbarrett\\Charlie\\charlie\\stimuli\\visual\\stroop\\prac_1.png'
S'Right'
p22
g22
I4410
tp23
a(g18
g19
g20
I1
g21
S'C:\\Users\\Jbarrett\\Charlie\\charlie\\stimuli\\visual\\stroop\\prac_2.png'
S'Left'
p24
g24
I1190
tp25
a(g18
g19
g20
I2
g21
S'C:\\Users\\Jbarrett\\Charlie\\charlie\\stimuli\\visual\\stroop\\prac_3.png'
g22
g22
I1090
tp26
a(g18
g19
g20
I3
g21
S'C:\\Users\\Jbarrett\\Charlie\\charlie\\stimuli\\visual\\stroop\\prac_4.png'
g22
g22
I981
tp27
a(g18
g19
S'test'
p28
I0
S'Incongruent'
p29
S'C:\\Users\\Jbarrett\\Charlie\\charlie\\stimuli\\visual\\stroop\\6-Incongruent.png'
g24
g24
I1471
tp30
a(g18
g19
g28
I1
S'Congruent'
p31
S'C:\\Users\\Jbarrett\\Charlie\\charlie\\stimuli\\visual\\stroop\\30-Congruent.png'
g24
g24
I1940
tp32
a(g18
g19
g28
I2
g31
S'C:\\Users\\Jbarrett\\Charlie\\charlie\\stimuli\\visual\\stroop\\3-Congruent.png'
g22
g22
I1250
tp33
a(g18
g19
g28
I3
g29
S'C:\\Users\\Jbarrett\\Charlie\\charlie\\stimuli\\visual\\stroop\\23-Incongruent.png'
g24
g24
I1030
tp34
a(g18
g19
g28
I4
g31
S'C:\\Users\\Jbarrett\\Charlie\\charlie\\stimuli\\visual\\stroop\\39-Congruent.png'
g24
g24
I2000
tp35
a(g18
g19
g28
I5
g31
S'C:\\Users\\Jbarrett\\Charlie\\charlie\\stimuli\\visual\\stroop\\45-Congruent.png'
g24
g24
I1120
tp36
a(g18
g19
g28
I6
g29
S'C:\\Users\\Jbarrett\\Charlie\\charlie\\stimuli\\visual\\stroop\\31-Incongruent.png'
g22
g24
I1260
tp37
a(g18
g19
g28
I7
g29
S'C:\\Users\\Jbarrett\\Charlie\\charlie\\stimuli\\visual\\stroop\\28-Incongruent.png'
g24
g22
I1990
tp38
a(g18
g19
g28
I8
g31
S'C:\\Users\\Jbarrett\\Charlie\\charlie\\stimuli\\visual\\stroop\\31-Congruent.png'
g24
g24
I910
tp39
a(g18
g19
g28
I9
g31
S'C:\\Users\\Jbarrett\\Charlie\\charlie\\stimuli\\visual\\stroop\\10-Congruent.png'
g22
g22
I990
tp40
a(g18
g19
g28
I10
g29
S'C:\\Users\\Jbarrett\\Charlie\\charlie\\stimuli\\visual\\stroop\\10-Incongruent.png'
g24
g24
I960
tp41
a(g18
g19
g28
I11
g29
S'C:\\Users\\Jbarrett\\Charlie\\charlie\\stimuli\\visual\\stroop\\24-Incongruent.png'
g24
g24
I2170
tp42
a(g18
g19
g28
I12
g31
S'C:\\Users\\Jbarrett\\Charlie\\charlie\\stimuli\\visual\\stroop\\34-Congruent.png'
g24
g24
I881
tp43
a(g18
g19
g28
I13
g31
S'C:\\Users\\Jbarrett\\Charlie\\charlie\\stimuli\\visual\\stroop\\38-Congruent.png'
g24
g24
I960
tp44
a(g18
g19
g28
I14
g31
S'C:\\Users\\Jbarrett\\Charlie\\charlie\\stimuli\\visual\\stroop\\42-Congruent.png'
g24
g24
I3920
tp45
a(g18
g19
g28
I15
g31
S'C:\\Users\\Jbarrett\\Charlie\\charlie\\stimuli\\visual\\stroop\\17-Congruent.png'
g22
g22
I880
tp46
a(g18
g19
g28
I16
g29
S'C:\\Users\\Jbarrett\\Charlie\\charlie\\stimuli\\visual\\stroop\\42-Incongruent.png'
g22
g22
I2570
tp47
a(g18
g19
g28
I17
g29
S'C:\\Users\\Jbarrett\\Charlie\\charlie\\stimuli\\visual\\stroop\\36-Incongruent.png'
g22
g22
I1510
tp48
a(g18
g19
g28
I18
g29
S'C:\\Users\\Jbarrett\\Charlie\\charlie\\stimuli\\visual\\stroop\\43-Incongruent.png'
g22
g22
I1050
tp49
a(g18
g19
g28
I19
g31
S'C:\\Users\\Jbarrett\\Charlie\\charlie\\stimuli\\visual\\stroop\\49-Congruent.png'
g24
g24
I1040
tp50
a(g18
g19
g28
I20
g31
S'C:\\Users\\Jbarrett\\Charlie\\charlie\\stimuli\\visual\\stroop\\43-Congruent.png'
g24
g22
I9701
tp51
a(g18
g19
g28
I21
g29
S'C:\\Users\\Jbarrett\\Charlie\\charlie\\stimuli\\visual\\stroop\\15-Incongruent.png'
g24
g24
I1190
tp52
a(g18
g19
g28
I22
g29
S'C:\\Users\\Jbarrett\\Charlie\\charlie\\stimuli\\visual\\stroop\\35-Incongruent.png'
g22
g22
I1320
tp53
a(g18
g19
g28
I23
g29
S'C:\\Users\\Jbarrett\\Charlie\\charlie\\stimuli\\visual\\stroop\\44-Incongruent.png'
g22
g22
I1400
tp54
a(g18
g19
g28
I24
g29
S'C:\\Users\\Jbarrett\\Charlie\\charlie\\stimuli\\visual\\stroop\\47-Incongruent.png'
g22
g22
I1590
tp55
a(g18
g19
g28
I25
g29
S'C:\\Users\\Jbarrett\\Charlie\\charlie\\stimuli\\visual\\stroop\\40-Incongruent.png'
g22
g22
I1180
tp56
a(g18
g19
g28
I26
g29
S'C:\\Users\\Jbarrett\\Charlie\\charlie\\stimuli\\visual\\stroop\\25-Incongruent.png'
g24
g24
I2410
tp57
a(g18
g19
g28
I27
g29
S'C:\\Users\\Jbarrett\\Charlie\\charlie\\stimuli\\visual\\stroop\\27-Incongruent.png'
g24
g24
I1200
tp58
a(g18
g19
g28
I28
g29
S'C:\\Users\\Jbarrett\\Charlie\\charlie\\stimuli\\visual\\stroop\\56-Incongruent.png'
g22
g22
I770
tp59
a(g18
g19
g28
I29
g31
S'C:\\Users\\Jbarrett\\Charlie\\charlie\\stimuli\\visual\\stroop\\2-Congruent.png'
g22
g24
I1200
tp60
a(g18
g19
g28
I30
g29
S'C:\\Users\\Jbarrett\\Charlie\\charlie\\stimuli\\visual\\stroop\\17-Incongruent.png'
g24
g24
I820
tp61
a(g18
g19
g28
I31
g31
S'C:\\Users\\Jbarrett\\Charlie\\charlie\\stimuli\\visual\\stroop\\12-Congruent.png'
g22
g22
I1190
tp62
a(g18
g19
g28
I32
g29
S'C:\\Users\\Jbarrett\\Charlie\\charlie\\stimuli\\visual\\stroop\\12-Incongruent.png'
g24
g24
I900
tp63
a(g18
g19
g28
I33
g29
S'C:\\Users\\Jbarrett\\Charlie\\charlie\\stimuli\\visual\\stroop\\26-Incongruent.png'
g24
g24
I2080
tp64
a(g18
g19
g28
I34
g31
S'C:\\Users\\Jbarrett\\Charlie\\charlie\\stimuli\\visual\\stroop\\19-Congruent.png'
g22
g24
I1340
tp65
a(g18
g19
g28
I35
g31
S'C:\\Users\\Jbarrett\\Charlie\\charlie\\stimuli\\visual\\stroop\\23-Congruent.png'
g22
g24
I1180
tp66
a(g18
g19
g28
I36
g31
S'C:\\Users\\Jbarrett\\Charlie\\charlie\\stimuli\\visual\\stroop\\35-Congruent.png'
g24
g24
I1190
tp67
a(g18
g19
g28
I37
g31
S'C:\\Users\\Jbarrett\\Charlie\\charlie\\stimuli\\visual\\stroop\\46-Congruent.png'
g24
g22
I920
tp68
a(g18
g19
g28
I38
g29
S'C:\\Users\\Jbarrett\\Charlie\\charlie\\stimuli\\visual\\stroop\\8-Incongruent.png'
g24
g24
I1080
tp69
a(g18
g19
g28
I39
g31
S'C:\\Users\\Jbarrett\\Charlie\\charlie\\stimuli\\visual\\stroop\\29-Congruent.png'
g24
g22
I4651
tp70
a(g18
g19
g28
I40
g31
S'C:\\Users\\Jbarrett\\Charlie\\charlie\\stimuli\\visual\\stroop\\14-Congruent.png'
g22
g24
I1120
tp71
a(g18
g19
g28
I41
g31
S'C:\\Users\\Jbarrett\\Charlie\\charlie\\stimuli\\visual\\stroop\\33-Congruent.png'
g24
g22
I1430
tp72
a(g18
g19
g28
I42
g29
S'C:\\Users\\Jbarrett\\Charlie\\charlie\\stimuli\\visual\\stroop\\13-Incongruent.png'
g24
g24
I900
tp73
a(g18
g19
g28
I43
g29
S'C:\\Users\\Jbarrett\\Charlie\\charlie\\stimuli\\visual\\stroop\\55-Incongruent.png'
g22
g22
I770
tp74
a(g18
g19
g28
I44
g31
S'C:\\Users\\Jbarrett\\Charlie\\charlie\\stimuli\\visual\\stroop\\54-Congruent.png'
g24
g24
I1510
tp75
a(g18
g19
g28
I45
g31
S'C:\\Users\\Jbarrett\\Charlie\\charlie\\stimuli\\visual\\stroop\\8-Congruent.png'
g22
g22
I820
tp76
a(g18
g19
g28
I46
g31
S'C:\\Users\\Jbarrett\\Charlie\\charlie\\stimuli\\visual\\stroop\\13-Congruent.png'
g22
g24
I1400
tp77
a(g18
g19
g28
I47
g31
S'C:\\Users\\Jbarrett\\Charlie\\charlie\\stimuli\\visual\\stroop\\40-Congruent.png'
g24
g22
I920
tp78
a(g18
g19
g28
I48
g29
S'C:\\Users\\Jbarrett\\Charlie\\charlie\\stimuli\\visual\\stroop\\9-Incongruent.png'
g24
g24
I800
tp79
a(g18
g19
g28
I49
g31
S'C:\\Users\\Jbarrett\\Charlie\\charlie\\stimuli\\visual\\stroop\\50-Congruent.png'
g24
g22
I1110
tp80
a(g18
g19
g28
I50
g31
S'C:\\Users\\Jbarrett\\Charlie\\charlie\\stimuli\\visual\\stroop\\5-Congruent.png'
g22
g24
I1080
tp81
a(g18
g19
g28
I51
g29
S'C:\\Users\\Jbarrett\\Charlie\\charlie\\stimuli\\visual\\stroop\\5-Incongruent.png'
g24
g24
I770
tp82
a(g18
g19
g28
I52
g29
S'C:\\Users\\Jbarrett\\Charlie\\charlie\\stimuli\\visual\\stroop\\53-Incongruent.png'
g22
g22
I810
tp83
a(g18
g19
g28
I53
g29
S'C:\\Users\\Jbarrett\\Charlie\\charlie\\stimuli\\visual\\stroop\\1-Incongruent.png'
g24
g24
I901
tp84
a(g18
g19
g28
I54
g31
S'C:\\Users\\Jbarrett\\Charlie\\charlie\\stimuli\\visual\\stroop\\28-Congruent.png'
g22
g24
I1050
tp85
a(g18
g19
g28
I55
g29
S'C:\\Users\\Jbarrett\\Charlie\\charlie\\stimuli\\visual\\stroop\\34-Incongruent.png'
g22
g22
I890
tp86
a(g18
g19
g28
I56
g29
S'C:\\Users\\Jbarrett\\Charlie\\charlie\\stimuli\\visual\\stroop\\20-Incongruent.png'
g24
g24
I760
tp87
a(g18
g19
g28
I57
g29
S'C:\\Users\\Jbarrett\\Charlie\\charlie\\stimuli\\visual\\stroop\\38-Incongruent.png'
g22
g22
I700
tp88
a(g18
g19
g28
I58
g29
S'C:\\Users\\Jbarrett\\Charlie\\charlie\\stimuli\\visual\\stroop\\32-Incongruent.png'
g22
g22
I950
tp89
a(g18
g19
g28
I59
g31
S'C:\\Users\\Jbarrett\\Charlie\\charlie\\stimuli\\visual\\stroop\\9-Congruent.png'
g22
g22
I1140
tp90
a(g18
g19
g28
I60
g31
S'C:\\Users\\Jbarrett\\Charlie\\charlie\\stimuli\\visual\\stroop\\55-Congruent.png'
g24
g22
I1170
tp91
a(g18
g19
g28
I61
g29
S'C:\\Users\\Jbarrett\\Charlie\\charlie\\stimuli\\visual\\stroop\\33-Incongruent.png'
g22
g22
I1170
tp92
a(g18
g19
g28
I62
g29
S'C:\\Users\\Jbarrett\\Charlie\\charlie\\stimuli\\visual\\stroop\\49-Incongruent.png'
g22
g22
I980
tp93
a(g18
g19
g28
I63
g31
S'C:\\Users\\Jbarrett\\Charlie\\charlie\\stimuli\\visual\\stroop\\4-Congruent.png'
g22
g24
I1050
tp94
a(g18
g19
g28
I64
g31
S'C:\\Users\\Jbarrett\\Charlie\\charlie\\stimuli\\visual\\stroop\\6-Congruent.png'
g22
g24
I1040
tp95
a(g18
g19
g28
I65
g31
S'C:\\Users\\Jbarrett\\Charlie\\charlie\\stimuli\\visual\\stroop\\48-Congruent.png'
g24
g22
I960
tp96
a(g18
g19
g28
I66
g31
S'C:\\Users\\Jbarrett\\Charlie\\charlie\\stimuli\\visual\\stroop\\52-Congruent.png'
g24
g24
I5991
tp97
a(g18
g19
g28
I67
g31
S'C:\\Users\\Jbarrett\\Charlie\\charlie\\stimuli\\visual\\stroop\\51-Congruent.png'
g24
g22
I1450
tp98
a(g18
g19
g28
I68
g31
S'C:\\Users\\Jbarrett\\Charlie\\charlie\\stimuli\\visual\\stroop\\16-Congruent.png'
g22
g24
I890
tp99
a(g18
g19
g28
I69
g31
S'C:\\Users\\Jbarrett\\Charlie\\charlie\\stimuli\\visual\\stroop\\24-Congruent.png'
g22
g22
I710
tp100
a(g18
g19
g28
I70
g29
S'C:\\Users\\Jbarrett\\Charlie\\charlie\\stimuli\\visual\\stroop\\41-Incongruent.png'
g22
g22
I1090
tp101
a(g18
g19
g28
I71
g29
S'C:\\Users\\Jbarrett\\Charlie\\charlie\\stimuli\\visual\\stroop\\48-Incongruent.png'
g22
g22
I870
tp102
a(g18
g19
g28
I72
g29
S'C:\\Users\\Jbarrett\\Charlie\\charlie\\stimuli\\visual\\stroop\\4-Incongruent.png'
g24
g24
I710
tp103
a(g18
g19
g28
I73
g29
S'C:\\Users\\Jbarrett\\Charlie\\charlie\\stimuli\\visual\\stroop\\54-Incongruent.png'
g22
g22
I810
tp104
a(g18
g19
g28
I74
g29
S'C:\\Users\\Jbarrett\\Charlie\\charlie\\stimuli\\visual\\stroop\\39-Incongruent.png'
g22
g22
I970
tp105
a(g18
g19
g28
I75
g31
S'C:\\Users\\Jbarrett\\Charlie\\charlie\\stimuli\\visual\\stroop\\56-Congruent.png'
g24
g22
I2500
tp106
a(g18
g19
g28
I76
g29
S'C:\\Users\\Jbarrett\\Charlie\\charlie\\stimuli\\visual\\stroop\\46-Incongruent.png'
g22
g22
I1010
tp107
a(g18
g19
g28
I77
g31
S'C:\\Users\\Jbarrett\\Charlie\\charlie\\stimuli\\visual\\stroop\\22-Congruent.png'
g22
g24
I1120
tp108
a(g18
g19
g28
I78
g29
S'C:\\Users\\Jbarrett\\Charlie\\charlie\\stimuli\\visual\\stroop\\21-Incongruent.png'
g24
g24
I2351
tp109
a(g18
g19
g28
I79
g29
S'C:\\Users\\Jbarrett\\Charlie\\charlie\\stimuli\\visual\\stroop\\37-Incongruent.png'
g22
g22
I690
tp110
a(g18
g19
g28
I80
g29
S'C:\\Users\\Jbarrett\\Charlie\\charlie\\stimuli\\visual\\stroop\\2-Incongruent.png'
g24
g24
I750
tp111
a(g18
g19
g28
I81
g31
S'C:\\Users\\Jbarrett\\Charlie\\charlie\\stimuli\\visual\\stroop\\21-Congruent.png'
g22
g22
I1590
tp112
a(g18
g19
g28
I82
g29
S'C:\\Users\\Jbarrett\\Charlie\\charlie\\stimuli\\visual\\stroop\\7-Incongruent.png'
g24
g24
I730
tp113
a(g18
g19
g28
I83
g31
S'C:\\Users\\Jbarrett\\Charlie\\charlie\\stimuli\\visual\\stroop\\20-Congruent.png'
g22
g24
I1110
tp114
a(g18
g19
g28
I84
g31
S'C:\\Users\\Jbarrett\\Charlie\\charlie\\stimuli\\visual\\stroop\\15-Congruent.png'
g22
g24
I1140
tp115
a(g18
g19
g28
I85
g31
S'C:\\Users\\Jbarrett\\Charlie\\charlie\\stimuli\\visual\\stroop\\26-Congruent.png'
g22
g24
I2910
tp116
a(g18
g19
g28
I86
g29
S'C:\\Users\\Jbarrett\\Charlie\\charlie\\stimuli\\visual\\stroop\\16-Incongruent.png'
g24
g24
I940
tp117
a(g18
g19
g28
I87
g29
S'C:\\Users\\Jbarrett\\Charlie\\charlie\\stimuli\\visual\\stroop\\50-Incongruent.png'
g22
g22
I760
tp118
a(g18
g19
g28
I88
g31
S'C:\\Users\\Jbarrett\\Charlie\\charlie\\stimuli\\visual\\stroop\\41-Congruent.png'
g24
g22
I1110
tp119
a(g18
g19
g28
I89
g31
S'C:\\Users\\Jbarrett\\Charlie\\charlie\\stimuli\\visual\\stroop\\25-Congruent.png'
g22
g24
I3461
tp120
a(g18
g19
g28
I90
g31
S'C:\\Users\\Jbarrett\\Charlie\\charlie\\stimuli\\visual\\stroop\\27-Congruent.png'
g22
g24
I2830
tp121
a(g18
g19
g28
I91
g29
S'C:\\Users\\Jbarrett\\Charlie\\charlie\\stimuli\\visual\\stroop\\18-Incongruent.png'
g24
g24
I840
tp122
a(g18
g19
g28
I92
g29
S'C:\\Users\\Jbarrett\\Charlie\\charlie\\stimuli\\visual\\stroop\\30-Incongruent.png'
g22
g22
I680
tp123
a(g18
g19
g28
I93
g31
S'C:\\Users\\Jbarrett\\Charlie\\charlie\\stimuli\\visual\\stroop\\44-Congruent.png'
g24
g22
I950
tp124
a(g18
g19
g28
I94
g31
S'C:\\Users\\Jbarrett\\Charlie\\charlie\\stimuli\\visual\\stroop\\37-Congruent.png'
g24
g22
I1010
tp125
a(g18
g19
g28
I95
g29
S'C:\\Users\\Jbarrett\\Charlie\\charlie\\stimuli\\visual\\stroop\\11-Incongruent.png'
g24
g24
I870
tp126
a(g18
g19
g28
I96
g29
S'C:\\Users\\Jbarrett\\Charlie\\charlie\\stimuli\\visual\\stroop\\29-Incongruent.png'
g22
g22
I760
tp127
a(g18
g19
g28
I97
g29
S'C:\\Users\\Jbarrett\\Charlie\\charlie\\stimuli\\visual\\stroop\\3-Incongruent.png'
g24
g24
I730
tp128
a(g18
g19
g28
I98
g31
S'C:\\Users\\Jbarrett\\Charlie\\charlie\\stimuli\\visual\\stroop\\1-Congruent.png'
g22
g24
I1180
tp129
a(g18
g19
g28
I99
g29
S'C:\\Users\\Jbarrett\\Charlie\\charlie\\stimuli\\visual\\stroop\\52-Incongruent.png'
g22
g22
I760
tp130
a(g18
g19
g28
I100
g29
S'C:\\Users\\Jbarrett\\Charlie\\charlie\\stimuli\\visual\\stroop\\14-Incongruent.png'
g24
g24
I780
tp131
a(g18
g19
g28
I101
g31
S'C:\\Users\\Jbarrett\\Charlie\\charlie\\stimuli\\visual\\stroop\\47-Congruent.png'
g24
g22
I1030
tp132
a(g18
g19
g28
I102
g29
S'C:\\Users\\Jbarrett\\Charlie\\charlie\\stimuli\\visual\\stroop\\19-Incongruent.png'
g24
g24
I830
tp133
a(g18
g19
g28
I103
g31
S'C:\\Users\\Jbarrett\\Charlie\\charlie\\stimuli\\visual\\stroop\\11-Congruent.png'
g22
g24
I980
tp134
a(g18
g19
g28
I104
g29
S'C:\\Users\\Jbarrett\\Charlie\\charlie\\stimuli\\visual\\stroop\\22-Incongruent.png'
g24
g24
I991
tp135
a(g18
g19
g28
I105
g31
S'C:\\Users\\Jbarrett\\Charlie\\charlie\\stimuli\\visual\\stroop\\7-Congruent.png'
g22
g24
I1080
tp136
a(g18
g19
g28
I106
g31
S'C:\\Users\\Jbarrett\\Charlie\\charlie\\stimuli\\visual\\stroop\\53-Congruent.png'
g24
g22
I1300
tp137
a(g18
g19
g28
I107
g31
S'C:\\Users\\Jbarrett\\Charlie\\charlie\\stimuli\\visual\\stroop\\32-Congruent.png'
g24
g22
I1010
tp138
a(g18
g19
g28
I108
g29
S'C:\\Users\\Jbarrett\\Charlie\\charlie\\stimuli\\visual\\stroop\\45-Incongruent.png'
g22
g22
I840
tp139
a(g18
g19
g28
I109
g31
S'C:\\Users\\Jbarrett\\Charlie\\charlie\\stimuli\\visual\\stroop\\36-Congruent.png'
g24
g22
I1150
tp140
a(g18
g19
g28
I110
g29
S'C:\\Users\\Jbarrett\\Charlie\\charlie\\stimuli\\visual\\stroop\\51-Incongruent.png'
g22
g22
I870
tp141
a(g18
g19
g28
I111
g31
S'C:\\Users\\Jbarrett\\Charlie\\charlie\\stimuli\\visual\\stroop\\18-Congruent.png'
p142
g22
g24
I840
tp143
asS'output_format'
p144
(lp145
(S'proband_id'
p146
c__builtin__
str
p147
tp148
a(S'test_name'
p149
g147
tp150
a(S'phase'
p151
g147
tp152
a(S'trialn'
p153
c__builtin__
int
p154
tp155
a(S'cong'
p156
g147
tp157
a(S'f'
g147
tp158
a(S'ans'
p159
g147
tp160
a(S'rsp'
p161
g147
tp162
a(S'rt'
p163
g154
tp164
asg146
g18
sS'filename'
p165
S'4346_stroop.data'
p166
sS'initialised'
p167
g8
(S'\x07\xdf\x06\x01\r\x02\x0b\t3x'
tRp168
sS'last_udated'
p169
g8
(S'\x07\xdf\x06\x01\r\x02\x0b\t3x'
tRp170
sg149
S'stroop'
p171
sS'directory'
p172
S'C:\\Users\\Jbarrett\\Charlie\\charlie\\data\\raw'
p173
sS'user_id'
p174
S'barrett'
p175
sS'test_started'
p176
I01
sS'abs_filename'
p177
S'C:\\Users\\Jbarrett\\Charlie\\charlie\\data\\raw\\4346_stroop.data'
p178
sS'date_started'
p179
g8
(S'\x07\xdf\x06\x01\r\x02$\x02]x'
tRp180
sS'log'
p181
(lp182
(S'2015-06-01 13:02:11.603000'
S'instance created'
p183
tp184
a(S'2015-06-01 13:02:36.278000'
S'instance updated'
p185
tp186
a(S'2015-06-01 13:02:36.287000'
S'pandas DataFrame of data created'
p187
tp188
a(S'2015-06-01 13:02:36.291000'
S'data saved as csv to C:\\Users\\Jbarrett\\Charlie\\charlie\\data\\csv\\4346_stroop.csv'
tp189
a(S'2015-06-01 13:02:38.511000'
g185
tp190
a(S'2015-06-01 13:02:38.520000'
g187
tp191
a(S'2015-06-01 13:02:38.522000'
S'data saved as csv to C:\\Users\\Jbarrett\\Charlie\\charlie\\data\\csv\\4346_stroop.csv'
tp192
a(S'2015-06-01 13:02:40.641000'
g185
tp193
a(S'2015-06-01 13:02:40.650000'
g187
tp194
a(S'2015-06-01 13:02:40.654000'
S'data saved as csv to C:\\Users\\Jbarrett\\Charlie\\charlie\\data\\csv\\4346_stroop.csv'
tp195
a(S'2015-06-01 13:02:42.665000'
g185
tp196
a(S'2015-06-01 13:02:42.674000'
g187
tp197
a(S'2015-06-01 13:02:42.677000'
S'data saved as csv to C:\\Users\\Jbarrett\\Charlie\\charlie\\data\\csv\\4346_stroop.csv'
tp198
a(S'2015-06-01 13:02:58.908000'
g185
tp199
a(S'2015-06-01 13:02:58.917000'
g187
tp200
a(S'2015-06-01 13:02:58.920000'
S'data saved as csv to C:\\Users\\Jbarrett\\Charlie\\charlie\\data\\csv\\4346_stroop.csv'
tp201
a(S'2015-06-01 13:03:00.991000'
g185
tp202
a(S'2015-06-01 13:03:01'
g187
tp203
a(S'2015-06-01 13:03:01.004000'
S'data saved as csv to C:\\Users\\Jbarrett\\Charlie\\charlie\\data\\csv\\4346_stroop.csv'
tp204
a(S'2015-06-01 13:03:02.385000'
g185
tp205
a(S'2015-06-01 13:03:02.395000'
g187
tp206
a(S'2015-06-01 13:03:02.399000'
S'data saved as csv to C:\\Users\\Jbarrett\\Charlie\\charlie\\data\\csv\\4346_stroop.csv'
tp207
a(S'2015-06-01 13:03:03.562000'
g185
tp208
a(S'2015-06-01 13:03:03.571000'
g187
tp209
a(S'2015-06-01 13:03:03.575000'
S'data saved as csv to C:\\Users\\Jbarrett\\Charlie\\charlie\\data\\csv\\4346_stroop.csv'
tp210
a(S'2015-06-01 13:03:05.705000'
g185
tp211
a(S'2015-06-01 13:03:05.710000'
g187
tp212
a(S'2015-06-01 13:03:05.713000'
S'data saved as csv to C:\\Users\\Jbarrett\\Charlie\\charlie\\data\\csv\\4346_stroop.csv'
tp213
a(S'2015-06-01 13:03:06.963000'
g185
tp214
a(S'2015-06-01 13:03:06.972000'
g187
tp215
a(S'2015-06-01 13:03:06.976000'
S'data saved as csv to C:\\Users\\Jbarrett\\Charlie\\charlie\\data\\csv\\4346_stroop.csv'
tp216
a(S'2015-06-01 13:03:08.369000'
g185
tp217
a(S'2015-06-01 13:03:08.379000'
g187
tp218
a(S'2015-06-01 13:03:08.383000'
S'data saved as csv to C:\\Users\\Jbarrett\\Charlie\\charlie\\data\\csv\\4346_stroop.csv'
tp219
a(S'2015-06-01 13:03:10.506000'
g185
tp220
a(S'2015-06-01 13:03:10.515000'
g187
tp221
a(S'2015-06-01 13:03:10.519000'
S'data saved as csv to C:\\Users\\Jbarrett\\Charlie\\charlie\\data\\csv\\4346_stroop.csv'
tp222
a(S'2015-06-01 13:03:11.562000'
g185
tp223
a(S'2015-06-01 13:03:11.572000'
g187
tp224
a(S'2015-06-01 13:03:11.576000'
S'data saved as csv to C:\\Users\\Jbarrett\\Charlie\\charlie\\data\\csv\\4346_stroop.csv'
tp225
a(S'2015-06-01 13:03:12.697000'
g185
tp226
a(S'2015-06-01 13:03:12.706000'
g187
tp227
a(S'2015-06-01 13:03:12.710000'
S'data saved as csv to C:\\Users\\Jbarrett\\Charlie\\charlie\\data\\csv\\4346_stroop.csv'
tp228
a(S'2015-06-01 13:03:13.801000'
g185
tp229
a(S'2015-06-01 13:03:13.810000'
g187
tp230
a(S'2015-06-01 13:03:13.814000'
S'data saved as csv to C:\\Users\\Jbarrett\\Charlie\\charlie\\data\\csv\\4346_stroop.csv'
tp231
a(S'2015-06-01 13:03:16.118000'
g185
tp232
a(S'2015-06-01 13:03:16.128000'
g187
tp233
a(S'2015-06-01 13:03:16.132000'
S'data saved as csv to C:\\Users\\Jbarrett\\Charlie\\charlie\\data\\csv\\4346_stroop.csv'
tp234
a(S'2015-06-01 13:03:17.144000'
g185
tp235
a(S'2015-06-01 13:03:17.154000'
g187
tp236
a(S'2015-06-01 13:03:17.158000'
S'data saved as csv to C:\\Users\\Jbarrett\\Charlie\\charlie\\data\\csv\\4346_stroop.csv'
tp237
a(S'2015-06-01 13:03:18.248000'
g185
tp238
a(S'2015-06-01 13:03:18.258000'
g187
tp239
a(S'2015-06-01 13:03:18.262000'
S'data saved as csv to C:\\Users\\Jbarrett\\Charlie\\charlie\\data\\csv\\4346_stroop.csv'
tp240
a(S'2015-06-01 13:03:22.315000'
g185
tp241
a(S'2015-06-01 13:03:22.325000'
g187
tp242
a(S'2015-06-01 13:03:22.329000'
S'data saved as csv to C:\\Users\\Jbarrett\\Charlie\\charlie\\data\\csv\\4346_stroop.csv'
tp243
a(S'2015-06-01 13:03:23.344000'
g185
tp244
a(S'2015-06-01 13:03:23.354000'
g187
tp245
a(S'2015-06-01 13:03:23.358000'
S'data saved as csv to C:\\Users\\Jbarrett\\Charlie\\charlie\\data\\csv\\4346_stroop.csv'
tp246
a(S'2015-06-01 13:03:26.062000'
g185
tp247
a(S'2015-06-01 13:03:26.071000'
g187
tp248
a(S'2015-06-01 13:03:26.075000'
S'data saved as csv to C:\\Users\\Jbarrett\\Charlie\\charlie\\data\\csv\\4346_stroop.csv'
tp249
a(S'2015-06-01 13:03:27.719000'
g185
tp250
a(S'2015-06-01 13:03:27.728000'
g187
tp251
a(S'2015-06-01 13:03:27.732000'
S'data saved as csv to C:\\Users\\Jbarrett\\Charlie\\charlie\\data\\csv\\4346_stroop.csv'
tp252
a(S'2015-06-01 13:03:28.905000'
g185
tp253
a(S'2015-06-01 13:03:28.910000'
g187
tp254
a(S'2015-06-01 13:03:28.912000'
S'data saved as csv to C:\\Users\\Jbarrett\\Charlie\\charlie\\data\\csv\\4346_stroop.csv'
tp255
a(S'2015-06-01 13:03:30.082000'
g185
tp256
a(S'2015-06-01 13:03:30.091000'
g187
tp257
a(S'2015-06-01 13:03:30.095000'
S'data saved as csv to C:\\Users\\Jbarrett\\Charlie\\charlie\\data\\csv\\4346_stroop.csv'
tp258
a(S'2015-06-01 13:03:39.928000'
g185
tp259
a(S'2015-06-01 13:03:39.935000'
g187
tp260
a(S'2015-06-01 13:03:39.938000'
S'data saved as csv to C:\\Users\\Jbarrett\\Charlie\\charlie\\data\\csv\\4346_stroop.csv'
tp261
a(S'2015-06-01 13:03:41.260000'
g185
tp262
a(S'2015-06-01 13:03:41.269000'
g187
tp263
a(S'2015-06-01 13:03:41.273000'
S'data saved as csv to C:\\Users\\Jbarrett\\Charlie\\charlie\\data\\csv\\4346_stroop.csv'
tp264
a(S'2015-06-01 13:03:42.727000'
g185
tp265
a(S'2015-06-01 13:03:42.736000'
g187
tp266
a(S'2015-06-01 13:03:42.740000'
S'data saved as csv to C:\\Users\\Jbarrett\\Charlie\\charlie\\data\\csv\\4346_stroop.csv'
tp267
a(S'2015-06-01 13:03:44.273000'
g185
tp268
a(S'2015-06-01 13:03:44.282000'
g187
tp269
a(S'2015-06-01 13:03:44.287000'
S'data saved as csv to C:\\Users\\Jbarrett\\Charlie\\charlie\\data\\csv\\4346_stroop.csv'
tp270
a(S'2015-06-01 13:03:46.010000'
g185
tp271
a(S'2015-06-01 13:03:46.019000'
g187
tp272
a(S'2015-06-01 13:03:46.023000'
S'data saved as csv to C:\\Users\\Jbarrett\\Charlie\\charlie\\data\\csv\\4346_stroop.csv'
tp273
a(S'2015-06-01 13:03:47.336000'
g185
tp274
a(S'2015-06-01 13:03:47.346000'
g187
tp275
a(S'2015-06-01 13:03:47.350000'
S'data saved as csv to C:\\Users\\Jbarrett\\Charlie\\charlie\\data\\csv\\4346_stroop.csv'
tp276
a(S'2015-06-01 13:03:49.895000'
g185
tp277
a(S'2015-06-01 13:03:49.905000'
g187
tp278
a(S'2015-06-01 13:03:49.909000'
S'data saved as csv to C:\\Users\\Jbarrett\\Charlie\\charlie\\data\\csv\\4346_stroop.csv'
tp279
a(S'2015-06-01 13:03:51.242000'
g185
tp280
a(S'2015-06-01 13:03:51.252000'
g187
tp281
a(S'2015-06-01 13:03:51.256000'
S'data saved as csv to C:\\Users\\Jbarrett\\Charlie\\charlie\\data\\csv\\4346_stroop.csv'
tp282
a(S'2015-06-01 13:03:52.159000'
g185
tp283
a(S'2015-06-01 13:03:52.167000'
g187
tp284
a(S'2015-06-01 13:03:52.170000'
S'data saved as csv to C:\\Users\\Jbarrett\\Charlie\\charlie\\data\\csv\\4346_stroop.csv'
tp285
a(S'2015-06-01 13:03:53.500000'
g185
tp286
a(S'2015-06-01 13:03:53.510000'
g187
tp287
a(S'2015-06-01 13:03:53.514000'
S'data saved as csv to C:\\Users\\Jbarrett\\Charlie\\charlie\\data\\csv\\4346_stroop.csv'
tp288
a(S'2015-06-01 13:03:54.466000'
g185
tp289
a(S'2015-06-01 13:03:54.475000'
g187
tp290
a(S'2015-06-01 13:03:54.478000'
S'data saved as csv to C:\\Users\\Jbarrett\\Charlie\\charlie\\data\\csv\\4346_stroop.csv'
tp291
a(S'2015-06-01 13:03:55.800000'
g185
tp292
a(S'2015-06-01 13:03:55.810000'
g187
tp293
a(S'2015-06-01 13:03:55.814000'
S'data saved as csv to C:\\Users\\Jbarrett\\Charlie\\charlie\\data\\csv\\4346_stroop.csv'
tp294
a(S'2015-06-01 13:03:56.848000'
g185
tp295
a(S'2015-06-01 13:03:56.859000'
g187
tp296
a(S'2015-06-01 13:03:56.863000'
S'data saved as csv to C:\\Users\\Jbarrett\\Charlie\\charlie\\data\\csv\\4346_stroop.csv'
tp297
a(S'2015-06-01 13:03:59.078000'
g185
tp298
a(S'2015-06-01 13:03:59.088000'
g187
tp299
a(S'2015-06-01 13:03:59.092000'
S'data saved as csv to C:\\Users\\Jbarrett\\Charlie\\charlie\\data\\csv\\4346_stroop.csv'
tp300
a(S'2015-06-01 13:04:00.564000'
g185
tp301
a(S'2015-06-01 13:04:00.574000'
g187
tp302
a(S'2015-06-01 13:04:00.578000'
S'data saved as csv to C:\\Users\\Jbarrett\\Charlie\\charlie\\data\\csv\\4346_stroop.csv'
tp303
a(S'2015-06-01 13:04:01.892000'
g185
tp304
a(S'2015-06-01 13:04:01.902000'
g187
tp305
a(S'2015-06-01 13:04:01.906000'
S'data saved as csv to C:\\Users\\Jbarrett\\Charlie\\charlie\\data\\csv\\4346_stroop.csv'
tp306
a(S'2015-06-01 13:04:03.230000'
g185
tp307
a(S'2015-06-01 13:04:03.239000'
g187
tp308
a(S'2015-06-01 13:04:03.243000'
S'data saved as csv to C:\\Users\\Jbarrett\\Charlie\\charlie\\data\\csv\\4346_stroop.csv'
tp309
a(S'2015-06-01 13:04:04.297000'
g185
tp310
a(S'2015-06-01 13:04:04.307000'
g187
tp311
a(S'2015-06-01 13:04:04.311000'
S'data saved as csv to C:\\Users\\Jbarrett\\Charlie\\charlie\\data\\csv\\4346_stroop.csv'
tp312
a(S'2015-06-01 13:04:05.524000'
g185
tp313
a(S'2015-06-01 13:04:05.534000'
g187
tp314
a(S'2015-06-01 13:04:05.538000'
S'data saved as csv to C:\\Users\\Jbarrett\\Charlie\\charlie\\data\\csv\\4346_stroop.csv'
tp315
a(S'2015-06-01 13:04:10.323000'
g185
tp316
a(S'2015-06-01 13:04:10.333000'
g187
tp317
a(S'2015-06-01 13:04:10.337000'
S'data saved as csv to C:\\Users\\Jbarrett\\Charlie\\charlie\\data\\csv\\4346_stroop.csv'
tp318
a(S'2015-06-01 13:04:11.591000'
g185
tp319
a(S'2015-06-01 13:04:11.601000'
g187
tp320
a(S'2015-06-01 13:04:11.605000'
S'data saved as csv to C:\\Users\\Jbarrett\\Charlie\\charlie\\data\\csv\\4346_stroop.csv'
tp321
a(S'2015-06-01 13:04:13.166000'
g185
tp322
a(S'2015-06-01 13:04:13.176000'
g187
tp323
a(S'2015-06-01 13:04:13.180000'
S'data saved as csv to C:\\Users\\Jbarrett\\Charlie\\charlie\\data\\csv\\4346_stroop.csv'
tp324
a(S'2015-06-01 13:04:14.214000'
g185
tp325
a(S'2015-06-01 13:04:14.224000'
g187
tp326
a(S'2015-06-01 13:04:14.228000'
S'data saved as csv to C:\\Users\\Jbarrett\\Charlie\\charlie\\data\\csv\\4346_stroop.csv'
tp327
a(S'2015-06-01 13:04:15.133000'
g185
tp328
a(S'2015-06-01 13:04:15.143000'
g187
tp329
a(S'2015-06-01 13:04:15.146000'
S'data saved as csv to C:\\Users\\Jbarrett\\Charlie\\charlie\\data\\csv\\4346_stroop.csv'
tp330
a(S'2015-06-01 13:04:16.787000'
g185
tp331
a(S'2015-06-01 13:04:16.795000'
g187
tp332
a(S'2015-06-01 13:04:16.798000'
S'data saved as csv to C:\\Users\\Jbarrett\\Charlie\\charlie\\data\\csv\\4346_stroop.csv'
tp333
a(S'2015-06-01 13:04:17.749000'
g185
tp334
a(S'2015-06-01 13:04:17.759000'
g187
tp335
a(S'2015-06-01 13:04:17.764000'
S'data saved as csv to C:\\Users\\Jbarrett\\Charlie\\charlie\\data\\csv\\4346_stroop.csv'
tp336
a(S'2015-06-01 13:04:19.297000'
g185
tp337
a(S'2015-06-01 13:04:19.307000'
g187
tp338
a(S'2015-06-01 13:04:19.311000'
S'data saved as csv to C:\\Users\\Jbarrett\\Charlie\\charlie\\data\\csv\\4346_stroop.csv'
tp339
a(S'2015-06-01 13:04:20.363000'
g185
tp340
a(S'2015-06-01 13:04:20.373000'
g187
tp341
a(S'2015-06-01 13:04:20.377000'
S'data saved as csv to C:\\Users\\Jbarrett\\Charlie\\charlie\\data\\csv\\4346_stroop.csv'
tp342
a(S'2015-06-01 13:04:21.311000'
g185
tp343
a(S'2015-06-01 13:04:21.321000'
g187
tp344
a(S'2015-06-01 13:04:21.325000'
S'data saved as csv to C:\\Users\\Jbarrett\\Charlie\\charlie\\data\\csv\\4346_stroop.csv'
tp345
a(S'2015-06-01 13:04:22.548000'
g185
tp346
a(S'2015-06-01 13:04:22.550000'
g187
tp347
a(S'2015-06-01 13:04:22.552000'
S'data saved as csv to C:\\Users\\Jbarrett\\Charlie\\charlie\\data\\csv\\4346_stroop.csv'
tp348
a(S'2015-06-01 13:04:23.761000'
g185
tp349
a(S'2015-06-01 13:04:23.771000'
g187
tp350
a(S'2015-06-01 13:04:23.775000'
S'data saved as csv to C:\\Users\\Jbarrett\\Charlie\\charlie\\data\\csv\\4346_stroop.csv'
tp351
a(S'2015-06-01 13:04:24.679000'
g185
tp352
a(S'2015-06-01 13:04:24.689000'
g187
tp353
a(S'2015-06-01 13:04:24.694000'
S'data saved as csv to C:\\Users\\Jbarrett\\Charlie\\charlie\\data\\csv\\4346_stroop.csv'
tp354
a(S'2015-06-01 13:04:25.638000'
g185
tp355
a(S'2015-06-01 13:04:25.646000'
g187
tp356
a(S'2015-06-01 13:04:25.649000'
S'data saved as csv to C:\\Users\\Jbarrett\\Charlie\\charlie\\data\\csv\\4346_stroop.csv'
tp357
a(S'2015-06-01 13:04:26.680000'
g185
tp358
a(S'2015-06-01 13:04:26.690000'
g187
tp359
a(S'2015-06-01 13:04:26.695000'
S'data saved as csv to C:\\Users\\Jbarrett\\Charlie\\charlie\\data\\csv\\4346_stroop.csv'
tp360
a(S'2015-06-01 13:04:27.879000'
g185
tp361
a(S'2015-06-01 13:04:27.890000'
g187
tp362
a(S'2015-06-01 13:04:27.894000'
S'data saved as csv to C:\\Users\\Jbarrett\\Charlie\\charlie\\data\\csv\\4346_stroop.csv'
tp363
a(S'2015-06-01 13:04:28.905000'
g185
tp364
a(S'2015-06-01 13:04:28.911000'
g187
tp365
a(S'2015-06-01 13:04:28.913000'
S'data saved as csv to C:\\Users\\Jbarrett\\Charlie\\charlie\\data\\csv\\4346_stroop.csv'
tp366
a(S'2015-06-01 13:04:29.804000'
g185
tp367
a(S'2015-06-01 13:04:29.815000'
g187
tp368
a(S'2015-06-01 13:04:29.820000'
S'data saved as csv to C:\\Users\\Jbarrett\\Charlie\\charlie\\data\\csv\\4346_stroop.csv'
tp369
a(S'2015-06-01 13:04:30.639000'
g185
tp370
a(S'2015-06-01 13:04:30.643000'
g187
tp371
a(S'2015-06-01 13:04:30.654000'
S'data saved as csv to C:\\Users\\Jbarrett\\Charlie\\charlie\\data\\csv\\4346_stroop.csv'
tp372
a(S'2015-06-01 13:04:31.735000'
g185
tp373
a(S'2015-06-01 13:04:31.745000'
g187
tp374
a(S'2015-06-01 13:04:31.750000'
S'data saved as csv to C:\\Users\\Jbarrett\\Charlie\\charlie\\data\\csv\\4346_stroop.csv'
tp375
a(S'2015-06-01 13:04:33.023000'
g185
tp376
a(S'2015-06-01 13:04:33.034000'
g187
tp377
a(S'2015-06-01 13:04:33.038000'
S'data saved as csv to C:\\Users\\Jbarrett\\Charlie\\charlie\\data\\csv\\4346_stroop.csv'
tp378
a(S'2015-06-01 13:04:34.342000'
g185
tp379
a(S'2015-06-01 13:04:34.353000'
g187
tp380
a(S'2015-06-01 13:04:34.358000'
S'data saved as csv to C:\\Users\\Jbarrett\\Charlie\\charlie\\data\\csv\\4346_stroop.csv'
tp381
a(S'2015-06-01 13:04:35.662000'
g185
tp382
a(S'2015-06-01 13:04:35.672000'
g187
tp383
a(S'2015-06-01 13:04:35.677000'
S'data saved as csv to C:\\Users\\Jbarrett\\Charlie\\charlie\\data\\csv\\4346_stroop.csv'
tp384
a(S'2015-06-01 13:04:36.791000'
g185
tp385
a(S'2015-06-01 13:04:36.801000'
g187
tp386
a(S'2015-06-01 13:04:36.805000'
S'data saved as csv to C:\\Users\\Jbarrett\\Charlie\\charlie\\data\\csv\\4346_stroop.csv'
tp387
a(S'2015-06-01 13:04:37.986000'
g185
tp388
a(S'2015-06-01 13:04:37.997000'
g187
tp389
a(S'2015-06-01 13:04:38.002000'
S'data saved as csv to C:\\Users\\Jbarrett\\Charlie\\charlie\\data\\csv\\4346_stroop.csv'
tp390
a(S'2015-06-01 13:04:39.175000'
g185
tp391
a(S'2015-06-01 13:04:39.186000'
g187
tp392
a(S'2015-06-01 13:04:39.191000'
S'data saved as csv to C:\\Users\\Jbarrett\\Charlie\\charlie\\data\\csv\\4346_stroop.csv'
tp393
a(S'2015-06-01 13:04:40.284000'
g185
tp394
a(S'2015-06-01 13:04:40.290000'
g187
tp395
a(S'2015-06-01 13:04:40.292000'
S'data saved as csv to C:\\Users\\Jbarrett\\Charlie\\charlie\\data\\csv\\4346_stroop.csv'
tp396
a(S'2015-06-01 13:04:46.409000'
g185
tp397
a(S'2015-06-01 13:04:46.414000'
g187
tp398
a(S'2015-06-01 13:04:46.416000'
S'data saved as csv to C:\\Users\\Jbarrett\\Charlie\\charlie\\data\\csv\\4346_stroop.csv'
tp399
a(S'2015-06-01 13:04:47.997000'
g185
tp400
a(S'2015-06-01 13:04:48.008000'
g187
tp401
a(S'2015-06-01 13:04:48.013000'
S'data saved as csv to C:\\Users\\Jbarrett\\Charlie\\charlie\\data\\csv\\4346_stroop.csv'
tp402
a(S'2015-06-01 13:04:49.037000'
g185
tp403
a(S'2015-06-01 13:04:49.046000'
g187
tp404
a(S'2015-06-01 13:04:49.049000'
S'data saved as csv to C:\\Users\\Jbarrett\\Charlie\\charlie\\data\\csv\\4346_stroop.csv'
tp405
a(S'2015-06-01 13:04:49.887000'
g185
tp406
a(S'2015-06-01 13:04:49.894000'
g187
tp407
a(S'2015-06-01 13:04:49.896000'
S'data saved as csv to C:\\Users\\Jbarrett\\Charlie\\charlie\\data\\csv\\4346_stroop.csv'
tp408
a(S'2015-06-01 13:04:51.117000'
g185
tp409
a(S'2015-06-01 13:04:51.128000'
g187
tp410
a(S'2015-06-01 13:04:51.132000'
S'data saved as csv to C:\\Users\\Jbarrett\\Charlie\\charlie\\data\\csv\\4346_stroop.csv'
tp411
a(S'2015-06-01 13:04:52.137000'
g185
tp412
a(S'2015-06-01 13:04:52.148000'
g187
tp413
a(S'2015-06-01 13:04:52.152000'
S'data saved as csv to C:\\Users\\Jbarrett\\Charlie\\charlie\\data\\csv\\4346_stroop.csv'
tp414
a(S'2015-06-01 13:04:52.997000'
g185
tp415
a(S'2015-06-01 13:04:53.007000'
g187
tp416
a(S'2015-06-01 13:04:53.012000'
S'data saved as csv to C:\\Users\\Jbarrett\\Charlie\\charlie\\data\\csv\\4346_stroop.csv'
tp417
a(S'2015-06-01 13:04:53.957000'
g185
tp418
a(S'2015-06-01 13:04:53.967000'
g187
tp419
a(S'2015-06-01 13:04:53.971000'
S'data saved as csv to C:\\Users\\Jbarrett\\Charlie\\charlie\\data\\csv\\4346_stroop.csv'
tp420
a(S'2015-06-01 13:04:55.075000'
g185
tp421
a(S'2015-06-01 13:04:55.086000'
g187
tp422
a(S'2015-06-01 13:04:55.091000'
S'data saved as csv to C:\\Users\\Jbarrett\\Charlie\\charlie\\data\\csv\\4346_stroop.csv'
tp423
a(S'2015-06-01 13:04:57.727000'
g185
tp424
a(S'2015-06-01 13:04:57.737000'
g187
tp425
a(S'2015-06-01 13:04:57.742000'
S'data saved as csv to C:\\Users\\Jbarrett\\Charlie\\charlie\\data\\csv\\4346_stroop.csv'
tp426
a(S'2015-06-01 13:04:58.883000'
g185
tp427
a(S'2015-06-01 13:04:58.889000'
g187
tp428
a(S'2015-06-01 13:04:58.892000'
S'data saved as csv to C:\\Users\\Jbarrett\\Charlie\\charlie\\data\\csv\\4346_stroop.csv'
tp429
a(S'2015-06-01 13:05:00.144000'
g185
tp430
a(S'2015-06-01 13:05:00.154000'
g187
tp431
a(S'2015-06-01 13:05:00.158000'
S'data saved as csv to C:\\Users\\Jbarrett\\Charlie\\charlie\\data\\csv\\4346_stroop.csv'
tp432
a(S'2015-06-01 13:05:02.643000'
g185
tp433
a(S'2015-06-01 13:05:02.653000'
g187
tp434
a(S'2015-06-01 13:05:02.658000'
S'data saved as csv to C:\\Users\\Jbarrett\\Charlie\\charlie\\data\\csv\\4346_stroop.csv'
tp435
a(S'2015-06-01 13:05:03.476000'
g185
tp436
a(S'2015-06-01 13:05:03.480000'
g187
tp437
a(S'2015-06-01 13:05:03.483000'
S'data saved as csv to C:\\Users\\Jbarrett\\Charlie\\charlie\\data\\csv\\4346_stroop.csv'
tp438
a(S'2015-06-01 13:05:04.364000'
g185
tp439
a(S'2015-06-01 13:05:04.373000'
g187
tp440
a(S'2015-06-01 13:05:04.376000'
S'data saved as csv to C:\\Users\\Jbarrett\\Charlie\\charlie\\data\\csv\\4346_stroop.csv'
tp441
a(S'2015-06-01 13:05:06.098000'
g185
tp442
a(S'2015-06-01 13:05:06.109000'
g187
tp443
a(S'2015-06-01 13:05:06.113000'
S'data saved as csv to C:\\Users\\Jbarrett\\Charlie\\charlie\\data\\csv\\4346_stroop.csv'
tp444
a(S'2015-06-01 13:05:06.975000'
g185
tp445
a(S'2015-06-01 13:05:06.986000'
g187
tp446
a(S'2015-06-01 13:05:06.991000'
S'data saved as csv to C:\\Users\\Jbarrett\\Charlie\\charlie\\data\\csv\\4346_stroop.csv'
tp447
a(S'2015-06-01 13:05:08.225000'
g185
tp448
a(S'2015-06-01 13:05:08.232000'
g187
tp449
a(S'2015-06-01 13:05:08.235000'
S'data saved as csv to C:\\Users\\Jbarrett\\Charlie\\charlie\\data\\csv\\4346_stroop.csv'
tp450
a(S'2015-06-01 13:05:09.507000'
g185
tp451
a(S'2015-06-01 13:05:09.518000'
g187
tp452
a(S'2015-06-01 13:05:09.523000'
S'data saved as csv to C:\\Users\\Jbarrett\\Charlie\\charlie\\data\\csv\\4346_stroop.csv'
tp453
a(S'2015-06-01 13:05:12.569000'
g185
tp454
a(S'2015-06-01 13:05:12.580000'
g187
tp455
a(S'2015-06-01 13:05:12.585000'
S'data saved as csv to C:\\Users\\Jbarrett\\Charlie\\charlie\\data\\csv\\4346_stroop.csv'
tp456
a(S'2015-06-01 13:05:13.660000'
g185
tp457
a(S'2015-06-01 13:05:13.671000'
g187
tp458
a(S'2015-06-01 13:05:13.676000'
S'data saved as csv to C:\\Users\\Jbarrett\\Charlie\\charlie\\data\\csv\\4346_stroop.csv'
tp459
a(S'2015-06-01 13:05:14.570000'
g185
tp460
a(S'2015-06-01 13:05:14.581000'
g187
tp461
a(S'2015-06-01 13:05:14.586000'
S'data saved as csv to C:\\Users\\Jbarrett\\Charlie\\charlie\\data\\csv\\4346_stroop.csv'
tp462
a(S'2015-06-01 13:05:15.831000'
g185
tp463
a(S'2015-06-01 13:05:15.842000'
g187
tp464
a(S'2015-06-01 13:05:15.847000'
S'data saved as csv to C:\\Users\\Jbarrett\\Charlie\\charlie\\data\\csv\\4346_stroop.csv'
tp465
a(S'2015-06-01 13:05:19.443000'
g185
tp466
a(S'2015-06-01 13:05:19.454000'
g187
tp467
a(S'2015-06-01 13:05:19.459000'
S'data saved as csv to C:\\Users\\Jbarrett\\Charlie\\charlie\\data\\csv\\4346_stroop.csv'
tp468
a(S'2015-06-01 13:05:22.426000'
g185
tp469
a(S'2015-06-01 13:05:22.434000'
g187
tp470
a(S'2015-06-01 13:05:22.437000'
S'data saved as csv to C:\\Users\\Jbarrett\\Charlie\\charlie\\data\\csv\\4346_stroop.csv'
tp471
a(S'2015-06-01 13:05:23.410000'
g185
tp472
a(S'2015-06-01 13:05:23.420000'
g187
tp473
a(S'2015-06-01 13:05:23.423000'
S'data saved as csv to C:\\Users\\Jbarrett\\Charlie\\charlie\\data\\csv\\4346_stroop.csv'
tp474
a(S'2015-06-01 13:05:24.236000'
g185
tp475
a(S'2015-06-01 13:05:24.246000'
g187
tp476
a(S'2015-06-01 13:05:24.251000'
S'data saved as csv to C:\\Users\\Jbarrett\\Charlie\\charlie\\data\\csv\\4346_stroop.csv'
tp477
a(S'2015-06-01 13:05:25.335000'
g185
tp478
a(S'2015-06-01 13:05:25.346000'
g187
tp479
a(S'2015-06-01 13:05:25.351000'
S'data saved as csv to C:\\Users\\Jbarrett\\Charlie\\charlie\\data\\csv\\4346_stroop.csv'
tp480
a(S'2015-06-01 13:05:26.496000'
g185
tp481
a(S'2015-06-01 13:05:26.507000'
g187
tp482
a(S'2015-06-01 13:05:26.511000'
S'data saved as csv to C:\\Users\\Jbarrett\\Charlie\\charlie\\data\\csv\\4346_stroop.csv'
tp483
a(S'2015-06-01 13:05:27.513000'
g185
tp484
a(S'2015-06-01 13:05:27.525000'
g187
tp485
a(S'2015-06-01 13:05:27.530000'
S'data saved as csv to C:\\Users\\Jbarrett\\Charlie\\charlie\\data\\csv\\4346_stroop.csv'
tp486
a(S'2015-06-01 13:05:28.422000'
g185
tp487
a(S'2015-06-01 13:05:28.431000'
g187
tp488
a(S'2015-06-01 13:05:28.434000'
S'data saved as csv to C:\\Users\\Jbarrett\\Charlie\\charlie\\data\\csv\\4346_stroop.csv'
tp489
a(S'2015-06-01 13:05:29.298000'
g185
tp490
a(S'2015-06-01 13:05:29.308000'
g187
tp491
a(S'2015-06-01 13:05:29.314000'
S'data saved as csv to C:\\Users\\Jbarrett\\Charlie\\charlie\\data\\csv\\4346_stroop.csv'
tp492
a(S'2015-06-01 13:05:30.628000'
g185
tp493
a(S'2015-06-01 13:05:30.640000'
g187
tp494
a(S'2015-06-01 13:05:30.645000'
S'data saved as csv to C:\\Users\\Jbarrett\\Charlie\\charlie\\data\\csv\\4346_stroop.csv'
tp495
a(S'2015-06-01 13:05:31.540000'
g185
tp496
a(S'2015-06-01 13:05:31.550000'
g187
tp497
a(S'2015-06-01 13:05:31.553000'
S'data saved as csv to C:\\Users\\Jbarrett\\Charlie\\charlie\\data\\csv\\4346_stroop.csv'
tp498
a(S'2015-06-01 13:05:32.466000'
g185
tp499
a(S'2015-06-01 13:05:32.477000'
g187
tp500
a(S'2015-06-01 13:05:32.482000'
S'data saved as csv to C:\\Users\\Jbarrett\\Charlie\\charlie\\data\\csv\\4346_stroop.csv'
tp501
a(S'2015-06-01 13:05:33.647000'
g185
tp502
a(S'2015-06-01 13:05:33.659000'
g187
tp503
a(S'2015-06-01 13:05:33.664000'
S'data saved as csv to C:\\Users\\Jbarrett\\Charlie\\charlie\\data\\csv\\4346_stroop.csv'
tp504
a(S'2015-06-01 13:05:34.619000'
g185
tp505
a(S'2015-06-01 13:05:34.625000'
g187
tp506
a(S'2015-06-01 13:05:34.627000'
S'data saved as csv to C:\\Users\\Jbarrett\\Charlie\\charlie\\data\\csv\\4346_stroop.csv'
tp507
a(S'2015-06-01 13:05:35.739000'
g185
tp508
a(S'2015-06-01 13:05:35.750000'
g187
tp509
a(S'2015-06-01 13:05:35.753000'
S'data saved as csv to C:\\Users\\Jbarrett\\Charlie\\charlie\\data\\csv\\4346_stroop.csv'
tp510
a(S'2015-06-01 13:05:36.876000'
g185
tp511
a(S'2015-06-01 13:05:36.887000'
g187
tp512
a(S'2015-06-01 13:05:36.891000'
S'data saved as csv to C:\\Users\\Jbarrett\\Charlie\\charlie\\data\\csv\\4346_stroop.csv'
tp513
a(S'2015-06-01 13:05:38.103000'
g185
tp514
a(S'2015-06-01 13:05:38.114000'
g187
tp515
a(S'2015-06-01 13:05:38.121000'
S'data saved as csv to C:\\Users\\Jbarrett\\Charlie\\charlie\\data\\csv\\4346_stroop.csv'
tp516
a(S'2015-06-01 13:05:39.556000'
g185
tp517
a(S'2015-06-01 13:05:39.567000'
g187
tp518
a(S'2015-06-01 13:05:39.572000'
S'data saved as csv to C:\\Users\\Jbarrett\\Charlie\\charlie\\data\\csv\\4346_stroop.csv'
tp519
a(S'2015-06-01 13:05:40.718000'
g185
tp520
a(S'2015-06-01 13:05:40.730000'
g187
tp521
a(S'2015-06-01 13:05:40.733000'
S'data saved as csv to C:\\Users\\Jbarrett\\Charlie\\charlie\\data\\csv\\4346_stroop.csv'
tp522
a(S'2015-06-01 13:05:41.706000'
g185
tp523
a(S'2015-06-01 13:05:41.717000'
g187
tp524
a(S'2015-06-01 13:05:41.721000'
S'data saved as csv to C:\\Users\\Jbarrett\\Charlie\\charlie\\data\\csv\\4346_stroop.csv'
tp525
a(S'2015-06-01 13:05:43.003000'
g185
tp526
a(S'2015-06-01 13:05:43.012000'
g187
tp527
a(S'2015-06-01 13:05:43.015000'
S'data saved as csv to C:\\Users\\Jbarrett\\Charlie\\charlie\\data\\csv\\4346_stroop.csv'
tp528
a(S'2015-06-01 13:05:44.017000'
g185
tp529
a(S'2015-06-01 13:05:44.028000'
g187
tp530
a(S'2015-06-01 13:05:44.032000'
S'data saved as csv to C:\\Users\\Jbarrett\\Charlie\\charlie\\data\\csv\\4346_stroop.csv'
tp531
a(S'2015-06-01 13:05:45.005000'
g185
tp532
a(S'2015-06-01 13:05:45.016000'
g187
tp533
a(S'2015-06-01 13:05:45.021000'
S'data saved as csv to C:\\Users\\Jbarrett\\Charlie\\charlie\\data\\csv\\4346_stroop.csv'
tp534
asb.