(icharlie.tools.data
Data
p1
(dp2
S'lang'
p3
S'EN'
p4
sS'control'
p5
(lp6
sS'last_updated'
p7
cdatetime
datetime
p8
(S'\x07\xdf\x06\x01\r\n-\x02*\xb0'
tRp9
sS'last_opened'
p10
g8
(S'\x07\xdf\x06\x01\r\x05-\t\x1f\xf0'
tRp11
sS'proj_id'
p12
S'connectivity'
p13
sS'date_done'
p14
g8
(S'\x07\xdf\x06\x01\r\n-\x02\x17('
tRp15
sS'test_done'
p16
I01
sS'data'
p17
(lp18
(S'4346'
p19
S'verbal_fluency'
p20
I0
S'False'
p21
tp22
a(g19
g20
I0
g21
tp23
a(g19
g20
I0
S'True'
p24
tp25
a(g19
g20
I0
g24
tp26
a(g19
g20
I0
g24
tp27
a(g19
g20
I0
g24
tp28
a(g19
g20
I0
g24
tp29
a(g19
g20
I0
g24
tp30
a(g19
g20
I0
g24
tp31
a(g19
g20
I0
g24
tp32
a(g19
g20
I0
g24
tp33
a(g19
g20
I0
g24
tp34
a(g19
g20
I0
g24
tp35
a(g19
g20
I0
g24
tp36
a(g19
g20
I0
g24
tp37
a(g19
g20
I0
g21
tp38
a(g19
g20
I0
g24
tp39
a(g19
g20
I1
g24
tp40
a(g19
g20
I1
g24
tp41
a(g19
g20
I1
g24
tp42
a(g19
g20
I1
g24
tp43
a(g19
g20
I1
g24
tp44
a(g19
g20
I1
g24
tp45
a(g19
g20
I1
g24
tp46
a(g19
g20
I1
g24
tp47
a(g19
g20
I1
g24
tp48
a(g19
g20
I1
g21
tp49
a(g19
g20
I1
g21
tp50
a(g19
g20
I1
g24
tp51
a(g19
g20
I1
g24
tp52
a(g19
g20
I1
g24
tp53
a(g19
g20
I2
g24
tp54
a(g19
g20
I2
g24
tp55
a(g19
g20
I2
g24
tp56
a(g19
g20
I2
g24
tp57
a(g19
g20
I2
g24
tp58
a(g19
g20
I2
g21
tp59
a(g19
g20
I2
g24
tp60
a(g19
g20
I2
g24
tp61
a(g19
g20
I2
g24
tp62
a(g19
g20
I2
g24
tp63
a(g19
g20
I2
g24
tp64
a(g19
g20
I2
g24
tp65
a(g19
g20
I2
g24
tp66
a(g19
g20
I2
g24
tp67
a(g19
g20
I2
g24
tp68
a(g19
g20
I2
g24
tp69
a(g19
g20
I2
g24
tp70
a(g19
g20
I2
g24
tp71
a(g19
g20
I2
g24
tp72
a(g19
g20
I2
g24
tp73
a(g19
g20
I3
g24
tp74
a(g19
g20
I3
g24
tp75
a(g19
g20
I3
g24
tp76
a(g19
g20
I3
g24
tp77
a(g19
g20
I3
g24
tp78
a(g19
g20
I3
g24
tp79
a(g19
g20
I3
g24
tp80
a(g19
g20
I3
g24
tp81
a(g19
g20
I3
g24
tp82
a(g19
g20
I3
g24
tp83
a(g19
g20
I3
g24
tp84
a(g19
g20
I3
g24
tp85
a(g19
g20
I3
g24
tp86
a(g19
g20
I3
g24
tp87
a(g19
g20
I3
g24
tp88
a(g19
g20
I3
g24
tp89
a(g19
g20
I3
g24
tp90
a(g19
g20
I3
g24
tp91
a(g19
g20
I3
g24
tp92
a(g19
g20
I3
g21
tp93
a(g19
g20
I3
g24
tp94
a(g19
g20
I3
g21
tp95
a(g19
g20
I3
g21
tp96
a(g19
g20
I3
g21
tp97
a(g19
g20
I3
g24
tp98
a(g19
g20
I3
g21
tp99
a(g19
g20
I3
g21
tp100
a(g19
g20
I3
g24
tp101
asS'output_format'
p102
(lp103
(S'proband_id'
p104
c__builtin__
str
p105
tp106
a(S'test_name'
p107
g105
tp108
a(S'trialn'
p109
c__builtin__
int
p110
tp111
a(S'rsp'
p112
g105
tp113
asg104
g19
sS'filename'
p114
S'4346_verbal_fluency.data'
p115
sS'initialised'
p116
g8
(S'\x07\xdf\x06\x01\r\x05-\t\x1f\xf0'
tRp117
sS'last_udated'
p118
g8
(S'\x07\xdf\x06\x01\r\x05-\t\x1f\xf0'
tRp119
sg107
S'verbal_fluency'
p120
sS'directory'
p121
S'C:\\Users\\Jbarrett\\Charlie\\charlie\\data\\raw'
p122
sS'user_id'
p123
S'barrett'
p124
sS'test_started'
p125
I01
sS'abs_filename'
p126
S'C:\\Users\\Jbarrett\\Charlie\\charlie\\data\\raw\\4346_verbal_fluency.data'
p127
sS'date_started'
p128
g8
(S'\x07\xdf\x06\x01\r\x07\x17\x07\xef@'
tRp129
sS'log'
p130
(lp131
(S'2015-06-01 13:05:45.598000'
S'instance created'
p132
tp133
a(S'2015-06-01 13:07:23.530000'
S'instance updated'
p134
tp135
a(S'2015-06-01 13:07:23.535000'
S'pandas DataFrame of data created'
p136
tp137
a(S'2015-06-01 13:07:23.539000'
S'data saved as csv to C:\\Users\\Jbarrett\\Charlie\\charlie\\data\\csv\\4346_verbal_fluency.csv'
tp138
a(S'2015-06-01 13:07:25.407000'
g134
tp139
a(S'2015-06-01 13:07:25.413000'
g136
tp140
a(S'2015-06-01 13:07:25.416000'
S'data saved as csv to C:\\Users\\Jbarrett\\Charlie\\charlie\\data\\csv\\4346_verbal_fluency.csv'
tp141
a(S'2015-06-01 13:08:28.476000'
g134
tp142
a(S'2015-06-01 13:08:28.482000'
g136
tp143
a(S'2015-06-01 13:08:28.485000'
S'data saved as csv to C:\\Users\\Jbarrett\\Charlie\\charlie\\data\\csv\\4346_verbal_fluency.csv'
tp144
a(S'2015-06-01 13:08:32.636000'
g134
tp145
a(S'2015-06-01 13:08:32.641000'
g136
tp146
a(S'2015-06-01 13:08:32.645000'
S'data saved as csv to C:\\Users\\Jbarrett\\Charlie\\charlie\\data\\csv\\4346_verbal_fluency.csv'
tp147
a(S'2015-06-01 13:09:36.425000'
g134
tp148
a(S'2015-06-01 13:09:36.430000'
g136
tp149
a(S'2015-06-01 13:09:36.434000'
S'data saved as csv to C:\\Users\\Jbarrett\\Charlie\\charlie\\data\\csv\\4346_verbal_fluency.csv'
tp150
a(S'2015-06-01 13:09:39.648000'
g134
tp151
a(S'2015-06-01 13:09:39.653000'
g136
tp152
a(S'2015-06-01 13:09:39.657000'
S'data saved as csv to C:\\Users\\Jbarrett\\Charlie\\charlie\\data\\csv\\4346_verbal_fluency.csv'
tp153
a(S'2015-06-01 13:10:45.137000'
g134
tp154
a(S'2015-06-01 13:10:45.140000'
g136
tp155
a(S'2015-06-01 13:10:45.142000'
S'data saved as csv to C:\\Users\\Jbarrett\\Charlie\\charlie\\data\\csv\\4346_verbal_fluency.csv'
tp156
asb.