(icharlie.tools.data
Data
p1
(dp2
S'lang'
p3
S'EN'
p4
sS'control'
p5
(lp6
sS'last_updated'
p7
cdatetime
datetime
p8
(S'\x07\xdf\x06\x01\x0c%6\r\xa0H'
tRp9
sS'last_opened'
p10
g8
(S'\x07\xdf\x06\x01\x0c#\x01\x05\xf7X'
tRp11
sS'proj_id'
p12
S'connectivity'
p13
sS'date_done'
p14
NsS'test_done'
p15
I01
sS'data'
p16
(lp17
(S'4346'
p18
S'digit_symbol'
p19
S'practice'
p20
I0
I2
I2
S'Yes'
p21
S'C:\\Users\\Jbarrett\\Charlie\\charlie\\stimuli\\visual\\digit_symbol\\sym2.bmp'
g21
I20231
tp22
a(g18
g19
g20
I1
I6
I6
g21
S'C:\\Users\\Jbarrett\\Charlie\\charlie\\stimuli\\visual\\digit_symbol\\sym6.bmp'
g21
I4611
tp23
a(g18
g19
g20
I2
I8
I4
S'No'
p24
S'C:\\Users\\Jbarrett\\Charlie\\charlie\\stimuli\\visual\\digit_symbol\\sym4.bmp'
g24
I3050
tp25
a(g18
g19
g20
I3
I4
I4
g21
S'C:\\Users\\Jbarrett\\Charlie\\charlie\\stimuli\\visual\\digit_symbol\\sym4.bmp'
g21
I4290
tp26
a(g18
g19
g20
I4
I7
I7
g21
S'C:\\Users\\Jbarrett\\Charlie\\charlie\\stimuli\\visual\\digit_symbol\\sym7.bmp'
g21
I2070
tp27
a(g18
g19
g20
I5
I6
I5
g24
S'C:\\Users\\Jbarrett\\Charlie\\charlie\\stimuli\\visual\\digit_symbol\\sym5.bmp'
g24
I2000
tp28
a(g18
g19
g20
I6
I2
I8
g24
S'C:\\Users\\Jbarrett\\Charlie\\charlie\\stimuli\\visual\\digit_symbol\\sym8.bmp'
g24
I2340
tp29
a(g18
g19
g20
I7
I9
I2
g24
S'C:\\Users\\Jbarrett\\Charlie\\charlie\\stimuli\\visual\\digit_symbol\\sym2.bmp'
g24
I2570
tp30
a(g18
g19
g20
I8
I3
I7
g24
S'C:\\Users\\Jbarrett\\Charlie\\charlie\\stimuli\\visual\\digit_symbol\\sym7.bmp'
g24
I3390
tp31
a(g18
g19
g20
I9
I5
I6
g24
S'C:\\Users\\Jbarrett\\Charlie\\charlie\\stimuli\\visual\\digit_symbol\\sym6.bmp'
g24
I2150
tp32
a(g18
g19
S'test'
p33
I0
I8
I8
g21
S'C:\\Users\\Jbarrett\\Charlie\\charlie\\stimuli\\visual\\digit_symbol\\sym8.bmp'
g21
I4307
tp34
a(g18
g19
g33
I1
I1
I4
g24
S'C:\\Users\\Jbarrett\\Charlie\\charlie\\stimuli\\visual\\digit_symbol\\sym4.bmp'
g24
I2303
tp35
a(g18
g19
g33
I2
I2
I8
g24
S'C:\\Users\\Jbarrett\\Charlie\\charlie\\stimuli\\visual\\digit_symbol\\sym8.bmp'
g24
I2103
tp36
a(g18
g19
g33
I3
I6
I2
g24
S'C:\\Users\\Jbarrett\\Charlie\\charlie\\stimuli\\visual\\digit_symbol\\sym2.bmp'
g24
I2203
tp37
a(g18
g19
g33
I4
I4
I4
g21
S'C:\\Users\\Jbarrett\\Charlie\\charlie\\stimuli\\visual\\digit_symbol\\sym4.bmp'
g21
I2103
tp38
a(g18
g19
g33
I5
I9
I5
g24
S'C:\\Users\\Jbarrett\\Charlie\\charlie\\stimuli\\visual\\digit_symbol\\sym5.bmp'
g24
I3003
tp39
a(g18
g19
g33
I6
I5
I6
g24
S'C:\\Users\\Jbarrett\\Charlie\\charlie\\stimuli\\visual\\digit_symbol\\sym6.bmp'
g24
I2203
tp40
a(g18
g19
g33
I7
I3
I3
g21
S'C:\\Users\\Jbarrett\\Charlie\\charlie\\stimuli\\visual\\digit_symbol\\sym3.bmp'
g21
I2004
tp41
a(g18
g19
g33
I8
I4
I4
g21
S'C:\\Users\\Jbarrett\\Charlie\\charlie\\stimuli\\visual\\digit_symbol\\sym4.bmp'
g21
I2703
tp42
a(g18
g19
g33
I9
I9
I9
g21
S'C:\\Users\\Jbarrett\\Charlie\\charlie\\stimuli\\visual\\digit_symbol\\sym9.bmp'
g21
I3803
tp43
a(g18
g19
g33
I10
I6
I6
g21
S'C:\\Users\\Jbarrett\\Charlie\\charlie\\stimuli\\visual\\digit_symbol\\sym6.bmp'
g21
I2103
tp44
a(g18
g19
g33
I11
I1
I1
g21
S'C:\\Users\\Jbarrett\\Charlie\\charlie\\stimuli\\visual\\digit_symbol\\sym1.bmp'
g21
I2303
tp45
a(g18
g19
g33
I12
I2
I2
g21
S'C:\\Users\\Jbarrett\\Charlie\\charlie\\stimuli\\visual\\digit_symbol\\sym2.bmp'
g21
I3003
tp46
a(g18
g19
g33
I13
I7
I7
g21
S'C:\\Users\\Jbarrett\\Charlie\\charlie\\stimuli\\visual\\digit_symbol\\sym7.bmp'
g21
I1903
tp47
a(g18
g19
g33
I14
I3
I3
g21
S'C:\\Users\\Jbarrett\\Charlie\\charlie\\stimuli\\visual\\digit_symbol\\sym3.bmp'
g21
I2103
tp48
a(g18
g19
g33
I15
I8
I8
g21
S'C:\\Users\\Jbarrett\\Charlie\\charlie\\stimuli\\visual\\digit_symbol\\sym8.bmp'
g21
I2903
tp49
a(g18
g19
g33
I16
I7
I7
g21
S'C:\\Users\\Jbarrett\\Charlie\\charlie\\stimuli\\visual\\digit_symbol\\sym7.bmp'
g21
I1803
tp50
a(g18
g19
g33
I17
I5
I3
g24
S'C:\\Users\\Jbarrett\\Charlie\\charlie\\stimuli\\visual\\digit_symbol\\sym3.bmp'
g24
I2603
tp51
a(g18
g19
g33
I18
I1
I5
g24
S'C:\\Users\\Jbarrett\\Charlie\\charlie\\stimuli\\visual\\digit_symbol\\sym5.bmp'
g24
I2003
tp52
a(g18
g19
g33
I19
I4
I4
g21
S'C:\\Users\\Jbarrett\\Charlie\\charlie\\stimuli\\visual\\digit_symbol\\sym4.bmp'
g21
I2303
tp53
a(g18
g19
g33
I20
I7
I8
g24
S'C:\\Users\\Jbarrett\\Charlie\\charlie\\stimuli\\visual\\digit_symbol\\sym8.bmp'
g24
I2303
tp54
a(g18
g19
g33
I21
I4
I4
g21
S'C:\\Users\\Jbarrett\\Charlie\\charlie\\stimuli\\visual\\digit_symbol\\sym4.bmp'
g21
I2304
tp55
a(g18
g19
g33
I22
I8
I8
g21
S'C:\\Users\\Jbarrett\\Charlie\\charlie\\stimuli\\visual\\digit_symbol\\sym8.bmp'
g21
I3403
tp56
a(g18
g19
g33
I23
I3
I3
g21
S'C:\\Users\\Jbarrett\\Charlie\\charlie\\stimuli\\visual\\digit_symbol\\sym3.bmp'
g21
I2303
tp57
a(g18
g19
g33
I24
I5
I5
g21
S'C:\\Users\\Jbarrett\\Charlie\\charlie\\stimuli\\visual\\digit_symbol\\sym5.bmp'
g21
I3003
tp58
a(g18
g19
g33
I25
I3
I1
g24
S'C:\\Users\\Jbarrett\\Charlie\\charlie\\stimuli\\visual\\digit_symbol\\sym1.bmp'
g24
I2103
tp59
a(g18
g19
g33
I26
I6
I9
g24
S'C:\\Users\\Jbarrett\\Charlie\\charlie\\stimuli\\visual\\digit_symbol\\sym9.bmp'
g24
I2003
tp60
a(g18
g19
g33
I27
I2
I2
g21
S'C:\\Users\\Jbarrett\\Charlie\\charlie\\stimuli\\visual\\digit_symbol\\sym2.bmp'
g21
I3203
tp61
a(g18
g19
g33
I28
I8
I8
g21
S'C:\\Users\\Jbarrett\\Charlie\\charlie\\stimuli\\visual\\digit_symbol\\sym8.bmp'
g21
I2404
tp62
a(g18
g19
g33
I29
I9
I2
g24
S'C:\\Users\\Jbarrett\\Charlie\\charlie\\stimuli\\visual\\digit_symbol\\sym2.bmp'
g24
I2103
tp63
a(g18
g19
g33
I30
I1
I6
g24
S'C:\\Users\\Jbarrett\\Charlie\\charlie\\stimuli\\visual\\digit_symbol\\sym6.bmp'
g24
I2903
tp64
a(g18
g19
g33
I31
I5
I4
g24
S'C:\\Users\\Jbarrett\\Charlie\\charlie\\stimuli\\visual\\digit_symbol\\sym4.bmp'
g24
I2403
tp65
a(g18
g19
g33
I32
I6
I6
g21
S'C:\\Users\\Jbarrett\\Charlie\\charlie\\stimuli\\visual\\digit_symbol\\sym6.bmp'
g21
I2503
tp66
a(g18
g19
g33
I33
I2
I2
g21
S'C:\\Users\\Jbarrett\\Charlie\\charlie\\stimuli\\visual\\digit_symbol\\sym2.bmp'
g21
I2003
tp67
asS'output_format'
p68
(lp69
(S'proband_id'
p70
c__builtin__
str
p71
tp72
a(S'test_name'
p73
g71
tp74
a(S'phase'
p75
g71
tp76
a(S'trialn'
p77
c__builtin__
int
p78
tp79
a(S'digit'
p80
g78
tp81
a(S'symbol'
p82
g78
tp83
a(S'ans'
p84
g71
tp85
a(S'f'
g71
tp86
a(S'rsp'
p87
g71
tp88
a(S'rt'
p89
g78
tp90
asg70
g18
sS'filename'
p91
S'4346_digit_symbol.data'
p92
sS'initialised'
p93
g8
(S'\x07\xdf\x06\x01\x0c#\x01\x05\xf7X'
tRp94
sS'last_udated'
p95
g8
(S'\x07\xdf\x06\x01\x0c#\x01\x05\xf7X'
tRp96
sg73
S'digit_symbol'
p97
sS'directory'
p98
S'C:\\Users\\Jbarrett\\Charlie\\charlie\\data\\raw'
p99
sS'user_id'
p100
S'barrett'
p101
sS'test_started'
p102
I01
sS'abs_filename'
p103
S'C:\\Users\\Jbarrett\\Charlie\\charlie\\data\\raw\\4346_digit_symbol.data'
p104
sS'date_started'
p105
g8
(S'\x07\xdf\x06\x01\x0c#"\r\xbb\xa0'
tRp106
sS'log'
p107
(lp108
(S'2015-06-01 12:35:01.391000'
S'instance created'
p109
tp110
a(S'2015-06-01 12:35:34.909000'
S'instance updated'
p111
tp112
a(S'2015-06-01 12:35:34.920000'
S'pandas DataFrame of data created'
p113
tp114
a(S'2015-06-01 12:35:34.924000'
S'data saved as csv to C:\\Users\\Jbarrett\\Charlie\\charlie\\data\\csv\\4346_digit_symbol.csv'
tp115
a(S'2015-06-01 12:35:40.561000'
g111
tp116
a(S'2015-06-01 12:35:40.571000'
g113
tp117
a(S'2015-06-01 12:35:40.575000'
S'data saved as csv to C:\\Users\\Jbarrett\\Charlie\\charlie\\data\\csv\\4346_digit_symbol.csv'
tp118
a(S'2015-06-01 12:35:44.652000'
g111
tp119
a(S'2015-06-01 12:35:44.662000'
g113
tp120
a(S'2015-06-01 12:35:44.667000'
S'data saved as csv to C:\\Users\\Jbarrett\\Charlie\\charlie\\data\\csv\\4346_digit_symbol.csv'
tp121
a(S'2015-06-01 12:35:49.984000'
g111
tp122
a(S'2015-06-01 12:35:49.995000'
g113
tp123
a(S'2015-06-01 12:35:49.999000'
S'data saved as csv to C:\\Users\\Jbarrett\\Charlie\\charlie\\data\\csv\\4346_digit_symbol.csv'
tp124
a(S'2015-06-01 12:35:53.095000'
g111
tp125
a(S'2015-06-01 12:35:53.106000'
g113
tp126
a(S'2015-06-01 12:35:53.110000'
S'data saved as csv to C:\\Users\\Jbarrett\\Charlie\\charlie\\data\\csv\\4346_digit_symbol.csv'
tp127
a(S'2015-06-01 12:35:56.135000'
g111
tp128
a(S'2015-06-01 12:35:56.146000'
g113
tp129
a(S'2015-06-01 12:35:56.150000'
S'data saved as csv to C:\\Users\\Jbarrett\\Charlie\\charlie\\data\\csv\\4346_digit_symbol.csv'
tp130
a(S'2015-06-01 12:35:59.516000'
g111
tp131
a(S'2015-06-01 12:35:59.527000'
g113
tp132
a(S'2015-06-01 12:35:59.531000'
S'data saved as csv to C:\\Users\\Jbarrett\\Charlie\\charlie\\data\\csv\\4346_digit_symbol.csv'
tp133
a(S'2015-06-01 12:36:03.128000'
g111
tp134
a(S'2015-06-01 12:36:03.139000'
g113
tp135
a(S'2015-06-01 12:36:03.142000'
S'data saved as csv to C:\\Users\\Jbarrett\\Charlie\\charlie\\data\\csv\\4346_digit_symbol.csv'
tp136
a(S'2015-06-01 12:36:07.559000'
g111
tp137
a(S'2015-06-01 12:36:07.570000'
g113
tp138
a(S'2015-06-01 12:36:07.573000'
S'data saved as csv to C:\\Users\\Jbarrett\\Charlie\\charlie\\data\\csv\\4346_digit_symbol.csv'
tp139
a(S'2015-06-01 12:36:10.750000'
g111
tp140
a(S'2015-06-01 12:36:10.760000'
g113
tp141
a(S'2015-06-01 12:36:10.764000'
S'data saved as csv to C:\\Users\\Jbarrett\\Charlie\\charlie\\data\\csv\\4346_digit_symbol.csv'
tp142
a(S'2015-06-01 12:37:54.874000'
g111
tp143
a(S'2015-06-01 12:37:54.886000'
g113
tp144
a(S'2015-06-01 12:37:54.892000'
S'data saved as csv to C:\\Users\\Jbarrett\\Charlie\\charlie\\data\\csv\\4346_digit_symbol.csv'
tp145
asb.