(icharlie.tools.data
Data
p1
(dp2
S'lang'
p3
S'EN'
p4
sS'control'
p5
(lp6
sS'last_opened'
p7
cdatetime
datetime
p8
(S'\x07\xdf\x03\x1e\r\x0e(\x0e4\xb8'
tRp9
sS'last_updated'
p10
g8
(S'\x07\xdf\x03\x1e\r\x0e1\x03\x11('
tRp11
sS'test_done'
p12
I01
sS'date_done'
p13
g8
(S'\x07\xdf\x03\x1e\r\x0e1\x02\xf9\xb8'
tRp14
sS'proj_id'
p15
S'connectivity'
p16
sS'data'
p17
(lp18
(S'4365'
p19
S'verbal_fluency'
p20
I0
S'True'
p21
tp22
a(g19
g20
I0
g21
tp23
a(g19
g20
I0
S'False'
p24
tp25
a(g19
g20
I0
g21
tp26
a(g19
g20
I0
g21
tp27
a(g19
g20
I0
g21
tp28
a(g19
g20
I0
g21
tp29
a(g19
g20
I0
g24
tp30
a(g19
g20
I0
g21
tp31
a(g19
g20
I0
g21
tp32
a(g19
g20
I0
g21
tp33
a(g19
g20
I1
g21
tp34
a(g19
g20
I1
g21
tp35
a(g19
g20
I1
g21
tp36
a(g19
g20
I1
g21
tp37
a(g19
g20
I1
g21
tp38
a(g19
g20
I1
g21
tp39
a(g19
g20
I1
g21
tp40
a(g19
g20
I2
g21
tp41
a(g19
g20
I2
g21
tp42
a(g19
g20
I2
g21
tp43
a(g19
g20
I2
g21
tp44
a(g19
g20
I2
g21
tp45
a(g19
g20
I2
g21
tp46
a(g19
g20
I2
g21
tp47
a(g19
g20
I2
g21
tp48
a(g19
g20
I2
g21
tp49
a(g19
g20
I2
g21
tp50
a(g19
g20
I2
g21
tp51
a(g19
g20
I2
g21
tp52
a(g19
g20
I2
g21
tp53
a(g19
g20
I2
g21
tp54
a(g19
g20
I2
g21
tp55
a(g19
g20
I3
g21
tp56
a(g19
g20
I3
g21
tp57
a(g19
g20
I3
g21
tp58
a(g19
g20
I3
g21
tp59
a(g19
g20
I3
g21
tp60
a(g19
g20
I3
g21
tp61
a(g19
g20
I3
g21
tp62
a(g19
g20
I3
g21
tp63
a(g19
g20
I3
g21
tp64
a(g19
g20
I3
g21
tp65
a(g19
g20
I3
g21
tp66
a(g19
g20
I3
g21
tp67
a(g19
g20
I3
g21
tp68
a(g19
g20
I3
g21
tp69
a(g19
g20
I3
g21
tp70
a(g19
g20
I3
g21
tp71
a(g19
g20
I3
g21
tp72
a(g19
g20
I3
g21
tp73
a(g19
g20
I3
g21
tp74
a(g19
g20
I3
g21
tp75
a(g19
g20
I3
g21
tp76
a(g19
g20
I3
g21
tp77
a(g19
g20
I3
g21
tp78
a(g19
g20
I3
g21
tp79
a(g19
g20
I3
g24
tp80
a(g19
g20
I3
g21
tp81
a(g19
g20
I3
g21
tp82
a(g19
g20
I3
g21
tp83
asS'output_format'
p84
(lp85
(S'proband_id'
p86
c__builtin__
str
p87
tp88
a(S'test_name'
p89
g87
tp90
a(S'trialn'
p91
c__builtin__
int
p92
tp93
a(S'rsp'
p94
g87
tp95
asS'proband_id'
p96
g19
sS'filename'
p97
S'4365_verbal_fluency.data'
p98
sS'initialised'
p99
g8
(S'\x07\xdf\x03\x1e\x0b*4\x05zX'
tRp100
sS'last_udated'
p101
g8
(S'\x07\xdf\x03\x1e\x0b*4\x05zX'
tRp102
sS'test_name'
p103
S'verbal_fluency'
p104
sS'directory'
p105
S'c:\\Charlie\\charlie\\data\\raw'
p106
sS'user_id'
p107
S'oleach'
p108
sS'test_started'
p109
I01
sS'abs_filename'
p110
S'c:\\Charlie\\charlie\\data\\raw\\4365_verbal_fluency.data'
p111
sS'date_started'
p112
g8
(S'\x07\xdf\x03\x1e\x0b0\x12\r\xe2\xb0'
tRp113
sS'log'
p114
(lp115
(S'2015-03-30 11:42:52.359000'
S'instance created'
tp116
a(S'2015-03-30 11:48:18.920000'
S'instance updated'
p117
tp118
a(S'2015-03-30 11:48:18.925000'
S'pandas DataFrame of data created'
p119
tp120
a(S'2015-03-30 11:48:18.931000'
S'data saved as csv to c:\\Charlie\\charlie\\data\\csv\\4365_verbal_fluency.csv'
tp121
a(S'2015-03-30 11:48:24.704000'
g117
tp122
a(S'2015-03-30 11:48:24.709000'
g119
tp123
a(S'2015-03-30 11:48:24.713000'
S'data saved as csv to c:\\Charlie\\charlie\\data\\csv\\4365_verbal_fluency.csv'
tp124
a(S'2015-03-30 11:49:29.297000'
g117
tp125
a(S'2015-03-30 11:49:29.303000'
g119
tp126
a(S'2015-03-30 11:49:29.306000'
S'data saved as csv to c:\\Charlie\\charlie\\data\\csv\\4365_verbal_fluency.csv'
tp127
a(S'2015-03-30 11:49:35.722000'
g117
tp128
a(S'2015-03-30 11:49:35.727000'
g119
tp129
a(S'2015-03-30 11:49:35.731000'
S'data saved as csv to c:\\Charlie\\charlie\\data\\csv\\4365_verbal_fluency.csv'
tp130
a(S'2015-03-30 11:50:40.069000'
g117
tp131
a(S'2015-03-30 11:50:40.074000'
g119
tp132
a(S'2015-03-30 11:50:40.077000'
S'data saved as csv to c:\\Charlie\\charlie\\data\\csv\\4365_verbal_fluency.csv'
tp133
a(S'2015-03-30 11:50:55.454000'
g117
tp134
a(S'2015-03-30 11:50:55.459000'
g119
tp135
a(S'2015-03-30 11:50:55.463000'
S'data saved as csv to c:\\Charlie\\charlie\\data\\csv\\4365_verbal_fluency.csv'
tp136
a(S'2015-03-30 11:51:59.728000'
g117
tp137
a(S'2015-03-30 11:51:59.734000'
g119
tp138
a(S'2015-03-30 11:51:59.738000'
S'data saved as csv to c:\\Charlie\\charlie\\data\\csv\\4365_verbal_fluency.csv'
tp139
a(S'2015-03-30 13:14:49.195000'
S'instance updated'
p140
tp141
a(S'2015-03-30 13:14:49.198000'
S'pandas DataFrame of data created'
p142
tp143
a(S'2015-03-30 13:14:49.201000'
S'data saved as csv to c:\\Charlie\\charlie\\data\\csv\\4365_verbal_fluency.csv'
tp144
asb.