(icharlie.tools.data
Data
p1
(dp2
S'lang'
p3
S'EN'
p4
sS'control'
p5
(lp6
sS'last_updated'
p7
cdatetime
datetime
p8
(S'\x07\xdf\x04\x01\r\x1d\x1a\x03z\xa0'
tRp9
sS'last_opened'
p10
g8
(S'\x07\xdf\x04\x01\r\x16\x11\x0eW\xe0'
tRp11
sS'proj_id'
p12
S'connectivity'
p13
sS'date_done'
p14
NsS'test_done'
p15
I01
sS'data'
p16
(lp17
(S'4367'
p18
S'scap'
p19
S'practice'
p20
I3
I0
S'Yes'
p21
S'c:\\Charlie\\charlie\\stimuli\\visual\\scap\\practice-1.BMP'
S'c:\\Charlie\\charlie\\stimuli\\visual\\scap\\practice-2.BMP'
S'No'
p22
I4981
tp23
a(g18
g19
g20
I4
I1
g22
S'c:\\Charlie\\charlie\\stimuli\\visual\\scap\\practice-3.BMP'
S'c:\\Charlie\\charlie\\stimuli\\visual\\scap\\practice-4.BMP'
g22
I1760
tp24
a(g18
g19
g20
I5
I2
g21
S'c:\\Charlie\\charlie\\stimuli\\visual\\scap\\practice-5.BMP'
S'c:\\Charlie\\charlie\\stimuli\\visual\\scap\\practice-6.BMP'
g21
I1310
tp25
a(g18
g19
S'test'
p26
I3
I0
g21
S'c:\\Charlie\\charlie\\stimuli\\visual\\scap\\load3-1.BMP'
S'c:\\Charlie\\charlie\\stimuli\\visual\\scap\\load3-2.BMP'
g21
I1630
tp27
a(g18
g19
g26
I3
I1
g22
S'c:\\Charlie\\charlie\\stimuli\\visual\\scap\\load3-3.BMP'
S'c:\\Charlie\\charlie\\stimuli\\visual\\scap\\load3-4.BMP'
g21
I1150
tp28
a(g18
g19
g26
I3
I2
g21
S'c:\\Charlie\\charlie\\stimuli\\visual\\scap\\load3-5.BMP'
S'c:\\Charlie\\charlie\\stimuli\\visual\\scap\\load3-6.BMP'
g22
I2220
tp29
a(g18
g19
g26
I3
I3
g21
S'c:\\Charlie\\charlie\\stimuli\\visual\\scap\\load3-7.BMP'
S'c:\\Charlie\\charlie\\stimuli\\visual\\scap\\load3-8.BMP'
g22
I2571
tp30
a(g18
g19
g26
I3
I4
g22
S'c:\\Charlie\\charlie\\stimuli\\visual\\scap\\load3-9.BMP'
S'c:\\Charlie\\charlie\\stimuli\\visual\\scap\\load3-10.BMP'
g22
I2110
tp31
a(g18
g19
g26
I3
I5
g21
S'c:\\Charlie\\charlie\\stimuli\\visual\\scap\\load3-11.BMP'
S'c:\\Charlie\\charlie\\stimuli\\visual\\scap\\load3-12.BMP'
g22
I1861
tp32
a(g18
g19
g26
I3
I6
g22
S'c:\\Charlie\\charlie\\stimuli\\visual\\scap\\load3-13.BMP'
S'c:\\Charlie\\charlie\\stimuli\\visual\\scap\\load3-14.BMP'
g22
I2380
tp33
a(g18
g19
g26
I3
I7
g22
S'c:\\Charlie\\charlie\\stimuli\\visual\\scap\\load3-15.BMP'
S'c:\\Charlie\\charlie\\stimuli\\visual\\scap\\load3-16.BMP'
g22
I1971
tp34
a(g18
g19
g26
I3
I8
g21
S'c:\\Charlie\\charlie\\stimuli\\visual\\scap\\load3-17.BMP'
S'c:\\Charlie\\charlie\\stimuli\\visual\\scap\\load3-18.BMP'
g21
I1420
tp35
a(g18
g19
g26
I3
I9
g22
S'c:\\Charlie\\charlie\\stimuli\\visual\\scap\\load3-19.BMP'
S'c:\\Charlie\\charlie\\stimuli\\visual\\scap\\load3-20.BMP'
g22
I1560
tp36
a(g18
g19
g26
I3
I10
g21
S'c:\\Charlie\\charlie\\stimuli\\visual\\scap\\load3-21.BMP'
S'c:\\Charlie\\charlie\\stimuli\\visual\\scap\\load3-22.BMP'
g21
I2200
tp37
a(g18
g19
g26
I3
I11
g21
S'c:\\Charlie\\charlie\\stimuli\\visual\\scap\\load3-23.BMP'
S'c:\\Charlie\\charlie\\stimuli\\visual\\scap\\load3-24.BMP'
g21
I1840
tp38
a(g18
g19
g26
I3
I12
g22
S'c:\\Charlie\\charlie\\stimuli\\visual\\scap\\load3-25.BMP'
S'c:\\Charlie\\charlie\\stimuli\\visual\\scap\\load3-26.BMP'
g22
I1250
tp39
a(g18
g19
g26
I3
I13
g22
S'c:\\Charlie\\charlie\\stimuli\\visual\\scap\\load3-27.BMP'
S'c:\\Charlie\\charlie\\stimuli\\visual\\scap\\load3-28.BMP'
g22
I1330
tp40
a(g18
g19
g26
I4
I0
g22
S'c:\\Charlie\\charlie\\stimuli\\visual\\scap\\load4-1.BMP'
S'c:\\Charlie\\charlie\\stimuli\\visual\\scap\\load4-2.BMP'
g22
I1330
tp41
a(g18
g19
g26
I4
I1
g21
S'c:\\Charlie\\charlie\\stimuli\\visual\\scap\\load4-3.BMP'
S'c:\\Charlie\\charlie\\stimuli\\visual\\scap\\load4-4.BMP'
g22
I2510
tp42
a(g18
g19
g26
I4
I2
g21
S'c:\\Charlie\\charlie\\stimuli\\visual\\scap\\load4-5.BMP'
S'c:\\Charlie\\charlie\\stimuli\\visual\\scap\\load4-6.BMP'
g22
I1461
tp43
a(g18
g19
g26
I4
I3
g22
S'c:\\Charlie\\charlie\\stimuli\\visual\\scap\\load4-7.BMP'
S'c:\\Charlie\\charlie\\stimuli\\visual\\scap\\load4-8.BMP'
g22
I1120
tp44
a(g18
g19
g26
I4
I4
g22
S'c:\\Charlie\\charlie\\stimuli\\visual\\scap\\load4-9.BMP'
S'c:\\Charlie\\charlie\\stimuli\\visual\\scap\\load4-10.BMP'
g22
I1640
tp45
a(g18
g19
g26
I4
I5
g21
S'c:\\Charlie\\charlie\\stimuli\\visual\\scap\\load4-11.BMP'
S'c:\\Charlie\\charlie\\stimuli\\visual\\scap\\load4-12.BMP'
g21
I1610
tp46
a(g18
g19
g26
I4
I6
g22
S'c:\\Charlie\\charlie\\stimuli\\visual\\scap\\load4-13.BMP'
S'c:\\Charlie\\charlie\\stimuli\\visual\\scap\\load4-14.BMP'
g22
I1480
tp47
a(g18
g19
g26
I4
I7
g21
S'c:\\Charlie\\charlie\\stimuli\\visual\\scap\\load4-15.BMP'
S'c:\\Charlie\\charlie\\stimuli\\visual\\scap\\load4-16.BMP'
g21
I1510
tp48
a(g18
g19
g26
I4
I8
g22
S'c:\\Charlie\\charlie\\stimuli\\visual\\scap\\load4-17.BMP'
S'c:\\Charlie\\charlie\\stimuli\\visual\\scap\\load4-18.BMP'
g21
I2090
tp49
a(g18
g19
g26
I4
I9
g21
S'c:\\Charlie\\charlie\\stimuli\\visual\\scap\\load4-19.BMP'
S'c:\\Charlie\\charlie\\stimuli\\visual\\scap\\load4-20.BMP'
g22
I1990
tp50
a(g18
g19
g26
I4
I10
g21
S'c:\\Charlie\\charlie\\stimuli\\visual\\scap\\load4-21.BMP'
S'c:\\Charlie\\charlie\\stimuli\\visual\\scap\\load4-22.BMP'
g21
I2540
tp51
a(g18
g19
g26
I4
I11
g22
S'c:\\Charlie\\charlie\\stimuli\\visual\\scap\\load4-23.BMP'
S'c:\\Charlie\\charlie\\stimuli\\visual\\scap\\load4-24.BMP'
g22
I12811
tp52
a(g18
g19
g26
I4
I12
g21
S'c:\\Charlie\\charlie\\stimuli\\visual\\scap\\load4-25.BMP'
S'c:\\Charlie\\charlie\\stimuli\\visual\\scap\\load4-26.BMP'
g21
I1620
tp53
a(g18
g19
g26
I4
I13
g22
S'c:\\Charlie\\charlie\\stimuli\\visual\\scap\\load4-27.BMP'
S'c:\\Charlie\\charlie\\stimuli\\visual\\scap\\load4-28.BMP'
g21
I4880
tp54
a(g18
g19
g26
I5
I0
g21
S'c:\\Charlie\\charlie\\stimuli\\visual\\scap\\load5-1.BMP'
S'c:\\Charlie\\charlie\\stimuli\\visual\\scap\\load5-2.BMP'
g22
I1380
tp55
a(g18
g19
g26
I5
I1
g21
S'c:\\Charlie\\charlie\\stimuli\\visual\\scap\\load5-3.BMP'
S'c:\\Charlie\\charlie\\stimuli\\visual\\scap\\load5-4.BMP'
g22
I1640
tp56
a(g18
g19
g26
I5
I2
g21
S'c:\\Charlie\\charlie\\stimuli\\visual\\scap\\load5-5.BMP'
S'c:\\Charlie\\charlie\\stimuli\\visual\\scap\\load5-6.BMP'
g22
I1740
tp57
a(g18
g19
g26
I5
I3
g21
S'c:\\Charlie\\charlie\\stimuli\\visual\\scap\\load5-7.BMP'
S'c:\\Charlie\\charlie\\stimuli\\visual\\scap\\load5-8.BMP'
g21
I1370
tp58
a(g18
g19
g26
I5
I4
g21
S'c:\\Charlie\\charlie\\stimuli\\visual\\scap\\load5-9.BMP'
S'c:\\Charlie\\charlie\\stimuli\\visual\\scap\\load5-10.BMP'
g22
I2221
tp59
a(g18
g19
g26
I5
I5
g21
S'c:\\Charlie\\charlie\\stimuli\\visual\\scap\\load5-11.BMP'
S'c:\\Charlie\\charlie\\stimuli\\visual\\scap\\load5-12.BMP'
g21
I1030
tp60
a(g18
g19
g26
I5
I6
g22
S'c:\\Charlie\\charlie\\stimuli\\visual\\scap\\load5-13.BMP'
S'c:\\Charlie\\charlie\\stimuli\\visual\\scap\\load5-14.BMP'
g22
I1810
tp61
a(g18
g19
g26
I5
I7
g22
S'c:\\Charlie\\charlie\\stimuli\\visual\\scap\\load5-15.BMP'
S'c:\\Charlie\\charlie\\stimuli\\visual\\scap\\load5-16.BMP'
g22
I1110
tp62
a(g18
g19
g26
I5
I8
g22
S'c:\\Charlie\\charlie\\stimuli\\visual\\scap\\load5-17.BMP'
S'c:\\Charlie\\charlie\\stimuli\\visual\\scap\\load5-18.BMP'
g21
I1840
tp63
a(g18
g19
g26
I5
I9
g22
S'c:\\Charlie\\charlie\\stimuli\\visual\\scap\\load5-19.BMP'
S'c:\\Charlie\\charlie\\stimuli\\visual\\scap\\load5-20.BMP'
g22
I2070
tp64
a(g18
g19
g26
I5
I10
g22
S'c:\\Charlie\\charlie\\stimuli\\visual\\scap\\load5-21.BMP'
S'c:\\Charlie\\charlie\\stimuli\\visual\\scap\\load5-22.BMP'
g21
I2210
tp65
a(g18
g19
g26
I5
I11
g21
S'c:\\Charlie\\charlie\\stimuli\\visual\\scap\\load5-23.BMP'
S'c:\\Charlie\\charlie\\stimuli\\visual\\scap\\load5-24.BMP'
g21
I4270
tp66
a(g18
g19
g26
I5
I12
g22
S'c:\\Charlie\\charlie\\stimuli\\visual\\scap\\load5-25.BMP'
S'c:\\Charlie\\charlie\\stimuli\\visual\\scap\\load5-26.BMP'
g21
I3100
tp67
a(g18
g19
g26
I5
I13
g22
S'c:\\Charlie\\charlie\\stimuli\\visual\\scap\\load5-27.BMP'
p68
S'c:\\Charlie\\charlie\\stimuli\\visual\\scap\\load5-28.BMP'
p69
g21
I2810
tp70
asS'output_format'
p71
(lp72
(S'proband_id'
p73
c__builtin__
str
p74
tp75
a(S'test_name'
p76
g74
tp77
a(S'phase'
p78
g74
tp79
a(S'load'
p80
c__builtin__
int
p81
tp82
a(S'trialn'
p83
g81
tp84
a(S'ans'
p85
g74
tp86
a(S'array_f'
p87
g74
tp88
a(S'probe_f'
p89
g74
tp90
a(S'rsp'
p91
g74
tp92
a(S'rt'
p93
g81
tp94
asg73
g18
sS'filename'
p95
S'4367_scap.data'
p96
sS'initialised'
p97
g8
(S'\x07\xdf\x04\x01\r\x16\x11\x0eW\xe0'
tRp98
sS'last_udated'
p99
g8
(S'\x07\xdf\x04\x01\r\x16\x11\x0eW\xe0'
tRp100
sg76
S'scap'
p101
sS'directory'
p102
S'c:\\Charlie\\charlie\\data\\raw'
p103
sS'user_id'
p104
S'oleach'
p105
sS'test_started'
p106
I01
sS'abs_filename'
p107
S'c:\\Charlie\\charlie\\data\\raw\\4367_scap.data'
p108
sS'date_started'
p109
g8
(S'\x07\xdf\x04\x01\r\x17\x00\x0eP\x10'
tRp110
sS'log'
p111
(lp112
(S'2015-04-01 13:22:17.940000'
S'instance created'
p113
tp114
a(S'2015-04-01 13:23:00.949000'
S'instance updated'
p115
tp116
a(S'2015-04-01 13:23:00.960000'
S'pandas DataFrame of data created'
p117
tp118
a(S'2015-04-01 13:23:00.966000'
S'data saved as csv to c:\\Charlie\\charlie\\data\\csv\\4367_scap.csv'
tp119
a(S'2015-04-01 13:23:09.764000'
g115
tp120
a(S'2015-04-01 13:23:09.774000'
g117
tp121
a(S'2015-04-01 13:23:09.777000'
S'data saved as csv to c:\\Charlie\\charlie\\data\\csv\\4367_scap.csv'
tp122
a(S'2015-04-01 13:23:18.123000'
g115
tp123
a(S'2015-04-01 13:23:18.133000'
g117
tp124
a(S'2015-04-01 13:23:18.136000'
S'data saved as csv to c:\\Charlie\\charlie\\data\\csv\\4367_scap.csv'
tp125
a(S'2015-04-01 13:23:42.993000'
g115
tp126
a(S'2015-04-01 13:23:43.003000'
g117
tp127
a(S'2015-04-01 13:23:43.007000'
S'data saved as csv to c:\\Charlie\\charlie\\data\\csv\\4367_scap.csv'
tp128
a(S'2015-04-01 13:23:50.293000'
g115
tp129
a(S'2015-04-01 13:23:50.304000'
g117
tp130
a(S'2015-04-01 13:23:50.306000'
S'data saved as csv to c:\\Charlie\\charlie\\data\\csv\\4367_scap.csv'
tp131
a(S'2015-04-01 13:23:58.660000'
g115
tp132
a(S'2015-04-01 13:23:58.671000'
g117
tp133
a(S'2015-04-01 13:23:58.675000'
S'data saved as csv to c:\\Charlie\\charlie\\data\\csv\\4367_scap.csv'
tp134
a(S'2015-04-01 13:24:07.380000'
g115
tp135
a(S'2015-04-01 13:24:07.391000'
g117
tp136
a(S'2015-04-01 13:24:07.394000'
S'data saved as csv to c:\\Charlie\\charlie\\data\\csv\\4367_scap.csv'
tp137
a(S'2015-04-01 13:24:15.640000'
g115
tp138
a(S'2015-04-01 13:24:15.651000'
g117
tp139
a(S'2015-04-01 13:24:15.654000'
S'data saved as csv to c:\\Charlie\\charlie\\data\\csv\\4367_scap.csv'
tp140
a(S'2015-04-01 13:24:23.649000'
g115
tp141
a(S'2015-04-01 13:24:23.660000'
g117
tp142
a(S'2015-04-01 13:24:23.663000'
S'data saved as csv to c:\\Charlie\\charlie\\data\\csv\\4367_scap.csv'
tp143
a(S'2015-04-01 13:24:32.178000'
g115
tp144
a(S'2015-04-01 13:24:32.189000'
g117
tp145
a(S'2015-04-01 13:24:32.193000'
S'data saved as csv to c:\\Charlie\\charlie\\data\\csv\\4367_scap.csv'
tp146
a(S'2015-04-01 13:24:40.298000'
g115
tp147
a(S'2015-04-01 13:24:40.309000'
g117
tp148
a(S'2015-04-01 13:24:40.312000'
S'data saved as csv to c:\\Charlie\\charlie\\data\\csv\\4367_scap.csv'
tp149
a(S'2015-04-01 13:24:47.867000'
g115
tp150
a(S'2015-04-01 13:24:47.878000'
g117
tp151
a(S'2015-04-01 13:24:47.881000'
S'data saved as csv to c:\\Charlie\\charlie\\data\\csv\\4367_scap.csv'
tp152
a(S'2015-04-01 13:24:55.577000'
g115
tp153
a(S'2015-04-01 13:24:55.589000'
g117
tp154
a(S'2015-04-01 13:24:55.593000'
S'data saved as csv to c:\\Charlie\\charlie\\data\\csv\\4367_scap.csv'
tp155
a(S'2015-04-01 13:25:03.928000'
g115
tp156
a(S'2015-04-01 13:25:03.940000'
g117
tp157
a(S'2015-04-01 13:25:03.943000'
S'data saved as csv to c:\\Charlie\\charlie\\data\\csv\\4367_scap.csv'
tp158
a(S'2015-04-01 13:25:11.920000'
g115
tp159
a(S'2015-04-01 13:25:11.931000'
g117
tp160
a(S'2015-04-01 13:25:11.935000'
S'data saved as csv to c:\\Charlie\\charlie\\data\\csv\\4367_scap.csv'
tp161
a(S'2015-04-01 13:25:19.320000'
g115
tp162
a(S'2015-04-01 13:25:19.331000'
g117
tp163
a(S'2015-04-01 13:25:19.335000'
S'data saved as csv to c:\\Charlie\\charlie\\data\\csv\\4367_scap.csv'
tp164
a(S'2015-04-01 13:25:26.800000'
g115
tp165
a(S'2015-04-01 13:25:26.812000'
g117
tp166
a(S'2015-04-01 13:25:26.815000'
S'data saved as csv to c:\\Charlie\\charlie\\data\\csv\\4367_scap.csv'
tp167
a(S'2015-04-01 13:25:34.282000'
g115
tp168
a(S'2015-04-01 13:25:34.293000'
g117
tp169
a(S'2015-04-01 13:25:34.297000'
S'data saved as csv to c:\\Charlie\\charlie\\data\\csv\\4367_scap.csv'
tp170
a(S'2015-04-01 13:25:42.942000'
g115
tp171
a(S'2015-04-01 13:25:42.953000'
g117
tp172
a(S'2015-04-01 13:25:42.957000'
S'data saved as csv to c:\\Charlie\\charlie\\data\\csv\\4367_scap.csv'
tp173
a(S'2015-04-01 13:25:50.554000'
g115
tp174
a(S'2015-04-01 13:25:50.565000'
g117
tp175
a(S'2015-04-01 13:25:50.568000'
S'data saved as csv to c:\\Charlie\\charlie\\data\\csv\\4367_scap.csv'
tp176
a(S'2015-04-01 13:25:57.822000'
g115
tp177
a(S'2015-04-01 13:25:57.833000'
g117
tp178
a(S'2015-04-01 13:25:57.837000'
S'data saved as csv to c:\\Charlie\\charlie\\data\\csv\\4367_scap.csv'
tp179
a(S'2015-04-01 13:26:05.613000'
g115
tp180
a(S'2015-04-01 13:26:05.625000'
g117
tp181
a(S'2015-04-01 13:26:05.628000'
S'data saved as csv to c:\\Charlie\\charlie\\data\\csv\\4367_scap.csv'
tp182
a(S'2015-04-01 13:26:13.373000'
g115
tp183
a(S'2015-04-01 13:26:13.384000'
g117
tp184
a(S'2015-04-01 13:26:13.388000'
S'data saved as csv to c:\\Charlie\\charlie\\data\\csv\\4367_scap.csv'
tp185
a(S'2015-04-01 13:26:21.005000'
g115
tp186
a(S'2015-04-01 13:26:21.016000'
g117
tp187
a(S'2015-04-01 13:26:21.019000'
S'data saved as csv to c:\\Charlie\\charlie\\data\\csv\\4367_scap.csv'
tp188
a(S'2015-04-01 13:26:28.664000'
g115
tp189
a(S'2015-04-01 13:26:28.671000'
g117
tp190
a(S'2015-04-01 13:26:28.673000'
S'data saved as csv to c:\\Charlie\\charlie\\data\\csv\\4367_scap.csv'
tp191
a(S'2015-04-01 13:26:36.898000'
g115
tp192
a(S'2015-04-01 13:26:36.909000'
g117
tp193
a(S'2015-04-01 13:26:36.913000'
S'data saved as csv to c:\\Charlie\\charlie\\data\\csv\\4367_scap.csv'
tp194
a(S'2015-04-01 13:26:45.039000'
g115
tp195
a(S'2015-04-01 13:26:45.050000'
g117
tp196
a(S'2015-04-01 13:26:45.054000'
S'data saved as csv to c:\\Charlie\\charlie\\data\\csv\\4367_scap.csv'
tp197
a(S'2015-04-01 13:26:53.731000'
g115
tp198
a(S'2015-04-01 13:26:53.742000'
g117
tp199
a(S'2015-04-01 13:26:53.746000'
S'data saved as csv to c:\\Charlie\\charlie\\data\\csv\\4367_scap.csv'
tp200
a(S'2015-04-01 13:27:12.691000'
g115
tp201
a(S'2015-04-01 13:27:12.702000'
g117
tp202
a(S'2015-04-01 13:27:12.705000'
S'data saved as csv to c:\\Charlie\\charlie\\data\\csv\\4367_scap.csv'
tp203
a(S'2015-04-01 13:27:20.458000'
g115
tp204
a(S'2015-04-01 13:27:20.469000'
g117
tp205
a(S'2015-04-01 13:27:20.473000'
S'data saved as csv to c:\\Charlie\\charlie\\data\\csv\\4367_scap.csv'
tp206
a(S'2015-04-01 13:27:31.488000'
g115
tp207
a(S'2015-04-01 13:27:31.499000'
g117
tp208
a(S'2015-04-01 13:27:31.503000'
S'data saved as csv to c:\\Charlie\\charlie\\data\\csv\\4367_scap.csv'
tp209
a(S'2015-04-01 13:27:39.020000'
g115
tp210
a(S'2015-04-01 13:27:39.031000'
g117
tp211
a(S'2015-04-01 13:27:39.035000'
S'data saved as csv to c:\\Charlie\\charlie\\data\\csv\\4367_scap.csv'
tp212
a(S'2015-04-01 13:27:46.811000'
g115
tp213
a(S'2015-04-01 13:27:46.822000'
g117
tp214
a(S'2015-04-01 13:27:46.826000'
S'data saved as csv to c:\\Charlie\\charlie\\data\\csv\\4367_scap.csv'
tp215
a(S'2015-04-01 13:27:54.702000'
g115
tp216
a(S'2015-04-01 13:27:54.714000'
g117
tp217
a(S'2015-04-01 13:27:54.718000'
S'data saved as csv to c:\\Charlie\\charlie\\data\\csv\\4367_scap.csv'
tp218
a(S'2015-04-01 13:28:02.224000'
g115
tp219
a(S'2015-04-01 13:28:02.234000'
g117
tp220
a(S'2015-04-01 13:28:02.236000'
S'data saved as csv to c:\\Charlie\\charlie\\data\\csv\\4367_scap.csv'
tp221
a(S'2015-04-01 13:28:10.592000'
g115
tp222
a(S'2015-04-01 13:28:10.604000'
g117
tp223
a(S'2015-04-01 13:28:10.608000'
S'data saved as csv to c:\\Charlie\\charlie\\data\\csv\\4367_scap.csv'
tp224
a(S'2015-04-01 13:28:17.775000'
g115
tp225
a(S'2015-04-01 13:28:17.787000'
g117
tp226
a(S'2015-04-01 13:28:17.791000'
S'data saved as csv to c:\\Charlie\\charlie\\data\\csv\\4367_scap.csv'
tp227
a(S'2015-04-01 13:28:25.738000'
g115
tp228
a(S'2015-04-01 13:28:25.749000'
g117
tp229
a(S'2015-04-01 13:28:25.752000'
S'data saved as csv to c:\\Charlie\\charlie\\data\\csv\\4367_scap.csv'
tp230
a(S'2015-04-01 13:28:32.997000'
g115
tp231
a(S'2015-04-01 13:28:33.009000'
g117
tp232
a(S'2015-04-01 13:28:33.013000'
S'data saved as csv to c:\\Charlie\\charlie\\data\\csv\\4367_scap.csv'
tp233
a(S'2015-04-01 13:28:40.990000'
g115
tp234
a(S'2015-04-01 13:28:41.002000'
g117
tp235
a(S'2015-04-01 13:28:41.006000'
S'data saved as csv to c:\\Charlie\\charlie\\data\\csv\\4367_scap.csv'
tp236
a(S'2015-04-01 13:28:49.213000'
g115
tp237
a(S'2015-04-01 13:28:49.225000'
g117
tp238
a(S'2015-04-01 13:28:49.229000'
S'data saved as csv to c:\\Charlie\\charlie\\data\\csv\\4367_scap.csv'
tp239
a(S'2015-04-01 13:28:57.576000'
g115
tp240
a(S'2015-04-01 13:28:57.587000'
g117
tp241
a(S'2015-04-01 13:28:57.592000'
S'data saved as csv to c:\\Charlie\\charlie\\data\\csv\\4367_scap.csv'
tp242
a(S'2015-04-01 13:29:07.998000'
g115
tp243
a(S'2015-04-01 13:29:08.010000'
g117
tp244
a(S'2015-04-01 13:29:08.015000'
S'data saved as csv to c:\\Charlie\\charlie\\data\\csv\\4367_scap.csv'
tp245
a(S'2015-04-01 13:29:17.250000'
g115
tp246
a(S'2015-04-01 13:29:17.262000'
g117
tp247
a(S'2015-04-01 13:29:17.267000'
S'data saved as csv to c:\\Charlie\\charlie\\data\\csv\\4367_scap.csv'
tp248
a(S'2015-04-01 13:29:26.213000'
g115
tp249
a(S'2015-04-01 13:29:26.225000'
g117
tp250
a(S'2015-04-01 13:29:26.228000'
S'data saved as csv to c:\\Charlie\\charlie\\data\\csv\\4367_scap.csv'
tp251
asb.