(icharlie.tools.data
Data
p1
(dp2
S'lang'
p3
S'EN'
p4
sS'control'
p5
(lp6
sS'last_updated'
p7
cdatetime
datetime
p8
(S'\x07\xdf\x04\x15\t/6\x07\x08\xc8'
tRp9
sS'last_opened'
p10
g8
(S'\x07\xdf\x04\x15\t\x1b\x1b\n\xaax'
tRp11
sS'proj_id'
p12
S'connectivity'
p13
sS'date_done'
p14
NsS'test_done'
p15
I01
sS'data'
p16
(lp17
(S'4368'
p18
S'ctrails'
p19
S'number'
p20
S'practice'
p21
I0
I1
S'Correct'
p22
I60
I104550
tp23
a(g18
g19
g20
g21
I1
I2
g22
I1181
I104550
tp24
a(g18
g19
g20
g21
I2
I3
g22
I20
I104550
tp25
a(g18
g19
g20
g21
I3
I4
g22
I80
I104550
tp26
a(g18
g19
g20
g21
I4
I5
g22
I100
I104550
tp27
a(g18
g19
g20
g21
I5
I6
g22
I2620
I104550
tp28
a(g18
g19
g20
g21
I6
I7
g22
I5230
I104550
tp29
a(g18
g19
g20
g21
I7
I8
g22
I90
I104550
tp30
a(g18
g19
g20
S'test'
p31
I0
I1
g22
I570
I171102
tp32
a(g18
g19
g20
g31
I1
I2
g22
I80
I171102
tp33
a(g18
g19
g20
g31
I2
I3
g22
I800
I171102
tp34
a(g18
g19
g20
g31
I3
I4
g22
I200
I171102
tp35
a(g18
g19
g20
g31
I4
I5
g22
I770
I171102
tp36
a(g18
g19
g20
g31
I5
I6
g22
I100
I171102
tp37
a(g18
g19
g20
g31
I6
I7
g22
I830
I171102
tp38
a(g18
g19
g20
g31
I7
I8
g22
I580
I171102
tp39
a(g18
g19
g20
g31
I8
I9
g22
I1110
I171102
tp40
a(g18
g19
g20
g31
I9
I10
g22
I70
I171102
tp41
a(g18
g19
g20
g31
I10
I11
g22
I30
I171102
tp42
a(g18
g19
g20
g31
I11
I12
g22
I60
I171102
tp43
a(g18
g19
g20
g31
I12
I13
g22
I620
I171102
tp44
a(g18
g19
g20
g31
I13
I14
g22
I50
I171102
tp45
a(g18
g19
g20
g31
I14
I15
g22
I760
I171102
tp46
a(g18
g19
g20
g31
I15
I16
g22
I10
I171102
tp47
a(g18
g19
g20
g31
I16
I17
g22
I30
I171102
tp48
a(g18
g19
g20
g31
I17
I18
g22
I100
I171102
tp49
a(g18
g19
g20
g31
I18
I19
g22
I40
I171102
tp50
a(g18
g19
g20
g31
I19
I20
g22
I110
I171102
tp51
a(g18
g19
g20
g31
I20
I21
g22
I60
I171102
tp52
a(g18
g19
g20
g31
I21
I22
g22
I70
I171102
tp53
a(g18
g19
g20
g31
I22
I23
g22
I40
I171102
tp54
a(g18
g19
g20
g31
I23
I24
g22
I20
I171102
tp55
a(g18
g19
g20
g31
I24
I25
g22
I1110
I171102
tp56
a(g18
g19
S'letter'
p57
g21
I0
S'a'
g22
I40
I66469
tp58
a(g18
g19
g57
g21
I1
S'b'
g22
I550
I66469
tp59
a(g18
g19
g57
g21
I2
S'c'
g22
I180
I66469
tp60
a(g18
g19
g57
g21
I3
S'd'
g22
I20
I66469
tp61
a(g18
g19
g57
g21
I4
S'e'
g22
I7761
I66469
tp62
a(g18
g19
g57
g21
I5
S'f'
g22
I60
I66469
tp63
a(g18
g19
g57
g21
I6
S'g'
g22
I40
I66469
tp64
a(g18
g19
g57
g21
I7
S'h'
g22
I20
I66469
tp65
a(g18
g19
g57
g31
I0
S'a'
g22
I1970
I249912
tp66
a(g18
g19
g57
g31
I1
S'a'
S'Incorrect'
p67
I890
I249912
tp68
a(g18
g19
g57
g31
I2
S'b'
g22
I9121
I249912
tp69
a(g18
g19
g57
g31
I3
S'c'
g22
I590
I249912
tp70
a(g18
g19
g57
g31
I4
S'd'
g22
I750
I249912
tp71
a(g18
g19
g57
g31
I5
S'e'
g22
I80
I249912
tp72
a(g18
g19
g57
g31
I6
S'f'
g22
I1390
I249912
tp73
a(g18
g19
g57
g31
I7
S'g'
g22
I500
I249912
tp74
a(g18
g19
g57
g31
I8
S'h'
g22
I40
I249912
tp75
a(g18
g19
g57
g31
I9
S'i'
g22
I90
I249912
tp76
a(g18
g19
g57
g31
I10
S'j'
g22
I30
I249912
tp77
a(g18
g19
g57
g31
I11
S'k'
g22
I100
I249912
tp78
a(g18
g19
g57
g31
I12
S'l'
g22
I80
I249912
tp79
a(g18
g19
g57
g31
I13
S'm'
g22
I20
I249912
tp80
a(g18
g19
g57
g31
I14
S'n'
g22
I20
I249912
tp81
a(g18
g19
g57
g31
I15
S'o'
g22
I80
I249912
tp82
a(g18
g19
g57
g31
I16
S'p'
g22
I530
I249912
tp83
a(g18
g19
g57
g31
I17
S'q'
g22
I40
I249912
tp84
a(g18
g19
g57
g31
I18
S'r'
g22
I180
I249912
tp85
a(g18
g19
g57
g31
I19
S's'
g22
I20
I249912
tp86
a(g18
g19
g57
g31
I20
S't'
g22
I30
I249912
tp87
a(g18
g19
g57
g31
I21
S'u'
g22
I440
I249912
tp88
a(g18
g19
g57
g31
I22
S'v'
g22
I50
I249912
tp89
a(g18
g19
g57
g31
I23
S'y'
g67
I360
I249912
tp90
a(g18
g19
g57
g31
I24
S'y'
g67
I20
I249912
tp91
a(g18
g19
g57
g31
I25
S'y'
g67
I40
I249912
tp92
a(g18
g19
g57
g31
I26
S'y'
g67
I110
I249912
tp93
a(g18
g19
g57
g31
I27
S'y'
g67
I1360
I249912
tp94
a(g18
g19
g57
g31
I28
S'w'
g22
I1711
I249912
tp95
a(g18
g19
g57
g31
I29
S'x'
g22
I120
I249912
tp96
a(g18
g19
g57
g31
I30
S'y'
g22
I2600
I249912
tp97
a(g18
g19
S'number-letter'
p98
g21
I0
I1
g22
I640
I52611
tp99
a(g18
g19
g98
g21
I1
S'a'
g22
I7991
I52611
tp100
a(g18
g19
g98
g21
I2
I2
g22
I2340
I52611
tp101
a(g18
g19
g98
g21
I3
S'b'
g22
I3961
I52611
tp102
a(g18
g19
g98
g21
I4
I3
g22
I5000
I52611
tp103
a(g18
g19
g98
g21
I5
S'c'
g22
I4380
I52611
tp104
a(g18
g19
g98
g21
I6
I4
g22
I5311
I52611
tp105
a(g18
g19
g98
g21
I7
S'd'
g22
I4240
I52611
tp106
a(g18
g19
g98
g31
I0
S'a'
g67
I9341
I407138
tp107
a(g18
g19
g98
g31
I1
S'a'
g67
I1880
I407138
tp108
a(g18
g19
g98
g31
I2
S'i'
g67
I8990
I407138
tp109
a(g18
g19
g98
g31
I3
I1
g22
I4032
I407138
tp110
a(g18
g19
g98
g31
I4
S'a'
g22
I4700
I407138
tp111
a(g18
g19
g98
g31
I5
I2
g22
I2070
I407138
tp112
a(g18
g19
g98
g31
I6
S'b'
g22
I2210
I407138
tp113
a(g18
g19
g98
g31
I7
I3
g22
I2200
I407138
tp114
a(g18
g19
g98
g31
I8
S'd'
g67
I6890
I407138
tp115
a(g18
g19
g98
g31
I9
S'd'
g67
I840
I407138
tp116
a(g18
g19
g98
g31
I10
S'c'
g22
I7971
I407138
tp117
a(g18
g19
g98
g31
I11
I4
g22
I5630
I407138
tp118
a(g18
g19
g98
g31
I12
S'd'
g22
I2860
I407138
tp119
a(g18
g19
g98
g31
I13
I5
g22
I800
I407138
tp120
a(g18
g19
g98
g31
I14
I6
g67
I1580
I407138
tp121
a(g18
g19
g98
g31
I15
S'e'
g22
I3311
I407138
tp122
a(g18
g19
g98
g31
I16
I6
g22
I1980
I407138
tp123
a(g18
g19
g98
g31
I17
S'h'
g67
I4491
I407138
tp124
a(g18
g19
g98
g31
I18
I7
g67
I420
I407138
tp125
a(g18
g19
g98
g31
I19
I7
g67
I2220
I407138
tp126
a(g18
g19
g98
g31
I20
S'h'
g67
I3720
I407138
tp127
a(g18
g19
g98
g31
I21
S'f'
g22
I17191
I407138
tp128
a(g18
g19
g98
g31
I22
I7
g22
I4781
I407138
tp129
a(g18
g19
g98
g31
I23
S'h'
g67
I3970
I407138
tp130
a(g18
g19
g98
g31
I24
I8
g67
I300
I407138
tp131
a(g18
g19
g98
g31
I25
I8
g67
I70
I407138
tp132
a(g18
g19
g98
g31
I26
S'j'
g67
I1820
I407138
tp133
a(g18
g19
g98
g31
I27
I9
g67
I16271
I407138
tp134
a(g18
g19
g98
g31
I28
S'i'
g67
I3940
I407138
tp135
a(g18
g19
g98
g31
I29
S'l'
g67
I2310
I407138
tp136
a(g18
g19
g98
g31
I30
I8
g67
I6601
I407138
tp137
a(g18
g19
g98
g31
I31
S'j'
g67
I3090
I407138
tp138
a(g18
g19
g98
g31
I32
S'h'
g67
I1080
I407138
tp139
a(g18
g19
g98
g31
I33
S'g'
g22
I2290
I407138
tp140
a(g18
g19
g98
g31
I34
I8
g22
I9751
I407138
tp141
a(g18
g19
g98
g31
I35
S'h'
g22
I4620
I407138
tp142
a(g18
g19
g98
g31
I36
I9
g22
I12671
I407138
tp143
a(g18
g19
g98
g31
I37
S'l'
g67
I15031
I407138
tp144
a(g18
g19
g98
g31
I38
S'i'
g22
I2430
I407138
tp145
a(g18
g19
g98
g31
I39
I10
g22
I20
I407138
tp146
a(g18
g19
g98
g31
I40
S'j'
g22
I1190
I407138
tp147
a(g18
g19
g98
g31
I41
I11
g22
I20
I407138
tp148
a(g18
g19
g98
g31
I42
S'k'
g22
I16841
I407138
tp149
a(g18
g19
g98
g31
I43
I12
g22
I7880
I407138
tp150
a(g18
g19
g98
g31
I44
I12
g67
I670
I407138
tp151
a(g18
g19
g98
g31
I45
S'l'
g22
I2081
I407138
tp152
a(g18
g19
g98
g31
I46
I13
g22
I2360
I407138
tp153
asS'output_format'
p154
(lp155
(S'proband_id'
p156
c__builtin__
str
p157
tp158
a(S'test_name'
p159
g157
tp160
a(S'phase'
p161
g157
tp162
a(S'trial_type'
p163
g157
tp164
a(S'n'
c__builtin__
int
p165
tp166
a(S'rsp'
p167
g157
tp168
a(S'corr'
p169
g157
tp170
a(S'rt'
p171
g165
tp172
a(S'total_time'
p173
g165
tp174
asg156
g18
sS'filename'
p175
S'4368_ctrails.data'
p176
sS'initialised'
p177
g8
(S'\x07\xdf\x04\x15\t\x1b\x1b\n\xaax'
tRp178
sS'last_udated'
p179
g8
(S'\x07\xdf\x04\x15\t\x1b\x1b\n\xaax'
tRp180
sg159
S'ctrails'
p181
sS'directory'
p182
S'C:\\Users\\Jbarrett\\Charlie\\charlie\\data\\raw'
p183
sS'user_id'
p184
S'jbarrett'
p185
sS'test_started'
p186
I01
sS'abs_filename'
p187
S'C:\\Users\\Jbarrett\\Charlie\\charlie\\data\\raw\\4368_ctrails.data'
p188
sS'date_started'
p189
g8
(S'\x07\xdf\x04\x15\t\x1d(\x05\xe7\xb8'
tRp190
sS'log'
p191
(lp192
(S'2015-04-21 09:27:27.699000'
S'instance created'
p193
tp194
a(S'2015-04-21 09:29:40.395000'
S'instance updated'
p195
tp196
a(S'2015-04-21 09:29:40.404000'
S'pandas DataFrame of data created'
p197
tp198
a(S'2015-04-21 09:29:40.408000'
S'data saved as csv to C:\\Users\\Jbarrett\\Charlie\\charlie\\data\\csv\\4368_ctrails.csv'
tp199
a(S'2015-04-21 09:32:54.492000'
g195
tp200
a(S'2015-04-21 09:32:54.502000'
g197
tp201
a(S'2015-04-21 09:32:54.505000'
S'data saved as csv to C:\\Users\\Jbarrett\\Charlie\\charlie\\data\\csv\\4368_ctrails.csv'
tp202
a(S'2015-04-21 09:34:18.617000'
g195
tp203
a(S'2015-04-21 09:34:18.627000'
g197
tp204
a(S'2015-04-21 09:34:18.630000'
S'data saved as csv to C:\\Users\\Jbarrett\\Charlie\\charlie\\data\\csv\\4368_ctrails.csv'
tp205
a(S'2015-04-21 09:38:50.911000'
g195
tp206
a(S'2015-04-21 09:38:50.922000'
g197
tp207
a(S'2015-04-21 09:38:50.926000'
S'data saved as csv to C:\\Users\\Jbarrett\\Charlie\\charlie\\data\\csv\\4368_ctrails.csv'
tp208
a(S'2015-04-21 09:40:44.448000'
g195
tp209
a(S'2015-04-21 09:40:44.458000'
g197
tp210
a(S'2015-04-21 09:40:44.460000'
S'data saved as csv to C:\\Users\\Jbarrett\\Charlie\\charlie\\data\\csv\\4368_ctrails.csv'
tp211
a(S'2015-04-21 09:47:54.443000'
g195
tp212
a(S'2015-04-21 09:47:54.454000'
g197
tp213
a(S'2015-04-21 09:47:54.460000'
S'data saved as csv to C:\\Users\\Jbarrett\\Charlie\\charlie\\data\\csv\\4368_ctrails.csv'
tp214
asb.