(icharlie.tools.data
Data
p1
(dp2
S'lang'
p3
S'EN'
p4
sS'control'
p5
(lp6
sS'last_updated'
p7
cdatetime
datetime
p8
(S'\x07\xdf\x04\x03\x0f\x0c.\x0e,\xe8'
tRp9
sS'last_opened'
p10
g8
(S'\x07\xdf\x04\x03\x0f\x05.\x065\xd8'
tRp11
sS'proj_id'
p12
S'connectivity'
p13
sS'date_done'
p14
NsS'test_done'
p15
I01
sS'data'
p16
(lp17
(S'4368'
p18
S'stroop'
p19
S'practice'
p20
I0
S'n/a'
p21
S'C:\\Users\\Jbarrett\\Charlie\\charlie\\stimuli\\visual\\stroop\\prac_1.png'
S'Right'
p22
g22
I11541
tp23
a(g18
g19
g20
I1
g21
S'C:\\Users\\Jbarrett\\Charlie\\charlie\\stimuli\\visual\\stroop\\prac_2.png'
S'Left'
p24
g24
I2140
tp25
a(g18
g19
g20
I2
g21
S'C:\\Users\\Jbarrett\\Charlie\\charlie\\stimuli\\visual\\stroop\\prac_3.png'
g22
g22
I1220
tp26
a(g18
g19
g20
I3
g21
S'C:\\Users\\Jbarrett\\Charlie\\charlie\\stimuli\\visual\\stroop\\prac_4.png'
g22
g22
I1400
tp27
a(g18
g19
S'test'
p28
I0
S'Incongruent'
p29
S'C:\\Users\\Jbarrett\\Charlie\\charlie\\stimuli\\visual\\stroop\\6-Incongruent.png'
g24
g24
I4381
tp30
a(g18
g19
g28
I1
S'Congruent'
p31
S'C:\\Users\\Jbarrett\\Charlie\\charlie\\stimuli\\visual\\stroop\\30-Congruent.png'
g24
g24
I1840
tp32
a(g18
g19
g28
I2
g31
S'C:\\Users\\Jbarrett\\Charlie\\charlie\\stimuli\\visual\\stroop\\3-Congruent.png'
g22
g22
I1450
tp33
a(g18
g19
g28
I3
g29
S'C:\\Users\\Jbarrett\\Charlie\\charlie\\stimuli\\visual\\stroop\\23-Incongruent.png'
g24
g24
I1170
tp34
a(g18
g19
g28
I4
g31
S'C:\\Users\\Jbarrett\\Charlie\\charlie\\stimuli\\visual\\stroop\\39-Congruent.png'
g24
g24
I2000
tp35
a(g18
g19
g28
I5
g31
S'C:\\Users\\Jbarrett\\Charlie\\charlie\\stimuli\\visual\\stroop\\45-Congruent.png'
g24
g24
I1460
tp36
a(g18
g19
g28
I6
g29
S'C:\\Users\\Jbarrett\\Charlie\\charlie\\stimuli\\visual\\stroop\\31-Incongruent.png'
g22
g22
I3060
tp37
a(g18
g19
g28
I7
g29
S'C:\\Users\\Jbarrett\\Charlie\\charlie\\stimuli\\visual\\stroop\\28-Incongruent.png'
g24
g24
I1601
tp38
a(g18
g19
g28
I8
g31
S'C:\\Users\\Jbarrett\\Charlie\\charlie\\stimuli\\visual\\stroop\\31-Congruent.png'
g24
g24
I3200
tp39
a(g18
g19
g28
I9
g31
S'C:\\Users\\Jbarrett\\Charlie\\charlie\\stimuli\\visual\\stroop\\10-Congruent.png'
g22
g22
I2510
tp40
a(g18
g19
g28
I10
g29
S'C:\\Users\\Jbarrett\\Charlie\\charlie\\stimuli\\visual\\stroop\\10-Incongruent.png'
g24
g24
I1850
tp41
a(g18
g19
g28
I11
g29
S'C:\\Users\\Jbarrett\\Charlie\\charlie\\stimuli\\visual\\stroop\\24-Incongruent.png'
g24
g24
I1570
tp42
a(g18
g19
g28
I12
g31
S'C:\\Users\\Jbarrett\\Charlie\\charlie\\stimuli\\visual\\stroop\\34-Congruent.png'
g24
g24
I1730
tp43
a(g18
g19
g28
I13
g31
S'C:\\Users\\Jbarrett\\Charlie\\charlie\\stimuli\\visual\\stroop\\38-Congruent.png'
g24
g24
I36102
tp44
a(g18
g19
g28
I14
g31
S'C:\\Users\\Jbarrett\\Charlie\\charlie\\stimuli\\visual\\stroop\\42-Congruent.png'
g24
g24
I1310
tp45
a(g18
g19
g28
I15
g31
S'C:\\Users\\Jbarrett\\Charlie\\charlie\\stimuli\\visual\\stroop\\17-Congruent.png'
g22
g22
I3091
tp46
a(g18
g19
g28
I16
g29
S'C:\\Users\\Jbarrett\\Charlie\\charlie\\stimuli\\visual\\stroop\\42-Incongruent.png'
g22
g22
I4480
tp47
a(g18
g19
g28
I17
g29
S'C:\\Users\\Jbarrett\\Charlie\\charlie\\stimuli\\visual\\stroop\\36-Incongruent.png'
g22
g22
I1580
tp48
a(g18
g19
g28
I18
g29
S'C:\\Users\\Jbarrett\\Charlie\\charlie\\stimuli\\visual\\stroop\\43-Incongruent.png'
g22
g22
I1130
tp49
a(g18
g19
g28
I19
g31
S'C:\\Users\\Jbarrett\\Charlie\\charlie\\stimuli\\visual\\stroop\\49-Congruent.png'
g24
g24
I1850
tp50
a(g18
g19
g28
I20
g31
S'C:\\Users\\Jbarrett\\Charlie\\charlie\\stimuli\\visual\\stroop\\43-Congruent.png'
g24
g22
I2250
tp51
a(g18
g19
g28
I21
g29
S'C:\\Users\\Jbarrett\\Charlie\\charlie\\stimuli\\visual\\stroop\\15-Incongruent.png'
g24
g24
I2240
tp52
a(g18
g19
g28
I22
g29
S'C:\\Users\\Jbarrett\\Charlie\\charlie\\stimuli\\visual\\stroop\\35-Incongruent.png'
g22
g22
I1760
tp53
a(g18
g19
g28
I23
g29
S'C:\\Users\\Jbarrett\\Charlie\\charlie\\stimuli\\visual\\stroop\\44-Incongruent.png'
g22
g22
I1711
tp54
a(g18
g19
g28
I24
g29
S'C:\\Users\\Jbarrett\\Charlie\\charlie\\stimuli\\visual\\stroop\\47-Incongruent.png'
g22
g22
I1610
tp55
a(g18
g19
g28
I25
g29
S'C:\\Users\\Jbarrett\\Charlie\\charlie\\stimuli\\visual\\stroop\\40-Incongruent.png'
g22
g22
I1440
tp56
a(g18
g19
g28
I26
g29
S'C:\\Users\\Jbarrett\\Charlie\\charlie\\stimuli\\visual\\stroop\\25-Incongruent.png'
g24
g24
I1850
tp57
a(g18
g19
g28
I27
g29
S'C:\\Users\\Jbarrett\\Charlie\\charlie\\stimuli\\visual\\stroop\\27-Incongruent.png'
g24
g24
I3510
tp58
a(g18
g19
g28
I28
g29
S'C:\\Users\\Jbarrett\\Charlie\\charlie\\stimuli\\visual\\stroop\\56-Incongruent.png'
g22
g22
I1450
tp59
a(g18
g19
g28
I29
g31
S'C:\\Users\\Jbarrett\\Charlie\\charlie\\stimuli\\visual\\stroop\\2-Congruent.png'
g22
g22
I1400
tp60
a(g18
g19
g28
I30
g29
S'C:\\Users\\Jbarrett\\Charlie\\charlie\\stimuli\\visual\\stroop\\17-Incongruent.png'
g24
g24
I1370
tp61
a(g18
g19
g28
I31
g31
S'C:\\Users\\Jbarrett\\Charlie\\charlie\\stimuli\\visual\\stroop\\12-Congruent.png'
g22
g22
I3111
tp62
a(g18
g19
g28
I32
g29
S'C:\\Users\\Jbarrett\\Charlie\\charlie\\stimuli\\visual\\stroop\\12-Incongruent.png'
g24
g24
I2010
tp63
a(g18
g19
g28
I33
g29
S'C:\\Users\\Jbarrett\\Charlie\\charlie\\stimuli\\visual\\stroop\\26-Incongruent.png'
g24
g24
I1370
tp64
a(g18
g19
g28
I34
g31
S'C:\\Users\\Jbarrett\\Charlie\\charlie\\stimuli\\visual\\stroop\\19-Congruent.png'
g22
g22
I1440
tp65
a(g18
g19
g28
I35
g31
S'C:\\Users\\Jbarrett\\Charlie\\charlie\\stimuli\\visual\\stroop\\23-Congruent.png'
g22
g22
I1570
tp66
a(g18
g19
g28
I36
g31
S'C:\\Users\\Jbarrett\\Charlie\\charlie\\stimuli\\visual\\stroop\\35-Congruent.png'
g24
g24
I2531
tp67
a(g18
g19
g28
I37
g31
S'C:\\Users\\Jbarrett\\Charlie\\charlie\\stimuli\\visual\\stroop\\46-Congruent.png'
g24
g24
I1930
tp68
a(g18
g19
g28
I38
g29
S'C:\\Users\\Jbarrett\\Charlie\\charlie\\stimuli\\visual\\stroop\\8-Incongruent.png'
g24
g24
I1690
tp69
a(g18
g19
g28
I39
g31
S'C:\\Users\\Jbarrett\\Charlie\\charlie\\stimuli\\visual\\stroop\\29-Congruent.png'
g24
g24
I1590
tp70
a(g18
g19
g28
I40
g31
S'C:\\Users\\Jbarrett\\Charlie\\charlie\\stimuli\\visual\\stroop\\14-Congruent.png'
g22
g22
I1530
tp71
a(g18
g19
g28
I41
g31
S'C:\\Users\\Jbarrett\\Charlie\\charlie\\stimuli\\visual\\stroop\\33-Congruent.png'
g24
g22
I2710
tp72
a(g18
g19
g28
I42
g29
S'C:\\Users\\Jbarrett\\Charlie\\charlie\\stimuli\\visual\\stroop\\13-Incongruent.png'
g24
g24
I2040
tp73
a(g18
g19
g28
I43
g29
S'C:\\Users\\Jbarrett\\Charlie\\charlie\\stimuli\\visual\\stroop\\55-Incongruent.png'
g22
g22
I1970
tp74
a(g18
g19
g28
I44
g31
S'C:\\Users\\Jbarrett\\Charlie\\charlie\\stimuli\\visual\\stroop\\54-Congruent.png'
g24
g24
I2320
tp75
a(g18
g19
g28
I45
g31
S'C:\\Users\\Jbarrett\\Charlie\\charlie\\stimuli\\visual\\stroop\\8-Congruent.png'
g22
g22
I3210
tp76
a(g18
g19
g28
I46
g31
S'C:\\Users\\Jbarrett\\Charlie\\charlie\\stimuli\\visual\\stroop\\13-Congruent.png'
g22
g24
I1880
tp77
a(g18
g19
g28
I47
g31
S'C:\\Users\\Jbarrett\\Charlie\\charlie\\stimuli\\visual\\stroop\\40-Congruent.png'
g24
g24
I2531
tp78
a(g18
g19
g28
I48
g29
S'C:\\Users\\Jbarrett\\Charlie\\charlie\\stimuli\\visual\\stroop\\9-Incongruent.png'
g24
g24
I1670
tp79
a(g18
g19
g28
I49
g31
S'C:\\Users\\Jbarrett\\Charlie\\charlie\\stimuli\\visual\\stroop\\50-Congruent.png'
g24
g24
I2420
tp80
a(g18
g19
g28
I50
g31
S'C:\\Users\\Jbarrett\\Charlie\\charlie\\stimuli\\visual\\stroop\\5-Congruent.png'
g22
g22
I1720
tp81
a(g18
g19
g28
I51
g29
S'C:\\Users\\Jbarrett\\Charlie\\charlie\\stimuli\\visual\\stroop\\5-Incongruent.png'
g24
g24
I1150
tp82
a(g18
g19
g28
I52
g29
S'C:\\Users\\Jbarrett\\Charlie\\charlie\\stimuli\\visual\\stroop\\53-Incongruent.png'
g22
g22
I1670
tp83
a(g18
g19
g28
I53
g29
S'C:\\Users\\Jbarrett\\Charlie\\charlie\\stimuli\\visual\\stroop\\1-Incongruent.png'
g24
g24
I1890
tp84
a(g18
g19
g28
I54
g31
S'C:\\Users\\Jbarrett\\Charlie\\charlie\\stimuli\\visual\\stroop\\28-Congruent.png'
g22
g22
I1710
tp85
a(g18
g19
g28
I55
g29
S'C:\\Users\\Jbarrett\\Charlie\\charlie\\stimuli\\visual\\stroop\\34-Incongruent.png'
g22
g22
I1710
tp86
a(g18
g19
g28
I56
g29
S'C:\\Users\\Jbarrett\\Charlie\\charlie\\stimuli\\visual\\stroop\\20-Incongruent.png'
g24
g24
I1980
tp87
a(g18
g19
g28
I57
g29
S'C:\\Users\\Jbarrett\\Charlie\\charlie\\stimuli\\visual\\stroop\\38-Incongruent.png'
g22
g22
I1770
tp88
a(g18
g19
g28
I58
g29
S'C:\\Users\\Jbarrett\\Charlie\\charlie\\stimuli\\visual\\stroop\\32-Incongruent.png'
g22
g22
I1300
tp89
a(g18
g19
g28
I59
g31
S'C:\\Users\\Jbarrett\\Charlie\\charlie\\stimuli\\visual\\stroop\\9-Congruent.png'
g22
g22
I1310
tp90
a(g18
g19
g28
I60
g31
S'C:\\Users\\Jbarrett\\Charlie\\charlie\\stimuli\\visual\\stroop\\55-Congruent.png'
g24
g24
I1570
tp91
a(g18
g19
g28
I61
g29
S'C:\\Users\\Jbarrett\\Charlie\\charlie\\stimuli\\visual\\stroop\\33-Incongruent.png'
g22
g22
I1670
tp92
a(g18
g19
g28
I62
g29
S'C:\\Users\\Jbarrett\\Charlie\\charlie\\stimuli\\visual\\stroop\\49-Incongruent.png'
g22
g22
I2140
tp93
a(g18
g19
g28
I63
g31
S'C:\\Users\\Jbarrett\\Charlie\\charlie\\stimuli\\visual\\stroop\\4-Congruent.png'
g22
g24
I2520
tp94
a(g18
g19
g28
I64
g31
S'C:\\Users\\Jbarrett\\Charlie\\charlie\\stimuli\\visual\\stroop\\6-Congruent.png'
g22
g22
I3070
tp95
a(g18
g19
g28
I65
g31
S'C:\\Users\\Jbarrett\\Charlie\\charlie\\stimuli\\visual\\stroop\\48-Congruent.png'
g24
g22
I2211
tp96
a(g18
g19
g28
I66
g31
S'C:\\Users\\Jbarrett\\Charlie\\charlie\\stimuli\\visual\\stroop\\52-Congruent.png'
g24
g24
I1880
tp97
a(g18
g19
g28
I67
g31
S'C:\\Users\\Jbarrett\\Charlie\\charlie\\stimuli\\visual\\stroop\\51-Congruent.png'
g24
g22
I2320
tp98
a(g18
g19
g28
I68
g31
S'C:\\Users\\Jbarrett\\Charlie\\charlie\\stimuli\\visual\\stroop\\16-Congruent.png'
g22
g22
I2150
tp99
a(g18
g19
g28
I69
g31
S'C:\\Users\\Jbarrett\\Charlie\\charlie\\stimuli\\visual\\stroop\\24-Congruent.png'
g22
g22
I1790
tp100
a(g18
g19
g28
I70
g29
S'C:\\Users\\Jbarrett\\Charlie\\charlie\\stimuli\\visual\\stroop\\41-Incongruent.png'
g22
g22
I2680
tp101
a(g18
g19
g28
I71
g29
S'C:\\Users\\Jbarrett\\Charlie\\charlie\\stimuli\\visual\\stroop\\48-Incongruent.png'
g22
g22
I1940
tp102
a(g18
g19
g28
I72
g29
S'C:\\Users\\Jbarrett\\Charlie\\charlie\\stimuli\\visual\\stroop\\4-Incongruent.png'
g24
g24
I1700
tp103
a(g18
g19
g28
I73
g29
S'C:\\Users\\Jbarrett\\Charlie\\charlie\\stimuli\\visual\\stroop\\54-Incongruent.png'
g22
g22
I1931
tp104
a(g18
g19
g28
I74
g29
S'C:\\Users\\Jbarrett\\Charlie\\charlie\\stimuli\\visual\\stroop\\39-Incongruent.png'
g22
g22
I2170
tp105
a(g18
g19
g28
I75
g31
S'C:\\Users\\Jbarrett\\Charlie\\charlie\\stimuli\\visual\\stroop\\56-Congruent.png'
g24
g24
I2510
tp106
a(g18
g19
g28
I76
g29
S'C:\\Users\\Jbarrett\\Charlie\\charlie\\stimuli\\visual\\stroop\\46-Incongruent.png'
g22
g22
I3230
tp107
a(g18
g19
g28
I77
g31
S'C:\\Users\\Jbarrett\\Charlie\\charlie\\stimuli\\visual\\stroop\\22-Congruent.png'
g22
g22
I1690
tp108
a(g18
g19
g28
I78
g29
S'C:\\Users\\Jbarrett\\Charlie\\charlie\\stimuli\\visual\\stroop\\21-Incongruent.png'
g24
g24
I3400
tp109
a(g18
g19
g28
I79
g29
S'C:\\Users\\Jbarrett\\Charlie\\charlie\\stimuli\\visual\\stroop\\37-Incongruent.png'
g22
g22
I2311
tp110
a(g18
g19
g28
I80
g29
S'C:\\Users\\Jbarrett\\Charlie\\charlie\\stimuli\\visual\\stroop\\2-Incongruent.png'
g24
g24
I1210
tp111
a(g18
g19
g28
I81
g31
S'C:\\Users\\Jbarrett\\Charlie\\charlie\\stimuli\\visual\\stroop\\21-Congruent.png'
g22
g22
I1390
tp112
a(g18
g19
g28
I82
g29
S'C:\\Users\\Jbarrett\\Charlie\\charlie\\stimuli\\visual\\stroop\\7-Incongruent.png'
g24
g24
I2110
tp113
a(g18
g19
g28
I83
g31
S'C:\\Users\\Jbarrett\\Charlie\\charlie\\stimuli\\visual\\stroop\\20-Congruent.png'
g22
g22
I3220
tp114
a(g18
g19
g28
I84
g31
S'C:\\Users\\Jbarrett\\Charlie\\charlie\\stimuli\\visual\\stroop\\15-Congruent.png'
g22
g22
I1430
tp115
a(g18
g19
g28
I85
g31
S'C:\\Users\\Jbarrett\\Charlie\\charlie\\stimuli\\visual\\stroop\\26-Congruent.png'
g22
g22
I1560
tp116
a(g18
g19
g28
I86
g29
S'C:\\Users\\Jbarrett\\Charlie\\charlie\\stimuli\\visual\\stroop\\16-Incongruent.png'
g24
g24
I1790
tp117
a(g18
g19
g28
I87
g29
S'C:\\Users\\Jbarrett\\Charlie\\charlie\\stimuli\\visual\\stroop\\50-Incongruent.png'
g22
g22
I1500
tp118
a(g18
g19
g28
I88
g31
S'C:\\Users\\Jbarrett\\Charlie\\charlie\\stimuli\\visual\\stroop\\41-Congruent.png'
g24
g22
I2331
tp119
a(g18
g19
g28
I89
g31
S'C:\\Users\\Jbarrett\\Charlie\\charlie\\stimuli\\visual\\stroop\\25-Congruent.png'
g22
g22
I1800
tp120
a(g18
g19
g28
I90
g31
S'C:\\Users\\Jbarrett\\Charlie\\charlie\\stimuli\\visual\\stroop\\27-Congruent.png'
g22
g22
I1710
tp121
a(g18
g19
g28
I91
g29
S'C:\\Users\\Jbarrett\\Charlie\\charlie\\stimuli\\visual\\stroop\\18-Incongruent.png'
g24
g24
I2280
tp122
a(g18
g19
g28
I92
g29
S'C:\\Users\\Jbarrett\\Charlie\\charlie\\stimuli\\visual\\stroop\\30-Incongruent.png'
g22
g22
I1680
tp123
a(g18
g19
g28
I93
g31
S'C:\\Users\\Jbarrett\\Charlie\\charlie\\stimuli\\visual\\stroop\\44-Congruent.png'
g24
g24
I3620
tp124
a(g18
g19
g28
I94
g31
S'C:\\Users\\Jbarrett\\Charlie\\charlie\\stimuli\\visual\\stroop\\37-Congruent.png'
g24
g22
I2190
tp125
a(g18
g19
g28
I95
g29
S'C:\\Users\\Jbarrett\\Charlie\\charlie\\stimuli\\visual\\stroop\\11-Incongruent.png'
g24
g24
I2761
tp126
a(g18
g19
g28
I96
g29
S'C:\\Users\\Jbarrett\\Charlie\\charlie\\stimuli\\visual\\stroop\\29-Incongruent.png'
g22
g22
I1560
tp127
a(g18
g19
g28
I97
g29
S'C:\\Users\\Jbarrett\\Charlie\\charlie\\stimuli\\visual\\stroop\\3-Incongruent.png'
g24
g24
I1770
tp128
a(g18
g19
g28
I98
g31
S'C:\\Users\\Jbarrett\\Charlie\\charlie\\stimuli\\visual\\stroop\\1-Congruent.png'
g22
g22
I1560
tp129
a(g18
g19
g28
I99
g29
S'C:\\Users\\Jbarrett\\Charlie\\charlie\\stimuli\\visual\\stroop\\52-Incongruent.png'
g22
g22
I1490
tp130
a(g18
g19
g28
I100
g29
S'C:\\Users\\Jbarrett\\Charlie\\charlie\\stimuli\\visual\\stroop\\14-Incongruent.png'
g24
g24
I1580
tp131
a(g18
g19
g28
I101
g31
S'C:\\Users\\Jbarrett\\Charlie\\charlie\\stimuli\\visual\\stroop\\47-Congruent.png'
g24
g24
I1760
tp132
a(g18
g19
g28
I102
g29
S'C:\\Users\\Jbarrett\\Charlie\\charlie\\stimuli\\visual\\stroop\\19-Incongruent.png'
g24
g24
I3050
tp133
a(g18
g19
g28
I103
g31
S'C:\\Users\\Jbarrett\\Charlie\\charlie\\stimuli\\visual\\stroop\\11-Congruent.png'
g22
g22
I3310
tp134
a(g18
g19
g28
I104
g29
S'C:\\Users\\Jbarrett\\Charlie\\charlie\\stimuli\\visual\\stroop\\22-Incongruent.png'
g24
g24
I1920
tp135
a(g18
g19
g28
I105
g31
S'C:\\Users\\Jbarrett\\Charlie\\charlie\\stimuli\\visual\\stroop\\7-Congruent.png'
g22
g22
I2030
tp136
a(g18
g19
g28
I106
g31
S'C:\\Users\\Jbarrett\\Charlie\\charlie\\stimuli\\visual\\stroop\\53-Congruent.png'
g24
g24
I3910
tp137
a(g18
g19
g28
I107
g31
S'C:\\Users\\Jbarrett\\Charlie\\charlie\\stimuli\\visual\\stroop\\32-Congruent.png'
g24
g24
I2570
tp138
a(g18
g19
g28
I108
g29
S'C:\\Users\\Jbarrett\\Charlie\\charlie\\stimuli\\visual\\stroop\\45-Incongruent.png'
g22
g22
I1690
tp139
a(g18
g19
g28
I109
g31
S'C:\\Users\\Jbarrett\\Charlie\\charlie\\stimuli\\visual\\stroop\\36-Congruent.png'
g24
g24
I2090
tp140
a(g18
g19
g28
I110
g29
S'C:\\Users\\Jbarrett\\Charlie\\charlie\\stimuli\\visual\\stroop\\51-Incongruent.png'
g22
g22
I2761
tp141
a(g18
g19
g28
I111
g31
S'C:\\Users\\Jbarrett\\Charlie\\charlie\\stimuli\\visual\\stroop\\18-Congruent.png'
p142
g22
g22
I1470
tp143
asS'output_format'
p144
(lp145
(S'proband_id'
p146
c__builtin__
str
p147
tp148
a(S'test_name'
p149
g147
tp150
a(S'phase'
p151
g147
tp152
a(S'trialn'
p153
c__builtin__
int
p154
tp155
a(S'cong'
p156
g147
tp157
a(S'f'
g147
tp158
a(S'ans'
p159
g147
tp160
a(S'rsp'
p161
g147
tp162
a(S'rt'
p163
g154
tp164
asg146
g18
sS'filename'
p165
S'4368_stroop.data'
p166
sS'initialised'
p167
g8
(S'\x07\xdf\x04\x03\x0f\x05.\x065\xd8'
tRp168
sS'last_udated'
p169
g8
(S'\x07\xdf\x04\x03\x0f\x05.\x065\xd8'
tRp170
sg149
S'stroop'
p171
sS'directory'
p172
S'C:\\Users\\Jbarrett\\Charlie\\charlie\\data\\raw'
p173
sS'user_id'
p174
S'jbarrett'
p175
sS'test_started'
p176
I01
sS'abs_filename'
p177
S'C:\\Users\\Jbarrett\\Charlie\\charlie\\data\\raw\\4368_stroop.data'
p178
sS'date_started'
p179
g8
(S'\x07\xdf\x04\x03\x0f\x068\n\xcd\xa0'
tRp180
sS'log'
p181
(lp182
(S'2015-04-03 15:05:46.407000'
S'instance created'
p183
tp184
a(S'2015-04-03 15:06:56.718000'
S'instance updated'
p185
tp186
a(S'2015-04-03 15:06:56.728000'
S'pandas DataFrame of data created'
p187
tp188
a(S'2015-04-03 15:06:56.732000'
S'data saved as csv to C:\\Users\\Jbarrett\\Charlie\\charlie\\data\\csv\\4368_stroop.csv'
tp189
a(S'2015-04-03 15:06:59.902000'
g185
tp190
a(S'2015-04-03 15:06:59.912000'
g187
tp191
a(S'2015-04-03 15:06:59.915000'
S'data saved as csv to C:\\Users\\Jbarrett\\Charlie\\charlie\\data\\csv\\4368_stroop.csv'
tp192
a(S'2015-04-03 15:07:02.166000'
g185
tp193
a(S'2015-04-03 15:07:02.176000'
g187
tp194
a(S'2015-04-03 15:07:02.179000'
S'data saved as csv to C:\\Users\\Jbarrett\\Charlie\\charlie\\data\\csv\\4368_stroop.csv'
tp195
a(S'2015-04-03 15:07:04.610000'
g185
tp196
a(S'2015-04-03 15:07:04.620000'
g187
tp197
a(S'2015-04-03 15:07:04.624000'
S'data saved as csv to C:\\Users\\Jbarrett\\Charlie\\charlie\\data\\csv\\4368_stroop.csv'
tp198
a(S'2015-04-03 15:08:09.272000'
g185
tp199
a(S'2015-04-03 15:08:09.282000'
g187
tp200
a(S'2015-04-03 15:08:09.285000'
S'data saved as csv to C:\\Users\\Jbarrett\\Charlie\\charlie\\data\\csv\\4368_stroop.csv'
tp201
a(S'2015-04-03 15:08:11.257000'
g185
tp202
a(S'2015-04-03 15:08:11.267000'
g187
tp203
a(S'2015-04-03 15:08:11.271000'
S'data saved as csv to C:\\Users\\Jbarrett\\Charlie\\charlie\\data\\csv\\4368_stroop.csv'
tp204
a(S'2015-04-03 15:08:12.852000'
g185
tp205
a(S'2015-04-03 15:08:12.862000'
g187
tp206
a(S'2015-04-03 15:08:12.865000'
S'data saved as csv to C:\\Users\\Jbarrett\\Charlie\\charlie\\data\\csv\\4368_stroop.csv'
tp207
a(S'2015-04-03 15:08:14.167000'
g185
tp208
a(S'2015-04-03 15:08:14.177000'
g187
tp209
a(S'2015-04-03 15:08:14.181000'
S'data saved as csv to C:\\Users\\Jbarrett\\Charlie\\charlie\\data\\csv\\4368_stroop.csv'
tp210
a(S'2015-04-03 15:08:16.314000'
g185
tp211
a(S'2015-04-03 15:08:16.323000'
g187
tp212
a(S'2015-04-03 15:08:16.327000'
S'data saved as csv to C:\\Users\\Jbarrett\\Charlie\\charlie\\data\\csv\\4368_stroop.csv'
tp213
a(S'2015-04-03 15:08:17.916000'
g185
tp214
a(S'2015-04-03 15:08:17.926000'
g187
tp215
a(S'2015-04-03 15:08:17.930000'
S'data saved as csv to C:\\Users\\Jbarrett\\Charlie\\charlie\\data\\csv\\4368_stroop.csv'
tp216
a(S'2015-04-03 15:08:21.123000'
g185
tp217
a(S'2015-04-03 15:08:21.133000'
g187
tp218
a(S'2015-04-03 15:08:21.137000'
S'data saved as csv to C:\\Users\\Jbarrett\\Charlie\\charlie\\data\\csv\\4368_stroop.csv'
tp219
a(S'2015-04-03 15:08:22.868000'
g185
tp220
a(S'2015-04-03 15:08:22.878000'
g187
tp221
a(S'2015-04-03 15:08:22.881000'
S'data saved as csv to C:\\Users\\Jbarrett\\Charlie\\charlie\\data\\csv\\4368_stroop.csv'
tp222
a(S'2015-04-03 15:08:26.214000'
g185
tp223
a(S'2015-04-03 15:08:26.224000'
g187
tp224
a(S'2015-04-03 15:08:26.227000'
S'data saved as csv to C:\\Users\\Jbarrett\\Charlie\\charlie\\data\\csv\\4368_stroop.csv'
tp225
a(S'2015-04-03 15:08:28.868000'
g185
tp226
a(S'2015-04-03 15:08:28.878000'
g187
tp227
a(S'2015-04-03 15:08:28.881000'
S'data saved as csv to C:\\Users\\Jbarrett\\Charlie\\charlie\\data\\csv\\4368_stroop.csv'
tp228
a(S'2015-04-03 15:08:30.865000'
g185
tp229
a(S'2015-04-03 15:08:30.876000'
g187
tp230
a(S'2015-04-03 15:08:30.879000'
S'data saved as csv to C:\\Users\\Jbarrett\\Charlie\\charlie\\data\\csv\\4368_stroop.csv'
tp231
a(S'2015-04-03 15:08:32.578000'
g185
tp232
a(S'2015-04-03 15:08:32.588000'
g187
tp233
a(S'2015-04-03 15:08:32.591000'
S'data saved as csv to C:\\Users\\Jbarrett\\Charlie\\charlie\\data\\csv\\4368_stroop.csv'
tp234
a(S'2015-04-03 15:08:34.450000'
g185
tp235
a(S'2015-04-03 15:08:34.460000'
g187
tp236
a(S'2015-04-03 15:08:34.464000'
S'data saved as csv to C:\\Users\\Jbarrett\\Charlie\\charlie\\data\\csv\\4368_stroop.csv'
tp237
a(S'2015-04-03 15:09:10.697000'
g185
tp238
a(S'2015-04-03 15:09:10.707000'
g187
tp239
a(S'2015-04-03 15:09:10.711000'
S'data saved as csv to C:\\Users\\Jbarrett\\Charlie\\charlie\\data\\csv\\4368_stroop.csv'
tp240
a(S'2015-04-03 15:09:12.154000'
g185
tp241
a(S'2015-04-03 15:09:12.164000'
g187
tp242
a(S'2015-04-03 15:09:12.168000'
S'data saved as csv to C:\\Users\\Jbarrett\\Charlie\\charlie\\data\\csv\\4368_stroop.csv'
tp243
a(S'2015-04-03 15:09:15.392000'
g185
tp244
a(S'2015-04-03 15:09:15.401000'
g187
tp245
a(S'2015-04-03 15:09:15.405000'
S'data saved as csv to C:\\Users\\Jbarrett\\Charlie\\charlie\\data\\csv\\4368_stroop.csv'
tp246
a(S'2015-04-03 15:09:20.019000'
g185
tp247
a(S'2015-04-03 15:09:20.028000'
g187
tp248
a(S'2015-04-03 15:09:20.032000'
S'data saved as csv to C:\\Users\\Jbarrett\\Charlie\\charlie\\data\\csv\\4368_stroop.csv'
tp249
a(S'2015-04-03 15:09:21.745000'
g185
tp250
a(S'2015-04-03 15:09:21.755000'
g187
tp251
a(S'2015-04-03 15:09:21.759000'
S'data saved as csv to C:\\Users\\Jbarrett\\Charlie\\charlie\\data\\csv\\4368_stroop.csv'
tp252
a(S'2015-04-03 15:09:23.022000'
g185
tp253
a(S'2015-04-03 15:09:23.032000'
g187
tp254
a(S'2015-04-03 15:09:23.035000'
S'data saved as csv to C:\\Users\\Jbarrett\\Charlie\\charlie\\data\\csv\\4368_stroop.csv'
tp255
a(S'2015-04-03 15:09:25.017000'
g185
tp256
a(S'2015-04-03 15:09:25.027000'
g187
tp257
a(S'2015-04-03 15:09:25.031000'
S'data saved as csv to C:\\Users\\Jbarrett\\Charlie\\charlie\\data\\csv\\4368_stroop.csv'
tp258
a(S'2015-04-03 15:09:27.414000'
g185
tp259
a(S'2015-04-03 15:09:27.424000'
g187
tp260
a(S'2015-04-03 15:09:27.426000'
S'data saved as csv to C:\\Users\\Jbarrett\\Charlie\\charlie\\data\\csv\\4368_stroop.csv'
tp261
a(S'2015-04-03 15:09:29.798000'
g185
tp262
a(S'2015-04-03 15:09:29.808000'
g187
tp263
a(S'2015-04-03 15:09:29.812000'
S'data saved as csv to C:\\Users\\Jbarrett\\Charlie\\charlie\\data\\csv\\4368_stroop.csv'
tp264
a(S'2015-04-03 15:09:31.705000'
g185
tp265
a(S'2015-04-03 15:09:31.714000'
g187
tp266
a(S'2015-04-03 15:09:31.717000'
S'data saved as csv to C:\\Users\\Jbarrett\\Charlie\\charlie\\data\\csv\\4368_stroop.csv'
tp267
a(S'2015-04-03 15:09:33.557000'
g185
tp268
a(S'2015-04-03 15:09:33.568000'
g187
tp269
a(S'2015-04-03 15:09:33.571000'
S'data saved as csv to C:\\Users\\Jbarrett\\Charlie\\charlie\\data\\csv\\4368_stroop.csv'
tp270
a(S'2015-04-03 15:09:35.312000'
g185
tp271
a(S'2015-04-03 15:09:35.322000'
g187
tp272
a(S'2015-04-03 15:09:35.326000'
S'data saved as csv to C:\\Users\\Jbarrett\\Charlie\\charlie\\data\\csv\\4368_stroop.csv'
tp273
a(S'2015-04-03 15:09:36.899000'
g185
tp274
a(S'2015-04-03 15:09:36.910000'
g187
tp275
a(S'2015-04-03 15:09:36.913000'
S'data saved as csv to C:\\Users\\Jbarrett\\Charlie\\charlie\\data\\csv\\4368_stroop.csv'
tp276
a(S'2015-04-03 15:09:38.896000'
g185
tp277
a(S'2015-04-03 15:09:38.906000'
g187
tp278
a(S'2015-04-03 15:09:38.910000'
S'data saved as csv to C:\\Users\\Jbarrett\\Charlie\\charlie\\data\\csv\\4368_stroop.csv'
tp279
a(S'2015-04-03 15:09:42.552000'
g185
tp280
a(S'2015-04-03 15:09:42.562000'
g187
tp281
a(S'2015-04-03 15:09:42.566000'
S'data saved as csv to C:\\Users\\Jbarrett\\Charlie\\charlie\\data\\csv\\4368_stroop.csv'
tp282
a(S'2015-04-03 15:09:44.141000'
g185
tp283
a(S'2015-04-03 15:09:44.146000'
g187
tp284
a(S'2015-04-03 15:09:44.147000'
S'data saved as csv to C:\\Users\\Jbarrett\\Charlie\\charlie\\data\\csv\\4368_stroop.csv'
tp285
a(S'2015-04-03 15:09:45.677000'
g185
tp286
a(S'2015-04-03 15:09:45.687000'
g187
tp287
a(S'2015-04-03 15:09:45.691000'
S'data saved as csv to C:\\Users\\Jbarrett\\Charlie\\charlie\\data\\csv\\4368_stroop.csv'
tp288
a(S'2015-04-03 15:09:47.192000'
g185
tp289
a(S'2015-04-03 15:09:47.203000'
g187
tp290
a(S'2015-04-03 15:09:47.207000'
S'data saved as csv to C:\\Users\\Jbarrett\\Charlie\\charlie\\data\\csv\\4368_stroop.csv'
tp291
a(S'2015-04-03 15:09:50.450000'
g185
tp292
a(S'2015-04-03 15:09:50.461000'
g187
tp293
a(S'2015-04-03 15:09:50.465000'
S'data saved as csv to C:\\Users\\Jbarrett\\Charlie\\charlie\\data\\csv\\4368_stroop.csv'
tp294
a(S'2015-04-03 15:09:52.609000'
g185
tp295
a(S'2015-04-03 15:09:52.619000'
g187
tp296
a(S'2015-04-03 15:09:52.623000'
S'data saved as csv to C:\\Users\\Jbarrett\\Charlie\\charlie\\data\\csv\\4368_stroop.csv'
tp297
a(S'2015-04-03 15:09:54.123000'
g185
tp298
a(S'2015-04-03 15:09:54.133000'
g187
tp299
a(S'2015-04-03 15:09:54.137000'
S'data saved as csv to C:\\Users\\Jbarrett\\Charlie\\charlie\\data\\csv\\4368_stroop.csv'
tp300
a(S'2015-04-03 15:09:55.710000'
g185
tp301
a(S'2015-04-03 15:09:55.720000'
g187
tp302
a(S'2015-04-03 15:09:55.724000'
S'data saved as csv to C:\\Users\\Jbarrett\\Charlie\\charlie\\data\\csv\\4368_stroop.csv'
tp303
a(S'2015-04-03 15:09:57.427000'
g185
tp304
a(S'2015-04-03 15:09:57.437000'
g187
tp305
a(S'2015-04-03 15:09:57.441000'
S'data saved as csv to C:\\Users\\Jbarrett\\Charlie\\charlie\\data\\csv\\4368_stroop.csv'
tp306
a(S'2015-04-03 15:10:00.104000'
g185
tp307
a(S'2015-04-03 15:10:00.114000'
g187
tp308
a(S'2015-04-03 15:10:00.118000'
S'data saved as csv to C:\\Users\\Jbarrett\\Charlie\\charlie\\data\\csv\\4368_stroop.csv'
tp309
a(S'2015-04-03 15:10:02.181000'
g185
tp310
a(S'2015-04-03 15:10:02.192000'
g187
tp311
a(S'2015-04-03 15:10:02.194000'
S'data saved as csv to C:\\Users\\Jbarrett\\Charlie\\charlie\\data\\csv\\4368_stroop.csv'
tp312
a(S'2015-04-03 15:10:04.014000'
g185
tp313
a(S'2015-04-03 15:10:04.023000'
g187
tp314
a(S'2015-04-03 15:10:04.025000'
S'data saved as csv to C:\\Users\\Jbarrett\\Charlie\\charlie\\data\\csv\\4368_stroop.csv'
tp315
a(S'2015-04-03 15:10:05.746000'
g185
tp316
a(S'2015-04-03 15:10:05.756000'
g187
tp317
a(S'2015-04-03 15:10:05.760000'
S'data saved as csv to C:\\Users\\Jbarrett\\Charlie\\charlie\\data\\csv\\4368_stroop.csv'
tp318
a(S'2015-04-03 15:10:07.423000'
g185
tp319
a(S'2015-04-03 15:10:07.433000'
g187
tp320
a(S'2015-04-03 15:10:07.437000'
S'data saved as csv to C:\\Users\\Jbarrett\\Charlie\\charlie\\data\\csv\\4368_stroop.csv'
tp321
a(S'2015-04-03 15:10:10.280000'
g185
tp322
a(S'2015-04-03 15:10:10.290000'
g187
tp323
a(S'2015-04-03 15:10:10.293000'
S'data saved as csv to C:\\Users\\Jbarrett\\Charlie\\charlie\\data\\csv\\4368_stroop.csv'
tp324
a(S'2015-04-03 15:10:12.465000'
g185
tp325
a(S'2015-04-03 15:10:12.475000'
g187
tp326
a(S'2015-04-03 15:10:12.480000'
S'data saved as csv to C:\\Users\\Jbarrett\\Charlie\\charlie\\data\\csv\\4368_stroop.csv'
tp327
a(S'2015-04-03 15:10:14.584000'
g185
tp328
a(S'2015-04-03 15:10:14.595000'
g187
tp329
a(S'2015-04-03 15:10:14.599000'
S'data saved as csv to C:\\Users\\Jbarrett\\Charlie\\charlie\\data\\csv\\4368_stroop.csv'
tp330
a(S'2015-04-03 15:10:17.053000'
g185
tp331
a(S'2015-04-03 15:10:17.063000'
g187
tp332
a(S'2015-04-03 15:10:17.068000'
S'data saved as csv to C:\\Users\\Jbarrett\\Charlie\\charlie\\data\\csv\\4368_stroop.csv'
tp333
a(S'2015-04-03 15:10:20.410000'
g185
tp334
a(S'2015-04-03 15:10:20.420000'
g187
tp335
a(S'2015-04-03 15:10:20.424000'
S'data saved as csv to C:\\Users\\Jbarrett\\Charlie\\charlie\\data\\csv\\4368_stroop.csv'
tp336
a(S'2015-04-03 15:10:22.438000'
g185
tp337
a(S'2015-04-03 15:10:22.449000'
g187
tp338
a(S'2015-04-03 15:10:22.453000'
S'data saved as csv to C:\\Users\\Jbarrett\\Charlie\\charlie\\data\\csv\\4368_stroop.csv'
tp339
a(S'2015-04-03 15:10:25.117000'
g185
tp340
a(S'2015-04-03 15:10:25.127000'
g187
tp341
a(S'2015-04-03 15:10:25.131000'
S'data saved as csv to C:\\Users\\Jbarrett\\Charlie\\charlie\\data\\csv\\4368_stroop.csv'
tp342
a(S'2015-04-03 15:10:26.934000'
g185
tp343
a(S'2015-04-03 15:10:26.943000'
g187
tp344
a(S'2015-04-03 15:10:26.945000'
S'data saved as csv to C:\\Users\\Jbarrett\\Charlie\\charlie\\data\\csv\\4368_stroop.csv'
tp345
a(S'2015-04-03 15:10:29.497000'
g185
tp346
a(S'2015-04-03 15:10:29.508000'
g187
tp347
a(S'2015-04-03 15:10:29.512000'
S'data saved as csv to C:\\Users\\Jbarrett\\Charlie\\charlie\\data\\csv\\4368_stroop.csv'
tp348
a(S'2015-04-03 15:10:31.365000'
g185
tp349
a(S'2015-04-03 15:10:31.376000'
g187
tp350
a(S'2015-04-03 15:10:31.380000'
S'data saved as csv to C:\\Users\\Jbarrett\\Charlie\\charlie\\data\\csv\\4368_stroop.csv'
tp351
a(S'2015-04-03 15:10:32.662000'
g185
tp352
a(S'2015-04-03 15:10:32.672000'
g187
tp353
a(S'2015-04-03 15:10:32.674000'
S'data saved as csv to C:\\Users\\Jbarrett\\Charlie\\charlie\\data\\csv\\4368_stroop.csv'
tp354
a(S'2015-04-03 15:10:34.475000'
g185
tp355
a(S'2015-04-03 15:10:34.485000'
g187
tp356
a(S'2015-04-03 15:10:34.489000'
S'data saved as csv to C:\\Users\\Jbarrett\\Charlie\\charlie\\data\\csv\\4368_stroop.csv'
tp357
a(S'2015-04-03 15:10:36.513000'
g185
tp358
a(S'2015-04-03 15:10:36.524000'
g187
tp359
a(S'2015-04-03 15:10:36.528000'
S'data saved as csv to C:\\Users\\Jbarrett\\Charlie\\charlie\\data\\csv\\4368_stroop.csv'
tp360
a(S'2015-04-03 15:10:38.372000'
g185
tp361
a(S'2015-04-03 15:10:38.382000'
g187
tp362
a(S'2015-04-03 15:10:38.386000'
S'data saved as csv to C:\\Users\\Jbarrett\\Charlie\\charlie\\data\\csv\\4368_stroop.csv'
tp363
a(S'2015-04-03 15:10:40.230000'
g185
tp364
a(S'2015-04-03 15:10:40.240000'
g187
tp365
a(S'2015-04-03 15:10:40.244000'
S'data saved as csv to C:\\Users\\Jbarrett\\Charlie\\charlie\\data\\csv\\4368_stroop.csv'
tp366
a(S'2015-04-03 15:10:42.359000'
g185
tp367
a(S'2015-04-03 15:10:42.370000'
g187
tp368
a(S'2015-04-03 15:10:42.374000'
S'data saved as csv to C:\\Users\\Jbarrett\\Charlie\\charlie\\data\\csv\\4368_stroop.csv'
tp369
a(S'2015-04-03 15:10:44.278000'
g185
tp370
a(S'2015-04-03 15:10:44.288000'
g187
tp371
a(S'2015-04-03 15:10:44.292000'
S'data saved as csv to C:\\Users\\Jbarrett\\Charlie\\charlie\\data\\csv\\4368_stroop.csv'
tp372
a(S'2015-04-03 15:10:45.726000'
g185
tp373
a(S'2015-04-03 15:10:45.737000'
g187
tp374
a(S'2015-04-03 15:10:45.741000'
S'data saved as csv to C:\\Users\\Jbarrett\\Charlie\\charlie\\data\\csv\\4368_stroop.csv'
tp375
a(S'2015-04-03 15:10:47.171000'
g185
tp376
a(S'2015-04-03 15:10:47.176000'
g187
tp377
a(S'2015-04-03 15:10:47.177000'
S'data saved as csv to C:\\Users\\Jbarrett\\Charlie\\charlie\\data\\csv\\4368_stroop.csv'
tp378
a(S'2015-04-03 15:10:48.878000'
g185
tp379
a(S'2015-04-03 15:10:48.888000'
g187
tp380
a(S'2015-04-03 15:10:48.893000'
S'data saved as csv to C:\\Users\\Jbarrett\\Charlie\\charlie\\data\\csv\\4368_stroop.csv'
tp381
a(S'2015-04-03 15:10:50.697000'
g185
tp382
a(S'2015-04-03 15:10:50.708000'
g187
tp383
a(S'2015-04-03 15:10:50.712000'
S'data saved as csv to C:\\Users\\Jbarrett\\Charlie\\charlie\\data\\csv\\4368_stroop.csv'
tp384
a(S'2015-04-03 15:10:52.987000'
g185
tp385
a(S'2015-04-03 15:10:52.998000'
g187
tp386
a(S'2015-04-03 15:10:53.002000'
S'data saved as csv to C:\\Users\\Jbarrett\\Charlie\\charlie\\data\\csv\\4368_stroop.csv'
tp387
a(S'2015-04-03 15:10:55.657000'
g185
tp388
a(S'2015-04-03 15:10:55.668000'
g187
tp389
a(S'2015-04-03 15:10:55.672000'
S'data saved as csv to C:\\Users\\Jbarrett\\Charlie\\charlie\\data\\csv\\4368_stroop.csv'
tp390
a(S'2015-04-03 15:10:58.877000'
g185
tp391
a(S'2015-04-03 15:10:58.888000'
g187
tp392
a(S'2015-04-03 15:10:58.891000'
S'data saved as csv to C:\\Users\\Jbarrett\\Charlie\\charlie\\data\\csv\\4368_stroop.csv'
tp393
a(S'2015-04-03 15:11:01.233000'
g185
tp394
a(S'2015-04-03 15:11:01.244000'
g187
tp395
a(S'2015-04-03 15:11:01.249000'
S'data saved as csv to C:\\Users\\Jbarrett\\Charlie\\charlie\\data\\csv\\4368_stroop.csv'
tp396
a(S'2015-04-03 15:11:03.262000'
g185
tp397
a(S'2015-04-03 15:11:03.273000'
g187
tp398
a(S'2015-04-03 15:11:03.278000'
S'data saved as csv to C:\\Users\\Jbarrett\\Charlie\\charlie\\data\\csv\\4368_stroop.csv'
tp399
a(S'2015-04-03 15:11:05.731000'
g185
tp400
a(S'2015-04-03 15:11:05.742000'
g187
tp401
a(S'2015-04-03 15:11:05.746000'
S'data saved as csv to C:\\Users\\Jbarrett\\Charlie\\charlie\\data\\csv\\4368_stroop.csv'
tp402
a(S'2015-04-03 15:11:08.031000'
g185
tp403
a(S'2015-04-03 15:11:08.040000'
g187
tp404
a(S'2015-04-03 15:11:08.043000'
S'data saved as csv to C:\\Users\\Jbarrett\\Charlie\\charlie\\data\\csv\\4368_stroop.csv'
tp405
a(S'2015-04-03 15:11:09.964000'
g185
tp406
a(S'2015-04-03 15:11:09.975000'
g187
tp407
a(S'2015-04-03 15:11:09.979000'
S'data saved as csv to C:\\Users\\Jbarrett\\Charlie\\charlie\\data\\csv\\4368_stroop.csv'
tp408
a(S'2015-04-03 15:11:12.794000'
g185
tp409
a(S'2015-04-03 15:11:12.805000'
g187
tp410
a(S'2015-04-03 15:11:12.810000'
S'data saved as csv to C:\\Users\\Jbarrett\\Charlie\\charlie\\data\\csv\\4368_stroop.csv'
tp411
a(S'2015-04-03 15:11:14.885000'
g185
tp412
a(S'2015-04-03 15:11:14.895000'
g187
tp413
a(S'2015-04-03 15:11:14.900000'
S'data saved as csv to C:\\Users\\Jbarrett\\Charlie\\charlie\\data\\csv\\4368_stroop.csv'
tp414
a(S'2015-04-03 15:11:16.734000'
g185
tp415
a(S'2015-04-03 15:11:16.745000'
g187
tp416
a(S'2015-04-03 15:11:16.750000'
S'data saved as csv to C:\\Users\\Jbarrett\\Charlie\\charlie\\data\\csv\\4368_stroop.csv'
tp417
a(S'2015-04-03 15:11:18.814000'
g185
tp418
a(S'2015-04-03 15:11:18.825000'
g187
tp419
a(S'2015-04-03 15:11:18.830000'
S'data saved as csv to C:\\Users\\Jbarrett\\Charlie\\charlie\\data\\csv\\4368_stroop.csv'
tp420
a(S'2015-04-03 15:11:21.135000'
g185
tp421
a(S'2015-04-03 15:11:21.147000'
g187
tp422
a(S'2015-04-03 15:11:21.150000'
S'data saved as csv to C:\\Users\\Jbarrett\\Charlie\\charlie\\data\\csv\\4368_stroop.csv'
tp423
a(S'2015-04-03 15:11:23.792000'
g185
tp424
a(S'2015-04-03 15:11:23.803000'
g187
tp425
a(S'2015-04-03 15:11:23.807000'
S'data saved as csv to C:\\Users\\Jbarrett\\Charlie\\charlie\\data\\csv\\4368_stroop.csv'
tp426
a(S'2015-04-03 15:11:27.172000'
g185
tp427
a(S'2015-04-03 15:11:27.183000'
g187
tp428
a(S'2015-04-03 15:11:27.188000'
S'data saved as csv to C:\\Users\\Jbarrett\\Charlie\\charlie\\data\\csv\\4368_stroop.csv'
tp429
a(S'2015-04-03 15:11:29.011000'
g185
tp430
a(S'2015-04-03 15:11:29.022000'
g187
tp431
a(S'2015-04-03 15:11:29.027000'
S'data saved as csv to C:\\Users\\Jbarrett\\Charlie\\charlie\\data\\csv\\4368_stroop.csv'
tp432
a(S'2015-04-03 15:11:32.562000'
g185
tp433
a(S'2015-04-03 15:11:32.574000'
g187
tp434
a(S'2015-04-03 15:11:32.577000'
S'data saved as csv to C:\\Users\\Jbarrett\\Charlie\\charlie\\data\\csv\\4368_stroop.csv'
tp435
a(S'2015-04-03 15:11:35.020000'
g185
tp436
a(S'2015-04-03 15:11:35.031000'
g187
tp437
a(S'2015-04-03 15:11:35.035000'
S'data saved as csv to C:\\Users\\Jbarrett\\Charlie\\charlie\\data\\csv\\4368_stroop.csv'
tp438
a(S'2015-04-03 15:11:36.377000'
g185
tp439
a(S'2015-04-03 15:11:36.387000'
g187
tp440
a(S'2015-04-03 15:11:36.390000'
S'data saved as csv to C:\\Users\\Jbarrett\\Charlie\\charlie\\data\\csv\\4368_stroop.csv'
tp441
a(S'2015-04-03 15:11:37.911000'
g185
tp442
a(S'2015-04-03 15:11:37.920000'
g187
tp443
a(S'2015-04-03 15:11:37.922000'
S'data saved as csv to C:\\Users\\Jbarrett\\Charlie\\charlie\\data\\csv\\4368_stroop.csv'
tp444
a(S'2015-04-03 15:11:40.166000'
g185
tp445
a(S'2015-04-03 15:11:40.176000'
g187
tp446
a(S'2015-04-03 15:11:40.181000'
S'data saved as csv to C:\\Users\\Jbarrett\\Charlie\\charlie\\data\\csv\\4368_stroop.csv'
tp447
a(S'2015-04-03 15:11:43.537000'
g185
tp448
a(S'2015-04-03 15:11:43.547000'
g187
tp449
a(S'2015-04-03 15:11:43.552000'
S'data saved as csv to C:\\Users\\Jbarrett\\Charlie\\charlie\\data\\csv\\4368_stroop.csv'
tp450
a(S'2015-04-03 15:11:45.115000'
g185
tp451
a(S'2015-04-03 15:11:45.127000'
g187
tp452
a(S'2015-04-03 15:11:45.132000'
S'data saved as csv to C:\\Users\\Jbarrett\\Charlie\\charlie\\data\\csv\\4368_stroop.csv'
tp453
a(S'2015-04-03 15:11:46.825000'
g185
tp454
a(S'2015-04-03 15:11:46.836000'
g187
tp455
a(S'2015-04-03 15:11:46.841000'
S'data saved as csv to C:\\Users\\Jbarrett\\Charlie\\charlie\\data\\csv\\4368_stroop.csv'
tp456
a(S'2015-04-03 15:11:48.765000'
g185
tp457
a(S'2015-04-03 15:11:48.776000'
g187
tp458
a(S'2015-04-03 15:11:48.781000'
S'data saved as csv to C:\\Users\\Jbarrett\\Charlie\\charlie\\data\\csv\\4368_stroop.csv'
tp459
a(S'2015-04-03 15:11:50.416000'
g185
tp460
a(S'2015-04-03 15:11:50.426000'
g187
tp461
a(S'2015-04-03 15:11:50.429000'
S'data saved as csv to C:\\Users\\Jbarrett\\Charlie\\charlie\\data\\csv\\4368_stroop.csv'
tp462
a(S'2015-04-03 15:11:52.891000'
g185
tp463
a(S'2015-04-03 15:11:52.903000'
g187
tp464
a(S'2015-04-03 15:11:52.907000'
S'data saved as csv to C:\\Users\\Jbarrett\\Charlie\\charlie\\data\\csv\\4368_stroop.csv'
tp465
a(S'2015-04-03 15:11:54.842000'
g185
tp466
a(S'2015-04-03 15:11:54.853000'
g187
tp467
a(S'2015-04-03 15:11:54.858000'
S'data saved as csv to C:\\Users\\Jbarrett\\Charlie\\charlie\\data\\csv\\4368_stroop.csv'
tp468
a(S'2015-04-03 15:11:56.701000'
g185
tp469
a(S'2015-04-03 15:11:56.713000'
g187
tp470
a(S'2015-04-03 15:11:56.718000'
S'data saved as csv to C:\\Users\\Jbarrett\\Charlie\\charlie\\data\\csv\\4368_stroop.csv'
tp471
a(S'2015-04-03 15:11:59.133000'
g185
tp472
a(S'2015-04-03 15:11:59.144000'
g187
tp473
a(S'2015-04-03 15:11:59.149000'
S'data saved as csv to C:\\Users\\Jbarrett\\Charlie\\charlie\\data\\csv\\4368_stroop.csv'
tp474
a(S'2015-04-03 15:12:00.964000'
g185
tp475
a(S'2015-04-03 15:12:00.975000'
g187
tp476
a(S'2015-04-03 15:12:00.980000'
S'data saved as csv to C:\\Users\\Jbarrett\\Charlie\\charlie\\data\\csv\\4368_stroop.csv'
tp477
a(S'2015-04-03 15:12:04.735000'
g185
tp478
a(S'2015-04-03 15:12:04.746000'
g187
tp479
a(S'2015-04-03 15:12:04.751000'
S'data saved as csv to C:\\Users\\Jbarrett\\Charlie\\charlie\\data\\csv\\4368_stroop.csv'
tp480
a(S'2015-04-03 15:12:07.076000'
g185
tp481
a(S'2015-04-03 15:12:07.087000'
g187
tp482
a(S'2015-04-03 15:12:07.093000'
S'data saved as csv to C:\\Users\\Jbarrett\\Charlie\\charlie\\data\\csv\\4368_stroop.csv'
tp483
a(S'2015-04-03 15:12:09.988000'
g185
tp484
a(S'2015-04-03 15:12:09.999000'
g187
tp485
a(S'2015-04-03 15:12:10.004000'
S'data saved as csv to C:\\Users\\Jbarrett\\Charlie\\charlie\\data\\csv\\4368_stroop.csv'
tp486
a(S'2015-04-03 15:12:11.697000'
g185
tp487
a(S'2015-04-03 15:12:11.708000'
g187
tp488
a(S'2015-04-03 15:12:11.713000'
S'data saved as csv to C:\\Users\\Jbarrett\\Charlie\\charlie\\data\\csv\\4368_stroop.csv'
tp489
a(S'2015-04-03 15:12:13.618000'
g185
tp490
a(S'2015-04-03 15:12:13.629000'
g187
tp491
a(S'2015-04-03 15:12:13.634000'
S'data saved as csv to C:\\Users\\Jbarrett\\Charlie\\charlie\\data\\csv\\4368_stroop.csv'
tp492
a(S'2015-04-03 15:12:15.329000'
g185
tp493
a(S'2015-04-03 15:12:15.340000'
g187
tp494
a(S'2015-04-03 15:12:15.345000'
S'data saved as csv to C:\\Users\\Jbarrett\\Charlie\\charlie\\data\\csv\\4368_stroop.csv'
tp495
a(S'2015-04-03 15:12:16.970000'
g185
tp496
a(S'2015-04-03 15:12:16.979000'
g187
tp497
a(S'2015-04-03 15:12:16.982000'
S'data saved as csv to C:\\Users\\Jbarrett\\Charlie\\charlie\\data\\csv\\4368_stroop.csv'
tp498
a(S'2015-04-03 15:12:18.695000'
g185
tp499
a(S'2015-04-03 15:12:18.706000'
g187
tp500
a(S'2015-04-03 15:12:18.711000'
S'data saved as csv to C:\\Users\\Jbarrett\\Charlie\\charlie\\data\\csv\\4368_stroop.csv'
tp501
a(S'2015-04-03 15:12:20.605000'
g185
tp502
a(S'2015-04-03 15:12:20.617000'
g187
tp503
a(S'2015-04-03 15:12:20.622000'
S'data saved as csv to C:\\Users\\Jbarrett\\Charlie\\charlie\\data\\csv\\4368_stroop.csv'
tp504
a(S'2015-04-03 15:12:23.808000'
g185
tp505
a(S'2015-04-03 15:12:23.817000'
g187
tp506
a(S'2015-04-03 15:12:23.821000'
S'data saved as csv to C:\\Users\\Jbarrett\\Charlie\\charlie\\data\\csv\\4368_stroop.csv'
tp507
a(S'2015-04-03 15:12:27.264000'
g185
tp508
a(S'2015-04-03 15:12:27.276000'
g187
tp509
a(S'2015-04-03 15:12:27.280000'
S'data saved as csv to C:\\Users\\Jbarrett\\Charlie\\charlie\\data\\csv\\4368_stroop.csv'
tp510
a(S'2015-04-03 15:12:29.336000'
g185
tp511
a(S'2015-04-03 15:12:29.347000'
g187
tp512
a(S'2015-04-03 15:12:29.352000'
S'data saved as csv to C:\\Users\\Jbarrett\\Charlie\\charlie\\data\\csv\\4368_stroop.csv'
tp513
a(S'2015-04-03 15:12:31.518000'
g185
tp514
a(S'2015-04-03 15:12:31.529000'
g187
tp515
a(S'2015-04-03 15:12:31.534000'
S'data saved as csv to C:\\Users\\Jbarrett\\Charlie\\charlie\\data\\csv\\4368_stroop.csv'
tp516
a(S'2015-04-03 15:12:35.579000'
g185
tp517
a(S'2015-04-03 15:12:35.589000'
g187
tp518
a(S'2015-04-03 15:12:35.593000'
S'data saved as csv to C:\\Users\\Jbarrett\\Charlie\\charlie\\data\\csv\\4368_stroop.csv'
tp519
a(S'2015-04-03 15:12:38.298000'
g185
tp520
a(S'2015-04-03 15:12:38.307000'
g187
tp521
a(S'2015-04-03 15:12:38.311000'
S'data saved as csv to C:\\Users\\Jbarrett\\Charlie\\charlie\\data\\csv\\4368_stroop.csv'
tp522
a(S'2015-04-03 15:12:40.133000'
g185
tp523
a(S'2015-04-03 15:12:40.145000'
g187
tp524
a(S'2015-04-03 15:12:40.150000'
S'data saved as csv to C:\\Users\\Jbarrett\\Charlie\\charlie\\data\\csv\\4368_stroop.csv'
tp525
a(S'2015-04-03 15:12:42.376000'
g185
tp526
a(S'2015-04-03 15:12:42.388000'
g187
tp527
a(S'2015-04-03 15:12:42.393000'
S'data saved as csv to C:\\Users\\Jbarrett\\Charlie\\charlie\\data\\csv\\4368_stroop.csv'
tp528
a(S'2015-04-03 15:12:45.290000'
g185
tp529
a(S'2015-04-03 15:12:45.302000'
g187
tp530
a(S'2015-04-03 15:12:45.307000'
S'data saved as csv to C:\\Users\\Jbarrett\\Charlie\\charlie\\data\\csv\\4368_stroop.csv'
tp531
a(S'2015-04-03 15:12:46.912000'
g185
tp532
a(S'2015-04-03 15:12:46.923000'
g187
tp533
a(S'2015-04-03 15:12:46.928000'
S'data saved as csv to C:\\Users\\Jbarrett\\Charlie\\charlie\\data\\csv\\4368_stroop.csv'
tp534
asb.