(icharlie.tools.data
Data
p1
(dp2
S'lang'
p3
S'EN'
p4
sS'control'
p5
(lp6
sS'last_updated'
p7
cdatetime
datetime
p8
(S'\x07\xdf\x04\x03\x0f\x15\x07\x07?x'
tRp9
sS'last_opened'
p10
g8
(S'\x07\xdf\x04\x03\x0f\x113\x00\xf20'
tRp11
sS'proj_id'
p12
S'connectivity'
p13
sS'date_done'
p14
NsS'test_done'
p15
I01
sS'data'
p16
(lp17
(S'4368'
p18
S'face_memory_delay'
p19
S'test'
p20
I0
S'C:\\Users\\Jbarrett\\Charlie\\charlie\\stimuli\\visual\\face_memory_delay\\ddis10.bmp'
S'No'
p21
g21
I21371
tp22
a(g18
g19
g20
I1
S'C:\\Users\\Jbarrett\\Charlie\\charlie\\stimuli\\visual\\face_memory_delay\\ddis04.bmp'
g21
g21
I7010
tp23
a(g18
g19
g20
I2
S'C:\\Users\\Jbarrett\\Charlie\\charlie\\stimuli\\visual\\face_memory_delay\\tar07.bmp'
S'Yes'
p24
g24
I2080
tp25
a(g18
g19
g20
I3
S'C:\\Users\\Jbarrett\\Charlie\\charlie\\stimuli\\visual\\face_memory_delay\\tar18.bmp'
g24
g24
I3030
tp26
a(g18
g19
g20
I4
S'C:\\Users\\Jbarrett\\Charlie\\charlie\\stimuli\\visual\\face_memory_delay\\ddis14.bmp'
g21
g21
I4501
tp27
a(g18
g19
g20
I5
S'C:\\Users\\Jbarrett\\Charlie\\charlie\\stimuli\\visual\\face_memory_delay\\tar19.bmp'
g24
g24
I2660
tp28
a(g18
g19
g20
I6
S'C:\\Users\\Jbarrett\\Charlie\\charlie\\stimuli\\visual\\face_memory_delay\\ddis13.bmp'
g21
g24
I4520
tp29
a(g18
g19
g20
I7
S'C:\\Users\\Jbarrett\\Charlie\\charlie\\stimuli\\visual\\face_memory_delay\\tar15.bmp'
g24
g21
I10191
tp30
a(g18
g19
g20
I8
S'C:\\Users\\Jbarrett\\Charlie\\charlie\\stimuli\\visual\\face_memory_delay\\tar11.bmp'
g24
g21
I2170
tp31
a(g18
g19
g20
I9
S'C:\\Users\\Jbarrett\\Charlie\\charlie\\stimuli\\visual\\face_memory_delay\\ddis05.bmp'
g21
g24
I3500
tp32
a(g18
g19
g20
I10
S'C:\\Users\\Jbarrett\\Charlie\\charlie\\stimuli\\visual\\face_memory_delay\\ddis01.bmp'
g21
g21
I6020
tp33
a(g18
g19
g20
I11
S'C:\\Users\\Jbarrett\\Charlie\\charlie\\stimuli\\visual\\face_memory_delay\\ddis16.bmp'
g21
g24
I5121
tp34
a(g18
g19
g20
I12
S'C:\\Users\\Jbarrett\\Charlie\\charlie\\stimuli\\visual\\face_memory_delay\\tar02.bmp'
g24
g24
I5590
tp35
a(g18
g19
g20
I13
S'C:\\Users\\Jbarrett\\Charlie\\charlie\\stimuli\\visual\\face_memory_delay\\tar08.bmp'
g24
g24
I5080
tp36
a(g18
g19
g20
I14
S'C:\\Users\\Jbarrett\\Charlie\\charlie\\stimuli\\visual\\face_memory_delay\\tar13.bmp'
g24
g24
I2410
tp37
a(g18
g19
g20
I15
S'C:\\Users\\Jbarrett\\Charlie\\charlie\\stimuli\\visual\\face_memory_delay\\tar20.bmp'
g24
g21
I2920
tp38
a(g18
g19
g20
I16
S'C:\\Users\\Jbarrett\\Charlie\\charlie\\stimuli\\visual\\face_memory_delay\\ddis18.bmp'
g21
g24
I3020
tp39
a(g18
g19
g20
I17
S'C:\\Users\\Jbarrett\\Charlie\\charlie\\stimuli\\visual\\face_memory_delay\\tar06.bmp'
g24
g21
I4730
tp40
a(g18
g19
g20
I18
S'C:\\Users\\Jbarrett\\Charlie\\charlie\\stimuli\\visual\\face_memory_delay\\ddis07.bmp'
g21
g21
I3260
tp41
a(g18
g19
g20
I19
S'C:\\Users\\Jbarrett\\Charlie\\charlie\\stimuli\\visual\\face_memory_delay\\ddis08.bmp'
g21
g21
I4621
tp42
a(g18
g19
g20
I20
S'C:\\Users\\Jbarrett\\Charlie\\charlie\\stimuli\\visual\\face_memory_delay\\tar12.bmp'
g24
g21
I4900
tp43
a(g18
g19
g20
I21
S'C:\\Users\\Jbarrett\\Charlie\\charlie\\stimuli\\visual\\face_memory_delay\\ddis17.bmp'
g21
g21
I3320
tp44
a(g18
g19
g20
I22
S'C:\\Users\\Jbarrett\\Charlie\\charlie\\stimuli\\visual\\face_memory_delay\\tar05.bmp'
g24
g21
I2980
tp45
a(g18
g19
g20
I23
S'C:\\Users\\Jbarrett\\Charlie\\charlie\\stimuli\\visual\\face_memory_delay\\tar10.bmp'
g24
g21
I1950
tp46
a(g18
g19
g20
I24
S'C:\\Users\\Jbarrett\\Charlie\\charlie\\stimuli\\visual\\face_memory_delay\\ddis02.bmp'
g21
g21
I1870
tp47
a(g18
g19
g20
I25
S'C:\\Users\\Jbarrett\\Charlie\\charlie\\stimuli\\visual\\face_memory_delay\\ddis20.bmp'
g21
g21
I1790
tp48
a(g18
g19
g20
I26
S'C:\\Users\\Jbarrett\\Charlie\\charlie\\stimuli\\visual\\face_memory_delay\\tar17.bmp'
g24
g21
I3180
tp49
a(g18
g19
g20
I27
S'C:\\Users\\Jbarrett\\Charlie\\charlie\\stimuli\\visual\\face_memory_delay\\ddis15.bmp'
g21
g21
I1830
tp50
a(g18
g19
g20
I28
S'C:\\Users\\Jbarrett\\Charlie\\charlie\\stimuli\\visual\\face_memory_delay\\tar03.bmp'
g24
g21
I1910
tp51
a(g18
g19
g20
I29
S'C:\\Users\\Jbarrett\\Charlie\\charlie\\stimuli\\visual\\face_memory_delay\\ddis19.bmp'
g21
g21
I2170
tp52
a(g18
g19
g20
I30
S'C:\\Users\\Jbarrett\\Charlie\\charlie\\stimuli\\visual\\face_memory_delay\\ddis12.bmp'
g21
g21
I3080
tp53
a(g18
g19
g20
I31
S'C:\\Users\\Jbarrett\\Charlie\\charlie\\stimuli\\visual\\face_memory_delay\\tar16.bmp'
g24
g21
I1310
tp54
a(g18
g19
g20
I32
S'C:\\Users\\Jbarrett\\Charlie\\charlie\\stimuli\\visual\\face_memory_delay\\tar09.bmp'
g24
g21
I1851
tp55
a(g18
g19
g20
I33
S'C:\\Users\\Jbarrett\\Charlie\\charlie\\stimuli\\visual\\face_memory_delay\\ddis09.bmp'
g21
g21
I1970
tp56
a(g18
g19
g20
I34
S'C:\\Users\\Jbarrett\\Charlie\\charlie\\stimuli\\visual\\face_memory_delay\\tar01.bmp'
g24
g24
I3400
tp57
a(g18
g19
g20
I35
S'C:\\Users\\Jbarrett\\Charlie\\charlie\\stimuli\\visual\\face_memory_delay\\ddis11.bmp'
g21
g21
I3600
tp58
a(g18
g19
g20
I36
S'C:\\Users\\Jbarrett\\Charlie\\charlie\\stimuli\\visual\\face_memory_delay\\ddis03.bmp'
g21
g21
I4740
tp59
a(g18
g19
g20
I37
S'C:\\Users\\Jbarrett\\Charlie\\charlie\\stimuli\\visual\\face_memory_delay\\tar04.bmp'
g24
g21
I7671
tp60
a(g18
g19
g20
I38
S'C:\\Users\\Jbarrett\\Charlie\\charlie\\stimuli\\visual\\face_memory_delay\\tar14.bmp'
g24
g21
I4620
tp61
a(g18
g19
g20
I39
S'C:\\Users\\Jbarrett\\Charlie\\charlie\\stimuli\\visual\\face_memory_delay\\ddis06.bmp'
p62
g21
g21
I2870
tp63
asS'output_format'
p64
(lp65
(S'proband_id'
p66
c__builtin__
str
p67
tp68
a(S'test_name'
p69
g67
tp70
a(S'phase'
p71
g67
tp72
a(S'trialn'
p73
c__builtin__
int
p74
tp75
a(S'f'
g67
tp76
a(S'ans'
p77
g67
tp78
a(S'rsp'
p79
g67
tp80
a(S'rt'
p81
g74
tp82
asg66
g18
sS'filename'
p83
S'4368_face_memory_delay.data'
p84
sS'initialised'
p85
g8
(S'\x07\xdf\x04\x03\x0f\x113\x00\xf20'
tRp86
sS'last_udated'
p87
g8
(S'\x07\xdf\x04\x03\x0f\x113\x00\xf20'
tRp88
sg69
S'face_memory_delay'
p89
sS'directory'
p90
S'C:\\Users\\Jbarrett\\Charlie\\charlie\\data\\raw'
p91
sS'user_id'
p92
S'jbarrett'
p93
sS'test_started'
p94
I01
sS'abs_filename'
p95
S'C:\\Users\\Jbarrett\\Charlie\\charlie\\data\\raw\\4368_face_memory_delay.data'
p96
sS'date_started'
p97
g8
(S'\x07\xdf\x04\x03\x0f\x12&\x07(\x08'
tRp98
sS'log'
p99
(lp100
(S'2015-04-03 15:17:51.062000'
S'instance created'
p101
tp102
a(S'2015-04-03 15:18:38.478000'
S'instance updated'
p103
tp104
a(S'2015-04-03 15:18:38.486000'
S'pandas DataFrame of data created'
p105
tp106
a(S'2015-04-03 15:18:38.490000'
S'data saved as csv to C:\\Users\\Jbarrett\\Charlie\\charlie\\data\\csv\\4368_face_memory_delay.csv'
tp107
a(S'2015-04-03 15:18:45.628000'
g103
tp108
a(S'2015-04-03 15:18:45.638000'
g105
tp109
a(S'2015-04-03 15:18:45.641000'
S'data saved as csv to C:\\Users\\Jbarrett\\Charlie\\charlie\\data\\csv\\4368_face_memory_delay.csv'
tp110
a(S'2015-04-03 15:18:47.851000'
g103
tp111
a(S'2015-04-03 15:18:47.860000'
g105
tp112
a(S'2015-04-03 15:18:47.863000'
S'data saved as csv to C:\\Users\\Jbarrett\\Charlie\\charlie\\data\\csv\\4368_face_memory_delay.csv'
tp113
a(S'2015-04-03 15:18:51.022000'
g103
tp114
a(S'2015-04-03 15:18:51.031000'
g105
tp115
a(S'2015-04-03 15:18:51.035000'
S'data saved as csv to C:\\Users\\Jbarrett\\Charlie\\charlie\\data\\csv\\4368_face_memory_delay.csv'
tp116
a(S'2015-04-03 15:18:55.664000'
g103
tp117
a(S'2015-04-03 15:18:55.673000'
g105
tp118
a(S'2015-04-03 15:18:55.677000'
S'data saved as csv to C:\\Users\\Jbarrett\\Charlie\\charlie\\data\\csv\\4368_face_memory_delay.csv'
tp119
a(S'2015-04-03 15:18:58.466000'
g103
tp120
a(S'2015-04-03 15:18:58.476000'
g105
tp121
a(S'2015-04-03 15:18:58.479000'
S'data saved as csv to C:\\Users\\Jbarrett\\Charlie\\charlie\\data\\csv\\4368_face_memory_delay.csv'
tp122
a(S'2015-04-03 15:19:03.128000'
g103
tp123
a(S'2015-04-03 15:19:03.137000'
g105
tp124
a(S'2015-04-03 15:19:03.141000'
S'data saved as csv to C:\\Users\\Jbarrett\\Charlie\\charlie\\data\\csv\\4368_face_memory_delay.csv'
tp125
a(S'2015-04-03 15:19:13.461000'
g103
tp126
a(S'2015-04-03 15:19:13.470000'
g105
tp127
a(S'2015-04-03 15:19:13.474000'
S'data saved as csv to C:\\Users\\Jbarrett\\Charlie\\charlie\\data\\csv\\4368_face_memory_delay.csv'
tp128
a(S'2015-04-03 15:19:15.773000'
g103
tp129
a(S'2015-04-03 15:19:15.782000'
g105
tp130
a(S'2015-04-03 15:19:15.786000'
S'data saved as csv to C:\\Users\\Jbarrett\\Charlie\\charlie\\data\\csv\\4368_face_memory_delay.csv'
tp131
a(S'2015-04-03 15:19:19.415000'
g103
tp132
a(S'2015-04-03 15:19:19.425000'
g105
tp133
a(S'2015-04-03 15:19:19.428000'
S'data saved as csv to C:\\Users\\Jbarrett\\Charlie\\charlie\\data\\csv\\4368_face_memory_delay.csv'
tp134
a(S'2015-04-03 15:19:25.578000'
g103
tp135
a(S'2015-04-03 15:19:25.588000'
g105
tp136
a(S'2015-04-03 15:19:25.591000'
S'data saved as csv to C:\\Users\\Jbarrett\\Charlie\\charlie\\data\\csv\\4368_face_memory_delay.csv'
tp137
a(S'2015-04-03 15:19:30.839000'
g103
tp138
a(S'2015-04-03 15:19:30.848000'
g105
tp139
a(S'2015-04-03 15:19:30.852000'
S'data saved as csv to C:\\Users\\Jbarrett\\Charlie\\charlie\\data\\csv\\4368_face_memory_delay.csv'
tp140
a(S'2015-04-03 15:19:36.572000'
g103
tp141
a(S'2015-04-03 15:19:36.581000'
g105
tp142
a(S'2015-04-03 15:19:36.585000'
S'data saved as csv to C:\\Users\\Jbarrett\\Charlie\\charlie\\data\\csv\\4368_face_memory_delay.csv'
tp143
a(S'2015-04-03 15:19:41.792000'
g103
tp144
a(S'2015-04-03 15:19:41.798000'
g105
tp145
a(S'2015-04-03 15:19:41.800000'
S'data saved as csv to C:\\Users\\Jbarrett\\Charlie\\charlie\\data\\csv\\4368_face_memory_delay.csv'
tp146
a(S'2015-04-03 15:19:44.341000'
g103
tp147
a(S'2015-04-03 15:19:44.345000'
g105
tp148
a(S'2015-04-03 15:19:44.347000'
S'data saved as csv to C:\\Users\\Jbarrett\\Charlie\\charlie\\data\\csv\\4368_face_memory_delay.csv'
tp149
a(S'2015-04-03 15:19:47.395000'
g103
tp150
a(S'2015-04-03 15:19:47.405000'
g105
tp151
a(S'2015-04-03 15:19:47.409000'
S'data saved as csv to C:\\Users\\Jbarrett\\Charlie\\charlie\\data\\csv\\4368_face_memory_delay.csv'
tp152
a(S'2015-04-03 15:19:50.559000'
g103
tp153
a(S'2015-04-03 15:19:50.569000'
g105
tp154
a(S'2015-04-03 15:19:50.573000'
S'data saved as csv to C:\\Users\\Jbarrett\\Charlie\\charlie\\data\\csv\\4368_face_memory_delay.csv'
tp155
a(S'2015-04-03 15:19:55.433000'
g103
tp156
a(S'2015-04-03 15:19:55.442000'
g105
tp157
a(S'2015-04-03 15:19:55.446000'
S'data saved as csv to C:\\Users\\Jbarrett\\Charlie\\charlie\\data\\csv\\4368_face_memory_delay.csv'
tp158
a(S'2015-04-03 15:19:58.836000'
g103
tp159
a(S'2015-04-03 15:19:58.845000'
g105
tp160
a(S'2015-04-03 15:19:58.849000'
S'data saved as csv to C:\\Users\\Jbarrett\\Charlie\\charlie\\data\\csv\\4368_face_memory_delay.csv'
tp161
a(S'2015-04-03 15:20:03.599000'
g103
tp162
a(S'2015-04-03 15:20:03.609000'
g105
tp163
a(S'2015-04-03 15:20:03.613000'
S'data saved as csv to C:\\Users\\Jbarrett\\Charlie\\charlie\\data\\csv\\4368_face_memory_delay.csv'
tp164
a(S'2015-04-03 15:20:08.643000'
g103
tp165
a(S'2015-04-03 15:20:08.652000'
g105
tp166
a(S'2015-04-03 15:20:08.656000'
S'data saved as csv to C:\\Users\\Jbarrett\\Charlie\\charlie\\data\\csv\\4368_face_memory_delay.csv'
tp167
a(S'2015-04-03 15:20:12.106000'
g103
tp168
a(S'2015-04-03 15:20:12.115000'
g105
tp169
a(S'2015-04-03 15:20:12.118000'
S'data saved as csv to C:\\Users\\Jbarrett\\Charlie\\charlie\\data\\csv\\4368_face_memory_delay.csv'
tp170
a(S'2015-04-03 15:20:15.226000'
g103
tp171
a(S'2015-04-03 15:20:15.235000'
g105
tp172
a(S'2015-04-03 15:20:15.238000'
S'data saved as csv to C:\\Users\\Jbarrett\\Charlie\\charlie\\data\\csv\\4368_face_memory_delay.csv'
tp173
a(S'2015-04-03 15:20:17.313000'
g103
tp174
a(S'2015-04-03 15:20:17.322000'
g105
tp175
a(S'2015-04-03 15:20:17.325000'
S'data saved as csv to C:\\Users\\Jbarrett\\Charlie\\charlie\\data\\csv\\4368_face_memory_delay.csv'
tp176
a(S'2015-04-03 15:20:19.325000'
g103
tp177
a(S'2015-04-03 15:20:19.334000'
g105
tp178
a(S'2015-04-03 15:20:19.338000'
S'data saved as csv to C:\\Users\\Jbarrett\\Charlie\\charlie\\data\\csv\\4368_face_memory_delay.csv'
tp179
a(S'2015-04-03 15:20:21.257000'
g103
tp180
a(S'2015-04-03 15:20:21.266000'
g105
tp181
a(S'2015-04-03 15:20:21.270000'
S'data saved as csv to C:\\Users\\Jbarrett\\Charlie\\charlie\\data\\csv\\4368_face_memory_delay.csv'
tp182
a(S'2015-04-03 15:20:24.580000'
g103
tp183
a(S'2015-04-03 15:20:24.589000'
g105
tp184
a(S'2015-04-03 15:20:24.593000'
S'data saved as csv to C:\\Users\\Jbarrett\\Charlie\\charlie\\data\\csv\\4368_face_memory_delay.csv'
tp185
a(S'2015-04-03 15:20:26.552000'
g103
tp186
a(S'2015-04-03 15:20:26.561000'
g105
tp187
a(S'2015-04-03 15:20:26.565000'
S'data saved as csv to C:\\Users\\Jbarrett\\Charlie\\charlie\\data\\csv\\4368_face_memory_delay.csv'
tp188
a(S'2015-04-03 15:20:28.605000'
g103
tp189
a(S'2015-04-03 15:20:28.615000'
g105
tp190
a(S'2015-04-03 15:20:28.618000'
S'data saved as csv to C:\\Users\\Jbarrett\\Charlie\\charlie\\data\\csv\\4368_face_memory_delay.csv'
tp191
a(S'2015-04-03 15:20:30.918000'
g103
tp192
a(S'2015-04-03 15:20:30.927000'
g105
tp193
a(S'2015-04-03 15:20:30.929000'
S'data saved as csv to C:\\Users\\Jbarrett\\Charlie\\charlie\\data\\csv\\4368_face_memory_delay.csv'
tp194
a(S'2015-04-03 15:20:34.137000'
g103
tp195
a(S'2015-04-03 15:20:34.147000'
g105
tp196
a(S'2015-04-03 15:20:34.151000'
S'data saved as csv to C:\\Users\\Jbarrett\\Charlie\\charlie\\data\\csv\\4368_face_memory_delay.csv'
tp197
a(S'2015-04-03 15:20:35.590000'
g103
tp198
a(S'2015-04-03 15:20:35.600000'
g105
tp199
a(S'2015-04-03 15:20:35.603000'
S'data saved as csv to C:\\Users\\Jbarrett\\Charlie\\charlie\\data\\csv\\4368_face_memory_delay.csv'
tp200
a(S'2015-04-03 15:20:37.583000'
g103
tp201
a(S'2015-04-03 15:20:37.593000'
g105
tp202
a(S'2015-04-03 15:20:37.597000'
S'data saved as csv to C:\\Users\\Jbarrett\\Charlie\\charlie\\data\\csv\\4368_face_memory_delay.csv'
tp203
a(S'2015-04-03 15:20:39.697000'
g103
tp204
a(S'2015-04-03 15:20:39.707000'
g105
tp205
a(S'2015-04-03 15:20:39.711000'
S'data saved as csv to C:\\Users\\Jbarrett\\Charlie\\charlie\\data\\csv\\4368_face_memory_delay.csv'
tp206
a(S'2015-04-03 15:20:43.241000'
g103
tp207
a(S'2015-04-03 15:20:43.251000'
g105
tp208
a(S'2015-04-03 15:20:43.255000'
S'data saved as csv to C:\\Users\\Jbarrett\\Charlie\\charlie\\data\\csv\\4368_face_memory_delay.csv'
tp209
a(S'2015-04-03 15:20:46.984000'
g103
tp210
a(S'2015-04-03 15:20:46.994000'
g105
tp211
a(S'2015-04-03 15:20:46.998000'
S'data saved as csv to C:\\Users\\Jbarrett\\Charlie\\charlie\\data\\csv\\4368_face_memory_delay.csv'
tp212
a(S'2015-04-03 15:20:51.868000'
g103
tp213
a(S'2015-04-03 15:20:51.878000'
g105
tp214
a(S'2015-04-03 15:20:51.882000'
S'data saved as csv to C:\\Users\\Jbarrett\\Charlie\\charlie\\data\\csv\\4368_face_memory_delay.csv'
tp215
a(S'2015-04-03 15:20:59.682000'
g103
tp216
a(S'2015-04-03 15:20:59.692000'
g105
tp217
a(S'2015-04-03 15:20:59.696000'
S'data saved as csv to C:\\Users\\Jbarrett\\Charlie\\charlie\\data\\csv\\4368_face_memory_delay.csv'
tp218
a(S'2015-04-03 15:21:04.446000'
g103
tp219
a(S'2015-04-03 15:21:04.456000'
g105
tp220
a(S'2015-04-03 15:21:04.460000'
S'data saved as csv to C:\\Users\\Jbarrett\\Charlie\\charlie\\data\\csv\\4368_face_memory_delay.csv'
tp221
a(S'2015-04-03 15:21:07.460000'
g103
tp222
a(S'2015-04-03 15:21:07.470000'
g105
tp223
a(S'2015-04-03 15:21:07.474000'
S'data saved as csv to C:\\Users\\Jbarrett\\Charlie\\charlie\\data\\csv\\4368_face_memory_delay.csv'
tp224
asb.