(icharlie.tools.data
Data
p1
(dp2
S'lang'
p3
S'EN'
p4
sS'control'
p5
(lp6
sS'last_updated'
p7
cdatetime
datetime
p8
(S'\x07\xdf\x04\x07\x0f3\x0b\x0b\xa4x'
tRp9
sS'last_opened'
p10
g8
(S'\x07\xdf\x04\x07\x0f-\x11\nT\x88'
tRp11
sS'proj_id'
p12
S'connectivity'
p13
sS'date_done'
p14
g8
(S'\x07\xdf\x04\x07\x0f3\x0b\n\xc5\xd0'
tRp15
sS'test_done'
p16
I01
sS'data'
p17
(lp18
(S'4369'
p19
S'cvlt2'
p20
I0
csip
_unpickle_type
p21
(S'PyQt4.QtCore'
p22
S'QString'
(Vtruck
p23
ttRp24
tp25
a(g19
g20
I0
g21
(g22
S'QString'
(Vspinach
p26
ttRp27
tp28
a(g19
g20
I0
g21
(g22
S'QString'
(Vcow
p29
ttRp30
tp31
a(g19
g20
I0
g21
(g22
S'QString'
(Vlamp
p32
ttRp33
tp34
a(g19
g20
I0
g21
(g22
S'QString'
(Vcabbage
p35
ttRp36
tp37
a(g19
g20
I0
g21
(g22
S'QString'
(Vboat
p38
ttRp39
tp40
a(g19
g20
I0
g21
(g22
S'QString'
(Vonion
p41
ttRp42
tp43
a(g19
g20
I1
g21
(g22
S'QString'
(Vtruck
p44
ttRp45
tp46
a(g19
g20
I1
g21
(g22
S'QString'
(Vspinach
p47
ttRp48
tp49
a(g19
g20
I1
g21
(g22
S'QString'
(Vbookcase
p50
ttRp51
tp52
a(g19
g20
I1
g21
(g22
S'QString'
(Vonion
p53
ttRp54
tp55
a(g19
g20
I1
g21
(g22
S'QString'
(Vzebra
p56
ttRp57
tp58
a(g19
g20
I1
g21
(g22
S'QString'
(Vdesk
p59
ttRp60
tp61
a(g19
g20
I1
g21
(g22
S'QString'
(Vcelery
p62
ttRp63
tp64
a(g19
g20
I2
g21
(g22
S'QString'
(Vtruck
p65
ttRp66
tp67
a(g19
g20
I2
g21
(g22
S'QString'
(Vspinach
p68
ttRp69
tp70
a(g19
g20
I2
g21
(g22
S'QString'
(Vcelery
p71
ttRp72
tp73
a(g19
g20
I2
g21
(g22
S'QString'
(Vdesk
p74
ttRp75
tp76
a(g19
g20
I2
g21
(g22
S'QString'
(Vzebra
p77
ttRp78
tp79
a(g19
g20
I2
g21
(g22
S'QString'
(Vsubway
p80
ttRp81
tp82
a(g19
g20
I2
g21
(g22
S'QString'
(Vsquirrel
p83
ttRp84
tp85
a(g19
g20
I2
g21
(g22
S'QString'
(Vboat
p86
ttRp87
tp88
a(g19
g20
I3
g21
(g22
S'QString'
(Vtruck
p89
ttRp90
tp91
a(g19
g20
I3
g21
(g22
S'QString'
(Vspinach
p92
ttRp93
tp94
a(g19
g20
I3
g21
(g22
S'QString'
(Vcow
p95
ttRp96
tp97
a(g19
g20
I3
g21
(g22
S'QString'
(Vgiraffe
p98
ttRp99
tp100
a(g19
g20
I3
g21
(g22
S'QString'
(Vcelery
p101
ttRp102
tp103
a(g19
g20
I3
g21
(g22
S'QString'
(Vdesk
p104
ttRp105
tp106
a(g19
g20
I3
g21
(g22
S'QString'
(Vcabinet
p107
ttRp108
tp109
a(g19
g20
I3
g21
(g22
S'QString'
(Vboat
p110
ttRp111
tp112
a(g19
g20
I3
g21
(g22
S'QString'
(Vzebra
p113
ttRp114
tp115
a(g19
g20
I4
g21
(g22
S'QString'
(Vtruck
p116
ttRp117
tp118
a(g19
g20
I4
g21
(g22
S'QString'
(Vspinach
p119
ttRp120
tp121
a(g19
g20
I4
g21
(g22
S'QString'
(Vcow
p122
ttRp123
tp124
a(g19
g20
I4
g21
(g22
S'QString'
(Vgiraffe
p125
ttRp126
tp127
a(g19
g20
I4
g21
(g22
S'QString'
(Vcelery
p128
ttRp129
tp130
a(g19
g20
I4
g21
(g22
S'QString'
(Vzebra
p131
ttRp132
tp133
a(g19
g20
I4
g21
(g22
S'QString'
(Vboat
p134
ttRp135
tp136
a(g19
g20
I4
g21
(g22
S'QString'
(Vdesk
p137
ttRp138
tp139
a(g19
g20
I4
g21
(g22
S'QString'
(Vcabinet
p140
ttRp141
tp142
a(g19
g20
I4
g21
(g22
S'QString'
(Vsquirrel
p143
ttRp144
tp145
asS'output_format'
p146
(lp147
(S'proband_id'
p148
c__builtin__
str
p149
tp150
a(S'test_name'
p151
g149
tp152
a(S'trialn'
p153
c__builtin__
int
p154
tp155
a(S'rsp'
p156
g149
tp157
asg148
g19
sS'filename'
p158
S'4369_cvlt2.data'
p159
sS'initialised'
p160
g8
(S'\x07\xdf\x04\x07\x0f-\x11\nT\x88'
tRp161
sS'last_udated'
p162
g8
(S'\x07\xdf\x04\x07\x0f-\x11\nT\x88'
tRp163
sg151
S'cvlt2'
p164
sS'directory'
p165
S'C:\\Users\\Jbarrett\\Charlie\\charlie\\data\\raw'
p166
sS'user_id'
p167
S'oleach'
p168
sS'test_started'
p169
I01
sS'abs_filename'
p170
S'C:\\Users\\Jbarrett\\Charlie\\charlie\\data\\raw\\4369_cvlt2.data'
p171
sS'date_started'
p172
g8
(S'\x07\xdf\x04\x07\x0f..\x04\xf9p'
tRp173
sS'log'
p174
(lp175
(S'2015-04-07 15:45:17.677000'
S'instance created'
p176
tp177
a(S'2015-04-07 15:46:46.334000'
S'instance updated'
p178
tp179
a(S'2015-04-07 15:46:46.362000'
S'pandas DataFrame of data created'
p180
tp181
a(S'2015-04-07 15:46:46.366000'
S'data saved as csv to C:\\Users\\Jbarrett\\Charlie\\charlie\\data\\csv\\4369_cvlt2.csv'
tp182
a(S'2015-04-07 15:47:42.543000'
g178
tp183
a(S'2015-04-07 15:47:42.560000'
g180
tp184
a(S'2015-04-07 15:47:42.563000'
S'data saved as csv to C:\\Users\\Jbarrett\\Charlie\\charlie\\data\\csv\\4369_cvlt2.csv'
tp185
a(S'2015-04-07 15:48:05.674000'
g178
tp186
a(S'2015-04-07 15:48:05.699000'
g180
tp187
a(S'2015-04-07 15:48:05.700000'
S'data saved as csv to C:\\Users\\Jbarrett\\Charlie\\charlie\\data\\csv\\4369_cvlt2.csv'
tp188
a(S'2015-04-07 15:48:47.539000'
g178
tp189
a(S'2015-04-07 15:48:47.569000'
g180
tp190
a(S'2015-04-07 15:48:47.572000'
S'data saved as csv to C:\\Users\\Jbarrett\\Charlie\\charlie\\data\\csv\\4369_cvlt2.csv'
tp191
a(S'2015-04-07 15:49:09.172000'
g178
tp192
a(S'2015-04-07 15:49:09.210000'
g180
tp193
a(S'2015-04-07 15:49:09.212000'
S'data saved as csv to C:\\Users\\Jbarrett\\Charlie\\charlie\\data\\csv\\4369_cvlt2.csv'
tp194
a(S'2015-04-07 15:49:48.150000'
g178
tp195
a(S'2015-04-07 15:49:48.184000'
g180
tp196
a(S'2015-04-07 15:49:48.186000'
S'data saved as csv to C:\\Users\\Jbarrett\\Charlie\\charlie\\data\\csv\\4369_cvlt2.csv'
tp197
a(S'2015-04-07 15:50:12.407000'
g178
tp198
a(S'2015-04-07 15:50:12.458000'
g180
tp199
a(S'2015-04-07 15:50:12.459000'
S'data saved as csv to C:\\Users\\Jbarrett\\Charlie\\charlie\\data\\csv\\4369_cvlt2.csv'
tp200
a(S'2015-04-07 15:50:48.417000'
g178
tp201
a(S'2015-04-07 15:50:48.461000'
g180
tp202
a(S'2015-04-07 15:50:48.463000'
S'data saved as csv to C:\\Users\\Jbarrett\\Charlie\\charlie\\data\\csv\\4369_cvlt2.csv'
tp203
a(S'2015-04-07 15:51:11.706000'
g178
tp204
a(S'2015-04-07 15:51:11.762000'
g180
tp205
a(S'2015-04-07 15:51:11.763000'
S'data saved as csv to C:\\Users\\Jbarrett\\Charlie\\charlie\\data\\csv\\4369_cvlt2.csv'
tp206
asb.