(icharlie.tools.data
Data
p1
(dp2
S'lang'
p3
S'EN'
p4
sS'control'
p5
(lp6
sS'last_updated'
p7
cdatetime
datetime
p8
(S'\x07\xdf\x04\x07\x10\x19\x12\x01\xf0\x18'
tRp9
sS'last_opened'
p10
g8
(S'\x07\xdf\x04\x07\x10\x18\x1e\x05 \x80'
tRp11
sS'proj_id'
p12
S'connectivity'
p13
sS'date_done'
p14
NsS'test_done'
p15
I01
sS'data'
p16
(lp17
(S'4369'
p18
S'face_memory_delay'
p19
S'test'
p20
I0
S'C:\\Users\\Jbarrett\\Charlie\\charlie\\stimuli\\visual\\face_memory_delay\\ddis10.bmp'
S'No'
p21
g21
I1170
tp22
a(g18
g19
g20
I1
S'C:\\Users\\Jbarrett\\Charlie\\charlie\\stimuli\\visual\\face_memory_delay\\ddis04.bmp'
g21
S'Yes'
p23
I770
tp24
a(g18
g19
g20
I2
S'C:\\Users\\Jbarrett\\Charlie\\charlie\\stimuli\\visual\\face_memory_delay\\tar07.bmp'
g23
g23
I760
tp25
a(g18
g19
g20
I3
S'C:\\Users\\Jbarrett\\Charlie\\charlie\\stimuli\\visual\\face_memory_delay\\tar18.bmp'
g23
g23
I910
tp26
a(g18
g19
g20
I4
S'C:\\Users\\Jbarrett\\Charlie\\charlie\\stimuli\\visual\\face_memory_delay\\ddis14.bmp'
g21
g23
I770
tp27
a(g18
g19
g20
I5
S'C:\\Users\\Jbarrett\\Charlie\\charlie\\stimuli\\visual\\face_memory_delay\\tar19.bmp'
g23
g21
I780
tp28
a(g18
g19
g20
I6
S'C:\\Users\\Jbarrett\\Charlie\\charlie\\stimuli\\visual\\face_memory_delay\\ddis13.bmp'
g21
g23
I670
tp29
a(g18
g19
g20
I7
S'C:\\Users\\Jbarrett\\Charlie\\charlie\\stimuli\\visual\\face_memory_delay\\tar15.bmp'
g23
g23
I800
tp30
a(g18
g19
g20
I8
S'C:\\Users\\Jbarrett\\Charlie\\charlie\\stimuli\\visual\\face_memory_delay\\tar11.bmp'
g23
g23
I710
tp31
a(g18
g19
g20
I9
S'C:\\Users\\Jbarrett\\Charlie\\charlie\\stimuli\\visual\\face_memory_delay\\ddis05.bmp'
g21
g21
I791
tp32
a(g18
g19
g20
I10
S'C:\\Users\\Jbarrett\\Charlie\\charlie\\stimuli\\visual\\face_memory_delay\\ddis01.bmp'
g21
g21
I830
tp33
a(g18
g19
g20
I11
S'C:\\Users\\Jbarrett\\Charlie\\charlie\\stimuli\\visual\\face_memory_delay\\ddis16.bmp'
g21
g23
I420
tp34
a(g18
g19
g20
I12
S'C:\\Users\\Jbarrett\\Charlie\\charlie\\stimuli\\visual\\face_memory_delay\\tar02.bmp'
g23
g21
I640
tp35
a(g18
g19
g20
I13
S'C:\\Users\\Jbarrett\\Charlie\\charlie\\stimuli\\visual\\face_memory_delay\\tar08.bmp'
g23
g23
I590
tp36
a(g18
g19
g20
I14
S'C:\\Users\\Jbarrett\\Charlie\\charlie\\stimuli\\visual\\face_memory_delay\\tar13.bmp'
g23
g23
I870
tp37
a(g18
g19
g20
I15
S'C:\\Users\\Jbarrett\\Charlie\\charlie\\stimuli\\visual\\face_memory_delay\\tar20.bmp'
g23
g23
I750
tp38
a(g18
g19
g20
I16
S'C:\\Users\\Jbarrett\\Charlie\\charlie\\stimuli\\visual\\face_memory_delay\\ddis18.bmp'
g21
g21
I310
tp39
a(g18
g19
g20
I17
S'C:\\Users\\Jbarrett\\Charlie\\charlie\\stimuli\\visual\\face_memory_delay\\tar06.bmp'
g23
g21
I590
tp40
a(g18
g19
g20
I18
S'C:\\Users\\Jbarrett\\Charlie\\charlie\\stimuli\\visual\\face_memory_delay\\ddis07.bmp'
g21
g23
I590
tp41
a(g18
g19
g20
I19
S'C:\\Users\\Jbarrett\\Charlie\\charlie\\stimuli\\visual\\face_memory_delay\\ddis08.bmp'
g21
g21
I520
tp42
a(g18
g19
g20
I20
S'C:\\Users\\Jbarrett\\Charlie\\charlie\\stimuli\\visual\\face_memory_delay\\tar12.bmp'
g23
g23
I440
tp43
a(g18
g19
g20
I21
S'C:\\Users\\Jbarrett\\Charlie\\charlie\\stimuli\\visual\\face_memory_delay\\ddis17.bmp'
g21
g21
I430
tp44
a(g18
g19
g20
I22
S'C:\\Users\\Jbarrett\\Charlie\\charlie\\stimuli\\visual\\face_memory_delay\\tar05.bmp'
g23
g23
I650
tp45
a(g18
g19
g20
I23
S'C:\\Users\\Jbarrett\\Charlie\\charlie\\stimuli\\visual\\face_memory_delay\\tar10.bmp'
g23
g21
I700
tp46
a(g18
g19
g20
I24
S'C:\\Users\\Jbarrett\\Charlie\\charlie\\stimuli\\visual\\face_memory_delay\\ddis02.bmp'
g21
g23
I550
tp47
a(g18
g19
g20
I25
S'C:\\Users\\Jbarrett\\Charlie\\charlie\\stimuli\\visual\\face_memory_delay\\ddis20.bmp'
g21
g23
I490
tp48
a(g18
g19
g20
I26
S'C:\\Users\\Jbarrett\\Charlie\\charlie\\stimuli\\visual\\face_memory_delay\\tar17.bmp'
g23
g21
I650
tp49
a(g18
g19
g20
I27
S'C:\\Users\\Jbarrett\\Charlie\\charlie\\stimuli\\visual\\face_memory_delay\\ddis15.bmp'
g21
g21
I470
tp50
a(g18
g19
g20
I28
S'C:\\Users\\Jbarrett\\Charlie\\charlie\\stimuli\\visual\\face_memory_delay\\tar03.bmp'
g23
g23
I360
tp51
a(g18
g19
g20
I29
S'C:\\Users\\Jbarrett\\Charlie\\charlie\\stimuli\\visual\\face_memory_delay\\ddis19.bmp'
g21
g21
I510
tp52
a(g18
g19
g20
I30
S'C:\\Users\\Jbarrett\\Charlie\\charlie\\stimuli\\visual\\face_memory_delay\\ddis12.bmp'
g21
g21
I540
tp53
a(g18
g19
g20
I31
S'C:\\Users\\Jbarrett\\Charlie\\charlie\\stimuli\\visual\\face_memory_delay\\tar16.bmp'
g23
g23
I530
tp54
a(g18
g19
g20
I32
S'C:\\Users\\Jbarrett\\Charlie\\charlie\\stimuli\\visual\\face_memory_delay\\tar09.bmp'
g23
g21
I450
tp55
a(g18
g19
g20
I33
S'C:\\Users\\Jbarrett\\Charlie\\charlie\\stimuli\\visual\\face_memory_delay\\ddis09.bmp'
g21
g23
I390
tp56
a(g18
g19
g20
I34
S'C:\\Users\\Jbarrett\\Charlie\\charlie\\stimuli\\visual\\face_memory_delay\\tar01.bmp'
g23
g21
I400
tp57
a(g18
g19
g20
I35
S'C:\\Users\\Jbarrett\\Charlie\\charlie\\stimuli\\visual\\face_memory_delay\\ddis11.bmp'
g21
g23
I400
tp58
a(g18
g19
g20
I36
S'C:\\Users\\Jbarrett\\Charlie\\charlie\\stimuli\\visual\\face_memory_delay\\ddis03.bmp'
g21
g23
I620
tp59
a(g18
g19
g20
I37
S'C:\\Users\\Jbarrett\\Charlie\\charlie\\stimuli\\visual\\face_memory_delay\\tar04.bmp'
g23
g21
I420
tp60
a(g18
g19
g20
I38
S'C:\\Users\\Jbarrett\\Charlie\\charlie\\stimuli\\visual\\face_memory_delay\\tar14.bmp'
g23
g23
I550
tp61
a(g18
g19
g20
I39
S'C:\\Users\\Jbarrett\\Charlie\\charlie\\stimuli\\visual\\face_memory_delay\\ddis06.bmp'
p62
g21
g23
I500
tp63
asS'output_format'
p64
(lp65
(S'proband_id'
p66
c__builtin__
str
p67
tp68
a(S'test_name'
p69
g67
tp70
a(S'phase'
p71
g67
tp72
a(S'trialn'
p73
c__builtin__
int
p74
tp75
a(S'f'
g67
tp76
a(S'ans'
p77
g67
tp78
a(S'rsp'
p79
g67
tp80
a(S'rt'
p81
g74
tp82
asg66
g18
sS'filename'
p83
S'4369_face_memory_delay.data'
p84
sS'initialised'
p85
g8
(S'\x07\xdf\x04\x07\x10\x18\x1e\x05 \x80'
tRp86
sS'last_udated'
p87
g8
(S'\x07\xdf\x04\x07\x10\x18\x1e\x05 \x80'
tRp88
sg69
S'face_memory_delay'
p89
sS'directory'
p90
S'C:\\Users\\Jbarrett\\Charlie\\charlie\\data\\raw'
p91
sS'user_id'
p92
S'oleach'
p93
sS'test_started'
p94
I01
sS'abs_filename'
p95
S'C:\\Users\\Jbarrett\\Charlie\\charlie\\data\\raw\\4369_face_memory_delay.data'
p96
sS'date_started'
p97
g8
(S'\x07\xdf\x04\x07\x10\x181\x06\xd6\x00'
tRp98
sS'log'
p99
(lp100
(S'2015-04-07 16:24:30.337000'
S'instance created'
p101
tp102
a(S'2015-04-07 16:24:49.457000'
S'instance updated'
p103
tp104
a(S'2015-04-07 16:24:49.465000'
S'pandas DataFrame of data created'
p105
tp106
a(S'2015-04-07 16:24:49.471000'
S'data saved as csv to C:\\Users\\Jbarrett\\Charlie\\charlie\\data\\csv\\4369_face_memory_delay.csv'
tp107
a(S'2015-04-07 16:24:50.369000'
g103
tp108
a(S'2015-04-07 16:24:50.378000'
g105
tp109
a(S'2015-04-07 16:24:50.381000'
S'data saved as csv to C:\\Users\\Jbarrett\\Charlie\\charlie\\data\\csv\\4369_face_memory_delay.csv'
tp110
a(S'2015-04-07 16:24:51.269000'
g103
tp111
a(S'2015-04-07 16:24:51.278000'
g105
tp112
a(S'2015-04-07 16:24:51.281000'
S'data saved as csv to C:\\Users\\Jbarrett\\Charlie\\charlie\\data\\csv\\4369_face_memory_delay.csv'
tp113
a(S'2015-04-07 16:24:52.319000'
g103
tp114
a(S'2015-04-07 16:24:52.328000'
g105
tp115
a(S'2015-04-07 16:24:52.331000'
S'data saved as csv to C:\\Users\\Jbarrett\\Charlie\\charlie\\data\\csv\\4369_face_memory_delay.csv'
tp116
a(S'2015-04-07 16:24:53.231000'
g103
tp117
a(S'2015-04-07 16:24:53.240000'
g105
tp118
a(S'2015-04-07 16:24:53.244000'
S'data saved as csv to C:\\Users\\Jbarrett\\Charlie\\charlie\\data\\csv\\4369_face_memory_delay.csv'
tp119
a(S'2015-04-07 16:24:54.152000'
g103
tp120
a(S'2015-04-07 16:24:54.161000'
g105
tp121
a(S'2015-04-07 16:24:54.165000'
S'data saved as csv to C:\\Users\\Jbarrett\\Charlie\\charlie\\data\\csv\\4369_face_memory_delay.csv'
tp122
a(S'2015-04-07 16:24:54.963000'
g103
tp123
a(S'2015-04-07 16:24:54.972000'
g105
tp124
a(S'2015-04-07 16:24:54.975000'
S'data saved as csv to C:\\Users\\Jbarrett\\Charlie\\charlie\\data\\csv\\4369_face_memory_delay.csv'
tp125
a(S'2015-04-07 16:24:55.904000'
g103
tp126
a(S'2015-04-07 16:24:55.913000'
g105
tp127
a(S'2015-04-07 16:24:55.917000'
S'data saved as csv to C:\\Users\\Jbarrett\\Charlie\\charlie\\data\\csv\\4369_face_memory_delay.csv'
tp128
a(S'2015-04-07 16:24:56.755000'
g103
tp129
a(S'2015-04-07 16:24:56.764000'
g105
tp130
a(S'2015-04-07 16:24:56.768000'
S'data saved as csv to C:\\Users\\Jbarrett\\Charlie\\charlie\\data\\csv\\4369_face_memory_delay.csv'
tp131
a(S'2015-04-07 16:24:57.686000'
g103
tp132
a(S'2015-04-07 16:24:57.695000'
g105
tp133
a(S'2015-04-07 16:24:57.699000'
S'data saved as csv to C:\\Users\\Jbarrett\\Charlie\\charlie\\data\\csv\\4369_face_memory_delay.csv'
tp134
a(S'2015-04-07 16:24:58.657000'
g103
tp135
a(S'2015-04-07 16:24:58.666000'
g105
tp136
a(S'2015-04-07 16:24:58.669000'
S'data saved as csv to C:\\Users\\Jbarrett\\Charlie\\charlie\\data\\csv\\4369_face_memory_delay.csv'
tp137
a(S'2015-04-07 16:24:59.218000'
g103
tp138
a(S'2015-04-07 16:24:59.227000'
g105
tp139
a(S'2015-04-07 16:24:59.231000'
S'data saved as csv to C:\\Users\\Jbarrett\\Charlie\\charlie\\data\\csv\\4369_face_memory_delay.csv'
tp140
a(S'2015-04-07 16:25:00'
g103
tp141
a(S'2015-04-07 16:25:00.008000'
g105
tp142
a(S'2015-04-07 16:25:00.012000'
S'data saved as csv to C:\\Users\\Jbarrett\\Charlie\\charlie\\data\\csv\\4369_face_memory_delay.csv'
tp143
a(S'2015-04-07 16:25:00.731000'
g103
tp144
a(S'2015-04-07 16:25:00.740000'
g105
tp145
a(S'2015-04-07 16:25:00.743000'
S'data saved as csv to C:\\Users\\Jbarrett\\Charlie\\charlie\\data\\csv\\4369_face_memory_delay.csv'
tp146
a(S'2015-04-07 16:25:01.742000'
g103
tp147
a(S'2015-04-07 16:25:01.751000'
g105
tp148
a(S'2015-04-07 16:25:01.755000'
S'data saved as csv to C:\\Users\\Jbarrett\\Charlie\\charlie\\data\\csv\\4369_face_memory_delay.csv'
tp149
a(S'2015-04-07 16:25:02.633000'
g103
tp150
a(S'2015-04-07 16:25:02.642000'
g105
tp151
a(S'2015-04-07 16:25:02.646000'
S'data saved as csv to C:\\Users\\Jbarrett\\Charlie\\charlie\\data\\csv\\4369_face_memory_delay.csv'
tp152
a(S'2015-04-07 16:25:03.085000'
g103
tp153
a(S'2015-04-07 16:25:03.095000'
g105
tp154
a(S'2015-04-07 16:25:03.098000'
S'data saved as csv to C:\\Users\\Jbarrett\\Charlie\\charlie\\data\\csv\\4369_face_memory_delay.csv'
tp155
a(S'2015-04-07 16:25:03.818000'
g103
tp156
a(S'2015-04-07 16:25:03.827000'
g105
tp157
a(S'2015-04-07 16:25:03.830000'
S'data saved as csv to C:\\Users\\Jbarrett\\Charlie\\charlie\\data\\csv\\4369_face_memory_delay.csv'
tp158
a(S'2015-04-07 16:25:04.559000'
g103
tp159
a(S'2015-04-07 16:25:04.568000'
g105
tp160
a(S'2015-04-07 16:25:04.572000'
S'data saved as csv to C:\\Users\\Jbarrett\\Charlie\\charlie\\data\\csv\\4369_face_memory_delay.csv'
tp161
a(S'2015-04-07 16:25:05.220000'
g103
tp162
a(S'2015-04-07 16:25:05.230000'
g105
tp163
a(S'2015-04-07 16:25:05.233000'
S'data saved as csv to C:\\Users\\Jbarrett\\Charlie\\charlie\\data\\csv\\4369_face_memory_delay.csv'
tp164
a(S'2015-04-07 16:25:05.801000'
g103
tp165
a(S'2015-04-07 16:25:05.811000'
g105
tp166
a(S'2015-04-07 16:25:05.814000'
S'data saved as csv to C:\\Users\\Jbarrett\\Charlie\\charlie\\data\\csv\\4369_face_memory_delay.csv'
tp167
a(S'2015-04-07 16:25:06.373000'
g103
tp168
a(S'2015-04-07 16:25:06.383000'
g105
tp169
a(S'2015-04-07 16:25:06.386000'
S'data saved as csv to C:\\Users\\Jbarrett\\Charlie\\charlie\\data\\csv\\4369_face_memory_delay.csv'
tp170
a(S'2015-04-07 16:25:07.165000'
g103
tp171
a(S'2015-04-07 16:25:07.175000'
g105
tp172
a(S'2015-04-07 16:25:07.178000'
S'data saved as csv to C:\\Users\\Jbarrett\\Charlie\\charlie\\data\\csv\\4369_face_memory_delay.csv'
tp173
a(S'2015-04-07 16:25:08.007000'
g103
tp174
a(S'2015-04-07 16:25:08.017000'
g105
tp175
a(S'2015-04-07 16:25:08.020000'
S'data saved as csv to C:\\Users\\Jbarrett\\Charlie\\charlie\\data\\csv\\4369_face_memory_delay.csv'
tp176
a(S'2015-04-07 16:25:08.700000'
g103
tp177
a(S'2015-04-07 16:25:08.709000'
g105
tp178
a(S'2015-04-07 16:25:08.713000'
S'data saved as csv to C:\\Users\\Jbarrett\\Charlie\\charlie\\data\\csv\\4369_face_memory_delay.csv'
tp179
a(S'2015-04-07 16:25:09.331000'
g103
tp180
a(S'2015-04-07 16:25:09.340000'
g105
tp181
a(S'2015-04-07 16:25:09.344000'
S'data saved as csv to C:\\Users\\Jbarrett\\Charlie\\charlie\\data\\csv\\4369_face_memory_delay.csv'
tp182
a(S'2015-04-07 16:25:10.123000'
g103
tp183
a(S'2015-04-07 16:25:10.132000'
g105
tp184
a(S'2015-04-07 16:25:10.136000'
S'data saved as csv to C:\\Users\\Jbarrett\\Charlie\\charlie\\data\\csv\\4369_face_memory_delay.csv'
tp185
a(S'2015-04-07 16:25:10.735000'
g103
tp186
a(S'2015-04-07 16:25:10.744000'
g105
tp187
a(S'2015-04-07 16:25:10.748000'
S'data saved as csv to C:\\Users\\Jbarrett\\Charlie\\charlie\\data\\csv\\4369_face_memory_delay.csv'
tp188
a(S'2015-04-07 16:25:11.237000'
g103
tp189
a(S'2015-04-07 16:25:11.246000'
g105
tp190
a(S'2015-04-07 16:25:11.250000'
S'data saved as csv to C:\\Users\\Jbarrett\\Charlie\\charlie\\data\\csv\\4369_face_memory_delay.csv'
tp191
a(S'2015-04-07 16:25:11.889000'
g103
tp192
a(S'2015-04-07 16:25:11.898000'
g105
tp193
a(S'2015-04-07 16:25:11.902000'
S'data saved as csv to C:\\Users\\Jbarrett\\Charlie\\charlie\\data\\csv\\4369_face_memory_delay.csv'
tp194
a(S'2015-04-07 16:25:12.571000'
g103
tp195
a(S'2015-04-07 16:25:12.580000'
g105
tp196
a(S'2015-04-07 16:25:12.584000'
S'data saved as csv to C:\\Users\\Jbarrett\\Charlie\\charlie\\data\\csv\\4369_face_memory_delay.csv'
tp197
a(S'2015-04-07 16:25:13.243000'
g103
tp198
a(S'2015-04-07 16:25:13.253000'
g105
tp199
a(S'2015-04-07 16:25:13.256000'
S'data saved as csv to C:\\Users\\Jbarrett\\Charlie\\charlie\\data\\csv\\4369_face_memory_delay.csv'
tp200
a(S'2015-04-07 16:25:13.836000'
g103
tp201
a(S'2015-04-07 16:25:13.845000'
g105
tp202
a(S'2015-04-07 16:25:13.848000'
S'data saved as csv to C:\\Users\\Jbarrett\\Charlie\\charlie\\data\\csv\\4369_face_memory_delay.csv'
tp203
a(S'2015-04-07 16:25:14.366000'
g103
tp204
a(S'2015-04-07 16:25:14.375000'
g105
tp205
a(S'2015-04-07 16:25:14.379000'
S'data saved as csv to C:\\Users\\Jbarrett\\Charlie\\charlie\\data\\csv\\4369_face_memory_delay.csv'
tp206
a(S'2015-04-07 16:25:14.909000'
g103
tp207
a(S'2015-04-07 16:25:14.918000'
g105
tp208
a(S'2015-04-07 16:25:14.922000'
S'data saved as csv to C:\\Users\\Jbarrett\\Charlie\\charlie\\data\\csv\\4369_face_memory_delay.csv'
tp209
a(S'2015-04-07 16:25:15.452000'
g103
tp210
a(S'2015-04-07 16:25:15.462000'
g105
tp211
a(S'2015-04-07 16:25:15.466000'
S'data saved as csv to C:\\Users\\Jbarrett\\Charlie\\charlie\\data\\csv\\4369_face_memory_delay.csv'
tp212
a(S'2015-04-07 16:25:16.214000'
g103
tp213
a(S'2015-04-07 16:25:16.224000'
g105
tp214
a(S'2015-04-07 16:25:16.228000'
S'data saved as csv to C:\\Users\\Jbarrett\\Charlie\\charlie\\data\\csv\\4369_face_memory_delay.csv'
tp215
a(S'2015-04-07 16:25:16.778000'
g103
tp216
a(S'2015-04-07 16:25:16.788000'
g105
tp217
a(S'2015-04-07 16:25:16.792000'
S'data saved as csv to C:\\Users\\Jbarrett\\Charlie\\charlie\\data\\csv\\4369_face_memory_delay.csv'
tp218
a(S'2015-04-07 16:25:17.471000'
g103
tp219
a(S'2015-04-07 16:25:17.480000'
g105
tp220
a(S'2015-04-07 16:25:17.484000'
S'data saved as csv to C:\\Users\\Jbarrett\\Charlie\\charlie\\data\\csv\\4369_face_memory_delay.csv'
tp221
a(S'2015-04-07 16:25:18.112000'
g103
tp222
a(S'2015-04-07 16:25:18.122000'
g105
tp223
a(S'2015-04-07 16:25:18.126000'
S'data saved as csv to C:\\Users\\Jbarrett\\Charlie\\charlie\\data\\csv\\4369_face_memory_delay.csv'
tp224
asb.