(icharlie.tools.data
Data
p1
(dp2
S'lang'
p3
S'EN'
p4
sS'control'
p5
(lp6
sS'last_updated'
p7
cdatetime
datetime
p8
(S'\x07\xdf\x04\x16\t.7\x07\x0c\xb0'
tRp9
sS'last_opened'
p10
g8
(S'\x07\xdf\x04\x16\t#*\x0e\xa2\x18'
tRp11
sS'proj_id'
p12
S'connectivity'
p13
sS'date_done'
p14
g8
(S'\x07\xdf\x04\x16\t.7\x069\xc0'
tRp15
sS'test_done'
p16
I01
sS'data'
p17
(lp18
(S'4370'
p19
S'cvlt2'
p20
I0
csip
_unpickle_type
p21
(S'PyQt4.QtCore'
p22
S'QString'
(Vtruck
p23
ttRp24
tp25
a(g19
g20
I0
g21
(g22
S'QString'
(Vspinach
p26
ttRp27
tp28
a(g19
g20
I0
g21
(g22
S'QString'
(Vcabbage
p29
ttRp30
tp31
a(g19
g20
I0
g21
(g22
S'QString'
(Vintrusion
p32
ttRp33
tp34
a(g19
g20
I1
g21
(g22
S'QString'
(Vcelery
p35
ttRp36
tp37
a(g19
g20
I1
g21
(g22
S'QString'
(Vonion
p38
ttRp39
tp40
a(g19
g20
I1
g21
(g22
S'QString'
(Vbookcase
p41
ttRp42
tp43
a(g19
g20
I1
g21
(g22
S'QString'
(Vsquirrel
p44
ttRp45
tp46
a(g19
g20
I1
g21
(g22
S'QString'
(Vzebra
p47
ttRp48
tp49
a(g19
g20
I1
g21
(g22
S'QString'
(Vspinach
p50
ttRp51
tp52
a(g19
g20
I1
g21
(g22
S'QString'
(Vtruck
p53
ttRp54
tp55
a(g19
g20
I1
g21
(g22
S'QString'
(Vsquirrel
p56
ttRp57
tp58
a(g19
g20
I1
g21
(g22
S'QString'
(Vcabbage
p59
ttRp60
tp61
a(g19
g20
I1
g21
(g22
S'QString'
(Vbookcase
p62
ttRp63
tp64
a(g19
g20
I1
g21
(g22
S'QString'
(Vzebra
p65
ttRp66
tp67
a(g19
g20
I1
g21
(g22
S'QString'
(Vcelery
p68
ttRp69
tp70
a(g19
g20
I2
g21
(g22
S'QString'
(Vdesk
p71
ttRp72
tp73
a(g19
g20
I2
g21
(g22
S'QString'
(Vboat
p74
ttRp75
tp76
a(g19
g20
I2
g21
(g22
S'QString'
(Vsubway
p77
ttRp78
tp79
a(g19
g20
I2
g21
(g22
S'QString'
(Vgiraffe
p80
ttRp81
tp82
a(g19
g20
I2
g21
(g22
S'QString'
(Vzebra
p83
ttRp84
tp85
a(g19
g20
I2
g21
(g22
S'QString'
(Vtruck
p86
ttRp87
tp88
a(g19
g20
I2
g21
(g22
S'QString'
(Vcabbage
p89
ttRp90
tp91
a(g19
g20
I2
g21
(g22
S'QString'
(Vspinach
p92
ttRp93
tp94
a(g19
g20
I2
g21
(g22
S'QString'
(Vbookcase
p95
ttRp96
tp97
a(g19
g20
I3
g21
(g22
S'QString'
(Vonion
p98
ttRp99
tp100
a(g19
g20
I3
g21
(g22
S'QString'
(Vtruck
p101
ttRp102
tp103
a(g19
g20
I3
g21
(g22
S'QString'
(Vcabbage
p104
ttRp105
tp106
a(g19
g20
I3
g21
(g22
S'QString'
(Vspinach
p107
ttRp108
tp109
a(g19
g20
I3
g21
(g22
S'QString'
(Vzebra
p110
ttRp111
tp112
a(g19
g20
I3
g21
(g22
S'QString'
(Vintrusion
p113
ttRp114
tp115
a(g19
g20
I3
g21
(g22
S'QString'
(Vdesk
p116
ttRp117
tp118
a(g19
g20
I3
g21
(g22
S'QString'
(Vonion
p119
ttRp120
tp121
a(g19
g20
I3
g21
(g22
S'QString'
(Vsubway
p122
ttRp123
tp124
a(g19
g20
I4
g21
(g22
S'QString'
(Vmotorcycle
p125
ttRp126
tp127
a(g19
g20
I4
g21
(g22
S'QString'
(Vintrusion
p128
ttRp129
tp130
a(g19
g20
I4
g21
(g22
S'QString'
(Vspinach
p131
ttRp132
tp133
a(g19
g20
I4
g21
(g22
S'QString'
(Vtruck
p134
ttRp135
tp136
a(g19
g20
I4
g21
(g22
S'QString'
(Vcow
p137
ttRp138
tp139
a(g19
g20
I4
g21
(g22
S'QString'
(Vcow
p140
ttRp141
tp142
a(g19
g20
I4
g21
(g22
S'QString'
(Vonion
p143
ttRp144
tp145
a(g19
g20
I4
g21
(g22
S'QString'
(Vspinach
p146
ttRp147
tp148
a(g19
g20
I4
g21
(g22
S'QString'
(Vsubway
p149
ttRp150
tp151
a(g19
g20
I4
g21
(g22
S'QString'
(Vintrusion
p152
ttRp153
tp154
a(g19
g20
I4
g21
(g22
S'QString'
(Vzebra
p155
ttRp156
tp157
a(g19
g20
I4
g21
(g22
S'QString'
(Vgiraffe
p158
ttRp159
tp160
a(g19
g20
I4
g21
(g22
S'QString'
(Vcow
p161
ttRp162
tp163
asS'output_format'
p164
(lp165
(S'proband_id'
p166
c__builtin__
str
p167
tp168
a(S'test_name'
p169
g167
tp170
a(S'trialn'
p171
c__builtin__
int
p172
tp173
a(S'rsp'
p174
g167
tp175
asg166
g19
sS'filename'
p176
S'4370_cvlt2.data'
p177
sS'initialised'
p178
g8
(S'\x07\xdf\x04\x16\t#*\x0e\xa2\x18'
tRp179
sS'last_udated'
p180
g8
(S'\x07\xdf\x04\x16\t#*\x0e\xa2\x18'
tRp181
sg169
S'cvlt2'
p182
sS'directory'
p183
S'C:\\Users\\Jbarrett\\Charlie\\charlie\\data\\raw'
p184
sS'user_id'
p185
S'sbuccheri'
p186
sS'test_started'
p187
I01
sS'abs_filename'
p188
S'C:\\Users\\Jbarrett\\Charlie\\charlie\\data\\raw\\4370_cvlt2.data'
p189
sS'date_started'
p190
g8
(S'\x07\xdf\x04\x16\t&\x02\x0388'
tRp191
sS'log'
p192
(lp193
(S'2015-04-22 09:35:42.959000'
S'instance created'
p194
tp195
a(S'2015-04-22 09:38:02.219000'
S'instance updated'
p196
tp197
a(S'2015-04-22 09:38:02.247000'
S'pandas DataFrame of data created'
p198
tp199
a(S'2015-04-22 09:38:02.251000'
S'data saved as csv to C:\\Users\\Jbarrett\\Charlie\\charlie\\data\\csv\\4370_cvlt2.csv'
tp200
a(S'2015-04-22 09:39:08.558000'
g196
tp201
a(S'2015-04-22 09:39:08.572000'
g198
tp202
a(S'2015-04-22 09:39:08.575000'
S'data saved as csv to C:\\Users\\Jbarrett\\Charlie\\charlie\\data\\csv\\4370_cvlt2.csv'
tp203
a(S'2015-04-22 09:40:18.633000'
g196
tp204
a(S'2015-04-22 09:40:18.667000'
g198
tp205
a(S'2015-04-22 09:40:18.668000'
S'data saved as csv to C:\\Users\\Jbarrett\\Charlie\\charlie\\data\\csv\\4370_cvlt2.csv'
tp206
a(S'2015-04-22 09:41:16.213000'
g196
tp207
a(S'2015-04-22 09:41:16.242000'
g198
tp208
a(S'2015-04-22 09:41:16.244000'
S'data saved as csv to C:\\Users\\Jbarrett\\Charlie\\charlie\\data\\csv\\4370_cvlt2.csv'
tp209
a(S'2015-04-22 09:42:08.251000'
g196
tp210
a(S'2015-04-22 09:42:08.289000'
g198
tp211
a(S'2015-04-22 09:42:08.290000'
S'data saved as csv to C:\\Users\\Jbarrett\\Charlie\\charlie\\data\\csv\\4370_cvlt2.csv'
tp212
a(S'2015-04-22 09:43:16.757000'
g196
tp213
a(S'2015-04-22 09:43:16.804000'
g198
tp214
a(S'2015-04-22 09:43:16.805000'
S'data saved as csv to C:\\Users\\Jbarrett\\Charlie\\charlie\\data\\csv\\4370_cvlt2.csv'
tp215
a(S'2015-04-22 09:44:41.680000'
g196
tp216
a(S'2015-04-22 09:44:41.733000'
g198
tp217
a(S'2015-04-22 09:44:41.735000'
S'data saved as csv to C:\\Users\\Jbarrett\\Charlie\\charlie\\data\\csv\\4370_cvlt2.csv'
tp218
a(S'2015-04-22 09:45:35.412000'
g196
tp219
a(S'2015-04-22 09:45:35.463000'
g198
tp220
a(S'2015-04-22 09:45:35.465000'
S'data saved as csv to C:\\Users\\Jbarrett\\Charlie\\charlie\\data\\csv\\4370_cvlt2.csv'
tp221
a(S'2015-04-22 09:46:55.408000'
g196
tp222
a(S'2015-04-22 09:46:55.461000'
g198
tp223
a(S'2015-04-22 09:46:55.462000'
S'data saved as csv to C:\\Users\\Jbarrett\\Charlie\\charlie\\data\\csv\\4370_cvlt2.csv'
tp224
asb.