(icharlie.tools.data
Data
p1
(dp2
S'lang'
p3
S'EN'
p4
sS'control'
p5
(lp6
sS'last_updated'
p7
cdatetime
datetime
p8
(S'\x07\xdf\x04\r\n!6\x02eH'
tRp9
sS'last_opened'
p10
g8
(S'\x07\xdf\x04\r\n \r\x05Kx'
tRp11
sS'proj_id'
p12
S'connectivity'
p13
sS'date_done'
p14
NsS'test_done'
p15
I01
sS'data'
p16
(lp17
(S'4371'
p18
S'face_memory_delay'
p19
S'test'
p20
I0
S'C:\\Users\\Jbarrett\\Charlie\\charlie\\stimuli\\visual\\face_memory_delay\\ddis10.bmp'
S'No'
p21
S'Yes'
p22
I9400
tp23
a(g18
g19
g20
I1
S'C:\\Users\\Jbarrett\\Charlie\\charlie\\stimuli\\visual\\face_memory_delay\\ddis04.bmp'
g21
g22
I4210
tp24
a(g18
g19
g20
I2
S'C:\\Users\\Jbarrett\\Charlie\\charlie\\stimuli\\visual\\face_memory_delay\\tar07.bmp'
g22
g22
I2601
tp25
a(g18
g19
g20
I3
S'C:\\Users\\Jbarrett\\Charlie\\charlie\\stimuli\\visual\\face_memory_delay\\tar18.bmp'
g22
g22
I1430
tp26
a(g18
g19
g20
I4
S'C:\\Users\\Jbarrett\\Charlie\\charlie\\stimuli\\visual\\face_memory_delay\\ddis14.bmp'
g21
g22
I2600
tp27
a(g18
g19
g20
I5
S'C:\\Users\\Jbarrett\\Charlie\\charlie\\stimuli\\visual\\face_memory_delay\\tar19.bmp'
g22
g21
I870
tp28
a(g18
g19
g20
I6
S'C:\\Users\\Jbarrett\\Charlie\\charlie\\stimuli\\visual\\face_memory_delay\\ddis13.bmp'
g21
g21
I1670
tp29
a(g18
g19
g20
I7
S'C:\\Users\\Jbarrett\\Charlie\\charlie\\stimuli\\visual\\face_memory_delay\\tar15.bmp'
g22
g22
I1770
tp30
a(g18
g19
g20
I8
S'C:\\Users\\Jbarrett\\Charlie\\charlie\\stimuli\\visual\\face_memory_delay\\tar11.bmp'
g22
g22
I2360
tp31
a(g18
g19
g20
I9
S'C:\\Users\\Jbarrett\\Charlie\\charlie\\stimuli\\visual\\face_memory_delay\\ddis05.bmp'
g21
g21
I2260
tp32
a(g18
g19
g20
I10
S'C:\\Users\\Jbarrett\\Charlie\\charlie\\stimuli\\visual\\face_memory_delay\\ddis01.bmp'
g21
g22
I4321
tp33
a(g18
g19
g20
I11
S'C:\\Users\\Jbarrett\\Charlie\\charlie\\stimuli\\visual\\face_memory_delay\\ddis16.bmp'
g21
g21
I1880
tp34
a(g18
g19
g20
I12
S'C:\\Users\\Jbarrett\\Charlie\\charlie\\stimuli\\visual\\face_memory_delay\\tar02.bmp'
g22
g22
I1350
tp35
a(g18
g19
g20
I13
S'C:\\Users\\Jbarrett\\Charlie\\charlie\\stimuli\\visual\\face_memory_delay\\tar08.bmp'
g22
g22
I1540
tp36
a(g18
g19
g20
I14
S'C:\\Users\\Jbarrett\\Charlie\\charlie\\stimuli\\visual\\face_memory_delay\\tar13.bmp'
g22
g22
I2170
tp37
a(g18
g19
g20
I15
S'C:\\Users\\Jbarrett\\Charlie\\charlie\\stimuli\\visual\\face_memory_delay\\tar20.bmp'
g22
g22
I1190
tp38
a(g18
g19
g20
I16
S'C:\\Users\\Jbarrett\\Charlie\\charlie\\stimuli\\visual\\face_memory_delay\\ddis18.bmp'
g21
g21
I1070
tp39
a(g18
g19
g20
I17
S'C:\\Users\\Jbarrett\\Charlie\\charlie\\stimuli\\visual\\face_memory_delay\\tar06.bmp'
g22
g22
I1610
tp40
a(g18
g19
g20
I18
S'C:\\Users\\Jbarrett\\Charlie\\charlie\\stimuli\\visual\\face_memory_delay\\ddis07.bmp'
g21
g21
I1210
tp41
a(g18
g19
g20
I19
S'C:\\Users\\Jbarrett\\Charlie\\charlie\\stimuli\\visual\\face_memory_delay\\ddis08.bmp'
g21
g21
I2271
tp42
a(g18
g19
g20
I20
S'C:\\Users\\Jbarrett\\Charlie\\charlie\\stimuli\\visual\\face_memory_delay\\tar12.bmp'
g22
g22
I1470
tp43
a(g18
g19
g20
I21
S'C:\\Users\\Jbarrett\\Charlie\\charlie\\stimuli\\visual\\face_memory_delay\\ddis17.bmp'
g21
g21
I1270
tp44
a(g18
g19
g20
I22
S'C:\\Users\\Jbarrett\\Charlie\\charlie\\stimuli\\visual\\face_memory_delay\\tar05.bmp'
g22
g22
I2650
tp45
a(g18
g19
g20
I23
S'C:\\Users\\Jbarrett\\Charlie\\charlie\\stimuli\\visual\\face_memory_delay\\tar10.bmp'
g22
g21
I1870
tp46
a(g18
g19
g20
I24
S'C:\\Users\\Jbarrett\\Charlie\\charlie\\stimuli\\visual\\face_memory_delay\\ddis02.bmp'
g21
g21
I2020
tp47
a(g18
g19
g20
I25
S'C:\\Users\\Jbarrett\\Charlie\\charlie\\stimuli\\visual\\face_memory_delay\\ddis20.bmp'
g21
g22
I1000
tp48
a(g18
g19
g20
I26
S'C:\\Users\\Jbarrett\\Charlie\\charlie\\stimuli\\visual\\face_memory_delay\\tar17.bmp'
g22
g21
I2860
tp49
a(g18
g19
g20
I27
S'C:\\Users\\Jbarrett\\Charlie\\charlie\\stimuli\\visual\\face_memory_delay\\ddis15.bmp'
g21
g22
I2151
tp50
a(g18
g19
g20
I28
S'C:\\Users\\Jbarrett\\Charlie\\charlie\\stimuli\\visual\\face_memory_delay\\tar03.bmp'
g22
g22
I1050
tp51
a(g18
g19
g20
I29
S'C:\\Users\\Jbarrett\\Charlie\\charlie\\stimuli\\visual\\face_memory_delay\\ddis19.bmp'
g21
g21
I1260
tp52
a(g18
g19
g20
I30
S'C:\\Users\\Jbarrett\\Charlie\\charlie\\stimuli\\visual\\face_memory_delay\\ddis12.bmp'
g21
g21
I1660
tp53
a(g18
g19
g20
I31
S'C:\\Users\\Jbarrett\\Charlie\\charlie\\stimuli\\visual\\face_memory_delay\\tar16.bmp'
g22
g22
I920
tp54
a(g18
g19
g20
I32
S'C:\\Users\\Jbarrett\\Charlie\\charlie\\stimuli\\visual\\face_memory_delay\\tar09.bmp'
g22
g21
I1580
tp55
a(g18
g19
g20
I33
S'C:\\Users\\Jbarrett\\Charlie\\charlie\\stimuli\\visual\\face_memory_delay\\ddis09.bmp'
g21
g22
I1450
tp56
a(g18
g19
g20
I34
S'C:\\Users\\Jbarrett\\Charlie\\charlie\\stimuli\\visual\\face_memory_delay\\tar01.bmp'
g22
g21
I4080
tp57
a(g18
g19
g20
I35
S'C:\\Users\\Jbarrett\\Charlie\\charlie\\stimuli\\visual\\face_memory_delay\\ddis11.bmp'
g21
g22
I1070
tp58
a(g18
g19
g20
I36
S'C:\\Users\\Jbarrett\\Charlie\\charlie\\stimuli\\visual\\face_memory_delay\\ddis03.bmp'
g21
g22
I1380
tp59
a(g18
g19
g20
I37
S'C:\\Users\\Jbarrett\\Charlie\\charlie\\stimuli\\visual\\face_memory_delay\\tar04.bmp'
g22
g22
I820
tp60
a(g18
g19
g20
I38
S'C:\\Users\\Jbarrett\\Charlie\\charlie\\stimuli\\visual\\face_memory_delay\\tar14.bmp'
g22
g22
I1181
tp61
a(g18
g19
g20
I39
S'C:\\Users\\Jbarrett\\Charlie\\charlie\\stimuli\\visual\\face_memory_delay\\ddis06.bmp'
p62
g21
g21
I900
tp63
asS'output_format'
p64
(lp65
(S'proband_id'
p66
c__builtin__
str
p67
tp68
a(S'test_name'
p69
g67
tp70
a(S'phase'
p71
g67
tp72
a(S'trialn'
p73
c__builtin__
int
p74
tp75
a(S'f'
g67
tp76
a(S'ans'
p77
g67
tp78
a(S'rsp'
p79
g67
tp80
a(S'rt'
p81
g74
tp82
asg66
g18
sS'filename'
p83
S'4371_face_memory_delay.data'
p84
sS'initialised'
p85
g8
(S'\x07\xdf\x04\r\n \r\x05Kx'
tRp86
sS'last_udated'
p87
g8
(S'\x07\xdf\x04\r\n \r\x05Kx'
tRp88
sg69
S'face_memory_delay'
p89
sS'directory'
p90
S'C:\\Users\\Jbarrett\\Charlie\\charlie\\data\\raw'
p91
sS'user_id'
p92
S'jbarrett'
p93
sS'test_started'
p94
I01
sS'abs_filename'
p95
S'C:\\Users\\Jbarrett\\Charlie\\charlie\\data\\raw\\4371_face_memory_delay.data'
p96
sS'date_started'
p97
g8
(S'\x07\xdf\x04\r\n $\x04:\x08'
tRp98
sS'log'
p99
(lp100
(S'2015-04-13 10:32:13.347000'
S'instance created'
p101
tp102
a(S'2015-04-13 10:32:36.286000'
S'instance updated'
p103
tp104
a(S'2015-04-13 10:32:36.295000'
S'pandas DataFrame of data created'
p105
tp106
a(S'2015-04-13 10:32:36.298000'
S'data saved as csv to C:\\Users\\Jbarrett\\Charlie\\charlie\\data\\csv\\4371_face_memory_delay.csv'
tp107
a(S'2015-04-13 10:32:40.634000'
g103
tp108
a(S'2015-04-13 10:32:40.643000'
g105
tp109
a(S'2015-04-13 10:32:40.645000'
S'data saved as csv to C:\\Users\\Jbarrett\\Charlie\\charlie\\data\\csv\\4371_face_memory_delay.csv'
tp110
a(S'2015-04-13 10:32:43.374000'
g103
tp111
a(S'2015-04-13 10:32:43.383000'
g105
tp112
a(S'2015-04-13 10:32:43.387000'
S'data saved as csv to C:\\Users\\Jbarrett\\Charlie\\charlie\\data\\csv\\4371_face_memory_delay.csv'
tp113
a(S'2015-04-13 10:32:44.945000'
g103
tp114
a(S'2015-04-13 10:32:44.954000'
g105
tp115
a(S'2015-04-13 10:32:44.957000'
S'data saved as csv to C:\\Users\\Jbarrett\\Charlie\\charlie\\data\\csv\\4371_face_memory_delay.csv'
tp116
a(S'2015-04-13 10:32:47.686000'
g103
tp117
a(S'2015-04-13 10:32:47.695000'
g105
tp118
a(S'2015-04-13 10:32:47.699000'
S'data saved as csv to C:\\Users\\Jbarrett\\Charlie\\charlie\\data\\csv\\4371_face_memory_delay.csv'
tp119
a(S'2015-04-13 10:32:50.068000'
g103
tp120
a(S'2015-04-13 10:32:50.077000'
g105
tp121
a(S'2015-04-13 10:32:50.080000'
S'data saved as csv to C:\\Users\\Jbarrett\\Charlie\\charlie\\data\\csv\\4371_face_memory_delay.csv'
tp122
a(S'2015-04-13 10:32:51.878000'
g103
tp123
a(S'2015-04-13 10:32:51.887000'
g105
tp124
a(S'2015-04-13 10:32:51.891000'
S'data saved as csv to C:\\Users\\Jbarrett\\Charlie\\charlie\\data\\csv\\4371_face_memory_delay.csv'
tp125
a(S'2015-04-13 10:32:53.789000'
g103
tp126
a(S'2015-04-13 10:32:53.798000'
g105
tp127
a(S'2015-04-13 10:32:53.802000'
S'data saved as csv to C:\\Users\\Jbarrett\\Charlie\\charlie\\data\\csv\\4371_face_memory_delay.csv'
tp128
a(S'2015-04-13 10:32:56.291000'
g103
tp129
a(S'2015-04-13 10:32:56.300000'
g105
tp130
a(S'2015-04-13 10:32:56.302000'
S'data saved as csv to C:\\Users\\Jbarrett\\Charlie\\charlie\\data\\csv\\4371_face_memory_delay.csv'
tp131
a(S'2015-04-13 10:32:58.691000'
g103
tp132
a(S'2015-04-13 10:32:58.700000'
g105
tp133
a(S'2015-04-13 10:32:58.702000'
S'data saved as csv to C:\\Users\\Jbarrett\\Charlie\\charlie\\data\\csv\\4371_face_memory_delay.csv'
tp134
a(S'2015-04-13 10:33:03.150000'
g103
tp135
a(S'2015-04-13 10:33:03.159000'
g105
tp136
a(S'2015-04-13 10:33:03.163000'
S'data saved as csv to C:\\Users\\Jbarrett\\Charlie\\charlie\\data\\csv\\4371_face_memory_delay.csv'
tp137
a(S'2015-04-13 10:33:05.173000'
g103
tp138
a(S'2015-04-13 10:33:05.181000'
g105
tp139
a(S'2015-04-13 10:33:05.183000'
S'data saved as csv to C:\\Users\\Jbarrett\\Charlie\\charlie\\data\\csv\\4371_face_memory_delay.csv'
tp140
a(S'2015-04-13 10:33:06.659000'
g103
tp141
a(S'2015-04-13 10:33:06.668000'
g105
tp142
a(S'2015-04-13 10:33:06.672000'
S'data saved as csv to C:\\Users\\Jbarrett\\Charlie\\charlie\\data\\csv\\4371_face_memory_delay.csv'
tp143
a(S'2015-04-13 10:33:08.340000'
g103
tp144
a(S'2015-04-13 10:33:08.349000'
g105
tp145
a(S'2015-04-13 10:33:08.353000'
S'data saved as csv to C:\\Users\\Jbarrett\\Charlie\\charlie\\data\\csv\\4371_face_memory_delay.csv'
tp146
a(S'2015-04-13 10:33:10.653000'
g103
tp147
a(S'2015-04-13 10:33:10.662000'
g105
tp148
a(S'2015-04-13 10:33:10.666000'
S'data saved as csv to C:\\Users\\Jbarrett\\Charlie\\charlie\\data\\csv\\4371_face_memory_delay.csv'
tp149
a(S'2015-04-13 10:33:11.985000'
g103
tp150
a(S'2015-04-13 10:33:11.993000'
g105
tp151
a(S'2015-04-13 10:33:11.995000'
S'data saved as csv to C:\\Users\\Jbarrett\\Charlie\\charlie\\data\\csv\\4371_face_memory_delay.csv'
tp152
a(S'2015-04-13 10:33:13.192000'
g103
tp153
a(S'2015-04-13 10:33:13.201000'
g105
tp154
a(S'2015-04-13 10:33:13.205000'
S'data saved as csv to C:\\Users\\Jbarrett\\Charlie\\charlie\\data\\csv\\4371_face_memory_delay.csv'
tp155
a(S'2015-04-13 10:33:14.943000'
g103
tp156
a(S'2015-04-13 10:33:14.952000'
g105
tp157
a(S'2015-04-13 10:33:14.956000'
S'data saved as csv to C:\\Users\\Jbarrett\\Charlie\\charlie\\data\\csv\\4371_face_memory_delay.csv'
tp158
a(S'2015-04-13 10:33:16.293000'
g103
tp159
a(S'2015-04-13 10:33:16.302000'
g105
tp160
a(S'2015-04-13 10:33:16.306000'
S'data saved as csv to C:\\Users\\Jbarrett\\Charlie\\charlie\\data\\csv\\4371_face_memory_delay.csv'
tp161
a(S'2015-04-13 10:33:18.705000'
g103
tp162
a(S'2015-04-13 10:33:18.714000'
g105
tp163
a(S'2015-04-13 10:33:18.718000'
S'data saved as csv to C:\\Users\\Jbarrett\\Charlie\\charlie\\data\\csv\\4371_face_memory_delay.csv'
tp164
a(S'2015-04-13 10:33:20.317000'
g103
tp165
a(S'2015-04-13 10:33:20.326000'
g105
tp166
a(S'2015-04-13 10:33:20.329000'
S'data saved as csv to C:\\Users\\Jbarrett\\Charlie\\charlie\\data\\csv\\4371_face_memory_delay.csv'
tp167
a(S'2015-04-13 10:33:21.727000'
g103
tp168
a(S'2015-04-13 10:33:21.736000'
g105
tp169
a(S'2015-04-13 10:33:21.739000'
S'data saved as csv to C:\\Users\\Jbarrett\\Charlie\\charlie\\data\\csv\\4371_face_memory_delay.csv'
tp170
a(S'2015-04-13 10:33:24.517000'
g103
tp171
a(S'2015-04-13 10:33:24.526000'
g105
tp172
a(S'2015-04-13 10:33:24.529000'
S'data saved as csv to C:\\Users\\Jbarrett\\Charlie\\charlie\\data\\csv\\4371_face_memory_delay.csv'
tp173
a(S'2015-04-13 10:33:26.527000'
g103
tp174
a(S'2015-04-13 10:33:26.536000'
g105
tp175
a(S'2015-04-13 10:33:26.540000'
S'data saved as csv to C:\\Users\\Jbarrett\\Charlie\\charlie\\data\\csv\\4371_face_memory_delay.csv'
tp176
a(S'2015-04-13 10:33:28.688000'
g103
tp177
a(S'2015-04-13 10:33:28.697000'
g105
tp178
a(S'2015-04-13 10:33:28.700000'
S'data saved as csv to C:\\Users\\Jbarrett\\Charlie\\charlie\\data\\csv\\4371_face_memory_delay.csv'
tp179
a(S'2015-04-13 10:33:29.827000'
g103
tp180
a(S'2015-04-13 10:33:29.836000'
g105
tp181
a(S'2015-04-13 10:33:29.839000'
S'data saved as csv to C:\\Users\\Jbarrett\\Charlie\\charlie\\data\\csv\\4371_face_memory_delay.csv'
tp182
a(S'2015-04-13 10:33:32.828000'
g103
tp183
a(S'2015-04-13 10:33:32.837000'
g105
tp184
a(S'2015-04-13 10:33:32.839000'
S'data saved as csv to C:\\Users\\Jbarrett\\Charlie\\charlie\\data\\csv\\4371_face_memory_delay.csv'
tp185
a(S'2015-04-13 10:33:35.118000'
g103
tp186
a(S'2015-04-13 10:33:35.127000'
g105
tp187
a(S'2015-04-13 10:33:35.131000'
S'data saved as csv to C:\\Users\\Jbarrett\\Charlie\\charlie\\data\\csv\\4371_face_memory_delay.csv'
tp188
a(S'2015-04-13 10:33:36.310000'
g103
tp189
a(S'2015-04-13 10:33:36.319000'
g105
tp190
a(S'2015-04-13 10:33:36.321000'
S'data saved as csv to C:\\Users\\Jbarrett\\Charlie\\charlie\\data\\csv\\4371_face_memory_delay.csv'
tp191
a(S'2015-04-13 10:33:37.708000'
g103
tp192
a(S'2015-04-13 10:33:37.717000'
g105
tp193
a(S'2015-04-13 10:33:37.721000'
S'data saved as csv to C:\\Users\\Jbarrett\\Charlie\\charlie\\data\\csv\\4371_face_memory_delay.csv'
tp194
a(S'2015-04-13 10:33:39.510000'
g103
tp195
a(S'2015-04-13 10:33:39.519000'
g105
tp196
a(S'2015-04-13 10:33:39.523000'
S'data saved as csv to C:\\Users\\Jbarrett\\Charlie\\charlie\\data\\csv\\4371_face_memory_delay.csv'
tp197
a(S'2015-04-13 10:33:40.572000'
g103
tp198
a(S'2015-04-13 10:33:40.582000'
g105
tp199
a(S'2015-04-13 10:33:40.586000'
S'data saved as csv to C:\\Users\\Jbarrett\\Charlie\\charlie\\data\\csv\\4371_face_memory_delay.csv'
tp200
a(S'2015-04-13 10:33:42.283000'
g103
tp201
a(S'2015-04-13 10:33:42.287000'
g105
tp202
a(S'2015-04-13 10:33:42.289000'
S'data saved as csv to C:\\Users\\Jbarrett\\Charlie\\charlie\\data\\csv\\4371_face_memory_delay.csv'
tp203
a(S'2015-04-13 10:33:43.866000'
g103
tp204
a(S'2015-04-13 10:33:43.875000'
g105
tp205
a(S'2015-04-13 10:33:43.879000'
S'data saved as csv to C:\\Users\\Jbarrett\\Charlie\\charlie\\data\\csv\\4371_face_memory_delay.csv'
tp206
a(S'2015-04-13 10:33:48.087000'
g103
tp207
a(S'2015-04-13 10:33:48.097000'
g105
tp208
a(S'2015-04-13 10:33:48.101000'
S'data saved as csv to C:\\Users\\Jbarrett\\Charlie\\charlie\\data\\csv\\4371_face_memory_delay.csv'
tp209
a(S'2015-04-13 10:33:49.301000'
g103
tp210
a(S'2015-04-13 10:33:49.309000'
g105
tp211
a(S'2015-04-13 10:33:49.312000'
S'data saved as csv to C:\\Users\\Jbarrett\\Charlie\\charlie\\data\\csv\\4371_face_memory_delay.csv'
tp212
a(S'2015-04-13 10:33:50.819000'
g103
tp213
a(S'2015-04-13 10:33:50.828000'
g105
tp214
a(S'2015-04-13 10:33:50.832000'
S'data saved as csv to C:\\Users\\Jbarrett\\Charlie\\charlie\\data\\csv\\4371_face_memory_delay.csv'
tp215
a(S'2015-04-13 10:33:51.781000'
g103
tp216
a(S'2015-04-13 10:33:51.791000'
g105
tp217
a(S'2015-04-13 10:33:51.794000'
S'data saved as csv to C:\\Users\\Jbarrett\\Charlie\\charlie\\data\\csv\\4371_face_memory_delay.csv'
tp218
a(S'2015-04-13 10:33:53.102000'
g103
tp219
a(S'2015-04-13 10:33:53.111000'
g105
tp220
a(S'2015-04-13 10:33:53.115000'
S'data saved as csv to C:\\Users\\Jbarrett\\Charlie\\charlie\\data\\csv\\4371_face_memory_delay.csv'
tp221
a(S'2015-04-13 10:33:54.143000'
g103
tp222
a(S'2015-04-13 10:33:54.152000'
g105
tp223
a(S'2015-04-13 10:33:54.157000'
S'data saved as csv to C:\\Users\\Jbarrett\\Charlie\\charlie\\data\\csv\\4371_face_memory_delay.csv'
tp224
asb.