(icharlie.tools.data
Data
p1
(dp2
S'lang'
p3
S'EN'
p4
sS'control'
p5
(lp6
sS'last_updated'
p7
cdatetime
datetime
p8
(S'\x07\xdf\x04\r\n\x1b\t\x08\x16P'
tRp9
sS'last_opened'
p10
g8
(S'\x07\xdf\x04\r\n\x11\x14\x0c\x83 '
tRp11
sS'proj_id'
p12
S'connectivity'
p13
sS'date_done'
p14
NsS'test_done'
p15
I01
sS'data'
p16
(lp17
(S'4371'
p18
S'stroop'
p19
S'practice'
p20
I0
S'n/a'
p21
S'C:\\Users\\Jbarrett\\Charlie\\charlie\\stimuli\\visual\\stroop\\prac_1.png'
S'Right'
p22
g22
I4480
tp23
a(g18
g19
g20
I1
g21
S'C:\\Users\\Jbarrett\\Charlie\\charlie\\stimuli\\visual\\stroop\\prac_2.png'
S'Left'
p24
g24
I3000
tp25
a(g18
g19
g20
I2
g21
S'C:\\Users\\Jbarrett\\Charlie\\charlie\\stimuli\\visual\\stroop\\prac_3.png'
g22
g22
I1601
tp26
a(g18
g19
g20
I3
g21
S'C:\\Users\\Jbarrett\\Charlie\\charlie\\stimuli\\visual\\stroop\\prac_4.png'
g22
g22
I1050
tp27
a(g18
g19
S'test'
p28
I0
S'Incongruent'
p29
S'C:\\Users\\Jbarrett\\Charlie\\charlie\\stimuli\\visual\\stroop\\6-Incongruent.png'
g24
g24
I2130
tp30
a(g18
g19
g28
I1
S'Congruent'
p31
S'C:\\Users\\Jbarrett\\Charlie\\charlie\\stimuli\\visual\\stroop\\30-Congruent.png'
g24
g24
I1711
tp32
a(g18
g19
g28
I2
g31
S'C:\\Users\\Jbarrett\\Charlie\\charlie\\stimuli\\visual\\stroop\\3-Congruent.png'
g22
g22
I1300
tp33
a(g18
g19
g28
I3
g29
S'C:\\Users\\Jbarrett\\Charlie\\charlie\\stimuli\\visual\\stroop\\23-Incongruent.png'
g24
g24
I1410
tp34
a(g18
g19
g28
I4
g31
S'C:\\Users\\Jbarrett\\Charlie\\charlie\\stimuli\\visual\\stroop\\39-Congruent.png'
g24
g24
I3980
tp35
a(g18
g19
g28
I5
g31
S'C:\\Users\\Jbarrett\\Charlie\\charlie\\stimuli\\visual\\stroop\\45-Congruent.png'
g24
g24
I1480
tp36
a(g18
g19
g28
I6
g29
S'C:\\Users\\Jbarrett\\Charlie\\charlie\\stimuli\\visual\\stroop\\31-Incongruent.png'
g22
g22
I3310
tp37
a(g18
g19
g28
I7
g29
S'C:\\Users\\Jbarrett\\Charlie\\charlie\\stimuli\\visual\\stroop\\28-Incongruent.png'
g24
g24
I3080
tp38
a(g18
g19
g28
I8
g31
S'C:\\Users\\Jbarrett\\Charlie\\charlie\\stimuli\\visual\\stroop\\31-Congruent.png'
g24
g22
I2731
tp39
a(g18
g19
g28
I9
g31
S'C:\\Users\\Jbarrett\\Charlie\\charlie\\stimuli\\visual\\stroop\\10-Congruent.png'
g22
g22
I2230
tp40
a(g18
g19
g28
I10
g29
S'C:\\Users\\Jbarrett\\Charlie\\charlie\\stimuli\\visual\\stroop\\10-Incongruent.png'
g24
g24
I1890
tp41
a(g18
g19
g28
I11
g29
S'C:\\Users\\Jbarrett\\Charlie\\charlie\\stimuli\\visual\\stroop\\24-Incongruent.png'
g24
g24
I2240
tp42
a(g18
g19
g28
I12
g31
S'C:\\Users\\Jbarrett\\Charlie\\charlie\\stimuli\\visual\\stroop\\34-Congruent.png'
g24
g24
I1420
tp43
a(g18
g19
g28
I13
g31
S'C:\\Users\\Jbarrett\\Charlie\\charlie\\stimuli\\visual\\stroop\\38-Congruent.png'
g24
g24
I1390
tp44
a(g18
g19
g28
I14
g31
S'C:\\Users\\Jbarrett\\Charlie\\charlie\\stimuli\\visual\\stroop\\42-Congruent.png'
g24
g24
I1040
tp45
a(g18
g19
g28
I15
g31
S'C:\\Users\\Jbarrett\\Charlie\\charlie\\stimuli\\visual\\stroop\\17-Congruent.png'
g22
g22
I1290
tp46
a(g18
g19
g28
I16
g29
S'C:\\Users\\Jbarrett\\Charlie\\charlie\\stimuli\\visual\\stroop\\42-Incongruent.png'
g22
g22
I1500
tp47
a(g18
g19
g28
I17
g29
S'C:\\Users\\Jbarrett\\Charlie\\charlie\\stimuli\\visual\\stroop\\36-Incongruent.png'
g22
g22
I1611
tp48
a(g18
g19
g28
I18
g29
S'C:\\Users\\Jbarrett\\Charlie\\charlie\\stimuli\\visual\\stroop\\43-Incongruent.png'
g22
g22
I1410
tp49
a(g18
g19
g28
I19
g31
S'C:\\Users\\Jbarrett\\Charlie\\charlie\\stimuli\\visual\\stroop\\49-Congruent.png'
g24
g24
I3430
tp50
a(g18
g19
g28
I20
g31
S'C:\\Users\\Jbarrett\\Charlie\\charlie\\stimuli\\visual\\stroop\\43-Congruent.png'
g24
g22
I2560
tp51
a(g18
g19
g28
I21
g29
S'C:\\Users\\Jbarrett\\Charlie\\charlie\\stimuli\\visual\\stroop\\15-Incongruent.png'
g24
g24
I1640
tp52
a(g18
g19
g28
I22
g29
S'C:\\Users\\Jbarrett\\Charlie\\charlie\\stimuli\\visual\\stroop\\35-Incongruent.png'
g22
g22
I1900
tp53
a(g18
g19
g28
I23
g29
S'C:\\Users\\Jbarrett\\Charlie\\charlie\\stimuli\\visual\\stroop\\44-Incongruent.png'
g22
g22
I1370
tp54
a(g18
g19
g28
I24
g29
S'C:\\Users\\Jbarrett\\Charlie\\charlie\\stimuli\\visual\\stroop\\47-Incongruent.png'
g22
g22
I1130
tp55
a(g18
g19
g28
I25
g29
S'C:\\Users\\Jbarrett\\Charlie\\charlie\\stimuli\\visual\\stroop\\40-Incongruent.png'
g22
g22
I1320
tp56
a(g18
g19
g28
I26
g29
S'C:\\Users\\Jbarrett\\Charlie\\charlie\\stimuli\\visual\\stroop\\25-Incongruent.png'
g24
g24
I4301
tp57
a(g18
g19
g28
I27
g29
S'C:\\Users\\Jbarrett\\Charlie\\charlie\\stimuli\\visual\\stroop\\27-Incongruent.png'
g24
g24
I1290
tp58
a(g18
g19
g28
I28
g29
S'C:\\Users\\Jbarrett\\Charlie\\charlie\\stimuli\\visual\\stroop\\56-Incongruent.png'
g22
g22
I1690
tp59
a(g18
g19
g28
I29
g31
S'C:\\Users\\Jbarrett\\Charlie\\charlie\\stimuli\\visual\\stroop\\2-Congruent.png'
g22
g22
I900
tp60
a(g18
g19
g28
I30
g29
S'C:\\Users\\Jbarrett\\Charlie\\charlie\\stimuli\\visual\\stroop\\17-Incongruent.png'
g24
g24
I1380
tp61
a(g18
g19
g28
I31
g31
S'C:\\Users\\Jbarrett\\Charlie\\charlie\\stimuli\\visual\\stroop\\12-Congruent.png'
g22
g22
I1420
tp62
a(g18
g19
g28
I32
g29
S'C:\\Users\\Jbarrett\\Charlie\\charlie\\stimuli\\visual\\stroop\\12-Incongruent.png'
g24
g24
I1300
tp63
a(g18
g19
g28
I33
g29
S'C:\\Users\\Jbarrett\\Charlie\\charlie\\stimuli\\visual\\stroop\\26-Incongruent.png'
g24
g24
I1320
tp64
a(g18
g19
g28
I34
g31
S'C:\\Users\\Jbarrett\\Charlie\\charlie\\stimuli\\visual\\stroop\\19-Congruent.png'
g22
g22
I1370
tp65
a(g18
g19
g28
I35
g31
S'C:\\Users\\Jbarrett\\Charlie\\charlie\\stimuli\\visual\\stroop\\23-Congruent.png'
g22
g22
I1390
tp66
a(g18
g19
g28
I36
g31
S'C:\\Users\\Jbarrett\\Charlie\\charlie\\stimuli\\visual\\stroop\\35-Congruent.png'
g24
g24
I1531
tp67
a(g18
g19
g28
I37
g31
S'C:\\Users\\Jbarrett\\Charlie\\charlie\\stimuli\\visual\\stroop\\46-Congruent.png'
g24
g24
I980
tp68
a(g18
g19
g28
I38
g29
S'C:\\Users\\Jbarrett\\Charlie\\charlie\\stimuli\\visual\\stroop\\8-Incongruent.png'
g24
g24
I1420
tp69
a(g18
g19
g28
I39
g31
S'C:\\Users\\Jbarrett\\Charlie\\charlie\\stimuli\\visual\\stroop\\29-Congruent.png'
g24
g24
I1090
tp70
a(g18
g19
g28
I40
g31
S'C:\\Users\\Jbarrett\\Charlie\\charlie\\stimuli\\visual\\stroop\\14-Congruent.png'
g22
g22
I990
tp71
a(g18
g19
g28
I41
g31
S'C:\\Users\\Jbarrett\\Charlie\\charlie\\stimuli\\visual\\stroop\\33-Congruent.png'
g24
g24
I800
tp72
a(g18
g19
g28
I42
g29
S'C:\\Users\\Jbarrett\\Charlie\\charlie\\stimuli\\visual\\stroop\\13-Incongruent.png'
g24
g24
I1450
tp73
a(g18
g19
g28
I43
g29
S'C:\\Users\\Jbarrett\\Charlie\\charlie\\stimuli\\visual\\stroop\\55-Incongruent.png'
g22
g22
I1800
tp74
a(g18
g19
g28
I44
g31
S'C:\\Users\\Jbarrett\\Charlie\\charlie\\stimuli\\visual\\stroop\\54-Congruent.png'
g24
g24
I2120
tp75
a(g18
g19
g28
I45
g31
S'C:\\Users\\Jbarrett\\Charlie\\charlie\\stimuli\\visual\\stroop\\8-Congruent.png'
g22
g22
I970
tp76
a(g18
g19
g28
I46
g31
S'C:\\Users\\Jbarrett\\Charlie\\charlie\\stimuli\\visual\\stroop\\13-Congruent.png'
g22
g22
I1030
tp77
a(g18
g19
g28
I47
g31
S'C:\\Users\\Jbarrett\\Charlie\\charlie\\stimuli\\visual\\stroop\\40-Congruent.png'
g24
g24
I1620
tp78
a(g18
g19
g28
I48
g29
S'C:\\Users\\Jbarrett\\Charlie\\charlie\\stimuli\\visual\\stroop\\9-Incongruent.png'
g24
g24
I1311
tp79
a(g18
g19
g28
I49
g31
S'C:\\Users\\Jbarrett\\Charlie\\charlie\\stimuli\\visual\\stroop\\50-Congruent.png'
g24
g24
I2210
tp80
a(g18
g19
g28
I50
g31
S'C:\\Users\\Jbarrett\\Charlie\\charlie\\stimuli\\visual\\stroop\\5-Congruent.png'
g22
g22
I910
tp81
a(g18
g19
g28
I51
g29
S'C:\\Users\\Jbarrett\\Charlie\\charlie\\stimuli\\visual\\stroop\\5-Incongruent.png'
g24
g24
I1290
tp82
a(g18
g19
g28
I52
g29
S'C:\\Users\\Jbarrett\\Charlie\\charlie\\stimuli\\visual\\stroop\\53-Incongruent.png'
g22
g22
I1760
tp83
a(g18
g19
g28
I53
g29
S'C:\\Users\\Jbarrett\\Charlie\\charlie\\stimuli\\visual\\stroop\\1-Incongruent.png'
g24
g24
I1700
tp84
a(g18
g19
g28
I54
g31
S'C:\\Users\\Jbarrett\\Charlie\\charlie\\stimuli\\visual\\stroop\\28-Congruent.png'
g22
g22
I1500
tp85
a(g18
g19
g28
I55
g29
S'C:\\Users\\Jbarrett\\Charlie\\charlie\\stimuli\\visual\\stroop\\34-Incongruent.png'
g22
g22
I3910
tp86
a(g18
g19
g28
I56
g29
S'C:\\Users\\Jbarrett\\Charlie\\charlie\\stimuli\\visual\\stroop\\20-Incongruent.png'
g24
g24
I1190
tp87
a(g18
g19
g28
I57
g29
S'C:\\Users\\Jbarrett\\Charlie\\charlie\\stimuli\\visual\\stroop\\38-Incongruent.png'
g22
g22
I3331
tp88
a(g18
g19
g28
I58
g29
S'C:\\Users\\Jbarrett\\Charlie\\charlie\\stimuli\\visual\\stroop\\32-Incongruent.png'
g22
g22
I4010
tp89
a(g18
g19
g28
I59
g31
S'C:\\Users\\Jbarrett\\Charlie\\charlie\\stimuli\\visual\\stroop\\9-Congruent.png'
g22
g22
I4420
tp90
a(g18
g19
g28
I60
g31
S'C:\\Users\\Jbarrett\\Charlie\\charlie\\stimuli\\visual\\stroop\\55-Congruent.png'
g24
g24
I5080
tp91
a(g18
g19
g28
I61
g29
S'C:\\Users\\Jbarrett\\Charlie\\charlie\\stimuli\\visual\\stroop\\33-Incongruent.png'
g22
g22
I2381
tp92
a(g18
g19
g28
I62
g29
S'C:\\Users\\Jbarrett\\Charlie\\charlie\\stimuli\\visual\\stroop\\49-Incongruent.png'
g22
g22
I3830
tp93
a(g18
g19
g28
I63
g31
S'C:\\Users\\Jbarrett\\Charlie\\charlie\\stimuli\\visual\\stroop\\4-Congruent.png'
g22
g22
I860
tp94
a(g18
g19
g28
I64
g31
S'C:\\Users\\Jbarrett\\Charlie\\charlie\\stimuli\\visual\\stroop\\6-Congruent.png'
g22
g22
I2870
tp95
a(g18
g19
g28
I65
g31
S'C:\\Users\\Jbarrett\\Charlie\\charlie\\stimuli\\visual\\stroop\\48-Congruent.png'
g24
g24
I1330
tp96
a(g18
g19
g28
I66
g31
S'C:\\Users\\Jbarrett\\Charlie\\charlie\\stimuli\\visual\\stroop\\52-Congruent.png'
g24
g24
I4620
tp97
a(g18
g19
g28
I67
g31
S'C:\\Users\\Jbarrett\\Charlie\\charlie\\stimuli\\visual\\stroop\\51-Congruent.png'
g24
g24
I1380
tp98
a(g18
g19
g28
I68
g31
S'C:\\Users\\Jbarrett\\Charlie\\charlie\\stimuli\\visual\\stroop\\16-Congruent.png'
g22
g22
I2391
tp99
a(g18
g19
g28
I69
g31
S'C:\\Users\\Jbarrett\\Charlie\\charlie\\stimuli\\visual\\stroop\\24-Congruent.png'
g22
g22
I1640
tp100
a(g18
g19
g28
I70
g29
S'C:\\Users\\Jbarrett\\Charlie\\charlie\\stimuli\\visual\\stroop\\41-Incongruent.png'
g22
g22
I970
tp101
a(g18
g19
g28
I71
g29
S'C:\\Users\\Jbarrett\\Charlie\\charlie\\stimuli\\visual\\stroop\\48-Incongruent.png'
g22
g22
I960
tp102
a(g18
g19
g28
I72
g29
S'C:\\Users\\Jbarrett\\Charlie\\charlie\\stimuli\\visual\\stroop\\4-Incongruent.png'
g24
g24
I1580
tp103
a(g18
g19
g28
I73
g29
S'C:\\Users\\Jbarrett\\Charlie\\charlie\\stimuli\\visual\\stroop\\54-Incongruent.png'
g22
g22
I1840
tp104
a(g18
g19
g28
I74
g29
S'C:\\Users\\Jbarrett\\Charlie\\charlie\\stimuli\\visual\\stroop\\39-Incongruent.png'
g22
g22
I1120
tp105
a(g18
g19
g28
I75
g31
S'C:\\Users\\Jbarrett\\Charlie\\charlie\\stimuli\\visual\\stroop\\56-Congruent.png'
g24
g24
I1260
tp106
a(g18
g19
g28
I76
g29
S'C:\\Users\\Jbarrett\\Charlie\\charlie\\stimuli\\visual\\stroop\\46-Incongruent.png'
g22
g22
I940
tp107
a(g18
g19
g28
I77
g31
S'C:\\Users\\Jbarrett\\Charlie\\charlie\\stimuli\\visual\\stroop\\22-Congruent.png'
g22
g22
I780
tp108
a(g18
g19
g28
I78
g29
S'C:\\Users\\Jbarrett\\Charlie\\charlie\\stimuli\\visual\\stroop\\21-Incongruent.png'
g24
g24
I1221
tp109
a(g18
g19
g28
I79
g29
S'C:\\Users\\Jbarrett\\Charlie\\charlie\\stimuli\\visual\\stroop\\37-Incongruent.png'
g22
g22
I2091
tp110
a(g18
g19
g28
I80
g29
S'C:\\Users\\Jbarrett\\Charlie\\charlie\\stimuli\\visual\\stroop\\2-Incongruent.png'
g24
g24
I1060
tp111
a(g18
g19
g28
I81
g31
S'C:\\Users\\Jbarrett\\Charlie\\charlie\\stimuli\\visual\\stroop\\21-Congruent.png'
g22
g22
I800
tp112
a(g18
g19
g28
I82
g29
S'C:\\Users\\Jbarrett\\Charlie\\charlie\\stimuli\\visual\\stroop\\7-Incongruent.png'
g24
g24
I1240
tp113
a(g18
g19
g28
I83
g31
S'C:\\Users\\Jbarrett\\Charlie\\charlie\\stimuli\\visual\\stroop\\20-Congruent.png'
g22
g22
I870
tp114
a(g18
g19
g28
I84
g31
S'C:\\Users\\Jbarrett\\Charlie\\charlie\\stimuli\\visual\\stroop\\15-Congruent.png'
g22
g22
I1270
tp115
a(g18
g19
g28
I85
g31
S'C:\\Users\\Jbarrett\\Charlie\\charlie\\stimuli\\visual\\stroop\\26-Congruent.png'
g22
g22
I930
tp116
a(g18
g19
g28
I86
g29
S'C:\\Users\\Jbarrett\\Charlie\\charlie\\stimuli\\visual\\stroop\\16-Incongruent.png'
g24
g24
I1040
tp117
a(g18
g19
g28
I87
g29
S'C:\\Users\\Jbarrett\\Charlie\\charlie\\stimuli\\visual\\stroop\\50-Incongruent.png'
g22
g22
I1120
tp118
a(g18
g19
g28
I88
g31
S'C:\\Users\\Jbarrett\\Charlie\\charlie\\stimuli\\visual\\stroop\\41-Congruent.png'
g24
g22
I1280
tp119
a(g18
g19
g28
I89
g31
S'C:\\Users\\Jbarrett\\Charlie\\charlie\\stimuli\\visual\\stroop\\25-Congruent.png'
g22
g22
I3430
tp120
a(g18
g19
g28
I90
g31
S'C:\\Users\\Jbarrett\\Charlie\\charlie\\stimuli\\visual\\stroop\\27-Congruent.png'
g22
g22
I1260
tp121
a(g18
g19
g28
I91
g29
S'C:\\Users\\Jbarrett\\Charlie\\charlie\\stimuli\\visual\\stroop\\18-Incongruent.png'
g24
g24
I1351
tp122
a(g18
g19
g28
I92
g29
S'C:\\Users\\Jbarrett\\Charlie\\charlie\\stimuli\\visual\\stroop\\30-Incongruent.png'
g22
g22
I1390
tp123
a(g18
g19
g28
I93
g31
S'C:\\Users\\Jbarrett\\Charlie\\charlie\\stimuli\\visual\\stroop\\44-Congruent.png'
g24
g24
I1050
tp124
a(g18
g19
g28
I94
g31
S'C:\\Users\\Jbarrett\\Charlie\\charlie\\stimuli\\visual\\stroop\\37-Congruent.png'
g24
g24
I2230
tp125
a(g18
g19
g28
I95
g29
S'C:\\Users\\Jbarrett\\Charlie\\charlie\\stimuli\\visual\\stroop\\11-Incongruent.png'
g24
g24
I1210
tp126
a(g18
g19
g28
I96
g29
S'C:\\Users\\Jbarrett\\Charlie\\charlie\\stimuli\\visual\\stroop\\29-Incongruent.png'
g22
g22
I1630
tp127
a(g18
g19
g28
I97
g29
S'C:\\Users\\Jbarrett\\Charlie\\charlie\\stimuli\\visual\\stroop\\3-Incongruent.png'
g24
g24
I1210
tp128
a(g18
g19
g28
I98
g31
S'C:\\Users\\Jbarrett\\Charlie\\charlie\\stimuli\\visual\\stroop\\1-Congruent.png'
g22
g22
I1831
tp129
a(g18
g19
g28
I99
g29
S'C:\\Users\\Jbarrett\\Charlie\\charlie\\stimuli\\visual\\stroop\\52-Incongruent.png'
g22
g22
I1120
tp130
a(g18
g19
g28
I100
g29
S'C:\\Users\\Jbarrett\\Charlie\\charlie\\stimuli\\visual\\stroop\\14-Incongruent.png'
g24
g24
I1150
tp131
a(g18
g19
g28
I101
g31
S'C:\\Users\\Jbarrett\\Charlie\\charlie\\stimuli\\visual\\stroop\\47-Congruent.png'
g24
g24
I1690
tp132
a(g18
g19
g28
I102
g29
S'C:\\Users\\Jbarrett\\Charlie\\charlie\\stimuli\\visual\\stroop\\19-Incongruent.png'
g24
g24
I1701
tp133
a(g18
g19
g28
I103
g31
S'C:\\Users\\Jbarrett\\Charlie\\charlie\\stimuli\\visual\\stroop\\11-Congruent.png'
g22
g22
I3130
tp134
a(g18
g19
g28
I104
g29
S'C:\\Users\\Jbarrett\\Charlie\\charlie\\stimuli\\visual\\stroop\\22-Incongruent.png'
g24
g24
I1430
tp135
a(g18
g19
g28
I105
g31
S'C:\\Users\\Jbarrett\\Charlie\\charlie\\stimuli\\visual\\stroop\\7-Congruent.png'
g22
g22
I1380
tp136
a(g18
g19
g28
I106
g31
S'C:\\Users\\Jbarrett\\Charlie\\charlie\\stimuli\\visual\\stroop\\53-Congruent.png'
g24
g24
I1260
tp137
a(g18
g19
g28
I107
g31
S'C:\\Users\\Jbarrett\\Charlie\\charlie\\stimuli\\visual\\stroop\\32-Congruent.png'
g24
g24
I880
tp138
a(g18
g19
g28
I108
g29
S'C:\\Users\\Jbarrett\\Charlie\\charlie\\stimuli\\visual\\stroop\\45-Incongruent.png'
g22
g22
I2500
tp139
a(g18
g19
g28
I109
g31
S'C:\\Users\\Jbarrett\\Charlie\\charlie\\stimuli\\visual\\stroop\\36-Congruent.png'
g24
g24
I950
tp140
a(g18
g19
g28
I110
g29
S'C:\\Users\\Jbarrett\\Charlie\\charlie\\stimuli\\visual\\stroop\\51-Incongruent.png'
g22
g22
I2490
tp141
a(g18
g19
g28
I111
g31
S'C:\\Users\\Jbarrett\\Charlie\\charlie\\stimuli\\visual\\stroop\\18-Congruent.png'
p142
g22
g22
I760
tp143
asS'output_format'
p144
(lp145
(S'proband_id'
p146
c__builtin__
str
p147
tp148
a(S'test_name'
p149
g147
tp150
a(S'phase'
p151
g147
tp152
a(S'trialn'
p153
c__builtin__
int
p154
tp155
a(S'cong'
p156
g147
tp157
a(S'f'
g147
tp158
a(S'ans'
p159
g147
tp160
a(S'rsp'
p161
g147
tp162
a(S'rt'
p163
g154
tp164
asg146
g18
sS'filename'
p165
S'4371_stroop.data'
p166
sS'initialised'
p167
g8
(S'\x07\xdf\x04\r\n\x11\x14\x0c\x83 '
tRp168
sS'last_udated'
p169
g8
(S'\x07\xdf\x04\r\n\x11\x14\x0c\x83 '
tRp170
sg149
S'stroop'
p171
sS'directory'
p172
S'C:\\Users\\Jbarrett\\Charlie\\charlie\\data\\raw'
p173
sS'user_id'
p174
S'jbarrett'
p175
sS'test_started'
p176
I01
sS'abs_filename'
p177
S'C:\\Users\\Jbarrett\\Charlie\\charlie\\data\\raw\\4371_stroop.data'
p178
sS'date_started'
p179
g8
(S'\x07\xdf\x04\r\n\x17\x12\x05\x82('
tRp180
sS'log'
p181
(lp182
(S'2015-04-13 10:17:20.820000'
S'instance created'
p183
tp184
a(S'2015-04-13 10:23:18.373000'
S'instance updated'
p185
tp186
a(S'2015-04-13 10:23:18.381000'
S'pandas DataFrame of data created'
p187
tp188
a(S'2015-04-13 10:23:18.384000'
S'data saved as csv to C:\\Users\\Jbarrett\\Charlie\\charlie\\data\\csv\\4371_stroop.csv'
tp189
a(S'2015-04-13 10:23:22.410000'
g185
tp190
a(S'2015-04-13 10:23:22.419000'
g187
tp191
a(S'2015-04-13 10:23:22.423000'
S'data saved as csv to C:\\Users\\Jbarrett\\Charlie\\charlie\\data\\csv\\4371_stroop.csv'
tp192
a(S'2015-04-13 10:23:25.052000'
g185
tp193
a(S'2015-04-13 10:23:25.061000'
g187
tp194
a(S'2015-04-13 10:23:25.065000'
S'data saved as csv to C:\\Users\\Jbarrett\\Charlie\\charlie\\data\\csv\\4371_stroop.csv'
tp195
a(S'2015-04-13 10:23:27.143000'
g185
tp196
a(S'2015-04-13 10:23:27.152000'
g187
tp197
a(S'2015-04-13 10:23:27.156000'
S'data saved as csv to C:\\Users\\Jbarrett\\Charlie\\charlie\\data\\csv\\4371_stroop.csv'
tp198
a(S'2015-04-13 10:23:39.572000'
g185
tp199
a(S'2015-04-13 10:23:39.581000'
g187
tp200
a(S'2015-04-13 10:23:39.585000'
S'data saved as csv to C:\\Users\\Jbarrett\\Charlie\\charlie\\data\\csv\\4371_stroop.csv'
tp201
a(S'2015-04-13 10:23:41.423000'
g185
tp202
a(S'2015-04-13 10:23:41.432000'
g187
tp203
a(S'2015-04-13 10:23:41.436000'
S'data saved as csv to C:\\Users\\Jbarrett\\Charlie\\charlie\\data\\csv\\4371_stroop.csv'
tp204
a(S'2015-04-13 10:23:42.867000'
g185
tp205
a(S'2015-04-13 10:23:42.877000'
g187
tp206
a(S'2015-04-13 10:23:42.880000'
S'data saved as csv to C:\\Users\\Jbarrett\\Charlie\\charlie\\data\\csv\\4371_stroop.csv'
tp207
a(S'2015-04-13 10:23:44.404000'
g185
tp208
a(S'2015-04-13 10:23:44.407000'
g187
tp209
a(S'2015-04-13 10:23:44.408000'
S'data saved as csv to C:\\Users\\Jbarrett\\Charlie\\charlie\\data\\csv\\4371_stroop.csv'
tp210
a(S'2015-04-13 10:23:48.516000'
g185
tp211
a(S'2015-04-13 10:23:48.524000'
g187
tp212
a(S'2015-04-13 10:23:48.527000'
S'data saved as csv to C:\\Users\\Jbarrett\\Charlie\\charlie\\data\\csv\\4371_stroop.csv'
tp213
a(S'2015-04-13 10:23:50.136000'
g185
tp214
a(S'2015-04-13 10:23:50.145000'
g187
tp215
a(S'2015-04-13 10:23:50.147000'
S'data saved as csv to C:\\Users\\Jbarrett\\Charlie\\charlie\\data\\csv\\4371_stroop.csv'
tp216
a(S'2015-04-13 10:23:53.587000'
g185
tp217
a(S'2015-04-13 10:23:53.598000'
g187
tp218
a(S'2015-04-13 10:23:53.601000'
S'data saved as csv to C:\\Users\\Jbarrett\\Charlie\\charlie\\data\\csv\\4371_stroop.csv'
tp219
a(S'2015-04-13 10:23:56.814000'
g185
tp220
a(S'2015-04-13 10:23:56.823000'
g187
tp221
a(S'2015-04-13 10:23:56.827000'
S'data saved as csv to C:\\Users\\Jbarrett\\Charlie\\charlie\\data\\csv\\4371_stroop.csv'
tp222
a(S'2015-04-13 10:23:59.688000'
g185
tp223
a(S'2015-04-13 10:23:59.697000'
g187
tp224
a(S'2015-04-13 10:23:59.701000'
S'data saved as csv to C:\\Users\\Jbarrett\\Charlie\\charlie\\data\\csv\\4371_stroop.csv'
tp225
a(S'2015-04-13 10:24:02.059000'
g185
tp226
a(S'2015-04-13 10:24:02.066000'
g187
tp227
a(S'2015-04-13 10:24:02.068000'
S'data saved as csv to C:\\Users\\Jbarrett\\Charlie\\charlie\\data\\csv\\4371_stroop.csv'
tp228
a(S'2015-04-13 10:24:04.090000'
g185
tp229
a(S'2015-04-13 10:24:04.099000'
g187
tp230
a(S'2015-04-13 10:24:04.103000'
S'data saved as csv to C:\\Users\\Jbarrett\\Charlie\\charlie\\data\\csv\\4371_stroop.csv'
tp231
a(S'2015-04-13 10:24:06.475000'
g185
tp232
a(S'2015-04-13 10:24:06.485000'
g187
tp233
a(S'2015-04-13 10:24:06.488000'
S'data saved as csv to C:\\Users\\Jbarrett\\Charlie\\charlie\\data\\csv\\4371_stroop.csv'
tp234
a(S'2015-04-13 10:24:08.038000'
g185
tp235
a(S'2015-04-13 10:24:08.047000'
g187
tp236
a(S'2015-04-13 10:24:08.050000'
S'data saved as csv to C:\\Users\\Jbarrett\\Charlie\\charlie\\data\\csv\\4371_stroop.csv'
tp237
a(S'2015-04-13 10:24:09.569000'
g185
tp238
a(S'2015-04-13 10:24:09.578000'
g187
tp239
a(S'2015-04-13 10:24:09.581000'
S'data saved as csv to C:\\Users\\Jbarrett\\Charlie\\charlie\\data\\csv\\4371_stroop.csv'
tp240
a(S'2015-04-13 10:24:10.750000'
g185
tp241
a(S'2015-04-13 10:24:10.760000'
g187
tp242
a(S'2015-04-13 10:24:10.764000'
S'data saved as csv to C:\\Users\\Jbarrett\\Charlie\\charlie\\data\\csv\\4371_stroop.csv'
tp243
a(S'2015-04-13 10:24:12.186000'
g185
tp244
a(S'2015-04-13 10:24:12.196000'
g187
tp245
a(S'2015-04-13 10:24:12.199000'
S'data saved as csv to C:\\Users\\Jbarrett\\Charlie\\charlie\\data\\csv\\4371_stroop.csv'
tp246
a(S'2015-04-13 10:24:13.832000'
g185
tp247
a(S'2015-04-13 10:24:13.841000'
g187
tp248
a(S'2015-04-13 10:24:13.845000'
S'data saved as csv to C:\\Users\\Jbarrett\\Charlie\\charlie\\data\\csv\\4371_stroop.csv'
tp249
a(S'2015-04-13 10:24:15.586000'
g185
tp250
a(S'2015-04-13 10:24:15.592000'
g187
tp251
a(S'2015-04-13 10:24:15.594000'
S'data saved as csv to C:\\Users\\Jbarrett\\Charlie\\charlie\\data\\csv\\4371_stroop.csv'
tp252
a(S'2015-04-13 10:24:17.133000'
g185
tp253
a(S'2015-04-13 10:24:17.142000'
g187
tp254
a(S'2015-04-13 10:24:17.146000'
S'data saved as csv to C:\\Users\\Jbarrett\\Charlie\\charlie\\data\\csv\\4371_stroop.csv'
tp255
a(S'2015-04-13 10:24:20.709000'
g185
tp256
a(S'2015-04-13 10:24:20.719000'
g187
tp257
a(S'2015-04-13 10:24:20.723000'
S'data saved as csv to C:\\Users\\Jbarrett\\Charlie\\charlie\\data\\csv\\4371_stroop.csv'
tp258
a(S'2015-04-13 10:24:23.415000'
g185
tp259
a(S'2015-04-13 10:24:23.425000'
g187
tp260
a(S'2015-04-13 10:24:23.429000'
S'data saved as csv to C:\\Users\\Jbarrett\\Charlie\\charlie\\data\\csv\\4371_stroop.csv'
tp261
a(S'2015-04-13 10:24:25.201000'
g185
tp262
a(S'2015-04-13 10:24:25.211000'
g187
tp263
a(S'2015-04-13 10:24:25.214000'
S'data saved as csv to C:\\Users\\Jbarrett\\Charlie\\charlie\\data\\csv\\4371_stroop.csv'
tp264
a(S'2015-04-13 10:24:27.247000'
g185
tp265
a(S'2015-04-13 10:24:27.257000'
g187
tp266
a(S'2015-04-13 10:24:27.261000'
S'data saved as csv to C:\\Users\\Jbarrett\\Charlie\\charlie\\data\\csv\\4371_stroop.csv'
tp267
a(S'2015-04-13 10:24:28.763000'
g185
tp268
a(S'2015-04-13 10:24:28.773000'
g187
tp269
a(S'2015-04-13 10:24:28.774000'
S'data saved as csv to C:\\Users\\Jbarrett\\Charlie\\charlie\\data\\csv\\4371_stroop.csv'
tp270
a(S'2015-04-13 10:24:30.033000'
g185
tp271
a(S'2015-04-13 10:24:30.043000'
g187
tp272
a(S'2015-04-13 10:24:30.047000'
S'data saved as csv to C:\\Users\\Jbarrett\\Charlie\\charlie\\data\\csv\\4371_stroop.csv'
tp273
a(S'2015-04-13 10:24:31.498000'
g185
tp274
a(S'2015-04-13 10:24:31.508000'
g187
tp275
a(S'2015-04-13 10:24:31.512000'
S'data saved as csv to C:\\Users\\Jbarrett\\Charlie\\charlie\\data\\csv\\4371_stroop.csv'
tp276
a(S'2015-04-13 10:24:35.927000'
g185
tp277
a(S'2015-04-13 10:24:35.929000'
g187
tp278
a(S'2015-04-13 10:24:35.930000'
S'data saved as csv to C:\\Users\\Jbarrett\\Charlie\\charlie\\data\\csv\\4371_stroop.csv'
tp279
a(S'2015-04-13 10:24:37.349000'
g185
tp280
a(S'2015-04-13 10:24:37.358000'
g187
tp281
a(S'2015-04-13 10:24:37.362000'
S'data saved as csv to C:\\Users\\Jbarrett\\Charlie\\charlie\\data\\csv\\4371_stroop.csv'
tp282
a(S'2015-04-13 10:24:39.184000'
g185
tp283
a(S'2015-04-13 10:24:39.194000'
g187
tp284
a(S'2015-04-13 10:24:39.198000'
S'data saved as csv to C:\\Users\\Jbarrett\\Charlie\\charlie\\data\\csv\\4371_stroop.csv'
tp285
a(S'2015-04-13 10:24:40.231000'
g185
tp286
a(S'2015-04-13 10:24:40.241000'
g187
tp287
a(S'2015-04-13 10:24:40.245000'
S'data saved as csv to C:\\Users\\Jbarrett\\Charlie\\charlie\\data\\csv\\4371_stroop.csv'
tp288
a(S'2015-04-13 10:24:41.757000'
g185
tp289
a(S'2015-04-13 10:24:41.764000'
g187
tp290
a(S'2015-04-13 10:24:41.768000'
S'data saved as csv to C:\\Users\\Jbarrett\\Charlie\\charlie\\data\\csv\\4371_stroop.csv'
tp291
a(S'2015-04-13 10:24:43.319000'
g185
tp292
a(S'2015-04-13 10:24:43.329000'
g187
tp293
a(S'2015-04-13 10:24:43.333000'
S'data saved as csv to C:\\Users\\Jbarrett\\Charlie\\charlie\\data\\csv\\4371_stroop.csv'
tp294
a(S'2015-04-13 10:24:44.765000'
g185
tp295
a(S'2015-04-13 10:24:44.775000'
g187
tp296
a(S'2015-04-13 10:24:44.779000'
S'data saved as csv to C:\\Users\\Jbarrett\\Charlie\\charlie\\data\\csv\\4371_stroop.csv'
tp297
a(S'2015-04-13 10:24:46.231000'
g185
tp298
a(S'2015-04-13 10:24:46.241000'
g187
tp299
a(S'2015-04-13 10:24:46.246000'
S'data saved as csv to C:\\Users\\Jbarrett\\Charlie\\charlie\\data\\csv\\4371_stroop.csv'
tp300
a(S'2015-04-13 10:24:47.749000'
g185
tp301
a(S'2015-04-13 10:24:47.758000'
g187
tp302
a(S'2015-04-13 10:24:47.760000'
S'data saved as csv to C:\\Users\\Jbarrett\\Charlie\\charlie\\data\\csv\\4371_stroop.csv'
tp303
a(S'2015-04-13 10:24:49.281000'
g185
tp304
a(S'2015-04-13 10:24:49.289000'
g187
tp305
a(S'2015-04-13 10:24:49.292000'
S'data saved as csv to C:\\Users\\Jbarrett\\Charlie\\charlie\\data\\csv\\4371_stroop.csv'
tp306
a(S'2015-04-13 10:24:50.951000'
g185
tp307
a(S'2015-04-13 10:24:50.961000'
g187
tp308
a(S'2015-04-13 10:24:50.965000'
S'data saved as csv to C:\\Users\\Jbarrett\\Charlie\\charlie\\data\\csv\\4371_stroop.csv'
tp309
a(S'2015-04-13 10:24:52.076000'
g185
tp310
a(S'2015-04-13 10:24:52.086000'
g187
tp311
a(S'2015-04-13 10:24:52.090000'
S'data saved as csv to C:\\Users\\Jbarrett\\Charlie\\charlie\\data\\csv\\4371_stroop.csv'
tp312
a(S'2015-04-13 10:24:53.643000'
g185
tp313
a(S'2015-04-13 10:24:53.652000'
g187
tp314
a(S'2015-04-13 10:24:53.655000'
S'data saved as csv to C:\\Users\\Jbarrett\\Charlie\\charlie\\data\\csv\\4371_stroop.csv'
tp315
a(S'2015-04-13 10:24:54.878000'
g185
tp316
a(S'2015-04-13 10:24:54.888000'
g187
tp317
a(S'2015-04-13 10:24:54.892000'
S'data saved as csv to C:\\Users\\Jbarrett\\Charlie\\charlie\\data\\csv\\4371_stroop.csv'
tp318
a(S'2015-04-13 10:24:56.012000'
g185
tp319
a(S'2015-04-13 10:24:56.023000'
g187
tp320
a(S'2015-04-13 10:24:56.027000'
S'data saved as csv to C:\\Users\\Jbarrett\\Charlie\\charlie\\data\\csv\\4371_stroop.csv'
tp321
a(S'2015-04-13 10:24:56.959000'
g185
tp322
a(S'2015-04-13 10:24:56.969000'
g187
tp323
a(S'2015-04-13 10:24:56.973000'
S'data saved as csv to C:\\Users\\Jbarrett\\Charlie\\charlie\\data\\csv\\4371_stroop.csv'
tp324
a(S'2015-04-13 10:24:58.555000'
g185
tp325
a(S'2015-04-13 10:24:58.565000'
g187
tp326
a(S'2015-04-13 10:24:58.569000'
S'data saved as csv to C:\\Users\\Jbarrett\\Charlie\\charlie\\data\\csv\\4371_stroop.csv'
tp327
a(S'2015-04-13 10:25:00.502000'
g185
tp328
a(S'2015-04-13 10:25:00.512000'
g187
tp329
a(S'2015-04-13 10:25:00.516000'
S'data saved as csv to C:\\Users\\Jbarrett\\Charlie\\charlie\\data\\csv\\4371_stroop.csv'
tp330
a(S'2015-04-13 10:25:02.769000'
g185
tp331
a(S'2015-04-13 10:25:02.780000'
g187
tp332
a(S'2015-04-13 10:25:02.784000'
S'data saved as csv to C:\\Users\\Jbarrett\\Charlie\\charlie\\data\\csv\\4371_stroop.csv'
tp333
a(S'2015-04-13 10:25:03.884000'
g185
tp334
a(S'2015-04-13 10:25:03.894000'
g187
tp335
a(S'2015-04-13 10:25:03.896000'
S'data saved as csv to C:\\Users\\Jbarrett\\Charlie\\charlie\\data\\csv\\4371_stroop.csv'
tp336
a(S'2015-04-13 10:25:05.056000'
g185
tp337
a(S'2015-04-13 10:25:05.065000'
g187
tp338
a(S'2015-04-13 10:25:05.067000'
S'data saved as csv to C:\\Users\\Jbarrett\\Charlie\\charlie\\data\\csv\\4371_stroop.csv'
tp339
a(S'2015-04-13 10:25:06.816000'
g185
tp340
a(S'2015-04-13 10:25:06.827000'
g187
tp341
a(S'2015-04-13 10:25:06.831000'
S'data saved as csv to C:\\Users\\Jbarrett\\Charlie\\charlie\\data\\csv\\4371_stroop.csv'
tp342
a(S'2015-04-13 10:25:08.271000'
g185
tp343
a(S'2015-04-13 10:25:08.278000'
g187
tp344
a(S'2015-04-13 10:25:08.280000'
S'data saved as csv to C:\\Users\\Jbarrett\\Charlie\\charlie\\data\\csv\\4371_stroop.csv'
tp345
a(S'2015-04-13 10:25:10.621000'
g185
tp346
a(S'2015-04-13 10:25:10.631000'
g187
tp347
a(S'2015-04-13 10:25:10.635000'
S'data saved as csv to C:\\Users\\Jbarrett\\Charlie\\charlie\\data\\csv\\4371_stroop.csv'
tp348
a(S'2015-04-13 10:25:11.677000'
g185
tp349
a(S'2015-04-13 10:25:11.687000'
g187
tp350
a(S'2015-04-13 10:25:11.691000'
S'data saved as csv to C:\\Users\\Jbarrett\\Charlie\\charlie\\data\\csv\\4371_stroop.csv'
tp351
a(S'2015-04-13 10:25:13.112000'
g185
tp352
a(S'2015-04-13 10:25:13.122000'
g187
tp353
a(S'2015-04-13 10:25:13.126000'
S'data saved as csv to C:\\Users\\Jbarrett\\Charlie\\charlie\\data\\csv\\4371_stroop.csv'
tp354
a(S'2015-04-13 10:25:15.019000'
g185
tp355
a(S'2015-04-13 10:25:15.027000'
g187
tp356
a(S'2015-04-13 10:25:15.030000'
S'data saved as csv to C:\\Users\\Jbarrett\\Charlie\\charlie\\data\\csv\\4371_stroop.csv'
tp357
a(S'2015-04-13 10:25:16.861000'
g185
tp358
a(S'2015-04-13 10:25:16.871000'
g187
tp359
a(S'2015-04-13 10:25:16.876000'
S'data saved as csv to C:\\Users\\Jbarrett\\Charlie\\charlie\\data\\csv\\4371_stroop.csv'
tp360
a(S'2015-04-13 10:25:18.508000'
g185
tp361
a(S'2015-04-13 10:25:18.518000'
g187
tp362
a(S'2015-04-13 10:25:18.522000'
S'data saved as csv to C:\\Users\\Jbarrett\\Charlie\\charlie\\data\\csv\\4371_stroop.csv'
tp363
a(S'2015-04-13 10:25:22.566000'
g185
tp364
a(S'2015-04-13 10:25:22.577000'
g187
tp365
a(S'2015-04-13 10:25:22.579000'
S'data saved as csv to C:\\Users\\Jbarrett\\Charlie\\charlie\\data\\csv\\4371_stroop.csv'
tp366
a(S'2015-04-13 10:25:23.900000'
g185
tp367
a(S'2015-04-13 10:25:23.910000'
g187
tp368
a(S'2015-04-13 10:25:23.915000'
S'data saved as csv to C:\\Users\\Jbarrett\\Charlie\\charlie\\data\\csv\\4371_stroop.csv'
tp369
a(S'2015-04-13 10:25:27.378000'
g185
tp370
a(S'2015-04-13 10:25:27.389000'
g187
tp371
a(S'2015-04-13 10:25:27.393000'
S'data saved as csv to C:\\Users\\Jbarrett\\Charlie\\charlie\\data\\csv\\4371_stroop.csv'
tp372
a(S'2015-04-13 10:25:31.537000'
g185
tp373
a(S'2015-04-13 10:25:31.547000'
g187
tp374
a(S'2015-04-13 10:25:31.549000'
S'data saved as csv to C:\\Users\\Jbarrett\\Charlie\\charlie\\data\\csv\\4371_stroop.csv'
tp375
a(S'2015-04-13 10:25:36.100000'
g185
tp376
a(S'2015-04-13 10:25:36.111000'
g187
tp377
a(S'2015-04-13 10:25:36.115000'
S'data saved as csv to C:\\Users\\Jbarrett\\Charlie\\charlie\\data\\csv\\4371_stroop.csv'
tp378
a(S'2015-04-13 10:25:41.329000'
g185
tp379
a(S'2015-04-13 10:25:41.339000'
g187
tp380
a(S'2015-04-13 10:25:41.344000'
S'data saved as csv to C:\\Users\\Jbarrett\\Charlie\\charlie\\data\\csv\\4371_stroop.csv'
tp381
a(S'2015-04-13 10:25:43.858000'
g185
tp382
a(S'2015-04-13 10:25:43.869000'
g187
tp383
a(S'2015-04-13 10:25:43.873000'
S'data saved as csv to C:\\Users\\Jbarrett\\Charlie\\charlie\\data\\csv\\4371_stroop.csv'
tp384
a(S'2015-04-13 10:25:47.834000'
g185
tp385
a(S'2015-04-13 10:25:47.845000'
g187
tp386
a(S'2015-04-13 10:25:47.849000'
S'data saved as csv to C:\\Users\\Jbarrett\\Charlie\\charlie\\data\\csv\\4371_stroop.csv'
tp387
a(S'2015-04-13 10:25:48.843000'
g185
tp388
a(S'2015-04-13 10:25:48.853000'
g187
tp389
a(S'2015-04-13 10:25:48.855000'
S'data saved as csv to C:\\Users\\Jbarrett\\Charlie\\charlie\\data\\csv\\4371_stroop.csv'
tp390
a(S'2015-04-13 10:25:51.856000'
g185
tp391
a(S'2015-04-13 10:25:51.867000'
g187
tp392
a(S'2015-04-13 10:25:51.871000'
S'data saved as csv to C:\\Users\\Jbarrett\\Charlie\\charlie\\data\\csv\\4371_stroop.csv'
tp393
a(S'2015-04-13 10:25:53.334000'
g185
tp394
a(S'2015-04-13 10:25:53.344000'
g187
tp395
a(S'2015-04-13 10:25:53.349000'
S'data saved as csv to C:\\Users\\Jbarrett\\Charlie\\charlie\\data\\csv\\4371_stroop.csv'
tp396
a(S'2015-04-13 10:25:58.100000'
g185
tp397
a(S'2015-04-13 10:25:58.111000'
g187
tp398
a(S'2015-04-13 10:25:58.115000'
S'data saved as csv to C:\\Users\\Jbarrett\\Charlie\\charlie\\data\\csv\\4371_stroop.csv'
tp399
a(S'2015-04-13 10:25:59.627000'
g185
tp400
a(S'2015-04-13 10:25:59.638000'
g187
tp401
a(S'2015-04-13 10:25:59.643000'
S'data saved as csv to C:\\Users\\Jbarrett\\Charlie\\charlie\\data\\csv\\4371_stroop.csv'
tp402
a(S'2015-04-13 10:26:02.166000'
g185
tp403
a(S'2015-04-13 10:26:02.177000'
g187
tp404
a(S'2015-04-13 10:26:02.181000'
S'data saved as csv to C:\\Users\\Jbarrett\\Charlie\\charlie\\data\\csv\\4371_stroop.csv'
tp405
a(S'2015-04-13 10:26:03.955000'
g185
tp406
a(S'2015-04-13 10:26:03.966000'
g187
tp407
a(S'2015-04-13 10:26:03.969000'
S'data saved as csv to C:\\Users\\Jbarrett\\Charlie\\charlie\\data\\csv\\4371_stroop.csv'
tp408
a(S'2015-04-13 10:26:05.070000'
g185
tp409
a(S'2015-04-13 10:26:05.081000'
g187
tp410
a(S'2015-04-13 10:26:05.086000'
S'data saved as csv to C:\\Users\\Jbarrett\\Charlie\\charlie\\data\\csv\\4371_stroop.csv'
tp411
a(S'2015-04-13 10:26:06.178000'
g185
tp412
a(S'2015-04-13 10:26:06.188000'
g187
tp413
a(S'2015-04-13 10:26:06.191000'
S'data saved as csv to C:\\Users\\Jbarrett\\Charlie\\charlie\\data\\csv\\4371_stroop.csv'
tp414
a(S'2015-04-13 10:26:07.902000'
g185
tp415
a(S'2015-04-13 10:26:07.913000'
g187
tp416
a(S'2015-04-13 10:26:07.918000'
S'data saved as csv to C:\\Users\\Jbarrett\\Charlie\\charlie\\data\\csv\\4371_stroop.csv'
tp417
a(S'2015-04-13 10:26:09.891000'
g185
tp418
a(S'2015-04-13 10:26:09.902000'
g187
tp419
a(S'2015-04-13 10:26:09.906000'
S'data saved as csv to C:\\Users\\Jbarrett\\Charlie\\charlie\\data\\csv\\4371_stroop.csv'
tp420
a(S'2015-04-13 10:26:11.156000'
g185
tp421
a(S'2015-04-13 10:26:11.166000'
g187
tp422
a(S'2015-04-13 10:26:11.169000'
S'data saved as csv to C:\\Users\\Jbarrett\\Charlie\\charlie\\data\\csv\\4371_stroop.csv'
tp423
a(S'2015-04-13 10:26:12.560000'
g185
tp424
a(S'2015-04-13 10:26:12.571000'
g187
tp425
a(S'2015-04-13 10:26:12.576000'
S'data saved as csv to C:\\Users\\Jbarrett\\Charlie\\charlie\\data\\csv\\4371_stroop.csv'
tp426
a(S'2015-04-13 10:26:13.646000'
g185
tp427
a(S'2015-04-13 10:26:13.656000'
g187
tp428
a(S'2015-04-13 10:26:13.658000'
S'data saved as csv to C:\\Users\\Jbarrett\\Charlie\\charlie\\data\\csv\\4371_stroop.csv'
tp429
a(S'2015-04-13 10:26:14.569000'
g185
tp430
a(S'2015-04-13 10:26:14.580000'
g187
tp431
a(S'2015-04-13 10:26:14.585000'
S'data saved as csv to C:\\Users\\Jbarrett\\Charlie\\charlie\\data\\csv\\4371_stroop.csv'
tp432
a(S'2015-04-13 10:26:15.935000'
g185
tp433
a(S'2015-04-13 10:26:15.946000'
g187
tp434
a(S'2015-04-13 10:26:15.951000'
S'data saved as csv to C:\\Users\\Jbarrett\\Charlie\\charlie\\data\\csv\\4371_stroop.csv'
tp435
a(S'2015-04-13 10:26:18.177000'
g185
tp436
a(S'2015-04-13 10:26:18.186000'
g187
tp437
a(S'2015-04-13 10:26:18.189000'
S'data saved as csv to C:\\Users\\Jbarrett\\Charlie\\charlie\\data\\csv\\4371_stroop.csv'
tp438
a(S'2015-04-13 10:26:19.381000'
g185
tp439
a(S'2015-04-13 10:26:19.392000'
g187
tp440
a(S'2015-04-13 10:26:19.397000'
S'data saved as csv to C:\\Users\\Jbarrett\\Charlie\\charlie\\data\\csv\\4371_stroop.csv'
tp441
a(S'2015-04-13 10:26:20.331000'
g185
tp442
a(S'2015-04-13 10:26:20.342000'
g187
tp443
a(S'2015-04-13 10:26:20.345000'
S'data saved as csv to C:\\Users\\Jbarrett\\Charlie\\charlie\\data\\csv\\4371_stroop.csv'
tp444
a(S'2015-04-13 10:26:21.716000'
g185
tp445
a(S'2015-04-13 10:26:21.725000'
g187
tp446
a(S'2015-04-13 10:26:21.727000'
S'data saved as csv to C:\\Users\\Jbarrett\\Charlie\\charlie\\data\\csv\\4371_stroop.csv'
tp447
a(S'2015-04-13 10:26:22.729000'
g185
tp448
a(S'2015-04-13 10:26:22.740000'
g187
tp449
a(S'2015-04-13 10:26:22.744000'
S'data saved as csv to C:\\Users\\Jbarrett\\Charlie\\charlie\\data\\csv\\4371_stroop.csv'
tp450
a(S'2015-04-13 10:26:24.145000'
g185
tp451
a(S'2015-04-13 10:26:24.155000'
g187
tp452
a(S'2015-04-13 10:26:24.157000'
S'data saved as csv to C:\\Users\\Jbarrett\\Charlie\\charlie\\data\\csv\\4371_stroop.csv'
tp453
a(S'2015-04-13 10:26:25.220000'
g185
tp454
a(S'2015-04-13 10:26:25.231000'
g187
tp455
a(S'2015-04-13 10:26:25.234000'
S'data saved as csv to C:\\Users\\Jbarrett\\Charlie\\charlie\\data\\csv\\4371_stroop.csv'
tp456
a(S'2015-04-13 10:26:26.405000'
g185
tp457
a(S'2015-04-13 10:26:26.416000'
g187
tp458
a(S'2015-04-13 10:26:26.421000'
S'data saved as csv to C:\\Users\\Jbarrett\\Charlie\\charlie\\data\\csv\\4371_stroop.csv'
tp459
a(S'2015-04-13 10:26:27.671000'
g185
tp460
a(S'2015-04-13 10:26:27.680000'
g187
tp461
a(S'2015-04-13 10:26:27.683000'
S'data saved as csv to C:\\Users\\Jbarrett\\Charlie\\charlie\\data\\csv\\4371_stroop.csv'
tp462
a(S'2015-04-13 10:26:29.096000'
g185
tp463
a(S'2015-04-13 10:26:29.104000'
g187
tp464
a(S'2015-04-13 10:26:29.107000'
S'data saved as csv to C:\\Users\\Jbarrett\\Charlie\\charlie\\data\\csv\\4371_stroop.csv'
tp465
a(S'2015-04-13 10:26:32.669000'
g185
tp466
a(S'2015-04-13 10:26:32.680000'
g187
tp467
a(S'2015-04-13 10:26:32.686000'
S'data saved as csv to C:\\Users\\Jbarrett\\Charlie\\charlie\\data\\csv\\4371_stroop.csv'
tp468
a(S'2015-04-13 10:26:34.080000'
g185
tp469
a(S'2015-04-13 10:26:34.091000'
g187
tp470
a(S'2015-04-13 10:26:34.096000'
S'data saved as csv to C:\\Users\\Jbarrett\\Charlie\\charlie\\data\\csv\\4371_stroop.csv'
tp471
a(S'2015-04-13 10:26:35.581000'
g185
tp472
a(S'2015-04-13 10:26:35.592000'
g187
tp473
a(S'2015-04-13 10:26:35.597000'
S'data saved as csv to C:\\Users\\Jbarrett\\Charlie\\charlie\\data\\csv\\4371_stroop.csv'
tp474
a(S'2015-04-13 10:26:37.120000'
g185
tp475
a(S'2015-04-13 10:26:37.132000'
g187
tp476
a(S'2015-04-13 10:26:37.137000'
S'data saved as csv to C:\\Users\\Jbarrett\\Charlie\\charlie\\data\\csv\\4371_stroop.csv'
tp477
a(S'2015-04-13 10:26:38.308000'
g185
tp478
a(S'2015-04-13 10:26:38.314000'
g187
tp479
a(S'2015-04-13 10:26:38.317000'
S'data saved as csv to C:\\Users\\Jbarrett\\Charlie\\charlie\\data\\csv\\4371_stroop.csv'
tp480
a(S'2015-04-13 10:26:40.681000'
g185
tp481
a(S'2015-04-13 10:26:40.692000'
g187
tp482
a(S'2015-04-13 10:26:40.697000'
S'data saved as csv to C:\\Users\\Jbarrett\\Charlie\\charlie\\data\\csv\\4371_stroop.csv'
tp483
a(S'2015-04-13 10:26:42.041000'
g185
tp484
a(S'2015-04-13 10:26:42.052000'
g187
tp485
a(S'2015-04-13 10:26:42.057000'
S'data saved as csv to C:\\Users\\Jbarrett\\Charlie\\charlie\\data\\csv\\4371_stroop.csv'
tp486
a(S'2015-04-13 10:26:43.817000'
g185
tp487
a(S'2015-04-13 10:26:43.828000'
g187
tp488
a(S'2015-04-13 10:26:43.831000'
S'data saved as csv to C:\\Users\\Jbarrett\\Charlie\\charlie\\data\\csv\\4371_stroop.csv'
tp489
a(S'2015-04-13 10:26:45.173000'
g185
tp490
a(S'2015-04-13 10:26:45.181000'
g187
tp491
a(S'2015-04-13 10:26:45.183000'
S'data saved as csv to C:\\Users\\Jbarrett\\Charlie\\charlie\\data\\csv\\4371_stroop.csv'
tp492
a(S'2015-04-13 10:26:47.144000'
g185
tp493
a(S'2015-04-13 10:26:47.155000'
g187
tp494
a(S'2015-04-13 10:26:47.158000'
S'data saved as csv to C:\\Users\\Jbarrett\\Charlie\\charlie\\data\\csv\\4371_stroop.csv'
tp495
a(S'2015-04-13 10:26:48.410000'
g185
tp496
a(S'2015-04-13 10:26:48.419000'
g187
tp497
a(S'2015-04-13 10:26:48.422000'
S'data saved as csv to C:\\Users\\Jbarrett\\Charlie\\charlie\\data\\csv\\4371_stroop.csv'
tp498
a(S'2015-04-13 10:26:49.704000'
g185
tp499
a(S'2015-04-13 10:26:49.715000'
g187
tp500
a(S'2015-04-13 10:26:49.721000'
S'data saved as csv to C:\\Users\\Jbarrett\\Charlie\\charlie\\data\\csv\\4371_stroop.csv'
tp501
a(S'2015-04-13 10:26:51.545000'
g185
tp502
a(S'2015-04-13 10:26:51.556000'
g187
tp503
a(S'2015-04-13 10:26:51.561000'
S'data saved as csv to C:\\Users\\Jbarrett\\Charlie\\charlie\\data\\csv\\4371_stroop.csv'
tp504
a(S'2015-04-13 10:26:53.394000'
g185
tp505
a(S'2015-04-13 10:26:53.405000'
g187
tp506
a(S'2015-04-13 10:26:53.410000'
S'data saved as csv to C:\\Users\\Jbarrett\\Charlie\\charlie\\data\\csv\\4371_stroop.csv'
tp507
a(S'2015-04-13 10:26:56.675000'
g185
tp508
a(S'2015-04-13 10:26:56.686000'
g187
tp509
a(S'2015-04-13 10:26:56.691000'
S'data saved as csv to C:\\Users\\Jbarrett\\Charlie\\charlie\\data\\csv\\4371_stroop.csv'
tp510
a(S'2015-04-13 10:26:58.254000'
g185
tp511
a(S'2015-04-13 10:26:58.266000'
g187
tp512
a(S'2015-04-13 10:26:58.271000'
S'data saved as csv to C:\\Users\\Jbarrett\\Charlie\\charlie\\data\\csv\\4371_stroop.csv'
tp513
a(S'2015-04-13 10:26:59.786000'
g185
tp514
a(S'2015-04-13 10:26:59.797000'
g187
tp515
a(S'2015-04-13 10:26:59.803000'
S'data saved as csv to C:\\Users\\Jbarrett\\Charlie\\charlie\\data\\csv\\4371_stroop.csv'
tp516
a(S'2015-04-13 10:27:01.196000'
g185
tp517
a(S'2015-04-13 10:27:01.207000'
g187
tp518
a(S'2015-04-13 10:27:01.212000'
S'data saved as csv to C:\\Users\\Jbarrett\\Charlie\\charlie\\data\\csv\\4371_stroop.csv'
tp519
a(S'2015-04-13 10:27:02.228000'
g185
tp520
a(S'2015-04-13 10:27:02.240000'
g187
tp521
a(S'2015-04-13 10:27:02.244000'
S'data saved as csv to C:\\Users\\Jbarrett\\Charlie\\charlie\\data\\csv\\4371_stroop.csv'
tp522
a(S'2015-04-13 10:27:04.876000'
g185
tp523
a(S'2015-04-13 10:27:04.886000'
g187
tp524
a(S'2015-04-13 10:27:04.889000'
S'data saved as csv to C:\\Users\\Jbarrett\\Charlie\\charlie\\data\\csv\\4371_stroop.csv'
tp525
a(S'2015-04-13 10:27:05.967000'
g185
tp526
a(S'2015-04-13 10:27:05.974000'
g187
tp527
a(S'2015-04-13 10:27:05.976000'
S'data saved as csv to C:\\Users\\Jbarrett\\Charlie\\charlie\\data\\csv\\4371_stroop.csv'
tp528
a(S'2015-04-13 10:27:08.600000'
g185
tp529
a(S'2015-04-13 10:27:08.612000'
g187
tp530
a(S'2015-04-13 10:27:08.617000'
S'data saved as csv to C:\\Users\\Jbarrett\\Charlie\\charlie\\data\\csv\\4371_stroop.csv'
tp531
a(S'2015-04-13 10:27:09.512000'
g185
tp532
a(S'2015-04-13 10:27:09.523000'
g187
tp533
a(S'2015-04-13 10:27:09.529000'
S'data saved as csv to C:\\Users\\Jbarrett\\Charlie\\charlie\\data\\csv\\4371_stroop.csv'
tp534
asb.