(icharlie.tools.data
Data
p1
(dp2
S'lang'
p3
S'EN'
p4
sS'control'
p5
(lp6
sS'last_updated'
p7
cdatetime
datetime
p8
(S'\x07\xdf\x04\x0f\x0f\x04\x0b\t\x9c\xf0'
tRp9
sS'last_opened'
p10
g8
(S'\x07\xdf\x04\x0f\x0f\x00\x03\x00\x98X'
tRp11
sS'proj_id'
p12
S'connecitivty'
p13
sS'date_done'
p14
NsS'test_done'
p15
I01
sS'data'
p16
(lp17
(S'4372'
p18
S'matrix_reasoning'
p19
S'practice'
p20
I0
S'c:\\Charlie\\charlie\\stimuli\\visual\\matrix_reasoning\\prac_MA.png'
S'c:\\Charlie\\charlie\\stimuli\\visual\\matrix_reasoning\\prac_MAa.png'
I1
I1
I2152
tp21
a(g18
g19
S'test'
p22
I0
S'c:\\Charlie\\charlie\\stimuli\\visual\\matrix_reasoning\\M001.png'
S'c:\\Charlie\\charlie\\stimuli\\visual\\matrix_reasoning\\M001a.png'
I1
I1
I2248
tp23
a(g18
g19
g22
I1
S'c:\\Charlie\\charlie\\stimuli\\visual\\matrix_reasoning\\M002.png'
S'c:\\Charlie\\charlie\\stimuli\\visual\\matrix_reasoning\\M002a.png'
I3
I3
I2342
tp24
a(g18
g19
g22
I2
S'c:\\Charlie\\charlie\\stimuli\\visual\\matrix_reasoning\\M003.png'
S'c:\\Charlie\\charlie\\stimuli\\visual\\matrix_reasoning\\M003a.png'
I1
I1
I2801
tp25
a(g18
g19
g22
I3
S'c:\\Charlie\\charlie\\stimuli\\visual\\matrix_reasoning\\M004.png'
S'c:\\Charlie\\charlie\\stimuli\\visual\\matrix_reasoning\\M004a.png'
I3
I3
I2105
tp26
a(g18
g19
g22
I4
S'c:\\Charlie\\charlie\\stimuli\\visual\\matrix_reasoning\\M005.png'
S'c:\\Charlie\\charlie\\stimuli\\visual\\matrix_reasoning\\M005a.png'
I2
I2
I2552
tp27
a(g18
g19
g22
I5
S'c:\\Charlie\\charlie\\stimuli\\visual\\matrix_reasoning\\M006.png'
S'c:\\Charlie\\charlie\\stimuli\\visual\\matrix_reasoning\\M006a.png'
I0
I0
I3975
tp28
a(g18
g19
g22
I6
S'c:\\Charlie\\charlie\\stimuli\\visual\\matrix_reasoning\\M007.png'
S'c:\\Charlie\\charlie\\stimuli\\visual\\matrix_reasoning\\M007a.png'
I0
I0
I2191
tp29
a(g18
g19
g22
I7
S'c:\\Charlie\\charlie\\stimuli\\visual\\matrix_reasoning\\M008.png'
S'c:\\Charlie\\charlie\\stimuli\\visual\\matrix_reasoning\\M008a.png'
I2
I2
I2264
tp30
a(g18
g19
g22
I8
S'c:\\Charlie\\charlie\\stimuli\\visual\\matrix_reasoning\\M009.png'
S'c:\\Charlie\\charlie\\stimuli\\visual\\matrix_reasoning\\M009a.png'
I4
I4
I2419
tp31
a(g18
g19
g22
I9
S'c:\\Charlie\\charlie\\stimuli\\visual\\matrix_reasoning\\M010.png'
S'c:\\Charlie\\charlie\\stimuli\\visual\\matrix_reasoning\\M010a.png'
I4
I4
I3756
tp32
a(g18
g19
g22
I10
S'c:\\Charlie\\charlie\\stimuli\\visual\\matrix_reasoning\\M011.png'
S'c:\\Charlie\\charlie\\stimuli\\visual\\matrix_reasoning\\M011a.png'
I4
I4
I3169
tp33
a(g18
g19
g22
I11
S'c:\\Charlie\\charlie\\stimuli\\visual\\matrix_reasoning\\M012.png'
S'c:\\Charlie\\charlie\\stimuli\\visual\\matrix_reasoning\\M012a.png'
I1
I1
I2680
tp34
a(g18
g19
g22
I12
S'c:\\Charlie\\charlie\\stimuli\\visual\\matrix_reasoning\\M013.png'
S'c:\\Charlie\\charlie\\stimuli\\visual\\matrix_reasoning\\M013a.png'
I2
I2
I4109
tp35
a(g18
g19
g22
I13
S'c:\\Charlie\\charlie\\stimuli\\visual\\matrix_reasoning\\M014.png'
S'c:\\Charlie\\charlie\\stimuli\\visual\\matrix_reasoning\\M014a.png'
I0
I0
I4896
tp36
a(g18
g19
g22
I14
S'c:\\Charlie\\charlie\\stimuli\\visual\\matrix_reasoning\\M015.png'
S'c:\\Charlie\\charlie\\stimuli\\visual\\matrix_reasoning\\M015a.png'
I1
I1
I3121
tp37
a(g18
g19
g22
I15
S'c:\\Charlie\\charlie\\stimuli\\visual\\matrix_reasoning\\M016.png'
S'c:\\Charlie\\charlie\\stimuli\\visual\\matrix_reasoning\\M016a.png'
I3
I3
I3810
tp38
a(g18
g19
g22
I16
S'c:\\Charlie\\charlie\\stimuli\\visual\\matrix_reasoning\\M017.png'
S'c:\\Charlie\\charlie\\stimuli\\visual\\matrix_reasoning\\M017a.png'
I2
I4
I3018
tp39
a(g18
g19
g22
I17
S'c:\\Charlie\\charlie\\stimuli\\visual\\matrix_reasoning\\M018.png'
S'c:\\Charlie\\charlie\\stimuli\\visual\\matrix_reasoning\\M018a.png'
I0
I0
I2497
tp40
a(g18
g19
g22
I18
S'c:\\Charlie\\charlie\\stimuli\\visual\\matrix_reasoning\\M019.png'
S'c:\\Charlie\\charlie\\stimuli\\visual\\matrix_reasoning\\M019a.png'
I0
I0
I4607
tp41
a(g18
g19
g22
I19
S'c:\\Charlie\\charlie\\stimuli\\visual\\matrix_reasoning\\M020.png'
S'c:\\Charlie\\charlie\\stimuli\\visual\\matrix_reasoning\\M020a.png'
I3
I3
I9654
tp42
a(g18
g19
g22
I20
S'c:\\Charlie\\charlie\\stimuli\\visual\\matrix_reasoning\\M021.png'
S'c:\\Charlie\\charlie\\stimuli\\visual\\matrix_reasoning\\M021a.png'
I4
I0
I3348
tp43
a(g18
g19
g22
I21
S'c:\\Charlie\\charlie\\stimuli\\visual\\matrix_reasoning\\M022.png'
S'c:\\Charlie\\charlie\\stimuli\\visual\\matrix_reasoning\\M022a.png'
I4
I4
I7536
tp44
a(g18
g19
g22
I22
S'c:\\Charlie\\charlie\\stimuli\\visual\\matrix_reasoning\\M023.png'
S'c:\\Charlie\\charlie\\stimuli\\visual\\matrix_reasoning\\M023a.png'
I1
I4
I6926
tp45
a(g18
g19
g22
I23
S'c:\\Charlie\\charlie\\stimuli\\visual\\matrix_reasoning\\M024.png'
S'c:\\Charlie\\charlie\\stimuli\\visual\\matrix_reasoning\\M024a.png'
I1
I3
I8854
tp46
a(g18
g19
g22
I24
S'c:\\Charlie\\charlie\\stimuli\\visual\\matrix_reasoning\\M025.png'
S'c:\\Charlie\\charlie\\stimuli\\visual\\matrix_reasoning\\M025a.png'
I0
I0
I8718
tp47
a(g18
g19
g22
I25
S'c:\\Charlie\\charlie\\stimuli\\visual\\matrix_reasoning\\M026.png'
S'c:\\Charlie\\charlie\\stimuli\\visual\\matrix_reasoning\\M026a.png'
I4
I4
I12805
tp48
a(g18
g19
g22
I26
S'c:\\Charlie\\charlie\\stimuli\\visual\\matrix_reasoning\\M027.png'
S'c:\\Charlie\\charlie\\stimuli\\visual\\matrix_reasoning\\M027a.png'
I3
I3
I8556
tp49
a(g18
g19
g22
I27
S'c:\\Charlie\\charlie\\stimuli\\visual\\matrix_reasoning\\M028.png'
S'c:\\Charlie\\charlie\\stimuli\\visual\\matrix_reasoning\\M028a.png'
I2
I3
I21010
tp50
a(g18
g19
g22
I28
S'c:\\Charlie\\charlie\\stimuli\\visual\\matrix_reasoning\\M029.png'
S'c:\\Charlie\\charlie\\stimuli\\visual\\matrix_reasoning\\M029a.png'
I2
I0
I22056
tp51
a(g18
g19
g22
I29
S'c:\\Charlie\\charlie\\stimuli\\visual\\matrix_reasoning\\M030.png'
S'c:\\Charlie\\charlie\\stimuli\\visual\\matrix_reasoning\\M030a.png'
I3
I2
I6186
tp52
a(g18
g19
g22
I30
S'c:\\Charlie\\charlie\\stimuli\\visual\\matrix_reasoning\\M031.png'
p53
S'c:\\Charlie\\charlie\\stimuli\\visual\\matrix_reasoning\\M031a.png'
p54
I0
I1
I36340
tp55
asS'output_format'
p56
(lp57
(S'proband_id'
p58
c__builtin__
str
p59
tp60
a(S'test_name'
p61
g59
tp62
a(S'phase'
p63
g59
tp64
a(S'trialn'
p65
c__builtin__
int
p66
tp67
a(S'matrix'
p68
g59
tp69
a(S'array'
p70
g59
tp71
a(S'ans'
p72
g66
tp73
a(S'rsp'
p74
g66
tp75
a(S'rt'
p76
g66
tp77
asg58
g18
sS'filename'
p78
S'4372_matrix_reasoning.data'
p79
sS'initialised'
p80
g8
(S'\x07\xdf\x04\x0f\x0f\x00\x03\x00\x98X'
tRp81
sS'last_udated'
p82
g8
(S'\x07\xdf\x04\x0f\x0f\x00\x03\x00\x98X'
tRp83
sg61
S'matrix_reasoning'
p84
sS'directory'
p85
S'c:\\Charlie\\charlie\\data\\raw'
p86
sS'user_id'
p87
S'oleach'
p88
sS'test_started'
p89
I01
sS'abs_filename'
p90
S'c:\\Charlie\\charlie\\data\\raw\\4372_matrix_reasoning.data'
p91
sS'date_started'
p92
g8
(S'\x07\xdf\x04\x0f\x0f\x00!\x07\xbcx'
tRp93
sS'log'
p94
(lp95
(S'2015-04-15 15:00:03.039000'
S'instance created'
p96
tp97
a(S'2015-04-15 15:00:33.518000'
S'instance updated'
p98
tp99
a(S'2015-04-15 15:00:33.527000'
S'pandas DataFrame of data created'
p100
tp101
a(S'2015-04-15 15:00:33.533000'
S'data saved as csv to c:\\Charlie\\charlie\\data\\csv\\4372_matrix_reasoning.csv'
tp102
a(S'2015-04-15 15:00:33.543000'
g100
tp103
a(S'2015-04-15 15:00:38.529000'
g98
tp104
a(S'2015-04-15 15:00:38.538000'
g100
tp105
a(S'2015-04-15 15:00:38.542000'
S'data saved as csv to c:\\Charlie\\charlie\\data\\csv\\4372_matrix_reasoning.csv'
tp106
a(S'2015-04-15 15:00:38.552000'
g100
tp107
a(S'2015-04-15 15:00:41.032000'
g98
tp108
a(S'2015-04-15 15:00:41.042000'
g100
tp109
a(S'2015-04-15 15:00:41.046000'
S'data saved as csv to c:\\Charlie\\charlie\\data\\csv\\4372_matrix_reasoning.csv'
tp110
a(S'2015-04-15 15:00:41.055000'
g100
tp111
a(S'2015-04-15 15:00:43.994000'
g98
tp112
a(S'2015-04-15 15:00:43.998000'
g100
tp113
a(S'2015-04-15 15:00:43.999000'
S'data saved as csv to c:\\Charlie\\charlie\\data\\csv\\4372_matrix_reasoning.csv'
tp114
a(S'2015-04-15 15:00:44.002000'
g100
tp115
a(S'2015-04-15 15:00:46.242000'
g98
tp116
a(S'2015-04-15 15:00:46.251000'
g100
tp117
a(S'2015-04-15 15:00:46.255000'
S'data saved as csv to c:\\Charlie\\charlie\\data\\csv\\4372_matrix_reasoning.csv'
tp118
a(S'2015-04-15 15:00:46.265000'
g100
tp119
a(S'2015-04-15 15:00:48.948000'
g98
tp120
a(S'2015-04-15 15:00:48.954000'
g100
tp121
a(S'2015-04-15 15:00:48.956000'
S'data saved as csv to c:\\Charlie\\charlie\\data\\csv\\4372_matrix_reasoning.csv'
tp122
a(S'2015-04-15 15:00:48.962000'
g100
tp123
a(S'2015-04-15 15:00:53.075000'
g98
tp124
a(S'2015-04-15 15:00:53.085000'
g100
tp125
a(S'2015-04-15 15:00:53.089000'
S'data saved as csv to c:\\Charlie\\charlie\\data\\csv\\4372_matrix_reasoning.csv'
tp126
a(S'2015-04-15 15:00:53.099000'
g100
tp127
a(S'2015-04-15 15:00:55.435000'
g98
tp128
a(S'2015-04-15 15:00:55.445000'
g100
tp129
a(S'2015-04-15 15:00:55.449000'
S'data saved as csv to c:\\Charlie\\charlie\\data\\csv\\4372_matrix_reasoning.csv'
tp130
a(S'2015-04-15 15:00:55.459000'
g100
tp131
a(S'2015-04-15 15:00:57.866000'
g98
tp132
a(S'2015-04-15 15:00:57.877000'
g100
tp133
a(S'2015-04-15 15:00:57.881000'
S'data saved as csv to c:\\Charlie\\charlie\\data\\csv\\4372_matrix_reasoning.csv'
tp134
a(S'2015-04-15 15:00:57.887000'
g100
tp135
a(S'2015-04-15 15:01:00.444000'
g98
tp136
a(S'2015-04-15 15:01:00.453000'
g100
tp137
a(S'2015-04-15 15:01:00.457000'
S'data saved as csv to c:\\Charlie\\charlie\\data\\csv\\4372_matrix_reasoning.csv'
tp138
a(S'2015-04-15 15:01:00.467000'
g100
tp139
a(S'2015-04-15 15:01:04.364000'
g98
tp140
a(S'2015-04-15 15:01:04.374000'
g100
tp141
a(S'2015-04-15 15:01:04.378000'
S'data saved as csv to c:\\Charlie\\charlie\\data\\csv\\4372_matrix_reasoning.csv'
tp142
a(S'2015-04-15 15:01:04.387000'
g100
tp143
a(S'2015-04-15 15:01:07.699000'
g98
tp144
a(S'2015-04-15 15:01:07.705000'
g100
tp145
a(S'2015-04-15 15:01:07.708000'
S'data saved as csv to c:\\Charlie\\charlie\\data\\csv\\4372_matrix_reasoning.csv'
tp146
a(S'2015-04-15 15:01:07.714000'
g100
tp147
a(S'2015-04-15 15:01:10.522000'
g98
tp148
a(S'2015-04-15 15:01:10.526000'
g100
tp149
a(S'2015-04-15 15:01:10.527000'
S'data saved as csv to c:\\Charlie\\charlie\\data\\csv\\4372_matrix_reasoning.csv'
tp150
a(S'2015-04-15 15:01:10.530000'
g100
tp151
a(S'2015-04-15 15:01:14.773000'
g98
tp152
a(S'2015-04-15 15:01:14.784000'
g100
tp153
a(S'2015-04-15 15:01:14.788000'
S'data saved as csv to c:\\Charlie\\charlie\\data\\csv\\4372_matrix_reasoning.csv'
tp154
a(S'2015-04-15 15:01:14.797000'
g100
tp155
a(S'2015-04-15 15:01:19.839000'
g98
tp156
a(S'2015-04-15 15:01:19.848000'
g100
tp157
a(S'2015-04-15 15:01:19.850000'
S'data saved as csv to c:\\Charlie\\charlie\\data\\csv\\4372_matrix_reasoning.csv'
tp158
a(S'2015-04-15 15:01:19.855000'
g100
tp159
a(S'2015-04-15 15:01:23.111000'
g98
tp160
a(S'2015-04-15 15:01:23.121000'
g100
tp161
a(S'2015-04-15 15:01:23.125000'
S'data saved as csv to c:\\Charlie\\charlie\\data\\csv\\4372_matrix_reasoning.csv'
tp162
a(S'2015-04-15 15:01:23.134000'
g100
tp163
a(S'2015-04-15 15:01:27.083000'
g98
tp164
a(S'2015-04-15 15:01:27.087000'
g100
tp165
a(S'2015-04-15 15:01:27.089000'
S'data saved as csv to c:\\Charlie\\charlie\\data\\csv\\4372_matrix_reasoning.csv'
tp166
a(S'2015-04-15 15:01:27.094000'
g100
tp167
a(S'2015-04-15 15:01:30.248000'
g98
tp168
a(S'2015-04-15 15:01:30.258000'
g100
tp169
a(S'2015-04-15 15:01:30.262000'
S'data saved as csv to c:\\Charlie\\charlie\\data\\csv\\4372_matrix_reasoning.csv'
tp170
a(S'2015-04-15 15:01:30.272000'
g100
tp171
a(S'2015-04-15 15:01:32.912000'
g98
tp172
a(S'2015-04-15 15:01:32.922000'
g100
tp173
a(S'2015-04-15 15:01:32.927000'
S'data saved as csv to c:\\Charlie\\charlie\\data\\csv\\4372_matrix_reasoning.csv'
tp174
a(S'2015-04-15 15:01:32.937000'
g100
tp175
a(S'2015-04-15 15:01:37.689000'
g98
tp176
a(S'2015-04-15 15:01:37.699000'
g100
tp177
a(S'2015-04-15 15:01:37.701000'
S'data saved as csv to c:\\Charlie\\charlie\\data\\csv\\4372_matrix_reasoning.csv'
tp178
a(S'2015-04-15 15:01:37.707000'
g100
tp179
a(S'2015-04-15 15:01:47.487000'
g98
tp180
a(S'2015-04-15 15:01:47.491000'
g100
tp181
a(S'2015-04-15 15:01:47.493000'
S'data saved as csv to c:\\Charlie\\charlie\\data\\csv\\4372_matrix_reasoning.csv'
tp182
a(S'2015-04-15 15:01:47.497000'
g100
tp183
a(S'2015-04-15 15:01:50.979000'
g98
tp184
a(S'2015-04-15 15:01:50.990000'
g100
tp185
a(S'2015-04-15 15:01:50.994000'
S'data saved as csv to c:\\Charlie\\charlie\\data\\csv\\4372_matrix_reasoning.csv'
tp186
a(S'2015-04-15 15:01:51.004000'
g100
tp187
a(S'2015-04-15 15:01:58.683000'
g98
tp188
a(S'2015-04-15 15:01:58.694000'
g100
tp189
a(S'2015-04-15 15:01:58.698000'
S'data saved as csv to c:\\Charlie\\charlie\\data\\csv\\4372_matrix_reasoning.csv'
tp190
a(S'2015-04-15 15:01:58.709000'
g100
tp191
a(S'2015-04-15 15:02:05.779000'
g98
tp192
a(S'2015-04-15 15:02:05.788000'
g100
tp193
a(S'2015-04-15 15:02:05.792000'
S'data saved as csv to c:\\Charlie\\charlie\\data\\csv\\4372_matrix_reasoning.csv'
tp194
a(S'2015-04-15 15:02:05.801000'
g100
tp195
a(S'2015-04-15 15:02:14.796000'
g98
tp196
a(S'2015-04-15 15:02:14.806000'
g100
tp197
a(S'2015-04-15 15:02:14.811000'
S'data saved as csv to c:\\Charlie\\charlie\\data\\csv\\4372_matrix_reasoning.csv'
tp198
a(S'2015-04-15 15:02:14.818000'
g100
tp199
a(S'2015-04-15 15:02:23.676000'
g98
tp200
a(S'2015-04-15 15:02:23.687000'
g100
tp201
a(S'2015-04-15 15:02:23.691000'
S'data saved as csv to c:\\Charlie\\charlie\\data\\csv\\4372_matrix_reasoning.csv'
tp202
a(S'2015-04-15 15:02:23.702000'
g100
tp203
a(S'2015-04-15 15:02:36.653000'
g98
tp204
a(S'2015-04-15 15:02:36.664000'
g100
tp205
a(S'2015-04-15 15:02:36.668000'
S'data saved as csv to c:\\Charlie\\charlie\\data\\csv\\4372_matrix_reasoning.csv'
tp206
a(S'2015-04-15 15:02:36.679000'
g100
tp207
a(S'2015-04-15 15:02:45.381000'
g98
tp208
a(S'2015-04-15 15:02:45.388000'
g100
tp209
a(S'2015-04-15 15:02:45.391000'
S'data saved as csv to c:\\Charlie\\charlie\\data\\csv\\4372_matrix_reasoning.csv'
tp210
a(S'2015-04-15 15:02:45.398000'
g100
tp211
a(S'2015-04-15 15:03:06.543000'
g98
tp212
a(S'2015-04-15 15:03:06.549000'
g100
tp213
a(S'2015-04-15 15:03:06.551000'
S'data saved as csv to c:\\Charlie\\charlie\\data\\csv\\4372_matrix_reasoning.csv'
tp214
a(S'2015-04-15 15:03:06.557000'
g100
tp215
a(S'2015-04-15 15:03:28.752000'
g98
tp216
a(S'2015-04-15 15:03:28.763000'
g100
tp217
a(S'2015-04-15 15:03:28.766000'
S'data saved as csv to c:\\Charlie\\charlie\\data\\csv\\4372_matrix_reasoning.csv'
tp218
a(S'2015-04-15 15:03:28.772000'
g100
tp219
a(S'2015-04-15 15:03:35.096000'
g98
tp220
a(S'2015-04-15 15:03:35.106000'
g100
tp221
a(S'2015-04-15 15:03:35.111000'
S'data saved as csv to c:\\Charlie\\charlie\\data\\csv\\4372_matrix_reasoning.csv'
tp222
a(S'2015-04-15 15:03:35.121000'
g100
tp223
a(S'2015-04-15 15:04:11.602000'
g98
tp224
a(S'2015-04-15 15:04:11.612000'
g100
tp225
a(S'2015-04-15 15:04:11.615000'
S'data saved as csv to c:\\Charlie\\charlie\\data\\csv\\4372_matrix_reasoning.csv'
tp226
a(S'2015-04-15 15:04:11.625000'
g100
tp227
asb.