(icharlie.tools.data
Data
p1
(dp2
S'lang'
p3
S'EN'
p4
sS'control'
p5
(lp6
sS'last_updated'
p7
cdatetime
datetime
p8
(S'\x07\xdf\x04\x0f\x0f\x0c0\x04Qx'
tRp9
sS'last_opened'
p10
g8
(S'\x07\xdf\x04\x0f\x0f\x07\t\x08\xed('
tRp11
sS'proj_id'
p12
S'connecitivty'
p13
sS'date_done'
p14
g8
(S'\x07\xdf\x04\x0f\x0f\x0c0\x04*h'
tRp15
sS'test_done'
p16
I01
sS'data'
p17
(lp18
(S'4372'
p19
S'verbal_fluency'
p20
I0
S'True'
p21
tp22
a(g19
g20
I0
g21
tp23
a(g19
g20
I0
g21
tp24
a(g19
g20
I0
g21
tp25
a(g19
g20
I0
g21
tp26
a(g19
g20
I0
g21
tp27
a(g19
g20
I0
g21
tp28
a(g19
g20
I0
g21
tp29
a(g19
g20
I0
g21
tp30
a(g19
g20
I0
g21
tp31
a(g19
g20
I0
g21
tp32
a(g19
g20
I0
g21
tp33
a(g19
g20
I0
g21
tp34
a(g19
g20
I0
g21
tp35
a(g19
g20
I0
g21
tp36
a(g19
g20
I0
g21
tp37
a(g19
g20
I0
g21
tp38
a(g19
g20
I0
g21
tp39
a(g19
g20
I0
g21
tp40
a(g19
g20
I0
g21
tp41
a(g19
g20
I0
g21
tp42
a(g19
g20
I0
g21
tp43
a(g19
g20
I0
g21
tp44
a(g19
g20
I0
g21
tp45
a(g19
g20
I0
g21
tp46
a(g19
g20
I1
g21
tp47
a(g19
g20
I1
g21
tp48
a(g19
g20
I1
g21
tp49
a(g19
g20
I1
g21
tp50
a(g19
g20
I1
g21
tp51
a(g19
g20
I1
g21
tp52
a(g19
g20
I1
g21
tp53
a(g19
g20
I1
g21
tp54
a(g19
g20
I1
g21
tp55
a(g19
g20
I1
S'False'
p56
tp57
a(g19
g20
I1
g21
tp58
a(g19
g20
I1
g21
tp59
a(g19
g20
I1
g21
tp60
a(g19
g20
I1
g56
tp61
a(g19
g20
I1
g21
tp62
a(g19
g20
I1
g21
tp63
a(g19
g20
I2
g21
tp64
a(g19
g20
I2
g21
tp65
a(g19
g20
I2
g21
tp66
a(g19
g20
I2
g21
tp67
a(g19
g20
I2
g21
tp68
a(g19
g20
I2
g21
tp69
a(g19
g20
I2
g21
tp70
a(g19
g20
I2
g21
tp71
a(g19
g20
I2
g21
tp72
a(g19
g20
I2
g21
tp73
a(g19
g20
I2
g21
tp74
a(g19
g20
I2
g21
tp75
a(g19
g20
I2
g21
tp76
a(g19
g20
I2
g21
tp77
a(g19
g20
I2
g21
tp78
a(g19
g20
I2
g21
tp79
a(g19
g20
I2
g21
tp80
a(g19
g20
I2
g21
tp81
a(g19
g20
I2
g21
tp82
a(g19
g20
I2
g21
tp83
a(g19
g20
I3
g21
tp84
a(g19
g20
I3
g21
tp85
a(g19
g20
I3
g21
tp86
a(g19
g20
I3
g21
tp87
a(g19
g20
I3
g21
tp88
a(g19
g20
I3
g21
tp89
a(g19
g20
I3
g21
tp90
a(g19
g20
I3
g21
tp91
a(g19
g20
I3
g21
tp92
a(g19
g20
I3
g21
tp93
a(g19
g20
I3
g21
tp94
a(g19
g20
I3
g21
tp95
a(g19
g20
I3
g21
tp96
a(g19
g20
I3
g21
tp97
a(g19
g20
I3
g21
tp98
a(g19
g20
I3
g21
tp99
a(g19
g20
I3
g21
tp100
a(g19
g20
I3
g21
tp101
a(g19
g20
I3
g21
tp102
a(g19
g20
I3
g21
tp103
a(g19
g20
I3
g21
tp104
a(g19
g20
I3
g21
tp105
a(g19
g20
I3
g21
tp106
a(g19
g20
I3
g21
tp107
a(g19
g20
I3
g21
tp108
asS'output_format'
p109
(lp110
(S'proband_id'
p111
c__builtin__
str
p112
tp113
a(S'test_name'
p114
g112
tp115
a(S'trialn'
p116
c__builtin__
int
p117
tp118
a(S'rsp'
p119
g112
tp120
asg111
g19
sS'filename'
p121
S'4372_verbal_fluency.data'
p122
sS'initialised'
p123
g8
(S'\x07\xdf\x04\x0f\x0f\x07\t\x08\xed('
tRp124
sS'last_udated'
p125
g8
(S'\x07\xdf\x04\x0f\x0f\x07\t\x08\xed('
tRp126
sg114
S'verbal_fluency'
p127
sS'directory'
p128
S'c:\\Charlie\\charlie\\data\\raw'
p129
sS'user_id'
p130
S'oleach'
p131
sS'test_started'
p132
I01
sS'abs_filename'
p133
S'c:\\Charlie\\charlie\\data\\raw\\4372_verbal_fluency.data'
p134
sS'date_started'
p135
g8
(S'\x07\xdf\x04\x0f\x0f\t\x0f\x00\xeeH'
tRp136
sS'log'
p137
(lp138
(S'2015-04-15 15:07:09.585000'
S'instance created'
p139
tp140
a(S'2015-04-15 15:09:15.071000'
S'instance updated'
p141
tp142
a(S'2015-04-15 15:09:15.076000'
S'pandas DataFrame of data created'
p143
tp144
a(S'2015-04-15 15:09:15.081000'
S'data saved as csv to c:\\Charlie\\charlie\\data\\csv\\4372_verbal_fluency.csv'
tp145
a(S'2015-04-15 15:09:20.143000'
g141
tp146
a(S'2015-04-15 15:09:20.148000'
g143
tp147
a(S'2015-04-15 15:09:20.152000'
S'data saved as csv to c:\\Charlie\\charlie\\data\\csv\\4372_verbal_fluency.csv'
tp148
a(S'2015-04-15 15:10:24.464000'
g141
tp149
a(S'2015-04-15 15:10:24.470000'
g143
tp150
a(S'2015-04-15 15:10:24.473000'
S'data saved as csv to c:\\Charlie\\charlie\\data\\csv\\4372_verbal_fluency.csv'
tp151
a(S'2015-04-15 15:10:28.344000'
g141
tp152
a(S'2015-04-15 15:10:28.349000'
g143
tp153
a(S'2015-04-15 15:10:28.353000'
S'data saved as csv to c:\\Charlie\\charlie\\data\\csv\\4372_verbal_fluency.csv'
tp154
a(S'2015-04-15 15:11:32.171000'
g141
tp155
a(S'2015-04-15 15:11:32.176000'
g143
tp156
a(S'2015-04-15 15:11:32.180000'
S'data saved as csv to c:\\Charlie\\charlie\\data\\csv\\4372_verbal_fluency.csv'
tp157
a(S'2015-04-15 15:11:44.139000'
g141
tp158
a(S'2015-04-15 15:11:44.144000'
g143
tp159
a(S'2015-04-15 15:11:44.148000'
S'data saved as csv to c:\\Charlie\\charlie\\data\\csv\\4372_verbal_fluency.csv'
tp160
a(S'2015-04-15 15:12:48.273000'
g141
tp161
a(S'2015-04-15 15:12:48.279000'
g143
tp162
a(S'2015-04-15 15:12:48.283000'
S'data saved as csv to c:\\Charlie\\charlie\\data\\csv\\4372_verbal_fluency.csv'
tp163
asb.