(icharlie.tools.data
Data
p1
(dp2
S'lang'
p3
S'EN'
p4
sS'control'
p5
(lp6
sS'last_updated'
p7
cdatetime
datetime
p8
(S'\x07\xdf\x04\x11\x0f\n\n\r\x8c\xc0'
tRp9
sS'last_opened'
p10
g8
(S'\x07\xdf\x04\x11\x0f\x03/\x0e{\x08'
tRp11
sS'proj_id'
p12
S'connectivity'
p13
sS'date_done'
p14
NsS'test_done'
p15
I01
sS'data'
p16
(lp17
(S'4374'
p18
S'ipcpts'
p19
S'practice'
p20
I0
I0
S'No'
p21
S'c:\\Charlie\\charlie\\stimuli\\visual\\ipcpts\\sym0.bmp'
S'c:\\Charlie\\charlie\\stimuli\\visual\\ipcpts\\sym1.bmp'
S'c:\\Charlie\\charlie\\stimuli\\visual\\ipcpts\\sym2.bmp'
S'No'
p22
I0
tp23
a(g18
g19
g20
I1
I0
g21
S'c:\\Charlie\\charlie\\stimuli\\visual\\ipcpts\\sym1.bmp'
S'c:\\Charlie\\charlie\\stimuli\\visual\\ipcpts\\sym2.bmp'
S'c:\\Charlie\\charlie\\stimuli\\visual\\ipcpts\\sym6.bmp'
S'Yes'
p24
I1769
tp25
a(g18
g19
g20
I2
I0
g21
S'c:\\Charlie\\charlie\\stimuli\\visual\\ipcpts\\sym3.bmp'
S'c:\\Charlie\\charlie\\stimuli\\visual\\ipcpts\\sym4.bmp'
S'c:\\Charlie\\charlie\\stimuli\\visual\\ipcpts\\sym7.bmp'
g22
I0
tp26
a(g18
g19
g20
I3
I3
S'Yes'
p27
S'c:\\Charlie\\charlie\\stimuli\\visual\\ipcpts\\sym3.bmp'
S'c:\\Charlie\\charlie\\stimuli\\visual\\ipcpts\\sym4.bmp'
S'c:\\Charlie\\charlie\\stimuli\\visual\\ipcpts\\sym7.bmp'
g24
I1121
tp28
a(g18
g19
g20
I4
I0
g21
S'c:\\Charlie\\charlie\\stimuli\\visual\\ipcpts\\sym4.bmp'
S'c:\\Charlie\\charlie\\stimuli\\visual\\ipcpts\\sym7.bmp'
S'c:\\Charlie\\charlie\\stimuli\\visual\\ipcpts\\sym3.bmp'
g24
I2209
tp29
a(g18
g19
g20
I5
I3
g27
S'c:\\Charlie\\charlie\\stimuli\\visual\\ipcpts\\sym4.bmp'
S'c:\\Charlie\\charlie\\stimuli\\visual\\ipcpts\\sym7.bmp'
S'c:\\Charlie\\charlie\\stimuli\\visual\\ipcpts\\sym3.bmp'
g22
I0
tp30
a(g18
g19
g20
I6
I0
g21
S'c:\\Charlie\\charlie\\stimuli\\visual\\ipcpts\\sym7.bmp'
S'c:\\Charlie\\charlie\\stimuli\\visual\\ipcpts\\sym1.bmp'
S'c:\\Charlie\\charlie\\stimuli\\visual\\ipcpts\\sym0.bmp'
g22
I0
tp31
a(g18
g19
S'test'
p32
I0
I0
g21
S'c:\\Charlie\\charlie\\stimuli\\visual\\ipcpts\\sym0.bmp'
S'c:\\Charlie\\charlie\\stimuli\\visual\\ipcpts\\sym1.bmp'
S'c:\\Charlie\\charlie\\stimuli\\visual\\ipcpts\\sym2.bmp'
g22
I0
tp33
a(g18
g19
g32
I1
I0
g21
S'c:\\Charlie\\charlie\\stimuli\\visual\\ipcpts\\sym6.bmp'
S'c:\\Charlie\\charlie\\stimuli\\visual\\ipcpts\\sym9.bmp'
S'c:\\Charlie\\charlie\\stimuli\\visual\\ipcpts\\sym0.bmp'
g22
I0
tp34
a(g18
g19
g32
I2
I3
g27
S'c:\\Charlie\\charlie\\stimuli\\visual\\ipcpts\\sym6.bmp'
S'c:\\Charlie\\charlie\\stimuli\\visual\\ipcpts\\sym9.bmp'
S'c:\\Charlie\\charlie\\stimuli\\visual\\ipcpts\\sym0.bmp'
g24
I1233
tp35
a(g18
g19
g32
I3
I3
g27
S'c:\\Charlie\\charlie\\stimuli\\visual\\ipcpts\\sym6.bmp'
S'c:\\Charlie\\charlie\\stimuli\\visual\\ipcpts\\sym9.bmp'
S'c:\\Charlie\\charlie\\stimuli\\visual\\ipcpts\\sym0.bmp'
g22
I0
tp36
a(g18
g19
g32
I4
I0
g21
S'c:\\Charlie\\charlie\\stimuli\\visual\\ipcpts\\sym3.bmp'
S'c:\\Charlie\\charlie\\stimuli\\visual\\ipcpts\\sym5.bmp'
S'c:\\Charlie\\charlie\\stimuli\\visual\\ipcpts\\sym8.bmp'
g22
I0
tp37
a(g18
g19
g32
I5
I3
g27
S'c:\\Charlie\\charlie\\stimuli\\visual\\ipcpts\\sym3.bmp'
S'c:\\Charlie\\charlie\\stimuli\\visual\\ipcpts\\sym5.bmp'
S'c:\\Charlie\\charlie\\stimuli\\visual\\ipcpts\\sym8.bmp'
g24
I501
tp38
a(g18
g19
g32
I6
I0
g21
S'c:\\Charlie\\charlie\\stimuli\\visual\\ipcpts\\sym9.bmp'
S'c:\\Charlie\\charlie\\stimuli\\visual\\ipcpts\\sym3.bmp'
S'c:\\Charlie\\charlie\\stimuli\\visual\\ipcpts\\sym0.bmp'
g22
I0
tp39
a(g18
g19
g32
I7
I1
g21
S'c:\\Charlie\\charlie\\stimuli\\visual\\ipcpts\\sym2.bmp'
S'c:\\Charlie\\charlie\\stimuli\\visual\\ipcpts\\sym4.bmp'
S'c:\\Charlie\\charlie\\stimuli\\visual\\ipcpts\\sym0.bmp'
g22
I0
tp40
a(g18
g19
g32
I8
I3
g27
S'c:\\Charlie\\charlie\\stimuli\\visual\\ipcpts\\sym2.bmp'
S'c:\\Charlie\\charlie\\stimuli\\visual\\ipcpts\\sym4.bmp'
S'c:\\Charlie\\charlie\\stimuli\\visual\\ipcpts\\sym0.bmp'
g24
I561
tp41
a(g18
g19
g32
I9
I1
g21
S'c:\\Charlie\\charlie\\stimuli\\visual\\ipcpts\\sym4.bmp'
S'c:\\Charlie\\charlie\\stimuli\\visual\\ipcpts\\sym5.bmp'
S'c:\\Charlie\\charlie\\stimuli\\visual\\ipcpts\\sym0.bmp'
g22
I0
tp42
a(g18
g19
g32
I10
I3
g27
S'c:\\Charlie\\charlie\\stimuli\\visual\\ipcpts\\sym4.bmp'
S'c:\\Charlie\\charlie\\stimuli\\visual\\ipcpts\\sym5.bmp'
S'c:\\Charlie\\charlie\\stimuli\\visual\\ipcpts\\sym0.bmp'
g24
I625
tp43
a(g18
g19
g32
I11
I2
g21
S'c:\\Charlie\\charlie\\stimuli\\visual\\ipcpts\\sym8.bmp'
S'c:\\Charlie\\charlie\\stimuli\\visual\\ipcpts\\sym5.bmp'
S'c:\\Charlie\\charlie\\stimuli\\visual\\ipcpts\\sym0.bmp'
g24
I949
tp44
a(g18
g19
g32
I12
I2
g21
S'c:\\Charlie\\charlie\\stimuli\\visual\\ipcpts\\sym8.bmp'
S'c:\\Charlie\\charlie\\stimuli\\visual\\ipcpts\\sym5.bmp'
S'c:\\Charlie\\charlie\\stimuli\\visual\\ipcpts\\sym4.bmp'
g22
I0
tp45
a(g18
g19
g32
I13
I2
g21
S'c:\\Charlie\\charlie\\stimuli\\visual\\ipcpts\\sym8.bmp'
S'c:\\Charlie\\charlie\\stimuli\\visual\\ipcpts\\sym3.bmp'
S'c:\\Charlie\\charlie\\stimuli\\visual\\ipcpts\\sym4.bmp'
g22
I0
tp46
a(g18
g19
g32
I14
I0
g21
S'c:\\Charlie\\charlie\\stimuli\\visual\\ipcpts\\sym1.bmp'
S'c:\\Charlie\\charlie\\stimuli\\visual\\ipcpts\\sym7.bmp'
S'c:\\Charlie\\charlie\\stimuli\\visual\\ipcpts\\sym9.bmp'
g22
I0
tp47
a(g18
g19
g32
I15
I0
g21
S'c:\\Charlie\\charlie\\stimuli\\visual\\ipcpts\\sym9.bmp'
S'c:\\Charlie\\charlie\\stimuli\\visual\\ipcpts\\sym5.bmp'
S'c:\\Charlie\\charlie\\stimuli\\visual\\ipcpts\\sym2.bmp'
g22
I0
tp48
a(g18
g19
g32
I16
I3
g27
S'c:\\Charlie\\charlie\\stimuli\\visual\\ipcpts\\sym9.bmp'
S'c:\\Charlie\\charlie\\stimuli\\visual\\ipcpts\\sym5.bmp'
S'c:\\Charlie\\charlie\\stimuli\\visual\\ipcpts\\sym2.bmp'
g24
I665
tp49
a(g18
g19
g32
I17
I0
g21
S'c:\\Charlie\\charlie\\stimuli\\visual\\ipcpts\\sym6.bmp'
S'c:\\Charlie\\charlie\\stimuli\\visual\\ipcpts\\sym2.bmp'
S'c:\\Charlie\\charlie\\stimuli\\visual\\ipcpts\\sym9.bmp'
g22
I0
tp50
a(g18
g19
g32
I18
I3
g27
S'c:\\Charlie\\charlie\\stimuli\\visual\\ipcpts\\sym6.bmp'
S'c:\\Charlie\\charlie\\stimuli\\visual\\ipcpts\\sym2.bmp'
S'c:\\Charlie\\charlie\\stimuli\\visual\\ipcpts\\sym9.bmp'
g24
I504
tp51
a(g18
g19
g32
I19
I0
g21
S'c:\\Charlie\\charlie\\stimuli\\visual\\ipcpts\\sym8.bmp'
S'c:\\Charlie\\charlie\\stimuli\\visual\\ipcpts\\sym5.bmp'
S'c:\\Charlie\\charlie\\stimuli\\visual\\ipcpts\\sym2.bmp'
g22
I0
tp52
a(g18
g19
g32
I20
I3
g27
S'c:\\Charlie\\charlie\\stimuli\\visual\\ipcpts\\sym8.bmp'
S'c:\\Charlie\\charlie\\stimuli\\visual\\ipcpts\\sym5.bmp'
S'c:\\Charlie\\charlie\\stimuli\\visual\\ipcpts\\sym2.bmp'
g24
I505
tp53
a(g18
g19
g32
I21
I0
g21
S'c:\\Charlie\\charlie\\stimuli\\visual\\ipcpts\\sym0.bmp'
S'c:\\Charlie\\charlie\\stimuli\\visual\\ipcpts\\sym7.bmp'
S'c:\\Charlie\\charlie\\stimuli\\visual\\ipcpts\\sym5.bmp'
g22
I0
tp54
a(g18
g19
g32
I22
I2
g21
S'c:\\Charlie\\charlie\\stimuli\\visual\\ipcpts\\sym0.bmp'
S'c:\\Charlie\\charlie\\stimuli\\visual\\ipcpts\\sym1.bmp'
S'c:\\Charlie\\charlie\\stimuli\\visual\\ipcpts\\sym5.bmp'
g22
I0
tp55
a(g18
g19
g32
I23
I3
g27
S'c:\\Charlie\\charlie\\stimuli\\visual\\ipcpts\\sym0.bmp'
S'c:\\Charlie\\charlie\\stimuli\\visual\\ipcpts\\sym1.bmp'
S'c:\\Charlie\\charlie\\stimuli\\visual\\ipcpts\\sym5.bmp'
g24
I669
tp56
a(g18
g19
g32
I24
I2
g21
S'c:\\Charlie\\charlie\\stimuli\\visual\\ipcpts\\sym0.bmp'
S'c:\\Charlie\\charlie\\stimuli\\visual\\ipcpts\\sym8.bmp'
S'c:\\Charlie\\charlie\\stimuli\\visual\\ipcpts\\sym5.bmp'
g24
I649
tp57
a(g18
g19
g32
I25
I3
g27
S'c:\\Charlie\\charlie\\stimuli\\visual\\ipcpts\\sym0.bmp'
S'c:\\Charlie\\charlie\\stimuli\\visual\\ipcpts\\sym8.bmp'
S'c:\\Charlie\\charlie\\stimuli\\visual\\ipcpts\\sym5.bmp'
g24
I677
tp58
a(g18
g19
g32
I26
I1
g21
S'c:\\Charlie\\charlie\\stimuli\\visual\\ipcpts\\sym0.bmp'
S'c:\\Charlie\\charlie\\stimuli\\visual\\ipcpts\\sym3.bmp'
S'c:\\Charlie\\charlie\\stimuli\\visual\\ipcpts\\sym2.bmp'
g22
I0
tp59
a(g18
g19
g32
I27
I2
g21
S'c:\\Charlie\\charlie\\stimuli\\visual\\ipcpts\\sym5.bmp'
S'c:\\Charlie\\charlie\\stimuli\\visual\\ipcpts\\sym3.bmp'
S'c:\\Charlie\\charlie\\stimuli\\visual\\ipcpts\\sym2.bmp'
g24
I533
tp60
a(g18
g19
g32
I28
I1
g21
S'c:\\Charlie\\charlie\\stimuli\\visual\\ipcpts\\sym0.bmp'
S'c:\\Charlie\\charlie\\stimuli\\visual\\ipcpts\\sym3.bmp'
S'c:\\Charlie\\charlie\\stimuli\\visual\\ipcpts\\sym5.bmp'
g24
I697
tp61
a(g18
g19
g32
I29
I0
g21
S'c:\\Charlie\\charlie\\stimuli\\visual\\ipcpts\\sym3.bmp'
S'c:\\Charlie\\charlie\\stimuli\\visual\\ipcpts\\sym8.bmp'
S'c:\\Charlie\\charlie\\stimuli\\visual\\ipcpts\\sym9.bmp'
g22
I0
tp62
a(g18
g19
g32
I30
I2
g21
S'c:\\Charlie\\charlie\\stimuli\\visual\\ipcpts\\sym2.bmp'
S'c:\\Charlie\\charlie\\stimuli\\visual\\ipcpts\\sym8.bmp'
S'c:\\Charlie\\charlie\\stimuli\\visual\\ipcpts\\sym9.bmp'
g24
I504
tp63
a(g18
g19
g32
I31
I0
g21
S'c:\\Charlie\\charlie\\stimuli\\visual\\ipcpts\\sym5.bmp'
S'c:\\Charlie\\charlie\\stimuli\\visual\\ipcpts\\sym6.bmp'
S'c:\\Charlie\\charlie\\stimuli\\visual\\ipcpts\\sym2.bmp'
g22
I0
tp64
a(g18
g19
g32
I32
I1
g21
S'c:\\Charlie\\charlie\\stimuli\\visual\\ipcpts\\sym1.bmp'
S'c:\\Charlie\\charlie\\stimuli\\visual\\ipcpts\\sym9.bmp'
S'c:\\Charlie\\charlie\\stimuli\\visual\\ipcpts\\sym2.bmp'
g22
I0
tp65
a(g18
g19
g32
I33
I0
g21
S'c:\\Charlie\\charlie\\stimuli\\visual\\ipcpts\\sym0.bmp'
S'c:\\Charlie\\charlie\\stimuli\\visual\\ipcpts\\sym5.bmp'
S'c:\\Charlie\\charlie\\stimuli\\visual\\ipcpts\\sym7.bmp'
g22
I0
tp66
a(g18
g19
g32
I34
I3
g27
S'c:\\Charlie\\charlie\\stimuli\\visual\\ipcpts\\sym0.bmp'
S'c:\\Charlie\\charlie\\stimuli\\visual\\ipcpts\\sym5.bmp'
S'c:\\Charlie\\charlie\\stimuli\\visual\\ipcpts\\sym7.bmp'
g24
I473
tp67
a(g18
g19
g32
I35
I0
g21
S'c:\\Charlie\\charlie\\stimuli\\visual\\ipcpts\\sym3.bmp'
S'c:\\Charlie\\charlie\\stimuli\\visual\\ipcpts\\sym6.bmp'
S'c:\\Charlie\\charlie\\stimuli\\visual\\ipcpts\\sym0.bmp'
g22
I0
tp68
a(g18
g19
g32
I36
I2
g21
S'c:\\Charlie\\charlie\\stimuli\\visual\\ipcpts\\sym2.bmp'
S'c:\\Charlie\\charlie\\stimuli\\visual\\ipcpts\\sym6.bmp'
S'c:\\Charlie\\charlie\\stimuli\\visual\\ipcpts\\sym0.bmp'
g24
I473
tp69
a(g18
g19
g32
I37
I3
g27
S'c:\\Charlie\\charlie\\stimuli\\visual\\ipcpts\\sym2.bmp'
S'c:\\Charlie\\charlie\\stimuli\\visual\\ipcpts\\sym6.bmp'
S'c:\\Charlie\\charlie\\stimuli\\visual\\ipcpts\\sym0.bmp'
g24
I725
tp70
a(g18
g19
g32
I38
I1
g21
S'c:\\Charlie\\charlie\\stimuli\\visual\\ipcpts\\sym2.bmp'
S'c:\\Charlie\\charlie\\stimuli\\visual\\ipcpts\\sym8.bmp'
S'c:\\Charlie\\charlie\\stimuli\\visual\\ipcpts\\sym3.bmp'
g22
I0
tp71
a(g18
g19
g32
I39
I0
g21
S'c:\\Charlie\\charlie\\stimuli\\visual\\ipcpts\\sym8.bmp'
S'c:\\Charlie\\charlie\\stimuli\\visual\\ipcpts\\sym2.bmp'
S'c:\\Charlie\\charlie\\stimuli\\visual\\ipcpts\\sym0.bmp'
g22
I0
tp72
a(g18
g19
g32
I40
I0
g21
S'c:\\Charlie\\charlie\\stimuli\\visual\\ipcpts\\sym5.bmp'
S'c:\\Charlie\\charlie\\stimuli\\visual\\ipcpts\\sym7.bmp'
S'c:\\Charlie\\charlie\\stimuli\\visual\\ipcpts\\sym9.bmp'
g22
I0
tp73
a(g18
g19
g32
I41
I2
g21
S'c:\\Charlie\\charlie\\stimuli\\visual\\ipcpts\\sym5.bmp'
S'c:\\Charlie\\charlie\\stimuli\\visual\\ipcpts\\sym7.bmp'
S'c:\\Charlie\\charlie\\stimuli\\visual\\ipcpts\\sym2.bmp'
g24
I485
tp74
a(g18
g19
g32
I42
I3
g27
S'c:\\Charlie\\charlie\\stimuli\\visual\\ipcpts\\sym5.bmp'
S'c:\\Charlie\\charlie\\stimuli\\visual\\ipcpts\\sym7.bmp'
S'c:\\Charlie\\charlie\\stimuli\\visual\\ipcpts\\sym2.bmp'
g24
I544
tp75
a(g18
g19
g32
I43
I1
g21
S'c:\\Charlie\\charlie\\stimuli\\visual\\ipcpts\\sym9.bmp'
S'c:\\Charlie\\charlie\\stimuli\\visual\\ipcpts\\sym0.bmp'
S'c:\\Charlie\\charlie\\stimuli\\visual\\ipcpts\\sym2.bmp'
g22
I0
tp76
a(g18
g19
g32
I44
I3
g27
S'c:\\Charlie\\charlie\\stimuli\\visual\\ipcpts\\sym9.bmp'
S'c:\\Charlie\\charlie\\stimuli\\visual\\ipcpts\\sym0.bmp'
S'c:\\Charlie\\charlie\\stimuli\\visual\\ipcpts\\sym2.bmp'
g24
I497
tp77
a(g18
g19
g32
I45
I3
g27
S'c:\\Charlie\\charlie\\stimuli\\visual\\ipcpts\\sym9.bmp'
S'c:\\Charlie\\charlie\\stimuli\\visual\\ipcpts\\sym0.bmp'
S'c:\\Charlie\\charlie\\stimuli\\visual\\ipcpts\\sym2.bmp'
g24
I997
tp78
a(g18
g19
g32
I46
I0
g21
S'c:\\Charlie\\charlie\\stimuli\\visual\\ipcpts\\sym7.bmp'
S'c:\\Charlie\\charlie\\stimuli\\visual\\ipcpts\\sym3.bmp'
S'c:\\Charlie\\charlie\\stimuli\\visual\\ipcpts\\sym6.bmp'
g22
I0
tp79
a(g18
g19
g32
I47
I0
g21
S'c:\\Charlie\\charlie\\stimuli\\visual\\ipcpts\\sym4.bmp'
S'c:\\Charlie\\charlie\\stimuli\\visual\\ipcpts\\sym2.bmp'
S'c:\\Charlie\\charlie\\stimuli\\visual\\ipcpts\\sym7.bmp'
g22
I0
tp80
a(g18
g19
g32
I48
I0
g21
S'c:\\Charlie\\charlie\\stimuli\\visual\\ipcpts\\sym6.bmp'
S'c:\\Charlie\\charlie\\stimuli\\visual\\ipcpts\\sym3.bmp'
S'c:\\Charlie\\charlie\\stimuli\\visual\\ipcpts\\sym1.bmp'
g22
I0
tp81
a(g18
g19
g32
I49
I3
g27
S'c:\\Charlie\\charlie\\stimuli\\visual\\ipcpts\\sym6.bmp'
S'c:\\Charlie\\charlie\\stimuli\\visual\\ipcpts\\sym3.bmp'
S'c:\\Charlie\\charlie\\stimuli\\visual\\ipcpts\\sym1.bmp'
g22
I0
tp82
a(g18
g19
g32
I50
I3
g27
S'c:\\Charlie\\charlie\\stimuli\\visual\\ipcpts\\sym6.bmp'
S'c:\\Charlie\\charlie\\stimuli\\visual\\ipcpts\\sym3.bmp'
S'c:\\Charlie\\charlie\\stimuli\\visual\\ipcpts\\sym1.bmp'
g24
I553
tp83
a(g18
g19
g32
I51
I3
g27
S'c:\\Charlie\\charlie\\stimuli\\visual\\ipcpts\\sym6.bmp'
S'c:\\Charlie\\charlie\\stimuli\\visual\\ipcpts\\sym3.bmp'
S'c:\\Charlie\\charlie\\stimuli\\visual\\ipcpts\\sym1.bmp'
g24
I813
tp84
a(g18
g19
g32
I52
I0
g21
S'c:\\Charlie\\charlie\\stimuli\\visual\\ipcpts\\sym1.bmp'
S'c:\\Charlie\\charlie\\stimuli\\visual\\ipcpts\\sym0.bmp'
S'c:\\Charlie\\charlie\\stimuli\\visual\\ipcpts\\sym8.bmp'
g22
I0
tp85
a(g18
g19
g32
I53
I3
g27
S'c:\\Charlie\\charlie\\stimuli\\visual\\ipcpts\\sym1.bmp'
S'c:\\Charlie\\charlie\\stimuli\\visual\\ipcpts\\sym0.bmp'
S'c:\\Charlie\\charlie\\stimuli\\visual\\ipcpts\\sym8.bmp'
g24
I405
tp86
a(g18
g19
g32
I54
I3
g27
S'c:\\Charlie\\charlie\\stimuli\\visual\\ipcpts\\sym1.bmp'
S'c:\\Charlie\\charlie\\stimuli\\visual\\ipcpts\\sym0.bmp'
S'c:\\Charlie\\charlie\\stimuli\\visual\\ipcpts\\sym8.bmp'
g24
I504
tp87
a(g18
g19
g32
I55
I0
g21
S'c:\\Charlie\\charlie\\stimuli\\visual\\ipcpts\\sym4.bmp'
S'c:\\Charlie\\charlie\\stimuli\\visual\\ipcpts\\sym8.bmp'
S'c:\\Charlie\\charlie\\stimuli\\visual\\ipcpts\\sym3.bmp'
g22
I0
tp88
a(g18
g19
g32
I56
I0
g21
S'c:\\Charlie\\charlie\\stimuli\\visual\\ipcpts\\sym3.bmp'
S'c:\\Charlie\\charlie\\stimuli\\visual\\ipcpts\\sym1.bmp'
S'c:\\Charlie\\charlie\\stimuli\\visual\\ipcpts\\sym2.bmp'
g22
I0
tp89
a(g18
g19
g32
I57
I3
g27
S'c:\\Charlie\\charlie\\stimuli\\visual\\ipcpts\\sym3.bmp'
S'c:\\Charlie\\charlie\\stimuli\\visual\\ipcpts\\sym1.bmp'
S'c:\\Charlie\\charlie\\stimuli\\visual\\ipcpts\\sym2.bmp'
g24
I461
tp90
a(g18
g19
g32
I58
I3
g27
S'c:\\Charlie\\charlie\\stimuli\\visual\\ipcpts\\sym3.bmp'
S'c:\\Charlie\\charlie\\stimuli\\visual\\ipcpts\\sym1.bmp'
S'c:\\Charlie\\charlie\\stimuli\\visual\\ipcpts\\sym2.bmp'
g24
I649
tp91
a(g18
g19
g32
I59
I0
g21
S'c:\\Charlie\\charlie\\stimuli\\visual\\ipcpts\\sym7.bmp'
S'c:\\Charlie\\charlie\\stimuli\\visual\\ipcpts\\sym5.bmp'
S'c:\\Charlie\\charlie\\stimuli\\visual\\ipcpts\\sym8.bmp'
g22
I0
tp92
a(g18
g19
g32
I60
I3
g27
S'c:\\Charlie\\charlie\\stimuli\\visual\\ipcpts\\sym7.bmp'
S'c:\\Charlie\\charlie\\stimuli\\visual\\ipcpts\\sym5.bmp'
S'c:\\Charlie\\charlie\\stimuli\\visual\\ipcpts\\sym8.bmp'
g24
I529
tp93
a(g18
g19
g32
I61
I0
g21
S'c:\\Charlie\\charlie\\stimuli\\visual\\ipcpts\\sym1.bmp'
S'c:\\Charlie\\charlie\\stimuli\\visual\\ipcpts\\sym9.bmp'
S'c:\\Charlie\\charlie\\stimuli\\visual\\ipcpts\\sym3.bmp'
g22
I0
tp94
a(g18
g19
g32
I62
I1
g21
S'c:\\Charlie\\charlie\\stimuli\\visual\\ipcpts\\sym0.bmp'
S'c:\\Charlie\\charlie\\stimuli\\visual\\ipcpts\\sym9.bmp'
S'c:\\Charlie\\charlie\\stimuli\\visual\\ipcpts\\sym6.bmp'
g22
I0
tp95
a(g18
g19
g32
I63
I2
g21
S'c:\\Charlie\\charlie\\stimuli\\visual\\ipcpts\\sym0.bmp'
S'c:\\Charlie\\charlie\\stimuli\\visual\\ipcpts\\sym2.bmp'
S'c:\\Charlie\\charlie\\stimuli\\visual\\ipcpts\\sym6.bmp'
g24
I645
tp96
a(g18
g19
g32
I64
I3
g27
S'c:\\Charlie\\charlie\\stimuli\\visual\\ipcpts\\sym0.bmp'
S'c:\\Charlie\\charlie\\stimuli\\visual\\ipcpts\\sym2.bmp'
S'c:\\Charlie\\charlie\\stimuli\\visual\\ipcpts\\sym6.bmp'
g24
I649
tp97
a(g18
g19
g32
I65
I2
g21
S'c:\\Charlie\\charlie\\stimuli\\visual\\ipcpts\\sym0.bmp'
S'c:\\Charlie\\charlie\\stimuli\\visual\\ipcpts\\sym2.bmp'
S'c:\\Charlie\\charlie\\stimuli\\visual\\ipcpts\\sym9.bmp'
g22
I0
tp98
a(g18
g19
g32
I66
I2
g21
S'c:\\Charlie\\charlie\\stimuli\\visual\\ipcpts\\sym0.bmp'
S'c:\\Charlie\\charlie\\stimuli\\visual\\ipcpts\\sym2.bmp'
S'c:\\Charlie\\charlie\\stimuli\\visual\\ipcpts\\sym5.bmp'
g22
I0
tp99
a(g18
g19
g32
I67
I0
g21
S'c:\\Charlie\\charlie\\stimuli\\visual\\ipcpts\\sym1.bmp'
S'c:\\Charlie\\charlie\\stimuli\\visual\\ipcpts\\sym7.bmp'
S'c:\\Charlie\\charlie\\stimuli\\visual\\ipcpts\\sym0.bmp'
g22
I0
tp100
a(g18
g19
g32
I68
I0
g21
S'c:\\Charlie\\charlie\\stimuli\\visual\\ipcpts\\sym3.bmp'
S'c:\\Charlie\\charlie\\stimuli\\visual\\ipcpts\\sym1.bmp'
S'c:\\Charlie\\charlie\\stimuli\\visual\\ipcpts\\sym2.bmp'
g22
I0
tp101
a(g18
g19
g32
I69
I1
g21
S'c:\\Charlie\\charlie\\stimuli\\visual\\ipcpts\\sym0.bmp'
S'c:\\Charlie\\charlie\\stimuli\\visual\\ipcpts\\sym1.bmp'
S'c:\\Charlie\\charlie\\stimuli\\visual\\ipcpts\\sym7.bmp'
g22
I0
tp102
a(g18
g19
g32
I70
I2
g21
S'c:\\Charlie\\charlie\\stimuli\\visual\\ipcpts\\sym9.bmp'
S'c:\\Charlie\\charlie\\stimuli\\visual\\ipcpts\\sym1.bmp'
S'c:\\Charlie\\charlie\\stimuli\\visual\\ipcpts\\sym7.bmp'
g24
I465
tp103
a(g18
g19
g32
I71
I1
g21
S'c:\\Charlie\\charlie\\stimuli\\visual\\ipcpts\\sym9.bmp'
S'c:\\Charlie\\charlie\\stimuli\\visual\\ipcpts\\sym3.bmp'
S'c:\\Charlie\\charlie\\stimuli\\visual\\ipcpts\\sym5.bmp'
g22
I0
tp104
a(g18
g19
g32
I72
I3
g27
S'c:\\Charlie\\charlie\\stimuli\\visual\\ipcpts\\sym9.bmp'
S'c:\\Charlie\\charlie\\stimuli\\visual\\ipcpts\\sym3.bmp'
S'c:\\Charlie\\charlie\\stimuli\\visual\\ipcpts\\sym5.bmp'
g24
I569
tp105
a(g18
g19
g32
I73
I0
g21
S'c:\\Charlie\\charlie\\stimuli\\visual\\ipcpts\\sym8.bmp'
S'c:\\Charlie\\charlie\\stimuli\\visual\\ipcpts\\sym4.bmp'
S'c:\\Charlie\\charlie\\stimuli\\visual\\ipcpts\\sym9.bmp'
g22
I0
tp106
a(g18
g19
g32
I74
I2
g21
S'c:\\Charlie\\charlie\\stimuli\\visual\\ipcpts\\sym8.bmp'
S'c:\\Charlie\\charlie\\stimuli\\visual\\ipcpts\\sym0.bmp'
S'c:\\Charlie\\charlie\\stimuli\\visual\\ipcpts\\sym9.bmp'
g24
I425
tp107
a(g18
g19
g32
I75
I2
g21
S'c:\\Charlie\\charlie\\stimuli\\visual\\ipcpts\\sym8.bmp'
S'c:\\Charlie\\charlie\\stimuli\\visual\\ipcpts\\sym1.bmp'
S'c:\\Charlie\\charlie\\stimuli\\visual\\ipcpts\\sym9.bmp'
g24
I509
tp108
a(g18
g19
g32
I76
I1
g21
S'c:\\Charlie\\charlie\\stimuli\\visual\\ipcpts\\sym9.bmp'
S'c:\\Charlie\\charlie\\stimuli\\visual\\ipcpts\\sym1.bmp'
S'c:\\Charlie\\charlie\\stimuli\\visual\\ipcpts\\sym6.bmp'
g22
I0
tp109
a(g18
g19
g32
I77
I0
g21
S'c:\\Charlie\\charlie\\stimuli\\visual\\ipcpts\\sym7.bmp'
S'c:\\Charlie\\charlie\\stimuli\\visual\\ipcpts\\sym3.bmp'
S'c:\\Charlie\\charlie\\stimuli\\visual\\ipcpts\\sym0.bmp'
g22
I0
tp110
a(g18
g19
g32
I78
I2
g21
S'c:\\Charlie\\charlie\\stimuli\\visual\\ipcpts\\sym7.bmp'
S'c:\\Charlie\\charlie\\stimuli\\visual\\ipcpts\\sym3.bmp'
S'c:\\Charlie\\charlie\\stimuli\\visual\\ipcpts\\sym1.bmp'
g24
I481
tp111
a(g18
g19
g32
I79
I1
g21
S'c:\\Charlie\\charlie\\stimuli\\visual\\ipcpts\\sym0.bmp'
S'c:\\Charlie\\charlie\\stimuli\\visual\\ipcpts\\sym4.bmp'
S'c:\\Charlie\\charlie\\stimuli\\visual\\ipcpts\\sym1.bmp'
g22
I0
tp112
a(g18
g19
g32
I80
I0
g21
S'c:\\Charlie\\charlie\\stimuli\\visual\\ipcpts\\sym3.bmp'
S'c:\\Charlie\\charlie\\stimuli\\visual\\ipcpts\\sym2.bmp'
S'c:\\Charlie\\charlie\\stimuli\\visual\\ipcpts\\sym6.bmp'
g22
I0
tp113
a(g18
g19
g32
I81
I3
g27
S'c:\\Charlie\\charlie\\stimuli\\visual\\ipcpts\\sym3.bmp'
S'c:\\Charlie\\charlie\\stimuli\\visual\\ipcpts\\sym2.bmp'
S'c:\\Charlie\\charlie\\stimuli\\visual\\ipcpts\\sym6.bmp'
g24
I501
tp114
a(g18
g19
g32
I82
I0
g21
S'c:\\Charlie\\charlie\\stimuli\\visual\\ipcpts\\sym6.bmp'
S'c:\\Charlie\\charlie\\stimuli\\visual\\ipcpts\\sym0.bmp'
S'c:\\Charlie\\charlie\\stimuli\\visual\\ipcpts\\sym7.bmp'
g22
I0
tp115
a(g18
g19
g32
I83
I3
g27
S'c:\\Charlie\\charlie\\stimuli\\visual\\ipcpts\\sym6.bmp'
S'c:\\Charlie\\charlie\\stimuli\\visual\\ipcpts\\sym0.bmp'
S'c:\\Charlie\\charlie\\stimuli\\visual\\ipcpts\\sym7.bmp'
g24
I445
tp116
a(g18
g19
g32
I84
I3
g27
S'c:\\Charlie\\charlie\\stimuli\\visual\\ipcpts\\sym6.bmp'
S'c:\\Charlie\\charlie\\stimuli\\visual\\ipcpts\\sym0.bmp'
S'c:\\Charlie\\charlie\\stimuli\\visual\\ipcpts\\sym7.bmp'
g24
I545
tp117
a(g18
g19
g32
I85
I3
g27
S'c:\\Charlie\\charlie\\stimuli\\visual\\ipcpts\\sym6.bmp'
S'c:\\Charlie\\charlie\\stimuli\\visual\\ipcpts\\sym0.bmp'
S'c:\\Charlie\\charlie\\stimuli\\visual\\ipcpts\\sym7.bmp'
g22
I0
tp118
a(g18
g19
g32
I86
I1
g21
S'c:\\Charlie\\charlie\\stimuli\\visual\\ipcpts\\sym1.bmp'
S'c:\\Charlie\\charlie\\stimuli\\visual\\ipcpts\\sym6.bmp'
S'c:\\Charlie\\charlie\\stimuli\\visual\\ipcpts\\sym7.bmp'
g24
I513
tp119
a(g18
g19
g32
I87
I0
g21
S'c:\\Charlie\\charlie\\stimuli\\visual\\ipcpts\\sym9.bmp'
S'c:\\Charlie\\charlie\\stimuli\\visual\\ipcpts\\sym1.bmp'
S'c:\\Charlie\\charlie\\stimuli\\visual\\ipcpts\\sym3.bmp'
g22
I0
tp120
a(g18
g19
g32
I88
I3
g27
S'c:\\Charlie\\charlie\\stimuli\\visual\\ipcpts\\sym9.bmp'
S'c:\\Charlie\\charlie\\stimuli\\visual\\ipcpts\\sym1.bmp'
S'c:\\Charlie\\charlie\\stimuli\\visual\\ipcpts\\sym3.bmp'
g24
I489
tp121
a(g18
g19
g32
I89
I0
g21
S'c:\\Charlie\\charlie\\stimuli\\visual\\ipcpts\\sym0.bmp'
S'c:\\Charlie\\charlie\\stimuli\\visual\\ipcpts\\sym4.bmp'
S'c:\\Charlie\\charlie\\stimuli\\visual\\ipcpts\\sym8.bmp'
g22
I0
tp122
a(g18
g19
g32
I90
I0
g21
S'c:\\Charlie\\charlie\\stimuli\\visual\\ipcpts\\sym1.bmp'
S'c:\\Charlie\\charlie\\stimuli\\visual\\ipcpts\\sym0.bmp'
S'c:\\Charlie\\charlie\\stimuli\\visual\\ipcpts\\sym3.bmp'
g22
I0
tp123
a(g18
g19
g32
I91
I0
g21
S'c:\\Charlie\\charlie\\stimuli\\visual\\ipcpts\\sym5.bmp'
S'c:\\Charlie\\charlie\\stimuli\\visual\\ipcpts\\sym9.bmp'
S'c:\\Charlie\\charlie\\stimuli\\visual\\ipcpts\\sym6.bmp'
g22
I0
tp124
a(g18
g19
g32
I92
I3
g27
S'c:\\Charlie\\charlie\\stimuli\\visual\\ipcpts\\sym5.bmp'
S'c:\\Charlie\\charlie\\stimuli\\visual\\ipcpts\\sym9.bmp'
S'c:\\Charlie\\charlie\\stimuli\\visual\\ipcpts\\sym6.bmp'
g24
I449
tp125
a(g18
g19
g32
I93
I3
g27
S'c:\\Charlie\\charlie\\stimuli\\visual\\ipcpts\\sym5.bmp'
S'c:\\Charlie\\charlie\\stimuli\\visual\\ipcpts\\sym9.bmp'
S'c:\\Charlie\\charlie\\stimuli\\visual\\ipcpts\\sym6.bmp'
g24
I589
tp126
a(g18
g19
g32
I94
I0
g21
S'c:\\Charlie\\charlie\\stimuli\\visual\\ipcpts\\sym6.bmp'
S'c:\\Charlie\\charlie\\stimuli\\visual\\ipcpts\\sym7.bmp'
S'c:\\Charlie\\charlie\\stimuli\\visual\\ipcpts\\sym3.bmp'
g22
I0
tp127
a(g18
g19
g32
I95
I3
g27
S'c:\\Charlie\\charlie\\stimuli\\visual\\ipcpts\\sym6.bmp'
S'c:\\Charlie\\charlie\\stimuli\\visual\\ipcpts\\sym7.bmp'
S'c:\\Charlie\\charlie\\stimuli\\visual\\ipcpts\\sym3.bmp'
g24
I509
tp128
a(g18
g19
g32
I96
I0
g21
S'c:\\Charlie\\charlie\\stimuli\\visual\\ipcpts\\sym4.bmp'
S'c:\\Charlie\\charlie\\stimuli\\visual\\ipcpts\\sym9.bmp'
S'c:\\Charlie\\charlie\\stimuli\\visual\\ipcpts\\sym0.bmp'
g22
I0
tp129
a(g18
g19
g32
I97
I1
g21
S'c:\\Charlie\\charlie\\stimuli\\visual\\ipcpts\\sym5.bmp'
S'c:\\Charlie\\charlie\\stimuli\\visual\\ipcpts\\sym3.bmp'
S'c:\\Charlie\\charlie\\stimuli\\visual\\ipcpts\\sym0.bmp'
g24
I501
tp130
a(g18
g19
g32
I98
I2
g21
S'c:\\Charlie\\charlie\\stimuli\\visual\\ipcpts\\sym8.bmp'
S'c:\\Charlie\\charlie\\stimuli\\visual\\ipcpts\\sym3.bmp'
S'c:\\Charlie\\charlie\\stimuli\\visual\\ipcpts\\sym0.bmp'
g24
I977
tp131
a(g18
g19
g32
I99
I0
g21
S'c:\\Charlie\\charlie\\stimuli\\visual\\ipcpts\\sym7.bmp'
S'c:\\Charlie\\charlie\\stimuli\\visual\\ipcpts\\sym9.bmp'
S'c:\\Charlie\\charlie\\stimuli\\visual\\ipcpts\\sym2.bmp'
g22
I0
tp132
a(g18
g19
g32
I100
I2
g21
S'c:\\Charlie\\charlie\\stimuli\\visual\\ipcpts\\sym7.bmp'
S'c:\\Charlie\\charlie\\stimuli\\visual\\ipcpts\\sym3.bmp'
S'c:\\Charlie\\charlie\\stimuli\\visual\\ipcpts\\sym2.bmp'
g24
I441
tp133
a(g18
g19
g32
I101
I1
g21
S'c:\\Charlie\\charlie\\stimuli\\visual\\ipcpts\\sym7.bmp'
S'c:\\Charlie\\charlie\\stimuli\\visual\\ipcpts\\sym4.bmp'
S'c:\\Charlie\\charlie\\stimuli\\visual\\ipcpts\\sym1.bmp'
g22
I0
tp134
a(g18
g19
g32
I102
I0
g21
S'c:\\Charlie\\charlie\\stimuli\\visual\\ipcpts\\sym8.bmp'
S'c:\\Charlie\\charlie\\stimuli\\visual\\ipcpts\\sym0.bmp'
S'c:\\Charlie\\charlie\\stimuli\\visual\\ipcpts\\sym7.bmp'
g22
I0
tp135
a(g18
g19
g32
I103
I3
g27
S'c:\\Charlie\\charlie\\stimuli\\visual\\ipcpts\\sym8.bmp'
S'c:\\Charlie\\charlie\\stimuli\\visual\\ipcpts\\sym0.bmp'
S'c:\\Charlie\\charlie\\stimuli\\visual\\ipcpts\\sym7.bmp'
g24
I485
tp136
a(g18
g19
g32
I104
I2
g21
S'c:\\Charlie\\charlie\\stimuli\\visual\\ipcpts\\sym8.bmp'
S'c:\\Charlie\\charlie\\stimuli\\visual\\ipcpts\\sym0.bmp'
S'c:\\Charlie\\charlie\\stimuli\\visual\\ipcpts\\sym1.bmp'
g22
I0
tp137
a(g18
g19
g32
I105
I1
g21
S'c:\\Charlie\\charlie\\stimuli\\visual\\ipcpts\\sym8.bmp'
S'c:\\Charlie\\charlie\\stimuli\\visual\\ipcpts\\sym4.bmp'
S'c:\\Charlie\\charlie\\stimuli\\visual\\ipcpts\\sym7.bmp'
g22
I0
tp138
a(g18
g19
g32
I106
I0
g21
S'c:\\Charlie\\charlie\\stimuli\\visual\\ipcpts\\sym1.bmp'
S'c:\\Charlie\\charlie\\stimuli\\visual\\ipcpts\\sym3.bmp'
S'c:\\Charlie\\charlie\\stimuli\\visual\\ipcpts\\sym6.bmp'
g22
I0
tp139
a(g18
g19
g32
I107
I3
g27
S'c:\\Charlie\\charlie\\stimuli\\visual\\ipcpts\\sym1.bmp'
S'c:\\Charlie\\charlie\\stimuli\\visual\\ipcpts\\sym3.bmp'
S'c:\\Charlie\\charlie\\stimuli\\visual\\ipcpts\\sym6.bmp'
g24
I485
tp140
a(g18
g19
g32
I108
I0
g21
S'c:\\Charlie\\charlie\\stimuli\\visual\\ipcpts\\sym5.bmp'
S'c:\\Charlie\\charlie\\stimuli\\visual\\ipcpts\\sym1.bmp'
S'c:\\Charlie\\charlie\\stimuli\\visual\\ipcpts\\sym0.bmp'
g22
I0
tp141
a(g18
g19
g32
I109
I1
g21
S'c:\\Charlie\\charlie\\stimuli\\visual\\ipcpts\\sym8.bmp'
S'c:\\Charlie\\charlie\\stimuli\\visual\\ipcpts\\sym1.bmp'
S'c:\\Charlie\\charlie\\stimuli\\visual\\ipcpts\\sym2.bmp'
g22
I0
tp142
a(g18
g19
g32
I110
I0
g21
S'c:\\Charlie\\charlie\\stimuli\\visual\\ipcpts\\sym0.bmp'
S'c:\\Charlie\\charlie\\stimuli\\visual\\ipcpts\\sym4.bmp'
S'c:\\Charlie\\charlie\\stimuli\\visual\\ipcpts\\sym5.bmp'
g22
I0
tp143
a(g18
g19
g32
I111
I0
g21
S'c:\\Charlie\\charlie\\stimuli\\visual\\ipcpts\\sym4.bmp'
S'c:\\Charlie\\charlie\\stimuli\\visual\\ipcpts\\sym5.bmp'
S'c:\\Charlie\\charlie\\stimuli\\visual\\ipcpts\\sym7.bmp'
g24
I797
tp144
a(g18
g19
g32
I112
I3
g27
S'c:\\Charlie\\charlie\\stimuli\\visual\\ipcpts\\sym4.bmp'
S'c:\\Charlie\\charlie\\stimuli\\visual\\ipcpts\\sym5.bmp'
S'c:\\Charlie\\charlie\\stimuli\\visual\\ipcpts\\sym7.bmp'
g24
I705
tp145
a(g18
g19
g32
I113
I0
g21
S'c:\\Charlie\\charlie\\stimuli\\visual\\ipcpts\\sym6.bmp'
S'c:\\Charlie\\charlie\\stimuli\\visual\\ipcpts\\sym7.bmp'
S'c:\\Charlie\\charlie\\stimuli\\visual\\ipcpts\\sym0.bmp'
g22
I0
tp146
a(g18
g19
g32
I114
I0
g21
S'c:\\Charlie\\charlie\\stimuli\\visual\\ipcpts\\sym5.bmp'
S'c:\\Charlie\\charlie\\stimuli\\visual\\ipcpts\\sym2.bmp'
S'c:\\Charlie\\charlie\\stimuli\\visual\\ipcpts\\sym1.bmp'
g22
I0
tp147
a(g18
g19
g32
I115
I3
g27
S'c:\\Charlie\\charlie\\stimuli\\visual\\ipcpts\\sym5.bmp'
S'c:\\Charlie\\charlie\\stimuli\\visual\\ipcpts\\sym2.bmp'
S'c:\\Charlie\\charlie\\stimuli\\visual\\ipcpts\\sym1.bmp'
g24
I893
tp148
a(g18
g19
g32
I116
I3
g27
S'c:\\Charlie\\charlie\\stimuli\\visual\\ipcpts\\sym5.bmp'
S'c:\\Charlie\\charlie\\stimuli\\visual\\ipcpts\\sym2.bmp'
S'c:\\Charlie\\charlie\\stimuli\\visual\\ipcpts\\sym1.bmp'
g24
I681
tp149
a(g18
g19
g32
I117
I0
g21
S'c:\\Charlie\\charlie\\stimuli\\visual\\ipcpts\\sym7.bmp'
S'c:\\Charlie\\charlie\\stimuli\\visual\\ipcpts\\sym4.bmp'
S'c:\\Charlie\\charlie\\stimuli\\visual\\ipcpts\\sym5.bmp'
g22
I0
tp150
a(g18
g19
g32
I118
I0
g21
S'c:\\Charlie\\charlie\\stimuli\\visual\\ipcpts\\sym9.bmp'
S'c:\\Charlie\\charlie\\stimuli\\visual\\ipcpts\\sym8.bmp'
S'c:\\Charlie\\charlie\\stimuli\\visual\\ipcpts\\sym0.bmp'
g22
I0
tp151
a(g18
g19
g32
I119
I2
g21
S'c:\\Charlie\\charlie\\stimuli\\visual\\ipcpts\\sym9.bmp'
S'c:\\Charlie\\charlie\\stimuli\\visual\\ipcpts\\sym8.bmp'
S'c:\\Charlie\\charlie\\stimuli\\visual\\ipcpts\\sym6.bmp'
g22
I0
tp152
a(g18
g19
g32
I120
I0
g21
S'c:\\Charlie\\charlie\\stimuli\\visual\\ipcpts\\sym6.bmp'
S'c:\\Charlie\\charlie\\stimuli\\visual\\ipcpts\\sym3.bmp'
S'c:\\Charlie\\charlie\\stimuli\\visual\\ipcpts\\sym2.bmp'
g22
I0
tp153
a(g18
g19
g32
I121
I3
g27
S'c:\\Charlie\\charlie\\stimuli\\visual\\ipcpts\\sym6.bmp'
S'c:\\Charlie\\charlie\\stimuli\\visual\\ipcpts\\sym3.bmp'
S'c:\\Charlie\\charlie\\stimuli\\visual\\ipcpts\\sym2.bmp'
g24
I421
tp154
a(g18
g19
g32
I122
I0
g21
S'c:\\Charlie\\charlie\\stimuli\\visual\\ipcpts\\sym4.bmp'
S'c:\\Charlie\\charlie\\stimuli\\visual\\ipcpts\\sym5.bmp'
S'c:\\Charlie\\charlie\\stimuli\\visual\\ipcpts\\sym7.bmp'
g22
I0
tp155
a(g18
g19
g32
I123
I1
g21
S'c:\\Charlie\\charlie\\stimuli\\visual\\ipcpts\\sym7.bmp'
S'c:\\Charlie\\charlie\\stimuli\\visual\\ipcpts\\sym5.bmp'
S'c:\\Charlie\\charlie\\stimuli\\visual\\ipcpts\\sym0.bmp'
g22
I0
tp156
a(g18
g19
g32
I124
I3
g27
S'c:\\Charlie\\charlie\\stimuli\\visual\\ipcpts\\sym7.bmp'
S'c:\\Charlie\\charlie\\stimuli\\visual\\ipcpts\\sym5.bmp'
S'c:\\Charlie\\charlie\\stimuli\\visual\\ipcpts\\sym0.bmp'
g24
I401
tp157
a(g18
g19
g32
I125
I3
g27
S'c:\\Charlie\\charlie\\stimuli\\visual\\ipcpts\\sym7.bmp'
S'c:\\Charlie\\charlie\\stimuli\\visual\\ipcpts\\sym5.bmp'
S'c:\\Charlie\\charlie\\stimuli\\visual\\ipcpts\\sym0.bmp'
g24
I685
tp158
a(g18
g19
g32
I126
I3
g27
S'c:\\Charlie\\charlie\\stimuli\\visual\\ipcpts\\sym7.bmp'
S'c:\\Charlie\\charlie\\stimuli\\visual\\ipcpts\\sym5.bmp'
S'c:\\Charlie\\charlie\\stimuli\\visual\\ipcpts\\sym0.bmp'
g24
I689
tp159
a(g18
g19
g32
I127
I3
g27
S'c:\\Charlie\\charlie\\stimuli\\visual\\ipcpts\\sym7.bmp'
S'c:\\Charlie\\charlie\\stimuli\\visual\\ipcpts\\sym5.bmp'
S'c:\\Charlie\\charlie\\stimuli\\visual\\ipcpts\\sym0.bmp'
g24
I677
tp160
a(g18
g19
g32
I128
I3
g27
S'c:\\Charlie\\charlie\\stimuli\\visual\\ipcpts\\sym7.bmp'
S'c:\\Charlie\\charlie\\stimuli\\visual\\ipcpts\\sym5.bmp'
S'c:\\Charlie\\charlie\\stimuli\\visual\\ipcpts\\sym0.bmp'
g24
I737
tp161
a(g18
g19
g32
I129
I2
g21
S'c:\\Charlie\\charlie\\stimuli\\visual\\ipcpts\\sym7.bmp'
S'c:\\Charlie\\charlie\\stimuli\\visual\\ipcpts\\sym1.bmp'
S'c:\\Charlie\\charlie\\stimuli\\visual\\ipcpts\\sym0.bmp'
g24
I1005
tp162
a(g18
g19
g32
I130
I3
g27
S'c:\\Charlie\\charlie\\stimuli\\visual\\ipcpts\\sym7.bmp'
S'c:\\Charlie\\charlie\\stimuli\\visual\\ipcpts\\sym1.bmp'
S'c:\\Charlie\\charlie\\stimuli\\visual\\ipcpts\\sym0.bmp'
g24
I993
tp163
a(g18
g19
g32
I131
I0
g21
S'c:\\Charlie\\charlie\\stimuli\\visual\\ipcpts\\sym4.bmp'
S'c:\\Charlie\\charlie\\stimuli\\visual\\ipcpts\\sym9.bmp'
S'c:\\Charlie\\charlie\\stimuli\\visual\\ipcpts\\sym5.bmp'
g22
I0
tp164
a(g18
g19
g32
I132
I0
g21
S'c:\\Charlie\\charlie\\stimuli\\visual\\ipcpts\\sym5.bmp'
S'c:\\Charlie\\charlie\\stimuli\\visual\\ipcpts\\sym0.bmp'
S'c:\\Charlie\\charlie\\stimuli\\visual\\ipcpts\\sym7.bmp'
g22
I0
tp165
a(g18
g19
g32
I133
I1
g21
S'c:\\Charlie\\charlie\\stimuli\\visual\\ipcpts\\sym5.bmp'
S'c:\\Charlie\\charlie\\stimuli\\visual\\ipcpts\\sym7.bmp'
S'c:\\Charlie\\charlie\\stimuli\\visual\\ipcpts\\sym0.bmp'
g22
I0
tp166
a(g18
g19
g32
I134
I0
g21
S'c:\\Charlie\\charlie\\stimuli\\visual\\ipcpts\\sym1.bmp'
S'c:\\Charlie\\charlie\\stimuli\\visual\\ipcpts\\sym3.bmp'
S'c:\\Charlie\\charlie\\stimuli\\visual\\ipcpts\\sym6.bmp'
g22
I0
tp167
a(g18
g19
g32
I135
I3
g27
S'c:\\Charlie\\charlie\\stimuli\\visual\\ipcpts\\sym1.bmp'
S'c:\\Charlie\\charlie\\stimuli\\visual\\ipcpts\\sym3.bmp'
S'c:\\Charlie\\charlie\\stimuli\\visual\\ipcpts\\sym6.bmp'
g24
I461
tp168
a(g18
g19
g32
I136
I0
g21
S'c:\\Charlie\\charlie\\stimuli\\visual\\ipcpts\\sym7.bmp'
S'c:\\Charlie\\charlie\\stimuli\\visual\\ipcpts\\sym4.bmp'
S'c:\\Charlie\\charlie\\stimuli\\visual\\ipcpts\\sym8.bmp'
g22
I0
tp169
a(g18
g19
g32
I137
I0
g21
S'c:\\Charlie\\charlie\\stimuli\\visual\\ipcpts\\sym8.bmp'
S'c:\\Charlie\\charlie\\stimuli\\visual\\ipcpts\\sym0.bmp'
S'c:\\Charlie\\charlie\\stimuli\\visual\\ipcpts\\sym5.bmp'
g22
I0
tp170
a(g18
g19
g32
I138
I3
g27
S'c:\\Charlie\\charlie\\stimuli\\visual\\ipcpts\\sym8.bmp'
S'c:\\Charlie\\charlie\\stimuli\\visual\\ipcpts\\sym0.bmp'
S'c:\\Charlie\\charlie\\stimuli\\visual\\ipcpts\\sym5.bmp'
g24
I1153
tp171
a(g18
g19
g32
I139
I0
g21
S'c:\\Charlie\\charlie\\stimuli\\visual\\ipcpts\\sym4.bmp'
S'c:\\Charlie\\charlie\\stimuli\\visual\\ipcpts\\sym1.bmp'
S'c:\\Charlie\\charlie\\stimuli\\visual\\ipcpts\\sym6.bmp'
g22
I0
tp172
a(g18
g19
g32
I140
I0
g21
S'c:\\Charlie\\charlie\\stimuli\\visual\\ipcpts\\sym9.bmp'
S'c:\\Charlie\\charlie\\stimuli\\visual\\ipcpts\\sym8.bmp'
S'c:\\Charlie\\charlie\\stimuli\\visual\\ipcpts\\sym4.bmp'
g24
I945
tp173
a(g18
g19
g32
I141
I1
g21
S'c:\\Charlie\\charlie\\stimuli\\visual\\ipcpts\\sym1.bmp'
S'c:\\Charlie\\charlie\\stimuli\\visual\\ipcpts\\sym8.bmp'
S'c:\\Charlie\\charlie\\stimuli\\visual\\ipcpts\\sym0.bmp'
g22
I0
tp174
a(g18
g19
g32
I142
I2
g21
S'c:\\Charlie\\charlie\\stimuli\\visual\\ipcpts\\sym3.bmp'
S'c:\\Charlie\\charlie\\stimuli\\visual\\ipcpts\\sym8.bmp'
S'c:\\Charlie\\charlie\\stimuli\\visual\\ipcpts\\sym0.bmp'
g24
I561
tp175
a(g18
g19
g32
I143
I0
g21
S'c:\\Charlie\\charlie\\stimuli\\visual\\ipcpts\\sym2.bmp'
S'c:\\Charlie\\charlie\\stimuli\\visual\\ipcpts\\sym6.bmp'
S'c:\\Charlie\\charlie\\stimuli\\visual\\ipcpts\\sym7.bmp'
g22
I0
tp176
a(g18
g19
g32
I144
I3
g27
S'c:\\Charlie\\charlie\\stimuli\\visual\\ipcpts\\sym2.bmp'
S'c:\\Charlie\\charlie\\stimuli\\visual\\ipcpts\\sym6.bmp'
S'c:\\Charlie\\charlie\\stimuli\\visual\\ipcpts\\sym7.bmp'
g24
I665
tp177
a(g18
g19
g32
I145
I0
g21
S'c:\\Charlie\\charlie\\stimuli\\visual\\ipcpts\\sym5.bmp'
S'c:\\Charlie\\charlie\\stimuli\\visual\\ipcpts\\sym0.bmp'
S'c:\\Charlie\\charlie\\stimuli\\visual\\ipcpts\\sym9.bmp'
g22
I0
tp178
a(g18
g19
g32
I146
I1
g21
S'c:\\Charlie\\charlie\\stimuli\\visual\\ipcpts\\sym5.bmp'
S'c:\\Charlie\\charlie\\stimuli\\visual\\ipcpts\\sym8.bmp'
S'c:\\Charlie\\charlie\\stimuli\\visual\\ipcpts\\sym4.bmp'
g22
I0
tp179
a(g18
g19
g32
I147
I3
g27
S'c:\\Charlie\\charlie\\stimuli\\visual\\ipcpts\\sym5.bmp'
S'c:\\Charlie\\charlie\\stimuli\\visual\\ipcpts\\sym8.bmp'
S'c:\\Charlie\\charlie\\stimuli\\visual\\ipcpts\\sym4.bmp'
g24
I917
tp180
a(g18
g19
g32
I148
I0
g21
S'c:\\Charlie\\charlie\\stimuli\\visual\\ipcpts\\sym6.bmp'
S'c:\\Charlie\\charlie\\stimuli\\visual\\ipcpts\\sym2.bmp'
S'c:\\Charlie\\charlie\\stimuli\\visual\\ipcpts\\sym1.bmp'
g22
I0
tp181
a(g18
g19
g32
I149
I0
g21
S'c:\\Charlie\\charlie\\stimuli\\visual\\ipcpts\\sym2.bmp'
S'c:\\Charlie\\charlie\\stimuli\\visual\\ipcpts\\sym1.bmp'
S'c:\\Charlie\\charlie\\stimuli\\visual\\ipcpts\\sym6.bmp'
g24
I901
tp182
a(g18
g19
g32
I150
I2
g21
S'c:\\Charlie\\charlie\\stimuli\\visual\\ipcpts\\sym3.bmp'
S'c:\\Charlie\\charlie\\stimuli\\visual\\ipcpts\\sym1.bmp'
S'c:\\Charlie\\charlie\\stimuli\\visual\\ipcpts\\sym6.bmp'
g24
I865
tp183
a(g18
g19
g32
I151
I3
g27
S'c:\\Charlie\\charlie\\stimuli\\visual\\ipcpts\\sym3.bmp'
S'c:\\Charlie\\charlie\\stimuli\\visual\\ipcpts\\sym1.bmp'
S'c:\\Charlie\\charlie\\stimuli\\visual\\ipcpts\\sym6.bmp'
g24
I989
tp184
a(g18
g19
g32
I152
I1
g21
S'c:\\Charlie\\charlie\\stimuli\\visual\\ipcpts\\sym0.bmp'
S'c:\\Charlie\\charlie\\stimuli\\visual\\ipcpts\\sym1.bmp'
S'c:\\Charlie\\charlie\\stimuli\\visual\\ipcpts\\sym7.bmp'
g22
I0
tp185
a(g18
g19
g32
I153
I0
g21
S'c:\\Charlie\\charlie\\stimuli\\visual\\ipcpts\\sym5.bmp'
S'c:\\Charlie\\charlie\\stimuli\\visual\\ipcpts\\sym6.bmp'
S'c:\\Charlie\\charlie\\stimuli\\visual\\ipcpts\\sym9.bmp'
g22
I0
tp186
a(g18
g19
g32
I154
I3
g27
S'c:\\Charlie\\charlie\\stimuli\\visual\\ipcpts\\sym5.bmp'
S'c:\\Charlie\\charlie\\stimuli\\visual\\ipcpts\\sym6.bmp'
S'c:\\Charlie\\charlie\\stimuli\\visual\\ipcpts\\sym9.bmp'
g24
I593
tp187
a(g18
g19
g32
I155
I3
g27
S'c:\\Charlie\\charlie\\stimuli\\visual\\ipcpts\\sym5.bmp'
S'c:\\Charlie\\charlie\\stimuli\\visual\\ipcpts\\sym6.bmp'
S'c:\\Charlie\\charlie\\stimuli\\visual\\ipcpts\\sym9.bmp'
g24
I677
tp188
a(g18
g19
g32
I156
I0
g21
S'c:\\Charlie\\charlie\\stimuli\\visual\\ipcpts\\sym7.bmp'
S'c:\\Charlie\\charlie\\stimuli\\visual\\ipcpts\\sym0.bmp'
S'c:\\Charlie\\charlie\\stimuli\\visual\\ipcpts\\sym8.bmp'
g22
I0
tp189
a(g18
g19
g32
I157
I3
g27
S'c:\\Charlie\\charlie\\stimuli\\visual\\ipcpts\\sym7.bmp'
S'c:\\Charlie\\charlie\\stimuli\\visual\\ipcpts\\sym0.bmp'
S'c:\\Charlie\\charlie\\stimuli\\visual\\ipcpts\\sym8.bmp'
g24
I957
tp190
a(g18
g19
g32
I158
I0
g21
S'c:\\Charlie\\charlie\\stimuli\\visual\\ipcpts\\sym5.bmp'
S'c:\\Charlie\\charlie\\stimuli\\visual\\ipcpts\\sym1.bmp'
S'c:\\Charlie\\charlie\\stimuli\\visual\\ipcpts\\sym9.bmp'
g24
I1017
tp191
a(g18
g19
g32
I159
I3
g27
S'c:\\Charlie\\charlie\\stimuli\\visual\\ipcpts\\sym5.bmp'
S'c:\\Charlie\\charlie\\stimuli\\visual\\ipcpts\\sym1.bmp'
S'c:\\Charlie\\charlie\\stimuli\\visual\\ipcpts\\sym9.bmp'
g24
I1222
tp192
a(g18
g19
g32
I160
I3
g27
S'c:\\Charlie\\charlie\\stimuli\\visual\\ipcpts\\sym5.bmp'
S'c:\\Charlie\\charlie\\stimuli\\visual\\ipcpts\\sym1.bmp'
S'c:\\Charlie\\charlie\\stimuli\\visual\\ipcpts\\sym9.bmp'
g24
I769
tp193
a(g18
g19
g32
I161
I3
g27
S'c:\\Charlie\\charlie\\stimuli\\visual\\ipcpts\\sym5.bmp'
S'c:\\Charlie\\charlie\\stimuli\\visual\\ipcpts\\sym1.bmp'
S'c:\\Charlie\\charlie\\stimuli\\visual\\ipcpts\\sym9.bmp'
g24
I957
tp194
a(g18
g19
g32
I162
I2
g21
S'c:\\Charlie\\charlie\\stimuli\\visual\\ipcpts\\sym0.bmp'
S'c:\\Charlie\\charlie\\stimuli\\visual\\ipcpts\\sym1.bmp'
S'c:\\Charlie\\charlie\\stimuli\\visual\\ipcpts\\sym9.bmp'
g22
I0
tp195
a(g18
g19
g32
I163
I0
g21
S'c:\\Charlie\\charlie\\stimuli\\visual\\ipcpts\\sym8.bmp'
S'c:\\Charlie\\charlie\\stimuli\\visual\\ipcpts\\sym0.bmp'
S'c:\\Charlie\\charlie\\stimuli\\visual\\ipcpts\\sym4.bmp'
g22
I0
tp196
a(g18
g19
g32
I164
I2
g21
S'c:\\Charlie\\charlie\\stimuli\\visual\\ipcpts\\sym8.bmp'
S'c:\\Charlie\\charlie\\stimuli\\visual\\ipcpts\\sym0.bmp'
S'c:\\Charlie\\charlie\\stimuli\\visual\\ipcpts\\sym6.bmp'
g24
I809
tp197
a(g18
g19
g32
I165
I3
g27
S'c:\\Charlie\\charlie\\stimuli\\visual\\ipcpts\\sym8.bmp'
S'c:\\Charlie\\charlie\\stimuli\\visual\\ipcpts\\sym0.bmp'
S'c:\\Charlie\\charlie\\stimuli\\visual\\ipcpts\\sym6.bmp'
g24
I917
tp198
a(g18
g19
g32
I166
I0
g21
S'c:\\Charlie\\charlie\\stimuli\\visual\\ipcpts\\sym6.bmp'
S'c:\\Charlie\\charlie\\stimuli\\visual\\ipcpts\\sym3.bmp'
S'c:\\Charlie\\charlie\\stimuli\\visual\\ipcpts\\sym8.bmp'
g22
I0
tp199
a(g18
g19
g32
I167
I0
g21
S'c:\\Charlie\\charlie\\stimuli\\visual\\ipcpts\\sym8.bmp'
S'c:\\Charlie\\charlie\\stimuli\\visual\\ipcpts\\sym4.bmp'
S'c:\\Charlie\\charlie\\stimuli\\visual\\ipcpts\\sym7.bmp'
g22
I0
tp200
a(g18
g19
g32
I168
I3
g27
S'c:\\Charlie\\charlie\\stimuli\\visual\\ipcpts\\sym8.bmp'
S'c:\\Charlie\\charlie\\stimuli\\visual\\ipcpts\\sym4.bmp'
S'c:\\Charlie\\charlie\\stimuli\\visual\\ipcpts\\sym7.bmp'
g24
I457
tp201
a(g18
g19
g32
I169
I1
g21
S'c:\\Charlie\\charlie\\stimuli\\visual\\ipcpts\\sym7.bmp'
S'c:\\Charlie\\charlie\\stimuli\\visual\\ipcpts\\sym4.bmp'
S'c:\\Charlie\\charlie\\stimuli\\visual\\ipcpts\\sym8.bmp'
g24
I717
tp202
a(g18
g19
g32
I170
I0
g21
S'c:\\Charlie\\charlie\\stimuli\\visual\\ipcpts\\sym6.bmp'
S'c:\\Charlie\\charlie\\stimuli\\visual\\ipcpts\\sym8.bmp'
S'c:\\Charlie\\charlie\\stimuli\\visual\\ipcpts\\sym4.bmp'
g22
I0
tp203
a(g18
g19
g32
I171
I3
g27
S'c:\\Charlie\\charlie\\stimuli\\visual\\ipcpts\\sym6.bmp'
S'c:\\Charlie\\charlie\\stimuli\\visual\\ipcpts\\sym8.bmp'
S'c:\\Charlie\\charlie\\stimuli\\visual\\ipcpts\\sym4.bmp'
g24
I422
tp204
a(g18
g19
g32
I172
I0
g21
S'c:\\Charlie\\charlie\\stimuli\\visual\\ipcpts\\sym9.bmp'
S'c:\\Charlie\\charlie\\stimuli\\visual\\ipcpts\\sym2.bmp'
S'c:\\Charlie\\charlie\\stimuli\\visual\\ipcpts\\sym7.bmp'
g22
I0
tp205
a(g18
g19
g32
I173
I3
g27
S'c:\\Charlie\\charlie\\stimuli\\visual\\ipcpts\\sym9.bmp'
S'c:\\Charlie\\charlie\\stimuli\\visual\\ipcpts\\sym2.bmp'
S'c:\\Charlie\\charlie\\stimuli\\visual\\ipcpts\\sym7.bmp'
g24
I477
tp206
a(g18
g19
g32
I174
I2
g21
S'c:\\Charlie\\charlie\\stimuli\\visual\\ipcpts\\sym1.bmp'
S'c:\\Charlie\\charlie\\stimuli\\visual\\ipcpts\\sym2.bmp'
S'c:\\Charlie\\charlie\\stimuli\\visual\\ipcpts\\sym7.bmp'
g24
I921
tp207
a(g18
g19
g32
I175
I3
g27
S'c:\\Charlie\\charlie\\stimuli\\visual\\ipcpts\\sym1.bmp'
S'c:\\Charlie\\charlie\\stimuli\\visual\\ipcpts\\sym2.bmp'
S'c:\\Charlie\\charlie\\stimuli\\visual\\ipcpts\\sym7.bmp'
g22
I0
tp208
a(g18
g19
g32
I176
I0
g21
S'c:\\Charlie\\charlie\\stimuli\\visual\\ipcpts\\sym4.bmp'
S'c:\\Charlie\\charlie\\stimuli\\visual\\ipcpts\\sym8.bmp'
S'c:\\Charlie\\charlie\\stimuli\\visual\\ipcpts\\sym6.bmp'
g22
I0
tp209
a(g18
g19
g32
I177
I3
g27
S'c:\\Charlie\\charlie\\stimuli\\visual\\ipcpts\\sym4.bmp'
S'c:\\Charlie\\charlie\\stimuli\\visual\\ipcpts\\sym8.bmp'
S'c:\\Charlie\\charlie\\stimuli\\visual\\ipcpts\\sym6.bmp'
g24
I477
tp210
a(g18
g19
g32
I178
I3
g27
S'c:\\Charlie\\charlie\\stimuli\\visual\\ipcpts\\sym4.bmp'
S'c:\\Charlie\\charlie\\stimuli\\visual\\ipcpts\\sym8.bmp'
S'c:\\Charlie\\charlie\\stimuli\\visual\\ipcpts\\sym6.bmp'
g24
I769
tp211
a(g18
g19
g32
I179
I3
g27
S'c:\\Charlie\\charlie\\stimuli\\visual\\ipcpts\\sym4.bmp'
S'c:\\Charlie\\charlie\\stimuli\\visual\\ipcpts\\sym8.bmp'
S'c:\\Charlie\\charlie\\stimuli\\visual\\ipcpts\\sym6.bmp'
g24
I813
tp212
a(g18
g19
g32
I180
I2
g21
S'c:\\Charlie\\charlie\\stimuli\\visual\\ipcpts\\sym0.bmp'
S'c:\\Charlie\\charlie\\stimuli\\visual\\ipcpts\\sym8.bmp'
S'c:\\Charlie\\charlie\\stimuli\\visual\\ipcpts\\sym6.bmp'
g24
I865
tp213
a(g18
g19
g32
I181
I2
g21
S'c:\\Charlie\\charlie\\stimuli\\visual\\ipcpts\\sym9.bmp'
S'c:\\Charlie\\charlie\\stimuli\\visual\\ipcpts\\sym8.bmp'
S'c:\\Charlie\\charlie\\stimuli\\visual\\ipcpts\\sym6.bmp'
g24
I877
tp214
a(g18
g19
g32
I182
I0
g21
S'c:\\Charlie\\charlie\\stimuli\\visual\\ipcpts\\sym7.bmp'
S'c:\\Charlie\\charlie\\stimuli\\visual\\ipcpts\\sym3.bmp'
S'c:\\Charlie\\charlie\\stimuli\\visual\\ipcpts\\sym2.bmp'
g22
I0
tp215
a(g18
g19
g32
I183
I3
g27
S'c:\\Charlie\\charlie\\stimuli\\visual\\ipcpts\\sym7.bmp'
S'c:\\Charlie\\charlie\\stimuli\\visual\\ipcpts\\sym3.bmp'
S'c:\\Charlie\\charlie\\stimuli\\visual\\ipcpts\\sym2.bmp'
g24
I558
tp216
a(g18
g19
g32
I184
I1
g21
S'c:\\Charlie\\charlie\\stimuli\\visual\\ipcpts\\sym9.bmp'
S'c:\\Charlie\\charlie\\stimuli\\visual\\ipcpts\\sym6.bmp'
S'c:\\Charlie\\charlie\\stimuli\\visual\\ipcpts\\sym2.bmp'
g22
I0
tp217
a(g18
g19
g32
I185
I1
g21
S'c:\\Charlie\\charlie\\stimuli\\visual\\ipcpts\\sym4.bmp'
S'c:\\Charlie\\charlie\\stimuli\\visual\\ipcpts\\sym0.bmp'
S'c:\\Charlie\\charlie\\stimuli\\visual\\ipcpts\\sym2.bmp'
g22
I0
tp218
a(g18
g19
g32
I186
I3
g27
S'c:\\Charlie\\charlie\\stimuli\\visual\\ipcpts\\sym4.bmp'
S'c:\\Charlie\\charlie\\stimuli\\visual\\ipcpts\\sym0.bmp'
S'c:\\Charlie\\charlie\\stimuli\\visual\\ipcpts\\sym2.bmp'
g24
I1113
tp219
a(g18
g19
g32
I187
I1
g21
S'c:\\Charlie\\charlie\\stimuli\\visual\\ipcpts\\sym4.bmp'
S'c:\\Charlie\\charlie\\stimuli\\visual\\ipcpts\\sym8.bmp'
S'c:\\Charlie\\charlie\\stimuli\\visual\\ipcpts\\sym3.bmp'
g22
I0
tp220
a(g18
g19
g32
I188
I3
g27
S'c:\\Charlie\\charlie\\stimuli\\visual\\ipcpts\\sym4.bmp'
S'c:\\Charlie\\charlie\\stimuli\\visual\\ipcpts\\sym8.bmp'
S'c:\\Charlie\\charlie\\stimuli\\visual\\ipcpts\\sym3.bmp'
g24
I441
tp221
a(g18
g19
g32
I189
I3
g27
S'c:\\Charlie\\charlie\\stimuli\\visual\\ipcpts\\sym4.bmp'
S'c:\\Charlie\\charlie\\stimuli\\visual\\ipcpts\\sym8.bmp'
S'c:\\Charlie\\charlie\\stimuli\\visual\\ipcpts\\sym3.bmp'
g24
I701
tp222
a(g18
g19
g32
I190
I1
g21
S'c:\\Charlie\\charlie\\stimuli\\visual\\ipcpts\\sym9.bmp'
S'c:\\Charlie\\charlie\\stimuli\\visual\\ipcpts\\sym4.bmp'
S'c:\\Charlie\\charlie\\stimuli\\visual\\ipcpts\\sym3.bmp'
g22
I0
tp223
a(g18
g19
g32
I191
I1
g21
S'c:\\Charlie\\charlie\\stimuli\\visual\\ipcpts\\sym6.bmp'
S'c:\\Charlie\\charlie\\stimuli\\visual\\ipcpts\\sym9.bmp'
S'c:\\Charlie\\charlie\\stimuli\\visual\\ipcpts\\sym3.bmp'
g24
I789
tp224
a(g18
g19
g32
I192
I1
g21
S'c:\\Charlie\\charlie\\stimuli\\visual\\ipcpts\\sym1.bmp'
S'c:\\Charlie\\charlie\\stimuli\\visual\\ipcpts\\sym9.bmp'
S'c:\\Charlie\\charlie\\stimuli\\visual\\ipcpts\\sym0.bmp'
g22
I0
tp225
a(g18
g19
g32
I193
I2
g21
S'c:\\Charlie\\charlie\\stimuli\\visual\\ipcpts\\sym1.bmp'
S'c:\\Charlie\\charlie\\stimuli\\visual\\ipcpts\\sym9.bmp'
S'c:\\Charlie\\charlie\\stimuli\\visual\\ipcpts\\sym7.bmp'
g24
I685
tp226
a(g18
g19
g32
I194
I0
g21
S'c:\\Charlie\\charlie\\stimuli\\visual\\ipcpts\\sym7.bmp'
S'c:\\Charlie\\charlie\\stimuli\\visual\\ipcpts\\sym8.bmp'
S'c:\\Charlie\\charlie\\stimuli\\visual\\ipcpts\\sym4.bmp'
g22
I0
tp227
a(g18
g19
g32
I195
I0
g21
S'c:\\Charlie\\charlie\\stimuli\\visual\\ipcpts\\sym0.bmp'
S'c:\\Charlie\\charlie\\stimuli\\visual\\ipcpts\\sym2.bmp'
S'c:\\Charlie\\charlie\\stimuli\\visual\\ipcpts\\sym1.bmp'
g22
I0
tp228
a(g18
g19
g32
I196
I3
g27
S'c:\\Charlie\\charlie\\stimuli\\visual\\ipcpts\\sym0.bmp'
S'c:\\Charlie\\charlie\\stimuli\\visual\\ipcpts\\sym2.bmp'
S'c:\\Charlie\\charlie\\stimuli\\visual\\ipcpts\\sym1.bmp'
g24
I705
tp229
a(g18
g19
g32
I197
I3
g27
S'c:\\Charlie\\charlie\\stimuli\\visual\\ipcpts\\sym0.bmp'
S'c:\\Charlie\\charlie\\stimuli\\visual\\ipcpts\\sym2.bmp'
S'c:\\Charlie\\charlie\\stimuli\\visual\\ipcpts\\sym1.bmp'
g24
I957
tp230
a(g18
g19
g32
I198
I1
g21
S'c:\\Charlie\\charlie\\stimuli\\visual\\ipcpts\\sym0.bmp'
S'c:\\Charlie\\charlie\\stimuli\\visual\\ipcpts\\sym3.bmp'
S'c:\\Charlie\\charlie\\stimuli\\visual\\ipcpts\\sym4.bmp'
g22
I0
tp231
a(g18
g19
g32
I199
I0
g21
S'c:\\Charlie\\charlie\\stimuli\\visual\\ipcpts\\sym9.bmp'
S'c:\\Charlie\\charlie\\stimuli\\visual\\ipcpts\\sym8.bmp'
S'c:\\Charlie\\charlie\\stimuli\\visual\\ipcpts\\sym1.bmp'
g22
I0
tp232
a(g18
g19
g32
I200
I2
g21
S'c:\\Charlie\\charlie\\stimuli\\visual\\ipcpts\\sym3.bmp'
p233
S'c:\\Charlie\\charlie\\stimuli\\visual\\ipcpts\\sym8.bmp'
p234
S'c:\\Charlie\\charlie\\stimuli\\visual\\ipcpts\\sym1.bmp'
p235
g24
I545
tp236
asS'output_format'
p237
(lp238
(S'proband_id'
p239
c__builtin__
str
p240
tp241
a(S'test_name'
p242
g240
tp243
a(S'phase'
p244
g240
tp245
a(S'trialn'
p246
c__builtin__
int
p247
tp248
a(S'matches'
p249
g247
tp250
a(S'ans'
p251
g240
tp252
a(S'symbol1'
p253
g240
tp254
a(S'symbol2'
p255
g240
tp256
a(S'symbol3'
p257
g240
tp258
a(S'rsp'
p259
g240
tp260
a(S'rt'
p261
g247
tp262
asg239
g18
sS'filename'
p263
S'4374_ipcpts.data'
p264
sS'initialised'
p265
g8
(S'\x07\xdf\x04\x11\x0f\x03/\x0e{\x08'
tRp266
sS'last_udated'
p267
g8
(S'\x07\xdf\x04\x11\x0f\x03/\x0e{\x08'
tRp268
sg242
S'ipcpts'
p269
sS'directory'
p270
S'c:\\Charlie\\charlie\\data\\raw'
p271
sS'user_id'
p272
S'oleach'
p273
sS'test_started'
p274
I01
sS'abs_filename'
p275
S'c:\\Charlie\\charlie\\data\\raw\\4374_ipcpts.data'
p276
sS'date_started'
p277
g8
(S'\x07\xdf\x04\x11\x0f\x048\x05\x9d\x80'
tRp278
sS'log'
p279
(lp280
(S'2015-04-17 15:03:47.949000'
S'instance created'
p281
tp282
a(S'2015-04-17 15:04:56.371000'
S'instance updated'
p283
tp284
a(S'2015-04-17 15:04:56.374000'
S'pandas DataFrame of data created'
p285
tp286
a(S'2015-04-17 15:04:56.375000'
S'data saved as csv to c:\\Charlie\\charlie\\data\\csv\\4374_ipcpts.csv'
tp287
a(S'2015-04-17 15:10:10.882000'
g283
tp288
a(S'2015-04-17 15:10:10.886000'
g285
tp289
a(S'2015-04-17 15:10:10.888000'
S'data saved as csv to c:\\Charlie\\charlie\\data\\csv\\4374_ipcpts.csv'
tp290
asb.