(icharlie.tools.data
Data
p1
(dp2
S'lang'
p3
S'EN'
p4
sS'control'
p5
(lp6
sS'last_updated'
p7
cdatetime
datetime
p8
(S'\x07\xdf\x04\x14\x0f\x01\x0e\x08\xc6\x18'
tRp9
sS'last_opened'
p10
g8
(S'\x07\xdf\x04\x14\x0e7\x19\x0c\\\x10'
tRp11
sS'proj_id'
p12
S'connectivity'
p13
sS'date_done'
p14
g8
(S'\x07\xdf\x04\x14\x0f\x01\x0e\x08\xa2\xf0'
tRp15
sS'test_done'
p16
I01
sS'data'
p17
(lp18
(S'4375'
p19
S'verbal_fluency'
p20
I0
S'True'
p21
tp22
a(g19
g20
I0
g21
tp23
a(g19
g20
I0
g21
tp24
a(g19
g20
I0
g21
tp25
a(g19
g20
I0
g21
tp26
a(g19
g20
I0
g21
tp27
a(g19
g20
I0
g21
tp28
a(g19
g20
I0
g21
tp29
a(g19
g20
I0
g21
tp30
a(g19
g20
I0
g21
tp31
a(g19
g20
I0
g21
tp32
a(g19
g20
I0
g21
tp33
a(g19
g20
I0
g21
tp34
a(g19
g20
I0
g21
tp35
a(g19
g20
I0
g21
tp36
a(g19
g20
I0
g21
tp37
a(g19
g20
I0
g21
tp38
a(g19
g20
I0
g21
tp39
a(g19
g20
I0
g21
tp40
a(g19
g20
I0
g21
tp41
a(g19
g20
I0
S'False'
p42
tp43
a(g19
g20
I0
g21
tp44
a(g19
g20
I0
g21
tp45
a(g19
g20
I0
g21
tp46
a(g19
g20
I1
g21
tp47
a(g19
g20
I1
g21
tp48
a(g19
g20
I1
g21
tp49
a(g19
g20
I1
g21
tp50
a(g19
g20
I1
g21
tp51
a(g19
g20
I1
g21
tp52
a(g19
g20
I1
g21
tp53
a(g19
g20
I1
g21
tp54
a(g19
g20
I1
g42
tp55
a(g19
g20
I1
g21
tp56
a(g19
g20
I1
g21
tp57
a(g19
g20
I1
g21
tp58
a(g19
g20
I1
g21
tp59
a(g19
g20
I1
g42
tp60
a(g19
g20
I1
g21
tp61
a(g19
g20
I1
g21
tp62
a(g19
g20
I1
g21
tp63
a(g19
g20
I1
g21
tp64
a(g19
g20
I1
g21
tp65
a(g19
g20
I1
g21
tp66
a(g19
g20
I1
g21
tp67
a(g19
g20
I1
g42
tp68
a(g19
g20
I1
g21
tp69
a(g19
g20
I1
g21
tp70
a(g19
g20
I1
g21
tp71
a(g19
g20
I1
g21
tp72
a(g19
g20
I1
g21
tp73
a(g19
g20
I1
g21
tp74
a(g19
g20
I1
g42
tp75
a(g19
g20
I2
g21
tp76
a(g19
g20
I2
g21
tp77
a(g19
g20
I2
g21
tp78
a(g19
g20
I2
g21
tp79
a(g19
g20
I2
g21
tp80
a(g19
g20
I2
g21
tp81
a(g19
g20
I2
g21
tp82
a(g19
g20
I2
g21
tp83
a(g19
g20
I2
g21
tp84
a(g19
g20
I2
g21
tp85
a(g19
g20
I2
g21
tp86
a(g19
g20
I2
g21
tp87
a(g19
g20
I2
g21
tp88
a(g19
g20
I2
g21
tp89
a(g19
g20
I2
g21
tp90
a(g19
g20
I2
g42
tp91
a(g19
g20
I2
g21
tp92
a(g19
g20
I2
g21
tp93
a(g19
g20
I2
g21
tp94
a(g19
g20
I2
g21
tp95
a(g19
g20
I2
g21
tp96
a(g19
g20
I2
g21
tp97
a(g19
g20
I2
g21
tp98
a(g19
g20
I2
g21
tp99
a(g19
g20
I2
g42
tp100
a(g19
g20
I3
g21
tp101
a(g19
g20
I3
g21
tp102
a(g19
g20
I3
g21
tp103
a(g19
g20
I3
g21
tp104
a(g19
g20
I3
g21
tp105
a(g19
g20
I3
g21
tp106
a(g19
g20
I3
g42
tp107
a(g19
g20
I3
g42
tp108
a(g19
g20
I3
g21
tp109
a(g19
g20
I3
g21
tp110
a(g19
g20
I3
g21
tp111
a(g19
g20
I3
g21
tp112
a(g19
g20
I3
g21
tp113
a(g19
g20
I3
g21
tp114
a(g19
g20
I3
g21
tp115
a(g19
g20
I3
g21
tp116
a(g19
g20
I3
g21
tp117
a(g19
g20
I3
g21
tp118
a(g19
g20
I3
g21
tp119
a(g19
g20
I3
g21
tp120
a(g19
g20
I3
g21
tp121
a(g19
g20
I3
g21
tp122
a(g19
g20
I3
g21
tp123
a(g19
g20
I3
g21
tp124
a(g19
g20
I3
g42
tp125
a(g19
g20
I3
g21
tp126
a(g19
g20
I3
g21
tp127
a(g19
g20
I3
g21
tp128
a(g19
g20
I3
g21
tp129
asS'output_format'
p130
(lp131
(S'proband_id'
p132
c__builtin__
str
p133
tp134
a(S'test_name'
p135
g133
tp136
a(S'trialn'
p137
c__builtin__
int
p138
tp139
a(S'rsp'
p140
g133
tp141
asg132
g19
sS'filename'
p142
S'4375_verbal_fluency.data'
p143
sS'initialised'
p144
g8
(S'\x07\xdf\x04\x14\x0e7\x19\x0c\\\x10'
tRp145
sS'last_udated'
p146
g8
(S'\x07\xdf\x04\x14\x0e7\x19\x0c\\\x10'
tRp147
sg135
S'verbal_fluency'
p148
sS'directory'
p149
S'c:\\Charlie\\charlie\\data\\raw'
p150
sS'user_id'
p151
S'oleach'
p152
sS'test_started'
p153
I01
sS'abs_filename'
p154
S'c:\\Charlie\\charlie\\data\\raw\\4375_verbal_fluency.data'
p155
sS'date_started'
p156
g8
(S'\x07\xdf\x04\x14\x0e9%\x0c\x1d\x90'
tRp157
sS'log'
p158
(lp159
(S'2015-04-20 14:55:25.810000'
S'instance created'
p160
tp161
a(S'2015-04-20 14:57:37.805000'
S'instance updated'
p162
tp163
a(S'2015-04-20 14:57:37.810000'
S'pandas DataFrame of data created'
p164
tp165
a(S'2015-04-20 14:57:37.816000'
S'data saved as csv to c:\\Charlie\\charlie\\data\\csv\\4375_verbal_fluency.csv'
tp166
a(S'2015-04-20 14:57:43.083000'
g162
tp167
a(S'2015-04-20 14:57:43.089000'
g164
tp168
a(S'2015-04-20 14:57:43.092000'
S'data saved as csv to c:\\Charlie\\charlie\\data\\csv\\4375_verbal_fluency.csv'
tp169
a(S'2015-04-20 14:58:47.790000'
g162
tp170
a(S'2015-04-20 14:58:47.796000'
g164
tp171
a(S'2015-04-20 14:58:47.800000'
S'data saved as csv to c:\\Charlie\\charlie\\data\\csv\\4375_verbal_fluency.csv'
tp172
a(S'2015-04-20 14:58:52.414000'
g162
tp173
a(S'2015-04-20 14:58:52.420000'
g164
tp174
a(S'2015-04-20 14:58:52.424000'
S'data saved as csv to c:\\Charlie\\charlie\\data\\csv\\4375_verbal_fluency.csv'
tp175
a(S'2015-04-20 14:59:56.762000'
g162
tp176
a(S'2015-04-20 14:59:56.767000'
g164
tp177
a(S'2015-04-20 14:59:56.771000'
S'data saved as csv to c:\\Charlie\\charlie\\data\\csv\\4375_verbal_fluency.csv'
tp178
a(S'2015-04-20 15:00:09.321000'
g162
tp179
a(S'2015-04-20 15:00:09.327000'
g164
tp180
a(S'2015-04-20 15:00:09.331000'
S'data saved as csv to c:\\Charlie\\charlie\\data\\csv\\4375_verbal_fluency.csv'
tp181
a(S'2015-04-20 15:01:14.565000'
g162
tp182
a(S'2015-04-20 15:01:14.571000'
g164
tp183
a(S'2015-04-20 15:01:14.575000'
S'data saved as csv to c:\\Charlie\\charlie\\data\\csv\\4375_verbal_fluency.csv'
tp184
asb.