(icharlie.tools.data
Data
p1
(dp2
S'lang'
p3
S'EN'
p4
sS'control'
p5
(lp6
sS'last_updated'
p7
cdatetime
datetime
p8
(S'\x07\xdf\x04\x14\x0e#0\x02\x8cX'
tRp9
sS'last_opened'
p10
g8
(S'\x07\xdf\x04\x14\x0e "\t\x0ch'
tRp11
sS'proj_id'
p12
S'connectivity'
p13
sS'date_done'
p14
NsS'test_done'
p15
I01
sS'data'
p16
(lp17
(S'4375'
p18
S'digit_symbol'
p19
S'practice'
p20
I0
I2
I2
S'Yes'
p21
S'c:\\Charlie\\charlie\\stimuli\\visual\\digit_symbol\\sym2.bmp'
g21
I5851
tp22
a(g18
g19
g20
I1
I6
I6
g21
S'c:\\Charlie\\charlie\\stimuli\\visual\\digit_symbol\\sym6.bmp'
S'No'
p23
I2330
tp24
a(g18
g19
g20
I2
I8
I4
g23
S'c:\\Charlie\\charlie\\stimuli\\visual\\digit_symbol\\sym4.bmp'
g23
I4070
tp25
a(g18
g19
g20
I3
I4
I4
g21
S'c:\\Charlie\\charlie\\stimuli\\visual\\digit_symbol\\sym4.bmp'
g21
I2900
tp26
a(g18
g19
g20
I4
I7
I7
g21
S'c:\\Charlie\\charlie\\stimuli\\visual\\digit_symbol\\sym7.bmp'
g21
I2360
tp27
a(g18
g19
g20
I5
I6
I5
g23
S'c:\\Charlie\\charlie\\stimuli\\visual\\digit_symbol\\sym5.bmp'
g23
I1890
tp28
a(g18
g19
g20
I6
I2
I8
g23
S'c:\\Charlie\\charlie\\stimuli\\visual\\digit_symbol\\sym8.bmp'
g23
I1560
tp29
a(g18
g19
g20
I7
I9
I2
g23
S'c:\\Charlie\\charlie\\stimuli\\visual\\digit_symbol\\sym2.bmp'
g23
I2050
tp30
a(g18
g19
g20
I8
I3
I7
g23
S'c:\\Charlie\\charlie\\stimuli\\visual\\digit_symbol\\sym7.bmp'
g23
I2200
tp31
a(g18
g19
g20
I9
I5
I6
g23
S'c:\\Charlie\\charlie\\stimuli\\visual\\digit_symbol\\sym6.bmp'
g23
I1450
tp32
a(g18
g19
S'test'
p33
I0
I8
I8
g21
S'c:\\Charlie\\charlie\\stimuli\\visual\\digit_symbol\\sym8.bmp'
g21
I2706
tp34
a(g18
g19
g33
I1
I1
I4
g23
S'c:\\Charlie\\charlie\\stimuli\\visual\\digit_symbol\\sym4.bmp'
g23
I1903
tp35
a(g18
g19
g33
I2
I2
I8
g23
S'c:\\Charlie\\charlie\\stimuli\\visual\\digit_symbol\\sym8.bmp'
g23
I1403
tp36
a(g18
g19
g33
I3
I6
I2
g23
S'c:\\Charlie\\charlie\\stimuli\\visual\\digit_symbol\\sym2.bmp'
g23
I1803
tp37
a(g18
g19
g33
I4
I4
I4
g21
S'c:\\Charlie\\charlie\\stimuli\\visual\\digit_symbol\\sym4.bmp'
g21
I1403
tp38
a(g18
g19
g33
I5
I9
I5
g23
S'c:\\Charlie\\charlie\\stimuli\\visual\\digit_symbol\\sym5.bmp'
g23
I1503
tp39
a(g18
g19
g33
I6
I5
I6
g23
S'c:\\Charlie\\charlie\\stimuli\\visual\\digit_symbol\\sym6.bmp'
g23
I1603
tp40
a(g18
g19
g33
I7
I3
I3
g21
S'c:\\Charlie\\charlie\\stimuli\\visual\\digit_symbol\\sym3.bmp'
g21
I1504
tp41
a(g18
g19
g33
I8
I4
I4
g21
S'c:\\Charlie\\charlie\\stimuli\\visual\\digit_symbol\\sym4.bmp'
g21
I1503
tp42
a(g18
g19
g33
I9
I9
I9
g21
S'c:\\Charlie\\charlie\\stimuli\\visual\\digit_symbol\\sym9.bmp'
g21
I1503
tp43
a(g18
g19
g33
I10
I6
I6
g21
S'c:\\Charlie\\charlie\\stimuli\\visual\\digit_symbol\\sym6.bmp'
g21
I1203
tp44
a(g18
g19
g33
I11
I1
I1
g21
S'c:\\Charlie\\charlie\\stimuli\\visual\\digit_symbol\\sym1.bmp'
g21
I1603
tp45
a(g18
g19
g33
I12
I2
I2
g21
S'c:\\Charlie\\charlie\\stimuli\\visual\\digit_symbol\\sym2.bmp'
g21
I1303
tp46
a(g18
g19
g33
I13
I7
I7
g21
S'c:\\Charlie\\charlie\\stimuli\\visual\\digit_symbol\\sym7.bmp'
g21
I1603
tp47
a(g18
g19
g33
I14
I3
I3
g21
S'c:\\Charlie\\charlie\\stimuli\\visual\\digit_symbol\\sym3.bmp'
g21
I1703
tp48
a(g18
g19
g33
I15
I8
I8
g21
S'c:\\Charlie\\charlie\\stimuli\\visual\\digit_symbol\\sym8.bmp'
g23
I1603
tp49
a(g18
g19
g33
I16
I7
I7
g21
S'c:\\Charlie\\charlie\\stimuli\\visual\\digit_symbol\\sym7.bmp'
g21
I2503
tp50
a(g18
g19
g33
I17
I5
I3
g23
S'c:\\Charlie\\charlie\\stimuli\\visual\\digit_symbol\\sym3.bmp'
g23
I1604
tp51
a(g18
g19
g33
I18
I1
I5
g23
S'c:\\Charlie\\charlie\\stimuli\\visual\\digit_symbol\\sym5.bmp'
g23
I1403
tp52
a(g18
g19
g33
I19
I4
I4
g21
S'c:\\Charlie\\charlie\\stimuli\\visual\\digit_symbol\\sym4.bmp'
g21
I1403
tp53
a(g18
g19
g33
I20
I7
I8
g23
S'c:\\Charlie\\charlie\\stimuli\\visual\\digit_symbol\\sym8.bmp'
g23
I1803
tp54
a(g18
g19
g33
I21
I4
I4
g21
S'c:\\Charlie\\charlie\\stimuli\\visual\\digit_symbol\\sym4.bmp'
g21
I1903
tp55
a(g18
g19
g33
I22
I8
I8
g21
S'c:\\Charlie\\charlie\\stimuli\\visual\\digit_symbol\\sym8.bmp'
g23
I2103
tp56
a(g18
g19
g33
I23
I3
I3
g21
S'c:\\Charlie\\charlie\\stimuli\\visual\\digit_symbol\\sym3.bmp'
g21
I203
tp57
a(g18
g19
g33
I24
I5
I5
g21
S'c:\\Charlie\\charlie\\stimuli\\visual\\digit_symbol\\sym5.bmp'
g21
I3003
tp58
a(g18
g19
g33
I25
I3
I1
g23
S'c:\\Charlie\\charlie\\stimuli\\visual\\digit_symbol\\sym1.bmp'
g23
I5804
tp59
a(g18
g19
g33
I26
I6
I9
g23
S'c:\\Charlie\\charlie\\stimuli\\visual\\digit_symbol\\sym9.bmp'
g23
I1503
tp60
a(g18
g19
g33
I27
I2
I2
g21
S'c:\\Charlie\\charlie\\stimuli\\visual\\digit_symbol\\sym2.bmp'
g21
I1203
tp61
a(g18
g19
g33
I28
I8
I8
g21
S'c:\\Charlie\\charlie\\stimuli\\visual\\digit_symbol\\sym8.bmp'
g21
I1903
tp62
a(g18
g19
g33
I29
I9
I2
g23
S'c:\\Charlie\\charlie\\stimuli\\visual\\digit_symbol\\sym2.bmp'
g23
I1603
tp63
a(g18
g19
g33
I30
I1
I6
g23
S'c:\\Charlie\\charlie\\stimuli\\visual\\digit_symbol\\sym6.bmp'
g23
I2003
tp64
a(g18
g19
g33
I31
I5
I4
g23
S'c:\\Charlie\\charlie\\stimuli\\visual\\digit_symbol\\sym4.bmp'
g23
I1803
tp65
a(g18
g19
g33
I32
I6
I6
g21
S'c:\\Charlie\\charlie\\stimuli\\visual\\digit_symbol\\sym6.bmp'
g21
I1303
tp66
a(g18
g19
g33
I33
I2
I2
g21
S'c:\\Charlie\\charlie\\stimuli\\visual\\digit_symbol\\sym2.bmp'
g21
I1403
tp67
a(g18
g19
g33
I34
I9
I9
g21
S'c:\\Charlie\\charlie\\stimuli\\visual\\digit_symbol\\sym9.bmp'
g21
I1903
tp68
a(g18
g19
g33
I35
I7
I7
g21
S'c:\\Charlie\\charlie\\stimuli\\visual\\digit_symbol\\sym7.bmp'
g21
I1304
tp69
a(g18
g19
g33
I36
I3
I3
g21
S'c:\\Charlie\\charlie\\stimuli\\visual\\digit_symbol\\sym3.bmp'
g21
I1603
tp70
a(g18
g19
g33
I37
I1
I8
g23
S'c:\\Charlie\\charlie\\stimuli\\visual\\digit_symbol\\sym8.bmp'
g23
I1103
tp71
a(g18
g19
g33
I38
I6
I6
g21
S'c:\\Charlie\\charlie\\stimuli\\visual\\digit_symbol\\sym6.bmp'
g21
I1303
tp72
a(g18
g19
g33
I39
I7
I7
g21
S'c:\\Charlie\\charlie\\stimuli\\visual\\digit_symbol\\sym7.bmp'
g21
I1803
tp73
a(g18
g19
g33
I40
I9
I5
g23
S'c:\\Charlie\\charlie\\stimuli\\visual\\digit_symbol\\sym5.bmp'
g21
I1603
tp74
a(g18
g19
g33
I41
I7
I9
g23
S'c:\\Charlie\\charlie\\stimuli\\visual\\digit_symbol\\sym9.bmp'
g23
I2003
tp75
a(g18
g19
g33
I42
I5
I7
g23
S'c:\\Charlie\\charlie\\stimuli\\visual\\digit_symbol\\sym7.bmp'
g23
I2803
tp76
a(g18
g19
g33
I43
I2
I2
g21
S'c:\\Charlie\\charlie\\stimuli\\visual\\digit_symbol\\sym2.bmp'
g23
I1503
tp77
a(g18
g19
g33
I44
I1
I1
g21
S'c:\\Charlie\\charlie\\stimuli\\visual\\digit_symbol\\sym1.bmp'
g21
I2003
tp78
a(g18
g19
g33
I45
I6
I4
g23
S'c:\\Charlie\\charlie\\stimuli\\visual\\digit_symbol\\sym4.bmp'
g23
I2203
tp79
a(g18
g19
g33
I46
I8
I3
g23
S'c:\\Charlie\\charlie\\stimuli\\visual\\digit_symbol\\sym3.bmp'
g23
I1803
tp80
a(g18
g19
g33
I47
I2
I2
g21
S'c:\\Charlie\\charlie\\stimuli\\visual\\digit_symbol\\sym2.bmp'
g21
I1403
tp81
asS'output_format'
p82
(lp83
(S'proband_id'
p84
c__builtin__
str
p85
tp86
a(S'test_name'
p87
g85
tp88
a(S'phase'
p89
g85
tp90
a(S'trialn'
p91
c__builtin__
int
p92
tp93
a(S'digit'
p94
g92
tp95
a(S'symbol'
p96
g92
tp97
a(S'ans'
p98
g85
tp99
a(S'f'
g85
tp100
a(S'rsp'
p101
g85
tp102
a(S'rt'
p103
g92
tp104
asg84
g18
sS'filename'
p105
S'4375_digit_symbol.data'
p106
sS'initialised'
p107
g8
(S'\x07\xdf\x04\x14\x0e "\t\x0ch'
tRp108
sS'last_udated'
p109
g8
(S'\x07\xdf\x04\x14\x0e "\t\x0ch'
tRp110
sg87
S'digit_symbol'
p111
sS'directory'
p112
S'c:\\Charlie\\charlie\\data\\raw'
p113
sS'user_id'
p114
S'oleach'
p115
sS'test_started'
p116
I01
sS'abs_filename'
p117
S'c:\\Charlie\\charlie\\data\\raw\\4375_digit_symbol.data'
p118
sS'date_started'
p119
g8
(S'\x07\xdf\x04\x14\x0e!\x17\n\x83h'
tRp120
sS'log'
p121
(lp122
(S'2015-04-20 14:32:34.593000'
S'instance created'
p123
tp124
a(S'2015-04-20 14:33:23.699000'
S'instance updated'
p125
tp126
a(S'2015-04-20 14:33:23.709000'
S'pandas DataFrame of data created'
p127
tp128
a(S'2015-04-20 14:33:23.716000'
S'data saved as csv to c:\\Charlie\\charlie\\data\\csv\\4375_digit_symbol.csv'
tp129
a(S'2015-04-20 14:33:27.089000'
g125
tp130
a(S'2015-04-20 14:33:27.100000'
g127
tp131
a(S'2015-04-20 14:33:27.104000'
S'data saved as csv to c:\\Charlie\\charlie\\data\\csv\\4375_digit_symbol.csv'
tp132
a(S'2015-04-20 14:33:32.198000'
g125
tp133
a(S'2015-04-20 14:33:32.209000'
g127
tp134
a(S'2015-04-20 14:33:32.212000'
S'data saved as csv to c:\\Charlie\\charlie\\data\\csv\\4375_digit_symbol.csv'
tp135
a(S'2015-04-20 14:33:36.135000'
g125
tp136
a(S'2015-04-20 14:33:36.145000'
g127
tp137
a(S'2015-04-20 14:33:36.149000'
S'data saved as csv to c:\\Charlie\\charlie\\data\\csv\\4375_digit_symbol.csv'
tp138
a(S'2015-04-20 14:33:39.534000'
g125
tp139
a(S'2015-04-20 14:33:39.545000'
g127
tp140
a(S'2015-04-20 14:33:39.549000'
S'data saved as csv to c:\\Charlie\\charlie\\data\\csv\\4375_digit_symbol.csv'
tp141
a(S'2015-04-20 14:33:42.463000'
g125
tp142
a(S'2015-04-20 14:33:42.473000'
g127
tp143
a(S'2015-04-20 14:33:42.477000'
S'data saved as csv to c:\\Charlie\\charlie\\data\\csv\\4375_digit_symbol.csv'
tp144
a(S'2015-04-20 14:33:45.061000'
g125
tp145
a(S'2015-04-20 14:33:45.071000'
g127
tp146
a(S'2015-04-20 14:33:45.075000'
S'data saved as csv to c:\\Charlie\\charlie\\data\\csv\\4375_digit_symbol.csv'
tp147
a(S'2015-04-20 14:33:48.150000'
g125
tp148
a(S'2015-04-20 14:33:48.160000'
g127
tp149
a(S'2015-04-20 14:33:48.164000'
S'data saved as csv to c:\\Charlie\\charlie\\data\\csv\\4375_digit_symbol.csv'
tp150
a(S'2015-04-20 14:33:51.389000'
g125
tp151
a(S'2015-04-20 14:33:51.399000'
g127
tp152
a(S'2015-04-20 14:33:51.403000'
S'data saved as csv to c:\\Charlie\\charlie\\data\\csv\\4375_digit_symbol.csv'
tp153
a(S'2015-04-20 14:33:53.878000'
g125
tp154
a(S'2015-04-20 14:33:53.889000'
g127
tp155
a(S'2015-04-20 14:33:53.893000'
S'data saved as csv to c:\\Charlie\\charlie\\data\\csv\\4375_digit_symbol.csv'
tp156
a(S'2015-04-20 14:35:48.151000'
g125
tp157
a(S'2015-04-20 14:35:48.164000'
g127
tp158
a(S'2015-04-20 14:35:48.166000'
S'data saved as csv to c:\\Charlie\\charlie\\data\\csv\\4375_digit_symbol.csv'
tp159
asb.