(icharlie.tools.data
Data
p1
(dp2
S'lang'
p3
S'EN'
p4
sS'control'
p5
(lp6
sS'last_updated'
p7
cdatetime
datetime
p8
(S"\x07\xdf\x04\x16\x0b\t'\r\xe2\xb0"
tRp9
sS'last_opened'
p10
g8
(S'\x07\xdf\x04\x16\x0b\x014\x06\xbe\x90'
tRp11
sS'proj_id'
p12
S'connectivity'
p13
sS'date_done'
p14
g8
(S"\x07\xdf\x04\x16\x0b\t'\r\x00 "
tRp15
sS'test_done'
p16
I01
sS'data'
p17
(lp18
(S'4378'
p19
S'cvlt2'
p20
I0
csip
_unpickle_type
p21
(S'PyQt4.QtCore'
p22
S'QString'
(Vcabbage
p23
ttRp24
tp25
a(g19
g20
I0
g21
(g22
S'QString'
(Vtruck
p26
ttRp27
tp28
a(g19
g20
I0
g21
(g22
S'QString'
(Vspinach
p29
ttRp30
tp31
a(g19
g20
I0
g21
(g22
S'QString'
(Vcabinet
p32
ttRp33
tp34
a(g19
g20
I0
g21
(g22
S'QString'
(Vboat
p35
ttRp36
tp37
a(g19
g20
I0
g21
(g22
S'QString'
(Vonion
p38
ttRp39
tp40
a(g19
g20
I1
g21
(g22
S'QString'
(Vcabbage
p41
ttRp42
tp43
a(g19
g20
I1
g21
(g22
S'QString'
(Vsquirrel
p44
ttRp45
tp46
a(g19
g20
I1
g21
(g22
S'QString'
(Vonion
p47
ttRp48
tp49
a(g19
g20
I1
g21
(g22
S'QString'
(Vcow
p50
ttRp51
tp52
a(g19
g20
I1
g21
(g22
S'QString'
(Vtruck
p53
ttRp54
tp55
a(g19
g20
I1
g21
(g22
S'QString'
(Vcabbage
p56
ttRp57
tp58
a(g19
g20
I1
g21
(g22
S'QString'
(Vdesk
p59
ttRp60
tp61
a(g19
g20
I2
g21
(g22
S'QString'
(Vcabbage
p62
ttRp63
tp64
a(g19
g20
I2
g21
(g22
S'QString'
(Vsquirrel
p65
ttRp66
tp67
a(g19
g20
I2
g21
(g22
S'QString'
(Vtruck
p68
ttRp69
tp70
a(g19
g20
I2
g21
(g22
S'QString'
(Vonion
p71
ttRp72
tp73
a(g19
g20
I2
g21
(g22
S'QString'
(Vbookcase
p74
ttRp75
tp76
a(g19
g20
I2
g21
(g22
S'QString'
(Vcow
p77
ttRp78
tp79
a(g19
g20
I2
g21
(g22
S'QString'
(Vonion
p80
ttRp81
tp82
a(g19
g20
I2
g21
(g22
S'QString'
(Vgiraffe
p83
ttRp84
tp85
a(g19
g20
I2
g21
(g22
S'QString'
(Vintrusion
p86
ttRp87
tp88
a(g19
g20
I2
g21
(g22
S'QString'
(Vtruck
p89
ttRp90
tp91
a(g19
g20
I2
g21
(g22
S'QString'
(Vonion
p92
ttRp93
tp94
a(g19
g20
I2
g21
(g22
S'QString'
(Vcow
p95
ttRp96
tp97
a(g19
g20
I3
g21
(g22
S'QString'
(Vsquirrel
p98
ttRp99
tp100
a(g19
g20
I3
g21
(g22
S'QString'
(Vcabinet
p101
ttRp102
tp103
a(g19
g20
I3
g21
(g22
S'QString'
(Vbookcase
p104
ttRp105
tp106
a(g19
g20
I3
g21
(g22
S'QString'
(Vlamp
p107
ttRp108
tp109
a(g19
g20
I3
g21
(g22
S'QString'
(Vonion
p110
ttRp111
tp112
a(g19
g20
I3
g21
(g22
S'QString'
(Vtruck
p113
ttRp114
tp115
a(g19
g20
I3
g21
(g22
S'QString'
(Vgiraffe
p116
ttRp117
tp118
a(g19
g20
I3
g21
(g22
S'QString'
(Vspinach
p119
ttRp120
tp121
a(g19
g20
I3
g21
(g22
S'QString'
(Vcow
p122
ttRp123
tp124
a(g19
g20
I3
g21
(g22
S'QString'
(Vonion
p125
ttRp126
tp127
a(g19
g20
I4
g21
(g22
S'QString'
(Vboat
p128
ttRp129
tp130
a(g19
g20
I4
g21
(g22
S'QString'
(Vsquirrel
p131
ttRp132
tp133
a(g19
g20
I4
g21
(g22
S'QString'
(Vcabinet
p134
ttRp135
tp136
a(g19
g20
I4
g21
(g22
S'QString'
(Vcabbage
p137
ttRp138
tp139
a(g19
g20
I4
g21
(g22
S'QString'
(Vtruck
p140
ttRp141
tp142
a(g19
g20
I4
g21
(g22
S'QString'
(Vonion
p143
ttRp144
tp145
a(g19
g20
I4
g21
(g22
S'QString'
(Vgiraffe
p146
ttRp147
tp148
a(g19
g20
I4
g21
(g22
S'QString'
(Vspinach
p149
ttRp150
tp151
a(g19
g20
I4
g21
(g22
S'QString'
(Vcow
p152
ttRp153
tp154
asS'output_format'
p155
(lp156
(S'proband_id'
p157
c__builtin__
str
p158
tp159
a(S'test_name'
p160
g158
tp161
a(S'trialn'
p162
c__builtin__
int
p163
tp164
a(S'rsp'
p165
g158
tp166
asg157
g19
sS'filename'
p167
S'4378_cvlt2.data'
p168
sS'initialised'
p169
g8
(S'\x07\xdf\x04\x16\x0b\x014\x06\xbe\x90'
tRp170
sS'last_udated'
p171
g8
(S'\x07\xdf\x04\x16\x0b\x014\x06\xbe\x90'
tRp172
sg160
S'cvlt2'
p173
sS'directory'
p174
S'c:\\Charlie\\charlie\\data\\raw'
p175
sS'user_id'
p176
S'oleach'
p177
sS'test_started'
p178
I01
sS'abs_filename'
p179
S'c:\\Charlie\\charlie\\data\\raw\\4378_cvlt2.data'
p180
sS'date_started'
p181
g8
(S'\x07\xdf\x04\x16\x0b\x03&\x06\xf5@'
tRp182
sS'log'
p183
(lp184
(S'2015-04-22 11:01:52.442000'
S'instance created'
p185
tp186
a(S'2015-04-22 11:03:38.467000'
S'instance updated'
p187
tp188
a(S'2015-04-22 11:03:38.497000'
S'pandas DataFrame of data created'
p189
tp190
a(S'2015-04-22 11:03:38.501000'
S'data saved as csv to c:\\Charlie\\charlie\\data\\csv\\4378_cvlt2.csv'
tp191
a(S'2015-04-22 11:04:24.303000'
g187
tp192
a(S'2015-04-22 11:04:24.319000'
g189
tp193
a(S'2015-04-22 11:04:24.323000'
S'data saved as csv to c:\\Charlie\\charlie\\data\\csv\\4378_cvlt2.csv'
tp194
a(S'2015-04-22 11:04:52.421000'
g187
tp195
a(S'2015-04-22 11:04:52.446000'
g189
tp196
a(S'2015-04-22 11:04:52.448000'
S'data saved as csv to c:\\Charlie\\charlie\\data\\csv\\4378_cvlt2.csv'
tp197
a(S'2015-04-22 11:05:30.491000'
g187
tp198
a(S'2015-04-22 11:05:30.515000'
g189
tp199
a(S'2015-04-22 11:05:30.517000'
S'data saved as csv to c:\\Charlie\\charlie\\data\\csv\\4378_cvlt2.csv'
tp200
a(S'2015-04-22 11:06:40.182000'
g187
tp201
a(S'2015-04-22 11:06:40.219000'
g189
tp202
a(S'2015-04-22 11:06:40.221000'
S'data saved as csv to c:\\Charlie\\charlie\\data\\csv\\4378_cvlt2.csv'
tp203
a(S'2015-04-22 11:07:18.772000'
g187
tp204
a(S'2015-04-22 11:07:18.813000'
g189
tp205
a(S'2015-04-22 11:07:18.814000'
S'data saved as csv to c:\\Charlie\\charlie\\data\\csv\\4378_cvlt2.csv'
tp206
a(S'2015-04-22 11:08:25.616000'
g187
tp207
a(S'2015-04-22 11:08:25.660000'
g189
tp208
a(S'2015-04-22 11:08:25.662000'
S'data saved as csv to c:\\Charlie\\charlie\\data\\csv\\4378_cvlt2.csv'
tp209
a(S'2015-04-22 11:09:01.318000'
g187
tp210
a(S'2015-04-22 11:09:01.361000'
g189
tp211
a(S'2015-04-22 11:09:01.363000'
S'data saved as csv to c:\\Charlie\\charlie\\data\\csv\\4378_cvlt2.csv'
tp212
a(S'2015-04-22 11:09:39.852000'
g187
tp213
a(S'2015-04-22 11:09:39.908000'
g189
tp214
a(S'2015-04-22 11:09:39.910000'
S'data saved as csv to c:\\Charlie\\charlie\\data\\csv\\4378_cvlt2.csv'
tp215
asb.