(icharlie.tools.data
Data
p1
(dp2
S'lang'
p3
S'EN'
p4
sS'control'
p5
(lp6
sS'last_updated'
p7
cdatetime
datetime
p8
(S'\x07\xdf\x05\x01\x0c#\x05\x0c\xd9\x10'
tRp9
sS'last_opened'
p10
g8
(S'\x07\xdf\x05\x01\x0c\x1c$\x05\xdc\x00'
tRp11
sS'proj_id'
p12
S'connectivity'
p13
sS'date_done'
p14
NsS'test_done'
p15
I01
sS'data'
p16
(lp17
(S'4380'
p18
S'ctrails'
p19
S'number'
p20
S'practice'
p21
I0
I1
S'Correct'
p22
I4720
I27919
tp23
a(g18
g19
g20
g21
I1
I2
g22
I850
I27919
tp24
a(g18
g19
g20
g21
I2
I3
g22
I1340
I27919
tp25
a(g18
g19
g20
g21
I3
I4
g22
I670
I27919
tp26
a(g18
g19
g20
g21
I4
I5
g22
I1220
I27919
tp27
a(g18
g19
g20
g21
I5
I6
g22
I1900
I27919
tp28
a(g18
g19
g20
g21
I6
I6
S'Incorrect'
p29
I920
I27919
tp30
a(g18
g19
g20
g21
I7
I6
g29
I2551
I27919
tp31
a(g18
g19
g20
g21
I8
I7
g22
I2230
I27919
tp32
a(g18
g19
g20
g21
I9
I8
g22
I1060
I27919
tp33
a(g18
g19
g20
S'test'
p34
I0
I1
g22
I3150
I66050
tp35
a(g18
g19
g20
g34
I1
I2
g22
I3361
I66050
tp36
a(g18
g19
g20
g34
I2
I3
g22
I2130
I66050
tp37
a(g18
g19
g20
g34
I3
I4
g22
I2780
I66050
tp38
a(g18
g19
g20
g34
I4
I5
g22
I650
I66050
tp39
a(g18
g19
g20
g34
I5
I6
g22
I3940
I66050
tp40
a(g18
g19
g20
g34
I6
I7
g22
I1401
I66050
tp41
a(g18
g19
g20
g34
I7
I8
g22
I1330
I66050
tp42
a(g18
g19
g20
g34
I8
I9
g22
I1400
I66050
tp43
a(g18
g19
g20
g34
I9
I10
g22
I1890
I66050
tp44
a(g18
g19
g20
g34
I10
I11
g22
I2660
I66050
tp45
a(g18
g19
g20
g34
I11
I12
g22
I960
I66050
tp46
a(g18
g19
g20
g34
I12
I13
g22
I1480
I66050
tp47
a(g18
g19
g20
g34
I13
I14
g22
I990
I66050
tp48
a(g18
g19
g20
g34
I14
I15
g22
I750
I66050
tp49
a(g18
g19
g20
g34
I15
I16
g22
I2120
I66050
tp50
a(g18
g19
g20
g34
I16
I17
g22
I1560
I66050
tp51
a(g18
g19
g20
g34
I17
I18
g22
I1851
I66050
tp52
a(g18
g19
g20
g34
I18
I19
g22
I1340
I66050
tp53
a(g18
g19
g20
g34
I19
I20
g22
I15412
I66050
tp54
a(g18
g19
g20
g34
I20
I21
g22
I1881
I66050
tp55
a(g18
g19
g20
g34
I21
I22
g22
I930
I66050
tp56
a(g18
g19
g20
g34
I22
I23
g22
I1990
I66050
tp57
a(g18
g19
g20
g34
I23
I24
g22
I1410
I66050
tp58
a(g18
g19
g20
g34
I24
I25
g22
I1100
I66050
tp59
a(g18
g19
S'letter'
p60
g21
I0
S'a'
g22
I2350
I10643
tp61
a(g18
g19
g60
g21
I1
S'b'
g22
I1630
I10643
tp62
a(g18
g19
g60
g21
I2
S'c'
g22
I890
I10643
tp63
a(g18
g19
g60
g21
I3
S'd'
g22
I1130
I10643
tp64
a(g18
g19
g60
g21
I4
S'e'
g22
I990
I10643
tp65
a(g18
g19
g60
g21
I5
S'f'
g22
I1050
I10643
tp66
a(g18
g19
g60
g21
I6
S'g'
g22
I1340
I10643
tp67
a(g18
g19
g60
g21
I7
S'h'
g22
I1220
I10643
tp68
a(g18
g19
g60
g34
I0
S'a'
g22
I15071
I78303
tp69
a(g18
g19
g60
g34
I1
S'b'
g22
I1230
I78303
tp70
a(g18
g19
g60
g34
I2
S'c'
g22
I1900
I78303
tp71
a(g18
g19
g60
g34
I3
S'd'
g22
I1380
I78303
tp72
a(g18
g19
g60
g34
I4
S'e'
g22
I990
I78303
tp73
a(g18
g19
g60
g34
I5
S'f'
g22
I1260
I78303
tp74
a(g18
g19
g60
g34
I6
S'g'
g22
I2140
I78303
tp75
a(g18
g19
g60
g34
I7
S'h'
g22
I2781
I78303
tp76
a(g18
g19
g60
g34
I8
S'i'
g22
I3060
I78303
tp77
a(g18
g19
g60
g34
I9
S'j'
g22
I1260
I78303
tp78
a(g18
g19
g60
g34
I10
S'k'
g22
I1490
I78303
tp79
a(g18
g19
g60
g34
I11
S'l'
g22
I2250
I78303
tp80
a(g18
g19
g60
g34
I12
S'm'
g22
I1360
I78303
tp81
a(g18
g19
g60
g34
I13
S'n'
g22
I1420
I78303
tp82
a(g18
g19
g60
g34
I14
S'o'
g22
I1980
I78303
tp83
a(g18
g19
g60
g34
I15
S'p'
g22
I3220
I78303
tp84
a(g18
g19
g60
g34
I16
S'q'
g22
I861
I78303
tp85
a(g18
g19
g60
g34
I17
S'r'
g22
I910
I78303
tp86
a(g18
g19
g60
g34
I18
S's'
g22
I2030
I78303
tp87
a(g18
g19
g60
g34
I19
S't'
g22
I960
I78303
tp88
a(g18
g19
g60
g34
I20
S'u'
g22
I2090
I78303
tp89
a(g18
g19
g60
g34
I21
S'v'
g22
I900
I78303
tp90
a(g18
g19
g60
g34
I22
S'w'
g22
I2790
I78303
tp91
a(g18
g19
g60
g34
I23
S'y'
g29
I1610
I78303
tp92
a(g18
g19
g60
g34
I24
S'y'
g29
I3090
I78303
tp93
a(g18
g19
g60
g34
I25
S'y'
g29
I1920
I78303
tp94
a(g18
g19
g60
g34
I26
S'x'
g22
I9903
I78303
tp95
a(g18
g19
g60
g34
I27
S'y'
g22
I8321
I78303
tp96
a(g18
g19
S'number-letter'
p97
g21
I0
I1
g22
I3030
I14197
tp98
a(g18
g19
g97
g21
I1
S'a'
g22
I1980
I14197
tp99
a(g18
g19
g97
g21
I2
I2
g22
I1610
I14197
tp100
a(g18
g19
g97
g21
I3
S'b'
g22
I860
I14197
tp101
a(g18
g19
g97
g21
I4
I3
g22
I2261
I14197
tp102
a(g18
g19
g97
g21
I5
S'c'
g22
I1120
I14197
tp103
a(g18
g19
g97
g21
I6
S'd'
g29
I1030
I14197
tp104
a(g18
g19
g97
g21
I7
I4
g22
I1320
I14197
tp105
a(g18
g19
g97
g21
I8
S'd'
g22
I940
I14197
tp106
a(g18
g19
g97
g34
I0
I1
g22
I3120
I64068
tp107
a(g18
g19
g97
g34
I1
S'a'
g22
I2370
I64068
tp108
a(g18
g19
g97
g34
I2
I2
g22
I1040
I64068
tp109
a(g18
g19
g97
g34
I3
S'b'
g22
I1420
I64068
tp110
a(g18
g19
g97
g34
I4
I3
g22
I3620
I64068
tp111
a(g18
g19
g97
g34
I5
S'c'
g22
I1390
I64068
tp112
a(g18
g19
g97
g34
I6
I4
g22
I1100
I64068
tp113
a(g18
g19
g97
g34
I7
S'd'
g22
I1051
I64068
tp114
a(g18
g19
g97
g34
I8
I5
g22
I1300
I64068
tp115
a(g18
g19
g97
g34
I9
S'e'
g22
I1150
I64068
tp116
a(g18
g19
g97
g34
I10
I6
g22
I1810
I64068
tp117
a(g18
g19
g97
g34
I11
S'f'
g22
I2120
I64068
tp118
a(g18
g19
g97
g34
I12
I7
g22
I2110
I64068
tp119
a(g18
g19
g97
g34
I13
S'i'
g29
I1380
I64068
tp120
a(g18
g19
g97
g34
I14
S'g'
g22
I5950
I64068
tp121
a(g18
g19
g97
g34
I15
I8
g22
I5471
I64068
tp122
a(g18
g19
g97
g34
I16
S'h'
g22
I5260
I64068
tp123
a(g18
g19
g97
g34
I17
I9
g22
I1670
I64068
tp124
a(g18
g19
g97
g34
I18
S'i'
g22
I1570
I64068
tp125
a(g18
g19
g97
g34
I19
I10
g22
I2380
I64068
tp126
a(g18
g19
g97
g34
I20
S'j'
g22
I1690
I64068
tp127
a(g18
g19
g97
g34
I21
I11
g22
I3061
I64068
tp128
a(g18
g19
g97
g34
I22
S'k'
g22
I2820
I64068
tp129
a(g18
g19
g97
g34
I23
I12
g22
I3230
I64068
tp130
a(g18
g19
g97
g34
I24
S'l'
g22
I1510
I64068
tp131
a(g18
g19
g97
g34
I25
I13
g22
I4360
I64068
tp132
asS'output_format'
p133
(lp134
(S'proband_id'
p135
c__builtin__
str
p136
tp137
a(S'test_name'
p138
g136
tp139
a(S'phase'
p140
g136
tp141
a(S'trial_type'
p142
g136
tp143
a(S'n'
c__builtin__
int
p144
tp145
a(S'rsp'
p146
g136
tp147
a(S'corr'
p148
g136
tp149
a(S'rt'
p150
g144
tp151
a(S'total_time'
p152
g144
tp153
asg135
g18
sS'filename'
p154
S'4380_ctrails.data'
p155
sS'initialised'
p156
g8
(S'\x07\xdf\x05\x01\x0c\x1c$\x05\xdc\x00'
tRp157
sS'last_udated'
p158
g8
(S'\x07\xdf\x05\x01\x0c\x1c$\x05\xdc\x00'
tRp159
sg138
S'ctrails'
p160
sS'directory'
p161
S'C:\\Users\\Jbarrett\\Charlie\\charlie\\data\\raw'
p162
sS'user_id'
p163
S'barrett'
p164
sS'test_started'
p165
I01
sS'abs_filename'
p166
S'C:\\Users\\Jbarrett\\Charlie\\charlie\\data\\raw\\4380_ctrails.data'
p167
sS'date_started'
p168
g8
(S'\x07\xdf\x05\x01\x0c\x1d\x18\t\x1f\xf0'
tRp169
sS'log'
p170
(lp171
(S'2015-05-01 12:28:36.384000'
S'instance created'
p172
tp173
a(S'2015-05-01 12:29:24.606000'
S'instance updated'
p174
tp175
a(S'2015-05-01 12:29:24.616000'
S'pandas DataFrame of data created'
p176
tp177
a(S'2015-05-01 12:29:24.621000'
S'data saved as csv to C:\\Users\\Jbarrett\\Charlie\\charlie\\data\\csv\\4380_ctrails.csv'
tp178
a(S'2015-05-01 12:30:53.762000'
g174
tp179
a(S'2015-05-01 12:30:53.772000'
g176
tp180
a(S'2015-05-01 12:30:53.775000'
S'data saved as csv to C:\\Users\\Jbarrett\\Charlie\\charlie\\data\\csv\\4380_ctrails.csv'
tp181
a(S'2015-05-01 12:31:20.788000'
g174
tp182
a(S'2015-05-01 12:31:20.798000'
g176
tp183
a(S'2015-05-01 12:31:20.802000'
S'data saved as csv to C:\\Users\\Jbarrett\\Charlie\\charlie\\data\\csv\\4380_ctrails.csv'
tp184
a(S'2015-05-01 12:32:49.484000'
g174
tp185
a(S'2015-05-01 12:32:49.495000'
g176
tp186
a(S'2015-05-01 12:32:49.500000'
S'data saved as csv to C:\\Users\\Jbarrett\\Charlie\\charlie\\data\\csv\\4380_ctrails.csv'
tp187
a(S'2015-05-01 12:33:30.411000'
g174
tp188
a(S'2015-05-01 12:33:30.422000'
g176
tp189
a(S'2015-05-01 12:33:30.426000'
S'data saved as csv to C:\\Users\\Jbarrett\\Charlie\\charlie\\data\\csv\\4380_ctrails.csv'
tp190
a(S'2015-05-01 12:35:05.832000'
g174
tp191
a(S'2015-05-01 12:35:05.838000'
g176
tp192
a(S'2015-05-01 12:35:05.841000'
S'data saved as csv to C:\\Users\\Jbarrett\\Charlie\\charlie\\data\\csv\\4380_ctrails.csv'
tp193
asb.