(icharlie.tools.data
Data
p1
(dp2
S'lang'
p3
S'EN'
p4
sS'control'
p5
(lp6
sS'last_updated'
p7
cdatetime
datetime
p8
(S'\x07\xdf\x04\x1e\r \x07\n{\x98'
tRp9
sS'last_opened'
p10
g8
(S'\x07\xdf\x04\x1e\r\x1e%\ri\x98'
tRp11
sS'proj_id'
p12
S'connectivity'
p13
sS'date_done'
p14
NsS'test_done'
p15
I01
sS'data'
p16
(lp17
(S'4380'
p18
S'face_memory_delay'
p19
S'test'
p20
I0
S'C:\\Users\\Jbarrett\\Charlie\\charlie\\stimuli\\visual\\face_memory_delay\\ddis10.bmp'
S'No'
p21
g21
I1240
tp22
a(g18
g19
g20
I1
S'C:\\Users\\Jbarrett\\Charlie\\charlie\\stimuli\\visual\\face_memory_delay\\ddis04.bmp'
g21
S'Yes'
p23
I870
tp24
a(g18
g19
g20
I2
S'C:\\Users\\Jbarrett\\Charlie\\charlie\\stimuli\\visual\\face_memory_delay\\tar07.bmp'
g23
g23
I1180
tp25
a(g18
g19
g20
I3
S'C:\\Users\\Jbarrett\\Charlie\\charlie\\stimuli\\visual\\face_memory_delay\\tar18.bmp'
g23
g23
I890
tp26
a(g18
g19
g20
I4
S'C:\\Users\\Jbarrett\\Charlie\\charlie\\stimuli\\visual\\face_memory_delay\\ddis14.bmp'
g21
g23
I1340
tp27
a(g18
g19
g20
I5
S'C:\\Users\\Jbarrett\\Charlie\\charlie\\stimuli\\visual\\face_memory_delay\\tar19.bmp'
g23
g23
I1640
tp28
a(g18
g19
g20
I6
S'C:\\Users\\Jbarrett\\Charlie\\charlie\\stimuli\\visual\\face_memory_delay\\ddis13.bmp'
g21
g21
I1151
tp29
a(g18
g19
g20
I7
S'C:\\Users\\Jbarrett\\Charlie\\charlie\\stimuli\\visual\\face_memory_delay\\tar15.bmp'
g23
g23
I780
tp30
a(g18
g19
g20
I8
S'C:\\Users\\Jbarrett\\Charlie\\charlie\\stimuli\\visual\\face_memory_delay\\tar11.bmp'
g23
g23
I950
tp31
a(g18
g19
g20
I9
S'C:\\Users\\Jbarrett\\Charlie\\charlie\\stimuli\\visual\\face_memory_delay\\ddis05.bmp'
g21
g21
I1130
tp32
a(g18
g19
g20
I10
S'C:\\Users\\Jbarrett\\Charlie\\charlie\\stimuli\\visual\\face_memory_delay\\ddis01.bmp'
g21
g21
I1400
tp33
a(g18
g19
g20
I11
S'C:\\Users\\Jbarrett\\Charlie\\charlie\\stimuli\\visual\\face_memory_delay\\ddis16.bmp'
g21
g21
I1000
tp34
a(g18
g19
g20
I12
S'C:\\Users\\Jbarrett\\Charlie\\charlie\\stimuli\\visual\\face_memory_delay\\tar02.bmp'
g23
g23
I940
tp35
a(g18
g19
g20
I13
S'C:\\Users\\Jbarrett\\Charlie\\charlie\\stimuli\\visual\\face_memory_delay\\tar08.bmp'
g23
g23
I1280
tp36
a(g18
g19
g20
I14
S'C:\\Users\\Jbarrett\\Charlie\\charlie\\stimuli\\visual\\face_memory_delay\\tar13.bmp'
g23
g23
I1380
tp37
a(g18
g19
g20
I15
S'C:\\Users\\Jbarrett\\Charlie\\charlie\\stimuli\\visual\\face_memory_delay\\tar20.bmp'
g23
g23
I1190
tp38
a(g18
g19
g20
I16
S'C:\\Users\\Jbarrett\\Charlie\\charlie\\stimuli\\visual\\face_memory_delay\\ddis18.bmp'
g21
g21
I1460
tp39
a(g18
g19
g20
I17
S'C:\\Users\\Jbarrett\\Charlie\\charlie\\stimuli\\visual\\face_memory_delay\\tar06.bmp'
g23
g23
I1310
tp40
a(g18
g19
g20
I18
S'C:\\Users\\Jbarrett\\Charlie\\charlie\\stimuli\\visual\\face_memory_delay\\ddis07.bmp'
g21
g21
I2391
tp41
a(g18
g19
g20
I19
S'C:\\Users\\Jbarrett\\Charlie\\charlie\\stimuli\\visual\\face_memory_delay\\ddis08.bmp'
g21
g23
I11840
tp42
a(g18
g19
g20
I20
S'C:\\Users\\Jbarrett\\Charlie\\charlie\\stimuli\\visual\\face_memory_delay\\tar12.bmp'
g23
g23
I2810
tp43
a(g18
g19
g20
I21
S'C:\\Users\\Jbarrett\\Charlie\\charlie\\stimuli\\visual\\face_memory_delay\\ddis17.bmp'
g21
g23
I3651
tp44
a(g18
g19
g20
I22
S'C:\\Users\\Jbarrett\\Charlie\\charlie\\stimuli\\visual\\face_memory_delay\\tar05.bmp'
g23
g23
I1960
tp45
a(g18
g19
g20
I23
S'C:\\Users\\Jbarrett\\Charlie\\charlie\\stimuli\\visual\\face_memory_delay\\tar10.bmp'
g23
g23
I1270
tp46
a(g18
g19
g20
I24
S'C:\\Users\\Jbarrett\\Charlie\\charlie\\stimuli\\visual\\face_memory_delay\\ddis02.bmp'
g21
g21
I2080
tp47
a(g18
g19
g20
I25
S'C:\\Users\\Jbarrett\\Charlie\\charlie\\stimuli\\visual\\face_memory_delay\\ddis20.bmp'
g21
g23
I960
tp48
a(g18
g19
g20
I26
S'C:\\Users\\Jbarrett\\Charlie\\charlie\\stimuli\\visual\\face_memory_delay\\tar17.bmp'
g23
g23
I790
tp49
a(g18
g19
g20
I27
S'C:\\Users\\Jbarrett\\Charlie\\charlie\\stimuli\\visual\\face_memory_delay\\ddis15.bmp'
g21
g23
I1360
tp50
a(g18
g19
g20
I28
S'C:\\Users\\Jbarrett\\Charlie\\charlie\\stimuli\\visual\\face_memory_delay\\tar03.bmp'
g23
g23
I1020
tp51
a(g18
g19
g20
I29
S'C:\\Users\\Jbarrett\\Charlie\\charlie\\stimuli\\visual\\face_memory_delay\\ddis19.bmp'
g21
g21
I1230
tp52
a(g18
g19
g20
I30
S'C:\\Users\\Jbarrett\\Charlie\\charlie\\stimuli\\visual\\face_memory_delay\\ddis12.bmp'
g21
g21
I1530
tp53
a(g18
g19
g20
I31
S'C:\\Users\\Jbarrett\\Charlie\\charlie\\stimuli\\visual\\face_memory_delay\\tar16.bmp'
g23
g23
I900
tp54
a(g18
g19
g20
I32
S'C:\\Users\\Jbarrett\\Charlie\\charlie\\stimuli\\visual\\face_memory_delay\\tar09.bmp'
g23
g23
I870
tp55
a(g18
g19
g20
I33
S'C:\\Users\\Jbarrett\\Charlie\\charlie\\stimuli\\visual\\face_memory_delay\\ddis09.bmp'
g21
g23
I1111
tp56
a(g18
g19
g20
I34
S'C:\\Users\\Jbarrett\\Charlie\\charlie\\stimuli\\visual\\face_memory_delay\\tar01.bmp'
g23
g23
I1170
tp57
a(g18
g19
g20
I35
S'C:\\Users\\Jbarrett\\Charlie\\charlie\\stimuli\\visual\\face_memory_delay\\ddis11.bmp'
g21
g21
I2550
tp58
a(g18
g19
g20
I36
S'C:\\Users\\Jbarrett\\Charlie\\charlie\\stimuli\\visual\\face_memory_delay\\ddis03.bmp'
g21
g23
I870
tp59
a(g18
g19
g20
I37
S'C:\\Users\\Jbarrett\\Charlie\\charlie\\stimuli\\visual\\face_memory_delay\\tar04.bmp'
g23
g23
I790
tp60
a(g18
g19
g20
I38
S'C:\\Users\\Jbarrett\\Charlie\\charlie\\stimuli\\visual\\face_memory_delay\\tar14.bmp'
g23
g23
I1130
tp61
a(g18
g19
g20
I39
S'C:\\Users\\Jbarrett\\Charlie\\charlie\\stimuli\\visual\\face_memory_delay\\ddis06.bmp'
p62
g21
g23
I2090
tp63
asS'output_format'
p64
(lp65
(S'proband_id'
p66
c__builtin__
str
p67
tp68
a(S'test_name'
p69
g67
tp70
a(S'phase'
p71
g67
tp72
a(S'trialn'
p73
c__builtin__
int
p74
tp75
a(S'f'
g67
tp76
a(S'ans'
p77
g67
tp78
a(S'rsp'
p79
g67
tp80
a(S'rt'
p81
g74
tp82
asg66
g18
sS'filename'
p83
S'4380_face_memory_delay.data'
p84
sS'initialised'
p85
g8
(S'\x07\xdf\x04\x1e\r\x1e%\ri\x98'
tRp86
sS'last_udated'
p87
g8
(S'\x07\xdf\x04\x1e\r\x1e%\ri\x98'
tRp88
sg69
S'face_memory_delay'
p89
sS'directory'
p90
S'C:\\Users\\Jbarrett\\Charlie\\charlie\\data\\raw'
p91
sS'user_id'
p92
S'barrett'
p93
sS'test_started'
p94
I01
sS'abs_filename'
p95
S'C:\\Users\\Jbarrett\\Charlie\\charlie\\data\\raw\\4380_face_memory_delay.data'
p96
sS'date_started'
p97
g8
(S'\x07\xdf\x04\x1e\r\x1e9\r\xd6\xf8'
tRp98
sS'log'
p99
(lp100
(S'2015-04-30 13:30:37.879000'
S'instance created'
p101
tp102
a(S'2015-04-30 13:30:57.916000'
S'instance updated'
p103
tp104
a(S'2015-04-30 13:30:57.925000'
S'pandas DataFrame of data created'
p105
tp106
a(S'2015-04-30 13:30:57.929000'
S'data saved as csv to C:\\Users\\Jbarrett\\Charlie\\charlie\\data\\csv\\4380_face_memory_delay.csv'
tp107
a(S'2015-04-30 13:30:58.927000'
g103
tp108
a(S'2015-04-30 13:30:58.936000'
g105
tp109
a(S'2015-04-30 13:30:58.939000'
S'data saved as csv to C:\\Users\\Jbarrett\\Charlie\\charlie\\data\\csv\\4380_face_memory_delay.csv'
tp110
a(S'2015-04-30 13:31:00.248000'
g103
tp111
a(S'2015-04-30 13:31:00.257000'
g105
tp112
a(S'2015-04-30 13:31:00.260000'
S'data saved as csv to C:\\Users\\Jbarrett\\Charlie\\charlie\\data\\csv\\4380_face_memory_delay.csv'
tp113
a(S'2015-04-30 13:31:01.279000'
g103
tp114
a(S'2015-04-30 13:31:01.287000'
g105
tp115
a(S'2015-04-30 13:31:01.291000'
S'data saved as csv to C:\\Users\\Jbarrett\\Charlie\\charlie\\data\\csv\\4380_face_memory_delay.csv'
tp116
a(S'2015-04-30 13:31:02.759000'
g103
tp117
a(S'2015-04-30 13:31:02.768000'
g105
tp118
a(S'2015-04-30 13:31:02.772000'
S'data saved as csv to C:\\Users\\Jbarrett\\Charlie\\charlie\\data\\csv\\4380_face_memory_delay.csv'
tp119
a(S'2015-04-30 13:31:04.540000'
g103
tp120
a(S'2015-04-30 13:31:04.549000'
g105
tp121
a(S'2015-04-30 13:31:04.553000'
S'data saved as csv to C:\\Users\\Jbarrett\\Charlie\\charlie\\data\\csv\\4380_face_memory_delay.csv'
tp122
a(S'2015-04-30 13:31:05.831000'
g103
tp123
a(S'2015-04-30 13:31:05.840000'
g105
tp124
a(S'2015-04-30 13:31:05.844000'
S'data saved as csv to C:\\Users\\Jbarrett\\Charlie\\charlie\\data\\csv\\4380_face_memory_delay.csv'
tp125
a(S'2015-04-30 13:31:06.752000'
g103
tp126
a(S'2015-04-30 13:31:06.761000'
g105
tp127
a(S'2015-04-30 13:31:06.763000'
S'data saved as csv to C:\\Users\\Jbarrett\\Charlie\\charlie\\data\\csv\\4380_face_memory_delay.csv'
tp128
a(S'2015-04-30 13:31:07.840000'
g103
tp129
a(S'2015-04-30 13:31:07.849000'
g105
tp130
a(S'2015-04-30 13:31:07.853000'
S'data saved as csv to C:\\Users\\Jbarrett\\Charlie\\charlie\\data\\csv\\4380_face_memory_delay.csv'
tp131
a(S'2015-04-30 13:31:09.111000'
g103
tp132
a(S'2015-04-30 13:31:09.120000'
g105
tp133
a(S'2015-04-30 13:31:09.125000'
S'data saved as csv to C:\\Users\\Jbarrett\\Charlie\\charlie\\data\\csv\\4380_face_memory_delay.csv'
tp134
a(S'2015-04-30 13:31:10.653000'
g103
tp135
a(S'2015-04-30 13:31:10.662000'
g105
tp136
a(S'2015-04-30 13:31:10.664000'
S'data saved as csv to C:\\Users\\Jbarrett\\Charlie\\charlie\\data\\csv\\4380_face_memory_delay.csv'
tp137
a(S'2015-04-30 13:31:11.790000'
g103
tp138
a(S'2015-04-30 13:31:11.799000'
g105
tp139
a(S'2015-04-30 13:31:11.803000'
S'data saved as csv to C:\\Users\\Jbarrett\\Charlie\\charlie\\data\\csv\\4380_face_memory_delay.csv'
tp140
a(S'2015-04-30 13:31:12.872000'
g103
tp141
a(S'2015-04-30 13:31:12.881000'
g105
tp142
a(S'2015-04-30 13:31:12.883000'
S'data saved as csv to C:\\Users\\Jbarrett\\Charlie\\charlie\\data\\csv\\4380_face_memory_delay.csv'
tp143
a(S'2015-04-30 13:31:14.290000'
g103
tp144
a(S'2015-04-30 13:31:14.299000'
g105
tp145
a(S'2015-04-30 13:31:14.303000'
S'data saved as csv to C:\\Users\\Jbarrett\\Charlie\\charlie\\data\\csv\\4380_face_memory_delay.csv'
tp146
a(S'2015-04-30 13:31:15.811000'
g103
tp147
a(S'2015-04-30 13:31:15.820000'
g105
tp148
a(S'2015-04-30 13:31:15.823000'
S'data saved as csv to C:\\Users\\Jbarrett\\Charlie\\charlie\\data\\csv\\4380_face_memory_delay.csv'
tp149
a(S'2015-04-30 13:31:17.141000'
g103
tp150
a(S'2015-04-30 13:31:17.150000'
g105
tp151
a(S'2015-04-30 13:31:17.154000'
S'data saved as csv to C:\\Users\\Jbarrett\\Charlie\\charlie\\data\\csv\\4380_face_memory_delay.csv'
tp152
a(S'2015-04-30 13:31:18.742000'
g103
tp153
a(S'2015-04-30 13:31:18.751000'
g105
tp154
a(S'2015-04-30 13:31:18.755000'
S'data saved as csv to C:\\Users\\Jbarrett\\Charlie\\charlie\\data\\csv\\4380_face_memory_delay.csv'
tp155
a(S'2015-04-30 13:31:20.194000'
g103
tp156
a(S'2015-04-30 13:31:20.203000'
g105
tp157
a(S'2015-04-30 13:31:20.207000'
S'data saved as csv to C:\\Users\\Jbarrett\\Charlie\\charlie\\data\\csv\\4380_face_memory_delay.csv'
tp158
a(S'2015-04-30 13:31:22.727000'
g103
tp159
a(S'2015-04-30 13:31:22.736000'
g105
tp160
a(S'2015-04-30 13:31:22.740000'
S'data saved as csv to C:\\Users\\Jbarrett\\Charlie\\charlie\\data\\csv\\4380_face_memory_delay.csv'
tp161
a(S'2015-04-30 13:31:34.710000'
g103
tp162
a(S'2015-04-30 13:31:34.719000'
g105
tp163
a(S'2015-04-30 13:31:34.723000'
S'data saved as csv to C:\\Users\\Jbarrett\\Charlie\\charlie\\data\\csv\\4380_face_memory_delay.csv'
tp164
a(S'2015-04-30 13:31:37.662000'
g103
tp165
a(S'2015-04-30 13:31:37.671000'
g105
tp166
a(S'2015-04-30 13:31:37.675000'
S'data saved as csv to C:\\Users\\Jbarrett\\Charlie\\charlie\\data\\csv\\4380_face_memory_delay.csv'
tp167
a(S'2015-04-30 13:31:41.456000'
g103
tp168
a(S'2015-04-30 13:31:41.465000'
g105
tp169
a(S'2015-04-30 13:31:41.469000'
S'data saved as csv to C:\\Users\\Jbarrett\\Charlie\\charlie\\data\\csv\\4380_face_memory_delay.csv'
tp170
a(S'2015-04-30 13:31:43.557000'
g103
tp171
a(S'2015-04-30 13:31:43.566000'
g105
tp172
a(S'2015-04-30 13:31:43.570000'
S'data saved as csv to C:\\Users\\Jbarrett\\Charlie\\charlie\\data\\csv\\4380_face_memory_delay.csv'
tp173
a(S'2015-04-30 13:31:44.969000'
g103
tp174
a(S'2015-04-30 13:31:44.978000'
g105
tp175
a(S'2015-04-30 13:31:44.982000'
S'data saved as csv to C:\\Users\\Jbarrett\\Charlie\\charlie\\data\\csv\\4380_face_memory_delay.csv'
tp176
a(S'2015-04-30 13:31:47.192000'
g103
tp177
a(S'2015-04-30 13:31:47.200000'
g105
tp178
a(S'2015-04-30 13:31:47.203000'
S'data saved as csv to C:\\Users\\Jbarrett\\Charlie\\charlie\\data\\csv\\4380_face_memory_delay.csv'
tp179
a(S'2015-04-30 13:31:48.291000'
g103
tp180
a(S'2015-04-30 13:31:48.300000'
g105
tp181
a(S'2015-04-30 13:31:48.304000'
S'data saved as csv to C:\\Users\\Jbarrett\\Charlie\\charlie\\data\\csv\\4380_face_memory_delay.csv'
tp182
a(S'2015-04-30 13:31:49.223000'
g103
tp183
a(S'2015-04-30 13:31:49.232000'
g105
tp184
a(S'2015-04-30 13:31:49.236000'
S'data saved as csv to C:\\Users\\Jbarrett\\Charlie\\charlie\\data\\csv\\4380_face_memory_delay.csv'
tp185
a(S'2015-04-30 13:31:50.725000'
g103
tp186
a(S'2015-04-30 13:31:50.734000'
g105
tp187
a(S'2015-04-30 13:31:50.738000'
S'data saved as csv to C:\\Users\\Jbarrett\\Charlie\\charlie\\data\\csv\\4380_face_memory_delay.csv'
tp188
a(S'2015-04-30 13:31:51.888000'
g103
tp189
a(S'2015-04-30 13:31:51.897000'
g105
tp190
a(S'2015-04-30 13:31:51.901000'
S'data saved as csv to C:\\Users\\Jbarrett\\Charlie\\charlie\\data\\csv\\4380_face_memory_delay.csv'
tp191
a(S'2015-04-30 13:31:53.260000'
g103
tp192
a(S'2015-04-30 13:31:53.269000'
g105
tp193
a(S'2015-04-30 13:31:53.273000'
S'data saved as csv to C:\\Users\\Jbarrett\\Charlie\\charlie\\data\\csv\\4380_face_memory_delay.csv'
tp194
a(S'2015-04-30 13:31:54.932000'
g103
tp195
a(S'2015-04-30 13:31:54.941000'
g105
tp196
a(S'2015-04-30 13:31:54.945000'
S'data saved as csv to C:\\Users\\Jbarrett\\Charlie\\charlie\\data\\csv\\4380_face_memory_delay.csv'
tp197
a(S'2015-04-30 13:31:55.974000'
g103
tp198
a(S'2015-04-30 13:31:55.983000'
g105
tp199
a(S'2015-04-30 13:31:55.987000'
S'data saved as csv to C:\\Users\\Jbarrett\\Charlie\\charlie\\data\\csv\\4380_face_memory_delay.csv'
tp200
a(S'2015-04-30 13:31:56.985000'
g103
tp201
a(S'2015-04-30 13:31:56.994000'
g105
tp202
a(S'2015-04-30 13:31:56.998000'
S'data saved as csv to C:\\Users\\Jbarrett\\Charlie\\charlie\\data\\csv\\4380_face_memory_delay.csv'
tp203
a(S'2015-04-30 13:31:58.237000'
g103
tp204
a(S'2015-04-30 13:31:58.246000'
g105
tp205
a(S'2015-04-30 13:31:58.250000'
S'data saved as csv to C:\\Users\\Jbarrett\\Charlie\\charlie\\data\\csv\\4380_face_memory_delay.csv'
tp206
a(S'2015-04-30 13:31:59.537000'
g103
tp207
a(S'2015-04-30 13:31:59.541000'
g105
tp208
a(S'2015-04-30 13:31:59.543000'
S'data saved as csv to C:\\Users\\Jbarrett\\Charlie\\charlie\\data\\csv\\4380_face_memory_delay.csv'
tp209
a(S'2015-04-30 13:32:02.220000'
g103
tp210
a(S'2015-04-30 13:32:02.229000'
g105
tp211
a(S'2015-04-30 13:32:02.233000'
S'data saved as csv to C:\\Users\\Jbarrett\\Charlie\\charlie\\data\\csv\\4380_face_memory_delay.csv'
tp212
a(S'2015-04-30 13:32:03.233000'
g103
tp213
a(S'2015-04-30 13:32:03.243000'
g105
tp214
a(S'2015-04-30 13:32:03.247000'
S'data saved as csv to C:\\Users\\Jbarrett\\Charlie\\charlie\\data\\csv\\4380_face_memory_delay.csv'
tp215
a(S'2015-04-30 13:32:04.165000'
g103
tp216
a(S'2015-04-30 13:32:04.174000'
g105
tp217
a(S'2015-04-30 13:32:04.178000'
S'data saved as csv to C:\\Users\\Jbarrett\\Charlie\\charlie\\data\\csv\\4380_face_memory_delay.csv'
tp218
a(S'2015-04-30 13:32:05.438000'
g103
tp219
a(S'2015-04-30 13:32:05.447000'
g105
tp220
a(S'2015-04-30 13:32:05.451000'
S'data saved as csv to C:\\Users\\Jbarrett\\Charlie\\charlie\\data\\csv\\4380_face_memory_delay.csv'
tp221
a(S'2015-04-30 13:32:07.672000'
g103
tp222
a(S'2015-04-30 13:32:07.682000'
g105
tp223
a(S'2015-04-30 13:32:07.686000'
S'data saved as csv to C:\\Users\\Jbarrett\\Charlie\\charlie\\data\\csv\\4380_face_memory_delay.csv'
tp224
asb.