(icharlie.tools.data
Data
p1
(dp2
S'lang'
p3
S'EN'
p4
sS'control'
p5
(lp6
sS'last_updated'
p7
cdatetime
datetime
p8
(S'\x07\xdf\x04\x1e\x0f7\x08\r2\xe8'
tRp9
sS'last_opened'
p10
g8
(S'\x07\xdf\x04\x1e\x0f*\x14\x05\xef\x88'
tRp11
sS'proj_id'
p12
S'connectivity'
p13
sS'date_done'
p14
g8
(S'\x07\xdf\x04\x1e\x0f7\x08\r\x07\xf0'
tRp15
sS'test_done'
p16
I01
sS'data'
p17
(lp18
(S'4381'
p19
S'verbal_working_memory'
p20
S'forward'
p21
I0
S'629'
S'True'
p22
tp23
a(g19
g20
g21
I1
S'375'
g22
tp24
a(g19
g20
g21
I2
S'5417'
g22
tp25
a(g19
g20
g21
I3
S'8396'
g22
tp26
a(g19
g20
g21
I4
S'36925'
g22
tp27
a(g19
g20
g21
I5
S'69471'
g22
tp28
a(g19
g20
g21
I6
S'918427'
g22
tp29
a(g19
g20
g21
I7
S'635482'
g22
tp30
a(g19
g20
g21
I8
S'1285346'
S'False'
p31
tp32
a(g19
g20
g21
I9
S'2814975'
g22
tp33
a(g19
g20
g21
I10
S'38295174'
g31
tp34
a(g19
g20
g21
I11
S'59182647'
g31
tp35
a(g19
g20
S'backward'
p36
I0
S'51'
p37
g22
tp38
a(g19
g20
g36
I1
S'38'
p39
g22
tp40
a(g19
g20
g36
I2
S'493'
p41
g22
tp42
a(g19
g20
g36
I3
S'526'
p43
g22
tp44
a(g19
g20
g36
I4
S'3814'
p45
g22
tp46
a(g19
g20
g36
I5
S'1795'
p47
g22
tp48
a(g19
g20
g36
I6
S'62972'
p49
g31
tp50
a(g19
g20
g36
I7
S'48527'
p51
g22
tp52
a(g19
g20
g36
I8
S'715286'
p53
g22
tp54
a(g19
g20
g36
I9
S'831964'
p55
g22
tp56
a(g19
g20
g36
I10
S'4739128'
p57
g22
tp58
a(g19
g20
g36
I11
S'8129365'
p59
g22
tp60
a(g19
g20
S'practice'
p61
I0
S'6F'
p62
g22
tp63
a(g19
g20
g61
I1
S'G4'
p64
g22
tp65
a(g19
g20
g61
I2
S'3W5'
p66
g22
tp67
a(g19
g20
g61
I3
S'T7L'
p68
g22
tp69
a(g19
g20
g61
I4
S'6GA2'
p70
g22
tp71
a(g19
g20
g61
I5
S'9PF4'
p72
g22
tp73
a(g19
g20
S'digit letter'
p74
I0
S'L2'
p75
g22
tp76
a(g19
g20
g74
I1
S'6P'
p77
g22
tp78
a(g19
g20
g74
I2
S'B5'
p79
g22
tp80
a(g19
g20
g74
I3
S'F7L'
p81
g31
tp82
a(g19
g20
g74
I4
S'R4D'
p83
g22
tp84
a(g19
g20
g74
I5
S'H18'
p85
g22
tp86
a(g19
g20
g74
I6
S'T9A3'
p87
g22
tp88
a(g19
g20
g74
I7
S'V1J5'
p89
g22
tp90
a(g19
g20
g74
I8
S'7N4L'
p91
g22
tp92
a(g19
g20
g74
I9
S'8D6G1'
p93
g31
tp94
a(g19
g20
g74
I10
S'K2C7S'
p95
g22
tp96
a(g19
g20
g74
I11
S'5P3Y9'
p97
g22
tp98
a(g19
g20
g74
I12
S'M4E7Q2'
p99
g31
tp100
a(g19
g20
g74
I13
S'W8H5F3'
p101
g22
tp102
a(g19
g20
g74
I14
S'6G9A2S'
p103
g22
tp104
a(g19
g20
g74
I15
S'R3B4Z1C'
p105
g31
tp106
a(g19
g20
g74
I16
S'5T9J2X7'
p107
g31
tp108
a(g19
g20
g74
I17
S'E1H8R4D'
p109
g31
tp110
asS'output_format'
p111
(lp112
(S'proband_id'
p113
c__builtin__
str
p114
tp115
a(S'test_name'
p116
g114
tp117
a(S'phase'
p118
g114
tp119
a(S'trialn'
p120
c__builtin__
int
p121
tp122
a(S'sequence'
p123
g114
tp124
a(S'rsp'
p125
g114
tp126
asg113
g19
sS'filename'
p127
S'4381_verbal_working_memory.data'
p128
sS'initialised'
p129
g8
(S'\x07\xdf\x04\x1e\x0f*\x14\x05\xef\x88'
tRp130
sS'last_udated'
p131
g8
(S'\x07\xdf\x04\x1e\x0f*\x14\x05\xef\x88'
tRp132
sg116
S'verbal_working_memory'
p133
sS'directory'
p134
S'c:\\Charlie\\charlie\\data\\raw'
p135
sS'user_id'
p136
S'sbuccheri'
p137
sS'test_started'
p138
I01
sS'abs_filename'
p139
S'c:\\Charlie\\charlie\\data\\raw\\4381_verbal_working_memory.data'
p140
sS'date_started'
p141
g8
(S'\x07\xdf\x04\x1e\x0f*8\x0428'
tRp142
sS'log'
p143
(lp144
(S'2015-04-30 15:42:20.389000'
S'instance created'
p145
tp146
a(S'2015-04-30 15:42:56.287000'
S'instance updated'
p147
tp148
a(S'2015-04-30 15:42:56.294000'
S'pandas DataFrame of data created'
p149
tp150
a(S'2015-04-30 15:42:56.301000'
S'data saved as csv to c:\\Charlie\\charlie\\data\\csv\\4381_verbal_working_memory.csv'
tp151
a(S'2015-04-30 15:42:59.707000'
g147
tp152
a(S'2015-04-30 15:42:59.713000'
g149
tp153
a(S'2015-04-30 15:42:59.717000'
S'data saved as csv to c:\\Charlie\\charlie\\data\\csv\\4381_verbal_working_memory.csv'
tp154
a(S'2015-04-30 15:43:03.690000'
g147
tp155
a(S'2015-04-30 15:43:03.697000'
g149
tp156
a(S'2015-04-30 15:43:03.700000'
S'data saved as csv to c:\\Charlie\\charlie\\data\\csv\\4381_verbal_working_memory.csv'
tp157
a(S'2015-04-30 15:43:08.658000'
g147
tp158
a(S'2015-04-30 15:43:08.665000'
g149
tp159
a(S'2015-04-30 15:43:08.668000'
S'data saved as csv to c:\\Charlie\\charlie\\data\\csv\\4381_verbal_working_memory.csv'
tp160
a(S'2015-04-30 15:43:14.770000'
g147
tp161
a(S'2015-04-30 15:43:14.776000'
g149
tp162
a(S'2015-04-30 15:43:14.780000'
S'data saved as csv to c:\\Charlie\\charlie\\data\\csv\\4381_verbal_working_memory.csv'
tp163
a(S'2015-04-30 15:43:20.066000'
g147
tp164
a(S'2015-04-30 15:43:20.072000'
g149
tp165
a(S'2015-04-30 15:43:20.076000'
S'data saved as csv to c:\\Charlie\\charlie\\data\\csv\\4381_verbal_working_memory.csv'
tp166
a(S'2015-04-30 15:43:26.097000'
g147
tp167
a(S'2015-04-30 15:43:26.104000'
g149
tp168
a(S'2015-04-30 15:43:26.108000'
S'data saved as csv to c:\\Charlie\\charlie\\data\\csv\\4381_verbal_working_memory.csv'
tp169
a(S'2015-04-30 15:43:32.953000'
g147
tp170
a(S'2015-04-30 15:43:32.960000'
g149
tp171
a(S'2015-04-30 15:43:32.963000'
S'data saved as csv to c:\\Charlie\\charlie\\data\\csv\\4381_verbal_working_memory.csv'
tp172
a(S'2015-04-30 15:43:42.401000'
g147
tp173
a(S'2015-04-30 15:43:42.407000'
g149
tp174
a(S'2015-04-30 15:43:42.411000'
S'data saved as csv to c:\\Charlie\\charlie\\data\\csv\\4381_verbal_working_memory.csv'
tp175
a(S'2015-04-30 15:43:51.216000'
g147
tp176
a(S'2015-04-30 15:43:51.223000'
g149
tp177
a(S'2015-04-30 15:43:51.226000'
S'data saved as csv to c:\\Charlie\\charlie\\data\\csv\\4381_verbal_working_memory.csv'
tp178
a(S'2015-04-30 15:44:05.048000'
g147
tp179
a(S'2015-04-30 15:44:05.054000'
g149
tp180
a(S'2015-04-30 15:44:05.058000'
S'data saved as csv to c:\\Charlie\\charlie\\data\\csv\\4381_verbal_working_memory.csv'
tp181
a(S'2015-04-30 15:44:18.551000'
g147
tp182
a(S'2015-04-30 15:44:18.558000'
g149
tp183
a(S'2015-04-30 15:44:18.562000'
S'data saved as csv to c:\\Charlie\\charlie\\data\\csv\\4381_verbal_working_memory.csv'
tp184
a(S'2015-04-30 15:44:39.613000'
g147
tp185
a(S'2015-04-30 15:44:39.620000'
g149
tp186
a(S'2015-04-30 15:44:39.624000'
S'data saved as csv to c:\\Charlie\\charlie\\data\\csv\\4381_verbal_working_memory.csv'
tp187
a(S'2015-04-30 15:44:42.781000'
g147
tp188
a(S'2015-04-30 15:44:42.788000'
g149
tp189
a(S'2015-04-30 15:44:42.792000'
S'data saved as csv to c:\\Charlie\\charlie\\data\\csv\\4381_verbal_working_memory.csv'
tp190
a(S'2015-04-30 15:44:46.173000'
g147
tp191
a(S'2015-04-30 15:44:46.180000'
g149
tp192
a(S'2015-04-30 15:44:46.183000'
S'data saved as csv to c:\\Charlie\\charlie\\data\\csv\\4381_verbal_working_memory.csv'
tp193
a(S'2015-04-30 15:44:50.581000'
g147
tp194
a(S'2015-04-30 15:44:50.587000'
g149
tp195
a(S'2015-04-30 15:44:50.591000'
S'data saved as csv to c:\\Charlie\\charlie\\data\\csv\\4381_verbal_working_memory.csv'
tp196
a(S'2015-04-30 15:44:55.549000'
g147
tp197
a(S'2015-04-30 15:44:55.555000'
g149
tp198
a(S'2015-04-30 15:44:55.559000'
S'data saved as csv to c:\\Charlie\\charlie\\data\\csv\\4381_verbal_working_memory.csv'
tp199
a(S'2015-04-30 15:45:02.651000'
g147
tp200
a(S'2015-04-30 15:45:02.658000'
g149
tp201
a(S'2015-04-30 15:45:02.662000'
S'data saved as csv to c:\\Charlie\\charlie\\data\\csv\\4381_verbal_working_memory.csv'
tp202
a(S'2015-04-30 15:45:29.602000'
g147
tp203
a(S'2015-04-30 15:45:29.609000'
g149
tp204
a(S'2015-04-30 15:45:29.613000'
S'data saved as csv to c:\\Charlie\\charlie\\data\\csv\\4381_verbal_working_memory.csv'
tp205
a(S'2015-04-30 15:45:44.737000'
g147
tp206
a(S'2015-04-30 15:45:44.744000'
g149
tp207
a(S'2015-04-30 15:45:44.748000'
S'data saved as csv to c:\\Charlie\\charlie\\data\\csv\\4381_verbal_working_memory.csv'
tp208
a(S'2015-04-30 15:45:54.081000'
g147
tp209
a(S'2015-04-30 15:45:54.087000'
g149
tp210
a(S'2015-04-30 15:45:54.091000'
S'data saved as csv to c:\\Charlie\\charlie\\data\\csv\\4381_verbal_working_memory.csv'
tp211
a(S'2015-04-30 15:46:06.896000'
g147
tp212
a(S'2015-04-30 15:46:06.903000'
g149
tp213
a(S'2015-04-30 15:46:06.906000'
S'data saved as csv to c:\\Charlie\\charlie\\data\\csv\\4381_verbal_working_memory.csv'
tp214
a(S'2015-04-30 15:46:33.214000'
g147
tp215
a(S'2015-04-30 15:46:33.221000'
g149
tp216
a(S'2015-04-30 15:46:33.225000'
S'data saved as csv to c:\\Charlie\\charlie\\data\\csv\\4381_verbal_working_memory.csv'
tp217
a(S'2015-04-30 15:47:04.652000'
g147
tp218
a(S'2015-04-30 15:47:04.658000'
g149
tp219
a(S'2015-04-30 15:47:04.662000'
S'data saved as csv to c:\\Charlie\\charlie\\data\\csv\\4381_verbal_working_memory.csv'
tp220
a(S'2015-04-30 15:47:59.745000'
g147
tp221
a(S'2015-04-30 15:47:59.751000'
g149
tp222
a(S'2015-04-30 15:47:59.755000'
S'data saved as csv to c:\\Charlie\\charlie\\data\\csv\\4381_verbal_working_memory.csv'
tp223
a(S'2015-04-30 15:48:02.520000'
g147
tp224
a(S'2015-04-30 15:48:02.527000'
g149
tp225
a(S'2015-04-30 15:48:02.531000'
S'data saved as csv to c:\\Charlie\\charlie\\data\\csv\\4381_verbal_working_memory.csv'
tp226
a(S'2015-04-30 15:48:06.640000'
g147
tp227
a(S'2015-04-30 15:48:06.647000'
g149
tp228
a(S'2015-04-30 15:48:06.650000'
S'data saved as csv to c:\\Charlie\\charlie\\data\\csv\\4381_verbal_working_memory.csv'
tp229
a(S'2015-04-30 15:48:13.592000'
g147
tp230
a(S'2015-04-30 15:48:13.599000'
g149
tp231
a(S'2015-04-30 15:48:13.603000'
S'data saved as csv to c:\\Charlie\\charlie\\data\\csv\\4381_verbal_working_memory.csv'
tp232
a(S'2015-04-30 15:48:28.815000'
g147
tp233
a(S'2015-04-30 15:48:28.822000'
g149
tp234
a(S'2015-04-30 15:48:28.826000'
S'data saved as csv to c:\\Charlie\\charlie\\data\\csv\\4381_verbal_working_memory.csv'
tp235
a(S'2015-04-30 15:48:46.732000'
g147
tp236
a(S'2015-04-30 15:48:46.736000'
g149
tp237
a(S'2015-04-30 15:48:46.738000'
S'data saved as csv to c:\\Charlie\\charlie\\data\\csv\\4381_verbal_working_memory.csv'
tp238
a(S'2015-04-30 15:48:57.469000'
g147
tp239
a(S'2015-04-30 15:48:57.476000'
g149
tp240
a(S'2015-04-30 15:48:57.480000'
S'data saved as csv to c:\\Charlie\\charlie\\data\\csv\\4381_verbal_working_memory.csv'
tp241
a(S'2015-04-30 15:49:01.308000'
g147
tp242
a(S'2015-04-30 15:49:01.315000'
g149
tp243
a(S'2015-04-30 15:49:01.319000'
S'data saved as csv to c:\\Charlie\\charlie\\data\\csv\\4381_verbal_working_memory.csv'
tp244
a(S'2015-04-30 15:49:04.316000'
g147
tp245
a(S'2015-04-30 15:49:04.323000'
g149
tp246
a(S'2015-04-30 15:49:04.327000'
S'data saved as csv to c:\\Charlie\\charlie\\data\\csv\\4381_verbal_working_memory.csv'
tp247
a(S'2015-04-30 15:49:10.340000'
g147
tp248
a(S'2015-04-30 15:49:10.347000'
g149
tp249
a(S'2015-04-30 15:49:10.350000'
S'data saved as csv to c:\\Charlie\\charlie\\data\\csv\\4381_verbal_working_memory.csv'
tp250
a(S'2015-04-30 15:49:16.148000'
g147
tp251
a(S'2015-04-30 15:49:16.154000'
g149
tp252
a(S'2015-04-30 15:49:16.158000'
S'data saved as csv to c:\\Charlie\\charlie\\data\\csv\\4381_verbal_working_memory.csv'
tp253
a(S'2015-04-30 15:49:22.931000'
g147
tp254
a(S'2015-04-30 15:49:22.938000'
g149
tp255
a(S'2015-04-30 15:49:22.942000'
S'data saved as csv to c:\\Charlie\\charlie\\data\\csv\\4381_verbal_working_memory.csv'
tp256
a(S'2015-04-30 15:49:33.811000'
g147
tp257
a(S'2015-04-30 15:49:33.818000'
g149
tp258
a(S'2015-04-30 15:49:33.821000'
S'data saved as csv to c:\\Charlie\\charlie\\data\\csv\\4381_verbal_working_memory.csv'
tp259
a(S'2015-04-30 15:49:42.378000'
g147
tp260
a(S'2015-04-30 15:49:42.385000'
g149
tp261
a(S'2015-04-30 15:49:42.389000'
S'data saved as csv to c:\\Charlie\\charlie\\data\\csv\\4381_verbal_working_memory.csv'
tp262
a(S'2015-04-30 15:49:50.098000'
g147
tp263
a(S'2015-04-30 15:49:50.105000'
g149
tp264
a(S'2015-04-30 15:49:50.109000'
S'data saved as csv to c:\\Charlie\\charlie\\data\\csv\\4381_verbal_working_memory.csv'
tp265
a(S'2015-04-30 15:50:15.809000'
g147
tp266
a(S'2015-04-30 15:50:15.815000'
g149
tp267
a(S'2015-04-30 15:50:15.819000'
S'data saved as csv to c:\\Charlie\\charlie\\data\\csv\\4381_verbal_working_memory.csv'
tp268
a(S'2015-04-30 15:50:34.487000'
g147
tp269
a(S'2015-04-30 15:50:34.494000'
g149
tp270
a(S'2015-04-30 15:50:34.498000'
S'data saved as csv to c:\\Charlie\\charlie\\data\\csv\\4381_verbal_working_memory.csv'
tp271
a(S'2015-04-30 15:51:06.622000'
g147
tp272
a(S'2015-04-30 15:51:06.629000'
g149
tp273
a(S'2015-04-30 15:51:06.633000'
S'data saved as csv to c:\\Charlie\\charlie\\data\\csv\\4381_verbal_working_memory.csv'
tp274
a(S'2015-04-30 15:51:26.140000'
g147
tp275
a(S'2015-04-30 15:51:26.148000'
g149
tp276
a(S'2015-04-30 15:51:26.151000'
S'data saved as csv to c:\\Charlie\\charlie\\data\\csv\\4381_verbal_working_memory.csv'
tp277
a(S'2015-04-30 15:51:50.603000'
g147
tp278
a(S'2015-04-30 15:51:50.610000'
g149
tp279
a(S'2015-04-30 15:51:50.614000'
S'data saved as csv to c:\\Charlie\\charlie\\data\\csv\\4381_verbal_working_memory.csv'
tp280
a(S'2015-04-30 15:52:07.490000'
g147
tp281
a(S'2015-04-30 15:52:07.497000'
g149
tp282
a(S'2015-04-30 15:52:07.501000'
S'data saved as csv to c:\\Charlie\\charlie\\data\\csv\\4381_verbal_working_memory.csv'
tp283
a(S'2015-04-30 15:53:10.886000'
g147
tp284
a(S'2015-04-30 15:53:10.892000'
g149
tp285
a(S'2015-04-30 15:53:10.896000'
S'data saved as csv to c:\\Charlie\\charlie\\data\\csv\\4381_verbal_working_memory.csv'
tp286
a(S'2015-04-30 15:54:00.643000'
g147
tp287
a(S'2015-04-30 15:54:00.650000'
g149
tp288
a(S'2015-04-30 15:54:00.654000'
S'data saved as csv to c:\\Charlie\\charlie\\data\\csv\\4381_verbal_working_memory.csv'
tp289
a(S'2015-04-30 15:55:08.854000'
g147
tp290
a(S'2015-04-30 15:55:08.861000'
g149
tp291
a(S'2015-04-30 15:55:08.865000'
S'data saved as csv to c:\\Charlie\\charlie\\data\\csv\\4381_verbal_working_memory.csv'
tp292
asb.