(icharlie.tools.data
Data
p1
(dp2
S'lang'
p3
S'EN'
p4
sS'control'
p5
(lp6
sS'last_updated'
p7
cdatetime
datetime
p8
(S'\x07\xdf\x04\x1e\x0f\x161\r\xa8\x18'
tRp9
sS'last_opened'
p10
g8
(S'\x07\xdf\x04\x1e\x0f\x13:\x08\xc20'
tRp11
sS'proj_id'
p12
S'connectivity'
p13
sS'date_done'
p14
NsS'test_done'
p15
I01
sS'data'
p16
(lp17
(S'4381'
p18
S'stroop'
p19
S'practice'
p20
I0
S'n/a'
p21
S'c:\\Charlie\\charlie\\stimuli\\visual\\stroop\\prac_1.png'
S'Right'
p22
g22
I4160
tp23
a(g18
g19
g20
I1
g21
S'c:\\Charlie\\charlie\\stimuli\\visual\\stroop\\prac_2.png'
S'Left'
p24
g24
I790
tp25
a(g18
g19
g20
I2
g21
S'c:\\Charlie\\charlie\\stimuli\\visual\\stroop\\prac_3.png'
g22
g22
I620
tp26
a(g18
g19
g20
I3
g21
S'c:\\Charlie\\charlie\\stimuli\\visual\\stroop\\prac_4.png'
g22
g22
I610
tp27
a(g18
g19
S'test'
p28
I0
S'Incongruent'
p29
S'c:\\Charlie\\charlie\\stimuli\\visual\\stroop\\6-Incongruent.png'
g24
g24
I1030
tp30
a(g18
g19
g28
I1
S'Congruent'
p31
S'c:\\Charlie\\charlie\\stimuli\\visual\\stroop\\30-Congruent.png'
g24
g24
I940
tp32
a(g18
g19
g28
I2
g31
S'c:\\Charlie\\charlie\\stimuli\\visual\\stroop\\3-Congruent.png'
g22
g22
I891
tp33
a(g18
g19
g28
I3
g29
S'c:\\Charlie\\charlie\\stimuli\\visual\\stroop\\23-Incongruent.png'
g24
g24
I800
tp34
a(g18
g19
g28
I4
g31
S'c:\\Charlie\\charlie\\stimuli\\visual\\stroop\\39-Congruent.png'
g24
g24
I670
tp35
a(g18
g19
g28
I5
g31
S'c:\\Charlie\\charlie\\stimuli\\visual\\stroop\\45-Congruent.png'
g24
g24
I610
tp36
a(g18
g19
g28
I6
g29
S'c:\\Charlie\\charlie\\stimuli\\visual\\stroop\\31-Incongruent.png'
g22
g22
I1800
tp37
a(g18
g19
g28
I7
g29
S'c:\\Charlie\\charlie\\stimuli\\visual\\stroop\\28-Incongruent.png'
g24
g24
I720
tp38
a(g18
g19
g28
I8
g31
S'c:\\Charlie\\charlie\\stimuli\\visual\\stroop\\31-Congruent.png'
g24
g24
I660
tp39
a(g18
g19
g28
I9
g31
S'c:\\Charlie\\charlie\\stimuli\\visual\\stroop\\10-Congruent.png'
g22
g22
I570
tp40
a(g18
g19
g28
I10
g29
S'c:\\Charlie\\charlie\\stimuli\\visual\\stroop\\10-Incongruent.png'
g24
g24
I1910
tp41
a(g18
g19
g28
I11
g29
S'c:\\Charlie\\charlie\\stimuli\\visual\\stroop\\24-Incongruent.png'
g24
g24
I890
tp42
a(g18
g19
g28
I12
g31
S'c:\\Charlie\\charlie\\stimuli\\visual\\stroop\\34-Congruent.png'
g24
g24
I700
tp43
a(g18
g19
g28
I13
g31
S'c:\\Charlie\\charlie\\stimuli\\visual\\stroop\\38-Congruent.png'
g24
g24
I680
tp44
a(g18
g19
g28
I14
g31
S'c:\\Charlie\\charlie\\stimuli\\visual\\stroop\\42-Congruent.png'
g24
g24
I680
tp45
a(g18
g19
g28
I15
g31
S'c:\\Charlie\\charlie\\stimuli\\visual\\stroop\\17-Congruent.png'
g22
g22
I630
tp46
a(g18
g19
g28
I16
g29
S'c:\\Charlie\\charlie\\stimuli\\visual\\stroop\\42-Incongruent.png'
g22
g22
I1110
tp47
a(g18
g19
g28
I17
g29
S'c:\\Charlie\\charlie\\stimuli\\visual\\stroop\\36-Incongruent.png'
g22
g22
I670
tp48
a(g18
g19
g28
I18
g29
S'c:\\Charlie\\charlie\\stimuli\\visual\\stroop\\43-Incongruent.png'
g22
g22
I1080
tp49
a(g18
g19
g28
I19
g31
S'c:\\Charlie\\charlie\\stimuli\\visual\\stroop\\49-Congruent.png'
g24
g24
I591
tp50
a(g18
g19
g28
I20
g31
S'c:\\Charlie\\charlie\\stimuli\\visual\\stroop\\43-Congruent.png'
g24
g24
I590
tp51
a(g18
g19
g28
I21
g29
S'c:\\Charlie\\charlie\\stimuli\\visual\\stroop\\15-Incongruent.png'
g24
g24
I570
tp52
a(g18
g19
g28
I22
g29
S'c:\\Charlie\\charlie\\stimuli\\visual\\stroop\\35-Incongruent.png'
g22
g22
I730
tp53
a(g18
g19
g28
I23
g29
S'c:\\Charlie\\charlie\\stimuli\\visual\\stroop\\44-Incongruent.png'
g22
g22
I1460
tp54
a(g18
g19
g28
I24
g29
S'c:\\Charlie\\charlie\\stimuli\\visual\\stroop\\47-Incongruent.png'
g22
g22
I760
tp55
a(g18
g19
g28
I25
g29
S'c:\\Charlie\\charlie\\stimuli\\visual\\stroop\\40-Incongruent.png'
g22
g22
I580
tp56
a(g18
g19
g28
I26
g29
S'c:\\Charlie\\charlie\\stimuli\\visual\\stroop\\25-Incongruent.png'
g24
g24
I640
tp57
a(g18
g19
g28
I27
g29
S'c:\\Charlie\\charlie\\stimuli\\visual\\stroop\\27-Incongruent.png'
g24
g24
I640
tp58
a(g18
g19
g28
I28
g29
S'c:\\Charlie\\charlie\\stimuli\\visual\\stroop\\56-Incongruent.png'
g22
g22
I1010
tp59
a(g18
g19
g28
I29
g31
S'c:\\Charlie\\charlie\\stimuli\\visual\\stroop\\2-Congruent.png'
g22
g22
I580
tp60
a(g18
g19
g28
I30
g29
S'c:\\Charlie\\charlie\\stimuli\\visual\\stroop\\17-Incongruent.png'
g24
g24
I560
tp61
a(g18
g19
g28
I31
g31
S'c:\\Charlie\\charlie\\stimuli\\visual\\stroop\\12-Congruent.png'
g22
g22
I540
tp62
a(g18
g19
g28
I32
g29
S'c:\\Charlie\\charlie\\stimuli\\visual\\stroop\\12-Incongruent.png'
g24
g24
I1000
tp63
a(g18
g19
g28
I33
g29
S'c:\\Charlie\\charlie\\stimuli\\visual\\stroop\\26-Incongruent.png'
g24
g24
I840
tp64
a(g18
g19
g28
I34
g31
S'c:\\Charlie\\charlie\\stimuli\\visual\\stroop\\19-Congruent.png'
g22
g22
I690
tp65
a(g18
g19
g28
I35
g31
S'c:\\Charlie\\charlie\\stimuli\\visual\\stroop\\23-Congruent.png'
g22
g22
I900
tp66
a(g18
g19
g28
I36
g31
S'c:\\Charlie\\charlie\\stimuli\\visual\\stroop\\35-Congruent.png'
g24
g24
I740
tp67
a(g18
g19
g28
I37
g31
S'c:\\Charlie\\charlie\\stimuli\\visual\\stroop\\46-Congruent.png'
g24
g24
I610
tp68
a(g18
g19
g28
I38
g29
S'c:\\Charlie\\charlie\\stimuli\\visual\\stroop\\8-Incongruent.png'
g24
g24
I730
tp69
a(g18
g19
g28
I39
g31
S'c:\\Charlie\\charlie\\stimuli\\visual\\stroop\\29-Congruent.png'
g24
g24
I641
tp70
a(g18
g19
g28
I40
g31
S'c:\\Charlie\\charlie\\stimuli\\visual\\stroop\\14-Congruent.png'
g22
g22
I570
tp71
a(g18
g19
g28
I41
g31
S'c:\\Charlie\\charlie\\stimuli\\visual\\stroop\\33-Congruent.png'
g24
g24
I570
tp72
a(g18
g19
g28
I42
g29
S'c:\\Charlie\\charlie\\stimuli\\visual\\stroop\\13-Incongruent.png'
g24
g24
I560
tp73
a(g18
g19
g28
I43
g29
S'c:\\Charlie\\charlie\\stimuli\\visual\\stroop\\55-Incongruent.png'
g22
g22
I820
tp74
a(g18
g19
g28
I44
g31
S'c:\\Charlie\\charlie\\stimuli\\visual\\stroop\\54-Congruent.png'
g24
g24
I620
tp75
a(g18
g19
g28
I45
g31
S'c:\\Charlie\\charlie\\stimuli\\visual\\stroop\\8-Congruent.png'
g22
g22
I590
tp76
a(g18
g19
g28
I46
g31
S'c:\\Charlie\\charlie\\stimuli\\visual\\stroop\\13-Congruent.png'
g22
g22
I570
tp77
a(g18
g19
g28
I47
g31
S'c:\\Charlie\\charlie\\stimuli\\visual\\stroop\\40-Congruent.png'
g24
g24
I560
tp78
a(g18
g19
g28
I48
g29
S'c:\\Charlie\\charlie\\stimuli\\visual\\stroop\\9-Incongruent.png'
g24
g24
I1060
tp79
a(g18
g19
g28
I49
g31
S'c:\\Charlie\\charlie\\stimuli\\visual\\stroop\\50-Congruent.png'
g24
g24
I600
tp80
a(g18
g19
g28
I50
g31
S'c:\\Charlie\\charlie\\stimuli\\visual\\stroop\\5-Congruent.png'
g22
g22
I760
tp81
a(g18
g19
g28
I51
g29
S'c:\\Charlie\\charlie\\stimuli\\visual\\stroop\\5-Incongruent.png'
g24
g24
I660
tp82
a(g18
g19
g28
I52
g29
S'c:\\Charlie\\charlie\\stimuli\\visual\\stroop\\53-Incongruent.png'
g22
g22
I910
tp83
a(g18
g19
g28
I53
g29
S'c:\\Charlie\\charlie\\stimuli\\visual\\stroop\\1-Incongruent.png'
g24
g24
I600
tp84
a(g18
g19
g28
I54
g31
S'c:\\Charlie\\charlie\\stimuli\\visual\\stroop\\28-Congruent.png'
g22
g22
I580
tp85
a(g18
g19
g28
I55
g29
S'c:\\Charlie\\charlie\\stimuli\\visual\\stroop\\34-Incongruent.png'
g22
g22
I1220
tp86
a(g18
g19
g28
I56
g29
S'c:\\Charlie\\charlie\\stimuli\\visual\\stroop\\20-Incongruent.png'
g24
g24
I1300
tp87
a(g18
g19
g28
I57
g29
S'c:\\Charlie\\charlie\\stimuli\\visual\\stroop\\38-Incongruent.png'
g22
g22
I1110
tp88
a(g18
g19
g28
I58
g29
S'c:\\Charlie\\charlie\\stimuli\\visual\\stroop\\32-Incongruent.png'
g22
g22
I1111
tp89
a(g18
g19
g28
I59
g31
S'c:\\Charlie\\charlie\\stimuli\\visual\\stroop\\9-Congruent.png'
g22
g22
I500
tp90
a(g18
g19
g28
I60
g31
S'c:\\Charlie\\charlie\\stimuli\\visual\\stroop\\55-Congruent.png'
g24
g24
I670
tp91
a(g18
g19
g28
I61
g29
S'c:\\Charlie\\charlie\\stimuli\\visual\\stroop\\33-Incongruent.png'
g22
g22
I1000
tp92
a(g18
g19
g28
I62
g29
S'c:\\Charlie\\charlie\\stimuli\\visual\\stroop\\49-Incongruent.png'
g22
g22
I1380
tp93
a(g18
g19
g28
I63
g31
S'c:\\Charlie\\charlie\\stimuli\\visual\\stroop\\4-Congruent.png'
g22
g22
I560
tp94
a(g18
g19
g28
I64
g31
S'c:\\Charlie\\charlie\\stimuli\\visual\\stroop\\6-Congruent.png'
g22
g22
I1110
tp95
a(g18
g19
g28
I65
g31
S'c:\\Charlie\\charlie\\stimuli\\visual\\stroop\\48-Congruent.png'
g24
g24
I620
tp96
a(g18
g19
g28
I66
g31
S'c:\\Charlie\\charlie\\stimuli\\visual\\stroop\\52-Congruent.png'
g24
g24
I630
tp97
a(g18
g19
g28
I67
g31
S'c:\\Charlie\\charlie\\stimuli\\visual\\stroop\\51-Congruent.png'
g24
g24
I590
tp98
a(g18
g19
g28
I68
g31
S'c:\\Charlie\\charlie\\stimuli\\visual\\stroop\\16-Congruent.png'
g22
g22
I700
tp99
a(g18
g19
g28
I69
g31
S'c:\\Charlie\\charlie\\stimuli\\visual\\stroop\\24-Congruent.png'
g22
g22
I530
tp100
a(g18
g19
g28
I70
g29
S'c:\\Charlie\\charlie\\stimuli\\visual\\stroop\\41-Incongruent.png'
g22
g22
I750
tp101
a(g18
g19
g28
I71
g29
S'c:\\Charlie\\charlie\\stimuli\\visual\\stroop\\48-Incongruent.png'
g22
g22
I910
tp102
a(g18
g19
g28
I72
g29
S'c:\\Charlie\\charlie\\stimuli\\visual\\stroop\\4-Incongruent.png'
g24
g24
I820
tp103
a(g18
g19
g28
I73
g29
S'c:\\Charlie\\charlie\\stimuli\\visual\\stroop\\54-Incongruent.png'
g22
g22
I810
tp104
a(g18
g19
g28
I74
g29
S'c:\\Charlie\\charlie\\stimuli\\visual\\stroop\\39-Incongruent.png'
g22
g22
I850
tp105
a(g18
g19
g28
I75
g31
S'c:\\Charlie\\charlie\\stimuli\\visual\\stroop\\56-Congruent.png'
g24
g24
I590
tp106
a(g18
g19
g28
I76
g29
S'c:\\Charlie\\charlie\\stimuli\\visual\\stroop\\46-Incongruent.png'
g22
g22
I1321
tp107
a(g18
g19
g28
I77
g31
S'c:\\Charlie\\charlie\\stimuli\\visual\\stroop\\22-Congruent.png'
g22
g22
I470
tp108
a(g18
g19
g28
I78
g29
S'c:\\Charlie\\charlie\\stimuli\\visual\\stroop\\21-Incongruent.png'
g24
g24
I1200
tp109
a(g18
g19
g28
I79
g29
S'c:\\Charlie\\charlie\\stimuli\\visual\\stroop\\37-Incongruent.png'
g22
g22
I1250
tp110
a(g18
g19
g28
I80
g29
S'c:\\Charlie\\charlie\\stimuli\\visual\\stroop\\2-Incongruent.png'
g24
g24
I1120
tp111
a(g18
g19
g28
I81
g31
S'c:\\Charlie\\charlie\\stimuli\\visual\\stroop\\21-Congruent.png'
g22
g22
I570
tp112
a(g18
g19
g28
I82
g29
S'c:\\Charlie\\charlie\\stimuli\\visual\\stroop\\7-Incongruent.png'
g24
g24
I890
tp113
a(g18
g19
g28
I83
g31
S'c:\\Charlie\\charlie\\stimuli\\visual\\stroop\\20-Congruent.png'
g22
g22
I510
tp114
a(g18
g19
g28
I84
g31
S'c:\\Charlie\\charlie\\stimuli\\visual\\stroop\\15-Congruent.png'
g22
g22
I540
tp115
a(g18
g19
g28
I85
g31
S'c:\\Charlie\\charlie\\stimuli\\visual\\stroop\\26-Congruent.png'
g22
g22
I540
tp116
a(g18
g19
g28
I86
g29
S'c:\\Charlie\\charlie\\stimuli\\visual\\stroop\\16-Incongruent.png'
g24
g24
I830
tp117
a(g18
g19
g28
I87
g29
S'c:\\Charlie\\charlie\\stimuli\\visual\\stroop\\50-Incongruent.png'
g22
g22
I670
tp118
a(g18
g19
g28
I88
g31
S'c:\\Charlie\\charlie\\stimuli\\visual\\stroop\\41-Congruent.png'
g24
g24
I620
tp119
a(g18
g19
g28
I89
g31
S'c:\\Charlie\\charlie\\stimuli\\visual\\stroop\\25-Congruent.png'
g22
g22
I1380
tp120
a(g18
g19
g28
I90
g31
S'c:\\Charlie\\charlie\\stimuli\\visual\\stroop\\27-Congruent.png'
g22
g22
I570
tp121
a(g18
g19
g28
I91
g29
S'c:\\Charlie\\charlie\\stimuli\\visual\\stroop\\18-Incongruent.png'
g24
g24
I720
tp122
a(g18
g19
g28
I92
g29
S'c:\\Charlie\\charlie\\stimuli\\visual\\stroop\\30-Incongruent.png'
g22
g22
I780
tp123
a(g18
g19
g28
I93
g31
S'c:\\Charlie\\charlie\\stimuli\\visual\\stroop\\44-Congruent.png'
g24
g24
I550
tp124
a(g18
g19
g28
I94
g31
S'c:\\Charlie\\charlie\\stimuli\\visual\\stroop\\37-Congruent.png'
g24
g24
I640
tp125
a(g18
g19
g28
I95
g29
S'c:\\Charlie\\charlie\\stimuli\\visual\\stroop\\11-Incongruent.png'
g24
g24
I660
tp126
a(g18
g19
g28
I96
g29
S'c:\\Charlie\\charlie\\stimuli\\visual\\stroop\\29-Incongruent.png'
g22
g22
I960
tp127
a(g18
g19
g28
I97
g29
S'c:\\Charlie\\charlie\\stimuli\\visual\\stroop\\3-Incongruent.png'
g24
g24
I610
tp128
a(g18
g19
g28
I98
g31
S'c:\\Charlie\\charlie\\stimuli\\visual\\stroop\\1-Congruent.png'
g22
g22
I520
tp129
a(g18
g19
g28
I99
g29
S'c:\\Charlie\\charlie\\stimuli\\visual\\stroop\\52-Incongruent.png'
g22
g22
I1050
tp130
a(g18
g19
g28
I100
g29
S'c:\\Charlie\\charlie\\stimuli\\visual\\stroop\\14-Incongruent.png'
g24
g24
I600
tp131
a(g18
g19
g28
I101
g31
S'c:\\Charlie\\charlie\\stimuli\\visual\\stroop\\47-Congruent.png'
g24
g24
I550
tp132
a(g18
g19
g28
I102
g29
S'c:\\Charlie\\charlie\\stimuli\\visual\\stroop\\19-Incongruent.png'
g24
g24
I710
tp133
a(g18
g19
g28
I103
g31
S'c:\\Charlie\\charlie\\stimuli\\visual\\stroop\\11-Congruent.png'
g22
g22
I790
tp134
a(g18
g19
g28
I104
g29
S'c:\\Charlie\\charlie\\stimuli\\visual\\stroop\\22-Incongruent.png'
g24
g24
I650
tp135
a(g18
g19
g28
I105
g31
S'c:\\Charlie\\charlie\\stimuli\\visual\\stroop\\7-Congruent.png'
g22
g22
I600
tp136
a(g18
g19
g28
I106
g31
S'c:\\Charlie\\charlie\\stimuli\\visual\\stroop\\53-Congruent.png'
g24
g24
I560
tp137
a(g18
g19
g28
I107
g31
S'c:\\Charlie\\charlie\\stimuli\\visual\\stroop\\32-Congruent.png'
g24
g24
I710
tp138
a(g18
g19
g28
I108
g29
S'c:\\Charlie\\charlie\\stimuli\\visual\\stroop\\45-Incongruent.png'
g22
g22
I890
tp139
a(g18
g19
g28
I109
g31
S'c:\\Charlie\\charlie\\stimuli\\visual\\stroop\\36-Congruent.png'
g24
g24
I600
tp140
a(g18
g19
g28
I110
g29
S'c:\\Charlie\\charlie\\stimuli\\visual\\stroop\\51-Incongruent.png'
g22
g22
I700
tp141
a(g18
g19
g28
I111
g31
S'c:\\Charlie\\charlie\\stimuli\\visual\\stroop\\18-Congruent.png'
p142
g22
g22
I640
tp143
asS'output_format'
p144
(lp145
(S'proband_id'
p146
c__builtin__
str
p147
tp148
a(S'test_name'
p149
g147
tp150
a(S'phase'
p151
g147
tp152
a(S'trialn'
p153
c__builtin__
int
p154
tp155
a(S'cong'
p156
g147
tp157
a(S'f'
g147
tp158
a(S'ans'
p159
g147
tp160
a(S'rsp'
p161
g147
tp162
a(S'rt'
p163
g154
tp164
asg146
g18
sS'filename'
p165
S'4381_stroop.data'
p166
sS'initialised'
p167
g8
(S'\x07\xdf\x04\x1e\x0f\x13:\x08\xbeH'
tRp168
sS'last_udated'
p169
g8
(S'\x07\xdf\x04\x1e\x0f\x13:\x08\xc20'
tRp170
sg149
S'stroop'
p171
sS'directory'
p172
S'c:\\Charlie\\charlie\\data\\raw'
p173
sS'user_id'
p174
S'sbuccheri'
p175
sS'test_started'
p176
I01
sS'abs_filename'
p177
S'c:\\Charlie\\charlie\\data\\raw\\4381_stroop.data'
p178
sS'date_started'
p179
g8
(S'\x07\xdf\x04\x1e\x0f\x14,\x0b\xf2\x98'
tRp180
sS'log'
p181
(lp182
(S'2015-04-30 15:19:58.574000'
S'instance created'
p183
tp184
a(S'2015-04-30 15:20:44.797000'
S'instance updated'
p185
tp186
a(S'2015-04-30 15:20:44.806000'
S'pandas DataFrame of data created'
p187
tp188
a(S'2015-04-30 15:20:44.811000'
S'data saved as csv to c:\\Charlie\\charlie\\data\\csv\\4381_stroop.csv'
tp189
a(S'2015-04-30 15:20:46.627000'
g185
tp190
a(S'2015-04-30 15:20:46.636000'
g187
tp191
a(S'2015-04-30 15:20:46.640000'
S'data saved as csv to c:\\Charlie\\charlie\\data\\csv\\4381_stroop.csv'
tp192
a(S'2015-04-30 15:20:48.288000'
g185
tp193
a(S'2015-04-30 15:20:48.297000'
g187
tp194
a(S'2015-04-30 15:20:48.301000'
S'data saved as csv to c:\\Charlie\\charlie\\data\\csv\\4381_stroop.csv'
tp195
a(S'2015-04-30 15:20:49.939000'
g185
tp196
a(S'2015-04-30 15:20:49.949000'
g187
tp197
a(S'2015-04-30 15:20:49.953000'
S'data saved as csv to c:\\Charlie\\charlie\\data\\csv\\4381_stroop.csv'
tp198
a(S'2015-04-30 15:21:07.590000'
g185
tp199
a(S'2015-04-30 15:21:07.599000'
g187
tp200
a(S'2015-04-30 15:21:07.603000'
S'data saved as csv to c:\\Charlie\\charlie\\data\\csv\\4381_stroop.csv'
tp201
a(S'2015-04-30 15:21:08.673000'
g185
tp202
a(S'2015-04-30 15:21:08.683000'
g187
tp203
a(S'2015-04-30 15:21:08.687000'
S'data saved as csv to c:\\Charlie\\charlie\\data\\csv\\4381_stroop.csv'
tp204
a(S'2015-04-30 15:21:09.707000'
g185
tp205
a(S'2015-04-30 15:21:09.717000'
g187
tp206
a(S'2015-04-30 15:21:09.721000'
S'data saved as csv to c:\\Charlie\\charlie\\data\\csv\\4381_stroop.csv'
tp207
a(S'2015-04-30 15:21:10.652000'
g185
tp208
a(S'2015-04-30 15:21:10.661000'
g187
tp209
a(S'2015-04-30 15:21:10.665000'
S'data saved as csv to c:\\Charlie\\charlie\\data\\csv\\4381_stroop.csv'
tp210
a(S'2015-04-30 15:21:11.466000'
g185
tp211
a(S'2015-04-30 15:21:11.476000'
g187
tp212
a(S'2015-04-30 15:21:11.480000'
S'data saved as csv to c:\\Charlie\\charlie\\data\\csv\\4381_stroop.csv'
tp213
a(S'2015-04-30 15:21:12.220000'
g185
tp214
a(S'2015-04-30 15:21:12.230000'
g187
tp215
a(S'2015-04-30 15:21:12.233000'
S'data saved as csv to c:\\Charlie\\charlie\\data\\csv\\4381_stroop.csv'
tp216
a(S'2015-04-30 15:21:14.165000'
g185
tp217
a(S'2015-04-30 15:21:14.174000'
g187
tp218
a(S'2015-04-30 15:21:14.178000'
S'data saved as csv to c:\\Charlie\\charlie\\data\\csv\\4381_stroop.csv'
tp219
a(S'2015-04-30 15:21:15.030000'
g185
tp220
a(S'2015-04-30 15:21:15.039000'
g187
tp221
a(S'2015-04-30 15:21:15.043000'
S'data saved as csv to c:\\Charlie\\charlie\\data\\csv\\4381_stroop.csv'
tp222
a(S'2015-04-30 15:21:15.833000'
g185
tp223
a(S'2015-04-30 15:21:15.843000'
g187
tp224
a(S'2015-04-30 15:21:15.847000'
S'data saved as csv to c:\\Charlie\\charlie\\data\\csv\\4381_stroop.csv'
tp225
a(S'2015-04-30 15:21:16.547000'
g185
tp226
a(S'2015-04-30 15:21:16.557000'
g187
tp227
a(S'2015-04-30 15:21:16.561000'
S'data saved as csv to c:\\Charlie\\charlie\\data\\csv\\4381_stroop.csv'
tp228
a(S'2015-04-30 15:21:18.604000'
g185
tp229
a(S'2015-04-30 15:21:18.614000'
g187
tp230
a(S'2015-04-30 15:21:18.617000'
S'data saved as csv to c:\\Charlie\\charlie\\data\\csv\\4381_stroop.csv'
tp231
a(S'2015-04-30 15:21:19.637000'
g185
tp232
a(S'2015-04-30 15:21:19.646000'
g187
tp233
a(S'2015-04-30 15:21:19.650000'
S'data saved as csv to c:\\Charlie\\charlie\\data\\csv\\4381_stroop.csv'
tp234
a(S'2015-04-30 15:21:20.481000'
g185
tp235
a(S'2015-04-30 15:21:20.491000'
g187
tp236
a(S'2015-04-30 15:21:20.495000'
S'data saved as csv to c:\\Charlie\\charlie\\data\\csv\\4381_stroop.csv'
tp237
a(S'2015-04-30 15:21:21.306000'
g185
tp238
a(S'2015-04-30 15:21:21.316000'
g187
tp239
a(S'2015-04-30 15:21:21.320000'
S'data saved as csv to c:\\Charlie\\charlie\\data\\csv\\4381_stroop.csv'
tp240
a(S'2015-04-30 15:21:22.132000'
g185
tp241
a(S'2015-04-30 15:21:22.141000'
g187
tp242
a(S'2015-04-30 15:21:22.145000'
S'data saved as csv to c:\\Charlie\\charlie\\data\\csv\\4381_stroop.csv'
tp243
a(S'2015-04-30 15:21:22.906000'
g185
tp244
a(S'2015-04-30 15:21:22.915000'
g187
tp245
a(S'2015-04-30 15:21:22.919000'
S'data saved as csv to c:\\Charlie\\charlie\\data\\csv\\4381_stroop.csv'
tp246
a(S'2015-04-30 15:21:24.161000'
g185
tp247
a(S'2015-04-30 15:21:24.171000'
g187
tp248
a(S'2015-04-30 15:21:24.175000'
S'data saved as csv to c:\\Charlie\\charlie\\data\\csv\\4381_stroop.csv'
tp249
a(S'2015-04-30 15:21:24.977000'
g185
tp250
a(S'2015-04-30 15:21:24.987000'
g187
tp251
a(S'2015-04-30 15:21:24.991000'
S'data saved as csv to c:\\Charlie\\charlie\\data\\csv\\4381_stroop.csv'
tp252
a(S'2015-04-30 15:21:26.203000'
g185
tp253
a(S'2015-04-30 15:21:26.213000'
g187
tp254
a(S'2015-04-30 15:21:26.216000'
S'data saved as csv to c:\\Charlie\\charlie\\data\\csv\\4381_stroop.csv'
tp255
a(S'2015-04-30 15:21:26.938000'
g185
tp256
a(S'2015-04-30 15:21:26.948000'
g187
tp257
a(S'2015-04-30 15:21:26.952000'
S'data saved as csv to c:\\Charlie\\charlie\\data\\csv\\4381_stroop.csv'
tp258
a(S'2015-04-30 15:21:27.674000'
g185
tp259
a(S'2015-04-30 15:21:27.684000'
g187
tp260
a(S'2015-04-30 15:21:27.688000'
S'data saved as csv to c:\\Charlie\\charlie\\data\\csv\\4381_stroop.csv'
tp261
a(S'2015-04-30 15:21:28.389000'
g185
tp262
a(S'2015-04-30 15:21:28.399000'
g187
tp263
a(S'2015-04-30 15:21:28.401000'
S'data saved as csv to c:\\Charlie\\charlie\\data\\csv\\4381_stroop.csv'
tp264
a(S'2015-04-30 15:21:29.260000'
g185
tp265
a(S'2015-04-30 15:21:29.270000'
g187
tp266
a(S'2015-04-30 15:21:29.274000'
S'data saved as csv to c:\\Charlie\\charlie\\data\\csv\\4381_stroop.csv'
tp267
a(S'2015-04-30 15:21:30.866000'
g185
tp268
a(S'2015-04-30 15:21:30.876000'
g187
tp269
a(S'2015-04-30 15:21:30.881000'
S'data saved as csv to c:\\Charlie\\charlie\\data\\csv\\4381_stroop.csv'
tp270
a(S'2015-04-30 15:21:31.772000'
g185
tp271
a(S'2015-04-30 15:21:31.782000'
g187
tp272
a(S'2015-04-30 15:21:31.786000'
S'data saved as csv to c:\\Charlie\\charlie\\data\\csv\\4381_stroop.csv'
tp273
a(S'2015-04-30 15:21:32.496000'
g185
tp274
a(S'2015-04-30 15:21:32.506000'
g187
tp275
a(S'2015-04-30 15:21:32.510000'
S'data saved as csv to c:\\Charlie\\charlie\\data\\csv\\4381_stroop.csv'
tp276
a(S'2015-04-30 15:21:33.281000'
g185
tp277
a(S'2015-04-30 15:21:33.291000'
g187
tp278
a(S'2015-04-30 15:21:33.295000'
S'data saved as csv to c:\\Charlie\\charlie\\data\\csv\\4381_stroop.csv'
tp279
a(S'2015-04-30 15:21:34.067000'
g185
tp280
a(S'2015-04-30 15:21:34.077000'
g187
tp281
a(S'2015-04-30 15:21:34.081000'
S'data saved as csv to c:\\Charlie\\charlie\\data\\csv\\4381_stroop.csv'
tp282
a(S'2015-04-30 15:21:35.224000'
g185
tp283
a(S'2015-04-30 15:21:35.234000'
g187
tp284
a(S'2015-04-30 15:21:35.238000'
S'data saved as csv to c:\\Charlie\\charlie\\data\\csv\\4381_stroop.csv'
tp285
a(S'2015-04-30 15:21:35.949000'
g185
tp286
a(S'2015-04-30 15:21:35.959000'
g187
tp287
a(S'2015-04-30 15:21:35.963000'
S'data saved as csv to c:\\Charlie\\charlie\\data\\csv\\4381_stroop.csv'
tp288
a(S'2015-04-30 15:21:36.655000'
g185
tp289
a(S'2015-04-30 15:21:36.665000'
g187
tp290
a(S'2015-04-30 15:21:36.669000'
S'data saved as csv to c:\\Charlie\\charlie\\data\\csv\\4381_stroop.csv'
tp291
a(S'2015-04-30 15:21:37.341000'
g185
tp292
a(S'2015-04-30 15:21:37.351000'
g187
tp293
a(S'2015-04-30 15:21:37.355000'
S'data saved as csv to c:\\Charlie\\charlie\\data\\csv\\4381_stroop.csv'
tp294
a(S'2015-04-30 15:21:38.487000'
g185
tp295
a(S'2015-04-30 15:21:38.497000'
g187
tp296
a(S'2015-04-30 15:21:38.501000'
S'data saved as csv to c:\\Charlie\\charlie\\data\\csv\\4381_stroop.csv'
tp297
a(S'2015-04-30 15:21:39.472000'
g185
tp298
a(S'2015-04-30 15:21:39.482000'
g187
tp299
a(S'2015-04-30 15:21:39.486000'
S'data saved as csv to c:\\Charlie\\charlie\\data\\csv\\4381_stroop.csv'
tp300
a(S'2015-04-30 15:21:40.308000'
g185
tp301
a(S'2015-04-30 15:21:40.319000'
g187
tp302
a(S'2015-04-30 15:21:40.323000'
S'data saved as csv to c:\\Charlie\\charlie\\data\\csv\\4381_stroop.csv'
tp303
a(S'2015-04-30 15:21:41.340000'
g185
tp304
a(S'2015-04-30 15:21:41.342000'
g187
tp305
a(S'2015-04-30 15:21:41.344000'
S'data saved as csv to c:\\Charlie\\charlie\\data\\csv\\4381_stroop.csv'
tp306
a(S'2015-04-30 15:21:42.211000'
g185
tp307
a(S'2015-04-30 15:21:42.221000'
g187
tp308
a(S'2015-04-30 15:21:42.226000'
S'data saved as csv to c:\\Charlie\\charlie\\data\\csv\\4381_stroop.csv'
tp309
a(S'2015-04-30 15:21:42.965000'
g185
tp310
a(S'2015-04-30 15:21:42.975000'
g187
tp311
a(S'2015-04-30 15:21:42.978000'
S'data saved as csv to c:\\Charlie\\charlie\\data\\csv\\4381_stroop.csv'
tp312
a(S'2015-04-30 15:21:43.838000'
g185
tp313
a(S'2015-04-30 15:21:43.847000'
g187
tp314
a(S'2015-04-30 15:21:43.850000'
S'data saved as csv to c:\\Charlie\\charlie\\data\\csv\\4381_stroop.csv'
tp315
a(S'2015-04-30 15:21:44.619000'
g185
tp316
a(S'2015-04-30 15:21:44.630000'
g187
tp317
a(S'2015-04-30 15:21:44.634000'
S'data saved as csv to c:\\Charlie\\charlie\\data\\csv\\4381_stroop.csv'
tp318
a(S'2015-04-30 15:21:45.336000'
g185
tp319
a(S'2015-04-30 15:21:45.346000'
g187
tp320
a(S'2015-04-30 15:21:45.349000'
S'data saved as csv to c:\\Charlie\\charlie\\data\\csv\\4381_stroop.csv'
tp321
a(S'2015-04-30 15:21:46.048000'
g185
tp322
a(S'2015-04-30 15:21:46.058000'
g187
tp323
a(S'2015-04-30 15:21:46.062000'
S'data saved as csv to c:\\Charlie\\charlie\\data\\csv\\4381_stroop.csv'
tp324
a(S'2015-04-30 15:21:46.754000'
g185
tp325
a(S'2015-04-30 15:21:46.764000'
g187
tp326
a(S'2015-04-30 15:21:46.768000'
S'data saved as csv to c:\\Charlie\\charlie\\data\\csv\\4381_stroop.csv'
tp327
a(S'2015-04-30 15:21:47.721000'
g185
tp328
a(S'2015-04-30 15:21:47.731000'
g187
tp329
a(S'2015-04-30 15:21:47.735000'
S'data saved as csv to c:\\Charlie\\charlie\\data\\csv\\4381_stroop.csv'
tp330
a(S'2015-04-30 15:21:48.487000'
g185
tp331
a(S'2015-04-30 15:21:48.497000'
g187
tp332
a(S'2015-04-30 15:21:48.499000'
S'data saved as csv to c:\\Charlie\\charlie\\data\\csv\\4381_stroop.csv'
tp333
a(S'2015-04-30 15:21:49.218000'
g185
tp334
a(S'2015-04-30 15:21:49.229000'
g187
tp335
a(S'2015-04-30 15:21:49.233000'
S'data saved as csv to c:\\Charlie\\charlie\\data\\csv\\4381_stroop.csv'
tp336
a(S'2015-04-30 15:21:49.935000'
g185
tp337
a(S'2015-04-30 15:21:49.946000'
g187
tp338
a(S'2015-04-30 15:21:49.950000'
S'data saved as csv to c:\\Charlie\\charlie\\data\\csv\\4381_stroop.csv'
tp339
a(S'2015-04-30 15:21:50.643000'
g185
tp340
a(S'2015-04-30 15:21:50.653000'
g187
tp341
a(S'2015-04-30 15:21:50.657000'
S'data saved as csv to c:\\Charlie\\charlie\\data\\csv\\4381_stroop.csv'
tp342
a(S'2015-04-30 15:21:51.846000'
g185
tp343
a(S'2015-04-30 15:21:51.855000'
g187
tp344
a(S'2015-04-30 15:21:51.858000'
S'data saved as csv to c:\\Charlie\\charlie\\data\\csv\\4381_stroop.csv'
tp345
a(S'2015-04-30 15:21:52.589000'
g185
tp346
a(S'2015-04-30 15:21:52.599000'
g187
tp347
a(S'2015-04-30 15:21:52.603000'
S'data saved as csv to c:\\Charlie\\charlie\\data\\csv\\4381_stroop.csv'
tp348
a(S'2015-04-30 15:21:53.494000'
g185
tp349
a(S'2015-04-30 15:21:53.504000'
g187
tp350
a(S'2015-04-30 15:21:53.507000'
S'data saved as csv to c:\\Charlie\\charlie\\data\\csv\\4381_stroop.csv'
tp351
a(S'2015-04-30 15:21:54.298000'
g185
tp352
a(S'2015-04-30 15:21:54.309000'
g187
tp353
a(S'2015-04-30 15:21:54.313000'
S'data saved as csv to c:\\Charlie\\charlie\\data\\csv\\4381_stroop.csv'
tp354
a(S'2015-04-30 15:21:55.354000'
g185
tp355
a(S'2015-04-30 15:21:55.364000'
g187
tp356
a(S'2015-04-30 15:21:55.367000'
S'data saved as csv to c:\\Charlie\\charlie\\data\\csv\\4381_stroop.csv'
tp357
a(S'2015-04-30 15:21:56.097000'
g185
tp358
a(S'2015-04-30 15:21:56.107000'
g187
tp359
a(S'2015-04-30 15:21:56.111000'
S'data saved as csv to c:\\Charlie\\charlie\\data\\csv\\4381_stroop.csv'
tp360
a(S'2015-04-30 15:21:56.810000'
g185
tp361
a(S'2015-04-30 15:21:56.814000'
g187
tp362
a(S'2015-04-30 15:21:56.816000'
S'data saved as csv to c:\\Charlie\\charlie\\data\\csv\\4381_stroop.csv'
tp363
a(S'2015-04-30 15:21:58.165000'
g185
tp364
a(S'2015-04-30 15:21:58.176000'
g187
tp365
a(S'2015-04-30 15:21:58.180000'
S'data saved as csv to c:\\Charlie\\charlie\\data\\csv\\4381_stroop.csv'
tp366
a(S'2015-04-30 15:21:59.612000'
g185
tp367
a(S'2015-04-30 15:21:59.622000'
g187
tp368
a(S'2015-04-30 15:21:59.626000'
S'data saved as csv to c:\\Charlie\\charlie\\data\\csv\\4381_stroop.csv'
tp369
a(S'2015-04-30 15:22:00.866000'
g185
tp370
a(S'2015-04-30 15:22:00.877000'
g187
tp371
a(S'2015-04-30 15:22:00.881000'
S'data saved as csv to c:\\Charlie\\charlie\\data\\csv\\4381_stroop.csv'
tp372
a(S'2015-04-30 15:22:02.123000'
g185
tp373
a(S'2015-04-30 15:22:02.134000'
g187
tp374
a(S'2015-04-30 15:22:02.138000'
S'data saved as csv to c:\\Charlie\\charlie\\data\\csv\\4381_stroop.csv'
tp375
a(S'2015-04-30 15:22:02.771000'
g185
tp376
a(S'2015-04-30 15:22:02.781000'
g187
tp377
a(S'2015-04-30 15:22:02.786000'
S'data saved as csv to c:\\Charlie\\charlie\\data\\csv\\4381_stroop.csv'
tp378
a(S'2015-04-30 15:22:03.588000'
g185
tp379
a(S'2015-04-30 15:22:03.599000'
g187
tp380
a(S'2015-04-30 15:22:03.603000'
S'data saved as csv to c:\\Charlie\\charlie\\data\\csv\\4381_stroop.csv'
tp381
a(S'2015-04-30 15:22:04.736000'
g185
tp382
a(S'2015-04-30 15:22:04.747000'
g187
tp383
a(S'2015-04-30 15:22:04.751000'
S'data saved as csv to c:\\Charlie\\charlie\\data\\csv\\4381_stroop.csv'
tp384
a(S'2015-04-30 15:22:06.263000'
g185
tp385
a(S'2015-04-30 15:22:06.274000'
g187
tp386
a(S'2015-04-30 15:22:06.278000'
S'data saved as csv to c:\\Charlie\\charlie\\data\\csv\\4381_stroop.csv'
tp387
a(S'2015-04-30 15:22:06.971000'
g185
tp388
a(S'2015-04-30 15:22:06.981000'
g187
tp389
a(S'2015-04-30 15:22:06.986000'
S'data saved as csv to c:\\Charlie\\charlie\\data\\csv\\4381_stroop.csv'
tp390
a(S'2015-04-30 15:22:08.228000'
g185
tp391
a(S'2015-04-30 15:22:08.237000'
g187
tp392
a(S'2015-04-30 15:22:08.239000'
S'data saved as csv to c:\\Charlie\\charlie\\data\\csv\\4381_stroop.csv'
tp393
a(S'2015-04-30 15:22:08.989000'
g185
tp394
a(S'2015-04-30 15:22:08.999000'
g187
tp395
a(S'2015-04-30 15:22:09.004000'
S'data saved as csv to c:\\Charlie\\charlie\\data\\csv\\4381_stroop.csv'
tp396
a(S'2015-04-30 15:22:09.767000'
g185
tp397
a(S'2015-04-30 15:22:09.778000'
g187
tp398
a(S'2015-04-30 15:22:09.782000'
S'data saved as csv to c:\\Charlie\\charlie\\data\\csv\\4381_stroop.csv'
tp399
a(S'2015-04-30 15:22:10.505000'
g185
tp400
a(S'2015-04-30 15:22:10.515000'
g187
tp401
a(S'2015-04-30 15:22:10.518000'
S'data saved as csv to c:\\Charlie\\charlie\\data\\csv\\4381_stroop.csv'
tp402
a(S'2015-04-30 15:22:11.348000'
g185
tp403
a(S'2015-04-30 15:22:11.358000'
g187
tp404
a(S'2015-04-30 15:22:11.363000'
S'data saved as csv to c:\\Charlie\\charlie\\data\\csv\\4381_stroop.csv'
tp405
a(S'2015-04-30 15:22:12.025000'
g185
tp406
a(S'2015-04-30 15:22:12.036000'
g187
tp407
a(S'2015-04-30 15:22:12.041000'
S'data saved as csv to c:\\Charlie\\charlie\\data\\csv\\4381_stroop.csv'
tp408
a(S'2015-04-30 15:22:12.923000'
g185
tp409
a(S'2015-04-30 15:22:12.933000'
g187
tp410
a(S'2015-04-30 15:22:12.938000'
S'data saved as csv to c:\\Charlie\\charlie\\data\\csv\\4381_stroop.csv'
tp411
a(S'2015-04-30 15:22:13.982000'
g185
tp412
a(S'2015-04-30 15:22:13.993000'
g187
tp413
a(S'2015-04-30 15:22:13.997000'
S'data saved as csv to c:\\Charlie\\charlie\\data\\csv\\4381_stroop.csv'
tp414
a(S'2015-04-30 15:22:14.950000'
g185
tp415
a(S'2015-04-30 15:22:14.961000'
g187
tp416
a(S'2015-04-30 15:22:14.965000'
S'data saved as csv to c:\\Charlie\\charlie\\data\\csv\\4381_stroop.csv'
tp417
a(S'2015-04-30 15:22:15.909000'
g185
tp418
a(S'2015-04-30 15:22:15.919000'
g187
tp419
a(S'2015-04-30 15:22:15.924000'
S'data saved as csv to c:\\Charlie\\charlie\\data\\csv\\4381_stroop.csv'
tp420
a(S'2015-04-30 15:22:16.908000'
g185
tp421
a(S'2015-04-30 15:22:16.918000'
g187
tp422
a(S'2015-04-30 15:22:16.923000'
S'data saved as csv to c:\\Charlie\\charlie\\data\\csv\\4381_stroop.csv'
tp423
a(S'2015-04-30 15:22:17.646000'
g185
tp424
a(S'2015-04-30 15:22:17.656000'
g187
tp425
a(S'2015-04-30 15:22:17.659000'
S'data saved as csv to c:\\Charlie\\charlie\\data\\csv\\4381_stroop.csv'
tp426
a(S'2015-04-30 15:22:19.110000'
g185
tp427
a(S'2015-04-30 15:22:19.120000'
g187
tp428
a(S'2015-04-30 15:22:19.125000'
S'data saved as csv to c:\\Charlie\\charlie\\data\\csv\\4381_stroop.csv'
tp429
a(S'2015-04-30 15:22:19.725000'
g185
tp430
a(S'2015-04-30 15:22:19.736000'
g187
tp431
a(S'2015-04-30 15:22:19.741000'
S'data saved as csv to c:\\Charlie\\charlie\\data\\csv\\4381_stroop.csv'
tp432
a(S'2015-04-30 15:22:21.075000'
g185
tp433
a(S'2015-04-30 15:22:21.085000'
g187
tp434
a(S'2015-04-30 15:22:21.090000'
S'data saved as csv to c:\\Charlie\\charlie\\data\\csv\\4381_stroop.csv'
tp435
a(S'2015-04-30 15:22:22.474000'
g185
tp436
a(S'2015-04-30 15:22:22.484000'
g187
tp437
a(S'2015-04-30 15:22:22.487000'
S'data saved as csv to c:\\Charlie\\charlie\\data\\csv\\4381_stroop.csv'
tp438
a(S'2015-04-30 15:22:23.739000'
g185
tp439
a(S'2015-04-30 15:22:23.749000'
g187
tp440
a(S'2015-04-30 15:22:23.754000'
S'data saved as csv to c:\\Charlie\\charlie\\data\\csv\\4381_stroop.csv'
tp441
a(S'2015-04-30 15:22:24.458000'
g185
tp442
a(S'2015-04-30 15:22:24.468000'
g187
tp443
a(S'2015-04-30 15:22:24.473000'
S'data saved as csv to c:\\Charlie\\charlie\\data\\csv\\4381_stroop.csv'
tp444
a(S'2015-04-30 15:22:25.496000'
g185
tp445
a(S'2015-04-30 15:22:25.507000'
g187
tp446
a(S'2015-04-30 15:22:25.512000'
S'data saved as csv to c:\\Charlie\\charlie\\data\\csv\\4381_stroop.csv'
tp447
a(S'2015-04-30 15:22:26.154000'
g185
tp448
a(S'2015-04-30 15:22:26.164000'
g187
tp449
a(S'2015-04-30 15:22:26.169000'
S'data saved as csv to c:\\Charlie\\charlie\\data\\csv\\4381_stroop.csv'
tp450
a(S'2015-04-30 15:22:26.842000'
g185
tp451
a(S'2015-04-30 15:22:26.852000'
g187
tp452
a(S'2015-04-30 15:22:26.857000'
S'data saved as csv to c:\\Charlie\\charlie\\data\\csv\\4381_stroop.csv'
tp453
a(S'2015-04-30 15:22:27.531000'
g185
tp454
a(S'2015-04-30 15:22:27.542000'
g187
tp455
a(S'2015-04-30 15:22:27.547000'
S'data saved as csv to c:\\Charlie\\charlie\\data\\csv\\4381_stroop.csv'
tp456
a(S'2015-04-30 15:22:28.510000'
g185
tp457
a(S'2015-04-30 15:22:28.521000'
g187
tp458
a(S'2015-04-30 15:22:28.525000'
S'data saved as csv to c:\\Charlie\\charlie\\data\\csv\\4381_stroop.csv'
tp459
a(S'2015-04-30 15:22:29.329000'
g185
tp460
a(S'2015-04-30 15:22:29.340000'
g187
tp461
a(S'2015-04-30 15:22:29.345000'
S'data saved as csv to c:\\Charlie\\charlie\\data\\csv\\4381_stroop.csv'
tp462
a(S'2015-04-30 15:22:30.098000'
g185
tp463
a(S'2015-04-30 15:22:30.109000'
g187
tp464
a(S'2015-04-30 15:22:30.114000'
S'data saved as csv to c:\\Charlie\\charlie\\data\\csv\\4381_stroop.csv'
tp465
a(S'2015-04-30 15:22:31.627000'
g185
tp466
a(S'2015-04-30 15:22:31.638000'
g187
tp467
a(S'2015-04-30 15:22:31.643000'
S'data saved as csv to c:\\Charlie\\charlie\\data\\csv\\4381_stroop.csv'
tp468
a(S'2015-04-30 15:22:32.347000'
g185
tp469
a(S'2015-04-30 15:22:32.358000'
g187
tp470
a(S'2015-04-30 15:22:32.363000'
S'data saved as csv to c:\\Charlie\\charlie\\data\\csv\\4381_stroop.csv'
tp471
a(S'2015-04-30 15:22:33.216000'
g185
tp472
a(S'2015-04-30 15:22:33.225000'
g187
tp473
a(S'2015-04-30 15:22:33.228000'
S'data saved as csv to c:\\Charlie\\charlie\\data\\csv\\4381_stroop.csv'
tp474
a(S'2015-04-30 15:22:34.139000'
g185
tp475
a(S'2015-04-30 15:22:34.150000'
g187
tp476
a(S'2015-04-30 15:22:34.154000'
S'data saved as csv to c:\\Charlie\\charlie\\data\\csv\\4381_stroop.csv'
tp477
a(S'2015-04-30 15:22:34.835000'
g185
tp478
a(S'2015-04-30 15:22:34.845000'
g187
tp479
a(S'2015-04-30 15:22:34.848000'
S'data saved as csv to c:\\Charlie\\charlie\\data\\csv\\4381_stroop.csv'
tp480
a(S'2015-04-30 15:22:35.619000'
g185
tp481
a(S'2015-04-30 15:22:35.630000'
g187
tp482
a(S'2015-04-30 15:22:35.635000'
S'data saved as csv to c:\\Charlie\\charlie\\data\\csv\\4381_stroop.csv'
tp483
a(S'2015-04-30 15:22:36.429000'
g185
tp484
a(S'2015-04-30 15:22:36.440000'
g187
tp485
a(S'2015-04-30 15:22:36.445000'
S'data saved as csv to c:\\Charlie\\charlie\\data\\csv\\4381_stroop.csv'
tp486
a(S'2015-04-30 15:22:37.520000'
g185
tp487
a(S'2015-04-30 15:22:37.523000'
g187
tp488
a(S'2015-04-30 15:22:37.525000'
S'data saved as csv to c:\\Charlie\\charlie\\data\\csv\\4381_stroop.csv'
tp489
a(S'2015-04-30 15:22:38.265000'
g185
tp490
a(S'2015-04-30 15:22:38.276000'
g187
tp491
a(S'2015-04-30 15:22:38.281000'
S'data saved as csv to c:\\Charlie\\charlie\\data\\csv\\4381_stroop.csv'
tp492
a(S'2015-04-30 15:22:38.935000'
g185
tp493
a(S'2015-04-30 15:22:38.945000'
g187
tp494
a(S'2015-04-30 15:22:38.950000'
S'data saved as csv to c:\\Charlie\\charlie\\data\\csv\\4381_stroop.csv'
tp495
a(S'2015-04-30 15:22:40.133000'
g185
tp496
a(S'2015-04-30 15:22:40.144000'
g187
tp497
a(S'2015-04-30 15:22:40.149000'
S'data saved as csv to c:\\Charlie\\charlie\\data\\csv\\4381_stroop.csv'
tp498
a(S'2015-04-30 15:22:40.882000'
g185
tp499
a(S'2015-04-30 15:22:40.893000'
g187
tp500
a(S'2015-04-30 15:22:40.898000'
S'data saved as csv to c:\\Charlie\\charlie\\data\\csv\\4381_stroop.csv'
tp501
a(S'2015-04-30 15:22:41.564000'
g185
tp502
a(S'2015-04-30 15:22:41.568000'
g187
tp503
a(S'2015-04-30 15:22:41.570000'
S'data saved as csv to c:\\Charlie\\charlie\\data\\csv\\4381_stroop.csv'
tp504
a(S'2015-04-30 15:22:42.410000'
g185
tp505
a(S'2015-04-30 15:22:42.421000'
g187
tp506
a(S'2015-04-30 15:22:42.426000'
S'data saved as csv to c:\\Charlie\\charlie\\data\\csv\\4381_stroop.csv'
tp507
a(S'2015-04-30 15:22:43.350000'
g185
tp508
a(S'2015-04-30 15:22:43.361000'
g187
tp509
a(S'2015-04-30 15:22:43.364000'
S'data saved as csv to c:\\Charlie\\charlie\\data\\csv\\4381_stroop.csv'
tp510
a(S'2015-04-30 15:22:44.145000'
g185
tp511
a(S'2015-04-30 15:22:44.155000'
g187
tp512
a(S'2015-04-30 15:22:44.159000'
S'data saved as csv to c:\\Charlie\\charlie\\data\\csv\\4381_stroop.csv'
tp513
a(S'2015-04-30 15:22:44.892000'
g185
tp514
a(S'2015-04-30 15:22:44.903000'
g187
tp515
a(S'2015-04-30 15:22:44.908000'
S'data saved as csv to c:\\Charlie\\charlie\\data\\csv\\4381_stroop.csv'
tp516
a(S'2015-04-30 15:22:45.602000'
g185
tp517
a(S'2015-04-30 15:22:45.613000'
g187
tp518
a(S'2015-04-30 15:22:45.616000'
S'data saved as csv to c:\\Charlie\\charlie\\data\\csv\\4381_stroop.csv'
tp519
a(S'2015-04-30 15:22:46.457000'
g185
tp520
a(S'2015-04-30 15:22:46.468000'
g187
tp521
a(S'2015-04-30 15:22:46.473000'
S'data saved as csv to c:\\Charlie\\charlie\\data\\csv\\4381_stroop.csv'
tp522
a(S'2015-04-30 15:22:47.498000'
g185
tp523
a(S'2015-04-30 15:22:47.506000'
g187
tp524
a(S'2015-04-30 15:22:47.509000'
S'data saved as csv to c:\\Charlie\\charlie\\data\\csv\\4381_stroop.csv'
tp525
a(S'2015-04-30 15:22:48.240000'
g185
tp526
a(S'2015-04-30 15:22:48.251000'
g187
tp527
a(S'2015-04-30 15:22:48.255000'
S'data saved as csv to c:\\Charlie\\charlie\\data\\csv\\4381_stroop.csv'
tp528
a(S'2015-04-30 15:22:49.087000'
g185
tp529
a(S'2015-04-30 15:22:49.098000'
g187
tp530
a(S'2015-04-30 15:22:49.103000'
S'data saved as csv to c:\\Charlie\\charlie\\data\\csv\\4381_stroop.csv'
tp531
a(S'2015-04-30 15:22:49.877000'
g185
tp532
a(S'2015-04-30 15:22:49.889000'
g187
tp533
a(S'2015-04-30 15:22:49.894000'
S'data saved as csv to c:\\Charlie\\charlie\\data\\csv\\4381_stroop.csv'
tp534
asb.