(icharlie.tools.data
Data
p1
(dp2
S'lang'
p3
S'EN'
p4
sS'control'
p5
(lp6
sS'last_updated'
p7
cdatetime
datetime
p8
(S'\x07\xdf\x05\x14\x0b%7\x08\xd9\xa0'
tRp9
sS'last_opened'
p10
g8
(S'\x07\xdf\x05\x14\x0b"6\x06\xab\x08'
tRp11
sS'proj_id'
p12
S'connectivity'
p13
sS'date_done'
p14
NsS'test_done'
p15
I01
sS'data'
p16
(lp17
(S'4382'
p18
S'face_memory'
p19
S'learning'
p20
I0
S'C:\\Users\\Jbarrett\\Charlie\\charlie\\stimuli\\visual\\face_memory\\tar01.bmp'
p21
NS'n/a'
p22
I0
tp23
a(g18
g19
g20
I1
S'C:\\Users\\Jbarrett\\Charlie\\charlie\\stimuli\\visual\\face_memory\\tar02.bmp'
p24
Ng22
I0
tp25
a(g18
g19
g20
I2
S'C:\\Users\\Jbarrett\\Charlie\\charlie\\stimuli\\visual\\face_memory\\tar03.bmp'
p26
Ng22
I0
tp27
a(g18
g19
g20
I3
S'C:\\Users\\Jbarrett\\Charlie\\charlie\\stimuli\\visual\\face_memory\\tar04.bmp'
p28
Ng22
I0
tp29
a(g18
g19
g20
I4
S'C:\\Users\\Jbarrett\\Charlie\\charlie\\stimuli\\visual\\face_memory\\tar05.bmp'
p30
Ng22
I0
tp31
a(g18
g19
g20
I5
S'C:\\Users\\Jbarrett\\Charlie\\charlie\\stimuli\\visual\\face_memory\\tar06.bmp'
p32
Ng22
I0
tp33
a(g18
g19
g20
I6
S'C:\\Users\\Jbarrett\\Charlie\\charlie\\stimuli\\visual\\face_memory\\tar07.bmp'
p34
Ng22
I0
tp35
a(g18
g19
g20
I7
S'C:\\Users\\Jbarrett\\Charlie\\charlie\\stimuli\\visual\\face_memory\\tar08.bmp'
p36
Ng22
I0
tp37
a(g18
g19
g20
I8
S'C:\\Users\\Jbarrett\\Charlie\\charlie\\stimuli\\visual\\face_memory\\tar09.bmp'
p38
Ng22
I0
tp39
a(g18
g19
g20
I9
S'C:\\Users\\Jbarrett\\Charlie\\charlie\\stimuli\\visual\\face_memory\\tar10.bmp'
p40
Ng22
I0
tp41
a(g18
g19
g20
I10
S'C:\\Users\\Jbarrett\\Charlie\\charlie\\stimuli\\visual\\face_memory\\tar11.bmp'
p42
Ng22
I0
tp43
a(g18
g19
g20
I11
S'C:\\Users\\Jbarrett\\Charlie\\charlie\\stimuli\\visual\\face_memory\\tar12.bmp'
p44
Ng22
I0
tp45
a(g18
g19
g20
I12
S'C:\\Users\\Jbarrett\\Charlie\\charlie\\stimuli\\visual\\face_memory\\tar13.bmp'
p46
Ng22
I0
tp47
a(g18
g19
g20
I13
S'C:\\Users\\Jbarrett\\Charlie\\charlie\\stimuli\\visual\\face_memory\\tar14.bmp'
p48
Ng22
I0
tp49
a(g18
g19
g20
I14
S'C:\\Users\\Jbarrett\\Charlie\\charlie\\stimuli\\visual\\face_memory\\tar15.bmp'
p50
Ng22
I0
tp51
a(g18
g19
g20
I15
S'C:\\Users\\Jbarrett\\Charlie\\charlie\\stimuli\\visual\\face_memory\\tar16.bmp'
p52
Ng22
I0
tp53
a(g18
g19
g20
I16
S'C:\\Users\\Jbarrett\\Charlie\\charlie\\stimuli\\visual\\face_memory\\tar17.bmp'
p54
Ng22
I0
tp55
a(g18
g19
g20
I17
S'C:\\Users\\Jbarrett\\Charlie\\charlie\\stimuli\\visual\\face_memory\\tar18.bmp'
p56
Ng22
I0
tp57
a(g18
g19
g20
I18
S'C:\\Users\\Jbarrett\\Charlie\\charlie\\stimuli\\visual\\face_memory\\tar19.bmp'
p58
Ng22
I0
tp59
a(g18
g19
g20
I19
S'C:\\Users\\Jbarrett\\Charlie\\charlie\\stimuli\\visual\\face_memory\\tar20.bmp'
p60
Ng22
I0
tp61
a(g18
g19
S'test'
p62
I0
S'C:\\Users\\Jbarrett\\Charlie\\charlie\\stimuli\\visual\\face_memory\\idis04.bmp'
S'No'
p63
g63
I1760
tp64
a(g18
g19
g62
I1
g60
S'Yes'
p65
g65
I870
tp66
a(g18
g19
g62
I2
S'C:\\Users\\Jbarrett\\Charlie\\charlie\\stimuli\\visual\\face_memory\\idis01.bmp'
g63
g63
I1140
tp67
a(g18
g19
g62
I3
S'C:\\Users\\Jbarrett\\Charlie\\charlie\\stimuli\\visual\\face_memory\\idis05.bmp'
g63
g63
I1130
tp68
a(g18
g19
g62
I4
S'C:\\Users\\Jbarrett\\Charlie\\charlie\\stimuli\\visual\\face_memory\\idis16.bmp'
g63
g65
I1200
tp69
a(g18
g19
g62
I5
g54
g65
g65
I1100
tp70
a(g18
g19
g62
I6
g38
g65
g65
I1050
tp71
a(g18
g19
g62
I7
S'C:\\Users\\Jbarrett\\Charlie\\charlie\\stimuli\\visual\\face_memory\\idis11.bmp'
g63
g63
I1010
tp72
a(g18
g19
g62
I8
S'C:\\Users\\Jbarrett\\Charlie\\charlie\\stimuli\\visual\\face_memory\\idis06.bmp'
g63
g63
I1130
tp73
a(g18
g19
g62
I9
S'C:\\Users\\Jbarrett\\Charlie\\charlie\\stimuli\\visual\\face_memory\\idis15.bmp'
g63
g65
I1261
tp74
a(g18
g19
g62
I10
S'C:\\Users\\Jbarrett\\Charlie\\charlie\\stimuli\\visual\\face_memory\\idis14.bmp'
g63
g63
I1100
tp75
a(g18
g19
g62
I11
g32
g65
g65
I920
tp76
a(g18
g19
g62
I12
S'C:\\Users\\Jbarrett\\Charlie\\charlie\\stimuli\\visual\\face_memory\\idis02.bmp'
g63
g63
I1030
tp77
a(g18
g19
g62
I13
S'C:\\Users\\Jbarrett\\Charlie\\charlie\\stimuli\\visual\\face_memory\\idis13.bmp'
g63
g65
I1180
tp78
a(g18
g19
g62
I14
S'C:\\Users\\Jbarrett\\Charlie\\charlie\\stimuli\\visual\\face_memory\\idis18.bmp'
g63
g63
I1860
tp79
a(g18
g19
g62
I15
g21
g65
g65
I1110
tp80
a(g18
g19
g62
I16
g36
g65
g65
I970
tp81
a(g18
g19
g62
I17
g44
g65
g65
I1010
tp82
a(g18
g19
g62
I18
S'C:\\Users\\Jbarrett\\Charlie\\charlie\\stimuli\\visual\\face_memory\\idis20.bmp'
g63
g63
I1060
tp83
a(g18
g19
g62
I19
g24
g65
g65
I800
tp84
a(g18
g19
g62
I20
g42
g65
g65
I940
tp85
a(g18
g19
g62
I21
g58
g65
g65
I980
tp86
a(g18
g19
g62
I22
g50
g65
g65
I920
tp87
a(g18
g19
g62
I23
g40
g65
g65
I880
tp88
a(g18
g19
g62
I24
S'C:\\Users\\Jbarrett\\Charlie\\charlie\\stimuli\\visual\\face_memory\\idis07.bmp'
g63
g63
I861
tp89
a(g18
g19
g62
I25
S'C:\\Users\\Jbarrett\\Charlie\\charlie\\stimuli\\visual\\face_memory\\idis09.bmp'
g63
g63
I1700
tp90
a(g18
g19
g62
I26
S'C:\\Users\\Jbarrett\\Charlie\\charlie\\stimuli\\visual\\face_memory\\idis12.bmp'
g63
g63
I2740
tp91
a(g18
g19
g62
I27
S'C:\\Users\\Jbarrett\\Charlie\\charlie\\stimuli\\visual\\face_memory\\idis17.bmp'
g63
g63
I1080
tp92
a(g18
g19
g62
I28
g34
g65
g65
I891
tp93
a(g18
g19
g62
I29
S'C:\\Users\\Jbarrett\\Charlie\\charlie\\stimuli\\visual\\face_memory\\idis19.bmp'
g63
g63
I1070
tp94
a(g18
g19
g62
I30
g56
g65
g65
I1040
tp95
a(g18
g19
g62
I31
g26
g65
g65
I1100
tp96
a(g18
g19
g62
I32
g48
g65
g65
I980
tp97
a(g18
g19
g62
I33
g30
g65
g65
I1070
tp98
a(g18
g19
g62
I34
S'C:\\Users\\Jbarrett\\Charlie\\charlie\\stimuli\\visual\\face_memory\\idis10.bmp'
g63
g63
I880
tp99
a(g18
g19
g62
I35
S'C:\\Users\\Jbarrett\\Charlie\\charlie\\stimuli\\visual\\face_memory\\idis08.bmp'
g63
g65
I1380
tp100
a(g18
g19
g62
I36
g52
g65
g65
I870
tp101
a(g18
g19
g62
I37
g28
g65
g65
I1611
tp102
a(g18
g19
g62
I38
S'C:\\Users\\Jbarrett\\Charlie\\charlie\\stimuli\\visual\\face_memory\\idis03.bmp'
g63
g63
I1250
tp103
a(g18
g19
g62
I39
g46
g65
g65
I870
tp104
asS'output_format'
p105
(lp106
(S'proband_id'
p107
c__builtin__
str
p108
tp109
a(S'test_name'
p110
g108
tp111
a(S'phase'
p112
g108
tp113
a(S'trialn'
p114
c__builtin__
int
p115
tp116
a(S'f'
g108
tp117
a(S'ans'
p118
g108
tp119
a(S'rsp'
p120
g108
tp121
a(S'rt'
p122
g115
tp123
asg107
g18
sS'filename'
p124
S'4382_face_memory.data'
p125
sS'initialised'
p126
g8
(S'\x07\xdf\x05\x14\x0b"6\x06\xab\x08'
tRp127
sS'last_udated'
p128
g8
(S'\x07\xdf\x05\x14\x0b"6\x06\xab\x08'
tRp129
sg110
S'face_memory'
p130
sS'directory'
p131
S'C:\\Users\\Jbarrett\\Charlie\\charlie\\data\\raw'
p132
sS'user_id'
p133
S'jbarrett'
p134
sS'test_started'
p135
I01
sS'abs_filename'
p136
S'C:\\Users\\Jbarrett\\Charlie\\charlie\\data\\raw\\4382_face_memory.data'
p137
sS'date_started'
p138
g8
(S'\x07\xdf\x05\x14\x0b#"\x04\x1e\xb0'
tRp139
sS'log'
p140
(lp141
(S'2015-05-20 11:34:54.437000'
S'instance created'
p142
tp143
a(S'2015-05-20 11:35:34.279000'
S'instance updated'
p144
tp145
a(S'2015-05-20 11:35:34.288000'
S'pandas DataFrame of data created'
p146
tp147
a(S'2015-05-20 11:35:34.292000'
S'data saved as csv to C:\\Users\\Jbarrett\\Charlie\\charlie\\data\\csv\\4382_face_memory.csv'
tp148
a(S'2015-05-20 11:35:38.316000'
g144
tp149
a(S'2015-05-20 11:35:38.325000'
g146
tp150
a(S'2015-05-20 11:35:38.328000'
S'data saved as csv to C:\\Users\\Jbarrett\\Charlie\\charlie\\data\\csv\\4382_face_memory.csv'
tp151
a(S'2015-05-20 11:35:42.353000'
g144
tp152
a(S'2015-05-20 11:35:42.361000'
g146
tp153
a(S'2015-05-20 11:35:42.364000'
S'data saved as csv to C:\\Users\\Jbarrett\\Charlie\\charlie\\data\\csv\\4382_face_memory.csv'
tp154
a(S'2015-05-20 11:35:46.388000'
g144
tp155
a(S'2015-05-20 11:35:46.397000'
g146
tp156
a(S'2015-05-20 11:35:46.400000'
S'data saved as csv to C:\\Users\\Jbarrett\\Charlie\\charlie\\data\\csv\\4382_face_memory.csv'
tp157
a(S'2015-05-20 11:35:50.425000'
g144
tp158
a(S'2015-05-20 11:35:50.432000'
g146
tp159
a(S'2015-05-20 11:35:50.435000'
S'data saved as csv to C:\\Users\\Jbarrett\\Charlie\\charlie\\data\\csv\\4382_face_memory.csv'
tp160
a(S'2015-05-20 11:35:54.460000'
g144
tp161
a(S'2015-05-20 11:35:54.468000'
g146
tp162
a(S'2015-05-20 11:35:54.472000'
S'data saved as csv to C:\\Users\\Jbarrett\\Charlie\\charlie\\data\\csv\\4382_face_memory.csv'
tp163
a(S'2015-05-20 11:35:58.496000'
g144
tp164
a(S'2015-05-20 11:35:58.505000'
g146
tp165
a(S'2015-05-20 11:35:58.508000'
S'data saved as csv to C:\\Users\\Jbarrett\\Charlie\\charlie\\data\\csv\\4382_face_memory.csv'
tp166
a(S'2015-05-20 11:36:02.533000'
g144
tp167
a(S'2015-05-20 11:36:02.541000'
g146
tp168
a(S'2015-05-20 11:36:02.545000'
S'data saved as csv to C:\\Users\\Jbarrett\\Charlie\\charlie\\data\\csv\\4382_face_memory.csv'
tp169
a(S'2015-05-20 11:36:06.568000'
g144
tp170
a(S'2015-05-20 11:36:06.576000'
g146
tp171
a(S'2015-05-20 11:36:06.580000'
S'data saved as csv to C:\\Users\\Jbarrett\\Charlie\\charlie\\data\\csv\\4382_face_memory.csv'
tp172
a(S'2015-05-20 11:36:10.605000'
g144
tp173
a(S'2015-05-20 11:36:10.613000'
g146
tp174
a(S'2015-05-20 11:36:10.616000'
S'data saved as csv to C:\\Users\\Jbarrett\\Charlie\\charlie\\data\\csv\\4382_face_memory.csv'
tp175
a(S'2015-05-20 11:36:14.639000'
g144
tp176
a(S'2015-05-20 11:36:14.647000'
g146
tp177
a(S'2015-05-20 11:36:14.651000'
S'data saved as csv to C:\\Users\\Jbarrett\\Charlie\\charlie\\data\\csv\\4382_face_memory.csv'
tp178
a(S'2015-05-20 11:36:18.676000'
g144
tp179
a(S'2015-05-20 11:36:18.684000'
g146
tp180
a(S'2015-05-20 11:36:18.688000'
S'data saved as csv to C:\\Users\\Jbarrett\\Charlie\\charlie\\data\\csv\\4382_face_memory.csv'
tp181
a(S'2015-05-20 11:36:22.712000'
g144
tp182
a(S'2015-05-20 11:36:22.720000'
g146
tp183
a(S'2015-05-20 11:36:22.724000'
S'data saved as csv to C:\\Users\\Jbarrett\\Charlie\\charlie\\data\\csv\\4382_face_memory.csv'
tp184
a(S'2015-05-20 11:36:26.749000'
g144
tp185
a(S'2015-05-20 11:36:26.757000'
g146
tp186
a(S'2015-05-20 11:36:26.761000'
S'data saved as csv to C:\\Users\\Jbarrett\\Charlie\\charlie\\data\\csv\\4382_face_memory.csv'
tp187
a(S'2015-05-20 11:36:30.786000'
g144
tp188
a(S'2015-05-20 11:36:30.794000'
g146
tp189
a(S'2015-05-20 11:36:30.798000'
S'data saved as csv to C:\\Users\\Jbarrett\\Charlie\\charlie\\data\\csv\\4382_face_memory.csv'
tp190
a(S'2015-05-20 11:36:34.823000'
g144
tp191
a(S'2015-05-20 11:36:34.831000'
g146
tp192
a(S'2015-05-20 11:36:34.835000'
S'data saved as csv to C:\\Users\\Jbarrett\\Charlie\\charlie\\data\\csv\\4382_face_memory.csv'
tp193
a(S'2015-05-20 11:36:38.860000'
g144
tp194
a(S'2015-05-20 11:36:38.868000'
g146
tp195
a(S'2015-05-20 11:36:38.872000'
S'data saved as csv to C:\\Users\\Jbarrett\\Charlie\\charlie\\data\\csv\\4382_face_memory.csv'
tp196
a(S'2015-05-20 11:36:42.896000'
g144
tp197
a(S'2015-05-20 11:36:42.904000'
g146
tp198
a(S'2015-05-20 11:36:42.908000'
S'data saved as csv to C:\\Users\\Jbarrett\\Charlie\\charlie\\data\\csv\\4382_face_memory.csv'
tp199
a(S'2015-05-20 11:36:46.933000'
g144
tp200
a(S'2015-05-20 11:36:46.941000'
g146
tp201
a(S'2015-05-20 11:36:46.945000'
S'data saved as csv to C:\\Users\\Jbarrett\\Charlie\\charlie\\data\\csv\\4382_face_memory.csv'
tp202
a(S'2015-05-20 11:36:50.970000'
g144
tp203
a(S'2015-05-20 11:36:50.978000'
g146
tp204
a(S'2015-05-20 11:36:50.982000'
S'data saved as csv to C:\\Users\\Jbarrett\\Charlie\\charlie\\data\\csv\\4382_face_memory.csv'
tp205
a(S'2015-05-20 11:37:06.063000'
g144
tp206
a(S'2015-05-20 11:37:06.072000'
g146
tp207
a(S'2015-05-20 11:37:06.076000'
S'data saved as csv to C:\\Users\\Jbarrett\\Charlie\\charlie\\data\\csv\\4382_face_memory.csv'
tp208
a(S'2015-05-20 11:37:07.074000'
g144
tp209
a(S'2015-05-20 11:37:07.082000'
g146
tp210
a(S'2015-05-20 11:37:07.086000'
S'data saved as csv to C:\\Users\\Jbarrett\\Charlie\\charlie\\data\\csv\\4382_face_memory.csv'
tp211
a(S'2015-05-20 11:37:08.354000'
g144
tp212
a(S'2015-05-20 11:37:08.362000'
g146
tp213
a(S'2015-05-20 11:37:08.366000'
S'data saved as csv to C:\\Users\\Jbarrett\\Charlie\\charlie\\data\\csv\\4382_face_memory.csv'
tp214
a(S'2015-05-20 11:37:09.625000'
g144
tp215
a(S'2015-05-20 11:37:09.633000'
g146
tp216
a(S'2015-05-20 11:37:09.637000'
S'data saved as csv to C:\\Users\\Jbarrett\\Charlie\\charlie\\data\\csv\\4382_face_memory.csv'
tp217
a(S'2015-05-20 11:37:10.966000'
g144
tp218
a(S'2015-05-20 11:37:10.975000'
g146
tp219
a(S'2015-05-20 11:37:10.979000'
S'data saved as csv to C:\\Users\\Jbarrett\\Charlie\\charlie\\data\\csv\\4382_face_memory.csv'
tp220
a(S'2015-05-20 11:37:12.207000'
g144
tp221
a(S'2015-05-20 11:37:12.215000'
g146
tp222
a(S'2015-05-20 11:37:12.219000'
S'data saved as csv to C:\\Users\\Jbarrett\\Charlie\\charlie\\data\\csv\\4382_face_memory.csv'
tp223
a(S'2015-05-20 11:37:13.398000'
g144
tp224
a(S'2015-05-20 11:37:13.407000'
g146
tp225
a(S'2015-05-20 11:37:13.411000'
S'data saved as csv to C:\\Users\\Jbarrett\\Charlie\\charlie\\data\\csv\\4382_face_memory.csv'
tp226
a(S'2015-05-20 11:37:14.549000'
g144
tp227
a(S'2015-05-20 11:37:14.557000'
g146
tp228
a(S'2015-05-20 11:37:14.561000'
S'data saved as csv to C:\\Users\\Jbarrett\\Charlie\\charlie\\data\\csv\\4382_face_memory.csv'
tp229
a(S'2015-05-20 11:37:15.819000'
g144
tp230
a(S'2015-05-20 11:37:15.827000'
g146
tp231
a(S'2015-05-20 11:37:15.831000'
S'data saved as csv to C:\\Users\\Jbarrett\\Charlie\\charlie\\data\\csv\\4382_face_memory.csv'
tp232
a(S'2015-05-20 11:37:17.218000'
g144
tp233
a(S'2015-05-20 11:37:17.226000'
g146
tp234
a(S'2015-05-20 11:37:17.230000'
S'data saved as csv to C:\\Users\\Jbarrett\\Charlie\\charlie\\data\\csv\\4382_face_memory.csv'
tp235
a(S'2015-05-20 11:37:18.459000'
g144
tp236
a(S'2015-05-20 11:37:18.468000'
g146
tp237
a(S'2015-05-20 11:37:18.472000'
S'data saved as csv to C:\\Users\\Jbarrett\\Charlie\\charlie\\data\\csv\\4382_face_memory.csv'
tp238
a(S'2015-05-20 11:37:19.518000'
g144
tp239
a(S'2015-05-20 11:37:19.526000'
g146
tp240
a(S'2015-05-20 11:37:19.531000'
S'data saved as csv to C:\\Users\\Jbarrett\\Charlie\\charlie\\data\\csv\\4382_face_memory.csv'
tp241
a(S'2015-05-20 11:37:20.689000'
g144
tp242
a(S'2015-05-20 11:37:20.698000'
g146
tp243
a(S'2015-05-20 11:37:20.702000'
S'data saved as csv to C:\\Users\\Jbarrett\\Charlie\\charlie\\data\\csv\\4382_face_memory.csv'
tp244
a(S'2015-05-20 11:37:22.010000'
g144
tp245
a(S'2015-05-20 11:37:22.019000'
g146
tp246
a(S'2015-05-20 11:37:22.023000'
S'data saved as csv to C:\\Users\\Jbarrett\\Charlie\\charlie\\data\\csv\\4382_face_memory.csv'
tp247
a(S'2015-05-20 11:37:24.012000'
g144
tp248
a(S'2015-05-20 11:37:24.020000'
g146
tp249
a(S'2015-05-20 11:37:24.023000'
S'data saved as csv to C:\\Users\\Jbarrett\\Charlie\\charlie\\data\\csv\\4382_face_memory.csv'
tp250
a(S'2015-05-20 11:37:25.259000'
g144
tp251
a(S'2015-05-20 11:37:25.268000'
g146
tp252
a(S'2015-05-20 11:37:25.272000'
S'data saved as csv to C:\\Users\\Jbarrett\\Charlie\\charlie\\data\\csv\\4382_face_memory.csv'
tp253
a(S'2015-05-20 11:37:26.370000'
g144
tp254
a(S'2015-05-20 11:37:26.379000'
g146
tp255
a(S'2015-05-20 11:37:26.383000'
S'data saved as csv to C:\\Users\\Jbarrett\\Charlie\\charlie\\data\\csv\\4382_face_memory.csv'
tp256
a(S'2015-05-20 11:37:27.521000'
g144
tp257
a(S'2015-05-20 11:37:27.530000'
g146
tp258
a(S'2015-05-20 11:37:27.533000'
S'data saved as csv to C:\\Users\\Jbarrett\\Charlie\\charlie\\data\\csv\\4382_face_memory.csv'
tp259
a(S'2015-05-20 11:37:28.719000'
g144
tp260
a(S'2015-05-20 11:37:28.728000'
g146
tp261
a(S'2015-05-20 11:37:28.731000'
S'data saved as csv to C:\\Users\\Jbarrett\\Charlie\\charlie\\data\\csv\\4382_face_memory.csv'
tp262
a(S'2015-05-20 11:37:29.657000'
g144
tp263
a(S'2015-05-20 11:37:29.666000'
g146
tp264
a(S'2015-05-20 11:37:29.670000'
S'data saved as csv to C:\\Users\\Jbarrett\\Charlie\\charlie\\data\\csv\\4382_face_memory.csv'
tp265
a(S'2015-05-20 11:37:30.738000'
g144
tp266
a(S'2015-05-20 11:37:30.747000'
g146
tp267
a(S'2015-05-20 11:37:30.751000'
S'data saved as csv to C:\\Users\\Jbarrett\\Charlie\\charlie\\data\\csv\\4382_face_memory.csv'
tp268
a(S'2015-05-20 11:37:31.859000'
g144
tp269
a(S'2015-05-20 11:37:31.868000'
g146
tp270
a(S'2015-05-20 11:37:31.872000'
S'data saved as csv to C:\\Users\\Jbarrett\\Charlie\\charlie\\data\\csv\\4382_face_memory.csv'
tp271
a(S'2015-05-20 11:37:32.920000'
g144
tp272
a(S'2015-05-20 11:37:32.929000'
g146
tp273
a(S'2015-05-20 11:37:32.932000'
S'data saved as csv to C:\\Users\\Jbarrett\\Charlie\\charlie\\data\\csv\\4382_face_memory.csv'
tp274
a(S'2015-05-20 11:37:33.938000'
g144
tp275
a(S'2015-05-20 11:37:33.947000'
g146
tp276
a(S'2015-05-20 11:37:33.951000'
S'data saved as csv to C:\\Users\\Jbarrett\\Charlie\\charlie\\data\\csv\\4382_face_memory.csv'
tp277
a(S'2015-05-20 11:37:34.937000'
g144
tp278
a(S'2015-05-20 11:37:34.946000'
g146
tp279
a(S'2015-05-20 11:37:34.951000'
S'data saved as csv to C:\\Users\\Jbarrett\\Charlie\\charlie\\data\\csv\\4382_face_memory.csv'
tp280
a(S'2015-05-20 11:37:36.771000'
g144
tp281
a(S'2015-05-20 11:37:36.775000'
g146
tp282
a(S'2015-05-20 11:37:36.776000'
S'data saved as csv to C:\\Users\\Jbarrett\\Charlie\\charlie\\data\\csv\\4382_face_memory.csv'
tp283
a(S'2015-05-20 11:37:39.644000'
g144
tp284
a(S'2015-05-20 11:37:39.652000'
g146
tp285
a(S'2015-05-20 11:37:39.657000'
S'data saved as csv to C:\\Users\\Jbarrett\\Charlie\\charlie\\data\\csv\\4382_face_memory.csv'
tp286
a(S'2015-05-20 11:37:40.866000'
g144
tp287
a(S'2015-05-20 11:37:40.874000'
g146
tp288
a(S'2015-05-20 11:37:40.878000'
S'data saved as csv to C:\\Users\\Jbarrett\\Charlie\\charlie\\data\\csv\\4382_face_memory.csv'
tp289
a(S'2015-05-20 11:37:41.897000'
g144
tp290
a(S'2015-05-20 11:37:41.905000'
g146
tp291
a(S'2015-05-20 11:37:41.910000'
S'data saved as csv to C:\\Users\\Jbarrett\\Charlie\\charlie\\data\\csv\\4382_face_memory.csv'
tp292
a(S'2015-05-20 11:37:43.109000'
g144
tp293
a(S'2015-05-20 11:37:43.118000'
g146
tp294
a(S'2015-05-20 11:37:43.122000'
S'data saved as csv to C:\\Users\\Jbarrett\\Charlie\\charlie\\data\\csv\\4382_face_memory.csv'
tp295
a(S'2015-05-20 11:37:44.291000'
g144
tp296
a(S'2015-05-20 11:37:44.299000'
g146
tp297
a(S'2015-05-20 11:37:44.302000'
S'data saved as csv to C:\\Users\\Jbarrett\\Charlie\\charlie\\data\\csv\\4382_face_memory.csv'
tp298
a(S'2015-05-20 11:37:45.530000'
g144
tp299
a(S'2015-05-20 11:37:45.539000'
g146
tp300
a(S'2015-05-20 11:37:45.543000'
S'data saved as csv to C:\\Users\\Jbarrett\\Charlie\\charlie\\data\\csv\\4382_face_memory.csv'
tp301
a(S'2015-05-20 11:37:46.645000'
g144
tp302
a(S'2015-05-20 11:37:46.654000'
g146
tp303
a(S'2015-05-20 11:37:46.658000'
S'data saved as csv to C:\\Users\\Jbarrett\\Charlie\\charlie\\data\\csv\\4382_face_memory.csv'
tp304
a(S'2015-05-20 11:37:47.858000'
g144
tp305
a(S'2015-05-20 11:37:47.866000'
g146
tp306
a(S'2015-05-20 11:37:47.870000'
S'data saved as csv to C:\\Users\\Jbarrett\\Charlie\\charlie\\data\\csv\\4382_face_memory.csv'
tp307
a(S'2015-05-20 11:37:48.877000'
g144
tp308
a(S'2015-05-20 11:37:48.886000'
g146
tp309
a(S'2015-05-20 11:37:48.890000'
S'data saved as csv to C:\\Users\\Jbarrett\\Charlie\\charlie\\data\\csv\\4382_face_memory.csv'
tp310
a(S'2015-05-20 11:37:50.397000'
g144
tp311
a(S'2015-05-20 11:37:50.406000'
g146
tp312
a(S'2015-05-20 11:37:50.410000'
S'data saved as csv to C:\\Users\\Jbarrett\\Charlie\\charlie\\data\\csv\\4382_face_memory.csv'
tp313
a(S'2015-05-20 11:37:51.409000'
g144
tp314
a(S'2015-05-20 11:37:51.418000'
g146
tp315
a(S'2015-05-20 11:37:51.422000'
S'data saved as csv to C:\\Users\\Jbarrett\\Charlie\\charlie\\data\\csv\\4382_face_memory.csv'
tp316
a(S'2015-05-20 11:37:53.161000'
g144
tp317
a(S'2015-05-20 11:37:53.170000'
g146
tp318
a(S'2015-05-20 11:37:53.174000'
S'data saved as csv to C:\\Users\\Jbarrett\\Charlie\\charlie\\data\\csv\\4382_face_memory.csv'
tp319
a(S'2015-05-20 11:37:54.554000'
g144
tp320
a(S'2015-05-20 11:37:54.563000'
g146
tp321
a(S'2015-05-20 11:37:54.567000'
S'data saved as csv to C:\\Users\\Jbarrett\\Charlie\\charlie\\data\\csv\\4382_face_memory.csv'
tp322
a(S'2015-05-20 11:37:55.566000'
g144
tp323
a(S'2015-05-20 11:37:55.575000'
g146
tp324
a(S'2015-05-20 11:37:55.579000'
S'data saved as csv to C:\\Users\\Jbarrett\\Charlie\\charlie\\data\\csv\\4382_face_memory.csv'
tp325
asb.