(icharlie.tools.data
Data
p1
(dp2
S'lang'
p3
S'EN'
p4
sS'control'
p5
(lp6
sS'last_updated'
p7
cdatetime
datetime
p8
(S'\x07\xdf\x05\x14\x0b,0\x08\xd9\xa0'
tRp9
sS'last_opened'
p10
g8
(S'\x07\xdf\x05\x14\x0b%8\x01D8'
tRp11
sS'proj_id'
p12
S'connectivity'
p13
sS'date_done'
p14
NsS'test_done'
p15
I01
sS'data'
p16
(lp17
(S'4382'
p18
S'matrix_reasoning'
p19
S'practice'
p20
I0
S'C:\\Users\\Jbarrett\\Charlie\\charlie\\stimuli\\visual\\matrix_reasoning\\prac_MA.png'
S'C:\\Users\\Jbarrett\\Charlie\\charlie\\stimuli\\visual\\matrix_reasoning\\prac_MAa.png'
I1
I1
I6533
tp21
a(g18
g19
S'test'
p22
I0
S'C:\\Users\\Jbarrett\\Charlie\\charlie\\stimuli\\visual\\matrix_reasoning\\M001.png'
S'C:\\Users\\Jbarrett\\Charlie\\charlie\\stimuli\\visual\\matrix_reasoning\\M001a.png'
I1
I1
I9526
tp23
a(g18
g19
g22
I1
S'C:\\Users\\Jbarrett\\Charlie\\charlie\\stimuli\\visual\\matrix_reasoning\\M002.png'
S'C:\\Users\\Jbarrett\\Charlie\\charlie\\stimuli\\visual\\matrix_reasoning\\M002a.png'
I3
I3
I2742
tp24
a(g18
g19
g22
I2
S'C:\\Users\\Jbarrett\\Charlie\\charlie\\stimuli\\visual\\matrix_reasoning\\M003.png'
S'C:\\Users\\Jbarrett\\Charlie\\charlie\\stimuli\\visual\\matrix_reasoning\\M003a.png'
I1
I1
I2697
tp25
a(g18
g19
g22
I3
S'C:\\Users\\Jbarrett\\Charlie\\charlie\\stimuli\\visual\\matrix_reasoning\\M004.png'
S'C:\\Users\\Jbarrett\\Charlie\\charlie\\stimuli\\visual\\matrix_reasoning\\M004a.png'
I3
I3
I2157
tp26
a(g18
g19
g22
I4
S'C:\\Users\\Jbarrett\\Charlie\\charlie\\stimuli\\visual\\matrix_reasoning\\M005.png'
S'C:\\Users\\Jbarrett\\Charlie\\charlie\\stimuli\\visual\\matrix_reasoning\\M005a.png'
I2
I2
I2698
tp27
a(g18
g19
g22
I5
S'C:\\Users\\Jbarrett\\Charlie\\charlie\\stimuli\\visual\\matrix_reasoning\\M006.png'
S'C:\\Users\\Jbarrett\\Charlie\\charlie\\stimuli\\visual\\matrix_reasoning\\M006a.png'
I0
I0
I3415
tp28
a(g18
g19
g22
I6
S'C:\\Users\\Jbarrett\\Charlie\\charlie\\stimuli\\visual\\matrix_reasoning\\M007.png'
S'C:\\Users\\Jbarrett\\Charlie\\charlie\\stimuli\\visual\\matrix_reasoning\\M007a.png'
I0
I0
I2886
tp29
a(g18
g19
g22
I7
S'C:\\Users\\Jbarrett\\Charlie\\charlie\\stimuli\\visual\\matrix_reasoning\\M008.png'
S'C:\\Users\\Jbarrett\\Charlie\\charlie\\stimuli\\visual\\matrix_reasoning\\M008a.png'
I2
I0
I1484
tp30
a(g18
g19
g22
I8
S'C:\\Users\\Jbarrett\\Charlie\\charlie\\stimuli\\visual\\matrix_reasoning\\M009.png'
S'C:\\Users\\Jbarrett\\Charlie\\charlie\\stimuli\\visual\\matrix_reasoning\\M009a.png'
I4
I4
I2462
tp31
a(g18
g19
g22
I9
S'C:\\Users\\Jbarrett\\Charlie\\charlie\\stimuli\\visual\\matrix_reasoning\\M010.png'
S'C:\\Users\\Jbarrett\\Charlie\\charlie\\stimuli\\visual\\matrix_reasoning\\M010a.png'
I4
I2
I2108
tp32
a(g18
g19
g22
I10
S'C:\\Users\\Jbarrett\\Charlie\\charlie\\stimuli\\visual\\matrix_reasoning\\M011.png'
S'C:\\Users\\Jbarrett\\Charlie\\charlie\\stimuli\\visual\\matrix_reasoning\\M011a.png'
I4
I4
I3553
tp33
a(g18
g19
g22
I11
S'C:\\Users\\Jbarrett\\Charlie\\charlie\\stimuli\\visual\\matrix_reasoning\\M012.png'
S'C:\\Users\\Jbarrett\\Charlie\\charlie\\stimuli\\visual\\matrix_reasoning\\M012a.png'
I1
I1
I3328
tp34
a(g18
g19
g22
I12
S'C:\\Users\\Jbarrett\\Charlie\\charlie\\stimuli\\visual\\matrix_reasoning\\M013.png'
S'C:\\Users\\Jbarrett\\Charlie\\charlie\\stimuli\\visual\\matrix_reasoning\\M013a.png'
I2
I4
I3957
tp35
a(g18
g19
g22
I13
S'C:\\Users\\Jbarrett\\Charlie\\charlie\\stimuli\\visual\\matrix_reasoning\\M014.png'
S'C:\\Users\\Jbarrett\\Charlie\\charlie\\stimuli\\visual\\matrix_reasoning\\M014a.png'
I0
I0
I5371
tp36
a(g18
g19
g22
I14
S'C:\\Users\\Jbarrett\\Charlie\\charlie\\stimuli\\visual\\matrix_reasoning\\M015.png'
S'C:\\Users\\Jbarrett\\Charlie\\charlie\\stimuli\\visual\\matrix_reasoning\\M015a.png'
I1
I1
I4792
tp37
a(g18
g19
g22
I15
S'C:\\Users\\Jbarrett\\Charlie\\charlie\\stimuli\\visual\\matrix_reasoning\\M016.png'
S'C:\\Users\\Jbarrett\\Charlie\\charlie\\stimuli\\visual\\matrix_reasoning\\M016a.png'
I3
I3
I19708
tp38
a(g18
g19
g22
I16
S'C:\\Users\\Jbarrett\\Charlie\\charlie\\stimuli\\visual\\matrix_reasoning\\M017.png'
S'C:\\Users\\Jbarrett\\Charlie\\charlie\\stimuli\\visual\\matrix_reasoning\\M017a.png'
I2
I2
I4860
tp39
a(g18
g19
g22
I17
S'C:\\Users\\Jbarrett\\Charlie\\charlie\\stimuli\\visual\\matrix_reasoning\\M018.png'
S'C:\\Users\\Jbarrett\\Charlie\\charlie\\stimuli\\visual\\matrix_reasoning\\M018a.png'
I0
I0
I2539
tp40
a(g18
g19
g22
I18
S'C:\\Users\\Jbarrett\\Charlie\\charlie\\stimuli\\visual\\matrix_reasoning\\M019.png'
S'C:\\Users\\Jbarrett\\Charlie\\charlie\\stimuli\\visual\\matrix_reasoning\\M019a.png'
I0
I0
I12945
tp41
a(g18
g19
g22
I19
S'C:\\Users\\Jbarrett\\Charlie\\charlie\\stimuli\\visual\\matrix_reasoning\\M020.png'
S'C:\\Users\\Jbarrett\\Charlie\\charlie\\stimuli\\visual\\matrix_reasoning\\M020a.png'
I3
I3
I10576
tp42
a(g18
g19
g22
I20
S'C:\\Users\\Jbarrett\\Charlie\\charlie\\stimuli\\visual\\matrix_reasoning\\M021.png'
S'C:\\Users\\Jbarrett\\Charlie\\charlie\\stimuli\\visual\\matrix_reasoning\\M021a.png'
I4
I0
I9740
tp43
a(g18
g19
g22
I21
S'C:\\Users\\Jbarrett\\Charlie\\charlie\\stimuli\\visual\\matrix_reasoning\\M022.png'
S'C:\\Users\\Jbarrett\\Charlie\\charlie\\stimuli\\visual\\matrix_reasoning\\M022a.png'
I4
I2
I3512
tp44
a(g18
g19
g22
I22
S'C:\\Users\\Jbarrett\\Charlie\\charlie\\stimuli\\visual\\matrix_reasoning\\M023.png'
S'C:\\Users\\Jbarrett\\Charlie\\charlie\\stimuli\\visual\\matrix_reasoning\\M023a.png'
I1
I1
I17639
tp45
a(g18
g19
g22
I23
S'C:\\Users\\Jbarrett\\Charlie\\charlie\\stimuli\\visual\\matrix_reasoning\\M024.png'
S'C:\\Users\\Jbarrett\\Charlie\\charlie\\stimuli\\visual\\matrix_reasoning\\M024a.png'
I1
I1
I13307
tp46
a(g18
g19
g22
I24
S'C:\\Users\\Jbarrett\\Charlie\\charlie\\stimuli\\visual\\matrix_reasoning\\M025.png'
S'C:\\Users\\Jbarrett\\Charlie\\charlie\\stimuli\\visual\\matrix_reasoning\\M025a.png'
I0
I4
I9170
tp47
a(g18
g19
g22
I25
S'C:\\Users\\Jbarrett\\Charlie\\charlie\\stimuli\\visual\\matrix_reasoning\\M026.png'
S'C:\\Users\\Jbarrett\\Charlie\\charlie\\stimuli\\visual\\matrix_reasoning\\M026a.png'
I4
I2
I19860
tp48
a(g18
g19
g22
I26
S'C:\\Users\\Jbarrett\\Charlie\\charlie\\stimuli\\visual\\matrix_reasoning\\M027.png'
S'C:\\Users\\Jbarrett\\Charlie\\charlie\\stimuli\\visual\\matrix_reasoning\\M027a.png'
I3
I4
I15408
tp49
a(g18
g19
g22
I27
S'C:\\Users\\Jbarrett\\Charlie\\charlie\\stimuli\\visual\\matrix_reasoning\\M028.png'
S'C:\\Users\\Jbarrett\\Charlie\\charlie\\stimuli\\visual\\matrix_reasoning\\M028a.png'
I2
I2
I22904
tp50
a(g18
g19
g22
I28
S'C:\\Users\\Jbarrett\\Charlie\\charlie\\stimuli\\visual\\matrix_reasoning\\M029.png'
S'C:\\Users\\Jbarrett\\Charlie\\charlie\\stimuli\\visual\\matrix_reasoning\\M029a.png'
I2
I2
I52575
tp51
a(g18
g19
g22
I29
S'C:\\Users\\Jbarrett\\Charlie\\charlie\\stimuli\\visual\\matrix_reasoning\\M030.png'
S'C:\\Users\\Jbarrett\\Charlie\\charlie\\stimuli\\visual\\matrix_reasoning\\M030a.png'
I3
I2
I8367
tp52
a(g18
g19
g22
I30
S'C:\\Users\\Jbarrett\\Charlie\\charlie\\stimuli\\visual\\matrix_reasoning\\M031.png'
S'C:\\Users\\Jbarrett\\Charlie\\charlie\\stimuli\\visual\\matrix_reasoning\\M031a.png'
I0
I4
I19802
tp53
a(g18
g19
g22
I31
S'C:\\Users\\Jbarrett\\Charlie\\charlie\\stimuli\\visual\\matrix_reasoning\\M032.png'
S'C:\\Users\\Jbarrett\\Charlie\\charlie\\stimuli\\visual\\matrix_reasoning\\M032a.png'
I3
I3
I23809
tp54
a(g18
g19
g22
I32
S'C:\\Users\\Jbarrett\\Charlie\\charlie\\stimuli\\visual\\matrix_reasoning\\M033.png'
S'C:\\Users\\Jbarrett\\Charlie\\charlie\\stimuli\\visual\\matrix_reasoning\\M033a.png'
I1
I3
I30689
tp55
a(g18
g19
g22
I33
S'C:\\Users\\Jbarrett\\Charlie\\charlie\\stimuli\\visual\\matrix_reasoning\\M034.png'
p56
S'C:\\Users\\Jbarrett\\Charlie\\charlie\\stimuli\\visual\\matrix_reasoning\\M034a.png'
p57
I2
I1
I20062
tp58
asS'output_format'
p59
(lp60
(S'proband_id'
p61
c__builtin__
str
p62
tp63
a(S'test_name'
p64
g62
tp65
a(S'phase'
p66
g62
tp67
a(S'trialn'
p68
c__builtin__
int
p69
tp70
a(S'matrix'
p71
g62
tp72
a(S'array'
p73
g62
tp74
a(S'ans'
p75
g69
tp76
a(S'rsp'
p77
g69
tp78
a(S'rt'
p79
g69
tp80
asg61
g18
sS'filename'
p81
S'4382_matrix_reasoning.data'
p82
sS'initialised'
p83
g8
(S'\x07\xdf\x05\x14\x0b%8\x01D8'
tRp84
sS'last_udated'
p85
g8
(S'\x07\xdf\x05\x14\x0b%8\x01D8'
tRp86
sg64
S'matrix_reasoning'
p87
sS'directory'
p88
S'C:\\Users\\Jbarrett\\Charlie\\charlie\\data\\raw'
p89
sS'user_id'
p90
S'jbarrett'
p91
sS'test_started'
p92
I01
sS'abs_filename'
p93
S'C:\\Users\\Jbarrett\\Charlie\\charlie\\data\\raw\\4382_matrix_reasoning.data'
p94
sS'date_started'
p95
g8
(S'\x07\xdf\x05\x14\x0b&\x1e\x04\xba\xf0'
tRp96
sS'log'
p97
(lp98
(S'2015-05-20 11:37:56.083000'
S'instance created'
p99
tp100
a(S'2015-05-20 11:38:30.319000'
S'instance updated'
p101
tp102
a(S'2015-05-20 11:38:30.328000'
S'pandas DataFrame of data created'
p103
tp104
a(S'2015-05-20 11:38:30.333000'
S'data saved as csv to C:\\Users\\Jbarrett\\Charlie\\charlie\\data\\csv\\4382_matrix_reasoning.csv'
tp105
a(S'2015-05-20 11:38:30.342000'
g103
tp106
a(S'2015-05-20 11:38:42.224000'
g101
tp107
a(S'2015-05-20 11:38:42.234000'
g103
tp108
a(S'2015-05-20 11:38:42.238000'
S'data saved as csv to C:\\Users\\Jbarrett\\Charlie\\charlie\\data\\csv\\4382_matrix_reasoning.csv'
tp109
a(S'2015-05-20 11:38:42.247000'
g103
tp110
a(S'2015-05-20 11:38:45.128000'
g101
tp111
a(S'2015-05-20 11:38:45.137000'
g103
tp112
a(S'2015-05-20 11:38:45.139000'
S'data saved as csv to C:\\Users\\Jbarrett\\Charlie\\charlie\\data\\csv\\4382_matrix_reasoning.csv'
tp113
a(S'2015-05-20 11:38:45.142000'
g103
tp114
a(S'2015-05-20 11:38:47.976000'
g101
tp115
a(S'2015-05-20 11:38:47.986000'
g103
tp116
a(S'2015-05-20 11:38:47.989000'
S'data saved as csv to C:\\Users\\Jbarrett\\Charlie\\charlie\\data\\csv\\4382_matrix_reasoning.csv'
tp117
a(S'2015-05-20 11:38:47.994000'
g103
tp118
a(S'2015-05-20 11:38:50.288000'
g101
tp119
a(S'2015-05-20 11:38:50.298000'
g103
tp120
a(S'2015-05-20 11:38:50.302000'
S'data saved as csv to C:\\Users\\Jbarrett\\Charlie\\charlie\\data\\csv\\4382_matrix_reasoning.csv'
tp121
a(S'2015-05-20 11:38:50.311000'
g103
tp122
a(S'2015-05-20 11:38:53.152000'
g101
tp123
a(S'2015-05-20 11:38:53.162000'
g103
tp124
a(S'2015-05-20 11:38:53.166000'
S'data saved as csv to C:\\Users\\Jbarrett\\Charlie\\charlie\\data\\csv\\4382_matrix_reasoning.csv'
tp125
a(S'2015-05-20 11:38:53.176000'
g103
tp126
a(S'2015-05-20 11:38:56.729000'
g101
tp127
a(S'2015-05-20 11:38:56.738000'
g103
tp128
a(S'2015-05-20 11:38:56.742000'
S'data saved as csv to C:\\Users\\Jbarrett\\Charlie\\charlie\\data\\csv\\4382_matrix_reasoning.csv'
tp129
a(S'2015-05-20 11:38:56.750000'
g103
tp130
a(S'2015-05-20 11:38:59.776000'
g101
tp131
a(S'2015-05-20 11:38:59.785000'
g103
tp132
a(S'2015-05-20 11:38:59.789000'
S'data saved as csv to C:\\Users\\Jbarrett\\Charlie\\charlie\\data\\csv\\4382_matrix_reasoning.csv'
tp133
a(S'2015-05-20 11:38:59.799000'
g103
tp134
a(S'2015-05-20 11:39:01.422000'
g101
tp135
a(S'2015-05-20 11:39:01.432000'
g103
tp136
a(S'2015-05-20 11:39:01.436000'
S'data saved as csv to C:\\Users\\Jbarrett\\Charlie\\charlie\\data\\csv\\4382_matrix_reasoning.csv'
tp137
a(S'2015-05-20 11:39:01.446000'
g103
tp138
a(S'2015-05-20 11:39:04.048000'
g101
tp139
a(S'2015-05-20 11:39:04.058000'
g103
tp140
a(S'2015-05-20 11:39:04.062000'
S'data saved as csv to C:\\Users\\Jbarrett\\Charlie\\charlie\\data\\csv\\4382_matrix_reasoning.csv'
tp141
a(S'2015-05-20 11:39:04.068000'
g103
tp142
a(S'2015-05-20 11:39:06.312000'
g101
tp143
a(S'2015-05-20 11:39:06.322000'
g103
tp144
a(S'2015-05-20 11:39:06.326000'
S'data saved as csv to C:\\Users\\Jbarrett\\Charlie\\charlie\\data\\csv\\4382_matrix_reasoning.csv'
tp145
a(S'2015-05-20 11:39:06.336000'
g103
tp146
a(S'2015-05-20 11:39:10.032000'
g101
tp147
a(S'2015-05-20 11:39:10.040000'
g103
tp148
a(S'2015-05-20 11:39:10.043000'
S'data saved as csv to C:\\Users\\Jbarrett\\Charlie\\charlie\\data\\csv\\4382_matrix_reasoning.csv'
tp149
a(S'2015-05-20 11:39:10.050000'
g103
tp150
a(S'2015-05-20 11:39:13.520000'
g101
tp151
a(S'2015-05-20 11:39:13.530000'
g103
tp152
a(S'2015-05-20 11:39:13.534000'
S'data saved as csv to C:\\Users\\Jbarrett\\Charlie\\charlie\\data\\csv\\4382_matrix_reasoning.csv'
tp153
a(S'2015-05-20 11:39:13.544000'
g103
tp154
a(S'2015-05-20 11:39:17.639000'
g101
tp155
a(S'2015-05-20 11:39:17.649000'
g103
tp156
a(S'2015-05-20 11:39:17.653000'
S'data saved as csv to C:\\Users\\Jbarrett\\Charlie\\charlie\\data\\csv\\4382_matrix_reasoning.csv'
tp157
a(S'2015-05-20 11:39:17.659000'
g103
tp158
a(S'2015-05-20 11:39:23.167000'
g101
tp159
a(S'2015-05-20 11:39:23.177000'
g103
tp160
a(S'2015-05-20 11:39:23.181000'
S'data saved as csv to C:\\Users\\Jbarrett\\Charlie\\charlie\\data\\csv\\4382_matrix_reasoning.csv'
tp161
a(S'2015-05-20 11:39:23.190000'
g103
tp162
a(S'2015-05-20 11:39:28.126000'
g101
tp163
a(S'2015-05-20 11:39:28.133000'
g103
tp164
a(S'2015-05-20 11:39:28.136000'
S'data saved as csv to C:\\Users\\Jbarrett\\Charlie\\charlie\\data\\csv\\4382_matrix_reasoning.csv'
tp165
a(S'2015-05-20 11:39:28.142000'
g103
tp166
a(S'2015-05-20 11:39:47.988000'
g101
tp167
a(S'2015-05-20 11:39:47.995000'
g103
tp168
a(S'2015-05-20 11:39:47.998000'
S'data saved as csv to C:\\Users\\Jbarrett\\Charlie\\charlie\\data\\csv\\4382_matrix_reasoning.csv'
tp169
a(S'2015-05-20 11:39:48.006000'
g103
tp170
a(S'2015-05-20 11:39:53.005000'
g101
tp171
a(S'2015-05-20 11:39:53.015000'
g103
tp172
a(S'2015-05-20 11:39:53.019000'
S'data saved as csv to C:\\Users\\Jbarrett\\Charlie\\charlie\\data\\csv\\4382_matrix_reasoning.csv'
tp173
a(S'2015-05-20 11:39:53.026000'
g103
tp174
a(S'2015-05-20 11:39:55.701000'
g101
tp175
a(S'2015-05-20 11:39:55.711000'
g103
tp176
a(S'2015-05-20 11:39:55.715000'
S'data saved as csv to C:\\Users\\Jbarrett\\Charlie\\charlie\\data\\csv\\4382_matrix_reasoning.csv'
tp177
a(S'2015-05-20 11:39:55.723000'
g103
tp178
a(S'2015-05-20 11:40:08.805000'
g101
tp179
a(S'2015-05-20 11:40:08.814000'
g103
tp180
a(S'2015-05-20 11:40:08.818000'
S'data saved as csv to C:\\Users\\Jbarrett\\Charlie\\charlie\\data\\csv\\4382_matrix_reasoning.csv'
tp181
a(S'2015-05-20 11:40:08.826000'
g103
tp182
a(S'2015-05-20 11:40:19.540000'
g101
tp183
a(S'2015-05-20 11:40:19.550000'
g103
tp184
a(S'2015-05-20 11:40:19.554000'
S'data saved as csv to C:\\Users\\Jbarrett\\Charlie\\charlie\\data\\csv\\4382_matrix_reasoning.csv'
tp185
a(S'2015-05-20 11:40:19.565000'
g103
tp186
a(S'2015-05-20 11:40:29.443000'
g101
tp187
a(S'2015-05-20 11:40:29.452000'
g103
tp188
a(S'2015-05-20 11:40:29.456000'
S'data saved as csv to C:\\Users\\Jbarrett\\Charlie\\charlie\\data\\csv\\4382_matrix_reasoning.csv'
tp189
a(S'2015-05-20 11:40:29.465000'
g103
tp190
a(S'2015-05-20 11:40:33.107000'
g101
tp191
a(S'2015-05-20 11:40:33.111000'
g103
tp192
a(S'2015-05-20 11:40:33.112000'
S'data saved as csv to C:\\Users\\Jbarrett\\Charlie\\charlie\\data\\csv\\4382_matrix_reasoning.csv'
tp193
a(S'2015-05-20 11:40:33.116000'
g103
tp194
a(S'2015-05-20 11:40:50.890000'
g101
tp195
a(S'2015-05-20 11:40:50.900000'
g103
tp196
a(S'2015-05-20 11:40:50.904000'
S'data saved as csv to C:\\Users\\Jbarrett\\Charlie\\charlie\\data\\csv\\4382_matrix_reasoning.csv'
tp197
a(S'2015-05-20 11:40:50.914000'
g103
tp198
a(S'2015-05-20 11:41:04.361000'
g101
tp199
a(S'2015-05-20 11:41:04.368000'
g103
tp200
a(S'2015-05-20 11:41:04.371000'
S'data saved as csv to C:\\Users\\Jbarrett\\Charlie\\charlie\\data\\csv\\4382_matrix_reasoning.csv'
tp201
a(S'2015-05-20 11:41:04.378000'
g103
tp202
a(S'2015-05-20 11:41:13.689000'
g101
tp203
a(S'2015-05-20 11:41:13.698000'
g103
tp204
a(S'2015-05-20 11:41:13.702000'
S'data saved as csv to C:\\Users\\Jbarrett\\Charlie\\charlie\\data\\csv\\4382_matrix_reasoning.csv'
tp205
a(S'2015-05-20 11:41:13.711000'
g103
tp206
a(S'2015-05-20 11:41:33.712000'
g101
tp207
a(S'2015-05-20 11:41:33.722000'
g103
tp208
a(S'2015-05-20 11:41:33.727000'
S'data saved as csv to C:\\Users\\Jbarrett\\Charlie\\charlie\\data\\csv\\4382_matrix_reasoning.csv'
tp209
a(S'2015-05-20 11:41:33.732000'
g103
tp210
a(S'2015-05-20 11:41:49.279000'
g101
tp211
a(S'2015-05-20 11:41:49.291000'
g103
tp212
a(S'2015-05-20 11:41:49.295000'
S'data saved as csv to C:\\Users\\Jbarrett\\Charlie\\charlie\\data\\csv\\4382_matrix_reasoning.csv'
tp213
a(S'2015-05-20 11:41:49.300000'
g103
tp214
a(S'2015-05-20 11:42:12.342000'
g101
tp215
a(S'2015-05-20 11:42:12.352000'
g103
tp216
a(S'2015-05-20 11:42:12.357000'
S'data saved as csv to C:\\Users\\Jbarrett\\Charlie\\charlie\\data\\csv\\4382_matrix_reasoning.csv'
tp217
a(S'2015-05-20 11:42:12.365000'
g103
tp218
a(S'2015-05-20 11:43:05.076000'
g101
tp219
a(S'2015-05-20 11:43:05.085000'
g103
tp220
a(S'2015-05-20 11:43:05.089000'
S'data saved as csv to C:\\Users\\Jbarrett\\Charlie\\charlie\\data\\csv\\4382_matrix_reasoning.csv'
tp221
a(S'2015-05-20 11:43:05.098000'
g103
tp222
a(S'2015-05-20 11:43:13.591000'
g101
tp223
a(S'2015-05-20 11:43:13.594000'
g103
tp224
a(S'2015-05-20 11:43:13.596000'
S'data saved as csv to C:\\Users\\Jbarrett\\Charlie\\charlie\\data\\csv\\4382_matrix_reasoning.csv'
tp225
a(S'2015-05-20 11:43:13.599000'
g103
tp226
a(S'2015-05-20 11:43:33.538000'
g101
tp227
a(S'2015-05-20 11:43:33.544000'
g103
tp228
a(S'2015-05-20 11:43:33.546000'
S'data saved as csv to C:\\Users\\Jbarrett\\Charlie\\charlie\\data\\csv\\4382_matrix_reasoning.csv'
tp229
a(S'2015-05-20 11:43:33.550000'
g103
tp230
a(S'2015-05-20 11:43:57.497000'
g101
tp231
a(S'2015-05-20 11:43:57.507000'
g103
tp232
a(S'2015-05-20 11:43:57.510000'
S'data saved as csv to C:\\Users\\Jbarrett\\Charlie\\charlie\\data\\csv\\4382_matrix_reasoning.csv'
tp233
a(S'2015-05-20 11:43:57.516000'
g103
tp234
a(S'2015-05-20 11:44:28.343000'
g101
tp235
a(S'2015-05-20 11:44:28.354000'
g103
tp236
a(S'2015-05-20 11:44:28.358000'
S'data saved as csv to C:\\Users\\Jbarrett\\Charlie\\charlie\\data\\csv\\4382_matrix_reasoning.csv'
tp237
a(S'2015-05-20 11:44:28.368000'
g103
tp238
a(S'2015-05-20 11:44:48.568000'
g101
tp239
a(S'2015-05-20 11:44:48.572000'
g103
tp240
a(S'2015-05-20 11:44:48.574000'
S'data saved as csv to C:\\Users\\Jbarrett\\Charlie\\charlie\\data\\csv\\4382_matrix_reasoning.csv'
tp241
a(S'2015-05-20 11:44:48.578000'
g103
tp242
asb.