(icharlie.tools.data
Data
p1
(dp2
S'lang'
p3
S'EN'
p4
sS'control'
p5
(lp6
sS'last_updated'
p7
cdatetime
datetime
p8
(S'\x07\xdf\x05\x14\x0c\x065\x06\xc6`'
tRp9
sS'last_opened'
p10
g8
(S'\x07\xdf\x05\x14\x0c\x02\x0c\x0e\xff\xd8'
tRp11
sS'proj_id'
p12
S'connectivity'
p13
sS'date_done'
p14
NsS'test_done'
p15
I01
sS'data'
p16
(lp17
(S'4382'
p18
S'ctrails'
p19
S'number'
p20
S'practice'
p21
I0
I1
S'Correct'
p22
I8251
I16570
tp23
a(g18
g19
g20
g21
I1
I2
g22
I1340
I16570
tp24
a(g18
g19
g20
g21
I2
I3
g22
I580
I16570
tp25
a(g18
g19
g20
g21
I3
I4
g22
I1430
I16570
tp26
a(g18
g19
g20
g21
I4
I5
g22
I1750
I16570
tp27
a(g18
g19
g20
g21
I5
I6
g22
I1610
I16570
tp28
a(g18
g19
g20
g21
I6
I7
g22
I820
I16570
tp29
a(g18
g19
g20
g21
I7
I8
g22
I760
I16570
tp30
a(g18
g19
g20
S'test'
p31
I0
I1
g22
I3270
I44259
tp32
a(g18
g19
g20
g31
I1
I2
g22
I3470
I44259
tp33
a(g18
g19
g20
g31
I2
I3
g22
I3040
I44259
tp34
a(g18
g19
g20
g31
I3
I4
g22
I750
I44259
tp35
a(g18
g19
g20
g31
I4
I5
g22
I2090
I44259
tp36
a(g18
g19
g20
g31
I5
I6
g22
I3081
I44259
tp37
a(g18
g19
g20
g31
I6
I7
g22
I2630
I44259
tp38
a(g18
g19
g20
g31
I7
I8
g22
I680
I44259
tp39
a(g18
g19
g20
g31
I8
I9
g22
I860
I44259
tp40
a(g18
g19
g20
g31
I9
I10
g22
I740
I44259
tp41
a(g18
g19
g20
g31
I10
I11
g22
I2210
I44259
tp42
a(g18
g19
g20
g31
I11
I12
g22
I710
I44259
tp43
a(g18
g19
g20
g31
I12
I13
g22
I740
I44259
tp44
a(g18
g19
g20
g31
I13
I15
S'Incorrect'
p45
I720
I44259
tp46
a(g18
g19
g20
g31
I14
I14
g22
I280
I44259
tp47
a(g18
g19
g20
g31
I15
I15
g22
I440
I44259
tp48
a(g18
g19
g20
g31
I16
I16
g22
I1220
I44259
tp49
a(g18
g19
g20
g31
I17
I17
g22
I1251
I44259
tp50
a(g18
g19
g20
g31
I18
I18
g22
I2070
I44259
tp51
a(g18
g19
g20
g31
I19
I19
g22
I650
I44259
tp52
a(g18
g19
g20
g31
I20
I20
g22
I1160
I44259
tp53
a(g18
g19
g20
g31
I21
I21
g22
I2410
I44259
tp54
a(g18
g19
g20
g31
I22
I22
g22
I2290
I44259
tp55
a(g18
g19
g20
g31
I23
I23
g22
I960
I44259
tp56
a(g18
g19
g20
g31
I24
I24
g22
I950
I44259
tp57
a(g18
g19
g20
g31
I25
I25
g22
I630
I44259
tp58
a(g18
g19
S'letter'
p59
g21
I0
S'a'
g22
I2280
I9632
tp60
a(g18
g19
g59
g21
I1
S'b'
g22
I820
I9632
tp61
a(g18
g19
g59
g21
I2
S'c'
g22
I1170
I9632
tp62
a(g18
g19
g59
g21
I3
S'd'
g22
I760
I9632
tp63
a(g18
g19
g59
g21
I4
S'e'
g22
I700
I9632
tp64
a(g18
g19
g59
g21
I5
S'f'
g22
I340
I9632
tp65
a(g18
g19
g59
g21
I6
S'g'
g22
I801
I9632
tp66
a(g18
g19
g59
g21
I7
S'h'
g22
I1050
I9632
tp67
a(g18
g19
g59
g31
I0
S'a'
g22
I1990
I39177
tp68
a(g18
g19
g59
g31
I1
S'b'
g22
I4930
I39177
tp69
a(g18
g19
g59
g31
I2
S'c'
g22
I1420
I39177
tp70
a(g18
g19
g59
g31
I3
S'd'
g22
I1421
I39177
tp71
a(g18
g19
g59
g31
I4
S'e'
g22
I640
I39177
tp72
a(g18
g19
g59
g31
I5
S'f'
g22
I540
I39177
tp73
a(g18
g19
g59
g31
I6
S'h'
g45
I5380
I39177
tp74
a(g18
g19
g59
g31
I7
S'g'
g22
I2060
I39177
tp75
a(g18
g19
g59
g31
I8
S'h'
g22
I890
I39177
tp76
a(g18
g19
g59
g31
I9
S'i'
g22
I820
I39177
tp77
a(g18
g19
g59
g31
I10
S'j'
g22
I730
I39177
tp78
a(g18
g19
g59
g31
I11
S'k'
g22
I1620
I39177
tp79
a(g18
g19
g59
g31
I12
S'l'
g22
I1390
I39177
tp80
a(g18
g19
g59
g31
I13
S'm'
g22
I860
I39177
tp81
a(g18
g19
g59
g31
I14
S'n'
g22
I1471
I39177
tp82
a(g18
g19
g59
g31
I15
S'o'
g22
I700
I39177
tp83
a(g18
g19
g59
g31
I16
S'p'
g22
I1190
I39177
tp84
a(g18
g19
g59
g31
I17
S'q'
g22
I370
I39177
tp85
a(g18
g19
g59
g31
I18
S'r'
g22
I630
I39177
tp86
a(g18
g19
g59
g31
I19
S's'
g22
I700
I39177
tp87
a(g18
g19
g59
g31
I20
S't'
g22
I590
I39177
tp88
a(g18
g19
g59
g31
I21
S'u'
g22
I680
I39177
tp89
a(g18
g19
g59
g31
I22
S'v'
g22
I530
I39177
tp90
a(g18
g19
g59
g31
I23
S'w'
g22
I580
I39177
tp91
a(g18
g19
g59
g31
I24
S'y'
g45
I1530
I39177
tp92
a(g18
g19
g59
g31
I25
S'x'
g22
I3830
I39177
tp93
a(g18
g19
g59
g31
I26
S'y'
g22
I690
I39177
tp94
a(g18
g19
S'number-letter'
p95
g21
I0
I1
g22
I2240
I10399
tp96
a(g18
g19
g95
g21
I1
S'a'
g22
I850
I10399
tp97
a(g18
g19
g95
g21
I2
I2
g22
I2130
I10399
tp98
a(g18
g19
g95
g21
I3
S'b'
g22
I1361
I10399
tp99
a(g18
g19
g95
g21
I4
I3
g22
I1050
I10399
tp100
a(g18
g19
g95
g21
I5
S'c'
g22
I880
I10399
tp101
a(g18
g19
g95
g21
I6
I4
g22
I1100
I10399
tp102
a(g18
g19
g95
g21
I7
S'd'
g22
I760
I10399
tp103
a(g18
g19
g95
g31
I0
I1
g22
I4830
I68834
tp104
a(g18
g19
g95
g31
I1
S'a'
g22
I600
I68834
tp105
a(g18
g19
g95
g31
I2
I2
g22
I1291
I68834
tp106
a(g18
g19
g95
g31
I3
S'b'
g22
I2110
I68834
tp107
a(g18
g19
g95
g31
I4
I3
g22
I2260
I68834
tp108
a(g18
g19
g95
g31
I5
S'c'
g22
I4100
I68834
tp109
a(g18
g19
g95
g31
I6
I4
g22
I1750
I68834
tp110
a(g18
g19
g95
g31
I7
S'd'
g22
I930
I68834
tp111
a(g18
g19
g95
g31
I8
I5
g22
I1780
I68834
tp112
a(g18
g19
g95
g31
I9
S'e'
g22
I1670
I68834
tp113
a(g18
g19
g95
g31
I10
I6
g22
I2361
I68834
tp114
a(g18
g19
g95
g31
I11
S'f'
g22
I1090
I68834
tp115
a(g18
g19
g95
g31
I12
I7
g22
I2630
I68834
tp116
a(g18
g19
g95
g31
I13
S'g'
g22
I1230
I68834
tp117
a(g18
g19
g95
g31
I14
I8
g22
I5280
I68834
tp118
a(g18
g19
g95
g31
I15
S'h'
g22
I890
I68834
tp119
a(g18
g19
g95
g31
I16
I9
g22
I2890
I68834
tp120
a(g18
g19
g95
g31
I17
S'i'
g22
I1990
I68834
tp121
a(g18
g19
g95
g31
I18
I10
g22
I4121
I68834
tp122
a(g18
g19
g95
g31
I19
S'j'
g22
I430
I68834
tp123
a(g18
g19
g95
g31
I20
I11
g22
I2930
I68834
tp124
a(g18
g19
g95
g31
I21
S'k'
g22
I2830
I68834
tp125
a(g18
g19
g95
g31
I22
I12
g22
I3790
I68834
tp126
a(g18
g19
g95
g31
I23
S'l'
g22
I11791
I68834
tp127
a(g18
g19
g95
g31
I24
I13
g22
I1620
I68834
tp128
asS'output_format'
p129
(lp130
(S'proband_id'
p131
c__builtin__
str
p132
tp133
a(S'test_name'
p134
g132
tp135
a(S'phase'
p136
g132
tp137
a(S'trial_type'
p138
g132
tp139
a(S'n'
c__builtin__
int
p140
tp141
a(S'rsp'
p142
g132
tp143
a(S'corr'
p144
g132
tp145
a(S'rt'
p146
g140
tp147
a(S'total_time'
p148
g140
tp149
asg131
g18
sS'filename'
p150
S'4382_ctrails.data'
p151
sS'initialised'
p152
g8
(S'\x07\xdf\x05\x14\x0c\x02\x0c\x0e\xff\xd8'
tRp153
sS'last_udated'
p154
g8
(S'\x07\xdf\x05\x14\x0c\x02\x0c\x0e\xff\xd8'
tRp155
sg134
S'ctrails'
p156
sS'directory'
p157
S'C:\\Users\\Jbarrett\\Charlie\\charlie\\data\\raw'
p158
sS'user_id'
p159
S'jbarrett'
p160
sS'test_started'
p161
I01
sS'abs_filename'
p162
S'C:\\Users\\Jbarrett\\Charlie\\charlie\\data\\raw\\4382_ctrails.data'
p163
sS'date_started'
p164
g8
(S'\x07\xdf\x05\x14\x0c\x03\x04\x0c1\x18'
tRp165
sS'log'
p166
(lp167
(S'2015-05-20 12:02:12.983000'
S'instance created'
p168
tp169
a(S'2015-05-20 12:03:04.804000'
S'instance updated'
p170
tp171
a(S'2015-05-20 12:03:04.810000'
S'pandas DataFrame of data created'
p172
tp173
a(S'2015-05-20 12:03:04.812000'
S'data saved as csv to C:\\Users\\Jbarrett\\Charlie\\charlie\\data\\csv\\4382_ctrails.csv'
tp174
a(S'2015-05-20 12:03:59.761000'
g170
tp175
a(S'2015-05-20 12:03:59.764000'
g172
tp176
a(S'2015-05-20 12:03:59.765000'
S'data saved as csv to C:\\Users\\Jbarrett\\Charlie\\charlie\\data\\csv\\4382_ctrails.csv'
tp177
a(S'2015-05-20 12:04:24.506000'
g170
tp178
a(S'2015-05-20 12:04:24.510000'
g172
tp179
a(S'2015-05-20 12:04:24.512000'
S'data saved as csv to C:\\Users\\Jbarrett\\Charlie\\charlie\\data\\csv\\4382_ctrails.csv'
tp180
a(S'2015-05-20 12:05:11.124000'
g170
tp181
a(S'2015-05-20 12:05:11.127000'
g172
tp182
a(S'2015-05-20 12:05:11.128000'
S'data saved as csv to C:\\Users\\Jbarrett\\Charlie\\charlie\\data\\csv\\4382_ctrails.csv'
tp183
a(S'2015-05-20 12:05:37.035000'
g170
tp184
a(S'2015-05-20 12:05:37.038000'
g172
tp185
a(S'2015-05-20 12:05:37.039000'
S'data saved as csv to C:\\Users\\Jbarrett\\Charlie\\charlie\\data\\csv\\4382_ctrails.csv'
tp186
a(S'2015-05-20 12:06:53.437000'
g170
tp187
a(S'2015-05-20 12:06:53.442000'
g172
tp188
a(S'2015-05-20 12:06:53.444000'
S'data saved as csv to C:\\Users\\Jbarrett\\Charlie\\charlie\\data\\csv\\4382_ctrails.csv'
tp189
asb.