(icharlie.tools.data
Data
p1
(dp2
S'lang'
p3
S'EN'
p4
sS'control'
p5
(lp6
sS'last_updated'
p7
cdatetime
datetime
p8
(S'\x07\xdf\x05\x1b\r:.\x0bB\xd0'
tRp9
sS'last_opened'
p10
g8
(S'\x07\xdf\x05\x1b\r1\x0b\x05\xf3p'
tRp11
sS'proj_id'
p12
S'connectivity'
p13
sS'date_done'
p14
NsS'test_done'
p15
I01
sS'data'
p16
(lp17
(S'4383'
p18
S'switching'
p19
S'practice'
p20
I0
S'Position'
p21
S'Left'
p22
S'Right'
p23
S'n/a'
p24
S'Incongruent'
p25
S'c:\\Charlie\\charlie\\stimuli\\visual\\switching\\arrow_blue_right.png'
g22
S'Left'
p26
I10300
tp27
a(g18
g19
g20
I1
g21
g22
g23
S'Non-switch'
p28
g25
S'c:\\Charlie\\charlie\\stimuli\\visual\\switching\\arrow_blue_right.png'
g22
g26
I2941
tp29
a(g18
g19
g20
I2
S'Direction'
p30
g22
g23
S'Switch'
p31
g25
S'c:\\Charlie\\charlie\\stimuli\\visual\\switching\\arrow_red_right.png'
g23
S'Right'
p32
I5130
tp33
a(g18
g19
g20
I3
g30
g23
g22
g28
g25
S'c:\\Charlie\\charlie\\stimuli\\visual\\switching\\arrow_red_left.png'
g22
g26
I4650
tp34
a(g18
g19
g20
I4
g21
g23
g23
g31
S'Congruent'
p35
S'c:\\Charlie\\charlie\\stimuli\\visual\\switching\\arrow_blue_right.png'
g23
g32
I3581
tp36
a(g18
g19
g20
I5
g21
g23
g22
g28
g25
S'c:\\Charlie\\charlie\\stimuli\\visual\\switching\\arrow_blue_left.png'
g23
g32
I1700
tp37
a(g18
g19
g20
I6
g30
g22
g22
g31
g35
S'c:\\Charlie\\charlie\\stimuli\\visual\\switching\\arrow_red_left.png'
g22
g26
I1490
tp38
a(g18
g19
g20
I7
g30
g23
g22
g28
g25
S'c:\\Charlie\\charlie\\stimuli\\visual\\switching\\arrow_red_left.png'
g22
g26
I1330
tp39
a(g18
g19
g20
I8
g21
g22
g22
g31
g35
S'c:\\Charlie\\charlie\\stimuli\\visual\\switching\\arrow_blue_left.png'
g22
g26
I2120
tp40
a(g18
g19
S'predictable'
p41
I0
g21
g22
g22
g24
g35
S'c:\\Charlie\\charlie\\stimuli\\visual\\switching\\arrow_blue_left.png'
g22
g26
I5790
tp42
a(g18
g19
g41
I1
g21
g22
g22
g28
g35
S'c:\\Charlie\\charlie\\stimuli\\visual\\switching\\arrow_blue_left.png'
g22
g26
I1301
tp43
a(g18
g19
g41
I2
g30
g22
g22
g31
g35
S'c:\\Charlie\\charlie\\stimuli\\visual\\switching\\arrow_red_left.png'
g22
g26
I1360
tp44
a(g18
g19
g41
I3
g30
g23
g23
g28
g35
S'c:\\Charlie\\charlie\\stimuli\\visual\\switching\\arrow_red_right.png'
g23
g32
I2470
tp45
a(g18
g19
g41
I4
g21
g22
g23
g31
g25
S'c:\\Charlie\\charlie\\stimuli\\visual\\switching\\arrow_blue_right.png'
g22
g26
I1340
tp46
a(g18
g19
g41
I5
g21
g22
g23
g28
g25
S'c:\\Charlie\\charlie\\stimuli\\visual\\switching\\arrow_blue_right.png'
g22
g26
I660
tp47
a(g18
g19
g41
I6
g30
g23
g23
g31
g35
S'c:\\Charlie\\charlie\\stimuli\\visual\\switching\\arrow_red_right.png'
g23
g32
I1510
tp48
a(g18
g19
g41
I7
g30
g22
g23
g28
g25
S'c:\\Charlie\\charlie\\stimuli\\visual\\switching\\arrow_red_right.png'
g23
g32
I930
tp49
a(g18
g19
g41
I8
g21
g23
g23
g31
g35
S'c:\\Charlie\\charlie\\stimuli\\visual\\switching\\arrow_blue_right.png'
g23
g32
I1910
tp50
a(g18
g19
g41
I9
g21
g23
g23
g28
g35
S'c:\\Charlie\\charlie\\stimuli\\visual\\switching\\arrow_blue_right.png'
g23
g32
I520
tp51
a(g18
g19
g41
I10
g30
g22
g23
g31
g25
S'c:\\Charlie\\charlie\\stimuli\\visual\\switching\\arrow_red_right.png'
g23
g32
I1850
tp52
a(g18
g19
g41
I11
g30
g22
g22
g28
g35
S'c:\\Charlie\\charlie\\stimuli\\visual\\switching\\arrow_red_left.png'
g22
g26
I1770
tp53
a(g18
g19
g41
I12
g21
g23
g23
g31
g35
S'c:\\Charlie\\charlie\\stimuli\\visual\\switching\\arrow_blue_right.png'
g23
g32
I2181
tp54
a(g18
g19
g41
I13
g21
g22
g22
g28
g35
S'c:\\Charlie\\charlie\\stimuli\\visual\\switching\\arrow_blue_left.png'
g22
g26
I1150
tp55
a(g18
g19
g41
I14
g30
g23
g23
g31
g35
S'c:\\Charlie\\charlie\\stimuli\\visual\\switching\\arrow_red_right.png'
g23
g32
I1250
tp56
a(g18
g19
g41
I15
g30
g22
g23
g28
g25
S'c:\\Charlie\\charlie\\stimuli\\visual\\switching\\arrow_red_right.png'
g23
g32
I840
tp57
a(g18
g19
g41
I16
g21
g23
g23
g31
g35
S'c:\\Charlie\\charlie\\stimuli\\visual\\switching\\arrow_blue_right.png'
g23
g32
I1420
tp58
a(g18
g19
g41
I17
g21
g22
g23
g28
g25
S'c:\\Charlie\\charlie\\stimuli\\visual\\switching\\arrow_blue_right.png'
g22
g26
I1720
tp59
a(g18
g19
g41
I18
g30
g22
g22
g31
g35
S'c:\\Charlie\\charlie\\stimuli\\visual\\switching\\arrow_red_left.png'
g22
g26
I2840
tp60
a(g18
g19
g41
I19
g30
g22
g22
g28
g35
S'c:\\Charlie\\charlie\\stimuli\\visual\\switching\\arrow_red_left.png'
g22
g26
I1870
tp61
a(g18
g19
g41
I20
g21
g22
g23
g31
g25
S'c:\\Charlie\\charlie\\stimuli\\visual\\switching\\arrow_blue_right.png'
g22
g26
I2130
tp62
a(g18
g19
g41
I21
g21
g22
g23
g28
g25
S'c:\\Charlie\\charlie\\stimuli\\visual\\switching\\arrow_blue_right.png'
g22
g26
I1000
tp63
a(g18
g19
g41
I22
g30
g23
g23
g31
g35
S'c:\\Charlie\\charlie\\stimuli\\visual\\switching\\arrow_red_right.png'
g23
g32
I2311
tp64
a(g18
g19
g41
I23
g30
g23
g22
g28
g25
S'c:\\Charlie\\charlie\\stimuli\\visual\\switching\\arrow_red_left.png'
g22
g26
I8620
tp65
a(g18
g19
g41
I24
g21
g23
g22
g31
g25
S'c:\\Charlie\\charlie\\stimuli\\visual\\switching\\arrow_blue_left.png'
g23
g32
I3790
tp66
a(g18
g19
g41
I25
g21
g22
g22
g28
g35
S'c:\\Charlie\\charlie\\stimuli\\visual\\switching\\arrow_blue_left.png'
g22
g26
I2230
tp67
a(g18
g19
g41
I26
g30
g22
g22
g31
g35
S'c:\\Charlie\\charlie\\stimuli\\visual\\switching\\arrow_red_left.png'
g22
g26
I1451
tp68
a(g18
g19
g41
I27
g30
g22
g22
g28
g35
S'c:\\Charlie\\charlie\\stimuli\\visual\\switching\\arrow_red_left.png'
g22
g26
I530
tp69
a(g18
g19
g41
I28
g21
g22
g23
g31
g25
S'c:\\Charlie\\charlie\\stimuli\\visual\\switching\\arrow_blue_right.png'
g22
g26
I2090
tp70
a(g18
g19
g41
I29
g21
g23
g22
g28
g25
S'c:\\Charlie\\charlie\\stimuli\\visual\\switching\\arrow_blue_left.png'
g23
g32
I1390
tp71
a(g18
g19
g41
I30
g30
g22
g22
g31
g35
S'c:\\Charlie\\charlie\\stimuli\\visual\\switching\\arrow_red_left.png'
g22
g26
I1680
tp72
a(g18
g19
g41
I31
g30
g22
g22
g28
g35
S'c:\\Charlie\\charlie\\stimuli\\visual\\switching\\arrow_red_left.png'
g22
g26
I940
tp73
a(g18
g19
g41
I32
g21
g23
g23
g31
g35
S'c:\\Charlie\\charlie\\stimuli\\visual\\switching\\arrow_blue_right.png'
g23
g32
I5181
tp74
a(g18
g19
g41
I33
g21
g23
g23
g28
g35
S'c:\\Charlie\\charlie\\stimuli\\visual\\switching\\arrow_blue_right.png'
g23
g32
I1200
tp75
a(g18
g19
g41
I34
g30
g23
g22
g31
g25
S'c:\\Charlie\\charlie\\stimuli\\visual\\switching\\arrow_red_left.png'
g22
g26
I1300
tp76
a(g18
g19
g41
I35
g30
g23
g23
g28
g35
S'c:\\Charlie\\charlie\\stimuli\\visual\\switching\\arrow_red_right.png'
g23
g32
I1041
tp77
a(g18
g19
g41
I36
g21
g22
g23
g31
g25
S'c:\\Charlie\\charlie\\stimuli\\visual\\switching\\arrow_blue_right.png'
g22
g26
I3340
tp78
a(g18
g19
g41
I37
g21
g23
g23
g28
g35
S'c:\\Charlie\\charlie\\stimuli\\visual\\switching\\arrow_blue_right.png'
g23
g32
I8510
tp79
a(g18
g19
g41
I38
g30
g22
g23
g31
g25
S'c:\\Charlie\\charlie\\stimuli\\visual\\switching\\arrow_red_right.png'
g23
g32
I2050
tp80
a(g18
g19
g41
I39
g30
g23
g22
g28
g25
S'c:\\Charlie\\charlie\\stimuli\\visual\\switching\\arrow_red_left.png'
g22
g26
I1620
tp81
a(g18
g19
g41
I40
g21
g23
g23
g31
g35
S'c:\\Charlie\\charlie\\stimuli\\visual\\switching\\arrow_blue_right.png'
g23
g32
I5311
tp82
a(g18
g19
g41
I41
g21
g23
g22
g28
g25
S'c:\\Charlie\\charlie\\stimuli\\visual\\switching\\arrow_blue_left.png'
g23
g32
I1270
tp83
a(g18
g19
g41
I42
g30
g22
g22
g31
g35
S'c:\\Charlie\\charlie\\stimuli\\visual\\switching\\arrow_red_left.png'
g22
g26
I4730
tp84
a(g18
g19
g41
I43
g30
g22
g22
g28
g35
S'c:\\Charlie\\charlie\\stimuli\\visual\\switching\\arrow_red_left.png'
g22
g26
I530
tp85
a(g18
g19
g41
I44
g21
g23
g22
g31
g25
S'c:\\Charlie\\charlie\\stimuli\\visual\\switching\\arrow_blue_left.png'
g23
g32
I1440
tp86
a(g18
g19
g41
I45
g21
g23
g22
g28
g25
S'c:\\Charlie\\charlie\\stimuli\\visual\\switching\\arrow_blue_left.png'
g23
g32
I410
tp87
a(g18
g19
g41
I46
g30
g23
g22
g31
g25
S'c:\\Charlie\\charlie\\stimuli\\visual\\switching\\arrow_red_left.png'
g22
g26
I1300
tp88
a(g18
g19
g41
I47
g30
g22
g22
g28
g35
S'c:\\Charlie\\charlie\\stimuli\\visual\\switching\\arrow_red_left.png'
g22
g26
I830
tp89
a(g18
g19
g41
I48
g21
g23
g22
g31
g25
S'c:\\Charlie\\charlie\\stimuli\\visual\\switching\\arrow_blue_left.png'
g23
g32
I1301
tp90
a(g18
g19
g41
I49
g21
g22
g23
g28
g25
S'c:\\Charlie\\charlie\\stimuli\\visual\\switching\\arrow_blue_right.png'
g22
g26
I2630
tp91
a(g18
g19
g41
I50
g30
g23
g22
g31
g25
S'c:\\Charlie\\charlie\\stimuli\\visual\\switching\\arrow_red_left.png'
g22
g26
I1960
tp92
a(g18
g19
g41
I51
g30
g22
g22
g28
g35
S'c:\\Charlie\\charlie\\stimuli\\visual\\switching\\arrow_red_left.png'
g22
g26
I2240
tp93
a(g18
g19
g41
I52
g21
g23
g22
g31
g25
S'c:\\Charlie\\charlie\\stimuli\\visual\\switching\\arrow_blue_left.png'
g23
g32
I1680
tp94
a(g18
g19
g41
I53
g21
g23
g22
g28
g25
S'c:\\Charlie\\charlie\\stimuli\\visual\\switching\\arrow_blue_left.png'
g23
g32
I610
tp95
a(g18
g19
g41
I54
g30
g23
g22
g31
g25
S'c:\\Charlie\\charlie\\stimuli\\visual\\switching\\arrow_red_left.png'
g22
g26
I1650
tp96
a(g18
g19
g41
I55
g30
g23
g23
g28
g35
S'c:\\Charlie\\charlie\\stimuli\\visual\\switching\\arrow_red_right.png'
g23
g32
I1530
tp97
a(g18
g19
g41
I56
g21
g22
g23
g31
g25
S'c:\\Charlie\\charlie\\stimuli\\visual\\switching\\arrow_blue_right.png'
g22
g26
I2300
tp98
a(g18
g19
g41
I57
g21
g22
g23
g28
g25
S'c:\\Charlie\\charlie\\stimuli\\visual\\switching\\arrow_blue_right.png'
g22
g26
I1491
tp99
a(g18
g19
g41
I58
g30
g23
g23
g31
g35
S'c:\\Charlie\\charlie\\stimuli\\visual\\switching\\arrow_red_right.png'
g23
g32
I4450
tp100
a(g18
g19
g41
I59
g30
g22
g22
g28
g35
S'c:\\Charlie\\charlie\\stimuli\\visual\\switching\\arrow_red_left.png'
g22
g26
I800
tp101
a(g18
g19
g41
I60
g21
g22
g22
g31
g35
S'c:\\Charlie\\charlie\\stimuli\\visual\\switching\\arrow_blue_left.png'
g22
g26
I1280
tp102
a(g18
g19
g41
I61
g21
g22
g22
g28
g35
S'c:\\Charlie\\charlie\\stimuli\\visual\\switching\\arrow_blue_left.png'
g22
g26
I490
tp103
a(g18
g19
g41
I62
g30
g23
g23
g31
g35
S'c:\\Charlie\\charlie\\stimuli\\visual\\switching\\arrow_red_right.png'
g23
g32
I1240
tp104
a(g18
g19
g41
I63
g30
g23
g23
g28
g35
S'c:\\Charlie\\charlie\\stimuli\\visual\\switching\\arrow_red_right.png'
g23
g32
I640
tp105
a(g18
g19
g41
I64
g21
g23
g23
g31
g35
S'c:\\Charlie\\charlie\\stimuli\\visual\\switching\\arrow_blue_right.png'
g23
g32
I3700
tp106
a(g18
g19
g41
I65
g21
g22
g23
g28
g25
S'c:\\Charlie\\charlie\\stimuli\\visual\\switching\\arrow_blue_right.png'
g22
g26
I1640
tp107
a(g18
g19
g41
I66
g30
g23
g23
g31
g35
S'c:\\Charlie\\charlie\\stimuli\\visual\\switching\\arrow_red_right.png'
g23
g32
I1120
tp108
a(g18
g19
g41
I67
g30
g22
g23
g28
g25
S'c:\\Charlie\\charlie\\stimuli\\visual\\switching\\arrow_red_right.png'
g23
g26
I731
tp109
a(g18
g19
g41
I68
g21
g22
g22
g31
g35
S'c:\\Charlie\\charlie\\stimuli\\visual\\switching\\arrow_blue_left.png'
g22
g26
I3180
tp110
a(g18
g19
g41
I69
g21
g23
g22
g28
g25
S'c:\\Charlie\\charlie\\stimuli\\visual\\switching\\arrow_blue_left.png'
g23
g32
I3910
tp111
a(g18
g19
g41
I70
g30
g23
g22
g31
g25
S'c:\\Charlie\\charlie\\stimuli\\visual\\switching\\arrow_red_left.png'
g22
g26
I2380
tp112
a(g18
g19
g41
I71
g30
g23
g22
g28
g25
S'c:\\Charlie\\charlie\\stimuli\\visual\\switching\\arrow_red_left.png'
g22
g26
I390
tp113
a(g18
g19
g41
I72
g21
g23
g22
g31
g25
S'c:\\Charlie\\charlie\\stimuli\\visual\\switching\\arrow_blue_left.png'
g23
g32
I1350
tp114
a(g18
g19
g41
I73
g21
g22
g23
g28
g25
S'c:\\Charlie\\charlie\\stimuli\\visual\\switching\\arrow_blue_right.png'
g22
g26
I1530
tp115
a(g18
g19
g41
I74
g30
g23
g23
g31
g35
S'c:\\Charlie\\charlie\\stimuli\\visual\\switching\\arrow_red_right.png'
g23
g32
I1380
tp116
a(g18
g19
g41
I75
g30
g23
g23
g28
g35
S'c:\\Charlie\\charlie\\stimuli\\visual\\switching\\arrow_red_right.png'
g23
g32
I1020
tp117
a(g18
g19
g41
I76
g21
g23
g23
g31
g35
S'c:\\Charlie\\charlie\\stimuli\\visual\\switching\\arrow_blue_right.png'
g23
g32
I6081
tp118
a(g18
g19
g41
I77
g21
g22
g23
g28
g25
S'c:\\Charlie\\charlie\\stimuli\\visual\\switching\\arrow_blue_right.png'
g22
g26
I1480
tp119
a(g18
g19
g41
I78
g30
g22
g22
g31
g35
S'c:\\Charlie\\charlie\\stimuli\\visual\\switching\\arrow_red_left.png'
g22
g26
I1140
tp120
a(g18
g19
g41
I79
g30
g22
g23
g28
g25
S'c:\\Charlie\\charlie\\stimuli\\visual\\switching\\arrow_red_right.png'
g23
g32
I880
tp121
a(g18
g19
g41
I80
g21
g23
g22
g31
g25
S'c:\\Charlie\\charlie\\stimuli\\visual\\switching\\arrow_blue_left.png'
g23
g32
I5530
tp122
a(g18
g19
g41
I81
g21
g22
g22
g28
g35
S'c:\\Charlie\\charlie\\stimuli\\visual\\switching\\arrow_blue_left.png'
g22
g26
I5041
tp123
a(g18
g19
g41
I82
g30
g22
g22
g31
g35
S'c:\\Charlie\\charlie\\stimuli\\visual\\switching\\arrow_red_left.png'
g22
g26
I2120
tp124
a(g18
g19
g41
I83
g30
g23
g23
g28
g35
S'c:\\Charlie\\charlie\\stimuli\\visual\\switching\\arrow_red_right.png'
g23
g32
I4360
tp125
a(g18
g19
g41
I84
g21
g23
g22
g31
g25
S'c:\\Charlie\\charlie\\stimuli\\visual\\switching\\arrow_blue_left.png'
g23
g32
I2330
tp126
a(g18
g19
g41
I85
g21
g23
g22
g28
g25
S'c:\\Charlie\\charlie\\stimuli\\visual\\switching\\arrow_blue_left.png'
g23
g32
I3920
tp127
a(g18
g19
g41
I86
g30
g23
g23
g31
g35
S'c:\\Charlie\\charlie\\stimuli\\visual\\switching\\arrow_red_right.png'
g23
g32
I1621
tp128
a(g18
g19
g41
I87
g30
g23
g23
g28
g35
S'c:\\Charlie\\charlie\\stimuli\\visual\\switching\\arrow_red_right.png'
g23
g32
I720
tp129
a(g18
g19
g41
I88
g21
g23
g23
g31
g35
S'c:\\Charlie\\charlie\\stimuli\\visual\\switching\\arrow_blue_right.png'
g23
g32
I1240
tp130
a(g18
g19
g41
I89
g21
g22
g23
g28
g25
S'c:\\Charlie\\charlie\\stimuli\\visual\\switching\\arrow_blue_right.png'
g22
g26
I2370
tp131
a(g18
g19
g41
I90
g30
g23
g23
g31
g35
S'c:\\Charlie\\charlie\\stimuli\\visual\\switching\\arrow_red_right.png'
g23
g32
I3920
tp132
a(g18
g19
g41
I91
g30
g22
g22
g28
g35
S'c:\\Charlie\\charlie\\stimuli\\visual\\switching\\arrow_red_left.png'
g22
g26
I880
tp133
a(g18
g19
g41
I92
g21
g22
g22
g31
g35
S'c:\\Charlie\\charlie\\stimuli\\visual\\switching\\arrow_blue_left.png'
g22
g26
I4630
tp134
a(g18
g19
g41
I93
g21
g23
g23
g28
g35
S'c:\\Charlie\\charlie\\stimuli\\visual\\switching\\arrow_blue_right.png'
g23
g32
I950
tp135
a(g18
g19
g41
I94
g30
g22
g22
g31
g35
S'c:\\Charlie\\charlie\\stimuli\\visual\\switching\\arrow_red_left.png'
g22
g26
I940
tp136
a(g18
g19
g41
I95
g30
g22
g22
g28
g35
S'c:\\Charlie\\charlie\\stimuli\\visual\\switching\\arrow_red_left.png'
g22
g26
I451
tp137
a(g18
g19
g41
I96
g21
g22
g22
g31
g35
S'c:\\Charlie\\charlie\\stimuli\\visual\\switching\\arrow_blue_left.png'
g22
g26
I1080
tp138
a(g18
g19
g41
I97
g21
g23
g23
g28
g35
S'c:\\Charlie\\charlie\\stimuli\\visual\\switching\\arrow_blue_right.png'
g23
g32
I2220
tp139
a(g18
g19
g41
I98
g30
g22
g22
g31
g35
S'c:\\Charlie\\charlie\\stimuli\\visual\\switching\\arrow_red_left.png'
g22
g26
I1210
tp140
a(g18
g19
g41
I99
g30
g22
g23
g28
g25
S'c:\\Charlie\\charlie\\stimuli\\visual\\switching\\arrow_red_right.png'
g23
g32
I870
tp141
a(g18
g19
g41
I100
g21
g22
g22
g31
g35
S'c:\\Charlie\\charlie\\stimuli\\visual\\switching\\arrow_blue_left.png'
g22
g26
I3630
tp142
a(g18
g19
S'random'
p143
I0
g21
g23
g23
g24
g35
S'c:\\Charlie\\charlie\\stimuli\\visual\\switching\\arrow_blue_right.png'
g23
g32
I4420
tp144
a(g18
g19
g143
I1
g21
g22
g22
g28
g35
S'c:\\Charlie\\charlie\\stimuli\\visual\\switching\\arrow_blue_left.png'
g22
g26
I930
tp145
a(g18
g19
g143
I2
g21
g23
g23
g28
g35
S'c:\\Charlie\\charlie\\stimuli\\visual\\switching\\arrow_blue_right.png'
g23
g32
I680
tp146
a(g18
g19
g143
I3
g30
g22
g22
g31
g35
S'c:\\Charlie\\charlie\\stimuli\\visual\\switching\\arrow_red_left.png'
g22
g26
I1190
tp147
a(g18
g19
g143
I4
g21
g23
g22
g31
g25
S'c:\\Charlie\\charlie\\stimuli\\visual\\switching\\arrow_blue_left.png'
g23
g32
I1530
tp148
a(g18
g19
g143
I5
g21
g23
g22
g28
g25
S'c:\\Charlie\\charlie\\stimuli\\visual\\switching\\arrow_blue_left.png'
g23
g32
I470
tp149
a(g18
g19
g143
I6
g21
g22
g23
g28
g25
S'c:\\Charlie\\charlie\\stimuli\\visual\\switching\\arrow_blue_right.png'
g22
g26
I1030
tp150
a(g18
g19
g143
I7
g30
g22
g23
g31
g25
S'c:\\Charlie\\charlie\\stimuli\\visual\\switching\\arrow_red_right.png'
g23
g32
I1190
tp151
a(g18
g19
g143
I8
g30
g22
g22
g28
g35
S'c:\\Charlie\\charlie\\stimuli\\visual\\switching\\arrow_red_left.png'
g22
g26
I4411
tp152
a(g18
g19
g143
I9
g30
g23
g23
g28
g35
S'c:\\Charlie\\charlie\\stimuli\\visual\\switching\\arrow_red_right.png'
g23
g32
I880
tp153
a(g18
g19
g143
I10
g21
g23
g23
g31
g35
S'c:\\Charlie\\charlie\\stimuli\\visual\\switching\\arrow_blue_right.png'
g23
g32
I2660
tp154
a(g18
g19
g143
I11
g21
g23
g22
g28
g25
S'c:\\Charlie\\charlie\\stimuli\\visual\\switching\\arrow_blue_left.png'
g23
g32
I1700
tp155
a(g18
g19
g143
I12
g21
g22
g23
g28
g25
S'c:\\Charlie\\charlie\\stimuli\\visual\\switching\\arrow_blue_right.png'
g22
g26
I1920
tp156
a(g18
g19
g143
I13
g21
g22
g22
g28
g35
S'c:\\Charlie\\charlie\\stimuli\\visual\\switching\\arrow_blue_left.png'
g22
g26
I3110
tp157
a(g18
g19
g143
I14
g30
g23
g22
g31
g25
S'c:\\Charlie\\charlie\\stimuli\\visual\\switching\\arrow_red_left.png'
g22
g26
I1280
tp158
a(g18
g19
g143
I15
g30
g22
g23
g28
g25
S'c:\\Charlie\\charlie\\stimuli\\visual\\switching\\arrow_red_right.png'
g23
g32
I1180
tp159
a(g18
g19
g143
I16
g30
g23
g23
g28
g35
S'c:\\Charlie\\charlie\\stimuli\\visual\\switching\\arrow_red_right.png'
g23
g32
I870
tp160
a(g18
g19
g143
I17
g21
g23
g22
g31
g25
S'c:\\Charlie\\charlie\\stimuli\\visual\\switching\\arrow_blue_left.png'
g23
g32
I3601
tp161
a(g18
g19
g143
I18
g30
g23
g22
g31
g25
S'c:\\Charlie\\charlie\\stimuli\\visual\\switching\\arrow_red_left.png'
g22
g26
I6300
tp162
a(g18
g19
g143
I19
g30
g22
g23
g28
g25
S'c:\\Charlie\\charlie\\stimuli\\visual\\switching\\arrow_red_right.png'
g23
g32
I1040
tp163
a(g18
g19
g143
I20
g30
g22
g22
g28
g35
S'c:\\Charlie\\charlie\\stimuli\\visual\\switching\\arrow_red_left.png'
g22
g26
I1200
tp164
a(g18
g19
g143
I21
g21
g22
g23
g31
g25
S'c:\\Charlie\\charlie\\stimuli\\visual\\switching\\arrow_blue_right.png'
g22
g26
I7841
tp165
a(g18
g19
g143
I22
g21
g23
g23
g28
g35
S'c:\\Charlie\\charlie\\stimuli\\visual\\switching\\arrow_blue_right.png'
g23
g32
I890
tp166
a(g18
g19
g143
I23
g30
g23
g22
g31
g25
S'c:\\Charlie\\charlie\\stimuli\\visual\\switching\\arrow_red_left.png'
g22
g26
I1130
tp167
a(g18
g19
g143
I24
g21
g22
g22
g31
g35
S'c:\\Charlie\\charlie\\stimuli\\visual\\switching\\arrow_blue_left.png'
g22
g26
I1250
tp168
a(g18
g19
g143
I25
g30
g23
g23
g31
g35
S'c:\\Charlie\\charlie\\stimuli\\visual\\switching\\arrow_red_right.png'
g23
g32
I2520
tp169
a(g18
g19
g143
I26
g30
g23
g22
g28
g25
S'c:\\Charlie\\charlie\\stimuli\\visual\\switching\\arrow_red_left.png'
g22
g26
I1370
tp170
a(g18
g19
g143
I27
g30
g23
g23
g28
g35
S'c:\\Charlie\\charlie\\stimuli\\visual\\switching\\arrow_red_right.png'
g23
g32
I1040
tp171
a(g18
g19
g143
I28
g21
g23
g23
g31
g35
S'c:\\Charlie\\charlie\\stimuli\\visual\\switching\\arrow_blue_right.png'
g23
g32
I1110
tp172
a(g18
g19
g143
I29
g30
g22
g23
g31
g25
S'c:\\Charlie\\charlie\\stimuli\\visual\\switching\\arrow_red_right.png'
g23
g32
I1850
tp173
a(g18
g19
g143
I30
g30
g23
g23
g28
g35
S'c:\\Charlie\\charlie\\stimuli\\visual\\switching\\arrow_red_right.png'
g23
g32
I970
tp174
a(g18
g19
g143
I31
g30
g23
g23
g28
g35
S'c:\\Charlie\\charlie\\stimuli\\visual\\switching\\arrow_red_right.png'
g23
g32
I840
tp175
a(g18
g19
g143
I32
g30
g22
g22
g28
g35
S'c:\\Charlie\\charlie\\stimuli\\visual\\switching\\arrow_red_left.png'
g22
g26
I971
tp176
a(g18
g19
g143
I33
g30
g23
g22
g28
g25
S'c:\\Charlie\\charlie\\stimuli\\visual\\switching\\arrow_red_left.png'
g22
g26
I950
tp177
a(g18
g19
g143
I34
g21
g23
g23
g31
g35
S'c:\\Charlie\\charlie\\stimuli\\visual\\switching\\arrow_blue_right.png'
g23
g32
I1850
tp178
a(g18
g19
g143
I35
g30
g22
g23
g31
g25
S'c:\\Charlie\\charlie\\stimuli\\visual\\switching\\arrow_red_right.png'
g23
g32
I7070
tp179
a(g18
g19
g143
I36
g21
g23
g22
g31
g25
S'c:\\Charlie\\charlie\\stimuli\\visual\\switching\\arrow_blue_left.png'
g23
g32
I2220
tp180
a(g18
g19
g143
I37
g21
g23
g23
g28
g35
S'c:\\Charlie\\charlie\\stimuli\\visual\\switching\\arrow_blue_right.png'
g23
g32
I610
tp181
a(g18
g19
g143
I38
g21
g23
g23
g28
g35
S'c:\\Charlie\\charlie\\stimuli\\visual\\switching\\arrow_blue_right.png'
g23
g32
I630
tp182
a(g18
g19
g143
I39
g21
g22
g22
g28
g35
S'c:\\Charlie\\charlie\\stimuli\\visual\\switching\\arrow_blue_left.png'
g22
g26
I640
tp183
a(g18
g19
g143
I40
g30
g22
g22
g31
g35
S'c:\\Charlie\\charlie\\stimuli\\visual\\switching\\arrow_red_left.png'
g22
g26
I850
tp184
a(g18
g19
g143
I41
g21
g23
g23
g31
g35
S'c:\\Charlie\\charlie\\stimuli\\visual\\switching\\arrow_blue_right.png'
g23
g32
I1051
tp185
a(g18
g19
g143
I42
g30
g22
g23
g31
g25
S'c:\\Charlie\\charlie\\stimuli\\visual\\switching\\arrow_red_right.png'
g23
g32
I1100
tp186
a(g18
g19
g143
I43
g21
g22
g23
g31
g25
S'c:\\Charlie\\charlie\\stimuli\\visual\\switching\\arrow_blue_right.png'
g22
g26
I1110
tp187
a(g18
g19
g143
I44
g30
g22
g23
g31
g25
S'c:\\Charlie\\charlie\\stimuli\\visual\\switching\\arrow_red_right.png'
g23
g32
I760
tp188
a(g18
g19
g143
I45
g21
g23
g22
g31
g25
S'c:\\Charlie\\charlie\\stimuli\\visual\\switching\\arrow_blue_left.png'
g23
g32
I1640
tp189
a(g18
g19
g143
I46
g21
g22
g22
g28
g35
S'c:\\Charlie\\charlie\\stimuli\\visual\\switching\\arrow_blue_left.png'
g22
g26
I3610
tp190
a(g18
g19
g143
I47
g21
g22
g22
g28
g35
S'c:\\Charlie\\charlie\\stimuli\\visual\\switching\\arrow_blue_left.png'
g22
g26
I740
tp191
a(g18
g19
g143
I48
g30
g22
g22
g31
g35
S'c:\\Charlie\\charlie\\stimuli\\visual\\switching\\arrow_red_left.png'
g22
g26
I1830
tp192
a(g18
g19
g143
I49
g30
g22
g22
g28
g35
S'c:\\Charlie\\charlie\\stimuli\\visual\\switching\\arrow_red_left.png'
g22
g26
I810
tp193
a(g18
g19
g143
I50
g30
g23
g23
g28
g35
S'c:\\Charlie\\charlie\\stimuli\\visual\\switching\\arrow_red_right.png'
g23
g32
I600
tp194
a(g18
g19
g143
I51
g30
g23
g22
g28
g25
S'c:\\Charlie\\charlie\\stimuli\\visual\\switching\\arrow_red_left.png'
g22
g26
I3330
tp195
a(g18
g19
g143
I52
g30
g22
g23
g28
g25
S'c:\\Charlie\\charlie\\stimuli\\visual\\switching\\arrow_red_right.png'
g23
g32
I841
tp196
a(g18
g19
g143
I53
g30
g23
g23
g28
g35
S'c:\\Charlie\\charlie\\stimuli\\visual\\switching\\arrow_red_right.png'
g23
g32
I1650
tp197
a(g18
g19
g143
I54
g21
g23
g22
g31
g25
S'c:\\Charlie\\charlie\\stimuli\\visual\\switching\\arrow_blue_left.png'
g23
g32
I1060
tp198
a(g18
g19
g143
I55
g21
g22
g22
g28
g35
S'c:\\Charlie\\charlie\\stimuli\\visual\\switching\\arrow_blue_left.png'
g22
g26
I4050
tp199
a(g18
g19
g143
I56
g30
g22
g22
g31
g35
S'c:\\Charlie\\charlie\\stimuli\\visual\\switching\\arrow_red_left.png'
g22
g26
I1530
tp200
a(g18
g19
g143
I57
g21
g22
g22
g31
g35
S'c:\\Charlie\\charlie\\stimuli\\visual\\switching\\arrow_blue_left.png'
g22
g26
I2100
tp201
a(g18
g19
g143
I58
g21
g22
g23
g28
g25
S'c:\\Charlie\\charlie\\stimuli\\visual\\switching\\arrow_blue_right.png'
g22
g32
I780
tp202
a(g18
g19
g143
I59
g30
g22
g22
g31
g35
S'c:\\Charlie\\charlie\\stimuli\\visual\\switching\\arrow_red_left.png'
g22
g26
I2950
tp203
a(g18
g19
g143
I60
g21
g22
g23
g31
g25
S'c:\\Charlie\\charlie\\stimuli\\visual\\switching\\arrow_blue_right.png'
g22
g26
I2411
tp204
a(g18
g19
g143
I61
g21
g23
g23
g28
g35
S'c:\\Charlie\\charlie\\stimuli\\visual\\switching\\arrow_blue_right.png'
g23
g32
I920
tp205
a(g18
g19
g143
I62
g30
g23
g22
g31
g25
S'c:\\Charlie\\charlie\\stimuli\\visual\\switching\\arrow_red_left.png'
g22
g26
I3080
tp206
a(g18
g19
g143
I63
g21
g23
g23
g31
g35
S'c:\\Charlie\\charlie\\stimuli\\visual\\switching\\arrow_blue_right.png'
g23
g32
I3140
tp207
a(g18
g19
g143
I64
g30
g22
g22
g31
g35
S'c:\\Charlie\\charlie\\stimuli\\visual\\switching\\arrow_red_left.png'
g22
g26
I1450
tp208
a(g18
g19
g143
I65
g30
g23
g22
g28
g25
S'c:\\Charlie\\charlie\\stimuli\\visual\\switching\\arrow_red_left.png'
g22
g26
I960
tp209
a(g18
g19
g143
I66
g21
g22
g23
g31
g25
S'c:\\Charlie\\charlie\\stimuli\\visual\\switching\\arrow_blue_right.png'
g22
g26
I1610
tp210
a(g18
g19
g143
I67
g21
g22
g23
g28
g25
S'c:\\Charlie\\charlie\\stimuli\\visual\\switching\\arrow_blue_right.png'
g22
g26
I570
tp211
a(g18
g19
g143
I68
g30
g22
g22
g31
g35
S'c:\\Charlie\\charlie\\stimuli\\visual\\switching\\arrow_red_left.png'
g22
g26
I1170
tp212
a(g18
g19
g143
I69
g30
g23
g22
g28
g25
S'c:\\Charlie\\charlie\\stimuli\\visual\\switching\\arrow_red_left.png'
g22
g26
I1230
tp213
a(g18
g19
g143
I70
g30
g23
g22
g28
g25
S'c:\\Charlie\\charlie\\stimuli\\visual\\switching\\arrow_red_left.png'
g22
g26
I610
tp214
a(g18
g19
g143
I71
g30
g23
g23
g28
g35
S'c:\\Charlie\\charlie\\stimuli\\visual\\switching\\arrow_red_right.png'
g23
g32
I1040
tp215
a(g18
g19
g143
I72
g21
g22
g22
g31
g35
S'c:\\Charlie\\charlie\\stimuli\\visual\\switching\\arrow_blue_left.png'
g22
g26
I1100
tp216
a(g18
g19
g143
I73
g21
g22
g23
g28
g25
S'c:\\Charlie\\charlie\\stimuli\\visual\\switching\\arrow_blue_right.png'
g22
g26
I1490
tp217
a(g18
g19
g143
I74
g30
g22
g23
g31
g25
S'c:\\Charlie\\charlie\\stimuli\\visual\\switching\\arrow_red_right.png'
g23
g32
I1140
tp218
a(g18
g19
g143
I75
g21
g22
g22
g31
g35
S'c:\\Charlie\\charlie\\stimuli\\visual\\switching\\arrow_blue_left.png'
g22
g26
I3520
tp219
a(g18
g19
g143
I76
g30
g22
g22
g31
g35
S'c:\\Charlie\\charlie\\stimuli\\visual\\switching\\arrow_red_left.png'
g22
g26
I1750
tp220
a(g18
g19
g143
I77
g21
g22
g23
g31
g25
S'c:\\Charlie\\charlie\\stimuli\\visual\\switching\\arrow_blue_right.png'
g22
g26
I1260
tp221
a(g18
g19
g143
I78
g21
g22
g23
g28
g25
S'c:\\Charlie\\charlie\\stimuli\\visual\\switching\\arrow_blue_right.png'
g22
g26
I1690
tp222
a(g18
g19
g143
I79
g30
g22
g22
g31
g35
S'c:\\Charlie\\charlie\\stimuli\\visual\\switching\\arrow_red_left.png'
g22
g26
I820
tp223
a(g18
g19
g143
I80
g21
g23
g22
g31
g25
S'c:\\Charlie\\charlie\\stimuli\\visual\\switching\\arrow_blue_left.png'
g23
g32
I1090
tp224
a(g18
g19
g143
I81
g30
g23
g22
g31
g25
S'c:\\Charlie\\charlie\\stimuli\\visual\\switching\\arrow_red_left.png'
g22
g26
I1251
tp225
a(g18
g19
g143
I82
g30
g23
g22
g28
g25
S'c:\\Charlie\\charlie\\stimuli\\visual\\switching\\arrow_red_left.png'
g22
g26
I620
tp226
a(g18
g19
g143
I83
g21
g23
g23
g31
g35
S'c:\\Charlie\\charlie\\stimuli\\visual\\switching\\arrow_blue_right.png'
g23
g32
I1240
tp227
a(g18
g19
g143
I84
g30
g23
g22
g31
g25
S'c:\\Charlie\\charlie\\stimuli\\visual\\switching\\arrow_red_left.png'
g22
g26
I1880
tp228
a(g18
g19
g143
I85
g30
g22
g23
g28
g25
S'c:\\Charlie\\charlie\\stimuli\\visual\\switching\\arrow_red_right.png'
g23
g32
I880
tp229
a(g18
g19
g143
I86
g21
g22
g23
g31
g25
S'c:\\Charlie\\charlie\\stimuli\\visual\\switching\\arrow_blue_right.png'
g22
g26
I1640
tp230
a(g18
g19
g143
I87
g30
g23
g23
g31
g35
S'c:\\Charlie\\charlie\\stimuli\\visual\\switching\\arrow_red_right.png'
g23
g32
I3910
tp231
a(g18
g19
g143
I88
g30
g23
g23
g28
g35
S'c:\\Charlie\\charlie\\stimuli\\visual\\switching\\arrow_red_right.png'
g23
g32
I660
tp232
a(g18
g19
g143
I89
g21
g23
g22
g31
g25
S'c:\\Charlie\\charlie\\stimuli\\visual\\switching\\arrow_blue_left.png'
g23
g32
I5761
tp233
a(g18
g19
g143
I90
g21
g22
g23
g28
g25
S'c:\\Charlie\\charlie\\stimuli\\visual\\switching\\arrow_blue_right.png'
g22
g26
I2220
tp234
a(g18
g19
g143
I91
g21
g23
g22
g28
g25
S'c:\\Charlie\\charlie\\stimuli\\visual\\switching\\arrow_blue_left.png'
g23
g32
I1640
tp235
a(g18
g19
g143
I92
g30
g22
g22
g31
g35
S'c:\\Charlie\\charlie\\stimuli\\visual\\switching\\arrow_red_left.png'
g22
g26
I940
tp236
a(g18
g19
g143
I93
g21
g23
g23
g31
g35
S'c:\\Charlie\\charlie\\stimuli\\visual\\switching\\arrow_blue_right.png'
g23
g32
I1840
tp237
a(g18
g19
g143
I94
g30
g23
g23
g31
g35
S'c:\\Charlie\\charlie\\stimuli\\visual\\switching\\arrow_red_right.png'
g23
g32
I1230
tp238
a(g18
g19
g143
I95
g30
g22
g22
g28
g35
S'c:\\Charlie\\charlie\\stimuli\\visual\\switching\\arrow_red_left.png'
g22
g26
I2070
tp239
a(g18
g19
g143
I96
g21
g23
g23
g31
g35
S'c:\\Charlie\\charlie\\stimuli\\visual\\switching\\arrow_blue_right.png'
g23
g32
I4570
tp240
a(g18
g19
g143
I97
g21
g22
g22
g28
g35
S'c:\\Charlie\\charlie\\stimuli\\visual\\switching\\arrow_blue_left.png'
g22
g26
I920
tp241
a(g18
g19
g143
I98
g21
g23
g23
g28
g35
S'c:\\Charlie\\charlie\\stimuli\\visual\\switching\\arrow_blue_right.png'
g23
g32
I5841
tp242
a(g18
g19
g143
I99
g21
g22
g22
g28
g35
S'c:\\Charlie\\charlie\\stimuli\\visual\\switching\\arrow_blue_left.png'
g22
g26
I1200
tp243
a(g18
g19
g143
I100
g21
g23
g23
g28
g35
S'c:\\Charlie\\charlie\\stimuli\\visual\\switching\\arrow_blue_right.png'
p244
g23
g32
I5080
tp245
asS'output_format'
p246
(lp247
(S'proband_id'
p248
c__builtin__
str
p249
tp250
a(S'test_name'
p251
g249
tp252
a(S'phase'
p253
g249
tp254
a(S'trialn'
p255
c__builtin__
int
p256
tp257
a(S'task'
p258
g249
tp259
a(S'pos'
p260
g249
tp261
a(S'dir'
p262
g249
tp263
a(S'switch'
p264
g249
tp265
a(S'cong'
p266
g249
tp267
a(S'f'
g249
tp268
a(S'ans'
p269
g249
tp270
a(S'rsp'
p271
g249
tp272
a(S'rt'
p273
g256
tp274
asg248
g18
sS'filename'
p275
S'4383_switching.data'
p276
sS'initialised'
p277
g8
(S'\x07\xdf\x05\x1b\r1\x0b\x05\xf3p'
tRp278
sS'last_udated'
p279
g8
(S'\x07\xdf\x05\x1b\r1\x0b\x05\xf3p'
tRp280
sg251
S'switching'
p281
sS'directory'
p282
S'c:\\Charlie\\charlie\\data\\raw'
p283
sS'user_id'
p284
S'oleach'
p285
sS'test_started'
p286
I01
sS'abs_filename'
p287
S'c:\\Charlie\\charlie\\data\\raw\\4383_switching.data'
p288
sS'date_started'
p289
g8
(S'\x07\xdf\x05\x1b\r2\x17\x00\x8c\xa0'
tRp290
sS'log'
p291
(lp292
(S'2015-05-27 13:49:11.390000'
S'instance created'
p293
tp294
a(S'2015-05-27 13:50:23.054000'
S'instance updated'
p295
tp296
a(S'2015-05-27 13:50:23.066000'
S'pandas DataFrame of data created'
p297
tp298
a(S'2015-05-27 13:50:23.072000'
S'data saved as csv to c:\\Charlie\\charlie\\data\\csv\\4383_switching.csv'
tp299
a(S'2015-05-27 13:50:27.044000'
g295
tp300
a(S'2015-05-27 13:50:27.056000'
g297
tp301
a(S'2015-05-27 13:50:27.059000'
S'data saved as csv to c:\\Charlie\\charlie\\data\\csv\\4383_switching.csv'
tp302
a(S'2015-05-27 13:50:33.220000'
g295
tp303
a(S'2015-05-27 13:50:33.232000'
g297
tp304
a(S'2015-05-27 13:50:33.236000'
S'data saved as csv to c:\\Charlie\\charlie\\data\\csv\\4383_switching.csv'
tp305
a(S'2015-05-27 13:50:38.918000'
g295
tp306
a(S'2015-05-27 13:50:38.930000'
g297
tp307
a(S'2015-05-27 13:50:38.934000'
S'data saved as csv to c:\\Charlie\\charlie\\data\\csv\\4383_switching.csv'
tp308
a(S'2015-05-27 13:50:43.547000'
g295
tp309
a(S'2015-05-27 13:50:43.559000'
g297
tp310
a(S'2015-05-27 13:50:43.563000'
S'data saved as csv to c:\\Charlie\\charlie\\data\\csv\\4383_switching.csv'
tp311
a(S'2015-05-27 13:50:46.297000'
g295
tp312
a(S'2015-05-27 13:50:46.309000'
g297
tp313
a(S'2015-05-27 13:50:46.313000'
S'data saved as csv to c:\\Charlie\\charlie\\data\\csv\\4383_switching.csv'
tp314
a(S'2015-05-27 13:50:48.835000'
g295
tp315
a(S'2015-05-27 13:50:48.848000'
g297
tp316
a(S'2015-05-27 13:50:48.851000'
S'data saved as csv to c:\\Charlie\\charlie\\data\\csv\\4383_switching.csv'
tp317
a(S'2015-05-27 13:50:51.215000'
g295
tp318
a(S'2015-05-27 13:50:51.227000'
g297
tp319
a(S'2015-05-27 13:50:51.231000'
S'data saved as csv to c:\\Charlie\\charlie\\data\\csv\\4383_switching.csv'
tp320
a(S'2015-05-27 13:50:54.384000'
g295
tp321
a(S'2015-05-27 13:50:54.396000'
g297
tp322
a(S'2015-05-27 13:50:54.400000'
S'data saved as csv to c:\\Charlie\\charlie\\data\\csv\\4383_switching.csv'
tp323
a(S'2015-05-27 13:51:16.483000'
g295
tp324
a(S'2015-05-27 13:51:16.495000'
g297
tp325
a(S'2015-05-27 13:51:16.497000'
S'data saved as csv to c:\\Charlie\\charlie\\data\\csv\\4383_switching.csv'
tp326
a(S'2015-05-27 13:51:17.930000'
g295
tp327
a(S'2015-05-27 13:51:17.939000'
g297
tp328
a(S'2015-05-27 13:51:17.941000'
S'data saved as csv to c:\\Charlie\\charlie\\data\\csv\\4383_switching.csv'
tp329
a(S'2015-05-27 13:51:19.434000'
g295
tp330
a(S'2015-05-27 13:51:19.442000'
g297
tp331
a(S'2015-05-27 13:51:19.445000'
S'data saved as csv to c:\\Charlie\\charlie\\data\\csv\\4383_switching.csv'
tp332
a(S'2015-05-27 13:51:22.050000'
g295
tp333
a(S'2015-05-27 13:51:22.062000'
g297
tp334
a(S'2015-05-27 13:51:22.066000'
S'data saved as csv to c:\\Charlie\\charlie\\data\\csv\\4383_switching.csv'
tp335
a(S'2015-05-27 13:51:23.540000'
g295
tp336
a(S'2015-05-27 13:51:23.553000'
g297
tp337
a(S'2015-05-27 13:51:23.557000'
S'data saved as csv to c:\\Charlie\\charlie\\data\\csv\\4383_switching.csv'
tp338
a(S'2015-05-27 13:51:24.352000'
g295
tp339
a(S'2015-05-27 13:51:24.360000'
g297
tp340
a(S'2015-05-27 13:51:24.362000'
S'data saved as csv to c:\\Charlie\\charlie\\data\\csv\\4383_switching.csv'
tp341
a(S'2015-05-27 13:51:26.006000'
g295
tp342
a(S'2015-05-27 13:51:26.018000'
g297
tp343
a(S'2015-05-27 13:51:26.022000'
S'data saved as csv to c:\\Charlie\\charlie\\data\\csv\\4383_switching.csv'
tp344
a(S'2015-05-27 13:51:27.087000'
g295
tp345
a(S'2015-05-27 13:51:27.099000'
g297
tp346
a(S'2015-05-27 13:51:27.103000'
S'data saved as csv to c:\\Charlie\\charlie\\data\\csv\\4383_switching.csv'
tp347
a(S'2015-05-27 13:51:29.150000'
g295
tp348
a(S'2015-05-27 13:51:29.162000'
g297
tp349
a(S'2015-05-27 13:51:29.166000'
S'data saved as csv to c:\\Charlie\\charlie\\data\\csv\\4383_switching.csv'
tp350
a(S'2015-05-27 13:51:29.821000'
g295
tp351
a(S'2015-05-27 13:51:29.834000'
g297
tp352
a(S'2015-05-27 13:51:29.839000'
S'data saved as csv to c:\\Charlie\\charlie\\data\\csv\\4383_switching.csv'
tp353
a(S'2015-05-27 13:51:31.824000'
g295
tp354
a(S'2015-05-27 13:51:31.837000'
g297
tp355
a(S'2015-05-27 13:51:31.841000'
S'data saved as csv to c:\\Charlie\\charlie\\data\\csv\\4383_switching.csv'
tp356
a(S'2015-05-27 13:51:33.746000'
g295
tp357
a(S'2015-05-27 13:51:33.758000'
g297
tp358
a(S'2015-05-27 13:51:33.762000'
S'data saved as csv to c:\\Charlie\\charlie\\data\\csv\\4383_switching.csv'
tp359
a(S'2015-05-27 13:51:36.078000'
g295
tp360
a(S'2015-05-27 13:51:36.090000'
g297
tp361
a(S'2015-05-27 13:51:36.094000'
S'data saved as csv to c:\\Charlie\\charlie\\data\\csv\\4383_switching.csv'
tp362
a(S'2015-05-27 13:51:37.379000'
g295
tp363
a(S'2015-05-27 13:51:37.392000'
g297
tp364
a(S'2015-05-27 13:51:37.396000'
S'data saved as csv to c:\\Charlie\\charlie\\data\\csv\\4383_switching.csv'
tp365
a(S'2015-05-27 13:51:38.781000'
g295
tp366
a(S'2015-05-27 13:51:38.789000'
g297
tp367
a(S'2015-05-27 13:51:38.792000'
S'data saved as csv to c:\\Charlie\\charlie\\data\\csv\\4383_switching.csv'
tp368
a(S'2015-05-27 13:51:39.765000'
g295
tp369
a(S'2015-05-27 13:51:39.776000'
g297
tp370
a(S'2015-05-27 13:51:39.779000'
S'data saved as csv to c:\\Charlie\\charlie\\data\\csv\\4383_switching.csv'
tp371
a(S'2015-05-27 13:51:41.332000'
g295
tp372
a(S'2015-05-27 13:51:41.345000'
g297
tp373
a(S'2015-05-27 13:51:41.349000'
S'data saved as csv to c:\\Charlie\\charlie\\data\\csv\\4383_switching.csv'
tp374
a(S'2015-05-27 13:51:43.204000'
g295
tp375
a(S'2015-05-27 13:51:43.217000'
g297
tp376
a(S'2015-05-27 13:51:43.222000'
S'data saved as csv to c:\\Charlie\\charlie\\data\\csv\\4383_switching.csv'
tp377
a(S'2015-05-27 13:51:46.197000'
g295
tp378
a(S'2015-05-27 13:51:46.209000'
g297
tp379
a(S'2015-05-27 13:51:46.213000'
S'data saved as csv to c:\\Charlie\\charlie\\data\\csv\\4383_switching.csv'
tp380
a(S'2015-05-27 13:51:48.220000'
g295
tp381
a(S'2015-05-27 13:51:48.232000'
g297
tp382
a(S'2015-05-27 13:51:48.235000'
S'data saved as csv to c:\\Charlie\\charlie\\data\\csv\\4383_switching.csv'
tp383
a(S'2015-05-27 13:51:50.500000'
g295
tp384
a(S'2015-05-27 13:51:50.512000'
g297
tp385
a(S'2015-05-27 13:51:50.515000'
S'data saved as csv to c:\\Charlie\\charlie\\data\\csv\\4383_switching.csv'
tp386
a(S'2015-05-27 13:51:51.649000'
g295
tp387
a(S'2015-05-27 13:51:51.662000'
g297
tp388
a(S'2015-05-27 13:51:51.666000'
S'data saved as csv to c:\\Charlie\\charlie\\data\\csv\\4383_switching.csv'
tp389
a(S'2015-05-27 13:51:54.112000'
g295
tp390
a(S'2015-05-27 13:51:54.125000'
g297
tp391
a(S'2015-05-27 13:51:54.129000'
S'data saved as csv to c:\\Charlie\\charlie\\data\\csv\\4383_switching.csv'
tp392
a(S'2015-05-27 13:52:02.885000'
g295
tp393
a(S'2015-05-27 13:52:02.898000'
g297
tp394
a(S'2015-05-27 13:52:02.902000'
S'data saved as csv to c:\\Charlie\\charlie\\data\\csv\\4383_switching.csv'
tp395
a(S'2015-05-27 13:52:06.827000'
g295
tp396
a(S'2015-05-27 13:52:06.840000'
g297
tp397
a(S'2015-05-27 13:52:06.844000'
S'data saved as csv to c:\\Charlie\\charlie\\data\\csv\\4383_switching.csv'
tp398
a(S'2015-05-27 13:52:09.211000'
g295
tp399
a(S'2015-05-27 13:52:09.224000'
g297
tp400
a(S'2015-05-27 13:52:09.228000'
S'data saved as csv to c:\\Charlie\\charlie\\data\\csv\\4383_switching.csv'
tp401
a(S'2015-05-27 13:52:10.813000'
g295
tp402
a(S'2015-05-27 13:52:10.824000'
g297
tp403
a(S'2015-05-27 13:52:10.827000'
S'data saved as csv to c:\\Charlie\\charlie\\data\\csv\\4383_switching.csv'
tp404
a(S'2015-05-27 13:52:11.490000'
g295
tp405
a(S'2015-05-27 13:52:11.503000'
g297
tp406
a(S'2015-05-27 13:52:11.507000'
S'data saved as csv to c:\\Charlie\\charlie\\data\\csv\\4383_switching.csv'
tp407
a(S'2015-05-27 13:52:13.733000'
g295
tp408
a(S'2015-05-27 13:52:13.746000'
g297
tp409
a(S'2015-05-27 13:52:13.750000'
S'data saved as csv to c:\\Charlie\\charlie\\data\\csv\\4383_switching.csv'
tp410
a(S'2015-05-27 13:52:15.277000'
g295
tp411
a(S'2015-05-27 13:52:15.289000'
g297
tp412
a(S'2015-05-27 13:52:15.293000'
S'data saved as csv to c:\\Charlie\\charlie\\data\\csv\\4383_switching.csv'
tp413
a(S'2015-05-27 13:52:17.106000'
g295
tp414
a(S'2015-05-27 13:52:17.119000'
g297
tp415
a(S'2015-05-27 13:52:17.122000'
S'data saved as csv to c:\\Charlie\\charlie\\data\\csv\\4383_switching.csv'
tp416
a(S'2015-05-27 13:52:18.196000'
g295
tp417
a(S'2015-05-27 13:52:18.208000'
g297
tp418
a(S'2015-05-27 13:52:18.213000'
S'data saved as csv to c:\\Charlie\\charlie\\data\\csv\\4383_switching.csv'
tp419
a(S'2015-05-27 13:52:23.531000'
g295
tp420
a(S'2015-05-27 13:52:23.543000'
g297
tp421
a(S'2015-05-27 13:52:23.545000'
S'data saved as csv to c:\\Charlie\\charlie\\data\\csv\\4383_switching.csv'
tp422
a(S'2015-05-27 13:52:24.880000'
g295
tp423
a(S'2015-05-27 13:52:24.892000'
g297
tp424
a(S'2015-05-27 13:52:24.895000'
S'data saved as csv to c:\\Charlie\\charlie\\data\\csv\\4383_switching.csv'
tp425
a(S'2015-05-27 13:52:26.329000'
g295
tp426
a(S'2015-05-27 13:52:26.342000'
g297
tp427
a(S'2015-05-27 13:52:26.346000'
S'data saved as csv to c:\\Charlie\\charlie\\data\\csv\\4383_switching.csv'
tp428
a(S'2015-05-27 13:52:27.523000'
g295
tp429
a(S'2015-05-27 13:52:27.536000'
g297
tp430
a(S'2015-05-27 13:52:27.541000'
S'data saved as csv to c:\\Charlie\\charlie\\data\\csv\\4383_switching.csv'
tp431
a(S'2015-05-27 13:52:31.017000'
g295
tp432
a(S'2015-05-27 13:52:31.031000'
g297
tp433
a(S'2015-05-27 13:52:31.035000'
S'data saved as csv to c:\\Charlie\\charlie\\data\\csv\\4383_switching.csv'
tp434
a(S'2015-05-27 13:52:39.682000'
g295
tp435
a(S'2015-05-27 13:52:39.695000'
g297
tp436
a(S'2015-05-27 13:52:39.700000'
S'data saved as csv to c:\\Charlie\\charlie\\data\\csv\\4383_switching.csv'
tp437
a(S'2015-05-27 13:52:41.887000'
g295
tp438
a(S'2015-05-27 13:52:41.900000'
g297
tp439
a(S'2015-05-27 13:52:41.902000'
S'data saved as csv to c:\\Charlie\\charlie\\data\\csv\\4383_switching.csv'
tp440
a(S'2015-05-27 13:52:43.657000'
g295
tp441
a(S'2015-05-27 13:52:43.670000'
g297
tp442
a(S'2015-05-27 13:52:43.672000'
S'data saved as csv to c:\\Charlie\\charlie\\data\\csv\\4383_switching.csv'
tp443
a(S'2015-05-27 13:52:49.118000'
g295
tp444
a(S'2015-05-27 13:52:49.130000'
g297
tp445
a(S'2015-05-27 13:52:49.132000'
S'data saved as csv to c:\\Charlie\\charlie\\data\\csv\\4383_switching.csv'
tp446
a(S'2015-05-27 13:52:50.537000'
g295
tp447
a(S'2015-05-27 13:52:50.551000'
g297
tp448
a(S'2015-05-27 13:52:50.555000'
S'data saved as csv to c:\\Charlie\\charlie\\data\\csv\\4383_switching.csv'
tp449
a(S'2015-05-27 13:52:55.423000'
g295
tp450
a(S'2015-05-27 13:52:55.432000'
g297
tp451
a(S'2015-05-27 13:52:55.435000'
S'data saved as csv to c:\\Charlie\\charlie\\data\\csv\\4383_switching.csv'
tp452
a(S'2015-05-27 13:52:56.099000'
g295
tp453
a(S'2015-05-27 13:52:56.112000'
g297
tp454
a(S'2015-05-27 13:52:56.117000'
S'data saved as csv to c:\\Charlie\\charlie\\data\\csv\\4383_switching.csv'
tp455
a(S'2015-05-27 13:52:57.692000'
g295
tp456
a(S'2015-05-27 13:52:57.706000'
g297
tp457
a(S'2015-05-27 13:52:57.709000'
S'data saved as csv to c:\\Charlie\\charlie\\data\\csv\\4383_switching.csv'
tp458
a(S'2015-05-27 13:52:58.254000'
g295
tp459
a(S'2015-05-27 13:52:58.267000'
g297
tp460
a(S'2015-05-27 13:52:58.272000'
S'data saved as csv to c:\\Charlie\\charlie\\data\\csv\\4383_switching.csv'
tp461
a(S'2015-05-27 13:52:59.708000'
g295
tp462
a(S'2015-05-27 13:52:59.721000'
g297
tp463
a(S'2015-05-27 13:52:59.726000'
S'data saved as csv to c:\\Charlie\\charlie\\data\\csv\\4383_switching.csv'
tp464
a(S'2015-05-27 13:53:00.692000'
g295
tp465
a(S'2015-05-27 13:53:00.705000'
g297
tp466
a(S'2015-05-27 13:53:00.710000'
S'data saved as csv to c:\\Charlie\\charlie\\data\\csv\\4383_switching.csv'
tp467
a(S'2015-05-27 13:53:02.144000'
g295
tp468
a(S'2015-05-27 13:53:02.158000'
g297
tp469
a(S'2015-05-27 13:53:02.163000'
S'data saved as csv to c:\\Charlie\\charlie\\data\\csv\\4383_switching.csv'
tp470
a(S'2015-05-27 13:53:04.930000'
g295
tp471
a(S'2015-05-27 13:53:04.944000'
g297
tp472
a(S'2015-05-27 13:53:04.948000'
S'data saved as csv to c:\\Charlie\\charlie\\data\\csv\\4383_switching.csv'
tp473
a(S'2015-05-27 13:53:07.046000'
g295
tp474
a(S'2015-05-27 13:53:07.059000'
g297
tp475
a(S'2015-05-27 13:53:07.064000'
S'data saved as csv to c:\\Charlie\\charlie\\data\\csv\\4383_switching.csv'
tp476
a(S'2015-05-27 13:53:09.441000'
g295
tp477
a(S'2015-05-27 13:53:09.455000'
g297
tp478
a(S'2015-05-27 13:53:09.460000'
S'data saved as csv to c:\\Charlie\\charlie\\data\\csv\\4383_switching.csv'
tp479
a(S'2015-05-27 13:53:11.276000'
g295
tp480
a(S'2015-05-27 13:53:11.289000'
g297
tp481
a(S'2015-05-27 13:53:11.294000'
S'data saved as csv to c:\\Charlie\\charlie\\data\\csv\\4383_switching.csv'
tp482
a(S'2015-05-27 13:53:12.041000'
g295
tp483
a(S'2015-05-27 13:53:12.054000'
g297
tp484
a(S'2015-05-27 13:53:12.059000'
S'data saved as csv to c:\\Charlie\\charlie\\data\\csv\\4383_switching.csv'
tp485
a(S'2015-05-27 13:53:13.845000'
g295
tp486
a(S'2015-05-27 13:53:13.858000'
g297
tp487
a(S'2015-05-27 13:53:13.863000'
S'data saved as csv to c:\\Charlie\\charlie\\data\\csv\\4383_switching.csv'
tp488
a(S'2015-05-27 13:53:15.530000'
g295
tp489
a(S'2015-05-27 13:53:15.544000'
g297
tp490
a(S'2015-05-27 13:53:15.549000'
S'data saved as csv to c:\\Charlie\\charlie\\data\\csv\\4383_switching.csv'
tp491
a(S'2015-05-27 13:53:17.986000'
g295
tp492
a(S'2015-05-27 13:53:17.999000'
g297
tp493
a(S'2015-05-27 13:53:18.004000'
S'data saved as csv to c:\\Charlie\\charlie\\data\\csv\\4383_switching.csv'
tp494
a(S'2015-05-27 13:53:19.632000'
g295
tp495
a(S'2015-05-27 13:53:19.645000'
g297
tp496
a(S'2015-05-27 13:53:19.650000'
S'data saved as csv to c:\\Charlie\\charlie\\data\\csv\\4383_switching.csv'
tp497
a(S'2015-05-27 13:53:24.237000'
g295
tp498
a(S'2015-05-27 13:53:24.251000'
g297
tp499
a(S'2015-05-27 13:53:24.256000'
S'data saved as csv to c:\\Charlie\\charlie\\data\\csv\\4383_switching.csv'
tp500
a(S'2015-05-27 13:53:25.191000'
g295
tp501
a(S'2015-05-27 13:53:25.205000'
g297
tp502
a(S'2015-05-27 13:53:25.210000'
S'data saved as csv to c:\\Charlie\\charlie\\data\\csv\\4383_switching.csv'
tp503
a(S'2015-05-27 13:53:26.626000'
g295
tp504
a(S'2015-05-27 13:53:26.639000'
g297
tp505
a(S'2015-05-27 13:53:26.644000'
S'data saved as csv to c:\\Charlie\\charlie\\data\\csv\\4383_switching.csv'
tp506
a(S'2015-05-27 13:53:27.270000'
g295
tp507
a(S'2015-05-27 13:53:27.284000'
g297
tp508
a(S'2015-05-27 13:53:27.288000'
S'data saved as csv to c:\\Charlie\\charlie\\data\\csv\\4383_switching.csv'
tp509
a(S'2015-05-27 13:53:28.662000'
g295
tp510
a(S'2015-05-27 13:53:28.676000'
g297
tp511
a(S'2015-05-27 13:53:28.681000'
S'data saved as csv to c:\\Charlie\\charlie\\data\\csv\\4383_switching.csv'
tp512
a(S'2015-05-27 13:53:29.458000'
g295
tp513
a(S'2015-05-27 13:53:29.471000'
g297
tp514
a(S'2015-05-27 13:53:29.476000'
S'data saved as csv to c:\\Charlie\\charlie\\data\\csv\\4383_switching.csv'
tp515
a(S'2015-05-27 13:53:33.312000'
g295
tp516
a(S'2015-05-27 13:53:33.326000'
g297
tp517
a(S'2015-05-27 13:53:33.332000'
S'data saved as csv to c:\\Charlie\\charlie\\data\\csv\\4383_switching.csv'
tp518
a(S'2015-05-27 13:53:35.109000'
g295
tp519
a(S'2015-05-27 13:53:35.120000'
g297
tp520
a(S'2015-05-27 13:53:35.123000'
S'data saved as csv to c:\\Charlie\\charlie\\data\\csv\\4383_switching.csv'
tp521
a(S'2015-05-27 13:53:36.379000'
g295
tp522
a(S'2015-05-27 13:53:36.392000'
g297
tp523
a(S'2015-05-27 13:53:36.398000'
S'data saved as csv to c:\\Charlie\\charlie\\data\\csv\\4383_switching.csv'
tp524
a(S'2015-05-27 13:53:37.265000'
g295
tp525
a(S'2015-05-27 13:53:37.277000'
g297
tp526
a(S'2015-05-27 13:53:37.280000'
S'data saved as csv to c:\\Charlie\\charlie\\data\\csv\\4383_switching.csv'
tp527
a(S'2015-05-27 13:53:40.595000'
g295
tp528
a(S'2015-05-27 13:53:40.608000'
g297
tp529
a(S'2015-05-27 13:53:40.610000'
S'data saved as csv to c:\\Charlie\\charlie\\data\\csv\\4383_switching.csv'
tp530
a(S'2015-05-27 13:53:44.656000'
g295
tp531
a(S'2015-05-27 13:53:44.670000'
g297
tp532
a(S'2015-05-27 13:53:44.675000'
S'data saved as csv to c:\\Charlie\\charlie\\data\\csv\\4383_switching.csv'
tp533
a(S'2015-05-27 13:53:47.192000'
g295
tp534
a(S'2015-05-27 13:53:47.206000'
g297
tp535
a(S'2015-05-27 13:53:47.209000'
S'data saved as csv to c:\\Charlie\\charlie\\data\\csv\\4383_switching.csv'
tp536
a(S'2015-05-27 13:53:47.734000'
g295
tp537
a(S'2015-05-27 13:53:47.748000'
g297
tp538
a(S'2015-05-27 13:53:47.753000'
S'data saved as csv to c:\\Charlie\\charlie\\data\\csv\\4383_switching.csv'
tp539
a(S'2015-05-27 13:53:49.240000'
g295
tp540
a(S'2015-05-27 13:53:49.253000'
g297
tp541
a(S'2015-05-27 13:53:49.258000'
S'data saved as csv to c:\\Charlie\\charlie\\data\\csv\\4383_switching.csv'
tp542
a(S'2015-05-27 13:53:50.926000'
g295
tp543
a(S'2015-05-27 13:53:50.939000'
g297
tp544
a(S'2015-05-27 13:53:50.945000'
S'data saved as csv to c:\\Charlie\\charlie\\data\\csv\\4383_switching.csv'
tp545
a(S'2015-05-27 13:53:52.462000'
g295
tp546
a(S'2015-05-27 13:53:52.476000'
g297
tp547
a(S'2015-05-27 13:53:52.481000'
S'data saved as csv to c:\\Charlie\\charlie\\data\\csv\\4383_switching.csv'
tp548
a(S'2015-05-27 13:53:53.638000'
g295
tp549
a(S'2015-05-27 13:53:53.652000'
g297
tp550
a(S'2015-05-27 13:53:53.657000'
S'data saved as csv to c:\\Charlie\\charlie\\data\\csv\\4383_switching.csv'
tp551
a(S'2015-05-27 13:53:59.873000'
g295
tp552
a(S'2015-05-27 13:53:59.886000'
g297
tp553
a(S'2015-05-27 13:53:59.892000'
S'data saved as csv to c:\\Charlie\\charlie\\data\\csv\\4383_switching.csv'
tp554
a(S'2015-05-27 13:54:01.509000'
g295
tp555
a(S'2015-05-27 13:54:01.523000'
g297
tp556
a(S'2015-05-27 13:54:01.528000'
S'data saved as csv to c:\\Charlie\\charlie\\data\\csv\\4383_switching.csv'
tp557
a(S'2015-05-27 13:54:02.804000'
g295
tp558
a(S'2015-05-27 13:54:02.818000'
g297
tp559
a(S'2015-05-27 13:54:02.823000'
S'data saved as csv to c:\\Charlie\\charlie\\data\\csv\\4383_switching.csv'
tp560
a(S'2015-05-27 13:54:03.840000'
g295
tp561
a(S'2015-05-27 13:54:03.854000'
g297
tp562
a(S'2015-05-27 13:54:03.857000'
S'data saved as csv to c:\\Charlie\\charlie\\data\\csv\\4383_switching.csv'
tp563
a(S'2015-05-27 13:54:09.523000'
g295
tp564
a(S'2015-05-27 13:54:09.537000'
g297
tp565
a(S'2015-05-27 13:54:09.542000'
S'data saved as csv to c:\\Charlie\\charlie\\data\\csv\\4383_switching.csv'
tp566
a(S'2015-05-27 13:54:14.720000'
g295
tp567
a(S'2015-05-27 13:54:14.734000'
g297
tp568
a(S'2015-05-27 13:54:14.740000'
S'data saved as csv to c:\\Charlie\\charlie\\data\\csv\\4383_switching.csv'
tp569
a(S'2015-05-27 13:54:16.997000'
g295
tp570
a(S'2015-05-27 13:54:17.011000'
g297
tp571
a(S'2015-05-27 13:54:17.017000'
S'data saved as csv to c:\\Charlie\\charlie\\data\\csv\\4383_switching.csv'
tp572
a(S'2015-05-27 13:54:21.515000'
g295
tp573
a(S'2015-05-27 13:54:21.527000'
g297
tp574
a(S'2015-05-27 13:54:21.530000'
S'data saved as csv to c:\\Charlie\\charlie\\data\\csv\\4383_switching.csv'
tp575
a(S'2015-05-27 13:54:23.995000'
g295
tp576
a(S'2015-05-27 13:54:24.008000'
g297
tp577
a(S'2015-05-27 13:54:24.013000'
S'data saved as csv to c:\\Charlie\\charlie\\data\\csv\\4383_switching.csv'
tp578
a(S'2015-05-27 13:54:28.069000'
g295
tp579
a(S'2015-05-27 13:54:28.083000'
g297
tp580
a(S'2015-05-27 13:54:28.088000'
S'data saved as csv to c:\\Charlie\\charlie\\data\\csv\\4383_switching.csv'
tp581
a(S'2015-05-27 13:54:29.846000'
g295
tp582
a(S'2015-05-27 13:54:29.860000'
g297
tp583
a(S'2015-05-27 13:54:29.864000'
S'data saved as csv to c:\\Charlie\\charlie\\data\\csv\\4383_switching.csv'
tp584
a(S'2015-05-27 13:54:30.720000'
g295
tp585
a(S'2015-05-27 13:54:30.734000'
g297
tp586
a(S'2015-05-27 13:54:30.736000'
S'data saved as csv to c:\\Charlie\\charlie\\data\\csv\\4383_switching.csv'
tp587
a(S'2015-05-27 13:54:32.112000'
g295
tp588
a(S'2015-05-27 13:54:32.126000'
g297
tp589
a(S'2015-05-27 13:54:32.131000'
S'data saved as csv to c:\\Charlie\\charlie\\data\\csv\\4383_switching.csv'
tp590
a(S'2015-05-27 13:54:34.639000'
g295
tp591
a(S'2015-05-27 13:54:34.653000'
g297
tp592
a(S'2015-05-27 13:54:34.658000'
S'data saved as csv to c:\\Charlie\\charlie\\data\\csv\\4383_switching.csv'
tp593
a(S'2015-05-27 13:54:38.716000'
g295
tp594
a(S'2015-05-27 13:54:38.730000'
g297
tp595
a(S'2015-05-27 13:54:38.736000'
S'data saved as csv to c:\\Charlie\\charlie\\data\\csv\\4383_switching.csv'
tp596
a(S'2015-05-27 13:54:39.753000'
g295
tp597
a(S'2015-05-27 13:54:39.765000'
g297
tp598
a(S'2015-05-27 13:54:39.767000'
S'data saved as csv to c:\\Charlie\\charlie\\data\\csv\\4383_switching.csv'
tp599
a(S'2015-05-27 13:54:44.534000'
g295
tp600
a(S'2015-05-27 13:54:44.548000'
g297
tp601
a(S'2015-05-27 13:54:44.554000'
S'data saved as csv to c:\\Charlie\\charlie\\data\\csv\\4383_switching.csv'
tp602
a(S'2015-05-27 13:54:45.641000'
g295
tp603
a(S'2015-05-27 13:54:45.650000'
g297
tp604
a(S'2015-05-27 13:54:45.653000'
S'data saved as csv to c:\\Charlie\\charlie\\data\\csv\\4383_switching.csv'
tp605
a(S'2015-05-27 13:54:46.729000'
g295
tp606
a(S'2015-05-27 13:54:46.743000'
g297
tp607
a(S'2015-05-27 13:54:46.749000'
S'data saved as csv to c:\\Charlie\\charlie\\data\\csv\\4383_switching.csv'
tp608
a(S'2015-05-27 13:54:47.336000'
g295
tp609
a(S'2015-05-27 13:54:47.351000'
g297
tp610
a(S'2015-05-27 13:54:47.355000'
S'data saved as csv to c:\\Charlie\\charlie\\data\\csv\\4383_switching.csv'
tp611
a(S'2015-05-27 13:54:48.569000'
g295
tp612
a(S'2015-05-27 13:54:48.583000'
g297
tp613
a(S'2015-05-27 13:54:48.586000'
S'data saved as csv to c:\\Charlie\\charlie\\data\\csv\\4383_switching.csv'
tp614
a(S'2015-05-27 13:54:50.942000'
g295
tp615
a(S'2015-05-27 13:54:50.955000'
g297
tp616
a(S'2015-05-27 13:54:50.958000'
S'data saved as csv to c:\\Charlie\\charlie\\data\\csv\\4383_switching.csv'
tp617
a(S'2015-05-27 13:54:52.304000'
g295
tp618
a(S'2015-05-27 13:54:52.318000'
g297
tp619
a(S'2015-05-27 13:54:52.323000'
S'data saved as csv to c:\\Charlie\\charlie\\data\\csv\\4383_switching.csv'
tp620
a(S'2015-05-27 13:54:53.331000'
g295
tp621
a(S'2015-05-27 13:54:53.346000'
g297
tp622
a(S'2015-05-27 13:54:53.352000'
S'data saved as csv to c:\\Charlie\\charlie\\data\\csv\\4383_switching.csv'
tp623
a(S'2015-05-27 13:54:57.118000'
g295
tp624
a(S'2015-05-27 13:54:57.132000'
g297
tp625
a(S'2015-05-27 13:54:57.135000'
S'data saved as csv to c:\\Charlie\\charlie\\data\\csv\\4383_switching.csv'
tp626
a(S'2015-05-27 13:55:28.400000'
g295
tp627
a(S'2015-05-27 13:55:28.414000'
g297
tp628
a(S'2015-05-27 13:55:28.420000'
S'data saved as csv to c:\\Charlie\\charlie\\data\\csv\\4383_switching.csv'
tp629
a(S'2015-05-27 13:55:29.485000'
g295
tp630
a(S'2015-05-27 13:55:29.499000'
g297
tp631
a(S'2015-05-27 13:55:29.502000'
S'data saved as csv to c:\\Charlie\\charlie\\data\\csv\\4383_switching.csv'
tp632
a(S'2015-05-27 13:55:30.317000'
g295
tp633
a(S'2015-05-27 13:55:30.332000'
g297
tp634
a(S'2015-05-27 13:55:30.338000'
S'data saved as csv to c:\\Charlie\\charlie\\data\\csv\\4383_switching.csv'
tp635
a(S'2015-05-27 13:55:31.664000'
g295
tp636
a(S'2015-05-27 13:55:31.678000'
g297
tp637
a(S'2015-05-27 13:55:31.684000'
S'data saved as csv to c:\\Charlie\\charlie\\data\\csv\\4383_switching.csv'
tp638
a(S'2015-05-27 13:55:33.351000'
g295
tp639
a(S'2015-05-27 13:55:33.366000'
g297
tp640
a(S'2015-05-27 13:55:33.371000'
S'data saved as csv to c:\\Charlie\\charlie\\data\\csv\\4383_switching.csv'
tp641
a(S'2015-05-27 13:55:33.976000'
g295
tp642
a(S'2015-05-27 13:55:33.991000'
g297
tp643
a(S'2015-05-27 13:55:33.997000'
S'data saved as csv to c:\\Charlie\\charlie\\data\\csv\\4383_switching.csv'
tp644
a(S'2015-05-27 13:55:35.164000'
g295
tp645
a(S'2015-05-27 13:55:35.179000'
g297
tp646
a(S'2015-05-27 13:55:35.185000'
S'data saved as csv to c:\\Charlie\\charlie\\data\\csv\\4383_switching.csv'
tp647
a(S'2015-05-27 13:55:36.512000'
g295
tp648
a(S'2015-05-27 13:55:36.527000'
g297
tp649
a(S'2015-05-27 13:55:36.533000'
S'data saved as csv to c:\\Charlie\\charlie\\data\\csv\\4383_switching.csv'
tp650
a(S'2015-05-27 13:55:41.081000'
g295
tp651
a(S'2015-05-27 13:55:41.095000'
g297
tp652
a(S'2015-05-27 13:55:41.101000'
S'data saved as csv to c:\\Charlie\\charlie\\data\\csv\\4383_switching.csv'
tp653
a(S'2015-05-27 13:55:42.118000'
g295
tp654
a(S'2015-05-27 13:55:42.131000'
g297
tp655
a(S'2015-05-27 13:55:42.135000'
S'data saved as csv to c:\\Charlie\\charlie\\data\\csv\\4383_switching.csv'
tp656
a(S'2015-05-27 13:55:44.931000'
g295
tp657
a(S'2015-05-27 13:55:44.945000'
g297
tp658
a(S'2015-05-27 13:55:44.951000'
S'data saved as csv to c:\\Charlie\\charlie\\data\\csv\\4383_switching.csv'
tp659
a(S'2015-05-27 13:55:46.786000'
g295
tp660
a(S'2015-05-27 13:55:46.801000'
g297
tp661
a(S'2015-05-27 13:55:46.807000'
S'data saved as csv to c:\\Charlie\\charlie\\data\\csv\\4383_switching.csv'
tp662
a(S'2015-05-27 13:55:48.864000'
g295
tp663
a(S'2015-05-27 13:55:48.879000'
g297
tp664
a(S'2015-05-27 13:55:48.882000'
S'data saved as csv to c:\\Charlie\\charlie\\data\\csv\\4383_switching.csv'
tp665
a(S'2015-05-27 13:55:52.128000'
g295
tp666
a(S'2015-05-27 13:55:52.143000'
g297
tp667
a(S'2015-05-27 13:55:52.149000'
S'data saved as csv to c:\\Charlie\\charlie\\data\\csv\\4383_switching.csv'
tp668
a(S'2015-05-27 13:55:53.567000'
g295
tp669
a(S'2015-05-27 13:55:53.581000'
g297
tp670
a(S'2015-05-27 13:55:53.587000'
S'data saved as csv to c:\\Charlie\\charlie\\data\\csv\\4383_switching.csv'
tp671
a(S'2015-05-27 13:55:54.904000'
g295
tp672
a(S'2015-05-27 13:55:54.915000'
g297
tp673
a(S'2015-05-27 13:55:54.919000'
S'data saved as csv to c:\\Charlie\\charlie\\data\\csv\\4383_switching.csv'
tp674
a(S'2015-05-27 13:55:55.926000'
g295
tp675
a(S'2015-05-27 13:55:55.940000'
g297
tp676
a(S'2015-05-27 13:55:55.946000'
S'data saved as csv to c:\\Charlie\\charlie\\data\\csv\\4383_switching.csv'
tp677
a(S'2015-05-27 13:55:59.685000'
g295
tp678
a(S'2015-05-27 13:55:59.699000'
g297
tp679
a(S'2015-05-27 13:55:59.706000'
S'data saved as csv to c:\\Charlie\\charlie\\data\\csv\\4383_switching.csv'
tp680
a(S'2015-05-27 13:56:06.143000'
g295
tp681
a(S'2015-05-27 13:56:06.158000'
g297
tp682
a(S'2015-05-27 13:56:06.161000'
S'data saved as csv to c:\\Charlie\\charlie\\data\\csv\\4383_switching.csv'
tp683
a(S'2015-05-27 13:56:07.337000'
g295
tp684
a(S'2015-05-27 13:56:07.351000'
g297
tp685
a(S'2015-05-27 13:56:07.357000'
S'data saved as csv to c:\\Charlie\\charlie\\data\\csv\\4383_switching.csv'
tp686
a(S'2015-05-27 13:56:08.693000'
g295
tp687
a(S'2015-05-27 13:56:08.708000'
g297
tp688
a(S'2015-05-27 13:56:08.711000'
S'data saved as csv to c:\\Charlie\\charlie\\data\\csv\\4383_switching.csv'
tp689
a(S'2015-05-27 13:56:16.687000'
g295
tp690
a(S'2015-05-27 13:56:16.702000'
g297
tp691
a(S'2015-05-27 13:56:16.708000'
S'data saved as csv to c:\\Charlie\\charlie\\data\\csv\\4383_switching.csv'
tp692
a(S'2015-05-27 13:56:17.736000'
g295
tp693
a(S'2015-05-27 13:56:17.745000'
g297
tp694
a(S'2015-05-27 13:56:17.749000'
S'data saved as csv to c:\\Charlie\\charlie\\data\\csv\\4383_switching.csv'
tp695
a(S'2015-05-27 13:56:19.014000'
g295
tp696
a(S'2015-05-27 13:56:19.028000'
g297
tp697
a(S'2015-05-27 13:56:19.031000'
S'data saved as csv to c:\\Charlie\\charlie\\data\\csv\\4383_switching.csv'
tp698
a(S'2015-05-27 13:56:20.416000'
g295
tp699
a(S'2015-05-27 13:56:20.432000'
g297
tp700
a(S'2015-05-27 13:56:20.438000'
S'data saved as csv to c:\\Charlie\\charlie\\data\\csv\\4383_switching.csv'
tp701
a(S'2015-05-27 13:56:23.092000'
g295
tp702
a(S'2015-05-27 13:56:23.105000'
g297
tp703
a(S'2015-05-27 13:56:23.108000'
S'data saved as csv to c:\\Charlie\\charlie\\data\\csv\\4383_switching.csv'
tp704
a(S'2015-05-27 13:56:24.615000'
g295
tp705
a(S'2015-05-27 13:56:24.630000'
g297
tp706
a(S'2015-05-27 13:56:24.636000'
S'data saved as csv to c:\\Charlie\\charlie\\data\\csv\\4383_switching.csv'
tp707
a(S'2015-05-27 13:56:25.813000'
g295
tp708
a(S'2015-05-27 13:56:25.827000'
g297
tp709
a(S'2015-05-27 13:56:25.833000'
S'data saved as csv to c:\\Charlie\\charlie\\data\\csv\\4383_switching.csv'
tp710
a(S'2015-05-27 13:56:27.081000'
g295
tp711
a(S'2015-05-27 13:56:27.096000'
g297
tp712
a(S'2015-05-27 13:56:27.099000'
S'data saved as csv to c:\\Charlie\\charlie\\data\\csv\\4383_switching.csv'
tp713
a(S'2015-05-27 13:56:29.085000'
g295
tp714
a(S'2015-05-27 13:56:29.100000'
g297
tp715
a(S'2015-05-27 13:56:29.106000'
S'data saved as csv to c:\\Charlie\\charlie\\data\\csv\\4383_switching.csv'
tp716
a(S'2015-05-27 13:56:30.213000'
g295
tp717
a(S'2015-05-27 13:56:30.228000'
g297
tp718
a(S'2015-05-27 13:56:30.234000'
S'data saved as csv to c:\\Charlie\\charlie\\data\\csv\\4383_switching.csv'
tp719
a(S'2015-05-27 13:56:31.212000'
g295
tp720
a(S'2015-05-27 13:56:31.227000'
g297
tp721
a(S'2015-05-27 13:56:31.234000'
S'data saved as csv to c:\\Charlie\\charlie\\data\\csv\\4383_switching.csv'
tp722
a(S'2015-05-27 13:56:32.341000'
g295
tp723
a(S'2015-05-27 13:56:32.352000'
g297
tp724
a(S'2015-05-27 13:56:32.357000'
S'data saved as csv to c:\\Charlie\\charlie\\data\\csv\\4383_switching.csv'
tp725
a(S'2015-05-27 13:56:33.444000'
g295
tp726
a(S'2015-05-27 13:56:33.458000'
g297
tp727
a(S'2015-05-27 13:56:33.461000'
S'data saved as csv to c:\\Charlie\\charlie\\data\\csv\\4383_switching.csv'
tp728
a(S'2015-05-27 13:56:35.447000'
g295
tp729
a(S'2015-05-27 13:56:35.463000'
g297
tp730
a(S'2015-05-27 13:56:35.468000'
S'data saved as csv to c:\\Charlie\\charlie\\data\\csv\\4383_switching.csv'
tp731
a(S'2015-05-27 13:56:42.675000'
g295
tp732
a(S'2015-05-27 13:56:42.690000'
g297
tp733
a(S'2015-05-27 13:56:42.696000'
S'data saved as csv to c:\\Charlie\\charlie\\data\\csv\\4383_switching.csv'
tp734
a(S'2015-05-27 13:56:45.053000'
g295
tp735
a(S'2015-05-27 13:56:45.066000'
g297
tp736
a(S'2015-05-27 13:56:45.070000'
S'data saved as csv to c:\\Charlie\\charlie\\data\\csv\\4383_switching.csv'
tp737
a(S'2015-05-27 13:56:45.816000'
g295
tp738
a(S'2015-05-27 13:56:45.832000'
g297
tp739
a(S'2015-05-27 13:56:45.838000'
S'data saved as csv to c:\\Charlie\\charlie\\data\\csv\\4383_switching.csv'
tp740
a(S'2015-05-27 13:56:46.606000'
g295
tp741
a(S'2015-05-27 13:56:46.621000'
g297
tp742
a(S'2015-05-27 13:56:46.626000'
S'data saved as csv to c:\\Charlie\\charlie\\data\\csv\\4383_switching.csv'
tp743
a(S'2015-05-27 13:56:47.403000'
g295
tp744
a(S'2015-05-27 13:56:47.413000'
g297
tp745
a(S'2015-05-27 13:56:47.417000'
S'data saved as csv to c:\\Charlie\\charlie\\data\\csv\\4383_switching.csv'
tp746
a(S'2015-05-27 13:56:48.402000'
g295
tp747
a(S'2015-05-27 13:56:48.417000'
g297
tp748
a(S'2015-05-27 13:56:48.424000'
S'data saved as csv to c:\\Charlie\\charlie\\data\\csv\\4383_switching.csv'
tp749
a(S'2015-05-27 13:56:49.611000'
g295
tp750
a(S'2015-05-27 13:56:49.626000'
g297
tp751
a(S'2015-05-27 13:56:49.629000'
S'data saved as csv to c:\\Charlie\\charlie\\data\\csv\\4383_switching.csv'
tp752
a(S'2015-05-27 13:56:50.865000'
g295
tp753
a(S'2015-05-27 13:56:50.881000'
g297
tp754
a(S'2015-05-27 13:56:50.886000'
S'data saved as csv to c:\\Charlie\\charlie\\data\\csv\\4383_switching.csv'
tp755
a(S'2015-05-27 13:56:52.133000'
g295
tp756
a(S'2015-05-27 13:56:52.147000'
g297
tp757
a(S'2015-05-27 13:56:52.150000'
S'data saved as csv to c:\\Charlie\\charlie\\data\\csv\\4383_switching.csv'
tp758
a(S'2015-05-27 13:56:53.046000'
g295
tp759
a(S'2015-05-27 13:56:53.055000'
g297
tp760
a(S'2015-05-27 13:56:53.059000'
S'data saved as csv to c:\\Charlie\\charlie\\data\\csv\\4383_switching.csv'
tp761
a(S'2015-05-27 13:56:54.835000'
g295
tp762
a(S'2015-05-27 13:56:54.848000'
g297
tp763
a(S'2015-05-27 13:56:54.851000'
S'data saved as csv to c:\\Charlie\\charlie\\data\\csv\\4383_switching.csv'
tp764
a(S'2015-05-27 13:56:58.598000'
g295
tp765
a(S'2015-05-27 13:56:58.613000'
g297
tp766
a(S'2015-05-27 13:56:58.620000'
S'data saved as csv to c:\\Charlie\\charlie\\data\\csv\\4383_switching.csv'
tp767
a(S'2015-05-27 13:56:59.498000'
g295
tp768
a(S'2015-05-27 13:56:59.513000'
g297
tp769
a(S'2015-05-27 13:56:59.519000'
S'data saved as csv to c:\\Charlie\\charlie\\data\\csv\\4383_switching.csv'
tp770
a(S'2015-05-27 13:57:01.488000'
g295
tp771
a(S'2015-05-27 13:57:01.503000'
g297
tp772
a(S'2015-05-27 13:57:01.507000'
S'data saved as csv to c:\\Charlie\\charlie\\data\\csv\\4383_switching.csv'
tp773
a(S'2015-05-27 13:57:02.453000'
g295
tp774
a(S'2015-05-27 13:57:02.466000'
g297
tp775
a(S'2015-05-27 13:57:02.470000'
S'data saved as csv to c:\\Charlie\\charlie\\data\\csv\\4383_switching.csv'
tp776
a(S'2015-05-27 13:57:03.206000'
g295
tp777
a(S'2015-05-27 13:57:03.218000'
g297
tp778
a(S'2015-05-27 13:57:03.222000'
S'data saved as csv to c:\\Charlie\\charlie\\data\\csv\\4383_switching.csv'
tp779
a(S'2015-05-27 13:57:06.690000'
g295
tp780
a(S'2015-05-27 13:57:06.705000'
g297
tp781
a(S'2015-05-27 13:57:06.712000'
S'data saved as csv to c:\\Charlie\\charlie\\data\\csv\\4383_switching.csv'
tp782
a(S'2015-05-27 13:57:07.691000'
g295
tp783
a(S'2015-05-27 13:57:07.706000'
g297
tp784
a(S'2015-05-27 13:57:07.713000'
S'data saved as csv to c:\\Charlie\\charlie\\data\\csv\\4383_switching.csv'
tp785
a(S'2015-05-27 13:57:09.500000'
g295
tp786
a(S'2015-05-27 13:57:09.515000'
g297
tp787
a(S'2015-05-27 13:57:09.518000'
S'data saved as csv to c:\\Charlie\\charlie\\data\\csv\\4383_switching.csv'
tp788
a(S'2015-05-27 13:57:10.714000'
g295
tp789
a(S'2015-05-27 13:57:10.724000'
g297
tp790
a(S'2015-05-27 13:57:10.727000'
S'data saved as csv to c:\\Charlie\\charlie\\data\\csv\\4383_switching.csv'
tp791
a(S'2015-05-27 13:57:14.915000'
g295
tp792
a(S'2015-05-27 13:57:14.930000'
g297
tp793
a(S'2015-05-27 13:57:14.937000'
S'data saved as csv to c:\\Charlie\\charlie\\data\\csv\\4383_switching.csv'
tp794
a(S'2015-05-27 13:57:16.604000'
g295
tp795
a(S'2015-05-27 13:57:16.620000'
g297
tp796
a(S'2015-05-27 13:57:16.625000'
S'data saved as csv to c:\\Charlie\\charlie\\data\\csv\\4383_switching.csv'
tp797
a(S'2015-05-27 13:57:18.861000'
g295
tp798
a(S'2015-05-27 13:57:18.875000'
g297
tp799
a(S'2015-05-27 13:57:18.878000'
S'data saved as csv to c:\\Charlie\\charlie\\data\\csv\\4383_switching.csv'
tp800
a(S'2015-05-27 13:57:19.795000'
g295
tp801
a(S'2015-05-27 13:57:19.808000'
g297
tp802
a(S'2015-05-27 13:57:19.812000'
S'data saved as csv to c:\\Charlie\\charlie\\data\\csv\\4383_switching.csv'
tp803
a(S'2015-05-27 13:57:22.882000'
g295
tp804
a(S'2015-05-27 13:57:22.889000'
g297
tp805
a(S'2015-05-27 13:57:22.893000'
S'data saved as csv to c:\\Charlie\\charlie\\data\\csv\\4383_switching.csv'
tp806
a(S'2015-05-27 13:57:25.440000'
g295
tp807
a(S'2015-05-27 13:57:25.455000'
g297
tp808
a(S'2015-05-27 13:57:25.462000'
S'data saved as csv to c:\\Charlie\\charlie\\data\\csv\\4383_switching.csv'
tp809
a(S'2015-05-27 13:57:26.520000'
g295
tp810
a(S'2015-05-27 13:57:26.536000'
g297
tp811
a(S'2015-05-27 13:57:26.543000'
S'data saved as csv to c:\\Charlie\\charlie\\data\\csv\\4383_switching.csv'
tp812
a(S'2015-05-27 13:57:29.762000'
g295
tp813
a(S'2015-05-27 13:57:29.777000'
g297
tp814
a(S'2015-05-27 13:57:29.784000'
S'data saved as csv to c:\\Charlie\\charlie\\data\\csv\\4383_switching.csv'
tp815
a(S'2015-05-27 13:57:33.063000'
g295
tp816
a(S'2015-05-27 13:57:33.079000'
g297
tp817
a(S'2015-05-27 13:57:33.086000'
S'data saved as csv to c:\\Charlie\\charlie\\data\\csv\\4383_switching.csv'
tp818
a(S'2015-05-27 13:57:34.673000'
g295
tp819
a(S'2015-05-27 13:57:34.685000'
g297
tp820
a(S'2015-05-27 13:57:34.689000'
S'data saved as csv to c:\\Charlie\\charlie\\data\\csv\\4383_switching.csv'
tp821
a(S'2015-05-27 13:57:35.785000'
g295
tp822
a(S'2015-05-27 13:57:35.797000'
g297
tp823
a(S'2015-05-27 13:57:35.801000'
S'data saved as csv to c:\\Charlie\\charlie\\data\\csv\\4383_switching.csv'
tp824
a(S'2015-05-27 13:57:37.549000'
g295
tp825
a(S'2015-05-27 13:57:37.563000'
g297
tp826
a(S'2015-05-27 13:57:37.567000'
S'data saved as csv to c:\\Charlie\\charlie\\data\\csv\\4383_switching.csv'
tp827
a(S'2015-05-27 13:57:38.274000'
g295
tp828
a(S'2015-05-27 13:57:38.286000'
g297
tp829
a(S'2015-05-27 13:57:38.290000'
S'data saved as csv to c:\\Charlie\\charlie\\data\\csv\\4383_switching.csv'
tp830
a(S'2015-05-27 13:57:39.597000'
g295
tp831
a(S'2015-05-27 13:57:39.608000'
g297
tp832
a(S'2015-05-27 13:57:39.612000'
S'data saved as csv to c:\\Charlie\\charlie\\data\\csv\\4383_switching.csv'
tp833
a(S'2015-05-27 13:57:40.979000'
g295
tp834
a(S'2015-05-27 13:57:40.996000'
g297
tp835
a(S'2015-05-27 13:57:41.002000'
S'data saved as csv to c:\\Charlie\\charlie\\data\\csv\\4383_switching.csv'
tp836
a(S'2015-05-27 13:57:41.752000'
g295
tp837
a(S'2015-05-27 13:57:41.765000'
g297
tp838
a(S'2015-05-27 13:57:41.768000'
S'data saved as csv to c:\\Charlie\\charlie\\data\\csv\\4383_switching.csv'
tp839
a(S'2015-05-27 13:57:42.945000'
g295
tp840
a(S'2015-05-27 13:57:42.961000'
g297
tp841
a(S'2015-05-27 13:57:42.965000'
S'data saved as csv to c:\\Charlie\\charlie\\data\\csv\\4383_switching.csv'
tp842
a(S'2015-05-27 13:57:44.201000'
g295
tp843
a(S'2015-05-27 13:57:44.217000'
g297
tp844
a(S'2015-05-27 13:57:44.223000'
S'data saved as csv to c:\\Charlie\\charlie\\data\\csv\\4383_switching.csv'
tp845
a(S'2015-05-27 13:57:45.851000'
g295
tp846
a(S'2015-05-27 13:57:45.866000'
g297
tp847
a(S'2015-05-27 13:57:45.873000'
S'data saved as csv to c:\\Charlie\\charlie\\data\\csv\\4383_switching.csv'
tp848
a(S'2015-05-27 13:57:47.149000'
g295
tp849
a(S'2015-05-27 13:57:47.164000'
g297
tp850
a(S'2015-05-27 13:57:47.167000'
S'data saved as csv to c:\\Charlie\\charlie\\data\\csv\\4383_switching.csv'
tp851
a(S'2015-05-27 13:57:50.825000'
g295
tp852
a(S'2015-05-27 13:57:50.841000'
g297
tp853
a(S'2015-05-27 13:57:50.848000'
S'data saved as csv to c:\\Charlie\\charlie\\data\\csv\\4383_switching.csv'
tp854
a(S'2015-05-27 13:57:52.736000'
g295
tp855
a(S'2015-05-27 13:57:52.749000'
g297
tp856
a(S'2015-05-27 13:57:52.753000'
S'data saved as csv to c:\\Charlie\\charlie\\data\\csv\\4383_switching.csv'
tp857
a(S'2015-05-27 13:57:54.151000'
g295
tp858
a(S'2015-05-27 13:57:54.166000'
g297
tp859
a(S'2015-05-27 13:57:54.173000'
S'data saved as csv to c:\\Charlie\\charlie\\data\\csv\\4383_switching.csv'
tp860
a(S'2015-05-27 13:57:56.002000'
g295
tp861
a(S'2015-05-27 13:57:56.014000'
g297
tp862
a(S'2015-05-27 13:57:56.018000'
S'data saved as csv to c:\\Charlie\\charlie\\data\\csv\\4383_switching.csv'
tp863
a(S'2015-05-27 13:57:56.974000'
g295
tp864
a(S'2015-05-27 13:57:56.990000'
g297
tp865
a(S'2015-05-27 13:57:56.997000'
S'data saved as csv to c:\\Charlie\\charlie\\data\\csv\\4383_switching.csv'
tp866
a(S'2015-05-27 13:57:58.226000'
g295
tp867
a(S'2015-05-27 13:57:58.237000'
g297
tp868
a(S'2015-05-27 13:57:58.241000'
S'data saved as csv to c:\\Charlie\\charlie\\data\\csv\\4383_switching.csv'
tp869
a(S'2015-05-27 13:57:59.628000'
g295
tp870
a(S'2015-05-27 13:57:59.643000'
g297
tp871
a(S'2015-05-27 13:57:59.646000'
S'data saved as csv to c:\\Charlie\\charlie\\data\\csv\\4383_switching.csv'
tp872
a(S'2015-05-27 13:58:00.404000'
g295
tp873
a(S'2015-05-27 13:58:00.420000'
g297
tp874
a(S'2015-05-27 13:58:00.424000'
S'data saved as csv to c:\\Charlie\\charlie\\data\\csv\\4383_switching.csv'
tp875
a(S'2015-05-27 13:58:01.801000'
g295
tp876
a(S'2015-05-27 13:58:01.816000'
g297
tp877
a(S'2015-05-27 13:58:01.823000'
S'data saved as csv to c:\\Charlie\\charlie\\data\\csv\\4383_switching.csv'
tp878
a(S'2015-05-27 13:58:03.842000'
g295
tp879
a(S'2015-05-27 13:58:03.851000'
g297
tp880
a(S'2015-05-27 13:58:03.855000'
S'data saved as csv to c:\\Charlie\\charlie\\data\\csv\\4383_switching.csv'
tp881
a(S'2015-05-27 13:58:04.849000'
g295
tp882
a(S'2015-05-27 13:58:04.853000'
g297
tp883
a(S'2015-05-27 13:58:04.855000'
S'data saved as csv to c:\\Charlie\\charlie\\data\\csv\\4383_switching.csv'
tp884
a(S'2015-05-27 13:58:06.632000'
g295
tp885
a(S'2015-05-27 13:58:06.643000'
g297
tp886
a(S'2015-05-27 13:58:06.648000'
S'data saved as csv to c:\\Charlie\\charlie\\data\\csv\\4383_switching.csv'
tp887
a(S'2015-05-27 13:58:10.697000'
g295
tp888
a(S'2015-05-27 13:58:10.713000'
g297
tp889
a(S'2015-05-27 13:58:10.720000'
S'data saved as csv to c:\\Charlie\\charlie\\data\\csv\\4383_switching.csv'
tp890
a(S'2015-05-27 13:58:11.519000'
g295
tp891
a(S'2015-05-27 13:58:11.535000'
g297
tp892
a(S'2015-05-27 13:58:11.542000'
S'data saved as csv to c:\\Charlie\\charlie\\data\\csv\\4383_switching.csv'
tp893
a(S'2015-05-27 13:58:17.443000'
g295
tp894
a(S'2015-05-27 13:58:17.460000'
g297
tp895
a(S'2015-05-27 13:58:17.463000'
S'data saved as csv to c:\\Charlie\\charlie\\data\\csv\\4383_switching.csv'
tp896
a(S'2015-05-27 13:58:19.821000'
g295
tp897
a(S'2015-05-27 13:58:19.833000'
g297
tp898
a(S'2015-05-27 13:58:19.837000'
S'data saved as csv to c:\\Charlie\\charlie\\data\\csv\\4383_switching.csv'
tp899
a(S'2015-05-27 13:58:21.615000'
g295
tp900
a(S'2015-05-27 13:58:21.630000'
g297
tp901
a(S'2015-05-27 13:58:21.634000'
S'data saved as csv to c:\\Charlie\\charlie\\data\\csv\\4383_switching.csv'
tp902
a(S'2015-05-27 13:58:22.711000'
g295
tp903
a(S'2015-05-27 13:58:22.720000'
g297
tp904
a(S'2015-05-27 13:58:22.724000'
S'data saved as csv to c:\\Charlie\\charlie\\data\\csv\\4383_switching.csv'
tp905
a(S'2015-05-27 13:58:24.702000'
g295
tp906
a(S'2015-05-27 13:58:24.719000'
g297
tp907
a(S'2015-05-27 13:58:24.722000'
S'data saved as csv to c:\\Charlie\\charlie\\data\\csv\\4383_switching.csv'
tp908
a(S'2015-05-27 13:58:26.090000'
g295
tp909
a(S'2015-05-27 13:58:26.103000'
g297
tp910
a(S'2015-05-27 13:58:26.107000'
S'data saved as csv to c:\\Charlie\\charlie\\data\\csv\\4383_switching.csv'
tp911
a(S'2015-05-27 13:58:28.317000'
g295
tp912
a(S'2015-05-27 13:58:28.327000'
g297
tp913
a(S'2015-05-27 13:58:28.331000'
S'data saved as csv to c:\\Charlie\\charlie\\data\\csv\\4383_switching.csv'
tp914
a(S'2015-05-27 13:58:33.040000'
g295
tp915
a(S'2015-05-27 13:58:33.056000'
g297
tp916
a(S'2015-05-27 13:58:33.061000'
S'data saved as csv to c:\\Charlie\\charlie\\data\\csv\\4383_switching.csv'
tp917
a(S'2015-05-27 13:58:34.118000'
g295
tp918
a(S'2015-05-27 13:58:34.134000'
g297
tp919
a(S'2015-05-27 13:58:34.140000'
S'data saved as csv to c:\\Charlie\\charlie\\data\\csv\\4383_switching.csv'
tp920
a(S'2015-05-27 13:58:40.120000'
g295
tp921
a(S'2015-05-27 13:58:40.136000'
g297
tp922
a(S'2015-05-27 13:58:40.141000'
S'data saved as csv to c:\\Charlie\\charlie\\data\\csv\\4383_switching.csv'
tp923
a(S'2015-05-27 13:58:41.478000'
g295
tp924
a(S'2015-05-27 13:58:41.491000'
g297
tp925
a(S'2015-05-27 13:58:41.495000'
S'data saved as csv to c:\\Charlie\\charlie\\data\\csv\\4383_switching.csv'
tp926
a(S'2015-05-27 13:58:46.714000'
g295
tp927
a(S'2015-05-27 13:58:46.730000'
g297
tp928
a(S'2015-05-27 13:58:46.737000'
S'data saved as csv to c:\\Charlie\\charlie\\data\\csv\\4383_switching.csv'
tp929
asb.