(icharlie.tools.data
Data
p1
(dp2
S'lang'
p3
S'EN'
p4
sS'control'
p5
(lp6
sS'last_updated'
p7
cdatetime
datetime
p8
(S'\x07\xdf\x05\x1b\r\x0f\x13\x07v('
tRp9
sS'last_opened'
p10
g8
(S'\x07\xdf\x05\x1b\r\x0b%\x08E0'
tRp11
sS'proj_id'
p12
S'connectivity'
p13
sS'date_done'
p14
NsS'test_done'
p15
I01
sS'data'
p16
(lp17
(S'4383'
p18
S'stroop'
p19
S'practice'
p20
I0
S'n/a'
p21
S'c:\\Charlie\\charlie\\stimuli\\visual\\stroop\\prac_1.png'
S'Right'
p22
g22
I3460
tp23
a(g18
g19
g20
I1
g21
S'c:\\Charlie\\charlie\\stimuli\\visual\\stroop\\prac_2.png'
S'Left'
p24
g24
I1740
tp25
a(g18
g19
g20
I2
g21
S'c:\\Charlie\\charlie\\stimuli\\visual\\stroop\\prac_3.png'
g22
g22
I920
tp26
a(g18
g19
g20
I3
g21
S'c:\\Charlie\\charlie\\stimuli\\visual\\stroop\\prac_4.png'
g22
g22
I670
tp27
a(g18
g19
S'test'
p28
I0
S'Incongruent'
p29
S'c:\\Charlie\\charlie\\stimuli\\visual\\stroop\\6-Incongruent.png'
g24
g24
I2080
tp30
a(g18
g19
g28
I1
S'Congruent'
p31
S'c:\\Charlie\\charlie\\stimuli\\visual\\stroop\\30-Congruent.png'
g24
g24
I1120
tp32
a(g18
g19
g28
I2
g31
S'c:\\Charlie\\charlie\\stimuli\\visual\\stroop\\3-Congruent.png'
g22
g22
I1550
tp33
a(g18
g19
g28
I3
g29
S'c:\\Charlie\\charlie\\stimuli\\visual\\stroop\\23-Incongruent.png'
g24
g24
I2710
tp34
a(g18
g19
g28
I4
g31
S'c:\\Charlie\\charlie\\stimuli\\visual\\stroop\\39-Congruent.png'
g24
g24
I1501
tp35
a(g18
g19
g28
I5
g31
S'c:\\Charlie\\charlie\\stimuli\\visual\\stroop\\45-Congruent.png'
g24
g24
I930
tp36
a(g18
g19
g28
I6
g29
S'c:\\Charlie\\charlie\\stimuli\\visual\\stroop\\31-Incongruent.png'
g22
g22
I2670
tp37
a(g18
g19
g28
I7
g29
S'c:\\Charlie\\charlie\\stimuli\\visual\\stroop\\28-Incongruent.png'
g24
g24
I2040
tp38
a(g18
g19
g28
I8
g31
S'c:\\Charlie\\charlie\\stimuli\\visual\\stroop\\31-Congruent.png'
g24
g24
I970
tp39
a(g18
g19
g28
I9
g31
S'c:\\Charlie\\charlie\\stimuli\\visual\\stroop\\10-Congruent.png'
g22
g22
I820
tp40
a(g18
g19
g28
I10
g29
S'c:\\Charlie\\charlie\\stimuli\\visual\\stroop\\10-Incongruent.png'
g24
g24
I1310
tp41
a(g18
g19
g28
I11
g29
S'c:\\Charlie\\charlie\\stimuli\\visual\\stroop\\24-Incongruent.png'
g24
g24
I1390
tp42
a(g18
g19
g28
I12
g31
S'c:\\Charlie\\charlie\\stimuli\\visual\\stroop\\34-Congruent.png'
g24
g24
I1080
tp43
a(g18
g19
g28
I13
g31
S'c:\\Charlie\\charlie\\stimuli\\visual\\stroop\\38-Congruent.png'
g24
g24
I1510
tp44
a(g18
g19
g28
I14
g31
S'c:\\Charlie\\charlie\\stimuli\\visual\\stroop\\42-Congruent.png'
g24
g24
I1850
tp45
a(g18
g19
g28
I15
g31
S'c:\\Charlie\\charlie\\stimuli\\visual\\stroop\\17-Congruent.png'
g22
g22
I1941
tp46
a(g18
g19
g28
I16
g29
S'c:\\Charlie\\charlie\\stimuli\\visual\\stroop\\42-Incongruent.png'
g22
g22
I1690
tp47
a(g18
g19
g28
I17
g29
S'c:\\Charlie\\charlie\\stimuli\\visual\\stroop\\36-Incongruent.png'
g22
g22
I1040
tp48
a(g18
g19
g28
I18
g29
S'c:\\Charlie\\charlie\\stimuli\\visual\\stroop\\43-Incongruent.png'
g22
g22
I1440
tp49
a(g18
g19
g28
I19
g31
S'c:\\Charlie\\charlie\\stimuli\\visual\\stroop\\49-Congruent.png'
g24
g24
I990
tp50
a(g18
g19
g28
I20
g31
S'c:\\Charlie\\charlie\\stimuli\\visual\\stroop\\43-Congruent.png'
g24
g24
I930
tp51
a(g18
g19
g28
I21
g29
S'c:\\Charlie\\charlie\\stimuli\\visual\\stroop\\15-Incongruent.png'
g24
g24
I990
tp52
a(g18
g19
g28
I22
g29
S'c:\\Charlie\\charlie\\stimuli\\visual\\stroop\\35-Incongruent.png'
g22
g22
I1370
tp53
a(g18
g19
g28
I23
g29
S'c:\\Charlie\\charlie\\stimuli\\visual\\stroop\\44-Incongruent.png'
g22
g22
I2240
tp54
a(g18
g19
g28
I24
g29
S'c:\\Charlie\\charlie\\stimuli\\visual\\stroop\\47-Incongruent.png'
g22
g22
I1090
tp55
a(g18
g19
g28
I25
g29
S'c:\\Charlie\\charlie\\stimuli\\visual\\stroop\\40-Incongruent.png'
g22
g22
I1230
tp56
a(g18
g19
g28
I26
g29
S'c:\\Charlie\\charlie\\stimuli\\visual\\stroop\\25-Incongruent.png'
g24
g24
I1060
tp57
a(g18
g19
g28
I27
g29
S'c:\\Charlie\\charlie\\stimuli\\visual\\stroop\\27-Incongruent.png'
g24
g24
I971
tp58
a(g18
g19
g28
I28
g29
S'c:\\Charlie\\charlie\\stimuli\\visual\\stroop\\56-Incongruent.png'
g22
g22
I750
tp59
a(g18
g19
g28
I29
g31
S'c:\\Charlie\\charlie\\stimuli\\visual\\stroop\\2-Congruent.png'
g22
g22
I1410
tp60
a(g18
g19
g28
I30
g29
S'c:\\Charlie\\charlie\\stimuli\\visual\\stroop\\17-Incongruent.png'
g24
g24
I1150
tp61
a(g18
g19
g28
I31
g31
S'c:\\Charlie\\charlie\\stimuli\\visual\\stroop\\12-Congruent.png'
g22
g22
I710
tp62
a(g18
g19
g28
I32
g29
S'c:\\Charlie\\charlie\\stimuli\\visual\\stroop\\12-Incongruent.png'
g24
g24
I1330
tp63
a(g18
g19
g28
I33
g29
S'c:\\Charlie\\charlie\\stimuli\\visual\\stroop\\26-Incongruent.png'
g24
g24
I1180
tp64
a(g18
g19
g28
I34
g31
S'c:\\Charlie\\charlie\\stimuli\\visual\\stroop\\19-Congruent.png'
g22
g22
I1140
tp65
a(g18
g19
g28
I35
g31
S'c:\\Charlie\\charlie\\stimuli\\visual\\stroop\\23-Congruent.png'
g22
g22
I1020
tp66
a(g18
g19
g28
I36
g31
S'c:\\Charlie\\charlie\\stimuli\\visual\\stroop\\35-Congruent.png'
g24
g24
I790
tp67
a(g18
g19
g28
I37
g31
S'c:\\Charlie\\charlie\\stimuli\\visual\\stroop\\46-Congruent.png'
g24
g24
I860
tp68
a(g18
g19
g28
I38
g29
S'c:\\Charlie\\charlie\\stimuli\\visual\\stroop\\8-Incongruent.png'
g24
g24
I750
tp69
a(g18
g19
g28
I39
g31
S'c:\\Charlie\\charlie\\stimuli\\visual\\stroop\\29-Congruent.png'
g24
g24
I1040
tp70
a(g18
g19
g28
I40
g31
S'c:\\Charlie\\charlie\\stimuli\\visual\\stroop\\14-Congruent.png'
g22
g22
I1080
tp71
a(g18
g19
g28
I41
g31
S'c:\\Charlie\\charlie\\stimuli\\visual\\stroop\\33-Congruent.png'
g24
g24
I630
tp72
a(g18
g19
g28
I42
g29
S'c:\\Charlie\\charlie\\stimuli\\visual\\stroop\\13-Incongruent.png'
g24
g24
I680
tp73
a(g18
g19
g28
I43
g29
S'c:\\Charlie\\charlie\\stimuli\\visual\\stroop\\55-Incongruent.png'
g22
g22
I1531
tp74
a(g18
g19
g28
I44
g31
S'c:\\Charlie\\charlie\\stimuli\\visual\\stroop\\54-Congruent.png'
g24
g24
I660
tp75
a(g18
g19
g28
I45
g31
S'c:\\Charlie\\charlie\\stimuli\\visual\\stroop\\8-Congruent.png'
g22
g22
I820
tp76
a(g18
g19
g28
I46
g31
S'c:\\Charlie\\charlie\\stimuli\\visual\\stroop\\13-Congruent.png'
g22
g22
I1110
tp77
a(g18
g19
g28
I47
g31
S'c:\\Charlie\\charlie\\stimuli\\visual\\stroop\\40-Congruent.png'
g24
g24
I1880
tp78
a(g18
g19
g28
I48
g29
S'c:\\Charlie\\charlie\\stimuli\\visual\\stroop\\9-Incongruent.png'
g24
g24
I720
tp79
a(g18
g19
g28
I49
g31
S'c:\\Charlie\\charlie\\stimuli\\visual\\stroop\\50-Congruent.png'
g24
g24
I800
tp80
a(g18
g19
g28
I50
g31
S'c:\\Charlie\\charlie\\stimuli\\visual\\stroop\\5-Congruent.png'
g22
g22
I4120
tp81
a(g18
g19
g28
I51
g29
S'c:\\Charlie\\charlie\\stimuli\\visual\\stroop\\5-Incongruent.png'
g24
g24
I980
tp82
a(g18
g19
g28
I52
g29
S'c:\\Charlie\\charlie\\stimuli\\visual\\stroop\\53-Incongruent.png'
g22
g22
I1350
tp83
a(g18
g19
g28
I53
g29
S'c:\\Charlie\\charlie\\stimuli\\visual\\stroop\\1-Incongruent.png'
g24
g24
I1550
tp84
a(g18
g19
g28
I54
g31
S'c:\\Charlie\\charlie\\stimuli\\visual\\stroop\\28-Congruent.png'
g22
g22
I811
tp85
a(g18
g19
g28
I55
g29
S'c:\\Charlie\\charlie\\stimuli\\visual\\stroop\\34-Incongruent.png'
g22
g22
I1620
tp86
a(g18
g19
g28
I56
g29
S'c:\\Charlie\\charlie\\stimuli\\visual\\stroop\\20-Incongruent.png'
g24
g24
I1980
tp87
a(g18
g19
g28
I57
g29
S'c:\\Charlie\\charlie\\stimuli\\visual\\stroop\\38-Incongruent.png'
g22
g22
I1300
tp88
a(g18
g19
g28
I58
g29
S'c:\\Charlie\\charlie\\stimuli\\visual\\stroop\\32-Incongruent.png'
g22
g22
I870
tp89
a(g18
g19
g28
I59
g31
S'c:\\Charlie\\charlie\\stimuli\\visual\\stroop\\9-Congruent.png'
g22
g22
I690
tp90
a(g18
g19
g28
I60
g31
S'c:\\Charlie\\charlie\\stimuli\\visual\\stroop\\55-Congruent.png'
g24
g24
I650
tp91
a(g18
g19
g28
I61
g29
S'c:\\Charlie\\charlie\\stimuli\\visual\\stroop\\33-Incongruent.png'
g22
g22
I1360
tp92
a(g18
g19
g28
I62
g29
S'c:\\Charlie\\charlie\\stimuli\\visual\\stroop\\49-Incongruent.png'
g22
g22
I1780
tp93
a(g18
g19
g28
I63
g31
S'c:\\Charlie\\charlie\\stimuli\\visual\\stroop\\4-Congruent.png'
g22
g22
I700
tp94
a(g18
g19
g28
I64
g31
S'c:\\Charlie\\charlie\\stimuli\\visual\\stroop\\6-Congruent.png'
g22
g22
I2460
tp95
a(g18
g19
g28
I65
g31
S'c:\\Charlie\\charlie\\stimuli\\visual\\stroop\\48-Congruent.png'
g24
g24
I640
tp96
a(g18
g19
g28
I66
g31
S'c:\\Charlie\\charlie\\stimuli\\visual\\stroop\\52-Congruent.png'
g24
g24
I620
tp97
a(g18
g19
g28
I67
g31
S'c:\\Charlie\\charlie\\stimuli\\visual\\stroop\\51-Congruent.png'
g24
g24
I700
tp98
a(g18
g19
g28
I68
g31
S'c:\\Charlie\\charlie\\stimuli\\visual\\stroop\\16-Congruent.png'
g22
g22
I840
tp99
a(g18
g19
g28
I69
g31
S'c:\\Charlie\\charlie\\stimuli\\visual\\stroop\\24-Congruent.png'
g22
g22
I760
tp100
a(g18
g19
g28
I70
g29
S'c:\\Charlie\\charlie\\stimuli\\visual\\stroop\\41-Incongruent.png'
g22
g22
I1400
tp101
a(g18
g19
g28
I71
g29
S'c:\\Charlie\\charlie\\stimuli\\visual\\stroop\\48-Incongruent.png'
g22
g22
I1760
tp102
a(g18
g19
g28
I72
g29
S'c:\\Charlie\\charlie\\stimuli\\visual\\stroop\\4-Incongruent.png'
g24
g24
I740
tp103
a(g18
g19
g28
I73
g29
S'c:\\Charlie\\charlie\\stimuli\\visual\\stroop\\54-Incongruent.png'
g22
g22
I2600
tp104
a(g18
g19
g28
I74
g29
S'c:\\Charlie\\charlie\\stimuli\\visual\\stroop\\39-Incongruent.png'
g22
g22
I3780
tp105
a(g18
g19
g28
I75
g31
S'c:\\Charlie\\charlie\\stimuli\\visual\\stroop\\56-Congruent.png'
g24
g24
I1610
tp106
a(g18
g19
g28
I76
g29
S'c:\\Charlie\\charlie\\stimuli\\visual\\stroop\\46-Incongruent.png'
g22
g22
I2090
tp107
a(g18
g19
g28
I77
g31
S'c:\\Charlie\\charlie\\stimuli\\visual\\stroop\\22-Congruent.png'
g22
g22
I1841
tp108
a(g18
g19
g28
I78
g29
S'c:\\Charlie\\charlie\\stimuli\\visual\\stroop\\21-Incongruent.png'
g24
g24
I1020
tp109
a(g18
g19
g28
I79
g29
S'c:\\Charlie\\charlie\\stimuli\\visual\\stroop\\37-Incongruent.png'
g22
g22
I770
tp110
a(g18
g19
g28
I80
g29
S'c:\\Charlie\\charlie\\stimuli\\visual\\stroop\\2-Incongruent.png'
g24
g24
I1070
tp111
a(g18
g19
g28
I81
g31
S'c:\\Charlie\\charlie\\stimuli\\visual\\stroop\\21-Congruent.png'
g22
g22
I490
tp112
a(g18
g19
g28
I82
g29
S'c:\\Charlie\\charlie\\stimuli\\visual\\stroop\\7-Incongruent.png'
g24
g24
I670
tp113
a(g18
g19
g28
I83
g31
S'c:\\Charlie\\charlie\\stimuli\\visual\\stroop\\20-Congruent.png'
g22
g22
I740
tp114
a(g18
g19
g28
I84
g31
S'c:\\Charlie\\charlie\\stimuli\\visual\\stroop\\15-Congruent.png'
g22
g22
I1050
tp115
a(g18
g19
g28
I85
g31
S'c:\\Charlie\\charlie\\stimuli\\visual\\stroop\\26-Congruent.png'
g22
g22
I2270
tp116
a(g18
g19
g28
I86
g29
S'c:\\Charlie\\charlie\\stimuli\\visual\\stroop\\16-Incongruent.png'
g24
g24
I1080
tp117
a(g18
g19
g28
I87
g29
S'c:\\Charlie\\charlie\\stimuli\\visual\\stroop\\50-Incongruent.png'
g22
g22
I1360
tp118
a(g18
g19
g28
I88
g31
S'c:\\Charlie\\charlie\\stimuli\\visual\\stroop\\41-Congruent.png'
g24
g24
I700
tp119
a(g18
g19
g28
I89
g31
S'c:\\Charlie\\charlie\\stimuli\\visual\\stroop\\25-Congruent.png'
g22
g22
I680
tp120
a(g18
g19
g28
I90
g31
S'c:\\Charlie\\charlie\\stimuli\\visual\\stroop\\27-Congruent.png'
g22
g22
I530
tp121
a(g18
g19
g28
I91
g29
S'c:\\Charlie\\charlie\\stimuli\\visual\\stroop\\18-Incongruent.png'
g24
g24
I560
tp122
a(g18
g19
g28
I92
g29
S'c:\\Charlie\\charlie\\stimuli\\visual\\stroop\\30-Incongruent.png'
g22
g22
I900
tp123
a(g18
g19
g28
I93
g31
S'c:\\Charlie\\charlie\\stimuli\\visual\\stroop\\44-Congruent.png'
g24
g24
I550
tp124
a(g18
g19
g28
I94
g31
S'c:\\Charlie\\charlie\\stimuli\\visual\\stroop\\37-Congruent.png'
g24
g22
I560
tp125
a(g18
g19
g28
I95
g29
S'c:\\Charlie\\charlie\\stimuli\\visual\\stroop\\11-Incongruent.png'
g24
g24
I820
tp126
a(g18
g19
g28
I96
g29
S'c:\\Charlie\\charlie\\stimuli\\visual\\stroop\\29-Incongruent.png'
g22
g22
I1170
tp127
a(g18
g19
g28
I97
g29
S'c:\\Charlie\\charlie\\stimuli\\visual\\stroop\\3-Incongruent.png'
g24
g24
I930
tp128
a(g18
g19
g28
I98
g31
S'c:\\Charlie\\charlie\\stimuli\\visual\\stroop\\1-Congruent.png'
g22
g22
I2050
tp129
a(g18
g19
g28
I99
g29
S'c:\\Charlie\\charlie\\stimuli\\visual\\stroop\\52-Incongruent.png'
g22
g22
I840
tp130
a(g18
g19
g28
I100
g29
S'c:\\Charlie\\charlie\\stimuli\\visual\\stroop\\14-Incongruent.png'
g24
g24
I740
tp131
a(g18
g19
g28
I101
g31
S'c:\\Charlie\\charlie\\stimuli\\visual\\stroop\\47-Congruent.png'
g24
g24
I1240
tp132
a(g18
g19
g28
I102
g29
S'c:\\Charlie\\charlie\\stimuli\\visual\\stroop\\19-Incongruent.png'
g24
g24
I2070
tp133
a(g18
g19
g28
I103
g31
S'c:\\Charlie\\charlie\\stimuli\\visual\\stroop\\11-Congruent.png'
g22
g22
I2280
tp134
a(g18
g19
g28
I104
g29
S'c:\\Charlie\\charlie\\stimuli\\visual\\stroop\\22-Incongruent.png'
g24
g24
I1890
tp135
a(g18
g19
g28
I105
g31
S'c:\\Charlie\\charlie\\stimuli\\visual\\stroop\\7-Congruent.png'
g22
g22
I2051
tp136
a(g18
g19
g28
I106
g31
S'c:\\Charlie\\charlie\\stimuli\\visual\\stroop\\53-Congruent.png'
g24
g24
I890
tp137
a(g18
g19
g28
I107
g31
S'c:\\Charlie\\charlie\\stimuli\\visual\\stroop\\32-Congruent.png'
g24
g24
I790
tp138
a(g18
g19
g28
I108
g29
S'c:\\Charlie\\charlie\\stimuli\\visual\\stroop\\45-Incongruent.png'
g22
g22
I1190
tp139
a(g18
g19
g28
I109
g31
S'c:\\Charlie\\charlie\\stimuli\\visual\\stroop\\36-Congruent.png'
g24
g24
I1560
tp140
a(g18
g19
g28
I110
g29
S'c:\\Charlie\\charlie\\stimuli\\visual\\stroop\\51-Incongruent.png'
g22
g22
I1290
tp141
a(g18
g19
g28
I111
g31
S'c:\\Charlie\\charlie\\stimuli\\visual\\stroop\\18-Congruent.png'
p142
g22
g22
I1910
tp143
asS'output_format'
p144
(lp145
(S'proband_id'
p146
c__builtin__
str
p147
tp148
a(S'test_name'
p149
g147
tp150
a(S'phase'
p151
g147
tp152
a(S'trialn'
p153
c__builtin__
int
p154
tp155
a(S'cong'
p156
g147
tp157
a(S'f'
g147
tp158
a(S'ans'
p159
g147
tp160
a(S'rsp'
p161
g147
tp162
a(S'rt'
p163
g154
tp164
asg146
g18
sS'filename'
p165
S'4383_stroop.data'
p166
sS'initialised'
p167
g8
(S'\x07\xdf\x05\x1b\r\x0b%\x08E0'
tRp168
sS'last_udated'
p169
g8
(S'\x07\xdf\x05\x1b\r\x0b%\x08E0'
tRp170
sg149
S'stroop'
p171
sS'directory'
p172
S'c:\\Charlie\\charlie\\data\\raw'
p173
sS'user_id'
p174
S'oleach'
p175
sS'test_started'
p176
I01
sS'abs_filename'
p177
S'c:\\Charlie\\charlie\\data\\raw\\4383_stroop.data'
p178
sS'date_started'
p179
g8
(S'\x07\xdf\x05\x1b\r\x0c\n\x05\x82('
tRp180
sS'log'
p181
(lp182
(S'2015-05-27 13:11:37.542000'
S'instance created'
p183
tp184
a(S'2015-05-27 13:12:10.377000'
S'instance updated'
p185
tp186
a(S'2015-05-27 13:12:10.386000'
S'pandas DataFrame of data created'
p187
tp188
a(S'2015-05-27 13:12:10.395000'
S'data saved as csv to c:\\Charlie\\charlie\\data\\csv\\4383_stroop.csv'
tp189
a(S'2015-05-27 13:12:13.165000'
g185
tp190
a(S'2015-05-27 13:12:13.174000'
g187
tp191
a(S'2015-05-27 13:12:13.178000'
S'data saved as csv to c:\\Charlie\\charlie\\data\\csv\\4383_stroop.csv'
tp192
a(S'2015-05-27 13:12:15.124000'
g185
tp193
a(S'2015-05-27 13:12:15.133000'
g187
tp194
a(S'2015-05-27 13:12:15.136000'
S'data saved as csv to c:\\Charlie\\charlie\\data\\csv\\4383_stroop.csv'
tp195
a(S'2015-05-27 13:12:16.834000'
g185
tp196
a(S'2015-05-27 13:12:16.844000'
g187
tp197
a(S'2015-05-27 13:12:16.847000'
S'data saved as csv to c:\\Charlie\\charlie\\data\\csv\\4383_stroop.csv'
tp198
a(S'2015-05-27 13:12:42.529000'
g185
tp199
a(S'2015-05-27 13:12:42.539000'
g187
tp200
a(S'2015-05-27 13:12:42.543000'
S'data saved as csv to c:\\Charlie\\charlie\\data\\csv\\4383_stroop.csv'
tp201
a(S'2015-05-27 13:12:43.793000'
g185
tp202
a(S'2015-05-27 13:12:43.803000'
g187
tp203
a(S'2015-05-27 13:12:43.807000'
S'data saved as csv to c:\\Charlie\\charlie\\data\\csv\\4383_stroop.csv'
tp204
a(S'2015-05-27 13:12:45.485000'
g185
tp205
a(S'2015-05-27 13:12:45.494000'
g187
tp206
a(S'2015-05-27 13:12:45.498000'
S'data saved as csv to c:\\Charlie\\charlie\\data\\csv\\4383_stroop.csv'
tp207
a(S'2015-05-27 13:12:48.341000'
g185
tp208
a(S'2015-05-27 13:12:48.350000'
g187
tp209
a(S'2015-05-27 13:12:48.354000'
S'data saved as csv to c:\\Charlie\\charlie\\data\\csv\\4383_stroop.csv'
tp210
a(S'2015-05-27 13:12:49.985000'
g185
tp211
a(S'2015-05-27 13:12:49.994000'
g187
tp212
a(S'2015-05-27 13:12:49.998000'
S'data saved as csv to c:\\Charlie\\charlie\\data\\csv\\4383_stroop.csv'
tp213
a(S'2015-05-27 13:12:51.059000'
g185
tp214
a(S'2015-05-27 13:12:51.069000'
g187
tp215
a(S'2015-05-27 13:12:51.072000'
S'data saved as csv to c:\\Charlie\\charlie\\data\\csv\\4383_stroop.csv'
tp216
a(S'2015-05-27 13:12:53.875000'
g185
tp217
a(S'2015-05-27 13:12:53.885000'
g187
tp218
a(S'2015-05-27 13:12:53.888000'
S'data saved as csv to c:\\Charlie\\charlie\\data\\csv\\4383_stroop.csv'
tp219
a(S'2015-05-27 13:12:56.061000'
g185
tp220
a(S'2015-05-27 13:12:56.070000'
g187
tp221
a(S'2015-05-27 13:12:56.074000'
S'data saved as csv to c:\\Charlie\\charlie\\data\\csv\\4383_stroop.csv'
tp222
a(S'2015-05-27 13:12:57.173000'
g185
tp223
a(S'2015-05-27 13:12:57.182000'
g187
tp224
a(S'2015-05-27 13:12:57.186000'
S'data saved as csv to c:\\Charlie\\charlie\\data\\csv\\4383_stroop.csv'
tp225
a(S'2015-05-27 13:12:58.135000'
g185
tp226
a(S'2015-05-27 13:12:58.144000'
g187
tp227
a(S'2015-05-27 13:12:58.147000'
S'data saved as csv to c:\\Charlie\\charlie\\data\\csv\\4383_stroop.csv'
tp228
a(S'2015-05-27 13:12:59.586000'
g185
tp229
a(S'2015-05-27 13:12:59.596000'
g187
tp230
a(S'2015-05-27 13:12:59.599000'
S'data saved as csv to c:\\Charlie\\charlie\\data\\csv\\4383_stroop.csv'
tp231
a(S'2015-05-27 13:13:01.121000'
g185
tp232
a(S'2015-05-27 13:13:01.131000'
g187
tp233
a(S'2015-05-27 13:13:01.134000'
S'data saved as csv to c:\\Charlie\\charlie\\data\\csv\\4383_stroop.csv'
tp234
a(S'2015-05-27 13:13:02.346000'
g185
tp235
a(S'2015-05-27 13:13:02.355000'
g187
tp236
a(S'2015-05-27 13:13:02.359000'
S'data saved as csv to c:\\Charlie\\charlie\\data\\csv\\4383_stroop.csv'
tp237
a(S'2015-05-27 13:13:04'
g185
tp238
a(S'2015-05-27 13:13:04.010000'
g187
tp239
a(S'2015-05-27 13:13:04.014000'
S'data saved as csv to c:\\Charlie\\charlie\\data\\csv\\4383_stroop.csv'
tp240
a(S'2015-05-27 13:13:05.994000'
g185
tp241
a(S'2015-05-27 13:13:06.004000'
g187
tp242
a(S'2015-05-27 13:13:06.008000'
S'data saved as csv to c:\\Charlie\\charlie\\data\\csv\\4383_stroop.csv'
tp243
a(S'2015-05-27 13:13:08.080000'
g185
tp244
a(S'2015-05-27 13:13:08.088000'
g187
tp245
a(S'2015-05-27 13:13:08.092000'
S'data saved as csv to c:\\Charlie\\charlie\\data\\csv\\4383_stroop.csv'
tp246
a(S'2015-05-27 13:13:09.913000'
g185
tp247
a(S'2015-05-27 13:13:09.922000'
g187
tp248
a(S'2015-05-27 13:13:09.926000'
S'data saved as csv to c:\\Charlie\\charlie\\data\\csv\\4383_stroop.csv'
tp249
a(S'2015-05-27 13:13:11.098000'
g185
tp250
a(S'2015-05-27 13:13:11.107000'
g187
tp251
a(S'2015-05-27 13:13:11.109000'
S'data saved as csv to c:\\Charlie\\charlie\\data\\csv\\4383_stroop.csv'
tp252
a(S'2015-05-27 13:13:12.678000'
g185
tp253
a(S'2015-05-27 13:13:12.688000'
g187
tp254
a(S'2015-05-27 13:13:12.692000'
S'data saved as csv to c:\\Charlie\\charlie\\data\\csv\\4383_stroop.csv'
tp255
a(S'2015-05-27 13:13:13.812000'
g185
tp256
a(S'2015-05-27 13:13:13.821000'
g187
tp257
a(S'2015-05-27 13:13:13.825000'
S'data saved as csv to c:\\Charlie\\charlie\\data\\csv\\4383_stroop.csv'
tp258
a(S'2015-05-27 13:13:14.887000'
g185
tp259
a(S'2015-05-27 13:13:14.896000'
g187
tp260
a(S'2015-05-27 13:13:14.900000'
S'data saved as csv to c:\\Charlie\\charlie\\data\\csv\\4383_stroop.csv'
tp261
a(S'2015-05-27 13:13:16.022000'
g185
tp262
a(S'2015-05-27 13:13:16.031000'
g187
tp263
a(S'2015-05-27 13:13:16.035000'
S'data saved as csv to c:\\Charlie\\charlie\\data\\csv\\4383_stroop.csv'
tp264
a(S'2015-05-27 13:13:17.537000'
g185
tp265
a(S'2015-05-27 13:13:17.547000'
g187
tp266
a(S'2015-05-27 13:13:17.551000'
S'data saved as csv to c:\\Charlie\\charlie\\data\\csv\\4383_stroop.csv'
tp267
a(S'2015-05-27 13:13:19.923000'
g185
tp268
a(S'2015-05-27 13:13:19.933000'
g187
tp269
a(S'2015-05-27 13:13:19.937000'
S'data saved as csv to c:\\Charlie\\charlie\\data\\csv\\4383_stroop.csv'
tp270
a(S'2015-05-27 13:13:21.143000'
g185
tp271
a(S'2015-05-27 13:13:21.146000'
g187
tp272
a(S'2015-05-27 13:13:21.147000'
S'data saved as csv to c:\\Charlie\\charlie\\data\\csv\\4383_stroop.csv'
tp273
a(S'2015-05-27 13:13:22.505000'
g185
tp274
a(S'2015-05-27 13:13:22.515000'
g187
tp275
a(S'2015-05-27 13:13:22.519000'
S'data saved as csv to c:\\Charlie\\charlie\\data\\csv\\4383_stroop.csv'
tp276
a(S'2015-05-27 13:13:23.708000'
g185
tp277
a(S'2015-05-27 13:13:23.714000'
g187
tp278
a(S'2015-05-27 13:13:23.716000'
S'data saved as csv to c:\\Charlie\\charlie\\data\\csv\\4383_stroop.csv'
tp279
a(S'2015-05-27 13:13:24.815000'
g185
tp280
a(S'2015-05-27 13:13:24.825000'
g187
tp281
a(S'2015-05-27 13:13:24.829000'
S'data saved as csv to c:\\Charlie\\charlie\\data\\csv\\4383_stroop.csv'
tp282
a(S'2015-05-27 13:13:25.711000'
g185
tp283
a(S'2015-05-27 13:13:25.721000'
g187
tp284
a(S'2015-05-27 13:13:25.726000'
S'data saved as csv to c:\\Charlie\\charlie\\data\\csv\\4383_stroop.csv'
tp285
a(S'2015-05-27 13:13:27.267000'
g185
tp286
a(S'2015-05-27 13:13:27.277000'
g187
tp287
a(S'2015-05-27 13:13:27.281000'
S'data saved as csv to c:\\Charlie\\charlie\\data\\csv\\4383_stroop.csv'
tp288
a(S'2015-05-27 13:13:28.563000'
g185
tp289
a(S'2015-05-27 13:13:28.573000'
g187
tp290
a(S'2015-05-27 13:13:28.577000'
S'data saved as csv to c:\\Charlie\\charlie\\data\\csv\\4383_stroop.csv'
tp291
a(S'2015-05-27 13:13:29.419000'
g185
tp292
a(S'2015-05-27 13:13:29.429000'
g187
tp293
a(S'2015-05-27 13:13:29.433000'
S'data saved as csv to c:\\Charlie\\charlie\\data\\csv\\4383_stroop.csv'
tp294
a(S'2015-05-27 13:13:30.893000'
g185
tp295
a(S'2015-05-27 13:13:30.903000'
g187
tp296
a(S'2015-05-27 13:13:30.908000'
S'data saved as csv to c:\\Charlie\\charlie\\data\\csv\\4383_stroop.csv'
tp297
a(S'2015-05-27 13:13:32.219000'
g185
tp298
a(S'2015-05-27 13:13:32.230000'
g187
tp299
a(S'2015-05-27 13:13:32.234000'
S'data saved as csv to c:\\Charlie\\charlie\\data\\csv\\4383_stroop.csv'
tp300
a(S'2015-05-27 13:13:33.505000'
g185
tp301
a(S'2015-05-27 13:13:33.516000'
g187
tp302
a(S'2015-05-27 13:13:33.520000'
S'data saved as csv to c:\\Charlie\\charlie\\data\\csv\\4383_stroop.csv'
tp303
a(S'2015-05-27 13:13:34.671000'
g185
tp304
a(S'2015-05-27 13:13:34.681000'
g187
tp305
a(S'2015-05-27 13:13:34.684000'
S'data saved as csv to c:\\Charlie\\charlie\\data\\csv\\4383_stroop.csv'
tp306
a(S'2015-05-27 13:13:35.603000'
g185
tp307
a(S'2015-05-27 13:13:35.613000'
g187
tp308
a(S'2015-05-27 13:13:35.617000'
S'data saved as csv to c:\\Charlie\\charlie\\data\\csv\\4383_stroop.csv'
tp309
a(S'2015-05-27 13:13:36.609000'
g185
tp310
a(S'2015-05-27 13:13:36.619000'
g187
tp311
a(S'2015-05-27 13:13:36.624000'
S'data saved as csv to c:\\Charlie\\charlie\\data\\csv\\4383_stroop.csv'
tp312
a(S'2015-05-27 13:13:37.506000'
g185
tp313
a(S'2015-05-27 13:13:37.516000'
g187
tp314
a(S'2015-05-27 13:13:37.520000'
S'data saved as csv to c:\\Charlie\\charlie\\data\\csv\\4383_stroop.csv'
tp315
a(S'2015-05-27 13:13:38.692000'
g185
tp316
a(S'2015-05-27 13:13:38.702000'
g187
tp317
a(S'2015-05-27 13:13:38.707000'
S'data saved as csv to c:\\Charlie\\charlie\\data\\csv\\4383_stroop.csv'
tp318
a(S'2015-05-27 13:13:39.919000'
g185
tp319
a(S'2015-05-27 13:13:39.928000'
g187
tp320
a(S'2015-05-27 13:13:39.933000'
S'data saved as csv to c:\\Charlie\\charlie\\data\\csv\\4383_stroop.csv'
tp321
a(S'2015-05-27 13:13:40.695000'
g185
tp322
a(S'2015-05-27 13:13:40.705000'
g187
tp323
a(S'2015-05-27 13:13:40.709000'
S'data saved as csv to c:\\Charlie\\charlie\\data\\csv\\4383_stroop.csv'
tp324
a(S'2015-05-27 13:13:41.521000'
g185
tp325
a(S'2015-05-27 13:13:41.531000'
g187
tp326
a(S'2015-05-27 13:13:41.535000'
S'data saved as csv to c:\\Charlie\\charlie\\data\\csv\\4383_stroop.csv'
tp327
a(S'2015-05-27 13:13:43.198000'
g185
tp328
a(S'2015-05-27 13:13:43.208000'
g187
tp329
a(S'2015-05-27 13:13:43.212000'
S'data saved as csv to c:\\Charlie\\charlie\\data\\csv\\4383_stroop.csv'
tp330
a(S'2015-05-27 13:13:44.004000'
g185
tp331
a(S'2015-05-27 13:13:44.015000'
g187
tp332
a(S'2015-05-27 13:13:44.019000'
S'data saved as csv to c:\\Charlie\\charlie\\data\\csv\\4383_stroop.csv'
tp333
a(S'2015-05-27 13:13:44.971000'
g185
tp334
a(S'2015-05-27 13:13:44.981000'
g187
tp335
a(S'2015-05-27 13:13:44.986000'
S'data saved as csv to c:\\Charlie\\charlie\\data\\csv\\4383_stroop.csv'
tp336
a(S'2015-05-27 13:13:46.227000'
g185
tp337
a(S'2015-05-27 13:13:46.238000'
g187
tp338
a(S'2015-05-27 13:13:46.242000'
S'data saved as csv to c:\\Charlie\\charlie\\data\\csv\\4383_stroop.csv'
tp339
a(S'2015-05-27 13:13:48.256000'
g185
tp340
a(S'2015-05-27 13:13:48.266000'
g187
tp341
a(S'2015-05-27 13:13:48.270000'
S'data saved as csv to c:\\Charlie\\charlie\\data\\csv\\4383_stroop.csv'
tp342
a(S'2015-05-27 13:13:49.121000'
g185
tp343
a(S'2015-05-27 13:13:49.131000'
g187
tp344
a(S'2015-05-27 13:13:49.135000'
S'data saved as csv to c:\\Charlie\\charlie\\data\\csv\\4383_stroop.csv'
tp345
a(S'2015-05-27 13:13:50.067000'
g185
tp346
a(S'2015-05-27 13:13:50.078000'
g187
tp347
a(S'2015-05-27 13:13:50.082000'
S'data saved as csv to c:\\Charlie\\charlie\\data\\csv\\4383_stroop.csv'
tp348
a(S'2015-05-27 13:13:54.336000'
g185
tp349
a(S'2015-05-27 13:13:54.346000'
g187
tp350
a(S'2015-05-27 13:13:54.351000'
S'data saved as csv to c:\\Charlie\\charlie\\data\\csv\\4383_stroop.csv'
tp351
a(S'2015-05-27 13:13:55.449000'
g185
tp352
a(S'2015-05-27 13:13:55.453000'
g187
tp353
a(S'2015-05-27 13:13:55.455000'
S'data saved as csv to c:\\Charlie\\charlie\\data\\csv\\4383_stroop.csv'
tp354
a(S'2015-05-27 13:13:56.934000'
g185
tp355
a(S'2015-05-27 13:13:56.943000'
g187
tp356
a(S'2015-05-27 13:13:56.946000'
S'data saved as csv to c:\\Charlie\\charlie\\data\\csv\\4383_stroop.csv'
tp357
a(S'2015-05-27 13:13:58.626000'
g185
tp358
a(S'2015-05-27 13:13:58.636000'
g187
tp359
a(S'2015-05-27 13:13:58.641000'
S'data saved as csv to c:\\Charlie\\charlie\\data\\csv\\4383_stroop.csv'
tp360
a(S'2015-05-27 13:13:59.583000'
g185
tp361
a(S'2015-05-27 13:13:59.593000'
g187
tp362
a(S'2015-05-27 13:13:59.597000'
S'data saved as csv to c:\\Charlie\\charlie\\data\\csv\\4383_stroop.csv'
tp363
a(S'2015-05-27 13:14:01.350000'
g185
tp364
a(S'2015-05-27 13:14:01.360000'
g187
tp365
a(S'2015-05-27 13:14:01.365000'
S'data saved as csv to c:\\Charlie\\charlie\\data\\csv\\4383_stroop.csv'
tp366
a(S'2015-05-27 13:14:03.478000'
g185
tp367
a(S'2015-05-27 13:14:03.488000'
g187
tp368
a(S'2015-05-27 13:14:03.493000'
S'data saved as csv to c:\\Charlie\\charlie\\data\\csv\\4383_stroop.csv'
tp369
a(S'2015-05-27 13:14:04.925000'
g185
tp370
a(S'2015-05-27 13:14:04.936000'
g187
tp371
a(S'2015-05-27 13:14:04.940000'
S'data saved as csv to c:\\Charlie\\charlie\\data\\csv\\4383_stroop.csv'
tp372
a(S'2015-05-27 13:14:05.943000'
g185
tp373
a(S'2015-05-27 13:14:05.954000'
g187
tp374
a(S'2015-05-27 13:14:05.958000'
S'data saved as csv to c:\\Charlie\\charlie\\data\\csv\\4383_stroop.csv'
tp375
a(S'2015-05-27 13:14:06.781000'
g185
tp376
a(S'2015-05-27 13:14:06.791000'
g187
tp377
a(S'2015-05-27 13:14:06.796000'
S'data saved as csv to c:\\Charlie\\charlie\\data\\csv\\4383_stroop.csv'
tp378
a(S'2015-05-27 13:14:07.578000'
g185
tp379
a(S'2015-05-27 13:14:07.588000'
g187
tp380
a(S'2015-05-27 13:14:07.592000'
S'data saved as csv to c:\\Charlie\\charlie\\data\\csv\\4383_stroop.csv'
tp381
a(S'2015-05-27 13:14:09.082000'
g185
tp382
a(S'2015-05-27 13:14:09.092000'
g187
tp383
a(S'2015-05-27 13:14:09.095000'
S'data saved as csv to c:\\Charlie\\charlie\\data\\csv\\4383_stroop.csv'
tp384
a(S'2015-05-27 13:14:11.005000'
g185
tp385
a(S'2015-05-27 13:14:11.016000'
g187
tp386
a(S'2015-05-27 13:14:11.020000'
S'data saved as csv to c:\\Charlie\\charlie\\data\\csv\\4383_stroop.csv'
tp387
a(S'2015-05-27 13:14:11.853000'
g185
tp388
a(S'2015-05-27 13:14:11.863000'
g187
tp389
a(S'2015-05-27 13:14:11.868000'
S'data saved as csv to c:\\Charlie\\charlie\\data\\csv\\4383_stroop.csv'
tp390
a(S'2015-05-27 13:14:14.462000'
g185
tp391
a(S'2015-05-27 13:14:14.472000'
g187
tp392
a(S'2015-05-27 13:14:14.477000'
S'data saved as csv to c:\\Charlie\\charlie\\data\\csv\\4383_stroop.csv'
tp393
a(S'2015-05-27 13:14:15.249000'
g185
tp394
a(S'2015-05-27 13:14:15.260000'
g187
tp395
a(S'2015-05-27 13:14:15.264000'
S'data saved as csv to c:\\Charlie\\charlie\\data\\csv\\4383_stroop.csv'
tp396
a(S'2015-05-27 13:14:16.017000'
g185
tp397
a(S'2015-05-27 13:14:16.028000'
g187
tp398
a(S'2015-05-27 13:14:16.032000'
S'data saved as csv to c:\\Charlie\\charlie\\data\\csv\\4383_stroop.csv'
tp399
a(S'2015-05-27 13:14:16.865000'
g185
tp400
a(S'2015-05-27 13:14:16.876000'
g187
tp401
a(S'2015-05-27 13:14:16.880000'
S'data saved as csv to c:\\Charlie\\charlie\\data\\csv\\4383_stroop.csv'
tp402
a(S'2015-05-27 13:14:17.853000'
g185
tp403
a(S'2015-05-27 13:14:17.864000'
g187
tp404
a(S'2015-05-27 13:14:17.868000'
S'data saved as csv to c:\\Charlie\\charlie\\data\\csv\\4383_stroop.csv'
tp405
a(S'2015-05-27 13:14:18.761000'
g185
tp406
a(S'2015-05-27 13:14:18.772000'
g187
tp407
a(S'2015-05-27 13:14:18.776000'
S'data saved as csv to c:\\Charlie\\charlie\\data\\csv\\4383_stroop.csv'
tp408
a(S'2015-05-27 13:14:20.308000'
g185
tp409
a(S'2015-05-27 13:14:20.319000'
g187
tp410
a(S'2015-05-27 13:14:20.323000'
S'data saved as csv to c:\\Charlie\\charlie\\data\\csv\\4383_stroop.csv'
tp411
a(S'2015-05-27 13:14:22.216000'
g185
tp412
a(S'2015-05-27 13:14:22.227000'
g187
tp413
a(S'2015-05-27 13:14:22.232000'
S'data saved as csv to c:\\Charlie\\charlie\\data\\csv\\4383_stroop.csv'
tp414
a(S'2015-05-27 13:14:23.102000'
g185
tp415
a(S'2015-05-27 13:14:23.113000'
g187
tp416
a(S'2015-05-27 13:14:23.118000'
S'data saved as csv to c:\\Charlie\\charlie\\data\\csv\\4383_stroop.csv'
tp417
a(S'2015-05-27 13:14:25.843000'
g185
tp418
a(S'2015-05-27 13:14:25.849000'
g187
tp419
a(S'2015-05-27 13:14:25.852000'
S'data saved as csv to c:\\Charlie\\charlie\\data\\csv\\4383_stroop.csv'
tp420
a(S'2015-05-27 13:14:29.764000'
g185
tp421
a(S'2015-05-27 13:14:29.774000'
g187
tp422
a(S'2015-05-27 13:14:29.779000'
S'data saved as csv to c:\\Charlie\\charlie\\data\\csv\\4383_stroop.csv'
tp423
a(S'2015-05-27 13:14:31.521000'
g185
tp424
a(S'2015-05-27 13:14:31.531000'
g187
tp425
a(S'2015-05-27 13:14:31.534000'
S'data saved as csv to c:\\Charlie\\charlie\\data\\csv\\4383_stroop.csv'
tp426
a(S'2015-05-27 13:14:33.756000'
g185
tp427
a(S'2015-05-27 13:14:33.766000'
g187
tp428
a(S'2015-05-27 13:14:33.771000'
S'data saved as csv to c:\\Charlie\\charlie\\data\\csv\\4383_stroop.csv'
tp429
a(S'2015-05-27 13:14:35.744000'
g185
tp430
a(S'2015-05-27 13:14:35.755000'
g187
tp431
a(S'2015-05-27 13:14:35.760000'
S'data saved as csv to c:\\Charlie\\charlie\\data\\csv\\4383_stroop.csv'
tp432
a(S'2015-05-27 13:14:36.911000'
g185
tp433
a(S'2015-05-27 13:14:36.921000'
g187
tp434
a(S'2015-05-27 13:14:36.926000'
S'data saved as csv to c:\\Charlie\\charlie\\data\\csv\\4383_stroop.csv'
tp435
a(S'2015-05-27 13:14:37.829000'
g185
tp436
a(S'2015-05-27 13:14:37.839000'
g187
tp437
a(S'2015-05-27 13:14:37.844000'
S'data saved as csv to c:\\Charlie\\charlie\\data\\csv\\4383_stroop.csv'
tp438
a(S'2015-05-27 13:14:39.048000'
g185
tp439
a(S'2015-05-27 13:14:39.058000'
g187
tp440
a(S'2015-05-27 13:14:39.062000'
S'data saved as csv to c:\\Charlie\\charlie\\data\\csv\\4383_stroop.csv'
tp441
a(S'2015-05-27 13:14:39.683000'
g185
tp442
a(S'2015-05-27 13:14:39.693000'
g187
tp443
a(S'2015-05-27 13:14:39.698000'
S'data saved as csv to c:\\Charlie\\charlie\\data\\csv\\4383_stroop.csv'
tp444
a(S'2015-05-27 13:14:40.502000'
g185
tp445
a(S'2015-05-27 13:14:40.512000'
g187
tp446
a(S'2015-05-27 13:14:40.517000'
S'data saved as csv to c:\\Charlie\\charlie\\data\\csv\\4383_stroop.csv'
tp447
a(S'2015-05-27 13:14:41.391000'
g185
tp448
a(S'2015-05-27 13:14:41.401000'
g187
tp449
a(S'2015-05-27 13:14:41.404000'
S'data saved as csv to c:\\Charlie\\charlie\\data\\csv\\4383_stroop.csv'
tp450
a(S'2015-05-27 13:14:42.585000'
g185
tp451
a(S'2015-05-27 13:14:42.596000'
g187
tp452
a(S'2015-05-27 13:14:42.600000'
S'data saved as csv to c:\\Charlie\\charlie\\data\\csv\\4383_stroop.csv'
tp453
a(S'2015-05-27 13:14:45.002000'
g185
tp454
a(S'2015-05-27 13:14:45.013000'
g187
tp455
a(S'2015-05-27 13:14:45.018000'
S'data saved as csv to c:\\Charlie\\charlie\\data\\csv\\4383_stroop.csv'
tp456
a(S'2015-05-27 13:14:46.231000'
g185
tp457
a(S'2015-05-27 13:14:46.242000'
g187
tp458
a(S'2015-05-27 13:14:46.247000'
S'data saved as csv to c:\\Charlie\\charlie\\data\\csv\\4383_stroop.csv'
tp459
a(S'2015-05-27 13:14:47.740000'
g185
tp460
a(S'2015-05-27 13:14:47.751000'
g187
tp461
a(S'2015-05-27 13:14:47.756000'
S'data saved as csv to c:\\Charlie\\charlie\\data\\csv\\4383_stroop.csv'
tp462
a(S'2015-05-27 13:14:48.587000'
g185
tp463
a(S'2015-05-27 13:14:48.598000'
g187
tp464
a(S'2015-05-27 13:14:48.601000'
S'data saved as csv to c:\\Charlie\\charlie\\data\\csv\\4383_stroop.csv'
tp465
a(S'2015-05-27 13:14:49.412000'
g185
tp466
a(S'2015-05-27 13:14:49.422000'
g187
tp467
a(S'2015-05-27 13:14:49.427000'
S'data saved as csv to c:\\Charlie\\charlie\\data\\csv\\4383_stroop.csv'
tp468
a(S'2015-05-27 13:14:50.091000'
g185
tp469
a(S'2015-05-27 13:14:50.101000'
g187
tp470
a(S'2015-05-27 13:14:50.106000'
S'data saved as csv to c:\\Charlie\\charlie\\data\\csv\\4383_stroop.csv'
tp471
a(S'2015-05-27 13:14:50.800000'
g185
tp472
a(S'2015-05-27 13:14:50.811000'
g187
tp473
a(S'2015-05-27 13:14:50.816000'
S'data saved as csv to c:\\Charlie\\charlie\\data\\csv\\4383_stroop.csv'
tp474
a(S'2015-05-27 13:14:51.848000'
g185
tp475
a(S'2015-05-27 13:14:51.859000'
g187
tp476
a(S'2015-05-27 13:14:51.864000'
S'data saved as csv to c:\\Charlie\\charlie\\data\\csv\\4383_stroop.csv'
tp477
a(S'2015-05-27 13:14:52.547000'
g185
tp478
a(S'2015-05-27 13:14:52.558000'
g187
tp479
a(S'2015-05-27 13:14:52.561000'
S'data saved as csv to c:\\Charlie\\charlie\\data\\csv\\4383_stroop.csv'
tp480
a(S'2015-05-27 13:14:53.252000'
g185
tp481
a(S'2015-05-27 13:14:53.263000'
g187
tp482
a(S'2015-05-27 13:14:53.268000'
S'data saved as csv to c:\\Charlie\\charlie\\data\\csv\\4383_stroop.csv'
tp483
a(S'2015-05-27 13:14:54.222000'
g185
tp484
a(S'2015-05-27 13:14:54.233000'
g187
tp485
a(S'2015-05-27 13:14:54.238000'
S'data saved as csv to c:\\Charlie\\charlie\\data\\csv\\4383_stroop.csv'
tp486
a(S'2015-05-27 13:14:55.540000'
g185
tp487
a(S'2015-05-27 13:14:55.550000'
g187
tp488
a(S'2015-05-27 13:14:55.556000'
S'data saved as csv to c:\\Charlie\\charlie\\data\\csv\\4383_stroop.csv'
tp489
a(S'2015-05-27 13:14:56.620000'
g185
tp490
a(S'2015-05-27 13:14:56.630000'
g187
tp491
a(S'2015-05-27 13:14:56.635000'
S'data saved as csv to c:\\Charlie\\charlie\\data\\csv\\4383_stroop.csv'
tp492
a(S'2015-05-27 13:14:58.819000'
g185
tp493
a(S'2015-05-27 13:14:58.829000'
g187
tp494
a(S'2015-05-27 13:14:58.832000'
S'data saved as csv to c:\\Charlie\\charlie\\data\\csv\\4383_stroop.csv'
tp495
a(S'2015-05-27 13:14:59.803000'
g185
tp496
a(S'2015-05-27 13:14:59.814000'
g187
tp497
a(S'2015-05-27 13:14:59.819000'
S'data saved as csv to c:\\Charlie\\charlie\\data\\csv\\4383_stroop.csv'
tp498
a(S'2015-05-27 13:15:00.690000'
g185
tp499
a(S'2015-05-27 13:15:00.701000'
g187
tp500
a(S'2015-05-27 13:15:00.706000'
S'data saved as csv to c:\\Charlie\\charlie\\data\\csv\\4383_stroop.csv'
tp501
a(S'2015-05-27 13:15:02.080000'
g185
tp502
a(S'2015-05-27 13:15:02.091000'
g187
tp503
a(S'2015-05-27 13:15:02.096000'
S'data saved as csv to c:\\Charlie\\charlie\\data\\csv\\4383_stroop.csv'
tp504
a(S'2015-05-27 13:15:04.299000'
g185
tp505
a(S'2015-05-27 13:15:04.311000'
g187
tp506
a(S'2015-05-27 13:15:04.316000'
S'data saved as csv to c:\\Charlie\\charlie\\data\\csv\\4383_stroop.csv'
tp507
a(S'2015-05-27 13:15:06.729000'
g185
tp508
a(S'2015-05-27 13:15:06.740000'
g187
tp509
a(S'2015-05-27 13:15:06.746000'
S'data saved as csv to c:\\Charlie\\charlie\\data\\csv\\4383_stroop.csv'
tp510
a(S'2015-05-27 13:15:08.770000'
g185
tp511
a(S'2015-05-27 13:15:08.780000'
g187
tp512
a(S'2015-05-27 13:15:08.785000'
S'data saved as csv to c:\\Charlie\\charlie\\data\\csv\\4383_stroop.csv'
tp513
a(S'2015-05-27 13:15:10.969000'
g185
tp514
a(S'2015-05-27 13:15:10.980000'
g187
tp515
a(S'2015-05-27 13:15:10.986000'
S'data saved as csv to c:\\Charlie\\charlie\\data\\csv\\4383_stroop.csv'
tp516
a(S'2015-05-27 13:15:12.005000'
g185
tp517
a(S'2015-05-27 13:15:12.013000'
g187
tp518
a(S'2015-05-27 13:15:12.016000'
S'data saved as csv to c:\\Charlie\\charlie\\data\\csv\\4383_stroop.csv'
tp519
a(S'2015-05-27 13:15:12.937000'
g185
tp520
a(S'2015-05-27 13:15:12.947000'
g187
tp521
a(S'2015-05-27 13:15:12.952000'
S'data saved as csv to c:\\Charlie\\charlie\\data\\csv\\4383_stroop.csv'
tp522
a(S'2015-05-27 13:15:14.276000'
g185
tp523
a(S'2015-05-27 13:15:14.283000'
g187
tp524
a(S'2015-05-27 13:15:14.286000'
S'data saved as csv to c:\\Charlie\\charlie\\data\\csv\\4383_stroop.csv'
tp525
a(S'2015-05-27 13:15:15.977000'
g185
tp526
a(S'2015-05-27 13:15:15.988000'
g187
tp527
a(S'2015-05-27 13:15:15.991000'
S'data saved as csv to c:\\Charlie\\charlie\\data\\csv\\4383_stroop.csv'
tp528
a(S'2015-05-27 13:15:17.413000'
g185
tp529
a(S'2015-05-27 13:15:17.424000'
g187
tp530
a(S'2015-05-27 13:15:17.429000'
S'data saved as csv to c:\\Charlie\\charlie\\data\\csv\\4383_stroop.csv'
tp531
a(S'2015-05-27 13:15:19.471000'
g185
tp532
a(S'2015-05-27 13:15:19.483000'
g187
tp533
a(S'2015-05-27 13:15:19.488000'
S'data saved as csv to c:\\Charlie\\charlie\\data\\csv\\4383_stroop.csv'
tp534
asb.