(icharlie.tools.data
Data
p1
(dp2
S'lang'
p3
S'EN'
p4
sS'control'
p5
(lp6
sS'last_updated'
p7
cdatetime
datetime
p8
(S'\x07\xdf\x05\x0b\x0b$\x1e\x00\xfd\xe8'
tRp9
sS'last_opened'
p10
g8
(S'\x07\xdf\x05\x0b\x0b\x1c"\x0b\xa4x'
tRp11
sS'proj_id'
p12
S'connectivity'
p13
sS'date_done'
p14
NsS'test_done'
p15
I01
sS'data'
p16
(lp17
(S'4384'
p18
S'switching'
p19
S'practice'
p20
I0
S'Position'
p21
S'Left'
p22
S'Right'
p23
S'n/a'
p24
S'Incongruent'
p25
S'c:\\Charlie\\charlie\\stimuli\\visual\\switching\\arrow_blue_right.png'
g22
S'Left'
p26
I6160
tp27
a(g18
g19
g20
I1
g21
g22
g23
S'Non-switch'
p28
g25
S'c:\\Charlie\\charlie\\stimuli\\visual\\switching\\arrow_blue_right.png'
g22
g26
I3130
tp29
a(g18
g19
g20
I2
S'Direction'
p30
g22
g23
S'Switch'
p31
g25
S'c:\\Charlie\\charlie\\stimuli\\visual\\switching\\arrow_red_right.png'
g23
S'Right'
p32
I3360
tp33
a(g18
g19
g20
I3
g30
g23
g22
g28
g25
S'c:\\Charlie\\charlie\\stimuli\\visual\\switching\\arrow_red_left.png'
g22
g26
I1790
tp34
a(g18
g19
g20
I4
g21
g23
g23
g31
S'Congruent'
p35
S'c:\\Charlie\\charlie\\stimuli\\visual\\switching\\arrow_blue_right.png'
g23
g32
I2680
tp36
a(g18
g19
g20
I5
g21
g23
g22
g28
g25
S'c:\\Charlie\\charlie\\stimuli\\visual\\switching\\arrow_blue_left.png'
g23
g26
I1921
tp37
a(g18
g19
g20
I6
g30
g22
g22
g31
g35
S'c:\\Charlie\\charlie\\stimuli\\visual\\switching\\arrow_red_left.png'
g22
g32
I1790
tp38
a(g18
g19
g20
I7
g30
g23
g22
g28
g25
S'c:\\Charlie\\charlie\\stimuli\\visual\\switching\\arrow_red_left.png'
g22
g32
I3760
tp39
a(g18
g19
g20
I8
g21
g22
g22
g31
g35
S'c:\\Charlie\\charlie\\stimuli\\visual\\switching\\arrow_blue_left.png'
g22
g26
I7760
tp40
a(g18
g19
S'predictable'
p41
I0
g21
g22
g22
g24
g35
S'c:\\Charlie\\charlie\\stimuli\\visual\\switching\\arrow_blue_left.png'
g22
g26
I2180
tp42
a(g18
g19
g41
I1
g21
g22
g22
g28
g35
S'c:\\Charlie\\charlie\\stimuli\\visual\\switching\\arrow_blue_left.png'
g22
g26
I2410
tp43
a(g18
g19
g41
I2
g30
g22
g22
g31
g35
S'c:\\Charlie\\charlie\\stimuli\\visual\\switching\\arrow_red_left.png'
g22
g26
I2500
tp44
a(g18
g19
g41
I3
g30
g23
g23
g28
g35
S'c:\\Charlie\\charlie\\stimuli\\visual\\switching\\arrow_red_right.png'
g23
g32
I1580
tp45
a(g18
g19
g41
I4
g21
g22
g23
g31
g25
S'c:\\Charlie\\charlie\\stimuli\\visual\\switching\\arrow_blue_right.png'
g22
g32
I1980
tp46
a(g18
g19
g41
I5
g21
g22
g23
g28
g25
S'c:\\Charlie\\charlie\\stimuli\\visual\\switching\\arrow_blue_right.png'
g22
g32
I1820
tp47
a(g18
g19
g41
I6
g30
g23
g23
g31
g35
S'c:\\Charlie\\charlie\\stimuli\\visual\\switching\\arrow_red_right.png'
g23
g32
I1860
tp48
a(g18
g19
g41
I7
g30
g22
g23
g28
g25
S'c:\\Charlie\\charlie\\stimuli\\visual\\switching\\arrow_red_right.png'
g23
g32
I1531
tp49
a(g18
g19
g41
I8
g21
g23
g23
g31
g35
S'c:\\Charlie\\charlie\\stimuli\\visual\\switching\\arrow_blue_right.png'
g23
g32
I2480
tp50
a(g18
g19
g41
I9
g21
g23
g23
g28
g35
S'c:\\Charlie\\charlie\\stimuli\\visual\\switching\\arrow_blue_right.png'
g23
g32
I1760
tp51
a(g18
g19
g41
I10
g30
g22
g23
g31
g25
S'c:\\Charlie\\charlie\\stimuli\\visual\\switching\\arrow_red_right.png'
g23
g26
I1320
tp52
a(g18
g19
g41
I11
g30
g22
g22
g28
g35
S'c:\\Charlie\\charlie\\stimuli\\visual\\switching\\arrow_red_left.png'
g22
g26
I2990
tp53
a(g18
g19
g41
I12
g21
g23
g23
g31
g35
S'c:\\Charlie\\charlie\\stimuli\\visual\\switching\\arrow_blue_right.png'
g23
g32
I2540
tp54
a(g18
g19
g41
I13
g21
g22
g22
g28
g35
S'c:\\Charlie\\charlie\\stimuli\\visual\\switching\\arrow_blue_left.png'
g22
g26
I1060
tp55
a(g18
g19
g41
I14
g30
g23
g23
g31
g35
S'c:\\Charlie\\charlie\\stimuli\\visual\\switching\\arrow_red_right.png'
g23
g32
I970
tp56
a(g18
g19
g41
I15
g30
g22
g23
g28
g25
S'c:\\Charlie\\charlie\\stimuli\\visual\\switching\\arrow_red_right.png'
g23
g32
I1320
tp57
a(g18
g19
g41
I16
g21
g23
g23
g31
g35
S'c:\\Charlie\\charlie\\stimuli\\visual\\switching\\arrow_blue_right.png'
g23
g32
I1030
tp58
a(g18
g19
g41
I17
g21
g22
g23
g28
g25
S'c:\\Charlie\\charlie\\stimuli\\visual\\switching\\arrow_blue_right.png'
g22
g32
I1441
tp59
a(g18
g19
g41
I18
g30
g22
g22
g31
g35
S'c:\\Charlie\\charlie\\stimuli\\visual\\switching\\arrow_red_left.png'
g22
g26
I940
tp60
a(g18
g19
g41
I19
g30
g22
g22
g28
g35
S'c:\\Charlie\\charlie\\stimuli\\visual\\switching\\arrow_red_left.png'
g22
g26
I520
tp61
a(g18
g19
g41
I20
g21
g22
g23
g31
g25
S'c:\\Charlie\\charlie\\stimuli\\visual\\switching\\arrow_blue_right.png'
g22
g32
I1350
tp62
a(g18
g19
g41
I21
g21
g22
g23
g28
g25
S'c:\\Charlie\\charlie\\stimuli\\visual\\switching\\arrow_blue_right.png'
g22
g32
I480
tp63
a(g18
g19
g41
I22
g30
g23
g23
g31
g35
S'c:\\Charlie\\charlie\\stimuli\\visual\\switching\\arrow_red_right.png'
g23
g32
I1180
tp64
a(g18
g19
g41
I23
g30
g23
g22
g28
g25
S'c:\\Charlie\\charlie\\stimuli\\visual\\switching\\arrow_red_left.png'
g22
g26
I1070
tp65
a(g18
g19
g41
I24
g21
g23
g22
g31
g25
S'c:\\Charlie\\charlie\\stimuli\\visual\\switching\\arrow_blue_left.png'
g23
g26
I1100
tp66
a(g18
g19
g41
I25
g21
g22
g22
g28
g35
S'c:\\Charlie\\charlie\\stimuli\\visual\\switching\\arrow_blue_left.png'
g22
g26
I2470
tp67
a(g18
g19
g41
I26
g30
g22
g22
g31
g35
S'c:\\Charlie\\charlie\\stimuli\\visual\\switching\\arrow_red_left.png'
g22
g26
I1250
tp68
a(g18
g19
g41
I27
g30
g22
g22
g28
g35
S'c:\\Charlie\\charlie\\stimuli\\visual\\switching\\arrow_red_left.png'
g22
g26
I1280
tp69
a(g18
g19
g41
I28
g21
g22
g23
g31
g25
S'c:\\Charlie\\charlie\\stimuli\\visual\\switching\\arrow_blue_right.png'
g22
g26
I1890
tp70
a(g18
g19
g41
I29
g21
g23
g22
g28
g25
S'c:\\Charlie\\charlie\\stimuli\\visual\\switching\\arrow_blue_left.png'
g23
g26
I2021
tp71
a(g18
g19
g41
I30
g30
g22
g22
g31
g35
S'c:\\Charlie\\charlie\\stimuli\\visual\\switching\\arrow_red_left.png'
g22
g26
I1640
tp72
a(g18
g19
g41
I31
g30
g22
g22
g28
g35
S'c:\\Charlie\\charlie\\stimuli\\visual\\switching\\arrow_red_left.png'
g22
g26
I750
tp73
a(g18
g19
g41
I32
g21
g23
g23
g31
g35
S'c:\\Charlie\\charlie\\stimuli\\visual\\switching\\arrow_blue_right.png'
g23
g32
I910
tp74
a(g18
g19
g41
I33
g21
g23
g23
g28
g35
S'c:\\Charlie\\charlie\\stimuli\\visual\\switching\\arrow_blue_right.png'
g23
g32
I400
tp75
a(g18
g19
g41
I34
g30
g23
g22
g31
g25
S'c:\\Charlie\\charlie\\stimuli\\visual\\switching\\arrow_red_left.png'
g22
g32
I3490
tp76
a(g18
g19
g41
I35
g30
g23
g23
g28
g35
S'c:\\Charlie\\charlie\\stimuli\\visual\\switching\\arrow_red_right.png'
g23
g32
I2760
tp77
a(g18
g19
g41
I36
g21
g22
g23
g31
g25
S'c:\\Charlie\\charlie\\stimuli\\visual\\switching\\arrow_blue_right.png'
g22
g26
I2130
tp78
a(g18
g19
g41
I37
g21
g23
g23
g28
g35
S'c:\\Charlie\\charlie\\stimuli\\visual\\switching\\arrow_blue_right.png'
g23
g32
I3351
tp79
a(g18
g19
g41
I38
g30
g22
g23
g31
g25
S'c:\\Charlie\\charlie\\stimuli\\visual\\switching\\arrow_red_right.png'
g23
g32
I3390
tp80
a(g18
g19
g41
I39
g30
g23
g22
g28
g25
S'c:\\Charlie\\charlie\\stimuli\\visual\\switching\\arrow_red_left.png'
g22
g26
I1500
tp81
a(g18
g19
g41
I40
g21
g23
g23
g31
g35
S'c:\\Charlie\\charlie\\stimuli\\visual\\switching\\arrow_blue_right.png'
g23
g32
I1250
tp82
a(g18
g19
g41
I41
g21
g23
g22
g28
g25
S'c:\\Charlie\\charlie\\stimuli\\visual\\switching\\arrow_blue_left.png'
g23
g26
I1630
tp83
a(g18
g19
g41
I42
g30
g22
g22
g31
g35
S'c:\\Charlie\\charlie\\stimuli\\visual\\switching\\arrow_red_left.png'
g22
g26
I3060
tp84
a(g18
g19
g41
I43
g30
g22
g22
g28
g35
S'c:\\Charlie\\charlie\\stimuli\\visual\\switching\\arrow_red_left.png'
g22
g26
I1480
tp85
a(g18
g19
g41
I44
g21
g23
g22
g31
g25
S'c:\\Charlie\\charlie\\stimuli\\visual\\switching\\arrow_blue_left.png'
g23
g32
I1850
tp86
a(g18
g19
g41
I45
g21
g23
g22
g28
g25
S'c:\\Charlie\\charlie\\stimuli\\visual\\switching\\arrow_blue_left.png'
g23
g32
I810
tp87
a(g18
g19
g41
I46
g30
g23
g22
g31
g25
S'c:\\Charlie\\charlie\\stimuli\\visual\\switching\\arrow_red_left.png'
g22
g32
I3001
tp88
a(g18
g19
g41
I47
g30
g22
g22
g28
g35
S'c:\\Charlie\\charlie\\stimuli\\visual\\switching\\arrow_red_left.png'
g22
g26
I1650
tp89
a(g18
g19
g41
I48
g21
g23
g22
g31
g25
S'c:\\Charlie\\charlie\\stimuli\\visual\\switching\\arrow_blue_left.png'
g23
g32
I3340
tp90
a(g18
g19
g41
I49
g21
g22
g23
g28
g25
S'c:\\Charlie\\charlie\\stimuli\\visual\\switching\\arrow_blue_right.png'
g22
g26
I810
tp91
a(g18
g19
g41
I50
g30
g23
g22
g31
g25
S'c:\\Charlie\\charlie\\stimuli\\visual\\switching\\arrow_red_left.png'
g22
g32
I960
tp92
a(g18
g19
g41
I51
g30
g22
g22
g28
g35
S'c:\\Charlie\\charlie\\stimuli\\visual\\switching\\arrow_red_left.png'
g22
g26
I1490
tp93
a(g18
g19
g41
I52
g21
g23
g22
g31
g25
S'c:\\Charlie\\charlie\\stimuli\\visual\\switching\\arrow_blue_left.png'
g23
g32
I4650
tp94
a(g18
g19
g41
I53
g21
g23
g22
g28
g25
S'c:\\Charlie\\charlie\\stimuli\\visual\\switching\\arrow_blue_left.png'
g23
g32
I610
tp95
a(g18
g19
g41
I54
g30
g23
g22
g31
g25
S'c:\\Charlie\\charlie\\stimuli\\visual\\switching\\arrow_red_left.png'
g22
g32
I3171
tp96
a(g18
g19
g41
I55
g30
g23
g23
g28
g35
S'c:\\Charlie\\charlie\\stimuli\\visual\\switching\\arrow_red_right.png'
g23
g26
I1620
tp97
a(g18
g19
g41
I56
g21
g22
g23
g31
g25
S'c:\\Charlie\\charlie\\stimuli\\visual\\switching\\arrow_blue_right.png'
g22
g32
I2980
tp98
a(g18
g19
g41
I57
g21
g22
g23
g28
g25
S'c:\\Charlie\\charlie\\stimuli\\visual\\switching\\arrow_blue_right.png'
g22
g32
I1630
tp99
a(g18
g19
g41
I58
g30
g23
g23
g31
g35
S'c:\\Charlie\\charlie\\stimuli\\visual\\switching\\arrow_red_right.png'
g23
g32
I2810
tp100
a(g18
g19
g41
I59
g30
g22
g22
g28
g35
S'c:\\Charlie\\charlie\\stimuli\\visual\\switching\\arrow_red_left.png'
g22
g26
I1280
tp101
a(g18
g19
g41
I60
g21
g22
g22
g31
g35
S'c:\\Charlie\\charlie\\stimuli\\visual\\switching\\arrow_blue_left.png'
g22
g26
I1500
tp102
a(g18
g19
g41
I61
g21
g22
g22
g28
g35
S'c:\\Charlie\\charlie\\stimuli\\visual\\switching\\arrow_blue_left.png'
g22
g26
I1470
tp103
a(g18
g19
g41
I62
g30
g23
g23
g31
g35
S'c:\\Charlie\\charlie\\stimuli\\visual\\switching\\arrow_red_right.png'
g23
g32
I2351
tp104
a(g18
g19
g41
I63
g30
g23
g23
g28
g35
S'c:\\Charlie\\charlie\\stimuli\\visual\\switching\\arrow_red_right.png'
g23
g32
I1110
tp105
a(g18
g19
g41
I64
g21
g23
g23
g31
g35
S'c:\\Charlie\\charlie\\stimuli\\visual\\switching\\arrow_blue_right.png'
g23
g32
I2080
tp106
a(g18
g19
g41
I65
g21
g22
g23
g28
g25
S'c:\\Charlie\\charlie\\stimuli\\visual\\switching\\arrow_blue_right.png'
g22
g26
I2410
tp107
a(g18
g19
g41
I66
g30
g23
g23
g31
g35
S'c:\\Charlie\\charlie\\stimuli\\visual\\switching\\arrow_red_right.png'
g23
g26
I190
tp108
a(g18
g19
g41
I67
g30
g22
g23
g28
g25
S'c:\\Charlie\\charlie\\stimuli\\visual\\switching\\arrow_red_right.png'
g23
g26
I1710
tp109
a(g18
g19
g41
I68
g21
g22
g22
g31
g35
S'c:\\Charlie\\charlie\\stimuli\\visual\\switching\\arrow_blue_left.png'
g22
g26
I3350
tp110
a(g18
g19
g41
I69
g21
g23
g22
g28
g25
S'c:\\Charlie\\charlie\\stimuli\\visual\\switching\\arrow_blue_left.png'
g23
g26
I2210
tp111
a(g18
g19
g41
I70
g30
g23
g22
g31
g25
S'c:\\Charlie\\charlie\\stimuli\\visual\\switching\\arrow_red_left.png'
g22
g26
I1261
tp112
a(g18
g19
g41
I71
g30
g23
g22
g28
g25
S'c:\\Charlie\\charlie\\stimuli\\visual\\switching\\arrow_red_left.png'
g22
g26
I2160
tp113
a(g18
g19
g41
I72
g21
g23
g22
g31
g25
S'c:\\Charlie\\charlie\\stimuli\\visual\\switching\\arrow_blue_left.png'
g23
g26
I1470
tp114
a(g18
g19
g41
I73
g21
g22
g23
g28
g25
S'c:\\Charlie\\charlie\\stimuli\\visual\\switching\\arrow_blue_right.png'
g22
g32
I960
tp115
a(g18
g19
g41
I74
g30
g23
g23
g31
g35
S'c:\\Charlie\\charlie\\stimuli\\visual\\switching\\arrow_red_right.png'
g23
g32
I1540
tp116
a(g18
g19
g41
I75
g30
g23
g23
g28
g35
S'c:\\Charlie\\charlie\\stimuli\\visual\\switching\\arrow_red_right.png'
g23
g32
I500
tp117
a(g18
g19
g41
I76
g21
g23
g23
g31
g35
S'c:\\Charlie\\charlie\\stimuli\\visual\\switching\\arrow_blue_right.png'
g23
g32
I1050
tp118
a(g18
g19
g41
I77
g21
g22
g23
g28
g25
S'c:\\Charlie\\charlie\\stimuli\\visual\\switching\\arrow_blue_right.png'
g22
g32
I990
tp119
a(g18
g19
g41
I78
g30
g22
g22
g31
g35
S'c:\\Charlie\\charlie\\stimuli\\visual\\switching\\arrow_red_left.png'
g22
g26
I700
tp120
a(g18
g19
g41
I79
g30
g22
g23
g28
g25
S'c:\\Charlie\\charlie\\stimuli\\visual\\switching\\arrow_red_right.png'
g23
g26
I560
tp121
a(g18
g19
g41
I80
g21
g23
g22
g31
g25
S'c:\\Charlie\\charlie\\stimuli\\visual\\switching\\arrow_blue_left.png'
g23
g32
I1260
tp122
a(g18
g19
g41
I81
g21
g22
g22
g28
g35
S'c:\\Charlie\\charlie\\stimuli\\visual\\switching\\arrow_blue_left.png'
g22
g26
I2300
tp123
a(g18
g19
g41
I82
g30
g22
g22
g31
g35
S'c:\\Charlie\\charlie\\stimuli\\visual\\switching\\arrow_red_left.png'
g22
g26
I1200
tp124
a(g18
g19
g41
I83
g30
g23
g23
g28
g35
S'c:\\Charlie\\charlie\\stimuli\\visual\\switching\\arrow_red_right.png'
g23
g32
I1801
tp125
a(g18
g19
g41
I84
g21
g23
g22
g31
g25
S'c:\\Charlie\\charlie\\stimuli\\visual\\switching\\arrow_blue_left.png'
g23
g26
I1050
tp126
a(g18
g19
g41
I85
g21
g23
g22
g28
g25
S'c:\\Charlie\\charlie\\stimuli\\visual\\switching\\arrow_blue_left.png'
g23
g26
I930
tp127
a(g18
g19
g41
I86
g30
g23
g23
g31
g35
S'c:\\Charlie\\charlie\\stimuli\\visual\\switching\\arrow_red_right.png'
g23
g32
I890
tp128
a(g18
g19
g41
I87
g30
g23
g23
g28
g35
S'c:\\Charlie\\charlie\\stimuli\\visual\\switching\\arrow_red_right.png'
g23
g32
I1080
tp129
a(g18
g19
g41
I88
g21
g23
g23
g31
g35
S'c:\\Charlie\\charlie\\stimuli\\visual\\switching\\arrow_blue_right.png'
g23
g32
I1000
tp130
a(g18
g19
g41
I89
g21
g22
g23
g28
g25
S'c:\\Charlie\\charlie\\stimuli\\visual\\switching\\arrow_blue_right.png'
g22
g26
I2860
tp131
a(g18
g19
g41
I90
g30
g23
g23
g31
g35
S'c:\\Charlie\\charlie\\stimuli\\visual\\switching\\arrow_red_right.png'
g23
g32
I1370
tp132
a(g18
g19
g41
I91
g30
g22
g22
g28
g35
S'c:\\Charlie\\charlie\\stimuli\\visual\\switching\\arrow_red_left.png'
g22
g26
I1830
tp133
a(g18
g19
g41
I92
g21
g22
g22
g31
g35
S'c:\\Charlie\\charlie\\stimuli\\visual\\switching\\arrow_blue_left.png'
g22
g26
I1050
tp134
a(g18
g19
g41
I93
g21
g23
g23
g28
g35
S'c:\\Charlie\\charlie\\stimuli\\visual\\switching\\arrow_blue_right.png'
g23
g32
I1030
tp135
a(g18
g19
g41
I94
g30
g22
g22
g31
g35
S'c:\\Charlie\\charlie\\stimuli\\visual\\switching\\arrow_red_left.png'
g22
g26
I940
tp136
a(g18
g19
g41
I95
g30
g22
g22
g28
g35
S'c:\\Charlie\\charlie\\stimuli\\visual\\switching\\arrow_red_left.png'
g22
g26
I1291
tp137
a(g18
g19
g41
I96
g21
g22
g22
g31
g35
S'c:\\Charlie\\charlie\\stimuli\\visual\\switching\\arrow_blue_left.png'
g22
g26
I1150
tp138
a(g18
g19
g41
I97
g21
g23
g23
g28
g35
S'c:\\Charlie\\charlie\\stimuli\\visual\\switching\\arrow_blue_right.png'
g23
g32
I790
tp139
a(g18
g19
g41
I98
g30
g22
g22
g31
g35
S'c:\\Charlie\\charlie\\stimuli\\visual\\switching\\arrow_red_left.png'
g22
g26
I910
tp140
a(g18
g19
g41
I99
g30
g22
g23
g28
g25
S'c:\\Charlie\\charlie\\stimuli\\visual\\switching\\arrow_red_right.png'
g23
g32
I1140
tp141
a(g18
g19
g41
I100
g21
g22
g22
g31
g35
S'c:\\Charlie\\charlie\\stimuli\\visual\\switching\\arrow_blue_left.png'
g22
g26
I1080
tp142
a(g18
g19
S'random'
p143
I0
g21
g23
g23
g24
g35
S'c:\\Charlie\\charlie\\stimuli\\visual\\switching\\arrow_blue_right.png'
g23
g32
I1610
tp144
a(g18
g19
g143
I1
g21
g22
g22
g28
g35
S'c:\\Charlie\\charlie\\stimuli\\visual\\switching\\arrow_blue_left.png'
g22
g26
I1321
tp145
a(g18
g19
g143
I2
g21
g23
g23
g28
g35
S'c:\\Charlie\\charlie\\stimuli\\visual\\switching\\arrow_blue_right.png'
g23
g32
I1400
tp146
a(g18
g19
g143
I3
g30
g22
g22
g31
g35
S'c:\\Charlie\\charlie\\stimuli\\visual\\switching\\arrow_red_left.png'
g22
g26
I1230
tp147
a(g18
g19
g143
I4
g21
g23
g22
g31
g25
S'c:\\Charlie\\charlie\\stimuli\\visual\\switching\\arrow_blue_left.png'
g23
g26
I1230
tp148
a(g18
g19
g143
I5
g21
g23
g22
g28
g25
S'c:\\Charlie\\charlie\\stimuli\\visual\\switching\\arrow_blue_left.png'
g23
g26
I1170
tp149
a(g18
g19
g143
I6
g21
g22
g23
g28
g25
S'c:\\Charlie\\charlie\\stimuli\\visual\\switching\\arrow_blue_right.png'
g22
g32
I1250
tp150
a(g18
g19
g143
I7
g30
g22
g23
g31
g25
S'c:\\Charlie\\charlie\\stimuli\\visual\\switching\\arrow_red_right.png'
g23
g32
I1440
tp151
a(g18
g19
g143
I8
g30
g22
g22
g28
g35
S'c:\\Charlie\\charlie\\stimuli\\visual\\switching\\arrow_red_left.png'
g22
g26
I910
tp152
a(g18
g19
g143
I9
g30
g23
g23
g28
g35
S'c:\\Charlie\\charlie\\stimuli\\visual\\switching\\arrow_red_right.png'
g23
g32
I961
tp153
a(g18
g19
g143
I10
g21
g23
g23
g31
g35
S'c:\\Charlie\\charlie\\stimuli\\visual\\switching\\arrow_blue_right.png'
g23
g32
I1090
tp154
a(g18
g19
g143
I11
g21
g23
g22
g28
g25
S'c:\\Charlie\\charlie\\stimuli\\visual\\switching\\arrow_blue_left.png'
g23
g26
I1050
tp155
a(g18
g19
g143
I12
g21
g22
g23
g28
g25
S'c:\\Charlie\\charlie\\stimuli\\visual\\switching\\arrow_blue_right.png'
g22
g32
I850
tp156
a(g18
g19
g143
I13
g21
g22
g22
g28
g35
S'c:\\Charlie\\charlie\\stimuli\\visual\\switching\\arrow_blue_left.png'
g22
g26
I990
tp157
a(g18
g19
g143
I14
g30
g23
g22
g31
g25
S'c:\\Charlie\\charlie\\stimuli\\visual\\switching\\arrow_red_left.png'
g22
g26
I1310
tp158
a(g18
g19
g143
I15
g30
g22
g23
g28
g25
S'c:\\Charlie\\charlie\\stimuli\\visual\\switching\\arrow_red_right.png'
g23
g32
I990
tp159
a(g18
g19
g143
I16
g30
g23
g23
g28
g35
S'c:\\Charlie\\charlie\\stimuli\\visual\\switching\\arrow_red_right.png'
g23
g32
I640
tp160
a(g18
g19
g143
I17
g21
g23
g22
g31
g25
S'c:\\Charlie\\charlie\\stimuli\\visual\\switching\\arrow_blue_left.png'
g23
g26
I930
tp161
a(g18
g19
g143
I18
g30
g23
g22
g31
g25
S'c:\\Charlie\\charlie\\stimuli\\visual\\switching\\arrow_red_left.png'
g22
g26
I3700
tp162
a(g18
g19
g143
I19
g30
g22
g23
g28
g25
S'c:\\Charlie\\charlie\\stimuli\\visual\\switching\\arrow_red_right.png'
g23
g32
I1410
tp163
a(g18
g19
g143
I20
g30
g22
g22
g28
g35
S'c:\\Charlie\\charlie\\stimuli\\visual\\switching\\arrow_red_left.png'
g22
g26
I1070
tp164
a(g18
g19
g143
I21
g21
g22
g23
g31
g25
S'c:\\Charlie\\charlie\\stimuli\\visual\\switching\\arrow_blue_right.png'
g22
g32
I1191
tp165
a(g18
g19
g143
I22
g21
g23
g23
g28
g35
S'c:\\Charlie\\charlie\\stimuli\\visual\\switching\\arrow_blue_right.png'
g23
g32
I870
tp166
a(g18
g19
g143
I23
g30
g23
g22
g31
g25
S'c:\\Charlie\\charlie\\stimuli\\visual\\switching\\arrow_red_left.png'
g22
g26
I800
tp167
a(g18
g19
g143
I24
g21
g22
g22
g31
g35
S'c:\\Charlie\\charlie\\stimuli\\visual\\switching\\arrow_blue_left.png'
g22
g26
I970
tp168
a(g18
g19
g143
I25
g30
g23
g23
g31
g35
S'c:\\Charlie\\charlie\\stimuli\\visual\\switching\\arrow_red_right.png'
g23
g32
I850
tp169
a(g18
g19
g143
I26
g30
g23
g22
g28
g25
S'c:\\Charlie\\charlie\\stimuli\\visual\\switching\\arrow_red_left.png'
g22
g26
I1100
tp170
a(g18
g19
g143
I27
g30
g23
g23
g28
g35
S'c:\\Charlie\\charlie\\stimuli\\visual\\switching\\arrow_red_right.png'
g23
g32
I920
tp171
a(g18
g19
g143
I28
g21
g23
g23
g31
g35
S'c:\\Charlie\\charlie\\stimuli\\visual\\switching\\arrow_blue_right.png'
g23
g32
I950
tp172
a(g18
g19
g143
I29
g30
g22
g23
g31
g25
S'c:\\Charlie\\charlie\\stimuli\\visual\\switching\\arrow_red_right.png'
g23
g26
I1260
tp173
a(g18
g19
g143
I30
g30
g23
g23
g28
g35
S'c:\\Charlie\\charlie\\stimuli\\visual\\switching\\arrow_red_right.png'
g23
g32
I3590
tp174
a(g18
g19
g143
I31
g30
g23
g23
g28
g35
S'c:\\Charlie\\charlie\\stimuli\\visual\\switching\\arrow_red_right.png'
g23
g32
I1060
tp175
a(g18
g19
g143
I32
g30
g22
g22
g28
g35
S'c:\\Charlie\\charlie\\stimuli\\visual\\switching\\arrow_red_left.png'
g22
g26
I2130
tp176
a(g18
g19
g143
I33
g30
g23
g22
g28
g25
S'c:\\Charlie\\charlie\\stimuli\\visual\\switching\\arrow_red_left.png'
g22
g26
I7241
tp177
a(g18
g19
g143
I34
g21
g23
g23
g31
g35
S'c:\\Charlie\\charlie\\stimuli\\visual\\switching\\arrow_blue_right.png'
g23
g32
I1030
tp178
a(g18
g19
g143
I35
g30
g22
g23
g31
g25
S'c:\\Charlie\\charlie\\stimuli\\visual\\switching\\arrow_red_right.png'
g23
g32
I2010
tp179
a(g18
g19
g143
I36
g21
g23
g22
g31
g25
S'c:\\Charlie\\charlie\\stimuli\\visual\\switching\\arrow_blue_left.png'
g23
g26
I2670
tp180
a(g18
g19
g143
I37
g21
g23
g23
g28
g35
S'c:\\Charlie\\charlie\\stimuli\\visual\\switching\\arrow_blue_right.png'
g23
g32
I1500
tp181
a(g18
g19
g143
I38
g21
g23
g23
g28
g35
S'c:\\Charlie\\charlie\\stimuli\\visual\\switching\\arrow_blue_right.png'
g23
g32
I460
tp182
a(g18
g19
g143
I39
g21
g22
g22
g28
g35
S'c:\\Charlie\\charlie\\stimuli\\visual\\switching\\arrow_blue_left.png'
g22
g26
I860
tp183
a(g18
g19
g143
I40
g30
g22
g22
g31
g35
S'c:\\Charlie\\charlie\\stimuli\\visual\\switching\\arrow_red_left.png'
g22
g26
I1000
tp184
a(g18
g19
g143
I41
g21
g23
g23
g31
g35
S'c:\\Charlie\\charlie\\stimuli\\visual\\switching\\arrow_blue_right.png'
g23
g32
I821
tp185
a(g18
g19
g143
I42
g30
g22
g23
g31
g25
S'c:\\Charlie\\charlie\\stimuli\\visual\\switching\\arrow_red_right.png'
g23
g32
I1480
tp186
a(g18
g19
g143
I43
g21
g22
g23
g31
g25
S'c:\\Charlie\\charlie\\stimuli\\visual\\switching\\arrow_blue_right.png'
g22
g32
I1330
tp187
a(g18
g19
g143
I44
g30
g22
g23
g31
g25
S'c:\\Charlie\\charlie\\stimuli\\visual\\switching\\arrow_red_right.png'
g23
g32
I1190
tp188
a(g18
g19
g143
I45
g21
g23
g22
g31
g25
S'c:\\Charlie\\charlie\\stimuli\\visual\\switching\\arrow_blue_left.png'
g23
g26
I880
tp189
a(g18
g19
g143
I46
g21
g22
g22
g28
g35
S'c:\\Charlie\\charlie\\stimuli\\visual\\switching\\arrow_blue_left.png'
g22
g26
I1220
tp190
a(g18
g19
g143
I47
g21
g22
g22
g28
g35
S'c:\\Charlie\\charlie\\stimuli\\visual\\switching\\arrow_blue_left.png'
g22
g26
I990
tp191
a(g18
g19
g143
I48
g30
g22
g22
g31
g35
S'c:\\Charlie\\charlie\\stimuli\\visual\\switching\\arrow_red_left.png'
g22
g26
I1400
tp192
a(g18
g19
g143
I49
g30
g22
g22
g28
g35
S'c:\\Charlie\\charlie\\stimuli\\visual\\switching\\arrow_red_left.png'
g22
g26
I3330
tp193
a(g18
g19
g143
I50
g30
g23
g23
g28
g35
S'c:\\Charlie\\charlie\\stimuli\\visual\\switching\\arrow_red_right.png'
g23
g32
I1190
tp194
a(g18
g19
g143
I51
g30
g23
g22
g28
g25
S'c:\\Charlie\\charlie\\stimuli\\visual\\switching\\arrow_red_left.png'
g22
g26
I1580
tp195
a(g18
g19
g143
I52
g30
g22
g23
g28
g25
S'c:\\Charlie\\charlie\\stimuli\\visual\\switching\\arrow_red_right.png'
g23
g32
I1061
tp196
a(g18
g19
g143
I53
g30
g23
g23
g28
g35
S'c:\\Charlie\\charlie\\stimuli\\visual\\switching\\arrow_red_right.png'
g23
g32
I2030
tp197
a(g18
g19
g143
I54
g21
g23
g22
g31
g25
S'c:\\Charlie\\charlie\\stimuli\\visual\\switching\\arrow_blue_left.png'
g23
g26
I1180
tp198
a(g18
g19
g143
I55
g21
g22
g22
g28
g35
S'c:\\Charlie\\charlie\\stimuli\\visual\\switching\\arrow_blue_left.png'
g22
g26
I990
tp199
a(g18
g19
g143
I56
g30
g22
g22
g31
g35
S'c:\\Charlie\\charlie\\stimuli\\visual\\switching\\arrow_red_left.png'
g22
g26
I1150
tp200
a(g18
g19
g143
I57
g21
g22
g22
g31
g35
S'c:\\Charlie\\charlie\\stimuli\\visual\\switching\\arrow_blue_left.png'
g22
g26
I990
tp201
a(g18
g19
g143
I58
g21
g22
g23
g28
g25
S'c:\\Charlie\\charlie\\stimuli\\visual\\switching\\arrow_blue_right.png'
g22
g32
I1130
tp202
a(g18
g19
g143
I59
g30
g22
g22
g31
g35
S'c:\\Charlie\\charlie\\stimuli\\visual\\switching\\arrow_red_left.png'
g22
g26
I1050
tp203
a(g18
g19
g143
I60
g21
g22
g23
g31
g25
S'c:\\Charlie\\charlie\\stimuli\\visual\\switching\\arrow_blue_right.png'
g22
g32
I2520
tp204
a(g18
g19
g143
I61
g21
g23
g23
g28
g35
S'c:\\Charlie\\charlie\\stimuli\\visual\\switching\\arrow_blue_right.png'
g23
g32
I1470
tp205
a(g18
g19
g143
I62
g30
g23
g22
g31
g25
S'c:\\Charlie\\charlie\\stimuli\\visual\\switching\\arrow_red_left.png'
g22
g26
I1220
tp206
a(g18
g19
g143
I63
g21
g23
g23
g31
g35
S'c:\\Charlie\\charlie\\stimuli\\visual\\switching\\arrow_blue_right.png'
g23
g32
I1040
tp207
a(g18
g19
g143
I64
g30
g22
g22
g31
g35
S'c:\\Charlie\\charlie\\stimuli\\visual\\switching\\arrow_red_left.png'
g22
g26
I971
tp208
a(g18
g19
g143
I65
g30
g23
g22
g28
g25
S'c:\\Charlie\\charlie\\stimuli\\visual\\switching\\arrow_red_left.png'
g22
g26
I1510
tp209
a(g18
g19
g143
I66
g21
g22
g23
g31
g25
S'c:\\Charlie\\charlie\\stimuli\\visual\\switching\\arrow_blue_right.png'
g22
g32
I1360
tp210
a(g18
g19
g143
I67
g21
g22
g23
g28
g25
S'c:\\Charlie\\charlie\\stimuli\\visual\\switching\\arrow_blue_right.png'
g22
g32
I880
tp211
a(g18
g19
g143
I68
g30
g22
g22
g31
g35
S'c:\\Charlie\\charlie\\stimuli\\visual\\switching\\arrow_red_left.png'
g22
g26
I1280
tp212
a(g18
g19
g143
I69
g30
g23
g22
g28
g25
S'c:\\Charlie\\charlie\\stimuli\\visual\\switching\\arrow_red_left.png'
g22
g26
I2580
tp213
a(g18
g19
g143
I70
g30
g23
g22
g28
g25
S'c:\\Charlie\\charlie\\stimuli\\visual\\switching\\arrow_red_left.png'
g22
g26
I990
tp214
a(g18
g19
g143
I71
g30
g23
g23
g28
g35
S'c:\\Charlie\\charlie\\stimuli\\visual\\switching\\arrow_red_right.png'
g23
g32
I1160
tp215
a(g18
g19
g143
I72
g21
g22
g22
g31
g35
S'c:\\Charlie\\charlie\\stimuli\\visual\\switching\\arrow_blue_left.png'
g22
g26
I1530
tp216
a(g18
g19
g143
I73
g21
g22
g23
g28
g25
S'c:\\Charlie\\charlie\\stimuli\\visual\\switching\\arrow_blue_right.png'
g22
g32
I2440
tp217
a(g18
g19
g143
I74
g30
g22
g23
g31
g25
S'c:\\Charlie\\charlie\\stimuli\\visual\\switching\\arrow_red_right.png'
g23
g32
I11811
tp218
a(g18
g19
g143
I75
g21
g22
g22
g31
g35
S'c:\\Charlie\\charlie\\stimuli\\visual\\switching\\arrow_blue_left.png'
g22
g26
I760
tp219
a(g18
g19
g143
I76
g30
g22
g22
g31
g35
S'c:\\Charlie\\charlie\\stimuli\\visual\\switching\\arrow_red_left.png'
g22
g26
I1060
tp220
a(g18
g19
g143
I77
g21
g22
g23
g31
g25
S'c:\\Charlie\\charlie\\stimuli\\visual\\switching\\arrow_blue_right.png'
g22
g32
I740
tp221
a(g18
g19
g143
I78
g21
g22
g23
g28
g25
S'c:\\Charlie\\charlie\\stimuli\\visual\\switching\\arrow_blue_right.png'
g22
g32
I640
tp222
a(g18
g19
g143
I79
g30
g22
g22
g31
g35
S'c:\\Charlie\\charlie\\stimuli\\visual\\switching\\arrow_red_left.png'
g22
g26
I571
tp223
a(g18
g19
g143
I80
g21
g23
g22
g31
g25
S'c:\\Charlie\\charlie\\stimuli\\visual\\switching\\arrow_blue_left.png'
g23
g26
I3271
tp224
a(g18
g19
g143
I81
g30
g23
g22
g31
g25
S'c:\\Charlie\\charlie\\stimuli\\visual\\switching\\arrow_red_left.png'
g22
g32
I940
tp225
a(g18
g19
g143
I82
g30
g23
g22
g28
g25
S'c:\\Charlie\\charlie\\stimuli\\visual\\switching\\arrow_red_left.png'
g22
g32
I1700
tp226
a(g18
g19
g143
I83
g21
g23
g23
g31
g35
S'c:\\Charlie\\charlie\\stimuli\\visual\\switching\\arrow_blue_right.png'
g23
g32
I2240
tp227
a(g18
g19
g143
I84
g30
g23
g22
g31
g25
S'c:\\Charlie\\charlie\\stimuli\\visual\\switching\\arrow_red_left.png'
g22
g26
I1760
tp228
a(g18
g19
g143
I85
g30
g22
g23
g28
g25
S'c:\\Charlie\\charlie\\stimuli\\visual\\switching\\arrow_red_right.png'
g23
g32
I2760
tp229
a(g18
g19
g143
I86
g21
g22
g23
g31
g25
S'c:\\Charlie\\charlie\\stimuli\\visual\\switching\\arrow_blue_right.png'
g22
g32
I1620
tp230
a(g18
g19
g143
I87
g30
g23
g23
g31
g35
S'c:\\Charlie\\charlie\\stimuli\\visual\\switching\\arrow_red_right.png'
g23
g32
I1200
tp231
a(g18
g19
g143
I88
g30
g23
g23
g28
g35
S'c:\\Charlie\\charlie\\stimuli\\visual\\switching\\arrow_red_right.png'
g23
g32
I1020
tp232
a(g18
g19
g143
I89
g21
g23
g22
g31
g25
S'c:\\Charlie\\charlie\\stimuli\\visual\\switching\\arrow_blue_left.png'
g23
g26
I1010
tp233
a(g18
g19
g143
I90
g21
g22
g23
g28
g25
S'c:\\Charlie\\charlie\\stimuli\\visual\\switching\\arrow_blue_right.png'
g22
g32
I1521
tp234
a(g18
g19
g143
I91
g21
g23
g22
g28
g25
S'c:\\Charlie\\charlie\\stimuli\\visual\\switching\\arrow_blue_left.png'
g23
g26
I3500
tp235
a(g18
g19
g143
I92
g30
g22
g22
g31
g35
S'c:\\Charlie\\charlie\\stimuli\\visual\\switching\\arrow_red_left.png'
g22
g26
I1050
tp236
a(g18
g19
g143
I93
g21
g23
g23
g31
g35
S'c:\\Charlie\\charlie\\stimuli\\visual\\switching\\arrow_blue_right.png'
g23
g32
I800
tp237
a(g18
g19
g143
I94
g30
g23
g23
g31
g35
S'c:\\Charlie\\charlie\\stimuli\\visual\\switching\\arrow_red_right.png'
g23
g32
I690
tp238
a(g18
g19
g143
I95
g30
g22
g22
g28
g35
S'c:\\Charlie\\charlie\\stimuli\\visual\\switching\\arrow_red_left.png'
g22
g26
I620
tp239
a(g18
g19
g143
I96
g21
g23
g23
g31
g35
S'c:\\Charlie\\charlie\\stimuli\\visual\\switching\\arrow_blue_right.png'
g23
g32
I1310
tp240
a(g18
g19
g143
I97
g21
g22
g22
g28
g35
S'c:\\Charlie\\charlie\\stimuli\\visual\\switching\\arrow_blue_left.png'
g22
g26
I1120
tp241
a(g18
g19
g143
I98
g21
g23
g23
g28
g35
S'c:\\Charlie\\charlie\\stimuli\\visual\\switching\\arrow_blue_right.png'
g23
g32
I2130
tp242
a(g18
g19
g143
I99
g21
g22
g22
g28
g35
S'c:\\Charlie\\charlie\\stimuli\\visual\\switching\\arrow_blue_left.png'
g22
g26
I970
tp243
a(g18
g19
g143
I100
g21
g23
g23
g28
g35
S'c:\\Charlie\\charlie\\stimuli\\visual\\switching\\arrow_blue_right.png'
p244
g23
g32
I650
tp245
asS'output_format'
p246
(lp247
(S'proband_id'
p248
c__builtin__
str
p249
tp250
a(S'test_name'
p251
g249
tp252
a(S'phase'
p253
g249
tp254
a(S'trialn'
p255
c__builtin__
int
p256
tp257
a(S'task'
p258
g249
tp259
a(S'pos'
p260
g249
tp261
a(S'dir'
p262
g249
tp263
a(S'switch'
p264
g249
tp265
a(S'cong'
p266
g249
tp267
a(S'f'
g249
tp268
a(S'ans'
p269
g249
tp270
a(S'rsp'
p271
g249
tp272
a(S'rt'
p273
g256
tp274
asg248
g18
sS'filename'
p275
S'4384_switching.data'
p276
sS'initialised'
p277
g8
(S'\x07\xdf\x05\x0b\x0b\x1c"\x0b\xa4x'
tRp278
sS'last_udated'
p279
g8
(S'\x07\xdf\x05\x0b\x0b\x1c"\x0b\xa4x'
tRp280
sg251
S'switching'
p281
sS'directory'
p282
S'c:\\Charlie\\charlie\\data\\raw'
p283
sS'user_id'
p284
S'oleach'
p285
sS'test_started'
p286
I01
sS'abs_filename'
p287
S'c:\\Charlie\\charlie\\data\\raw\\4384_switching.data'
p288
sS'date_started'
p289
g8
(S'\x07\xdf\x05\x0b\x0b\x1d!\x0eW\xe0'
tRp290
sS'log'
p291
(lp292
(S'2015-05-11 11:28:34.763000'
S'instance created'
p293
tp294
a(S'2015-05-11 11:29:33.957000'
S'instance updated'
p295
tp296
a(S'2015-05-11 11:29:33.969000'
S'pandas DataFrame of data created'
p297
tp298
a(S'2015-05-11 11:29:33.977000'
S'data saved as csv to c:\\Charlie\\charlie\\data\\csv\\4384_switching.csv'
tp299
a(S'2015-05-11 11:29:38.140000'
g295
tp300
a(S'2015-05-11 11:29:38.152000'
g297
tp301
a(S'2015-05-11 11:29:38.155000'
S'data saved as csv to c:\\Charlie\\charlie\\data\\csv\\4384_switching.csv'
tp302
a(S'2015-05-11 11:29:42.546000'
g295
tp303
a(S'2015-05-11 11:29:42.559000'
g297
tp304
a(S'2015-05-11 11:29:42.563000'
S'data saved as csv to c:\\Charlie\\charlie\\data\\csv\\4384_switching.csv'
tp305
a(S'2015-05-11 11:29:45.385000'
g295
tp306
a(S'2015-05-11 11:29:45.397000'
g297
tp307
a(S'2015-05-11 11:29:45.401000'
S'data saved as csv to c:\\Charlie\\charlie\\data\\csv\\4384_switching.csv'
tp308
a(S'2015-05-11 11:29:49.114000'
g295
tp309
a(S'2015-05-11 11:29:49.126000'
g297
tp310
a(S'2015-05-11 11:29:49.130000'
S'data saved as csv to c:\\Charlie\\charlie\\data\\csv\\4384_switching.csv'
tp311
a(S'2015-05-11 11:29:52.083000'
g295
tp312
a(S'2015-05-11 11:29:52.096000'
g297
tp313
a(S'2015-05-11 11:29:52.100000'
S'data saved as csv to c:\\Charlie\\charlie\\data\\csv\\4384_switching.csv'
tp314
a(S'2015-05-11 11:29:54.922000'
g295
tp315
a(S'2015-05-11 11:29:54.934000'
g297
tp316
a(S'2015-05-11 11:29:54.938000'
S'data saved as csv to c:\\Charlie\\charlie\\data\\csv\\4384_switching.csv'
tp317
a(S'2015-05-11 11:29:59.731000'
g295
tp318
a(S'2015-05-11 11:29:59.744000'
g297
tp319
a(S'2015-05-11 11:29:59.747000'
S'data saved as csv to c:\\Charlie\\charlie\\data\\csv\\4384_switching.csv'
tp320
a(S'2015-05-11 11:30:08.541000'
g295
tp321
a(S'2015-05-11 11:30:08.553000'
g297
tp322
a(S'2015-05-11 11:30:08.557000'
S'data saved as csv to c:\\Charlie\\charlie\\data\\csv\\4384_switching.csv'
tp323
a(S'2015-05-11 11:30:28.761000'
g295
tp324
a(S'2015-05-11 11:30:28.773000'
g297
tp325
a(S'2015-05-11 11:30:28.777000'
S'data saved as csv to c:\\Charlie\\charlie\\data\\csv\\4384_switching.csv'
tp326
a(S'2015-05-11 11:30:31.322000'
g295
tp327
a(S'2015-05-11 11:30:31.334000'
g297
tp328
a(S'2015-05-11 11:30:31.338000'
S'data saved as csv to c:\\Charlie\\charlie\\data\\csv\\4384_switching.csv'
tp329
a(S'2015-05-11 11:30:33.973000'
g295
tp330
a(S'2015-05-11 11:30:33.983000'
g297
tp331
a(S'2015-05-11 11:30:33.985000'
S'data saved as csv to c:\\Charlie\\charlie\\data\\csv\\4384_switching.csv'
tp332
a(S'2015-05-11 11:30:35.699000'
g295
tp333
a(S'2015-05-11 11:30:35.712000'
g297
tp334
a(S'2015-05-11 11:30:35.716000'
S'data saved as csv to c:\\Charlie\\charlie\\data\\csv\\4384_switching.csv'
tp335
a(S'2015-05-11 11:30:37.832000'
g295
tp336
a(S'2015-05-11 11:30:37.845000'
g297
tp337
a(S'2015-05-11 11:30:37.848000'
S'data saved as csv to c:\\Charlie\\charlie\\data\\csv\\4384_switching.csv'
tp338
a(S'2015-05-11 11:30:39.802000'
g295
tp339
a(S'2015-05-11 11:30:39.815000'
g297
tp340
a(S'2015-05-11 11:30:39.819000'
S'data saved as csv to c:\\Charlie\\charlie\\data\\csv\\4384_switching.csv'
tp341
a(S'2015-05-11 11:30:41.814000'
g295
tp342
a(S'2015-05-11 11:30:41.827000'
g297
tp343
a(S'2015-05-11 11:30:41.830000'
S'data saved as csv to c:\\Charlie\\charlie\\data\\csv\\4384_switching.csv'
tp344
a(S'2015-05-11 11:30:43.496000'
g295
tp345
a(S'2015-05-11 11:30:43.509000'
g297
tp346
a(S'2015-05-11 11:30:43.513000'
S'data saved as csv to c:\\Charlie\\charlie\\data\\csv\\4384_switching.csv'
tp347
a(S'2015-05-11 11:30:46.129000'
g295
tp348
a(S'2015-05-11 11:30:46.141000'
g297
tp349
a(S'2015-05-11 11:30:46.145000'
S'data saved as csv to c:\\Charlie\\charlie\\data\\csv\\4384_switching.csv'
tp350
a(S'2015-05-11 11:30:48.040000'
g295
tp351
a(S'2015-05-11 11:30:48.051000'
g297
tp352
a(S'2015-05-11 11:30:48.054000'
S'data saved as csv to c:\\Charlie\\charlie\\data\\csv\\4384_switching.csv'
tp353
a(S'2015-05-11 11:30:49.507000'
g295
tp354
a(S'2015-05-11 11:30:49.520000'
g297
tp355
a(S'2015-05-11 11:30:49.522000'
S'data saved as csv to c:\\Charlie\\charlie\\data\\csv\\4384_switching.csv'
tp356
a(S'2015-05-11 11:30:52.646000'
g295
tp357
a(S'2015-05-11 11:30:52.658000'
g297
tp358
a(S'2015-05-11 11:30:52.662000'
S'data saved as csv to c:\\Charlie\\charlie\\data\\csv\\4384_switching.csv'
tp359
a(S'2015-05-11 11:30:55.338000'
g295
tp360
a(S'2015-05-11 11:30:55.351000'
g297
tp361
a(S'2015-05-11 11:30:55.356000'
S'data saved as csv to c:\\Charlie\\charlie\\data\\csv\\4384_switching.csv'
tp362
a(S'2015-05-11 11:30:56.550000'
g295
tp363
a(S'2015-05-11 11:30:56.564000'
g297
tp364
a(S'2015-05-11 11:30:56.568000'
S'data saved as csv to c:\\Charlie\\charlie\\data\\csv\\4384_switching.csv'
tp365
a(S'2015-05-11 11:30:57.672000'
g295
tp366
a(S'2015-05-11 11:30:57.684000'
g297
tp367
a(S'2015-05-11 11:30:57.688000'
S'data saved as csv to c:\\Charlie\\charlie\\data\\csv\\4384_switching.csv'
tp368
a(S'2015-05-11 11:30:59.143000'
g295
tp369
a(S'2015-05-11 11:30:59.153000'
g297
tp370
a(S'2015-05-11 11:30:59.155000'
S'data saved as csv to c:\\Charlie\\charlie\\data\\csv\\4384_switching.csv'
tp371
a(S'2015-05-11 11:31:00.319000'
g295
tp372
a(S'2015-05-11 11:31:00.332000'
g297
tp373
a(S'2015-05-11 11:31:00.336000'
S'data saved as csv to c:\\Charlie\\charlie\\data\\csv\\4384_switching.csv'
tp374
a(S'2015-05-11 11:31:01.911000'
g295
tp375
a(S'2015-05-11 11:31:01.924000'
g297
tp376
a(S'2015-05-11 11:31:01.929000'
S'data saved as csv to c:\\Charlie\\charlie\\data\\csv\\4384_switching.csv'
tp377
a(S'2015-05-11 11:31:03.003000'
g295
tp378
a(S'2015-05-11 11:31:03.016000'
g297
tp379
a(S'2015-05-11 11:31:03.020000'
S'data saved as csv to c:\\Charlie\\charlie\\data\\csv\\4384_switching.csv'
tp380
a(S'2015-05-11 11:31:03.673000'
g295
tp381
a(S'2015-05-11 11:31:03.682000'
g297
tp382
a(S'2015-05-11 11:31:03.685000'
S'data saved as csv to c:\\Charlie\\charlie\\data\\csv\\4384_switching.csv'
tp383
a(S'2015-05-11 11:31:05.168000'
g295
tp384
a(S'2015-05-11 11:31:05.180000'
g297
tp385
a(S'2015-05-11 11:31:05.183000'
S'data saved as csv to c:\\Charlie\\charlie\\data\\csv\\4384_switching.csv'
tp386
a(S'2015-05-11 11:31:05.796000'
g295
tp387
a(S'2015-05-11 11:31:05.809000'
g297
tp388
a(S'2015-05-11 11:31:05.812000'
S'data saved as csv to c:\\Charlie\\charlie\\data\\csv\\4384_switching.csv'
tp389
a(S'2015-05-11 11:31:07.125000'
g295
tp390
a(S'2015-05-11 11:31:07.134000'
g297
tp391
a(S'2015-05-11 11:31:07.136000'
S'data saved as csv to c:\\Charlie\\charlie\\data\\csv\\4384_switching.csv'
tp392
a(S'2015-05-11 11:31:08.340000'
g295
tp393
a(S'2015-05-11 11:31:08.353000'
g297
tp394
a(S'2015-05-11 11:31:08.357000'
S'data saved as csv to c:\\Charlie\\charlie\\data\\csv\\4384_switching.csv'
tp395
a(S'2015-05-11 11:31:09.591000'
g295
tp396
a(S'2015-05-11 11:31:09.604000'
g297
tp397
a(S'2015-05-11 11:31:09.609000'
S'data saved as csv to c:\\Charlie\\charlie\\data\\csv\\4384_switching.csv'
tp398
a(S'2015-05-11 11:31:12.215000'
g295
tp399
a(S'2015-05-11 11:31:12.228000'
g297
tp400
a(S'2015-05-11 11:31:12.230000'
S'data saved as csv to c:\\Charlie\\charlie\\data\\csv\\4384_switching.csv'
tp401
a(S'2015-05-11 11:31:13.613000'
g295
tp402
a(S'2015-05-11 11:31:13.626000'
g297
tp403
a(S'2015-05-11 11:31:13.631000'
S'data saved as csv to c:\\Charlie\\charlie\\data\\csv\\4384_switching.csv'
tp404
a(S'2015-05-11 11:31:15.046000'
g295
tp405
a(S'2015-05-11 11:31:15.060000'
g297
tp406
a(S'2015-05-11 11:31:15.064000'
S'data saved as csv to c:\\Charlie\\charlie\\data\\csv\\4384_switching.csv'
tp407
a(S'2015-05-11 11:31:17.090000'
g295
tp408
a(S'2015-05-11 11:31:17.104000'
g297
tp409
a(S'2015-05-11 11:31:17.108000'
S'data saved as csv to c:\\Charlie\\charlie\\data\\csv\\4384_switching.csv'
tp410
a(S'2015-05-11 11:31:19.265000'
g295
tp411
a(S'2015-05-11 11:31:19.278000'
g297
tp412
a(S'2015-05-11 11:31:19.280000'
S'data saved as csv to c:\\Charlie\\charlie\\data\\csv\\4384_switching.csv'
tp413
a(S'2015-05-11 11:31:21.053000'
g295
tp414
a(S'2015-05-11 11:31:21.066000'
g297
tp415
a(S'2015-05-11 11:31:21.071000'
S'data saved as csv to c:\\Charlie\\charlie\\data\\csv\\4384_switching.csv'
tp416
a(S'2015-05-11 11:31:21.956000'
g295
tp417
a(S'2015-05-11 11:31:21.970000'
g297
tp418
a(S'2015-05-11 11:31:21.974000'
S'data saved as csv to c:\\Charlie\\charlie\\data\\csv\\4384_switching.csv'
tp419
a(S'2015-05-11 11:31:23.018000'
g295
tp420
a(S'2015-05-11 11:31:23.030000'
g297
tp421
a(S'2015-05-11 11:31:23.032000'
S'data saved as csv to c:\\Charlie\\charlie\\data\\csv\\4384_switching.csv'
tp422
a(S'2015-05-11 11:31:23.566000'
g295
tp423
a(S'2015-05-11 11:31:23.574000'
g297
tp424
a(S'2015-05-11 11:31:23.577000'
S'data saved as csv to c:\\Charlie\\charlie\\data\\csv\\4384_switching.csv'
tp425
a(S'2015-05-11 11:31:27.201000'
g295
tp426
a(S'2015-05-11 11:31:27.214000'
g297
tp427
a(S'2015-05-11 11:31:27.219000'
S'data saved as csv to c:\\Charlie\\charlie\\data\\csv\\4384_switching.csv'
tp428
a(S'2015-05-11 11:31:30.116000'
g295
tp429
a(S'2015-05-11 11:31:30.129000'
g297
tp430
a(S'2015-05-11 11:31:30.133000'
S'data saved as csv to c:\\Charlie\\charlie\\data\\csv\\4384_switching.csv'
tp431
a(S'2015-05-11 11:31:32.400000'
g295
tp432
a(S'2015-05-11 11:31:32.413000'
g297
tp433
a(S'2015-05-11 11:31:32.417000'
S'data saved as csv to c:\\Charlie\\charlie\\data\\csv\\4384_switching.csv'
tp434
a(S'2015-05-11 11:31:35.903000'
g295
tp435
a(S'2015-05-11 11:31:35.916000'
g297
tp436
a(S'2015-05-11 11:31:35.921000'
S'data saved as csv to c:\\Charlie\\charlie\\data\\csv\\4384_switching.csv'
tp437
a(S'2015-05-11 11:31:39.448000'
g295
tp438
a(S'2015-05-11 11:31:39.461000'
g297
tp439
a(S'2015-05-11 11:31:39.465000'
S'data saved as csv to c:\\Charlie\\charlie\\data\\csv\\4384_switching.csv'
tp440
a(S'2015-05-11 11:31:41.100000'
g295
tp441
a(S'2015-05-11 11:31:41.113000'
g297
tp442
a(S'2015-05-11 11:31:41.117000'
S'data saved as csv to c:\\Charlie\\charlie\\data\\csv\\4384_switching.csv'
tp443
a(S'2015-05-11 11:31:42.500000'
g295
tp444
a(S'2015-05-11 11:31:42.513000'
g297
tp445
a(S'2015-05-11 11:31:42.518000'
S'data saved as csv to c:\\Charlie\\charlie\\data\\csv\\4384_switching.csv'
tp446
a(S'2015-05-11 11:31:44.284000'
g295
tp447
a(S'2015-05-11 11:31:44.297000'
g297
tp448
a(S'2015-05-11 11:31:44.299000'
S'data saved as csv to c:\\Charlie\\charlie\\data\\csv\\4384_switching.csv'
tp449
a(S'2015-05-11 11:31:47.494000'
g295
tp450
a(S'2015-05-11 11:31:47.507000'
g297
tp451
a(S'2015-05-11 11:31:47.510000'
S'data saved as csv to c:\\Charlie\\charlie\\data\\csv\\4384_switching.csv'
tp452
a(S'2015-05-11 11:31:49.123000'
g295
tp453
a(S'2015-05-11 11:31:49.137000'
g297
tp454
a(S'2015-05-11 11:31:49.142000'
S'data saved as csv to c:\\Charlie\\charlie\\data\\csv\\4384_switching.csv'
tp455
a(S'2015-05-11 11:31:51.128000'
g295
tp456
a(S'2015-05-11 11:31:51.142000'
g297
tp457
a(S'2015-05-11 11:31:51.146000'
S'data saved as csv to c:\\Charlie\\charlie\\data\\csv\\4384_switching.csv'
tp458
a(S'2015-05-11 11:31:52.092000'
g295
tp459
a(S'2015-05-11 11:31:52.101000'
g297
tp460
a(S'2015-05-11 11:31:52.104000'
S'data saved as csv to c:\\Charlie\\charlie\\data\\csv\\4384_switching.csv'
tp461
a(S'2015-05-11 11:31:55.240000'
g295
tp462
a(S'2015-05-11 11:31:55.254000'
g297
tp463
a(S'2015-05-11 11:31:55.258000'
S'data saved as csv to c:\\Charlie\\charlie\\data\\csv\\4384_switching.csv'
tp464
a(S'2015-05-11 11:31:57.045000'
g295
tp465
a(S'2015-05-11 11:31:57.059000'
g297
tp466
a(S'2015-05-11 11:31:57.063000'
S'data saved as csv to c:\\Charlie\\charlie\\data\\csv\\4384_switching.csv'
tp467
a(S'2015-05-11 11:32:00.540000'
g295
tp468
a(S'2015-05-11 11:32:00.554000'
g297
tp469
a(S'2015-05-11 11:32:00.557000'
S'data saved as csv to c:\\Charlie\\charlie\\data\\csv\\4384_switching.csv'
tp470
a(S'2015-05-11 11:32:01.501000'
g295
tp471
a(S'2015-05-11 11:32:01.515000'
g297
tp472
a(S'2015-05-11 11:32:01.517000'
S'data saved as csv to c:\\Charlie\\charlie\\data\\csv\\4384_switching.csv'
tp473
a(S'2015-05-11 11:32:02.612000'
g295
tp474
a(S'2015-05-11 11:32:02.625000'
g297
tp475
a(S'2015-05-11 11:32:02.628000'
S'data saved as csv to c:\\Charlie\\charlie\\data\\csv\\4384_switching.csv'
tp476
a(S'2015-05-11 11:32:04.252000'
g295
tp477
a(S'2015-05-11 11:32:04.266000'
g297
tp478
a(S'2015-05-11 11:32:04.271000'
S'data saved as csv to c:\\Charlie\\charlie\\data\\csv\\4384_switching.csv'
tp479
a(S'2015-05-11 11:32:09.058000'
g295
tp480
a(S'2015-05-11 11:32:09.071000'
g297
tp481
a(S'2015-05-11 11:32:09.075000'
S'data saved as csv to c:\\Charlie\\charlie\\data\\csv\\4384_switching.csv'
tp482
a(S'2015-05-11 11:32:09.820000'
g295
tp483
a(S'2015-05-11 11:32:09.834000'
g297
tp484
a(S'2015-05-11 11:32:09.839000'
S'data saved as csv to c:\\Charlie\\charlie\\data\\csv\\4384_switching.csv'
tp485
a(S'2015-05-11 11:32:13.146000'
g295
tp486
a(S'2015-05-11 11:32:13.157000'
g297
tp487
a(S'2015-05-11 11:32:13.160000'
S'data saved as csv to c:\\Charlie\\charlie\\data\\csv\\4384_switching.csv'
tp488
a(S'2015-05-11 11:32:14.915000'
g295
tp489
a(S'2015-05-11 11:32:14.927000'
g297
tp490
a(S'2015-05-11 11:32:14.930000'
S'data saved as csv to c:\\Charlie\\charlie\\data\\csv\\4384_switching.csv'
tp491
a(S'2015-05-11 11:32:18.045000'
g295
tp492
a(S'2015-05-11 11:32:18.059000'
g297
tp493
a(S'2015-05-11 11:32:18.063000'
S'data saved as csv to c:\\Charlie\\charlie\\data\\csv\\4384_switching.csv'
tp494
a(S'2015-05-11 11:32:19.830000'
g295
tp495
a(S'2015-05-11 11:32:19.844000'
g297
tp496
a(S'2015-05-11 11:32:19.849000'
S'data saved as csv to c:\\Charlie\\charlie\\data\\csv\\4384_switching.csv'
tp497
a(S'2015-05-11 11:32:22.796000'
g295
tp498
a(S'2015-05-11 11:32:22.810000'
g297
tp499
a(S'2015-05-11 11:32:22.814000'
S'data saved as csv to c:\\Charlie\\charlie\\data\\csv\\4384_switching.csv'
tp500
a(S'2015-05-11 11:32:24.228000'
g295
tp501
a(S'2015-05-11 11:32:24.242000'
g297
tp502
a(S'2015-05-11 11:32:24.247000'
S'data saved as csv to c:\\Charlie\\charlie\\data\\csv\\4384_switching.csv'
tp503
a(S'2015-05-11 11:32:25.883000'
g295
tp504
a(S'2015-05-11 11:32:25.897000'
g297
tp505
a(S'2015-05-11 11:32:25.902000'
S'data saved as csv to c:\\Charlie\\charlie\\data\\csv\\4384_switching.csv'
tp506
a(S'2015-05-11 11:32:27.507000'
g295
tp507
a(S'2015-05-11 11:32:27.521000'
g297
tp508
a(S'2015-05-11 11:32:27.525000'
S'data saved as csv to c:\\Charlie\\charlie\\data\\csv\\4384_switching.csv'
tp509
a(S'2015-05-11 11:32:30.010000'
g295
tp510
a(S'2015-05-11 11:32:30.024000'
g297
tp511
a(S'2015-05-11 11:32:30.029000'
S'data saved as csv to c:\\Charlie\\charlie\\data\\csv\\4384_switching.csv'
tp512
a(S'2015-05-11 11:32:31.276000'
g295
tp513
a(S'2015-05-11 11:32:31.290000'
g297
tp514
a(S'2015-05-11 11:32:31.295000'
S'data saved as csv to c:\\Charlie\\charlie\\data\\csv\\4384_switching.csv'
tp515
a(S'2015-05-11 11:32:33.512000'
g295
tp516
a(S'2015-05-11 11:32:33.525000'
g297
tp517
a(S'2015-05-11 11:32:33.528000'
S'data saved as csv to c:\\Charlie\\charlie\\data\\csv\\4384_switching.csv'
tp518
a(S'2015-05-11 11:32:36.074000'
g295
tp519
a(S'2015-05-11 11:32:36.088000'
g297
tp520
a(S'2015-05-11 11:32:36.093000'
S'data saved as csv to c:\\Charlie\\charlie\\data\\csv\\4384_switching.csv'
tp521
a(S'2015-05-11 11:32:36.420000'
g295
tp522
a(S'2015-05-11 11:32:36.433000'
g297
tp523
a(S'2015-05-11 11:32:36.436000'
S'data saved as csv to c:\\Charlie\\charlie\\data\\csv\\4384_switching.csv'
tp524
a(S'2015-05-11 11:32:38.281000'
g295
tp525
a(S'2015-05-11 11:32:38.294000'
g297
tp526
a(S'2015-05-11 11:32:38.297000'
S'data saved as csv to c:\\Charlie\\charlie\\data\\csv\\4384_switching.csv'
tp527
a(S'2015-05-11 11:32:41.781000'
g295
tp528
a(S'2015-05-11 11:32:41.795000'
g297
tp529
a(S'2015-05-11 11:32:41.800000'
S'data saved as csv to c:\\Charlie\\charlie\\data\\csv\\4384_switching.csv'
tp530
a(S'2015-05-11 11:32:44.148000'
g295
tp531
a(S'2015-05-11 11:32:44.162000'
g297
tp532
a(S'2015-05-11 11:32:44.167000'
S'data saved as csv to c:\\Charlie\\charlie\\data\\csv\\4384_switching.csv'
tp533
a(S'2015-05-11 11:32:45.563000'
g295
tp534
a(S'2015-05-11 11:32:45.577000'
g297
tp535
a(S'2015-05-11 11:32:45.582000'
S'data saved as csv to c:\\Charlie\\charlie\\data\\csv\\4384_switching.csv'
tp536
a(S'2015-05-11 11:32:47.879000'
g295
tp537
a(S'2015-05-11 11:32:47.893000'
g297
tp538
a(S'2015-05-11 11:32:47.895000'
S'data saved as csv to c:\\Charlie\\charlie\\data\\csv\\4384_switching.csv'
tp539
a(S'2015-05-11 11:32:49.500000'
g295
tp540
a(S'2015-05-11 11:32:49.514000'
g297
tp541
a(S'2015-05-11 11:32:49.516000'
S'data saved as csv to c:\\Charlie\\charlie\\data\\csv\\4384_switching.csv'
tp542
a(S'2015-05-11 11:32:50.611000'
g295
tp543
a(S'2015-05-11 11:32:50.624000'
g297
tp544
a(S'2015-05-11 11:32:50.626000'
S'data saved as csv to c:\\Charlie\\charlie\\data\\csv\\4384_switching.csv'
tp545
a(S'2015-05-11 11:32:52.300000'
g295
tp546
a(S'2015-05-11 11:32:52.309000'
g297
tp547
a(S'2015-05-11 11:32:52.312000'
S'data saved as csv to c:\\Charlie\\charlie\\data\\csv\\4384_switching.csv'
tp548
a(S'2015-05-11 11:32:52.948000'
g295
tp549
a(S'2015-05-11 11:32:52.962000'
g297
tp550
a(S'2015-05-11 11:32:52.965000'
S'data saved as csv to c:\\Charlie\\charlie\\data\\csv\\4384_switching.csv'
tp551
a(S'2015-05-11 11:32:54.150000'
g295
tp552
a(S'2015-05-11 11:32:54.163000'
g297
tp553
a(S'2015-05-11 11:32:54.166000'
S'data saved as csv to c:\\Charlie\\charlie\\data\\csv\\4384_switching.csv'
tp554
a(S'2015-05-11 11:32:55.291000'
g295
tp555
a(S'2015-05-11 11:32:55.304000'
g297
tp556
a(S'2015-05-11 11:32:55.306000'
S'data saved as csv to c:\\Charlie\\charlie\\data\\csv\\4384_switching.csv'
tp557
a(S'2015-05-11 11:32:56.141000'
g295
tp558
a(S'2015-05-11 11:32:56.155000'
g297
tp559
a(S'2015-05-11 11:32:56.161000'
S'data saved as csv to c:\\Charlie\\charlie\\data\\csv\\4384_switching.csv'
tp560
a(S'2015-05-11 11:32:56.858000'
g295
tp561
a(S'2015-05-11 11:32:56.872000'
g297
tp562
a(S'2015-05-11 11:32:56.878000'
S'data saved as csv to c:\\Charlie\\charlie\\data\\csv\\4384_switching.csv'
tp563
a(S'2015-05-11 11:32:58.275000'
g295
tp564
a(S'2015-05-11 11:32:58.289000'
g297
tp565
a(S'2015-05-11 11:32:58.295000'
S'data saved as csv to c:\\Charlie\\charlie\\data\\csv\\4384_switching.csv'
tp566
a(S'2015-05-11 11:33:00.733000'
g295
tp567
a(S'2015-05-11 11:33:00.747000'
g297
tp568
a(S'2015-05-11 11:33:00.753000'
S'data saved as csv to c:\\Charlie\\charlie\\data\\csv\\4384_switching.csv'
tp569
a(S'2015-05-11 11:33:02.089000'
g295
tp570
a(S'2015-05-11 11:33:02.104000'
g297
tp571
a(S'2015-05-11 11:33:02.109000'
S'data saved as csv to c:\\Charlie\\charlie\\data\\csv\\4384_switching.csv'
tp572
a(S'2015-05-11 11:33:04.046000'
g295
tp573
a(S'2015-05-11 11:33:04.061000'
g297
tp574
a(S'2015-05-11 11:33:04.064000'
S'data saved as csv to c:\\Charlie\\charlie\\data\\csv\\4384_switching.csv'
tp575
a(S'2015-05-11 11:33:05.249000'
g295
tp576
a(S'2015-05-11 11:33:05.262000'
g297
tp577
a(S'2015-05-11 11:33:05.265000'
S'data saved as csv to c:\\Charlie\\charlie\\data\\csv\\4384_switching.csv'
tp578
a(S'2015-05-11 11:33:06.330000'
g295
tp579
a(S'2015-05-11 11:33:06.344000'
g297
tp580
a(S'2015-05-11 11:33:06.350000'
S'data saved as csv to c:\\Charlie\\charlie\\data\\csv\\4384_switching.csv'
tp581
a(S'2015-05-11 11:33:07.377000'
g295
tp582
a(S'2015-05-11 11:33:07.391000'
g297
tp583
a(S'2015-05-11 11:33:07.394000'
S'data saved as csv to c:\\Charlie\\charlie\\data\\csv\\4384_switching.csv'
tp584
a(S'2015-05-11 11:33:08.609000'
g295
tp585
a(S'2015-05-11 11:33:08.623000'
g297
tp586
a(S'2015-05-11 11:33:08.625000'
S'data saved as csv to c:\\Charlie\\charlie\\data\\csv\\4384_switching.csv'
tp587
a(S'2015-05-11 11:33:09.761000'
g295
tp588
a(S'2015-05-11 11:33:09.775000'
g297
tp589
a(S'2015-05-11 11:33:09.780000'
S'data saved as csv to c:\\Charlie\\charlie\\data\\csv\\4384_switching.csv'
tp590
a(S'2015-05-11 11:33:12.778000'
g295
tp591
a(S'2015-05-11 11:33:12.792000'
g297
tp592
a(S'2015-05-11 11:33:12.795000'
S'data saved as csv to c:\\Charlie\\charlie\\data\\csv\\4384_switching.csv'
tp593
a(S'2015-05-11 11:33:14.300000'
g295
tp594
a(S'2015-05-11 11:33:14.315000'
g297
tp595
a(S'2015-05-11 11:33:14.320000'
S'data saved as csv to c:\\Charlie\\charlie\\data\\csv\\4384_switching.csv'
tp596
a(S'2015-05-11 11:33:16.286000'
g295
tp597
a(S'2015-05-11 11:33:16.301000'
g297
tp598
a(S'2015-05-11 11:33:16.303000'
S'data saved as csv to c:\\Charlie\\charlie\\data\\csv\\4384_switching.csv'
tp599
a(S'2015-05-11 11:33:17.489000'
g295
tp600
a(S'2015-05-11 11:33:17.502000'
g297
tp601
a(S'2015-05-11 11:33:17.504000'
S'data saved as csv to c:\\Charlie\\charlie\\data\\csv\\4384_switching.csv'
tp602
a(S'2015-05-11 11:33:18.671000'
g295
tp603
a(S'2015-05-11 11:33:18.685000'
g297
tp604
a(S'2015-05-11 11:33:18.691000'
S'data saved as csv to c:\\Charlie\\charlie\\data\\csv\\4384_switching.csv'
tp605
a(S'2015-05-11 11:33:19.768000'
g295
tp606
a(S'2015-05-11 11:33:19.782000'
g297
tp607
a(S'2015-05-11 11:33:19.785000'
S'data saved as csv to c:\\Charlie\\charlie\\data\\csv\\4384_switching.csv'
tp608
a(S'2015-05-11 11:33:21.210000'
g295
tp609
a(S'2015-05-11 11:33:21.223000'
g297
tp610
a(S'2015-05-11 11:33:21.226000'
S'data saved as csv to c:\\Charlie\\charlie\\data\\csv\\4384_switching.csv'
tp611
a(S'2015-05-11 11:33:22.511000'
g295
tp612
a(S'2015-05-11 11:33:22.521000'
g297
tp613
a(S'2015-05-11 11:33:22.525000'
S'data saved as csv to c:\\Charlie\\charlie\\data\\csv\\4384_switching.csv'
tp614
a(S'2015-05-11 11:33:23.451000'
g295
tp615
a(S'2015-05-11 11:33:23.466000'
g297
tp616
a(S'2015-05-11 11:33:23.471000'
S'data saved as csv to c:\\Charlie\\charlie\\data\\csv\\4384_switching.csv'
tp617
a(S'2015-05-11 11:33:24.517000'
g295
tp618
a(S'2015-05-11 11:33:24.531000'
g297
tp619
a(S'2015-05-11 11:33:24.537000'
S'data saved as csv to c:\\Charlie\\charlie\\data\\csv\\4384_switching.csv'
tp620
a(S'2015-05-11 11:33:25.815000'
g295
tp621
a(S'2015-05-11 11:33:25.830000'
g297
tp622
a(S'2015-05-11 11:33:25.835000'
S'data saved as csv to c:\\Charlie\\charlie\\data\\csv\\4384_switching.csv'
tp623
a(S'2015-05-11 11:33:27.053000'
g295
tp624
a(S'2015-05-11 11:33:27.068000'
g297
tp625
a(S'2015-05-11 11:33:27.072000'
S'data saved as csv to c:\\Charlie\\charlie\\data\\csv\\4384_switching.csv'
tp626
a(S'2015-05-11 11:33:43.657000'
g295
tp627
a(S'2015-05-11 11:33:43.672000'
g297
tp628
a(S'2015-05-11 11:33:43.677000'
S'data saved as csv to c:\\Charlie\\charlie\\data\\csv\\4384_switching.csv'
tp629
a(S'2015-05-11 11:33:45.135000'
g295
tp630
a(S'2015-05-11 11:33:45.150000'
g297
tp631
a(S'2015-05-11 11:33:45.155000'
S'data saved as csv to c:\\Charlie\\charlie\\data\\csv\\4384_switching.csv'
tp632
a(S'2015-05-11 11:33:46.692000'
g295
tp633
a(S'2015-05-11 11:33:46.707000'
g297
tp634
a(S'2015-05-11 11:33:46.713000'
S'data saved as csv to c:\\Charlie\\charlie\\data\\csv\\4384_switching.csv'
tp635
a(S'2015-05-11 11:33:48.080000'
g295
tp636
a(S'2015-05-11 11:33:48.095000'
g297
tp637
a(S'2015-05-11 11:33:48.100000'
S'data saved as csv to c:\\Charlie\\charlie\\data\\csv\\4384_switching.csv'
tp638
a(S'2015-05-11 11:33:49.465000'
g295
tp639
a(S'2015-05-11 11:33:49.479000'
g297
tp640
a(S'2015-05-11 11:33:49.482000'
S'data saved as csv to c:\\Charlie\\charlie\\data\\csv\\4384_switching.csv'
tp641
a(S'2015-05-11 11:33:50.787000'
g295
tp642
a(S'2015-05-11 11:33:50.800000'
g297
tp643
a(S'2015-05-11 11:33:50.803000'
S'data saved as csv to c:\\Charlie\\charlie\\data\\csv\\4384_switching.csv'
tp644
a(S'2015-05-11 11:33:52.188000'
g295
tp645
a(S'2015-05-11 11:33:52.203000'
g297
tp646
a(S'2015-05-11 11:33:52.209000'
S'data saved as csv to c:\\Charlie\\charlie\\data\\csv\\4384_switching.csv'
tp647
a(S'2015-05-11 11:33:53.784000'
g295
tp648
a(S'2015-05-11 11:33:53.799000'
g297
tp649
a(S'2015-05-11 11:33:53.802000'
S'data saved as csv to c:\\Charlie\\charlie\\data\\csv\\4384_switching.csv'
tp650
a(S'2015-05-11 11:33:54.847000'
g295
tp651
a(S'2015-05-11 11:33:54.856000'
g297
tp652
a(S'2015-05-11 11:33:54.859000'
S'data saved as csv to c:\\Charlie\\charlie\\data\\csv\\4384_switching.csv'
tp653
a(S'2015-05-11 11:33:55.955000'
g295
tp654
a(S'2015-05-11 11:33:55.965000'
g297
tp655
a(S'2015-05-11 11:33:55.968000'
S'data saved as csv to c:\\Charlie\\charlie\\data\\csv\\4384_switching.csv'
tp656
a(S'2015-05-11 11:33:57.194000'
g295
tp657
a(S'2015-05-11 11:33:57.208000'
g297
tp658
a(S'2015-05-11 11:33:57.214000'
S'data saved as csv to c:\\Charlie\\charlie\\data\\csv\\4384_switching.csv'
tp659
a(S'2015-05-11 11:33:58.427000'
g295
tp660
a(S'2015-05-11 11:33:58.442000'
g297
tp661
a(S'2015-05-11 11:33:58.448000'
S'data saved as csv to c:\\Charlie\\charlie\\data\\csv\\4384_switching.csv'
tp662
a(S'2015-05-11 11:33:59.413000'
g295
tp663
a(S'2015-05-11 11:33:59.417000'
g297
tp664
a(S'2015-05-11 11:33:59.418000'
S'data saved as csv to c:\\Charlie\\charlie\\data\\csv\\4384_switching.csv'
tp665
a(S'2015-05-11 11:34:00.543000'
g295
tp666
a(S'2015-05-11 11:34:00.554000'
g297
tp667
a(S'2015-05-11 11:34:00.557000'
S'data saved as csv to c:\\Charlie\\charlie\\data\\csv\\4384_switching.csv'
tp668
a(S'2015-05-11 11:34:02.003000'
g295
tp669
a(S'2015-05-11 11:34:02.018000'
g297
tp670
a(S'2015-05-11 11:34:02.021000'
S'data saved as csv to c:\\Charlie\\charlie\\data\\csv\\4384_switching.csv'
tp671
a(S'2015-05-11 11:34:03.148000'
g295
tp672
a(S'2015-05-11 11:34:03.160000'
g297
tp673
a(S'2015-05-11 11:34:03.163000'
S'data saved as csv to c:\\Charlie\\charlie\\data\\csv\\4384_switching.csv'
tp674
a(S'2015-05-11 11:34:03.939000'
g295
tp675
a(S'2015-05-11 11:34:03.948000'
g297
tp676
a(S'2015-05-11 11:34:03.951000'
S'data saved as csv to c:\\Charlie\\charlie\\data\\csv\\4384_switching.csv'
tp677
a(S'2015-05-11 11:34:05.017000'
g295
tp678
a(S'2015-05-11 11:34:05.031000'
g297
tp679
a(S'2015-05-11 11:34:05.036000'
S'data saved as csv to c:\\Charlie\\charlie\\data\\csv\\4384_switching.csv'
tp680
a(S'2015-05-11 11:34:08.874000'
g295
tp681
a(S'2015-05-11 11:34:08.888000'
g297
tp682
a(S'2015-05-11 11:34:08.891000'
S'data saved as csv to c:\\Charlie\\charlie\\data\\csv\\4384_switching.csv'
tp683
a(S'2015-05-11 11:34:10.438000'
g295
tp684
a(S'2015-05-11 11:34:10.451000'
g297
tp685
a(S'2015-05-11 11:34:10.454000'
S'data saved as csv to c:\\Charlie\\charlie\\data\\csv\\4384_switching.csv'
tp686
a(S'2015-05-11 11:34:11.660000'
g295
tp687
a(S'2015-05-11 11:34:11.675000'
g297
tp688
a(S'2015-05-11 11:34:11.679000'
S'data saved as csv to c:\\Charlie\\charlie\\data\\csv\\4384_switching.csv'
tp689
a(S'2015-05-11 11:34:13.005000'
g295
tp690
a(S'2015-05-11 11:34:13.020000'
g297
tp691
a(S'2015-05-11 11:34:13.027000'
S'data saved as csv to c:\\Charlie\\charlie\\data\\csv\\4384_switching.csv'
tp692
a(S'2015-05-11 11:34:14.033000'
g295
tp693
a(S'2015-05-11 11:34:14.048000'
g297
tp694
a(S'2015-05-11 11:34:14.051000'
S'data saved as csv to c:\\Charlie\\charlie\\data\\csv\\4384_switching.csv'
tp695
a(S'2015-05-11 11:34:14.986000'
g295
tp696
a(S'2015-05-11 11:34:15.001000'
g297
tp697
a(S'2015-05-11 11:34:15.008000'
S'data saved as csv to c:\\Charlie\\charlie\\data\\csv\\4384_switching.csv'
tp698
a(S'2015-05-11 11:34:16.113000'
g295
tp699
a(S'2015-05-11 11:34:16.128000'
g297
tp700
a(S'2015-05-11 11:34:16.134000'
S'data saved as csv to c:\\Charlie\\charlie\\data\\csv\\4384_switching.csv'
tp701
a(S'2015-05-11 11:34:17.122000'
g295
tp702
a(S'2015-05-11 11:34:17.137000'
g297
tp703
a(S'2015-05-11 11:34:17.140000'
S'data saved as csv to c:\\Charlie\\charlie\\data\\csv\\4384_switching.csv'
tp704
a(S'2015-05-11 11:34:18.376000'
g295
tp705
a(S'2015-05-11 11:34:18.392000'
g297
tp706
a(S'2015-05-11 11:34:18.423000'
S'data saved as csv to c:\\Charlie\\charlie\\data\\csv\\4384_switching.csv'
tp707
a(S'2015-05-11 11:34:19.478000'
g295
tp708
a(S'2015-05-11 11:34:19.487000'
g297
tp709
a(S'2015-05-11 11:34:19.491000'
S'data saved as csv to c:\\Charlie\\charlie\\data\\csv\\4384_switching.csv'
tp710
a(S'2015-05-11 11:34:20.576000'
g295
tp711
a(S'2015-05-11 11:34:20.590000'
g297
tp712
a(S'2015-05-11 11:34:20.593000'
S'data saved as csv to c:\\Charlie\\charlie\\data\\csv\\4384_switching.csv'
tp713
a(S'2015-05-11 11:34:21.989000'
g295
tp714
a(S'2015-05-11 11:34:22.001000'
g297
tp715
a(S'2015-05-11 11:34:22.004000'
S'data saved as csv to c:\\Charlie\\charlie\\data\\csv\\4384_switching.csv'
tp716
a(S'2015-05-11 11:34:25.731000'
g295
tp717
a(S'2015-05-11 11:34:25.746000'
g297
tp718
a(S'2015-05-11 11:34:25.749000'
S'data saved as csv to c:\\Charlie\\charlie\\data\\csv\\4384_switching.csv'
tp719
a(S'2015-05-11 11:34:26.946000'
g295
tp720
a(S'2015-05-11 11:34:26.955000'
g297
tp721
a(S'2015-05-11 11:34:26.959000'
S'data saved as csv to c:\\Charlie\\charlie\\data\\csv\\4384_switching.csv'
tp722
a(S'2015-05-11 11:34:29.226000'
g295
tp723
a(S'2015-05-11 11:34:29.235000'
g297
tp724
a(S'2015-05-11 11:34:29.239000'
S'data saved as csv to c:\\Charlie\\charlie\\data\\csv\\4384_switching.csv'
tp725
a(S'2015-05-11 11:34:36.616000'
g295
tp726
a(S'2015-05-11 11:34:36.632000'
g297
tp727
a(S'2015-05-11 11:34:36.637000'
S'data saved as csv to c:\\Charlie\\charlie\\data\\csv\\4384_switching.csv'
tp728
a(S'2015-05-11 11:34:37.804000'
g295
tp729
a(S'2015-05-11 11:34:37.813000'
g297
tp730
a(S'2015-05-11 11:34:37.817000'
S'data saved as csv to c:\\Charlie\\charlie\\data\\csv\\4384_switching.csv'
tp731
a(S'2015-05-11 11:34:39.965000'
g295
tp732
a(S'2015-05-11 11:34:39.980000'
g297
tp733
a(S'2015-05-11 11:34:39.987000'
S'data saved as csv to c:\\Charlie\\charlie\\data\\csv\\4384_switching.csv'
tp734
a(S'2015-05-11 11:34:42.796000'
g295
tp735
a(S'2015-05-11 11:34:42.811000'
g297
tp736
a(S'2015-05-11 11:34:42.817000'
S'data saved as csv to c:\\Charlie\\charlie\\data\\csv\\4384_switching.csv'
tp737
a(S'2015-05-11 11:34:44.453000'
g295
tp738
a(S'2015-05-11 11:34:44.467000'
g297
tp739
a(S'2015-05-11 11:34:44.470000'
S'data saved as csv to c:\\Charlie\\charlie\\data\\csv\\4384_switching.csv'
tp740
a(S'2015-05-11 11:34:45.067000'
g295
tp741
a(S'2015-05-11 11:34:45.083000'
g297
tp742
a(S'2015-05-11 11:34:45.089000'
S'data saved as csv to c:\\Charlie\\charlie\\data\\csv\\4384_switching.csv'
tp743
a(S'2015-05-11 11:34:46.086000'
g295
tp744
a(S'2015-05-11 11:34:46.095000'
g297
tp745
a(S'2015-05-11 11:34:46.099000'
S'data saved as csv to c:\\Charlie\\charlie\\data\\csv\\4384_switching.csv'
tp746
a(S'2015-05-11 11:34:47.235000'
g295
tp747
a(S'2015-05-11 11:34:47.251000'
g297
tp748
a(S'2015-05-11 11:34:47.256000'
S'data saved as csv to c:\\Charlie\\charlie\\data\\csv\\4384_switching.csv'
tp749
a(S'2015-05-11 11:34:48.212000'
g295
tp750
a(S'2015-05-11 11:34:48.227000'
g297
tp751
a(S'2015-05-11 11:34:48.234000'
S'data saved as csv to c:\\Charlie\\charlie\\data\\csv\\4384_switching.csv'
tp752
a(S'2015-05-11 11:34:49.852000'
g295
tp753
a(S'2015-05-11 11:34:49.866000'
g297
tp754
a(S'2015-05-11 11:34:49.869000'
S'data saved as csv to c:\\Charlie\\charlie\\data\\csv\\4384_switching.csv'
tp755
a(S'2015-05-11 11:34:51.336000'
g295
tp756
a(S'2015-05-11 11:34:51.351000'
g297
tp757
a(S'2015-05-11 11:34:51.358000'
S'data saved as csv to c:\\Charlie\\charlie\\data\\csv\\4384_switching.csv'
tp758
a(S'2015-05-11 11:34:52.686000'
g295
tp759
a(S'2015-05-11 11:34:52.701000'
g297
tp760
a(S'2015-05-11 11:34:52.708000'
S'data saved as csv to c:\\Charlie\\charlie\\data\\csv\\4384_switching.csv'
tp761
a(S'2015-05-11 11:34:53.726000'
g295
tp762
a(S'2015-05-11 11:34:53.738000'
g297
tp763
a(S'2015-05-11 11:34:53.741000'
S'data saved as csv to c:\\Charlie\\charlie\\data\\csv\\4384_switching.csv'
tp764
a(S'2015-05-11 11:34:55.098000'
g295
tp765
a(S'2015-05-11 11:34:55.113000'
g297
tp766
a(S'2015-05-11 11:34:55.118000'
S'data saved as csv to c:\\Charlie\\charlie\\data\\csv\\4384_switching.csv'
tp767
a(S'2015-05-11 11:34:56.244000'
g295
tp768
a(S'2015-05-11 11:34:56.257000'
g297
tp769
a(S'2015-05-11 11:34:56.260000'
S'data saved as csv to c:\\Charlie\\charlie\\data\\csv\\4384_switching.csv'
tp770
a(S'2015-05-11 11:34:57.797000'
g295
tp771
a(S'2015-05-11 11:34:57.812000'
g297
tp772
a(S'2015-05-11 11:34:57.817000'
S'data saved as csv to c:\\Charlie\\charlie\\data\\csv\\4384_switching.csv'
tp773
a(S'2015-05-11 11:35:01.284000'
g295
tp774
a(S'2015-05-11 11:35:01.297000'
g297
tp775
a(S'2015-05-11 11:35:01.300000'
S'data saved as csv to c:\\Charlie\\charlie\\data\\csv\\4384_switching.csv'
tp776
a(S'2015-05-11 11:35:02.626000'
g295
tp777
a(S'2015-05-11 11:35:02.642000'
g297
tp778
a(S'2015-05-11 11:35:02.646000'
S'data saved as csv to c:\\Charlie\\charlie\\data\\csv\\4384_switching.csv'
tp779
a(S'2015-05-11 11:35:04.363000'
g295
tp780
a(S'2015-05-11 11:35:04.379000'
g297
tp781
a(S'2015-05-11 11:35:04.385000'
S'data saved as csv to c:\\Charlie\\charlie\\data\\csv\\4384_switching.csv'
tp782
a(S'2015-05-11 11:35:05.581000'
g295
tp783
a(S'2015-05-11 11:35:05.597000'
g297
tp784
a(S'2015-05-11 11:35:05.604000'
S'data saved as csv to c:\\Charlie\\charlie\\data\\csv\\4384_switching.csv'
tp785
a(S'2015-05-11 11:35:07.773000'
g295
tp786
a(S'2015-05-11 11:35:07.789000'
g297
tp787
a(S'2015-05-11 11:35:07.796000'
S'data saved as csv to c:\\Charlie\\charlie\\data\\csv\\4384_switching.csv'
tp788
a(S'2015-05-11 11:35:09.114000'
g295
tp789
a(S'2015-05-11 11:35:09.127000'
g297
tp790
a(S'2015-05-11 11:35:09.131000'
S'data saved as csv to c:\\Charlie\\charlie\\data\\csv\\4384_switching.csv'
tp791
a(S'2015-05-11 11:35:10.257000'
g295
tp792
a(S'2015-05-11 11:35:10.269000'
g297
tp793
a(S'2015-05-11 11:35:10.273000'
S'data saved as csv to c:\\Charlie\\charlie\\data\\csv\\4384_switching.csv'
tp794
a(S'2015-05-11 11:35:11.558000'
g295
tp795
a(S'2015-05-11 11:35:11.574000'
g297
tp796
a(S'2015-05-11 11:35:11.581000'
S'data saved as csv to c:\\Charlie\\charlie\\data\\csv\\4384_switching.csv'
tp797
a(S'2015-05-11 11:35:12.708000'
g295
tp798
a(S'2015-05-11 11:35:12.724000'
g297
tp799
a(S'2015-05-11 11:35:12.728000'
S'data saved as csv to c:\\Charlie\\charlie\\data\\csv\\4384_switching.csv'
tp800
a(S'2015-05-11 11:35:13.994000'
g295
tp801
a(S'2015-05-11 11:35:14.010000'
g297
tp802
a(S'2015-05-11 11:35:14.016000'
S'data saved as csv to c:\\Charlie\\charlie\\data\\csv\\4384_switching.csv'
tp803
a(S'2015-05-11 11:35:15.202000'
g295
tp804
a(S'2015-05-11 11:35:15.216000'
g297
tp805
a(S'2015-05-11 11:35:15.219000'
S'data saved as csv to c:\\Charlie\\charlie\\data\\csv\\4384_switching.csv'
tp806
a(S'2015-05-11 11:35:17.876000'
g295
tp807
a(S'2015-05-11 11:35:17.888000'
g297
tp808
a(S'2015-05-11 11:35:17.892000'
S'data saved as csv to c:\\Charlie\\charlie\\data\\csv\\4384_switching.csv'
tp809
a(S'2015-05-11 11:35:19.498000'
g295
tp810
a(S'2015-05-11 11:35:19.510000'
g297
tp811
a(S'2015-05-11 11:35:19.514000'
S'data saved as csv to c:\\Charlie\\charlie\\data\\csv\\4384_switching.csv'
tp812
a(S'2015-05-11 11:35:20.870000'
g295
tp813
a(S'2015-05-11 11:35:20.884000'
g297
tp814
a(S'2015-05-11 11:35:20.888000'
S'data saved as csv to c:\\Charlie\\charlie\\data\\csv\\4384_switching.csv'
tp815
a(S'2015-05-11 11:35:22.064000'
g295
tp816
a(S'2015-05-11 11:35:22.080000'
g297
tp817
a(S'2015-05-11 11:35:22.085000'
S'data saved as csv to c:\\Charlie\\charlie\\data\\csv\\4384_switching.csv'
tp818
a(S'2015-05-11 11:35:23.191000'
g295
tp819
a(S'2015-05-11 11:35:23.207000'
g297
tp820
a(S'2015-05-11 11:35:23.213000'
S'data saved as csv to c:\\Charlie\\charlie\\data\\csv\\4384_switching.csv'
tp821
a(S'2015-05-11 11:35:24.861000'
g295
tp822
a(S'2015-05-11 11:35:24.875000'
g297
tp823
a(S'2015-05-11 11:35:24.878000'
S'data saved as csv to c:\\Charlie\\charlie\\data\\csv\\4384_switching.csv'
tp824
a(S'2015-05-11 11:35:26.375000'
g295
tp825
a(S'2015-05-11 11:35:26.391000'
g297
tp826
a(S'2015-05-11 11:35:26.398000'
S'data saved as csv to c:\\Charlie\\charlie\\data\\csv\\4384_switching.csv'
tp827
a(S'2015-05-11 11:35:27.417000'
g295
tp828
a(S'2015-05-11 11:35:27.429000'
g297
tp829
a(S'2015-05-11 11:35:27.433000'
S'data saved as csv to c:\\Charlie\\charlie\\data\\csv\\4384_switching.csv'
tp830
a(S'2015-05-11 11:35:28.849000'
g295
tp831
a(S'2015-05-11 11:35:28.864000'
g297
tp832
a(S'2015-05-11 11:35:28.867000'
S'data saved as csv to c:\\Charlie\\charlie\\data\\csv\\4384_switching.csv'
tp833
a(S'2015-05-11 11:35:31.586000'
g295
tp834
a(S'2015-05-11 11:35:31.598000'
g297
tp835
a(S'2015-05-11 11:35:31.602000'
S'data saved as csv to c:\\Charlie\\charlie\\data\\csv\\4384_switching.csv'
tp836
a(S'2015-05-11 11:35:32.729000'
g295
tp837
a(S'2015-05-11 11:35:32.746000'
g297
tp838
a(S'2015-05-11 11:35:32.753000'
S'data saved as csv to c:\\Charlie\\charlie\\data\\csv\\4384_switching.csv'
tp839
a(S'2015-05-11 11:35:34.052000'
g295
tp840
a(S'2015-05-11 11:35:34.062000'
g297
tp841
a(S'2015-05-11 11:35:34.066000'
S'data saved as csv to c:\\Charlie\\charlie\\data\\csv\\4384_switching.csv'
tp842
a(S'2015-05-11 11:35:35.732000'
g295
tp843
a(S'2015-05-11 11:35:35.748000'
g297
tp844
a(S'2015-05-11 11:35:35.755000'
S'data saved as csv to c:\\Charlie\\charlie\\data\\csv\\4384_switching.csv'
tp845
a(S'2015-05-11 11:35:38.335000'
g295
tp846
a(S'2015-05-11 11:35:38.347000'
g297
tp847
a(S'2015-05-11 11:35:38.351000'
S'data saved as csv to c:\\Charlie\\charlie\\data\\csv\\4384_switching.csv'
tp848
a(S'2015-05-11 11:35:50.299000'
g295
tp849
a(S'2015-05-11 11:35:50.314000'
g297
tp850
a(S'2015-05-11 11:35:50.317000'
S'data saved as csv to c:\\Charlie\\charlie\\data\\csv\\4384_switching.csv'
tp851
a(S'2015-05-11 11:35:51.213000'
g295
tp852
a(S'2015-05-11 11:35:51.229000'
g297
tp853
a(S'2015-05-11 11:35:51.236000'
S'data saved as csv to c:\\Charlie\\charlie\\data\\csv\\4384_switching.csv'
tp854
a(S'2015-05-11 11:35:52.434000'
g295
tp855
a(S'2015-05-11 11:35:52.446000'
g297
tp856
a(S'2015-05-11 11:35:52.450000'
S'data saved as csv to c:\\Charlie\\charlie\\data\\csv\\4384_switching.csv'
tp857
a(S'2015-05-11 11:35:53.328000'
g295
tp858
a(S'2015-05-11 11:35:53.343000'
g297
tp859
a(S'2015-05-11 11:35:53.346000'
S'data saved as csv to c:\\Charlie\\charlie\\data\\csv\\4384_switching.csv'
tp860
a(S'2015-05-11 11:35:54.123000'
g295
tp861
a(S'2015-05-11 11:35:54.139000'
g297
tp862
a(S'2015-05-11 11:35:54.146000'
S'data saved as csv to c:\\Charlie\\charlie\\data\\csv\\4384_switching.csv'
tp863
a(S'2015-05-11 11:35:54.855000'
g295
tp864
a(S'2015-05-11 11:35:54.872000'
g297
tp865
a(S'2015-05-11 11:35:54.875000'
S'data saved as csv to c:\\Charlie\\charlie\\data\\csv\\4384_switching.csv'
tp866
a(S'2015-05-11 11:35:58.283000'
g295
tp867
a(S'2015-05-11 11:35:58.295000'
g297
tp868
a(S'2015-05-11 11:35:58.298000'
S'data saved as csv to c:\\Charlie\\charlie\\data\\csv\\4384_switching.csv'
tp869
a(S'2015-05-11 11:35:59.376000'
g295
tp870
a(S'2015-05-11 11:35:59.392000'
g297
tp871
a(S'2015-05-11 11:35:59.399000'
S'data saved as csv to c:\\Charlie\\charlie\\data\\csv\\4384_switching.csv'
tp872
a(S'2015-05-11 11:36:01.238000'
g295
tp873
a(S'2015-05-11 11:36:01.254000'
g297
tp874
a(S'2015-05-11 11:36:01.261000'
S'data saved as csv to c:\\Charlie\\charlie\\data\\csv\\4384_switching.csv'
tp875
a(S'2015-05-11 11:36:03.640000'
g295
tp876
a(S'2015-05-11 11:36:03.656000'
g297
tp877
a(S'2015-05-11 11:36:03.662000'
S'data saved as csv to c:\\Charlie\\charlie\\data\\csv\\4384_switching.csv'
tp878
a(S'2015-05-11 11:36:05.558000'
g295
tp879
a(S'2015-05-11 11:36:05.575000'
g297
tp880
a(S'2015-05-11 11:36:05.582000'
S'data saved as csv to c:\\Charlie\\charlie\\data\\csv\\4384_switching.csv'
tp881
a(S'2015-05-11 11:36:08.480000'
g295
tp882
a(S'2015-05-11 11:36:08.494000'
g297
tp883
a(S'2015-05-11 11:36:08.497000'
S'data saved as csv to c:\\Charlie\\charlie\\data\\csv\\4384_switching.csv'
tp884
a(S'2015-05-11 11:36:10.255000'
g295
tp885
a(S'2015-05-11 11:36:10.266000'
g297
tp886
a(S'2015-05-11 11:36:10.270000'
S'data saved as csv to c:\\Charlie\\charlie\\data\\csv\\4384_switching.csv'
tp887
a(S'2015-05-11 11:36:11.607000'
g295
tp888
a(S'2015-05-11 11:36:11.623000'
g297
tp889
a(S'2015-05-11 11:36:11.631000'
S'data saved as csv to c:\\Charlie\\charlie\\data\\csv\\4384_switching.csv'
tp890
a(S'2015-05-11 11:36:12.790000'
g295
tp891
a(S'2015-05-11 11:36:12.807000'
g297
tp892
a(S'2015-05-11 11:36:12.812000'
S'data saved as csv to c:\\Charlie\\charlie\\data\\csv\\4384_switching.csv'
tp893
a(S'2015-05-11 11:36:13.960000'
g295
tp894
a(S'2015-05-11 11:36:13.976000'
g297
tp895
a(S'2015-05-11 11:36:13.982000'
S'data saved as csv to c:\\Charlie\\charlie\\data\\csv\\4384_switching.csv'
tp896
a(S'2015-05-11 11:36:15.639000'
g295
tp897
a(S'2015-05-11 11:36:15.656000'
g297
tp898
a(S'2015-05-11 11:36:15.662000'
S'data saved as csv to c:\\Charlie\\charlie\\data\\csv\\4384_switching.csv'
tp899
a(S'2015-05-11 11:36:19.300000'
g295
tp900
a(S'2015-05-11 11:36:19.317000'
g297
tp901
a(S'2015-05-11 11:36:19.322000'
S'data saved as csv to c:\\Charlie\\charlie\\data\\csv\\4384_switching.csv'
tp902
a(S'2015-05-11 11:36:20.508000'
g295
tp903
a(S'2015-05-11 11:36:20.522000'
g297
tp904
a(S'2015-05-11 11:36:20.526000'
S'data saved as csv to c:\\Charlie\\charlie\\data\\csv\\4384_switching.csv'
tp905
a(S'2015-05-11 11:36:21.463000'
g295
tp906
a(S'2015-05-11 11:36:21.479000'
g297
tp907
a(S'2015-05-11 11:36:21.483000'
S'data saved as csv to c:\\Charlie\\charlie\\data\\csv\\4384_switching.csv'
tp908
a(S'2015-05-11 11:36:22.310000'
g295
tp909
a(S'2015-05-11 11:36:22.323000'
g297
tp910
a(S'2015-05-11 11:36:22.327000'
S'data saved as csv to c:\\Charlie\\charlie\\data\\csv\\4384_switching.csv'
tp911
a(S'2015-05-11 11:36:23.084000'
g295
tp912
a(S'2015-05-11 11:36:23.101000'
g297
tp913
a(S'2015-05-11 11:36:23.104000'
S'data saved as csv to c:\\Charlie\\charlie\\data\\csv\\4384_switching.csv'
tp914
a(S'2015-05-11 11:36:24.551000'
g295
tp915
a(S'2015-05-11 11:36:24.568000'
g297
tp916
a(S'2015-05-11 11:36:24.572000'
S'data saved as csv to c:\\Charlie\\charlie\\data\\csv\\4384_switching.csv'
tp917
a(S'2015-05-11 11:36:25.830000'
g295
tp918
a(S'2015-05-11 11:36:25.840000'
g297
tp919
a(S'2015-05-11 11:36:25.844000'
S'data saved as csv to c:\\Charlie\\charlie\\data\\csv\\4384_switching.csv'
tp920
a(S'2015-05-11 11:36:28.114000'
g295
tp921
a(S'2015-05-11 11:36:28.130000'
g297
tp922
a(S'2015-05-11 11:36:28.138000'
S'data saved as csv to c:\\Charlie\\charlie\\data\\csv\\4384_switching.csv'
tp923
a(S'2015-05-11 11:36:29.246000'
g295
tp924
a(S'2015-05-11 11:36:29.256000'
g297
tp925
a(S'2015-05-11 11:36:29.260000'
S'data saved as csv to c:\\Charlie\\charlie\\data\\csv\\4384_switching.csv'
tp926
a(S'2015-05-11 11:36:30.047000'
g295
tp927
a(S'2015-05-11 11:36:30.061000'
g297
tp928
a(S'2015-05-11 11:36:30.065000'
S'data saved as csv to c:\\Charlie\\charlie\\data\\csv\\4384_switching.csv'
tp929
asb.