(icharlie.tools.data
Data
p1
(dp2
S'lang'
p3
S'EN'
p4
sS'control'
p5
(lp6
sS'last_updated'
p7
cdatetime
datetime
p8
(S'\x07\xdf\x05\x0b\x0b\x0c8\x0e\xc5@'
tRp9
sS'last_opened'
p10
g8
(S'\x07\xdf\x05\x0b\x0b\x06\x15\x0e\xff\xd8'
tRp11
sS'proj_id'
p12
S'connectivity'
p13
sS'date_done'
p14
NsS'test_done'
p15
I01
sS'data'
p16
(lp17
(S'4384'
p18
S'scap'
p19
S'practice'
p20
I3
I0
S'Yes'
p21
S'c:\\Charlie\\charlie\\stimuli\\visual\\scap\\practice-1.BMP'
S'c:\\Charlie\\charlie\\stimuli\\visual\\scap\\practice-2.BMP'
g21
I3300
tp22
a(g18
g19
g20
I4
I1
S'No'
p23
S'c:\\Charlie\\charlie\\stimuli\\visual\\scap\\practice-3.BMP'
S'c:\\Charlie\\charlie\\stimuli\\visual\\scap\\practice-4.BMP'
g21
I3980
tp24
a(g18
g19
g20
I5
I2
g21
S'c:\\Charlie\\charlie\\stimuli\\visual\\scap\\practice-5.BMP'
S'c:\\Charlie\\charlie\\stimuli\\visual\\scap\\practice-6.BMP'
g21
I1560
tp25
a(g18
g19
S'test'
p26
I3
I0
g21
S'c:\\Charlie\\charlie\\stimuli\\visual\\scap\\load3-1.BMP'
S'c:\\Charlie\\charlie\\stimuli\\visual\\scap\\load3-2.BMP'
g23
I2091
tp27
a(g18
g19
g26
I3
I1
g23
S'c:\\Charlie\\charlie\\stimuli\\visual\\scap\\load3-3.BMP'
S'c:\\Charlie\\charlie\\stimuli\\visual\\scap\\load3-4.BMP'
g23
I1520
tp28
a(g18
g19
g26
I3
I2
g21
S'c:\\Charlie\\charlie\\stimuli\\visual\\scap\\load3-5.BMP'
S'c:\\Charlie\\charlie\\stimuli\\visual\\scap\\load3-6.BMP'
g23
I1210
tp29
a(g18
g19
g26
I3
I3
g21
S'c:\\Charlie\\charlie\\stimuli\\visual\\scap\\load3-7.BMP'
S'c:\\Charlie\\charlie\\stimuli\\visual\\scap\\load3-8.BMP'
g23
I1940
tp30
a(g18
g19
g26
I3
I4
g23
S'c:\\Charlie\\charlie\\stimuli\\visual\\scap\\load3-9.BMP'
S'c:\\Charlie\\charlie\\stimuli\\visual\\scap\\load3-10.BMP'
g23
I1340
tp31
a(g18
g19
g26
I3
I5
g21
S'c:\\Charlie\\charlie\\stimuli\\visual\\scap\\load3-11.BMP'
S'c:\\Charlie\\charlie\\stimuli\\visual\\scap\\load3-12.BMP'
g23
I1090
tp32
a(g18
g19
g26
I3
I6
g23
S'c:\\Charlie\\charlie\\stimuli\\visual\\scap\\load3-13.BMP'
S'c:\\Charlie\\charlie\\stimuli\\visual\\scap\\load3-14.BMP'
g23
I760
tp33
a(g18
g19
g26
I3
I7
g23
S'c:\\Charlie\\charlie\\stimuli\\visual\\scap\\load3-15.BMP'
S'c:\\Charlie\\charlie\\stimuli\\visual\\scap\\load3-16.BMP'
g23
I1361
tp34
a(g18
g19
g26
I3
I8
g21
S'c:\\Charlie\\charlie\\stimuli\\visual\\scap\\load3-17.BMP'
S'c:\\Charlie\\charlie\\stimuli\\visual\\scap\\load3-18.BMP'
g23
I1040
tp35
a(g18
g19
g26
I3
I9
g23
S'c:\\Charlie\\charlie\\stimuli\\visual\\scap\\load3-19.BMP'
S'c:\\Charlie\\charlie\\stimuli\\visual\\scap\\load3-20.BMP'
g23
I1480
tp36
a(g18
g19
g26
I3
I10
g21
S'c:\\Charlie\\charlie\\stimuli\\visual\\scap\\load3-21.BMP'
S'c:\\Charlie\\charlie\\stimuli\\visual\\scap\\load3-22.BMP'
g23
I840
tp37
a(g18
g19
g26
I3
I11
g21
S'c:\\Charlie\\charlie\\stimuli\\visual\\scap\\load3-23.BMP'
S'c:\\Charlie\\charlie\\stimuli\\visual\\scap\\load3-24.BMP'
g23
I880
tp38
a(g18
g19
g26
I3
I12
g23
S'c:\\Charlie\\charlie\\stimuli\\visual\\scap\\load3-25.BMP'
S'c:\\Charlie\\charlie\\stimuli\\visual\\scap\\load3-26.BMP'
g23
I1090
tp39
a(g18
g19
g26
I3
I13
g23
S'c:\\Charlie\\charlie\\stimuli\\visual\\scap\\load3-27.BMP'
S'c:\\Charlie\\charlie\\stimuli\\visual\\scap\\load3-28.BMP'
g23
I970
tp40
a(g18
g19
g26
I4
I0
g23
S'c:\\Charlie\\charlie\\stimuli\\visual\\scap\\load4-1.BMP'
S'c:\\Charlie\\charlie\\stimuli\\visual\\scap\\load4-2.BMP'
g23
I1420
tp41
a(g18
g19
g26
I4
I1
g21
S'c:\\Charlie\\charlie\\stimuli\\visual\\scap\\load4-3.BMP'
S'c:\\Charlie\\charlie\\stimuli\\visual\\scap\\load4-4.BMP'
g21
I1290
tp42
a(g18
g19
g26
I4
I2
g21
S'c:\\Charlie\\charlie\\stimuli\\visual\\scap\\load4-5.BMP'
S'c:\\Charlie\\charlie\\stimuli\\visual\\scap\\load4-6.BMP'
g21
I1290
tp43
a(g18
g19
g26
I4
I3
g23
S'c:\\Charlie\\charlie\\stimuli\\visual\\scap\\load4-7.BMP'
S'c:\\Charlie\\charlie\\stimuli\\visual\\scap\\load4-8.BMP'
g23
I1600
tp44
a(g18
g19
g26
I4
I4
g23
S'c:\\Charlie\\charlie\\stimuli\\visual\\scap\\load4-9.BMP'
S'c:\\Charlie\\charlie\\stimuli\\visual\\scap\\load4-10.BMP'
g23
I1210
tp45
a(g18
g19
g26
I4
I5
g21
S'c:\\Charlie\\charlie\\stimuli\\visual\\scap\\load4-11.BMP'
S'c:\\Charlie\\charlie\\stimuli\\visual\\scap\\load4-12.BMP'
g23
I1520
tp46
a(g18
g19
g26
I4
I6
g23
S'c:\\Charlie\\charlie\\stimuli\\visual\\scap\\load4-13.BMP'
S'c:\\Charlie\\charlie\\stimuli\\visual\\scap\\load4-14.BMP'
g23
I1170
tp47
a(g18
g19
g26
I4
I7
g21
S'c:\\Charlie\\charlie\\stimuli\\visual\\scap\\load4-15.BMP'
S'c:\\Charlie\\charlie\\stimuli\\visual\\scap\\load4-16.BMP'
g23
I860
tp48
a(g18
g19
g26
I4
I8
g23
S'c:\\Charlie\\charlie\\stimuli\\visual\\scap\\load4-17.BMP'
S'c:\\Charlie\\charlie\\stimuli\\visual\\scap\\load4-18.BMP'
g23
I1550
tp49
a(g18
g19
g26
I4
I9
g21
S'c:\\Charlie\\charlie\\stimuli\\visual\\scap\\load4-19.BMP'
S'c:\\Charlie\\charlie\\stimuli\\visual\\scap\\load4-20.BMP'
g21
I2070
tp50
a(g18
g19
g26
I4
I10
g21
S'c:\\Charlie\\charlie\\stimuli\\visual\\scap\\load4-21.BMP'
S'c:\\Charlie\\charlie\\stimuli\\visual\\scap\\load4-22.BMP'
g21
I2320
tp51
a(g18
g19
g26
I4
I11
g23
S'c:\\Charlie\\charlie\\stimuli\\visual\\scap\\load4-23.BMP'
S'c:\\Charlie\\charlie\\stimuli\\visual\\scap\\load4-24.BMP'
g23
I2210
tp52
a(g18
g19
g26
I4
I12
g21
S'c:\\Charlie\\charlie\\stimuli\\visual\\scap\\load4-25.BMP'
S'c:\\Charlie\\charlie\\stimuli\\visual\\scap\\load4-26.BMP'
g23
I3870
tp53
a(g18
g19
g26
I4
I13
g23
S'c:\\Charlie\\charlie\\stimuli\\visual\\scap\\load4-27.BMP'
S'c:\\Charlie\\charlie\\stimuli\\visual\\scap\\load4-28.BMP'
g21
I2010
tp54
a(g18
g19
g26
I5
I0
g21
S'c:\\Charlie\\charlie\\stimuli\\visual\\scap\\load5-1.BMP'
S'c:\\Charlie\\charlie\\stimuli\\visual\\scap\\load5-2.BMP'
g21
I1310
tp55
a(g18
g19
g26
I5
I1
g21
S'c:\\Charlie\\charlie\\stimuli\\visual\\scap\\load5-3.BMP'
S'c:\\Charlie\\charlie\\stimuli\\visual\\scap\\load5-4.BMP'
g21
I1520
tp56
a(g18
g19
g26
I5
I2
g21
S'c:\\Charlie\\charlie\\stimuli\\visual\\scap\\load5-5.BMP'
S'c:\\Charlie\\charlie\\stimuli\\visual\\scap\\load5-6.BMP'
g23
I1570
tp57
a(g18
g19
g26
I5
I3
g21
S'c:\\Charlie\\charlie\\stimuli\\visual\\scap\\load5-7.BMP'
S'c:\\Charlie\\charlie\\stimuli\\visual\\scap\\load5-8.BMP'
g21
I970
tp58
a(g18
g19
g26
I5
I4
g21
S'c:\\Charlie\\charlie\\stimuli\\visual\\scap\\load5-9.BMP'
S'c:\\Charlie\\charlie\\stimuli\\visual\\scap\\load5-10.BMP'
g21
I2971
tp59
a(g18
g19
g26
I5
I5
g21
S'c:\\Charlie\\charlie\\stimuli\\visual\\scap\\load5-11.BMP'
S'c:\\Charlie\\charlie\\stimuli\\visual\\scap\\load5-12.BMP'
g21
I1190
tp60
a(g18
g19
g26
I5
I6
g23
S'c:\\Charlie\\charlie\\stimuli\\visual\\scap\\load5-13.BMP'
S'c:\\Charlie\\charlie\\stimuli\\visual\\scap\\load5-14.BMP'
g23
I1540
tp61
a(g18
g19
g26
I5
I7
g23
S'c:\\Charlie\\charlie\\stimuli\\visual\\scap\\load5-15.BMP'
S'c:\\Charlie\\charlie\\stimuli\\visual\\scap\\load5-16.BMP'
g23
I1290
tp62
a(g18
g19
g26
I5
I8
g23
S'c:\\Charlie\\charlie\\stimuli\\visual\\scap\\load5-17.BMP'
S'c:\\Charlie\\charlie\\stimuli\\visual\\scap\\load5-18.BMP'
g23
I1440
tp63
a(g18
g19
g26
I5
I9
g23
S'c:\\Charlie\\charlie\\stimuli\\visual\\scap\\load5-19.BMP'
S'c:\\Charlie\\charlie\\stimuli\\visual\\scap\\load5-20.BMP'
g23
I960
tp64
a(g18
g19
g26
I5
I10
g23
S'c:\\Charlie\\charlie\\stimuli\\visual\\scap\\load5-21.BMP'
S'c:\\Charlie\\charlie\\stimuli\\visual\\scap\\load5-22.BMP'
g23
I1640
tp65
a(g18
g19
g26
I5
I11
g21
S'c:\\Charlie\\charlie\\stimuli\\visual\\scap\\load5-23.BMP'
S'c:\\Charlie\\charlie\\stimuli\\visual\\scap\\load5-24.BMP'
g21
I1351
tp66
a(g18
g19
g26
I5
I12
g23
S'c:\\Charlie\\charlie\\stimuli\\visual\\scap\\load5-25.BMP'
S'c:\\Charlie\\charlie\\stimuli\\visual\\scap\\load5-26.BMP'
g21
I1650
tp67
a(g18
g19
g26
I5
I13
g23
S'c:\\Charlie\\charlie\\stimuli\\visual\\scap\\load5-27.BMP'
p68
S'c:\\Charlie\\charlie\\stimuli\\visual\\scap\\load5-28.BMP'
p69
g23
I2621
tp70
asS'output_format'
p71
(lp72
(S'proband_id'
p73
c__builtin__
str
p74
tp75
a(S'test_name'
p76
g74
tp77
a(S'phase'
p78
g74
tp79
a(S'load'
p80
c__builtin__
int
p81
tp82
a(S'trialn'
p83
g81
tp84
a(S'ans'
p85
g74
tp86
a(S'array_f'
p87
g74
tp88
a(S'probe_f'
p89
g74
tp90
a(S'rsp'
p91
g74
tp92
a(S'rt'
p93
g81
tp94
asg73
g18
sS'filename'
p95
S'4384_scap.data'
p96
sS'initialised'
p97
g8
(S'\x07\xdf\x05\x0b\x0b\x06\x15\x0e\xff\xd8'
tRp98
sS'last_udated'
p99
g8
(S'\x07\xdf\x05\x0b\x0b\x06\x15\x0e\xff\xd8'
tRp100
sg76
S'scap'
p101
sS'directory'
p102
S'c:\\Charlie\\charlie\\data\\raw'
p103
sS'user_id'
p104
S'oleach'
p105
sS'test_started'
p106
I01
sS'abs_filename'
p107
S'c:\\Charlie\\charlie\\data\\raw\\4384_scap.data'
p108
sS'date_started'
p109
g8
(S'\x07\xdf\x05\x0b\x0b\x07\x05\x01\xc18'
tRp110
sS'log'
p111
(lp112
(S'2015-05-11 11:06:21.983000'
S'instance created'
p113
tp114
a(S'2015-05-11 11:07:05.129000'
S'instance updated'
p115
tp116
a(S'2015-05-11 11:07:05.139000'
S'pandas DataFrame of data created'
p117
tp118
a(S'2015-05-11 11:07:05.144000'
S'data saved as csv to c:\\Charlie\\charlie\\data\\csv\\4384_scap.csv'
tp119
a(S'2015-05-11 11:07:16.169000'
g115
tp120
a(S'2015-05-11 11:07:16.180000'
g117
tp121
a(S'2015-05-11 11:07:16.183000'
S'data saved as csv to c:\\Charlie\\charlie\\data\\csv\\4384_scap.csv'
tp122
a(S'2015-05-11 11:07:24.780000'
g115
tp123
a(S'2015-05-11 11:07:24.791000'
g117
tp124
a(S'2015-05-11 11:07:24.794000'
S'data saved as csv to c:\\Charlie\\charlie\\data\\csv\\4384_scap.csv'
tp125
a(S'2015-05-11 11:07:42.848000'
g115
tp126
a(S'2015-05-11 11:07:42.858000'
g117
tp127
a(S'2015-05-11 11:07:42.862000'
S'data saved as csv to c:\\Charlie\\charlie\\data\\csv\\4384_scap.csv'
tp128
a(S'2015-05-11 11:07:50.519000'
g115
tp129
a(S'2015-05-11 11:07:50.529000'
g117
tp130
a(S'2015-05-11 11:07:50.533000'
S'data saved as csv to c:\\Charlie\\charlie\\data\\csv\\4384_scap.csv'
tp131
a(S'2015-05-11 11:07:57.877000'
g115
tp132
a(S'2015-05-11 11:07:57.882000'
g117
tp133
a(S'2015-05-11 11:07:57.883000'
S'data saved as csv to c:\\Charlie\\charlie\\data\\csv\\4384_scap.csv'
tp134
a(S'2015-05-11 11:08:05.956000'
g115
tp135
a(S'2015-05-11 11:08:05.967000'
g117
tp136
a(S'2015-05-11 11:08:05.971000'
S'data saved as csv to c:\\Charlie\\charlie\\data\\csv\\4384_scap.csv'
tp137
a(S'2015-05-11 11:08:13.447000'
g115
tp138
a(S'2015-05-11 11:08:13.457000'
g117
tp139
a(S'2015-05-11 11:08:13.461000'
S'data saved as csv to c:\\Charlie\\charlie\\data\\csv\\4384_scap.csv'
tp140
a(S'2015-05-11 11:08:20.687000'
g115
tp141
a(S'2015-05-11 11:08:20.697000'
g117
tp142
a(S'2015-05-11 11:08:20.701000'
S'data saved as csv to c:\\Charlie\\charlie\\data\\csv\\4384_scap.csv'
tp143
a(S'2015-05-11 11:08:27.597000'
g115
tp144
a(S'2015-05-11 11:08:27.607000'
g117
tp145
a(S'2015-05-11 11:08:27.611000'
S'data saved as csv to c:\\Charlie\\charlie\\data\\csv\\4384_scap.csv'
tp146
a(S'2015-05-11 11:08:35.108000'
g115
tp147
a(S'2015-05-11 11:08:35.119000'
g117
tp148
a(S'2015-05-11 11:08:35.123000'
S'data saved as csv to c:\\Charlie\\charlie\\data\\csv\\4384_scap.csv'
tp149
a(S'2015-05-11 11:08:42.299000'
g115
tp150
a(S'2015-05-11 11:08:42.310000'
g117
tp151
a(S'2015-05-11 11:08:42.314000'
S'data saved as csv to c:\\Charlie\\charlie\\data\\csv\\4384_scap.csv'
tp152
a(S'2015-05-11 11:08:49.922000'
g115
tp153
a(S'2015-05-11 11:08:49.926000'
g117
tp154
a(S'2015-05-11 11:08:49.927000'
S'data saved as csv to c:\\Charlie\\charlie\\data\\csv\\4384_scap.csv'
tp155
a(S'2015-05-11 11:08:56.902000'
g115
tp156
a(S'2015-05-11 11:08:56.913000'
g117
tp157
a(S'2015-05-11 11:08:56.916000'
S'data saved as csv to c:\\Charlie\\charlie\\data\\csv\\4384_scap.csv'
tp158
a(S'2015-05-11 11:09:03.931000'
g115
tp159
a(S'2015-05-11 11:09:03.941000'
g117
tp160
a(S'2015-05-11 11:09:03.945000'
S'data saved as csv to c:\\Charlie\\charlie\\data\\csv\\4384_scap.csv'
tp161
a(S'2015-05-11 11:09:11.172000'
g115
tp162
a(S'2015-05-11 11:09:11.183000'
g117
tp163
a(S'2015-05-11 11:09:11.187000'
S'data saved as csv to c:\\Charlie\\charlie\\data\\csv\\4384_scap.csv'
tp164
a(S'2015-05-11 11:09:18.293000'
g115
tp165
a(S'2015-05-11 11:09:18.303000'
g117
tp166
a(S'2015-05-11 11:09:18.308000'
S'data saved as csv to c:\\Charlie\\charlie\\data\\csv\\4384_scap.csv'
tp167
a(S'2015-05-11 11:09:25.864000'
g115
tp168
a(S'2015-05-11 11:09:25.874000'
g117
tp169
a(S'2015-05-11 11:09:25.878000'
S'data saved as csv to c:\\Charlie\\charlie\\data\\csv\\4384_scap.csv'
tp170
a(S'2015-05-11 11:09:33.305000'
g115
tp171
a(S'2015-05-11 11:09:33.316000'
g117
tp172
a(S'2015-05-11 11:09:33.320000'
S'data saved as csv to c:\\Charlie\\charlie\\data\\csv\\4384_scap.csv'
tp173
a(S'2015-05-11 11:09:40.746000'
g115
tp174
a(S'2015-05-11 11:09:40.757000'
g117
tp175
a(S'2015-05-11 11:09:40.761000'
S'data saved as csv to c:\\Charlie\\charlie\\data\\csv\\4384_scap.csv'
tp176
a(S'2015-05-11 11:09:48.497000'
g115
tp177
a(S'2015-05-11 11:09:48.508000'
g117
tp178
a(S'2015-05-11 11:09:48.512000'
S'data saved as csv to c:\\Charlie\\charlie\\data\\csv\\4384_scap.csv'
tp179
a(S'2015-05-11 11:09:55.857000'
g115
tp180
a(S'2015-05-11 11:09:55.868000'
g117
tp181
a(S'2015-05-11 11:09:55.872000'
S'data saved as csv to c:\\Charlie\\charlie\\data\\csv\\4384_scap.csv'
tp182
a(S'2015-05-11 11:10:03.527000'
g115
tp183
a(S'2015-05-11 11:10:03.538000'
g117
tp184
a(S'2015-05-11 11:10:03.541000'
S'data saved as csv to c:\\Charlie\\charlie\\data\\csv\\4384_scap.csv'
tp185
a(S'2015-05-11 11:10:10.846000'
g115
tp186
a(S'2015-05-11 11:10:10.857000'
g117
tp187
a(S'2015-05-11 11:10:10.861000'
S'data saved as csv to c:\\Charlie\\charlie\\data\\csv\\4384_scap.csv'
tp188
a(S'2015-05-11 11:10:17.856000'
g115
tp189
a(S'2015-05-11 11:10:17.868000'
g117
tp190
a(S'2015-05-11 11:10:17.872000'
S'data saved as csv to c:\\Charlie\\charlie\\data\\csv\\4384_scap.csv'
tp191
a(S'2015-05-11 11:10:25.556000'
g115
tp192
a(S'2015-05-11 11:10:25.567000'
g117
tp193
a(S'2015-05-11 11:10:25.571000'
S'data saved as csv to c:\\Charlie\\charlie\\data\\csv\\4384_scap.csv'
tp194
a(S'2015-05-11 11:10:33.778000'
g115
tp195
a(S'2015-05-11 11:10:33.790000'
g117
tp196
a(S'2015-05-11 11:10:33.794000'
S'data saved as csv to c:\\Charlie\\charlie\\data\\csv\\4384_scap.csv'
tp197
a(S'2015-05-11 11:10:42.250000'
g115
tp198
a(S'2015-05-11 11:10:42.261000'
g117
tp199
a(S'2015-05-11 11:10:42.266000'
S'data saved as csv to c:\\Charlie\\charlie\\data\\csv\\4384_scap.csv'
tp200
a(S'2015-05-11 11:10:50.612000'
g115
tp201
a(S'2015-05-11 11:10:50.624000'
g117
tp202
a(S'2015-05-11 11:10:50.628000'
S'data saved as csv to c:\\Charlie\\charlie\\data\\csv\\4384_scap.csv'
tp203
a(S'2015-05-11 11:11:00.635000'
g115
tp204
a(S'2015-05-11 11:11:00.646000'
g117
tp205
a(S'2015-05-11 11:11:00.651000'
S'data saved as csv to c:\\Charlie\\charlie\\data\\csv\\4384_scap.csv'
tp206
a(S'2015-05-11 11:11:08.797000'
g115
tp207
a(S'2015-05-11 11:11:08.808000'
g117
tp208
a(S'2015-05-11 11:11:08.812000'
S'data saved as csv to c:\\Charlie\\charlie\\data\\csv\\4384_scap.csv'
tp209
a(S'2015-05-11 11:11:16.259000'
g115
tp210
a(S'2015-05-11 11:11:16.271000'
g117
tp211
a(S'2015-05-11 11:11:16.275000'
S'data saved as csv to c:\\Charlie\\charlie\\data\\csv\\4384_scap.csv'
tp212
a(S'2015-05-11 11:11:23.932000'
g115
tp213
a(S'2015-05-11 11:11:23.944000'
g117
tp214
a(S'2015-05-11 11:11:23.948000'
S'data saved as csv to c:\\Charlie\\charlie\\data\\csv\\4384_scap.csv'
tp215
a(S'2015-05-11 11:11:31.655000'
g115
tp216
a(S'2015-05-11 11:11:31.665000'
g117
tp217
a(S'2015-05-11 11:11:31.670000'
S'data saved as csv to c:\\Charlie\\charlie\\data\\csv\\4384_scap.csv'
tp218
a(S'2015-05-11 11:11:38.776000'
g115
tp219
a(S'2015-05-11 11:11:38.788000'
g117
tp220
a(S'2015-05-11 11:11:38.792000'
S'data saved as csv to c:\\Charlie\\charlie\\data\\csv\\4384_scap.csv'
tp221
a(S'2015-05-11 11:11:47.900000'
g115
tp222
a(S'2015-05-11 11:11:47.909000'
g117
tp223
a(S'2015-05-11 11:11:47.911000'
S'data saved as csv to c:\\Charlie\\charlie\\data\\csv\\4384_scap.csv'
tp224
a(S'2015-05-11 11:11:55.237000'
g115
tp225
a(S'2015-05-11 11:11:55.249000'
g117
tp226
a(S'2015-05-11 11:11:55.253000'
S'data saved as csv to c:\\Charlie\\charlie\\data\\csv\\4384_scap.csv'
tp227
a(S'2015-05-11 11:12:02.929000'
g115
tp228
a(S'2015-05-11 11:12:02.941000'
g117
tp229
a(S'2015-05-11 11:12:02.945000'
S'data saved as csv to c:\\Charlie\\charlie\\data\\csv\\4384_scap.csv'
tp230
a(S'2015-05-11 11:12:10.372000'
g115
tp231
a(S'2015-05-11 11:12:10.383000'
g117
tp232
a(S'2015-05-11 11:12:10.388000'
S'data saved as csv to c:\\Charlie\\charlie\\data\\csv\\4384_scap.csv'
tp233
a(S'2015-05-11 11:12:17.965000'
g115
tp234
a(S'2015-05-11 11:12:17.977000'
g117
tp235
a(S'2015-05-11 11:12:17.981000'
S'data saved as csv to c:\\Charlie\\charlie\\data\\csv\\4384_scap.csv'
tp236
a(S'2015-05-11 11:12:25.078000'
g115
tp237
a(S'2015-05-11 11:12:25.090000'
g117
tp238
a(S'2015-05-11 11:12:25.094000'
S'data saved as csv to c:\\Charlie\\charlie\\data\\csv\\4384_scap.csv'
tp239
a(S'2015-05-11 11:12:32.871000'
g115
tp240
a(S'2015-05-11 11:12:32.883000'
g117
tp241
a(S'2015-05-11 11:12:32.887000'
S'data saved as csv to c:\\Charlie\\charlie\\data\\csv\\4384_scap.csv'
tp242
a(S'2015-05-11 11:12:40.375000'
g115
tp243
a(S'2015-05-11 11:12:40.386000'
g117
tp244
a(S'2015-05-11 11:12:40.391000'
S'data saved as csv to c:\\Charlie\\charlie\\data\\csv\\4384_scap.csv'
tp245
a(S'2015-05-11 11:12:48.178000'
g115
tp246
a(S'2015-05-11 11:12:48.189000'
g117
tp247
a(S'2015-05-11 11:12:48.194000'
S'data saved as csv to c:\\Charlie\\charlie\\data\\csv\\4384_scap.csv'
tp248
a(S'2015-05-11 11:12:56.951000'
g115
tp249
a(S'2015-05-11 11:12:56.962000'
g117
tp250
a(S'2015-05-11 11:12:56.967000'
S'data saved as csv to c:\\Charlie\\charlie\\data\\csv\\4384_scap.csv'
tp251
asb.