(icharlie.tools.data
Data
p1
(dp2
S'lang'
p3
S'EN'
p4
sS'control'
p5
(lp6
sS'last_updated'
p7
cdatetime
datetime
p8
(S'\x07\xdf\x05\x0b\n&\x1e\x08dp'
tRp9
sS'last_opened'
p10
g8
(S'\x07\xdf\x05\x0b\n"\x1d\t?0'
tRp11
sS'proj_id'
p12
S'connectivity'
p13
sS'date_done'
p14
NsS'test_done'
p15
I01
sS'data'
p16
(lp17
(S'4384'
p18
S'digit_symbol'
p19
S'practice'
p20
I0
I2
I2
S'Yes'
p21
S'c:\\Charlie\\charlie\\stimuli\\visual\\digit_symbol\\sym2.bmp'
g21
I15430
tp22
a(g18
g19
g20
I1
I6
I6
g21
S'c:\\Charlie\\charlie\\stimuli\\visual\\digit_symbol\\sym6.bmp'
g21
I3021
tp23
a(g18
g19
g20
I2
I8
I4
S'No'
p24
S'c:\\Charlie\\charlie\\stimuli\\visual\\digit_symbol\\sym4.bmp'
g24
I6770
tp25
a(g18
g19
g20
I3
I4
I4
g21
S'c:\\Charlie\\charlie\\stimuli\\visual\\digit_symbol\\sym4.bmp'
g21
I4980
tp26
a(g18
g19
g20
I4
I7
I7
g21
S'c:\\Charlie\\charlie\\stimuli\\visual\\digit_symbol\\sym7.bmp'
g21
I3051
tp27
a(g18
g19
g20
I5
I6
I5
g24
S'c:\\Charlie\\charlie\\stimuli\\visual\\digit_symbol\\sym5.bmp'
g24
I3610
tp28
a(g18
g19
g20
I6
I2
I8
g24
S'c:\\Charlie\\charlie\\stimuli\\visual\\digit_symbol\\sym8.bmp'
g24
I2300
tp29
a(g18
g19
g20
I7
I9
I2
g24
S'c:\\Charlie\\charlie\\stimuli\\visual\\digit_symbol\\sym2.bmp'
g24
I12580
tp30
a(g18
g19
g20
I8
I3
I7
g24
S'c:\\Charlie\\charlie\\stimuli\\visual\\digit_symbol\\sym7.bmp'
g24
I35852
tp31
a(g18
g19
g20
I9
I5
I6
g24
S'c:\\Charlie\\charlie\\stimuli\\visual\\digit_symbol\\sym6.bmp'
g24
I2100
tp32
a(g18
g19
S'test'
p33
I0
I8
I8
g21
S'c:\\Charlie\\charlie\\stimuli\\visual\\digit_symbol\\sym8.bmp'
g21
I2305
tp34
a(g18
g19
g33
I1
I1
I4
g24
S'c:\\Charlie\\charlie\\stimuli\\visual\\digit_symbol\\sym4.bmp'
g24
I2303
tp35
a(g18
g19
g33
I2
I2
I8
g24
S'c:\\Charlie\\charlie\\stimuli\\visual\\digit_symbol\\sym8.bmp'
g24
I2504
tp36
a(g18
g19
g33
I3
I6
I2
g24
S'c:\\Charlie\\charlie\\stimuli\\visual\\digit_symbol\\sym2.bmp'
g24
I3203
tp37
a(g18
g19
g33
I4
I4
I4
g21
S'c:\\Charlie\\charlie\\stimuli\\visual\\digit_symbol\\sym4.bmp'
g21
I1903
tp38
a(g18
g19
g33
I5
I9
I5
g24
S'c:\\Charlie\\charlie\\stimuli\\visual\\digit_symbol\\sym5.bmp'
g24
I2603
tp39
a(g18
g19
g33
I6
I5
I6
g24
S'c:\\Charlie\\charlie\\stimuli\\visual\\digit_symbol\\sym6.bmp'
g21
I2203
tp40
a(g18
g19
g33
I7
I3
I3
g21
S'c:\\Charlie\\charlie\\stimuli\\visual\\digit_symbol\\sym3.bmp'
g21
I2903
tp41
a(g18
g19
g33
I8
I4
I4
g21
S'c:\\Charlie\\charlie\\stimuli\\visual\\digit_symbol\\sym4.bmp'
g21
I1903
tp42
a(g18
g19
g33
I9
I9
I9
g21
S'c:\\Charlie\\charlie\\stimuli\\visual\\digit_symbol\\sym9.bmp'
g21
I4304
tp43
a(g18
g19
g33
I10
I6
I6
g21
S'c:\\Charlie\\charlie\\stimuli\\visual\\digit_symbol\\sym6.bmp'
g21
I2503
tp44
a(g18
g19
g33
I11
I1
I1
g21
S'c:\\Charlie\\charlie\\stimuli\\visual\\digit_symbol\\sym1.bmp'
g21
I1903
tp45
a(g18
g19
g33
I12
I2
I2
g21
S'c:\\Charlie\\charlie\\stimuli\\visual\\digit_symbol\\sym2.bmp'
g21
I1602
tp46
a(g18
g19
g33
I13
I7
I7
g21
S'c:\\Charlie\\charlie\\stimuli\\visual\\digit_symbol\\sym7.bmp'
g21
I2703
tp47
a(g18
g19
g33
I14
I3
I3
g21
S'c:\\Charlie\\charlie\\stimuli\\visual\\digit_symbol\\sym3.bmp'
g21
I2303
tp48
a(g18
g19
g33
I15
I8
I8
g21
S'c:\\Charlie\\charlie\\stimuli\\visual\\digit_symbol\\sym8.bmp'
g21
I2404
tp49
a(g18
g19
g33
I16
I7
I7
g21
S'c:\\Charlie\\charlie\\stimuli\\visual\\digit_symbol\\sym7.bmp'
g21
I2503
tp50
a(g18
g19
g33
I17
I5
I3
g24
S'c:\\Charlie\\charlie\\stimuli\\visual\\digit_symbol\\sym3.bmp'
g24
I3403
tp51
a(g18
g19
g33
I18
I1
I5
g24
S'c:\\Charlie\\charlie\\stimuli\\visual\\digit_symbol\\sym5.bmp'
g24
I1603
tp52
a(g18
g19
g33
I19
I4
I4
g21
S'c:\\Charlie\\charlie\\stimuli\\visual\\digit_symbol\\sym4.bmp'
g21
I2203
tp53
a(g18
g19
g33
I20
I7
I8
g24
S'c:\\Charlie\\charlie\\stimuli\\visual\\digit_symbol\\sym8.bmp'
g24
I3503
tp54
a(g18
g19
g33
I21
I4
I4
g21
S'c:\\Charlie\\charlie\\stimuli\\visual\\digit_symbol\\sym4.bmp'
g21
I2603
tp55
a(g18
g19
g33
I22
I8
I8
g21
S'c:\\Charlie\\charlie\\stimuli\\visual\\digit_symbol\\sym8.bmp'
g21
I2604
tp56
a(g18
g19
g33
I23
I3
I3
g21
S'c:\\Charlie\\charlie\\stimuli\\visual\\digit_symbol\\sym3.bmp'
g21
I2403
tp57
a(g18
g19
g33
I24
I5
I5
g21
S'c:\\Charlie\\charlie\\stimuli\\visual\\digit_symbol\\sym5.bmp'
g21
I2903
tp58
a(g18
g19
g33
I25
I3
I1
g24
S'c:\\Charlie\\charlie\\stimuli\\visual\\digit_symbol\\sym1.bmp'
g21
I3103
tp59
a(g18
g19
g33
I26
I6
I9
g24
S'c:\\Charlie\\charlie\\stimuli\\visual\\digit_symbol\\sym9.bmp'
g24
I5303
tp60
a(g18
g19
g33
I27
I2
I2
g21
S'c:\\Charlie\\charlie\\stimuli\\visual\\digit_symbol\\sym2.bmp'
g21
I3104
tp61
a(g18
g19
g33
I28
I8
I8
g21
S'c:\\Charlie\\charlie\\stimuli\\visual\\digit_symbol\\sym8.bmp'
g21
I2303
tp62
a(g18
g19
g33
I29
I9
I2
g24
S'c:\\Charlie\\charlie\\stimuli\\visual\\digit_symbol\\sym2.bmp'
g24
I2003
tp63
a(g18
g19
g33
I30
I1
I6
g24
S'c:\\Charlie\\charlie\\stimuli\\visual\\digit_symbol\\sym6.bmp'
g24
I2603
tp64
a(g18
g19
g33
I31
I5
I4
g24
S'c:\\Charlie\\charlie\\stimuli\\visual\\digit_symbol\\sym4.bmp'
g24
I2903
tp65
asS'output_format'
p66
(lp67
(S'proband_id'
p68
c__builtin__
str
p69
tp70
a(S'test_name'
p71
g69
tp72
a(S'phase'
p73
g69
tp74
a(S'trialn'
p75
c__builtin__
int
p76
tp77
a(S'digit'
p78
g76
tp79
a(S'symbol'
p80
g76
tp81
a(S'ans'
p82
g69
tp83
a(S'f'
g69
tp84
a(S'rsp'
p85
g69
tp86
a(S'rt'
p87
g76
tp88
asg68
g18
sS'filename'
p89
S'4384_digit_symbol.data'
p90
sS'initialised'
p91
g8
(S'\x07\xdf\x05\x0b\n"\x1d\t?0'
tRp92
sS'last_udated'
p93
g8
(S'\x07\xdf\x05\x0b\n"\x1d\t?0'
tRp94
sg71
S'digit_symbol'
p95
sS'directory'
p96
S'c:\\Charlie\\charlie\\data\\raw'
p97
sS'user_id'
p98
S'oleach'
p99
sS'test_started'
p100
I01
sS'abs_filename'
p101
S'c:\\Charlie\\charlie\\data\\raw\\4384_digit_symbol.data'
p102
sS'date_started'
p103
g8
(S'\x07\xdf\x05\x0b\n#\x14\x06\xcaH'
tRp104
sS'log'
p105
(lp106
(S'2015-05-11 10:34:29.606000'
S'instance created'
p107
tp108
a(S'2015-05-11 10:35:20.456000'
S'instance updated'
p109
tp110
a(S'2015-05-11 10:35:20.467000'
S'pandas DataFrame of data created'
p111
tp112
a(S'2015-05-11 10:35:20.475000'
S'data saved as csv to c:\\Charlie\\charlie\\data\\csv\\4384_digit_symbol.csv'
tp113
a(S'2015-05-11 10:35:24.519000'
g109
tp114
a(S'2015-05-11 10:35:24.530000'
g111
tp115
a(S'2015-05-11 10:35:24.534000'
S'data saved as csv to c:\\Charlie\\charlie\\data\\csv\\4384_digit_symbol.csv'
tp116
a(S'2015-05-11 10:35:32.328000'
g109
tp117
a(S'2015-05-11 10:35:32.339000'
g111
tp118
a(S'2015-05-11 10:35:32.342000'
S'data saved as csv to c:\\Charlie\\charlie\\data\\csv\\4384_digit_symbol.csv'
tp119
a(S'2015-05-11 10:35:38.347000'
g109
tp120
a(S'2015-05-11 10:35:38.358000'
g111
tp121
a(S'2015-05-11 10:35:38.362000'
S'data saved as csv to c:\\Charlie\\charlie\\data\\csv\\4384_digit_symbol.csv'
tp122
a(S'2015-05-11 10:35:42.436000'
g109
tp123
a(S'2015-05-11 10:35:42.446000'
g111
tp124
a(S'2015-05-11 10:35:42.450000'
S'data saved as csv to c:\\Charlie\\charlie\\data\\csv\\4384_digit_symbol.csv'
tp125
a(S'2015-05-11 10:35:47.082000'
g109
tp126
a(S'2015-05-11 10:35:47.092000'
g111
tp127
a(S'2015-05-11 10:35:47.096000'
S'data saved as csv to c:\\Charlie\\charlie\\data\\csv\\4384_digit_symbol.csv'
tp128
a(S'2015-05-11 10:35:50.420000'
g109
tp129
a(S'2015-05-11 10:35:50.430000'
g111
tp130
a(S'2015-05-11 10:35:50.434000'
S'data saved as csv to c:\\Charlie\\charlie\\data\\csv\\4384_digit_symbol.csv'
tp131
a(S'2015-05-11 10:36:04.037000'
g109
tp132
a(S'2015-05-11 10:36:04.047000'
g111
tp133
a(S'2015-05-11 10:36:04.051000'
S'data saved as csv to c:\\Charlie\\charlie\\data\\csv\\4384_digit_symbol.csv'
tp134
a(S'2015-05-11 10:36:40.925000'
g109
tp135
a(S'2015-05-11 10:36:40.936000'
g111
tp136
a(S'2015-05-11 10:36:40.940000'
S'data saved as csv to c:\\Charlie\\charlie\\data\\csv\\4384_digit_symbol.csv'
tp137
a(S'2015-05-11 10:36:44.064000'
g109
tp138
a(S'2015-05-11 10:36:44.075000'
g111
tp139
a(S'2015-05-11 10:36:44.079000'
S'data saved as csv to c:\\Charlie\\charlie\\data\\csv\\4384_digit_symbol.csv'
tp140
a(S'2015-05-11 10:38:30.532000'
g109
tp141
a(S'2015-05-11 10:38:30.545000'
g111
tp142
a(S'2015-05-11 10:38:30.549000'
S'data saved as csv to c:\\Charlie\\charlie\\data\\csv\\4384_digit_symbol.csv'
tp143
asb.