(icharlie.tools.data
Data
p1
(dp2
S'lang'
p3
S'EN'
p4
sS'control'
p5
(lp6
sS'last_updated'
p7
cdatetime
datetime
p8
(S'\x07\xdf\x05\x12\n\x0e,\x0cPX'
tRp9
sS'last_opened'
p10
g8
(S'\x07\xdf\x05\x12\n\n\x1c\x06d\xb8'
tRp11
sS'proj_id'
p12
S'connectivity'
p13
sS'date_done'
p14
NsS'test_done'
p15
I01
sS'data'
p16
(lp17
(S'4387'
p18
S'stroop'
p19
S'practice'
p20
I0
S'n/a'
p21
S'c:\\Charlie\\charlie\\stimuli\\visual\\stroop\\prac_1.png'
S'Right'
p22
g22
I4270
tp23
a(g18
g19
g20
I1
g21
S'c:\\Charlie\\charlie\\stimuli\\visual\\stroop\\prac_2.png'
S'Left'
p24
g24
I1510
tp25
a(g18
g19
g20
I2
g21
S'c:\\Charlie\\charlie\\stimuli\\visual\\stroop\\prac_3.png'
g22
g22
I1480
tp26
a(g18
g19
g20
I3
g21
S'c:\\Charlie\\charlie\\stimuli\\visual\\stroop\\prac_4.png'
g22
g22
I1770
tp27
a(g18
g19
S'test'
p28
I0
S'Incongruent'
p29
S'c:\\Charlie\\charlie\\stimuli\\visual\\stroop\\6-Incongruent.png'
g24
g24
I1310
tp30
a(g18
g19
g28
I1
S'Congruent'
p31
S'c:\\Charlie\\charlie\\stimuli\\visual\\stroop\\30-Congruent.png'
g24
g24
I1150
tp32
a(g18
g19
g28
I2
g31
S'c:\\Charlie\\charlie\\stimuli\\visual\\stroop\\3-Congruent.png'
g22
g22
I2570
tp33
a(g18
g19
g28
I3
g29
S'c:\\Charlie\\charlie\\stimuli\\visual\\stroop\\23-Incongruent.png'
g24
g24
I920
tp34
a(g18
g19
g28
I4
g31
S'c:\\Charlie\\charlie\\stimuli\\visual\\stroop\\39-Congruent.png'
g24
g22
I4740
tp35
a(g18
g19
g28
I5
g31
S'c:\\Charlie\\charlie\\stimuli\\visual\\stroop\\45-Congruent.png'
g24
g24
I820
tp36
a(g18
g19
g28
I6
g29
S'c:\\Charlie\\charlie\\stimuli\\visual\\stroop\\31-Incongruent.png'
g22
g22
I2831
tp37
a(g18
g19
g28
I7
g29
S'c:\\Charlie\\charlie\\stimuli\\visual\\stroop\\28-Incongruent.png'
g24
g24
I1030
tp38
a(g18
g19
g28
I8
g31
S'c:\\Charlie\\charlie\\stimuli\\visual\\stroop\\31-Congruent.png'
g24
g24
I910
tp39
a(g18
g19
g28
I9
g31
S'c:\\Charlie\\charlie\\stimuli\\visual\\stroop\\10-Congruent.png'
g22
g22
I1650
tp40
a(g18
g19
g28
I10
g29
S'c:\\Charlie\\charlie\\stimuli\\visual\\stroop\\10-Incongruent.png'
g24
g24
I910
tp41
a(g18
g19
g28
I11
g29
S'c:\\Charlie\\charlie\\stimuli\\visual\\stroop\\24-Incongruent.png'
g24
g24
I980
tp42
a(g18
g19
g28
I12
g31
S'c:\\Charlie\\charlie\\stimuli\\visual\\stroop\\34-Congruent.png'
g24
g24
I910
tp43
a(g18
g19
g28
I13
g31
S'c:\\Charlie\\charlie\\stimuli\\visual\\stroop\\38-Congruent.png'
g24
g24
I1060
tp44
a(g18
g19
g28
I14
g31
S'c:\\Charlie\\charlie\\stimuli\\visual\\stroop\\42-Congruent.png'
g24
g24
I880
tp45
a(g18
g19
g28
I15
g31
S'c:\\Charlie\\charlie\\stimuli\\visual\\stroop\\17-Congruent.png'
g22
g22
I860
tp46
a(g18
g19
g28
I16
g29
S'c:\\Charlie\\charlie\\stimuli\\visual\\stroop\\42-Incongruent.png'
g22
g22
I1040
tp47
a(g18
g19
g28
I17
g29
S'c:\\Charlie\\charlie\\stimuli\\visual\\stroop\\36-Incongruent.png'
g22
g22
I1070
tp48
a(g18
g19
g28
I18
g29
S'c:\\Charlie\\charlie\\stimuli\\visual\\stroop\\43-Incongruent.png'
g22
g22
I1050
tp49
a(g18
g19
g28
I19
g31
S'c:\\Charlie\\charlie\\stimuli\\visual\\stroop\\49-Congruent.png'
g24
g24
I3361
tp50
a(g18
g19
g28
I20
g31
S'c:\\Charlie\\charlie\\stimuli\\visual\\stroop\\43-Congruent.png'
g24
g22
I2670
tp51
a(g18
g19
g28
I21
g29
S'c:\\Charlie\\charlie\\stimuli\\visual\\stroop\\15-Incongruent.png'
g24
g24
I2310
tp52
a(g18
g19
g28
I22
g29
S'c:\\Charlie\\charlie\\stimuli\\visual\\stroop\\35-Incongruent.png'
g22
g22
I4270
tp53
a(g18
g19
g28
I23
g29
S'c:\\Charlie\\charlie\\stimuli\\visual\\stroop\\44-Incongruent.png'
g22
g22
I2180
tp54
a(g18
g19
g28
I24
g29
S'c:\\Charlie\\charlie\\stimuli\\visual\\stroop\\47-Incongruent.png'
g22
g22
I3271
tp55
a(g18
g19
g28
I25
g29
S'c:\\Charlie\\charlie\\stimuli\\visual\\stroop\\40-Incongruent.png'
g22
g22
I1230
tp56
a(g18
g19
g28
I26
g29
S'c:\\Charlie\\charlie\\stimuli\\visual\\stroop\\25-Incongruent.png'
g24
g24
I910
tp57
a(g18
g19
g28
I27
g29
S'c:\\Charlie\\charlie\\stimuli\\visual\\stroop\\27-Incongruent.png'
g24
g24
I1050
tp58
a(g18
g19
g28
I28
g29
S'c:\\Charlie\\charlie\\stimuli\\visual\\stroop\\56-Incongruent.png'
g22
g22
I920
tp59
a(g18
g19
g28
I29
g31
S'c:\\Charlie\\charlie\\stimuli\\visual\\stroop\\2-Congruent.png'
g22
g22
I900
tp60
a(g18
g19
g28
I30
g29
S'c:\\Charlie\\charlie\\stimuli\\visual\\stroop\\17-Incongruent.png'
g24
g24
I930
tp61
a(g18
g19
g28
I31
g31
S'c:\\Charlie\\charlie\\stimuli\\visual\\stroop\\12-Congruent.png'
g22
g22
I790
tp62
a(g18
g19
g28
I32
g29
S'c:\\Charlie\\charlie\\stimuli\\visual\\stroop\\12-Incongruent.png'
g24
g24
I1140
tp63
a(g18
g19
g28
I33
g29
S'c:\\Charlie\\charlie\\stimuli\\visual\\stroop\\26-Incongruent.png'
g24
g24
I870
tp64
a(g18
g19
g28
I34
g31
S'c:\\Charlie\\charlie\\stimuli\\visual\\stroop\\19-Congruent.png'
g22
g24
I3100
tp65
a(g18
g19
g28
I35
g31
S'c:\\Charlie\\charlie\\stimuli\\visual\\stroop\\23-Congruent.png'
g22
g22
I1270
tp66
a(g18
g19
g28
I36
g31
S'c:\\Charlie\\charlie\\stimuli\\visual\\stroop\\35-Congruent.png'
g24
g24
I1510
tp67
a(g18
g19
g28
I37
g31
S'c:\\Charlie\\charlie\\stimuli\\visual\\stroop\\46-Congruent.png'
g24
g24
I1641
tp68
a(g18
g19
g28
I38
g29
S'c:\\Charlie\\charlie\\stimuli\\visual\\stroop\\8-Incongruent.png'
g24
g24
I1270
tp69
a(g18
g19
g28
I39
g31
S'c:\\Charlie\\charlie\\stimuli\\visual\\stroop\\29-Congruent.png'
g24
g24
I1030
tp70
a(g18
g19
g28
I40
g31
S'c:\\Charlie\\charlie\\stimuli\\visual\\stroop\\14-Congruent.png'
g22
g22
I900
tp71
a(g18
g19
g28
I41
g31
S'c:\\Charlie\\charlie\\stimuli\\visual\\stroop\\33-Congruent.png'
g24
g24
I890
tp72
a(g18
g19
g28
I42
g29
S'c:\\Charlie\\charlie\\stimuli\\visual\\stroop\\13-Incongruent.png'
g24
g24
I1540
tp73
a(g18
g19
g28
I43
g29
S'c:\\Charlie\\charlie\\stimuli\\visual\\stroop\\55-Incongruent.png'
g22
g22
I1420
tp74
a(g18
g19
g28
I44
g31
S'c:\\Charlie\\charlie\\stimuli\\visual\\stroop\\54-Congruent.png'
g24
g24
I900
tp75
a(g18
g19
g28
I45
g31
S'c:\\Charlie\\charlie\\stimuli\\visual\\stroop\\8-Congruent.png'
g22
g22
I880
tp76
a(g18
g19
g28
I46
g31
S'c:\\Charlie\\charlie\\stimuli\\visual\\stroop\\13-Congruent.png'
g22
g22
I4320
tp77
a(g18
g19
g28
I47
g31
S'c:\\Charlie\\charlie\\stimuli\\visual\\stroop\\40-Congruent.png'
g24
g24
I1310
tp78
a(g18
g19
g28
I48
g29
S'c:\\Charlie\\charlie\\stimuli\\visual\\stroop\\9-Incongruent.png'
g24
g24
I1281
tp79
a(g18
g19
g28
I49
g31
S'c:\\Charlie\\charlie\\stimuli\\visual\\stroop\\50-Congruent.png'
g24
g24
I1800
tp80
a(g18
g19
g28
I50
g31
S'c:\\Charlie\\charlie\\stimuli\\visual\\stroop\\5-Congruent.png'
g22
g24
I3830
tp81
a(g18
g19
g28
I51
g29
S'c:\\Charlie\\charlie\\stimuli\\visual\\stroop\\5-Incongruent.png'
g24
g24
I1650
tp82
a(g18
g19
g28
I52
g29
S'c:\\Charlie\\charlie\\stimuli\\visual\\stroop\\53-Incongruent.png'
g22
g22
I1520
tp83
a(g18
g19
g28
I53
g29
S'c:\\Charlie\\charlie\\stimuli\\visual\\stroop\\1-Incongruent.png'
g24
g24
I1040
tp84
a(g18
g19
g28
I54
g31
S'c:\\Charlie\\charlie\\stimuli\\visual\\stroop\\28-Congruent.png'
g22
g22
I1530
tp85
a(g18
g19
g28
I55
g29
S'c:\\Charlie\\charlie\\stimuli\\visual\\stroop\\34-Incongruent.png'
g22
g22
I960
tp86
a(g18
g19
g28
I56
g29
S'c:\\Charlie\\charlie\\stimuli\\visual\\stroop\\20-Incongruent.png'
g24
g24
I1100
tp87
a(g18
g19
g28
I57
g29
S'c:\\Charlie\\charlie\\stimuli\\visual\\stroop\\38-Incongruent.png'
g22
g22
I1390
tp88
a(g18
g19
g28
I58
g29
S'c:\\Charlie\\charlie\\stimuli\\visual\\stroop\\32-Incongruent.png'
g22
g22
I1251
tp89
a(g18
g19
g28
I59
g31
S'c:\\Charlie\\charlie\\stimuli\\visual\\stroop\\9-Congruent.png'
g22
g22
I1210
tp90
a(g18
g19
g28
I60
g31
S'c:\\Charlie\\charlie\\stimuli\\visual\\stroop\\55-Congruent.png'
g24
g24
I3050
tp91
a(g18
g19
g28
I61
g29
S'c:\\Charlie\\charlie\\stimuli\\visual\\stroop\\33-Incongruent.png'
g22
g22
I790
tp92
a(g18
g19
g28
I62
g29
S'c:\\Charlie\\charlie\\stimuli\\visual\\stroop\\49-Incongruent.png'
g22
g22
I1320
tp93
a(g18
g19
g28
I63
g31
S'c:\\Charlie\\charlie\\stimuli\\visual\\stroop\\4-Congruent.png'
g22
g22
I1310
tp94
a(g18
g19
g28
I64
g31
S'c:\\Charlie\\charlie\\stimuli\\visual\\stroop\\6-Congruent.png'
g22
g24
I1220
tp95
a(g18
g19
g28
I65
g31
S'c:\\Charlie\\charlie\\stimuli\\visual\\stroop\\48-Congruent.png'
g24
g24
I1720
tp96
a(g18
g19
g28
I66
g31
S'c:\\Charlie\\charlie\\stimuli\\visual\\stroop\\52-Congruent.png'
g24
g24
I1161
tp97
a(g18
g19
g28
I67
g31
S'c:\\Charlie\\charlie\\stimuli\\visual\\stroop\\51-Congruent.png'
g24
g24
I1740
tp98
a(g18
g19
g28
I68
g31
S'c:\\Charlie\\charlie\\stimuli\\visual\\stroop\\16-Congruent.png'
g22
g22
I910
tp99
a(g18
g19
g28
I69
g31
S'c:\\Charlie\\charlie\\stimuli\\visual\\stroop\\24-Congruent.png'
g22
g22
I881
tp100
a(g18
g19
g28
I70
g29
S'c:\\Charlie\\charlie\\stimuli\\visual\\stroop\\41-Incongruent.png'
g22
g22
I1650
tp101
a(g18
g19
g28
I71
g29
S'c:\\Charlie\\charlie\\stimuli\\visual\\stroop\\48-Incongruent.png'
g22
g22
I2010
tp102
a(g18
g19
g28
I72
g29
S'c:\\Charlie\\charlie\\stimuli\\visual\\stroop\\4-Incongruent.png'
g24
g24
I1560
tp103
a(g18
g19
g28
I73
g29
S'c:\\Charlie\\charlie\\stimuli\\visual\\stroop\\54-Incongruent.png'
g22
g22
I1320
tp104
a(g18
g19
g28
I74
g29
S'c:\\Charlie\\charlie\\stimuli\\visual\\stroop\\39-Incongruent.png'
g22
g22
I4510
tp105
a(g18
g19
g28
I75
g31
S'c:\\Charlie\\charlie\\stimuli\\visual\\stroop\\56-Congruent.png'
g24
g24
I1370
tp106
a(g18
g19
g28
I76
g29
S'c:\\Charlie\\charlie\\stimuli\\visual\\stroop\\46-Incongruent.png'
g22
g22
I1890
tp107
a(g18
g19
g28
I77
g31
S'c:\\Charlie\\charlie\\stimuli\\visual\\stroop\\22-Congruent.png'
g22
g22
I1520
tp108
a(g18
g19
g28
I78
g29
S'c:\\Charlie\\charlie\\stimuli\\visual\\stroop\\21-Incongruent.png'
g24
g24
I1121
tp109
a(g18
g19
g28
I79
g29
S'c:\\Charlie\\charlie\\stimuli\\visual\\stroop\\37-Incongruent.png'
g22
g22
I2840
tp110
a(g18
g19
g28
I80
g29
S'c:\\Charlie\\charlie\\stimuli\\visual\\stroop\\2-Incongruent.png'
g24
g24
I1050
tp111
a(g18
g19
g28
I81
g31
S'c:\\Charlie\\charlie\\stimuli\\visual\\stroop\\21-Congruent.png'
g22
g22
I1180
tp112
a(g18
g19
g28
I82
g29
S'c:\\Charlie\\charlie\\stimuli\\visual\\stroop\\7-Incongruent.png'
g24
g24
I870
tp113
a(g18
g19
g28
I83
g31
S'c:\\Charlie\\charlie\\stimuli\\visual\\stroop\\20-Congruent.png'
g22
g22
I940
tp114
a(g18
g19
g28
I84
g31
S'c:\\Charlie\\charlie\\stimuli\\visual\\stroop\\15-Congruent.png'
g22
g22
I5490
tp115
a(g18
g19
g28
I85
g31
S'c:\\Charlie\\charlie\\stimuli\\visual\\stroop\\26-Congruent.png'
g22
g22
I2410
tp116
a(g18
g19
g28
I86
g29
S'c:\\Charlie\\charlie\\stimuli\\visual\\stroop\\16-Incongruent.png'
g24
g24
I941
tp117
a(g18
g19
g28
I87
g29
S'c:\\Charlie\\charlie\\stimuli\\visual\\stroop\\50-Incongruent.png'
g22
g22
I2340
tp118
a(g18
g19
g28
I88
g31
S'c:\\Charlie\\charlie\\stimuli\\visual\\stroop\\41-Congruent.png'
g24
g24
I8950
tp119
a(g18
g19
g28
I89
g31
S'c:\\Charlie\\charlie\\stimuli\\visual\\stroop\\25-Congruent.png'
g22
g22
I820
tp120
a(g18
g19
g28
I90
g31
S'c:\\Charlie\\charlie\\stimuli\\visual\\stroop\\27-Congruent.png'
g22
g22
I970
tp121
a(g18
g19
g28
I91
g29
S'c:\\Charlie\\charlie\\stimuli\\visual\\stroop\\18-Incongruent.png'
g24
g24
I1490
tp122
a(g18
g19
g28
I92
g29
S'c:\\Charlie\\charlie\\stimuli\\visual\\stroop\\30-Incongruent.png'
g22
g22
I1160
tp123
a(g18
g19
g28
I93
g31
S'c:\\Charlie\\charlie\\stimuli\\visual\\stroop\\44-Congruent.png'
g24
g24
I751
tp124
a(g18
g19
g28
I94
g31
S'c:\\Charlie\\charlie\\stimuli\\visual\\stroop\\37-Congruent.png'
g24
g24
I700
tp125
a(g18
g19
g28
I95
g29
S'c:\\Charlie\\charlie\\stimuli\\visual\\stroop\\11-Incongruent.png'
g24
g24
I950
tp126
a(g18
g19
g28
I96
g29
S'c:\\Charlie\\charlie\\stimuli\\visual\\stroop\\29-Incongruent.png'
g22
g22
I760
tp127
a(g18
g19
g28
I97
g29
S'c:\\Charlie\\charlie\\stimuli\\visual\\stroop\\3-Incongruent.png'
g24
g24
I820
tp128
a(g18
g19
g28
I98
g31
S'c:\\Charlie\\charlie\\stimuli\\visual\\stroop\\1-Congruent.png'
g22
g22
I680
tp129
a(g18
g19
g28
I99
g29
S'c:\\Charlie\\charlie\\stimuli\\visual\\stroop\\52-Incongruent.png'
g22
g22
I910
tp130
a(g18
g19
g28
I100
g29
S'c:\\Charlie\\charlie\\stimuli\\visual\\stroop\\14-Incongruent.png'
g24
g24
I770
tp131
a(g18
g19
g28
I101
g31
S'c:\\Charlie\\charlie\\stimuli\\visual\\stroop\\47-Congruent.png'
g24
g22
I970
tp132
a(g18
g19
g28
I102
g29
S'c:\\Charlie\\charlie\\stimuli\\visual\\stroop\\19-Incongruent.png'
g24
g24
I910
tp133
a(g18
g19
g28
I103
g31
S'c:\\Charlie\\charlie\\stimuli\\visual\\stroop\\11-Congruent.png'
g22
g22
I3370
tp134
a(g18
g19
g28
I104
g29
S'c:\\Charlie\\charlie\\stimuli\\visual\\stroop\\22-Incongruent.png'
g24
g24
I660
tp135
a(g18
g19
g28
I105
g31
S'c:\\Charlie\\charlie\\stimuli\\visual\\stroop\\7-Congruent.png'
g22
g22
I720
tp136
a(g18
g19
g28
I106
g31
S'c:\\Charlie\\charlie\\stimuli\\visual\\stroop\\53-Congruent.png'
g24
g24
I1040
tp137
a(g18
g19
g28
I107
g31
S'c:\\Charlie\\charlie\\stimuli\\visual\\stroop\\32-Congruent.png'
g24
g24
I790
tp138
a(g18
g19
g28
I108
g29
S'c:\\Charlie\\charlie\\stimuli\\visual\\stroop\\45-Incongruent.png'
g22
g22
I790
tp139
a(g18
g19
g28
I109
g31
S'c:\\Charlie\\charlie\\stimuli\\visual\\stroop\\36-Congruent.png'
g24
g24
I730
tp140
a(g18
g19
g28
I110
g29
S'c:\\Charlie\\charlie\\stimuli\\visual\\stroop\\51-Incongruent.png'
g22
g22
I850
tp141
a(g18
g19
g28
I111
g31
S'c:\\Charlie\\charlie\\stimuli\\visual\\stroop\\18-Congruent.png'
p142
g22
g22
I2650
tp143
asS'output_format'
p144
(lp145
(S'proband_id'
p146
c__builtin__
str
p147
tp148
a(S'test_name'
p149
g147
tp150
a(S'phase'
p151
g147
tp152
a(S'trialn'
p153
c__builtin__
int
p154
tp155
a(S'cong'
p156
g147
tp157
a(S'f'
g147
tp158
a(S'ans'
p159
g147
tp160
a(S'rsp'
p161
g147
tp162
a(S'rt'
p163
g154
tp164
asg146
g18
sS'filename'
p165
S'4387_stroop.data'
p166
sS'initialised'
p167
g8
(S'\x07\xdf\x05\x12\n\n\x1c\x06d\xb8'
tRp168
sS'last_udated'
p169
g8
(S'\x07\xdf\x05\x12\n\n\x1c\x06d\xb8'
tRp170
sg149
S'stroop'
p171
sS'directory'
p172
S'c:\\Charlie\\charlie\\data\\raw'
p173
sS'user_id'
p174
S'sbuccheri'
p175
sS'test_started'
p176
I01
sS'abs_filename'
p177
S'c:\\Charlie\\charlie\\data\\raw\\4387_stroop.data'
p178
sS'date_started'
p179
g8
(S'\x07\xdf\x05\x12\n\n:\x04E\xc0'
tRp180
sS'log'
p181
(lp182
(S'2015-05-18 10:10:28.419000'
S'instance created'
p183
tp184
a(S'2015-05-18 10:10:58.295000'
S'instance updated'
p185
tp186
a(S'2015-05-18 10:10:58.304000'
S'pandas DataFrame of data created'
p187
tp188
a(S'2015-05-18 10:10:58.312000'
S'data saved as csv to c:\\Charlie\\charlie\\data\\csv\\4387_stroop.csv'
tp189
a(S'2015-05-18 10:11:00.851000'
g185
tp190
a(S'2015-05-18 10:11:00.861000'
g187
tp191
a(S'2015-05-18 10:11:00.865000'
S'data saved as csv to c:\\Charlie\\charlie\\data\\csv\\4387_stroop.csv'
tp192
a(S'2015-05-18 10:11:03.373000'
g185
tp193
a(S'2015-05-18 10:11:03.383000'
g187
tp194
a(S'2015-05-18 10:11:03.387000'
S'data saved as csv to c:\\Charlie\\charlie\\data\\csv\\4387_stroop.csv'
tp195
a(S'2015-05-18 10:11:06.186000'
g185
tp196
a(S'2015-05-18 10:11:06.195000'
g187
tp197
a(S'2015-05-18 10:11:06.199000'
S'data saved as csv to c:\\Charlie\\charlie\\data\\csv\\4387_stroop.csv'
tp198
a(S'2015-05-18 10:11:33.631000'
g185
tp199
a(S'2015-05-18 10:11:33.641000'
g187
tp200
a(S'2015-05-18 10:11:33.645000'
S'data saved as csv to c:\\Charlie\\charlie\\data\\csv\\4387_stroop.csv'
tp201
a(S'2015-05-18 10:11:34.926000'
g185
tp202
a(S'2015-05-18 10:11:34.935000'
g187
tp203
a(S'2015-05-18 10:11:34.939000'
S'data saved as csv to c:\\Charlie\\charlie\\data\\csv\\4387_stroop.csv'
tp204
a(S'2015-05-18 10:11:37.640000'
g185
tp205
a(S'2015-05-18 10:11:37.650000'
g187
tp206
a(S'2015-05-18 10:11:37.653000'
S'data saved as csv to c:\\Charlie\\charlie\\data\\csv\\4387_stroop.csv'
tp207
a(S'2015-05-18 10:11:38.702000'
g185
tp208
a(S'2015-05-18 10:11:38.711000'
g187
tp209
a(S'2015-05-18 10:11:38.715000'
S'data saved as csv to c:\\Charlie\\charlie\\data\\csv\\4387_stroop.csv'
tp210
a(S'2015-05-18 10:11:43.586000'
g185
tp211
a(S'2015-05-18 10:11:43.596000'
g187
tp212
a(S'2015-05-18 10:11:43.599000'
S'data saved as csv to c:\\Charlie\\charlie\\data\\csv\\4387_stroop.csv'
tp213
a(S'2015-05-18 10:11:44.550000'
g185
tp214
a(S'2015-05-18 10:11:44.559000'
g187
tp215
a(S'2015-05-18 10:11:44.563000'
S'data saved as csv to c:\\Charlie\\charlie\\data\\csv\\4387_stroop.csv'
tp216
a(S'2015-05-18 10:11:47.526000'
g185
tp217
a(S'2015-05-18 10:11:47.535000'
g187
tp218
a(S'2015-05-18 10:11:47.539000'
S'data saved as csv to c:\\Charlie\\charlie\\data\\csv\\4387_stroop.csv'
tp219
a(S'2015-05-18 10:11:48.700000'
g185
tp220
a(S'2015-05-18 10:11:48.709000'
g187
tp221
a(S'2015-05-18 10:11:48.713000'
S'data saved as csv to c:\\Charlie\\charlie\\data\\csv\\4387_stroop.csv'
tp222
a(S'2015-05-18 10:11:49.754000'
g185
tp223
a(S'2015-05-18 10:11:49.764000'
g187
tp224
a(S'2015-05-18 10:11:49.768000'
S'data saved as csv to c:\\Charlie\\charlie\\data\\csv\\4387_stroop.csv'
tp225
a(S'2015-05-18 10:11:51.547000'
g185
tp226
a(S'2015-05-18 10:11:51.557000'
g187
tp227
a(S'2015-05-18 10:11:51.561000'
S'data saved as csv to c:\\Charlie\\charlie\\data\\csv\\4387_stroop.csv'
tp228
a(S'2015-05-18 10:11:52.602000'
g185
tp229
a(S'2015-05-18 10:11:52.611000'
g187
tp230
a(S'2015-05-18 10:11:52.615000'
S'data saved as csv to c:\\Charlie\\charlie\\data\\csv\\4387_stroop.csv'
tp231
a(S'2015-05-18 10:11:53.726000'
g185
tp232
a(S'2015-05-18 10:11:53.736000'
g187
tp233
a(S'2015-05-18 10:11:53.740000'
S'data saved as csv to c:\\Charlie\\charlie\\data\\csv\\4387_stroop.csv'
tp234
a(S'2015-05-18 10:11:54.781000'
g185
tp235
a(S'2015-05-18 10:11:54.791000'
g187
tp236
a(S'2015-05-18 10:11:54.795000'
S'data saved as csv to c:\\Charlie\\charlie\\data\\csv\\4387_stroop.csv'
tp237
a(S'2015-05-18 10:11:55.987000'
g185
tp238
a(S'2015-05-18 10:11:55.997000'
g187
tp239
a(S'2015-05-18 10:11:56.001000'
S'data saved as csv to c:\\Charlie\\charlie\\data\\csv\\4387_stroop.csv'
tp240
a(S'2015-05-18 10:11:57.011000'
g185
tp241
a(S'2015-05-18 10:11:57.021000'
g187
tp242
a(S'2015-05-18 10:11:57.025000'
S'data saved as csv to c:\\Charlie\\charlie\\data\\csv\\4387_stroop.csv'
tp243
a(S'2015-05-18 10:11:58.017000'
g185
tp244
a(S'2015-05-18 10:11:58.026000'
g187
tp245
a(S'2015-05-18 10:11:58.030000'
S'data saved as csv to c:\\Charlie\\charlie\\data\\csv\\4387_stroop.csv'
tp246
a(S'2015-05-18 10:11:59.201000'
g185
tp247
a(S'2015-05-18 10:11:59.210000'
g187
tp248
a(S'2015-05-18 10:11:59.214000'
S'data saved as csv to c:\\Charlie\\charlie\\data\\csv\\4387_stroop.csv'
tp249
a(S'2015-05-18 10:12:00.416000'
g185
tp250
a(S'2015-05-18 10:12:00.426000'
g187
tp251
a(S'2015-05-18 10:12:00.430000'
S'data saved as csv to c:\\Charlie\\charlie\\data\\csv\\4387_stroop.csv'
tp252
a(S'2015-05-18 10:12:01.611000'
g185
tp253
a(S'2015-05-18 10:12:01.620000'
g187
tp254
a(S'2015-05-18 10:12:01.623000'
S'data saved as csv to c:\\Charlie\\charlie\\data\\csv\\4387_stroop.csv'
tp255
a(S'2015-05-18 10:12:05.112000'
g185
tp256
a(S'2015-05-18 10:12:05.122000'
g187
tp257
a(S'2015-05-18 10:12:05.126000'
S'data saved as csv to c:\\Charlie\\charlie\\data\\csv\\4387_stroop.csv'
tp258
a(S'2015-05-18 10:12:07.928000'
g185
tp259
a(S'2015-05-18 10:12:07.938000'
g187
tp260
a(S'2015-05-18 10:12:07.942000'
S'data saved as csv to c:\\Charlie\\charlie\\data\\csv\\4387_stroop.csv'
tp261
a(S'2015-05-18 10:12:10.384000'
g185
tp262
a(S'2015-05-18 10:12:10.393000'
g187
tp263
a(S'2015-05-18 10:12:10.397000'
S'data saved as csv to c:\\Charlie\\charlie\\data\\csv\\4387_stroop.csv'
tp264
a(S'2015-05-18 10:12:14.796000'
g185
tp265
a(S'2015-05-18 10:12:14.803000'
g187
tp266
a(S'2015-05-18 10:12:14.805000'
S'data saved as csv to c:\\Charlie\\charlie\\data\\csv\\4387_stroop.csv'
tp267
a(S'2015-05-18 10:12:17.116000'
g185
tp268
a(S'2015-05-18 10:12:17.126000'
g187
tp269
a(S'2015-05-18 10:12:17.130000'
S'data saved as csv to c:\\Charlie\\charlie\\data\\csv\\4387_stroop.csv'
tp270
a(S'2015-05-18 10:12:20.530000'
g185
tp271
a(S'2015-05-18 10:12:20.540000'
g187
tp272
a(S'2015-05-18 10:12:20.544000'
S'data saved as csv to c:\\Charlie\\charlie\\data\\csv\\4387_stroop.csv'
tp273
a(S'2015-05-18 10:12:21.906000'
g185
tp274
a(S'2015-05-18 10:12:21.917000'
g187
tp275
a(S'2015-05-18 10:12:21.921000'
S'data saved as csv to c:\\Charlie\\charlie\\data\\csv\\4387_stroop.csv'
tp276
a(S'2015-05-18 10:12:22.962000'
g185
tp277
a(S'2015-05-18 10:12:22.972000'
g187
tp278
a(S'2015-05-18 10:12:22.976000'
S'data saved as csv to c:\\Charlie\\charlie\\data\\csv\\4387_stroop.csv'
tp279
a(S'2015-05-18 10:12:24.140000'
g185
tp280
a(S'2015-05-18 10:12:24.143000'
g187
tp281
a(S'2015-05-18 10:12:24.145000'
S'data saved as csv to c:\\Charlie\\charlie\\data\\csv\\4387_stroop.csv'
tp282
a(S'2015-05-18 10:12:25.193000'
g185
tp283
a(S'2015-05-18 10:12:25.202000'
g187
tp284
a(S'2015-05-18 10:12:25.204000'
S'data saved as csv to c:\\Charlie\\charlie\\data\\csv\\4387_stroop.csv'
tp285
a(S'2015-05-18 10:12:26.233000'
g185
tp286
a(S'2015-05-18 10:12:26.242000'
g187
tp287
a(S'2015-05-18 10:12:26.247000'
S'data saved as csv to c:\\Charlie\\charlie\\data\\csv\\4387_stroop.csv'
tp288
a(S'2015-05-18 10:12:27.308000'
g185
tp289
a(S'2015-05-18 10:12:27.318000'
g187
tp290
a(S'2015-05-18 10:12:27.322000'
S'data saved as csv to c:\\Charlie\\charlie\\data\\csv\\4387_stroop.csv'
tp291
a(S'2015-05-18 10:12:28.244000'
g185
tp292
a(S'2015-05-18 10:12:28.254000'
g187
tp293
a(S'2015-05-18 10:12:28.258000'
S'data saved as csv to c:\\Charlie\\charlie\\data\\csv\\4387_stroop.csv'
tp294
a(S'2015-05-18 10:12:29.528000'
g185
tp295
a(S'2015-05-18 10:12:29.539000'
g187
tp296
a(S'2015-05-18 10:12:29.543000'
S'data saved as csv to c:\\Charlie\\charlie\\data\\csv\\4387_stroop.csv'
tp297
a(S'2015-05-18 10:12:30.544000'
g185
tp298
a(S'2015-05-18 10:12:30.555000'
g187
tp299
a(S'2015-05-18 10:12:30.559000'
S'data saved as csv to c:\\Charlie\\charlie\\data\\csv\\4387_stroop.csv'
tp300
a(S'2015-05-18 10:12:33.791000'
g185
tp301
a(S'2015-05-18 10:12:33.801000'
g187
tp302
a(S'2015-05-18 10:12:33.806000'
S'data saved as csv to c:\\Charlie\\charlie\\data\\csv\\4387_stroop.csv'
tp303
a(S'2015-05-18 10:12:35.207000'
g185
tp304
a(S'2015-05-18 10:12:35.217000'
g187
tp305
a(S'2015-05-18 10:12:35.220000'
S'data saved as csv to c:\\Charlie\\charlie\\data\\csv\\4387_stroop.csv'
tp306
a(S'2015-05-18 10:12:36.859000'
g185
tp307
a(S'2015-05-18 10:12:36.869000'
g187
tp308
a(S'2015-05-18 10:12:36.871000'
S'data saved as csv to c:\\Charlie\\charlie\\data\\csv\\4387_stroop.csv'
tp309
a(S'2015-05-18 10:12:38.640000'
g185
tp310
a(S'2015-05-18 10:12:38.650000'
g187
tp311
a(S'2015-05-18 10:12:38.654000'
S'data saved as csv to c:\\Charlie\\charlie\\data\\csv\\4387_stroop.csv'
tp312
a(S'2015-05-18 10:12:40.056000'
g185
tp313
a(S'2015-05-18 10:12:40.066000'
g187
tp314
a(S'2015-05-18 10:12:40.071000'
S'data saved as csv to c:\\Charlie\\charlie\\data\\csv\\4387_stroop.csv'
tp315
a(S'2015-05-18 10:12:41.232000'
g185
tp316
a(S'2015-05-18 10:12:41.242000'
g187
tp317
a(S'2015-05-18 10:12:41.246000'
S'data saved as csv to c:\\Charlie\\charlie\\data\\csv\\4387_stroop.csv'
tp318
a(S'2015-05-18 10:12:42.276000'
g185
tp319
a(S'2015-05-18 10:12:42.286000'
g187
tp320
a(S'2015-05-18 10:12:42.291000'
S'data saved as csv to c:\\Charlie\\charlie\\data\\csv\\4387_stroop.csv'
tp321
a(S'2015-05-18 10:12:43.312000'
g185
tp322
a(S'2015-05-18 10:12:43.322000'
g187
tp323
a(S'2015-05-18 10:12:43.327000'
S'data saved as csv to c:\\Charlie\\charlie\\data\\csv\\4387_stroop.csv'
tp324
a(S'2015-05-18 10:12:44.998000'
g185
tp325
a(S'2015-05-18 10:12:45.008000'
g187
tp326
a(S'2015-05-18 10:12:45.013000'
S'data saved as csv to c:\\Charlie\\charlie\\data\\csv\\4387_stroop.csv'
tp327
a(S'2015-05-18 10:12:46.565000'
g185
tp328
a(S'2015-05-18 10:12:46.575000'
g187
tp329
a(S'2015-05-18 10:12:46.580000'
S'data saved as csv to c:\\Charlie\\charlie\\data\\csv\\4387_stroop.csv'
tp330
a(S'2015-05-18 10:12:47.611000'
g185
tp331
a(S'2015-05-18 10:12:47.621000'
g187
tp332
a(S'2015-05-18 10:12:47.626000'
S'data saved as csv to c:\\Charlie\\charlie\\data\\csv\\4387_stroop.csv'
tp333
a(S'2015-05-18 10:12:48.638000'
g185
tp334
a(S'2015-05-18 10:12:48.648000'
g187
tp335
a(S'2015-05-18 10:12:48.652000'
S'data saved as csv to c:\\Charlie\\charlie\\data\\csv\\4387_stroop.csv'
tp336
a(S'2015-05-18 10:12:53.106000'
g185
tp337
a(S'2015-05-18 10:12:53.116000'
g187
tp338
a(S'2015-05-18 10:12:53.120000'
S'data saved as csv to c:\\Charlie\\charlie\\data\\csv\\4387_stroop.csv'
tp339
a(S'2015-05-18 10:12:54.562000'
g185
tp340
a(S'2015-05-18 10:12:54.573000'
g187
tp341
a(S'2015-05-18 10:12:54.577000'
S'data saved as csv to c:\\Charlie\\charlie\\data\\csv\\4387_stroop.csv'
tp342
a(S'2015-05-18 10:12:55.990000'
g185
tp343
a(S'2015-05-18 10:12:56'
g187
tp344
a(S'2015-05-18 10:12:56.004000'
S'data saved as csv to c:\\Charlie\\charlie\\data\\csv\\4387_stroop.csv'
tp345
a(S'2015-05-18 10:12:57.935000'
g185
tp346
a(S'2015-05-18 10:12:57.946000'
g187
tp347
a(S'2015-05-18 10:12:57.950000'
S'data saved as csv to c:\\Charlie\\charlie\\data\\csv\\4387_stroop.csv'
tp348
a(S'2015-05-18 10:13:01.913000'
g185
tp349
a(S'2015-05-18 10:13:01.924000'
g187
tp350
a(S'2015-05-18 10:13:01.928000'
S'data saved as csv to c:\\Charlie\\charlie\\data\\csv\\4387_stroop.csv'
tp351
a(S'2015-05-18 10:13:03.711000'
g185
tp352
a(S'2015-05-18 10:13:03.720000'
g187
tp353
a(S'2015-05-18 10:13:03.722000'
S'data saved as csv to c:\\Charlie\\charlie\\data\\csv\\4387_stroop.csv'
tp354
a(S'2015-05-18 10:13:05.372000'
g185
tp355
a(S'2015-05-18 10:13:05.382000'
g187
tp356
a(S'2015-05-18 10:13:05.387000'
S'data saved as csv to c:\\Charlie\\charlie\\data\\csv\\4387_stroop.csv'
tp357
a(S'2015-05-18 10:13:06.559000'
g185
tp358
a(S'2015-05-18 10:13:06.568000'
g187
tp359
a(S'2015-05-18 10:13:06.571000'
S'data saved as csv to c:\\Charlie\\charlie\\data\\csv\\4387_stroop.csv'
tp360
a(S'2015-05-18 10:13:08.230000'
g185
tp361
a(S'2015-05-18 10:13:08.241000'
g187
tp362
a(S'2015-05-18 10:13:08.245000'
S'data saved as csv to c:\\Charlie\\charlie\\data\\csv\\4387_stroop.csv'
tp363
a(S'2015-05-18 10:13:09.336000'
g185
tp364
a(S'2015-05-18 10:13:09.347000'
g187
tp365
a(S'2015-05-18 10:13:09.351000'
S'data saved as csv to c:\\Charlie\\charlie\\data\\csv\\4387_stroop.csv'
tp366
a(S'2015-05-18 10:13:10.584000'
g185
tp367
a(S'2015-05-18 10:13:10.594000'
g187
tp368
a(S'2015-05-18 10:13:10.599000'
S'data saved as csv to c:\\Charlie\\charlie\\data\\csv\\4387_stroop.csv'
tp369
a(S'2015-05-18 10:13:12.121000'
g185
tp370
a(S'2015-05-18 10:13:12.131000'
g187
tp371
a(S'2015-05-18 10:13:12.136000'
S'data saved as csv to c:\\Charlie\\charlie\\data\\csv\\4387_stroop.csv'
tp372
a(S'2015-05-18 10:13:13.518000'
g185
tp373
a(S'2015-05-18 10:13:13.528000'
g187
tp374
a(S'2015-05-18 10:13:13.530000'
S'data saved as csv to c:\\Charlie\\charlie\\data\\csv\\4387_stroop.csv'
tp375
a(S'2015-05-18 10:13:14.854000'
g185
tp376
a(S'2015-05-18 10:13:14.857000'
g187
tp377
a(S'2015-05-18 10:13:14.858000'
S'data saved as csv to c:\\Charlie\\charlie\\data\\csv\\4387_stroop.csv'
tp378
a(S'2015-05-18 10:13:18.038000'
g185
tp379
a(S'2015-05-18 10:13:18.048000'
g187
tp380
a(S'2015-05-18 10:13:18.053000'
S'data saved as csv to c:\\Charlie\\charlie\\data\\csv\\4387_stroop.csv'
tp381
a(S'2015-05-18 10:13:18.974000'
g185
tp382
a(S'2015-05-18 10:13:18.985000'
g187
tp383
a(S'2015-05-18 10:13:18.988000'
S'data saved as csv to c:\\Charlie\\charlie\\data\\csv\\4387_stroop.csv'
tp384
a(S'2015-05-18 10:13:20.438000'
g185
tp385
a(S'2015-05-18 10:13:20.449000'
g187
tp386
a(S'2015-05-18 10:13:20.453000'
S'data saved as csv to c:\\Charlie\\charlie\\data\\csv\\4387_stroop.csv'
tp387
a(S'2015-05-18 10:13:21.895000'
g185
tp388
a(S'2015-05-18 10:13:21.906000'
g187
tp389
a(S'2015-05-18 10:13:21.910000'
S'data saved as csv to c:\\Charlie\\charlie\\data\\csv\\4387_stroop.csv'
tp390
a(S'2015-05-18 10:13:23.263000'
g185
tp391
a(S'2015-05-18 10:13:23.274000'
g187
tp392
a(S'2015-05-18 10:13:23.277000'
S'data saved as csv to c:\\Charlie\\charlie\\data\\csv\\4387_stroop.csv'
tp393
a(S'2015-05-18 10:13:25.127000'
g185
tp394
a(S'2015-05-18 10:13:25.137000'
g187
tp395
a(S'2015-05-18 10:13:25.139000'
S'data saved as csv to c:\\Charlie\\charlie\\data\\csv\\4387_stroop.csv'
tp396
a(S'2015-05-18 10:13:26.430000'
g185
tp397
a(S'2015-05-18 10:13:26.441000'
g187
tp398
a(S'2015-05-18 10:13:26.445000'
S'data saved as csv to c:\\Charlie\\charlie\\data\\csv\\4387_stroop.csv'
tp399
a(S'2015-05-18 10:13:28.318000'
g185
tp400
a(S'2015-05-18 10:13:28.329000'
g187
tp401
a(S'2015-05-18 10:13:28.333000'
S'data saved as csv to c:\\Charlie\\charlie\\data\\csv\\4387_stroop.csv'
tp402
a(S'2015-05-18 10:13:29.376000'
g185
tp403
a(S'2015-05-18 10:13:29.387000'
g187
tp404
a(S'2015-05-18 10:13:29.392000'
S'data saved as csv to c:\\Charlie\\charlie\\data\\csv\\4387_stroop.csv'
tp405
a(S'2015-05-18 10:13:30.403000'
g185
tp406
a(S'2015-05-18 10:13:30.414000'
g187
tp407
a(S'2015-05-18 10:13:30.417000'
S'data saved as csv to c:\\Charlie\\charlie\\data\\csv\\4387_stroop.csv'
tp408
a(S'2015-05-18 10:13:32.197000'
g185
tp409
a(S'2015-05-18 10:13:32.208000'
g187
tp410
a(S'2015-05-18 10:13:32.213000'
S'data saved as csv to c:\\Charlie\\charlie\\data\\csv\\4387_stroop.csv'
tp411
a(S'2015-05-18 10:13:34.355000'
g185
tp412
a(S'2015-05-18 10:13:34.366000'
g187
tp413
a(S'2015-05-18 10:13:34.371000'
S'data saved as csv to c:\\Charlie\\charlie\\data\\csv\\4387_stroop.csv'
tp414
a(S'2015-05-18 10:13:36.064000'
g185
tp415
a(S'2015-05-18 10:13:36.074000'
g187
tp416
a(S'2015-05-18 10:13:36.079000'
S'data saved as csv to c:\\Charlie\\charlie\\data\\csv\\4387_stroop.csv'
tp417
a(S'2015-05-18 10:13:37.532000'
g185
tp418
a(S'2015-05-18 10:13:37.543000'
g187
tp419
a(S'2015-05-18 10:13:37.548000'
S'data saved as csv to c:\\Charlie\\charlie\\data\\csv\\4387_stroop.csv'
tp420
a(S'2015-05-18 10:13:42.192000'
g185
tp421
a(S'2015-05-18 10:13:42.202000'
g187
tp422
a(S'2015-05-18 10:13:42.206000'
S'data saved as csv to c:\\Charlie\\charlie\\data\\csv\\4387_stroop.csv'
tp423
a(S'2015-05-18 10:13:43.706000'
g185
tp424
a(S'2015-05-18 10:13:43.717000'
g187
tp425
a(S'2015-05-18 10:13:43.722000'
S'data saved as csv to c:\\Charlie\\charlie\\data\\csv\\4387_stroop.csv'
tp426
a(S'2015-05-18 10:13:45.746000'
g185
tp427
a(S'2015-05-18 10:13:45.756000'
g187
tp428
a(S'2015-05-18 10:13:45.761000'
S'data saved as csv to c:\\Charlie\\charlie\\data\\csv\\4387_stroop.csv'
tp429
a(S'2015-05-18 10:13:47.414000'
g185
tp430
a(S'2015-05-18 10:13:47.425000'
g187
tp431
a(S'2015-05-18 10:13:47.428000'
S'data saved as csv to c:\\Charlie\\charlie\\data\\csv\\4387_stroop.csv'
tp432
a(S'2015-05-18 10:13:48.677000'
g185
tp433
a(S'2015-05-18 10:13:48.687000'
g187
tp434
a(S'2015-05-18 10:13:48.689000'
S'data saved as csv to c:\\Charlie\\charlie\\data\\csv\\4387_stroop.csv'
tp435
a(S'2015-05-18 10:13:51.661000'
g185
tp436
a(S'2015-05-18 10:13:51.672000'
g187
tp437
a(S'2015-05-18 10:13:51.677000'
S'data saved as csv to c:\\Charlie\\charlie\\data\\csv\\4387_stroop.csv'
tp438
a(S'2015-05-18 10:13:52.859000'
g185
tp439
a(S'2015-05-18 10:13:52.870000'
g187
tp440
a(S'2015-05-18 10:13:52.875000'
S'data saved as csv to c:\\Charlie\\charlie\\data\\csv\\4387_stroop.csv'
tp441
a(S'2015-05-18 10:13:54.188000'
g185
tp442
a(S'2015-05-18 10:13:54.199000'
g187
tp443
a(S'2015-05-18 10:13:54.204000'
S'data saved as csv to c:\\Charlie\\charlie\\data\\csv\\4387_stroop.csv'
tp444
a(S'2015-05-18 10:13:55.205000'
g185
tp445
a(S'2015-05-18 10:13:55.216000'
g187
tp446
a(S'2015-05-18 10:13:55.221000'
S'data saved as csv to c:\\Charlie\\charlie\\data\\csv\\4387_stroop.csv'
tp447
a(S'2015-05-18 10:13:56.293000'
g185
tp448
a(S'2015-05-18 10:13:56.304000'
g187
tp449
a(S'2015-05-18 10:13:56.307000'
S'data saved as csv to c:\\Charlie\\charlie\\data\\csv\\4387_stroop.csv'
tp450
a(S'2015-05-18 10:14:01.929000'
g185
tp451
a(S'2015-05-18 10:14:01.940000'
g187
tp452
a(S'2015-05-18 10:14:01.945000'
S'data saved as csv to c:\\Charlie\\charlie\\data\\csv\\4387_stroop.csv'
tp453
a(S'2015-05-18 10:14:04.485000'
g185
tp454
a(S'2015-05-18 10:14:04.495000'
g187
tp455
a(S'2015-05-18 10:14:04.498000'
S'data saved as csv to c:\\Charlie\\charlie\\data\\csv\\4387_stroop.csv'
tp456
a(S'2015-05-18 10:14:05.568000'
g185
tp457
a(S'2015-05-18 10:14:05.579000'
g187
tp458
a(S'2015-05-18 10:14:05.584000'
S'data saved as csv to c:\\Charlie\\charlie\\data\\csv\\4387_stroop.csv'
tp459
a(S'2015-05-18 10:14:08.059000'
g185
tp460
a(S'2015-05-18 10:14:08.070000'
g187
tp461
a(S'2015-05-18 10:14:08.075000'
S'data saved as csv to c:\\Charlie\\charlie\\data\\csv\\4387_stroop.csv'
tp462
a(S'2015-05-18 10:14:17.158000'
g185
tp463
a(S'2015-05-18 10:14:17.169000'
g187
tp464
a(S'2015-05-18 10:14:17.174000'
S'data saved as csv to c:\\Charlie\\charlie\\data\\csv\\4387_stroop.csv'
tp465
a(S'2015-05-18 10:14:18.127000'
g185
tp466
a(S'2015-05-18 10:14:18.138000'
g187
tp467
a(S'2015-05-18 10:14:18.143000'
S'data saved as csv to c:\\Charlie\\charlie\\data\\csv\\4387_stroop.csv'
tp468
a(S'2015-05-18 10:14:19.243000'
g185
tp469
a(S'2015-05-18 10:14:19.254000'
g187
tp470
a(S'2015-05-18 10:14:19.257000'
S'data saved as csv to c:\\Charlie\\charlie\\data\\csv\\4387_stroop.csv'
tp471
a(S'2015-05-18 10:14:20.878000'
g185
tp472
a(S'2015-05-18 10:14:20.889000'
g187
tp473
a(S'2015-05-18 10:14:20.894000'
S'data saved as csv to c:\\Charlie\\charlie\\data\\csv\\4387_stroop.csv'
tp474
a(S'2015-05-18 10:14:22.188000'
g185
tp475
a(S'2015-05-18 10:14:22.196000'
g187
tp476
a(S'2015-05-18 10:14:22.199000'
S'data saved as csv to c:\\Charlie\\charlie\\data\\csv\\4387_stroop.csv'
tp477
a(S'2015-05-18 10:14:23.079000'
g185
tp478
a(S'2015-05-18 10:14:23.090000'
g187
tp479
a(S'2015-05-18 10:14:23.094000'
S'data saved as csv to c:\\Charlie\\charlie\\data\\csv\\4387_stroop.csv'
tp480
a(S'2015-05-18 10:14:23.924000'
g185
tp481
a(S'2015-05-18 10:14:23.934000'
g187
tp482
a(S'2015-05-18 10:14:23.937000'
S'data saved as csv to c:\\Charlie\\charlie\\data\\csv\\4387_stroop.csv'
tp483
a(S'2015-05-18 10:14:25.017000'
g185
tp484
a(S'2015-05-18 10:14:25.025000'
g187
tp485
a(S'2015-05-18 10:14:25.029000'
S'data saved as csv to c:\\Charlie\\charlie\\data\\csv\\4387_stroop.csv'
tp486
a(S'2015-05-18 10:14:25.921000'
g185
tp487
a(S'2015-05-18 10:14:25.932000'
g187
tp488
a(S'2015-05-18 10:14:25.937000'
S'data saved as csv to c:\\Charlie\\charlie\\data\\csv\\4387_stroop.csv'
tp489
a(S'2015-05-18 10:14:26.890000'
g185
tp490
a(S'2015-05-18 10:14:26.901000'
g187
tp491
a(S'2015-05-18 10:14:26.905000'
S'data saved as csv to c:\\Charlie\\charlie\\data\\csv\\4387_stroop.csv'
tp492
a(S'2015-05-18 10:14:27.716000'
g185
tp493
a(S'2015-05-18 10:14:27.726000'
g187
tp494
a(S'2015-05-18 10:14:27.731000'
S'data saved as csv to c:\\Charlie\\charlie\\data\\csv\\4387_stroop.csv'
tp495
a(S'2015-05-18 10:14:28.775000'
g185
tp496
a(S'2015-05-18 10:14:28.786000'
g187
tp497
a(S'2015-05-18 10:14:28.792000'
S'data saved as csv to c:\\Charlie\\charlie\\data\\csv\\4387_stroop.csv'
tp498
a(S'2015-05-18 10:14:29.693000'
g185
tp499
a(S'2015-05-18 10:14:29.703000'
g187
tp500
a(S'2015-05-18 10:14:29.708000'
S'data saved as csv to c:\\Charlie\\charlie\\data\\csv\\4387_stroop.csv'
tp501
a(S'2015-05-18 10:14:30.812000'
g185
tp502
a(S'2015-05-18 10:14:30.823000'
g187
tp503
a(S'2015-05-18 10:14:30.828000'
S'data saved as csv to c:\\Charlie\\charlie\\data\\csv\\4387_stroop.csv'
tp504
a(S'2015-05-18 10:14:31.871000'
g185
tp505
a(S'2015-05-18 10:14:31.882000'
g187
tp506
a(S'2015-05-18 10:14:31.885000'
S'data saved as csv to c:\\Charlie\\charlie\\data\\csv\\4387_stroop.csv'
tp507
a(S'2015-05-18 10:14:35.387000'
g185
tp508
a(S'2015-05-18 10:14:35.396000'
g187
tp509
a(S'2015-05-18 10:14:35.399000'
S'data saved as csv to c:\\Charlie\\charlie\\data\\csv\\4387_stroop.csv'
tp510
a(S'2015-05-18 10:14:36.190000'
g185
tp511
a(S'2015-05-18 10:14:36.201000'
g187
tp512
a(S'2015-05-18 10:14:36.205000'
S'data saved as csv to c:\\Charlie\\charlie\\data\\csv\\4387_stroop.csv'
tp513
a(S'2015-05-18 10:14:37.055000'
g185
tp514
a(S'2015-05-18 10:14:37.065000'
g187
tp515
a(S'2015-05-18 10:14:37.070000'
S'data saved as csv to c:\\Charlie\\charlie\\data\\csv\\4387_stroop.csv'
tp516
a(S'2015-05-18 10:14:38.242000'
g185
tp517
a(S'2015-05-18 10:14:38.253000'
g187
tp518
a(S'2015-05-18 10:14:38.259000'
S'data saved as csv to c:\\Charlie\\charlie\\data\\csv\\4387_stroop.csv'
tp519
a(S'2015-05-18 10:14:39.182000'
g185
tp520
a(S'2015-05-18 10:14:39.193000'
g187
tp521
a(S'2015-05-18 10:14:39.198000'
S'data saved as csv to c:\\Charlie\\charlie\\data\\csv\\4387_stroop.csv'
tp522
a(S'2015-05-18 10:14:40.121000'
g185
tp523
a(S'2015-05-18 10:14:40.132000'
g187
tp524
a(S'2015-05-18 10:14:40.135000'
S'data saved as csv to c:\\Charlie\\charlie\\data\\csv\\4387_stroop.csv'
tp525
a(S'2015-05-18 10:14:40.996000'
g185
tp526
a(S'2015-05-18 10:14:41.005000'
g187
tp527
a(S'2015-05-18 10:14:41.008000'
S'data saved as csv to c:\\Charlie\\charlie\\data\\csv\\4387_stroop.csv'
tp528
a(S'2015-05-18 10:14:41.989000'
g185
tp529
a(S'2015-05-18 10:14:42'
g187
tp530
a(S'2015-05-18 10:14:42.005000'
S'data saved as csv to c:\\Charlie\\charlie\\data\\csv\\4387_stroop.csv'
tp531
a(S'2015-05-18 10:14:44.790000'
g185
tp532
a(S'2015-05-18 10:14:44.802000'
g187
tp533
a(S'2015-05-18 10:14:44.807000'
S'data saved as csv to c:\\Charlie\\charlie\\data\\csv\\4387_stroop.csv'
tp534
asb.