(icharlie.tools.data
Data
p1
(dp2
S'lang'
p3
S'EN'
p4
sS'control'
p5
(lp6
sS'last_updated'
p7
cdatetime
datetime
p8
(S'\x07\xdf\x05\x0c\r\x1d%\x0bN\x88'
tRp9
sS'last_opened'
p10
g8
(S'\x07\xdf\x05\x0c\r\x19"\x00\xa0('
tRp11
sS'proj_id'
p12
S'connectivity'
p13
sS'date_done'
p14
NsS'test_done'
p15
I01
sS'data'
p16
(lp17
(S'4388'
p18
S'updating'
p19
S'prac'
p20
I0
I0
I4
I4
S'------------'
p21
S'4,4,4,4,4,4,4,4,4,4,4,4,4'
p22
I4
I6861
tp23
a(g18
g19
S'prac'
p24
I1
I1
I8
I12
S'-----------d'
p25
S'8,8,8,8,8,8,8,8,8,8,8,8,12'
p26
I12
I4030
tp27
a(g18
g19
S'prac'
p28
I2
I2
I9
I6
S'-----u-----r'
p29
S'9,9,9,9,9,9,5,5,5,5,5,5,6'
p30
I6
I2190
tp31
a(g18
g19
S'test'
p32
I0
I0
I13
I13
S'------------'
p33
S'13,13,13,13,13,13,13,13,13,13,13,13,13'
p34
I4
I4920
tp35
a(g18
g19
S'test'
p36
I1
I0
I15
I15
S'------------'
p37
S'15,15,15,15,15,15,15,15,15,15,15,15,15'
p38
I15
I1040
tp39
a(g18
g19
S'test'
p40
I2
I0
I13
I13
S'------------'
p41
S'13,13,13,13,13,13,13,13,13,13,13,13,13'
p42
I13
I1450
tp43
a(g18
g19
S'test'
p44
I3
I1
I3
I2
S'-----------l'
p45
S'3,3,3,3,3,3,3,3,3,3,3,3,2'
p46
I2
I950
tp47
a(g18
g19
S'test'
p48
I4
I1
I1
I2
S'-----------r'
p49
S'1,1,1,1,1,1,1,1,1,1,1,1,2'
p50
I2
I1150
tp51
a(g18
g19
S'test'
p52
I5
I1
I0
I4
S'-----------d'
p53
S'0,0,0,0,0,0,0,0,0,0,0,0,4'
p54
I4
I1260
tp55
a(g18
g19
S'test'
p56
I6
I2
I5
I2
S'-----u-----r'
p57
S'5,5,5,5,5,5,1,1,1,1,1,1,2'
p58
I6
I890
tp59
a(g18
g19
S'test'
p60
I7
I2
I13
I8
S'-----l-----u'
p61
S'13,13,13,13,13,13,12,12,12,12,12,12,8'
p62
I9
I1140
tp63
a(g18
g19
S'test'
p64
I8
I2
I7
I2
S'-----l-----u'
p65
S'7,7,7,7,7,7,6,6,6,6,6,6,2'
p66
I2
I940
tp67
a(g18
g19
S'test'
p68
I9
I3
I6
I15
S'---d---d---r'
p69
S'6,6,6,6,10,10,10,10,14,14,14,14,15'
p70
I15
I1650
tp71
a(g18
g19
S'test'
p72
I10
I3
I15
I11
S'---l---r---u'
p73
S'15,15,15,15,14,14,14,14,15,15,15,15,11'
p74
I10
I3160
tp75
a(g18
g19
S'test'
p76
I11
I3
I10
I6
S'---l---r---u'
p77
S'10,10,10,10,9,9,9,9,10,10,10,10,6'
p78
I7
I5991
tp79
a(g18
g19
S'test'
p80
I12
I4
I13
I15
S'--u--d--r--r'
p81
S'13,13,13,9,9,9,13,13,13,14,14,14,15'
p82
I10
I1240
tp83
a(g18
g19
S'test'
p84
I13
I4
I3
I6
S'--d--u--d--l'
p85
S'3,3,3,7,7,7,3,3,3,7,7,7,6'
p86
I5
I2320
tp87
a(g18
g19
S'test'
p88
I14
I4
I0
I5
S'--d--u--d--r'
p89
S'0,0,0,4,4,4,0,0,0,4,4,4,5'
p90
I6
I3281
tp91
asS'output_format'
p92
(lp93
(S'proband_id'
p94
c__builtin__
str
p95
tp96
a(S'test_name'
p97
g95
tp98
a(S'phase'
p99
g95
tp100
a(S'trialn'
p101
c__builtin__
int
p102
tp103
a(S'updates'
p104
g102
tp105
a(S'origin'
p106
g102
tp107
a(S'endpoint'
p108
g102
tp109
a(S'moves'
p110
g95
tp111
a(S'marginalpositions'
p112
g95
tp113
a(S'rsp'
p114
g102
tp115
a(S'rt'
p116
g102
tp117
asg94
g18
sS'filename'
p118
S'4388_updating.data'
p119
sS'initialised'
p120
g8
(S'\x07\xdf\x05\x0c\r\x19"\x00\xa0('
tRp121
sS'last_udated'
p122
g8
(S'\x07\xdf\x05\x0c\r\x19"\x00\xa0('
tRp123
sg97
S'updating'
p124
sS'directory'
p125
S'C:\\Users\\Jbarrett\\Charlie\\charlie\\data\\raw'
p126
sS'user_id'
p127
S'jbarrett'
p128
sS'test_started'
p129
I01
sS'abs_filename'
p130
S'C:\\Users\\Jbarrett\\Charlie\\charlie\\data\\raw\\4388_updating.data'
p131
sS'date_started'
p132
g8
(S'\x07\xdf\x05\x0c\r\x1a\x19\x0b\x94\xd8'
tRp133
sS'log'
p134
(lp135
(S'2015-05-12 13:25:34.041000'
S'instance created'
p136
tp137
a(S'2015-05-12 13:26:25.768000'
S'instance updated'
p138
tp139
a(S'2015-05-12 13:26:25.780000'
S'pandas DataFrame of data created'
p140
tp141
a(S'2015-05-12 13:26:25.785000'
S'data saved as csv to C:\\Users\\Jbarrett\\Charlie\\charlie\\data\\csv\\4388_updating.csv'
tp142
a(S'2015-05-12 13:26:25.797000'
g140
tp143
a(S'2015-05-12 13:26:39.575000'
g138
tp144
a(S'2015-05-12 13:26:39.587000'
g140
tp145
a(S'2015-05-12 13:26:39.591000'
S'data saved as csv to C:\\Users\\Jbarrett\\Charlie\\charlie\\data\\csv\\4388_updating.csv'
tp146
a(S'2015-05-12 13:26:39.602000'
g140
tp147
a(S'2015-05-12 13:26:51.546000'
g138
tp148
a(S'2015-05-12 13:26:51.558000'
g140
tp149
a(S'2015-05-12 13:26:51.562000'
S'data saved as csv to C:\\Users\\Jbarrett\\Charlie\\charlie\\data\\csv\\4388_updating.csv'
tp150
a(S'2015-05-12 13:26:51.572000'
g140
tp151
a(S'2015-05-12 13:27:06.968000'
g138
tp152
a(S'2015-05-12 13:27:06.980000'
g140
tp153
a(S'2015-05-12 13:27:06.984000'
S'data saved as csv to C:\\Users\\Jbarrett\\Charlie\\charlie\\data\\csv\\4388_updating.csv'
tp154
a(S'2015-05-12 13:27:06.992000'
g140
tp155
a(S'2015-05-12 13:27:16.878000'
g138
tp156
a(S'2015-05-12 13:27:16.889000'
g140
tp157
a(S'2015-05-12 13:27:16.892000'
S'data saved as csv to C:\\Users\\Jbarrett\\Charlie\\charlie\\data\\csv\\4388_updating.csv'
tp158
a(S'2015-05-12 13:27:16.898000'
g140
tp159
a(S'2015-05-12 13:27:27.199000'
g138
tp160
a(S'2015-05-12 13:27:27.210000'
g140
tp161
a(S'2015-05-12 13:27:27.213000'
S'data saved as csv to C:\\Users\\Jbarrett\\Charlie\\charlie\\data\\csv\\4388_updating.csv'
tp162
a(S'2015-05-12 13:27:27.221000'
g140
tp163
a(S'2015-05-12 13:27:37.025000'
g138
tp164
a(S'2015-05-12 13:27:37.037000'
g140
tp165
a(S'2015-05-12 13:27:37.041000'
S'data saved as csv to C:\\Users\\Jbarrett\\Charlie\\charlie\\data\\csv\\4388_updating.csv'
tp166
a(S'2015-05-12 13:27:37.050000'
g140
tp167
a(S'2015-05-12 13:27:47.046000'
g138
tp168
a(S'2015-05-12 13:27:47.058000'
g140
tp169
a(S'2015-05-12 13:27:47.062000'
S'data saved as csv to C:\\Users\\Jbarrett\\Charlie\\charlie\\data\\csv\\4388_updating.csv'
tp170
a(S'2015-05-12 13:27:47.070000'
g140
tp171
a(S'2015-05-12 13:27:57.180000'
g138
tp172
a(S'2015-05-12 13:27:57.192000'
g140
tp173
a(S'2015-05-12 13:27:57.196000'
S'data saved as csv to C:\\Users\\Jbarrett\\Charlie\\charlie\\data\\csv\\4388_updating.csv'
tp174
a(S'2015-05-12 13:27:57.208000'
g140
tp175
a(S'2015-05-12 13:28:06.949000'
g138
tp176
a(S'2015-05-12 13:28:06.961000'
g140
tp177
a(S'2015-05-12 13:28:06.965000'
S'data saved as csv to C:\\Users\\Jbarrett\\Charlie\\charlie\\data\\csv\\4388_updating.csv'
tp178
a(S'2015-05-12 13:28:06.977000'
g140
tp179
a(S'2015-05-12 13:28:16.971000'
g138
tp180
a(S'2015-05-12 13:28:16.984000'
g140
tp181
a(S'2015-05-12 13:28:16.988000'
S'data saved as csv to C:\\Users\\Jbarrett\\Charlie\\charlie\\data\\csv\\4388_updating.csv'
tp182
a(S'2015-05-12 13:28:17'
g140
tp183
a(S'2015-05-12 13:28:26.794000'
g138
tp184
a(S'2015-05-12 13:28:26.806000'
g140
tp185
a(S'2015-05-12 13:28:26.810000'
S'data saved as csv to C:\\Users\\Jbarrett\\Charlie\\charlie\\data\\csv\\4388_updating.csv'
tp186
a(S'2015-05-12 13:28:26.820000'
g140
tp187
a(S'2015-05-12 13:28:37.326000'
g138
tp188
a(S'2015-05-12 13:28:37.339000'
g140
tp189
a(S'2015-05-12 13:28:37.343000'
S'data saved as csv to C:\\Users\\Jbarrett\\Charlie\\charlie\\data\\csv\\4388_updating.csv'
tp190
a(S'2015-05-12 13:28:37.350000'
g140
tp191
a(S'2015-05-12 13:28:49.365000'
g138
tp192
a(S'2015-05-12 13:28:49.378000'
g140
tp193
a(S'2015-05-12 13:28:49.382000'
S'data saved as csv to C:\\Users\\Jbarrett\\Charlie\\charlie\\data\\csv\\4388_updating.csv'
tp194
a(S'2015-05-12 13:28:49.394000'
g140
tp195
a(S'2015-05-12 13:29:04.239000'
g138
tp196
a(S'2015-05-12 13:29:04.251000'
g140
tp197
a(S'2015-05-12 13:29:04.254000'
S'data saved as csv to C:\\Users\\Jbarrett\\Charlie\\charlie\\data\\csv\\4388_updating.csv'
tp198
a(S'2015-05-12 13:29:04.260000'
g140
tp199
a(S'2015-05-12 13:29:14.355000'
g138
tp200
a(S'2015-05-12 13:29:14.368000'
g140
tp201
a(S'2015-05-12 13:29:14.372000'
S'data saved as csv to C:\\Users\\Jbarrett\\Charlie\\charlie\\data\\csv\\4388_updating.csv'
tp202
a(S'2015-05-12 13:29:14.384000'
g140
tp203
a(S'2015-05-12 13:29:25.556000'
g138
tp204
a(S'2015-05-12 13:29:25.568000'
g140
tp205
a(S'2015-05-12 13:29:25.572000'
S'data saved as csv to C:\\Users\\Jbarrett\\Charlie\\charlie\\data\\csv\\4388_updating.csv'
tp206
a(S'2015-05-12 13:29:25.583000'
g140
tp207
a(S'2015-05-12 13:29:37.716000'
g138
tp208
a(S'2015-05-12 13:29:37.728000'
g140
tp209
a(S'2015-05-12 13:29:37.731000'
S'data saved as csv to C:\\Users\\Jbarrett\\Charlie\\charlie\\data\\csv\\4388_updating.csv'
tp210
a(S'2015-05-12 13:29:37.737000'
g140
tp211
asb.