(icharlie.tools.data
Data
p1
(dp2
S'lang'
p3
S'EN'
p4
sS'control'
p5
(lp6
sS'last_updated'
p7
cdatetime
datetime
p8
(S'\x07\xdf\x06\t\x0e\x08,\x08\xa6\xd8'
tRp9
sS'last_opened'
p10
g8
(S'\x07\xdf\x06\t\x0e\x04\x05\x0e~\xf0'
tRp11
sS'proj_id'
p12
S'connectivity'
p13
sS'date_done'
p14
NsS'test_done'
p15
I01
sS'data'
p16
(lp17
(S'4390'
p18
S'ctrails'
p19
S'number'
p20
S'practice'
p21
I0
I1
S'Correct'
p22
I2170
I10356
tp23
a(g18
g19
g20
g21
I1
I2
g22
I1220
I10356
tp24
a(g18
g19
g20
g21
I2
I3
g22
I1100
I10356
tp25
a(g18
g19
g20
g21
I3
I4
g22
I1010
I10356
tp26
a(g18
g19
g20
g21
I4
I5
g22
I1210
I10356
tp27
a(g18
g19
g20
g21
I5
I6
g22
I1330
I10356
tp28
a(g18
g19
g20
g21
I6
I7
g22
I1301
I10356
tp29
a(g18
g19
g20
g21
I7
I8
g22
I970
I10356
tp30
a(g18
g19
g20
S'test'
p31
I0
I1
g22
I2310
I43316
tp32
a(g18
g19
g20
g31
I1
I2
g22
I2791
I43316
tp33
a(g18
g19
g20
g31
I2
I3
g22
I2760
I43316
tp34
a(g18
g19
g20
g31
I3
I4
g22
I1690
I43316
tp35
a(g18
g19
g20
g31
I4
I5
g22
I1090
I43316
tp36
a(g18
g19
g20
g31
I5
I6
g22
I1070
I43316
tp37
a(g18
g19
g20
g31
I6
I7
g22
I1710
I43316
tp38
a(g18
g19
g20
g31
I7
I8
g22
I1010
I43316
tp39
a(g18
g19
g20
g31
I8
I9
g22
I1220
I43316
tp40
a(g18
g19
g20
g31
I9
I10
g22
I1110
I43316
tp41
a(g18
g19
g20
g31
I10
I11
g22
I1460
I43316
tp42
a(g18
g19
g20
g31
I11
I12
g22
I880
I43316
tp43
a(g18
g19
g20
g31
I12
I13
g22
I1520
I43316
tp44
a(g18
g19
g20
g31
I13
I14
g22
I3681
I43316
tp45
a(g18
g19
g20
g31
I14
I15
g22
I830
I43316
tp46
a(g18
g19
g20
g31
I15
I16
g22
I930
I43316
tp47
a(g18
g19
g20
g31
I16
I17
g22
I2830
I43316
tp48
a(g18
g19
g20
g31
I17
I18
g22
I3280
I43316
tp49
a(g18
g19
g20
g31
I18
I19
g22
I1150
I43316
tp50
a(g18
g19
g20
g31
I19
I20
g22
I1170
I43316
tp51
a(g18
g19
g20
g31
I20
I21
g22
I920
I43316
tp52
a(g18
g19
g20
g31
I21
I22
g22
I2330
I43316
tp53
a(g18
g19
g20
g31
I22
I23
g22
I3461
I43316
tp54
a(g18
g19
g20
g31
I23
I24
g22
I990
I43316
tp55
a(g18
g19
g20
g31
I24
I25
g22
I1010
I43316
tp56
a(g18
g19
S'letter'
p57
g21
I0
S'a'
g22
I1631
I10326
tp58
a(g18
g19
g57
g21
I1
S'b'
g22
I2201
I10326
tp59
a(g18
g19
g57
g21
I2
S'c'
g22
I850
I10326
tp60
a(g18
g19
g57
g21
I3
S'd'
g22
I1220
I10326
tp61
a(g18
g19
g57
g21
I4
S'e'
g22
I1160
I10326
tp62
a(g18
g19
g57
g21
I5
S'f'
g22
I930
I10326
tp63
a(g18
g19
g57
g21
I6
S'g'
g22
I1410
I10326
tp64
a(g18
g19
g57
g21
I7
S'h'
g22
I880
I10326
tp65
a(g18
g19
g57
g31
I0
S'a'
g22
I4011
I53363
tp66
a(g18
g19
g57
g31
I1
S'b'
g22
I2780
I53363
tp67
a(g18
g19
g57
g31
I2
S'c'
g22
I1650
I53363
tp68
a(g18
g19
g57
g31
I3
S'd'
g22
I3710
I53363
tp69
a(g18
g19
g57
g31
I4
S'e'
g22
I990
I53363
tp70
a(g18
g19
g57
g31
I5
S'f'
g22
I980
I53363
tp71
a(g18
g19
g57
g31
I6
S'g'
g22
I1060
I53363
tp72
a(g18
g19
g57
g31
I7
S'h'
g22
I2911
I53363
tp73
a(g18
g19
g57
g31
I8
S'i'
g22
I2530
I53363
tp74
a(g18
g19
g57
g31
I9
S'j'
g22
I990
I53363
tp75
a(g18
g19
g57
g31
I10
S'k'
g22
I2060
I53363
tp76
a(g18
g19
g57
g31
I11
S'l'
g22
I1420
I53363
tp77
a(g18
g19
g57
g31
I12
S'm'
g22
I900
I53363
tp78
a(g18
g19
g57
g31
I13
S'n'
g22
I2140
I53363
tp79
a(g18
g19
g57
g31
I14
S'o'
g22
I980
I53363
tp80
a(g18
g19
g57
g31
I15
S'p'
g22
I1200
I53363
tp81
a(g18
g19
g57
g31
I16
S'q'
g22
I1120
I53363
tp82
a(g18
g19
g57
g31
I17
S'r'
g22
I10731
I53363
tp83
a(g18
g19
g57
g31
I18
S's'
g22
I990
I53363
tp84
a(g18
g19
g57
g31
I19
S't'
g22
I1100
I53363
tp85
a(g18
g19
g57
g31
I20
S'u'
g22
I1340
I53363
tp86
a(g18
g19
g57
g31
I21
S'v'
g22
I850
I53363
tp87
a(g18
g19
g57
g31
I22
S'w'
g22
I1240
I53363
tp88
a(g18
g19
g57
g31
I23
S'x'
g22
I2340
I53363
tp89
a(g18
g19
g57
g31
I24
S'y'
g22
I3221
I53363
tp90
a(g18
g19
S'number-letter'
p91
g21
I0
I1
g22
I2870
I13936
tp92
a(g18
g19
g91
g21
I1
S'a'
g22
I1270
I13936
tp93
a(g18
g19
g91
g21
I2
I2
g22
I2040
I13936
tp94
a(g18
g19
g91
g21
I3
S'b'
g22
I1800
I13936
tp95
a(g18
g19
g91
g21
I4
I3
g22
I1150
I13936
tp96
a(g18
g19
g91
g21
I5
S'c'
g22
I1030
I13936
tp97
a(g18
g19
g91
g21
I6
I4
g22
I2490
I13936
tp98
a(g18
g19
g91
g21
I7
S'd'
g22
I1251
I13936
tp99
a(g18
g19
g91
g31
I0
I1
g22
I3310
I57310
tp100
a(g18
g19
g91
g31
I1
S'a'
g22
I960
I57310
tp101
a(g18
g19
g91
g31
I2
I2
g22
I4521
I57310
tp102
a(g18
g19
g91
g31
I3
S'b'
g22
I2000
I57310
tp103
a(g18
g19
g91
g31
I4
I3
g22
I2720
I57310
tp104
a(g18
g19
g91
g31
I5
S'c'
g22
I1940
I57310
tp105
a(g18
g19
g91
g31
I6
I4
g22
I2230
I57310
tp106
a(g18
g19
g91
g31
I7
S'd'
g22
I1660
I57310
tp107
a(g18
g19
g91
g31
I8
I5
g22
I2960
I57310
tp108
a(g18
g19
g91
g31
I9
S'e'
g22
I1720
I57310
tp109
a(g18
g19
g91
g31
I10
I6
g22
I3031
I57310
tp110
a(g18
g19
g91
g31
I11
S'f'
g22
I2070
I57310
tp111
a(g18
g19
g91
g31
I12
I7
g22
I1770
I57310
tp112
a(g18
g19
g91
g31
I13
S'g'
g22
I3360
I57310
tp113
a(g18
g19
g91
g31
I14
I8
g22
I3450
I57310
tp114
a(g18
g19
g91
g31
I15
S'h'
g22
I1220
I57310
tp115
a(g18
g19
g91
g31
I16
I9
g22
I2200
I57310
tp116
a(g18
g19
g91
g31
I17
S'i'
g22
I1971
I57310
tp117
a(g18
g19
g91
g31
I18
I10
g22
I1450
I57310
tp118
a(g18
g19
g91
g31
I19
S'j'
g22
I1560
I57310
tp119
a(g18
g19
g91
g31
I20
I11
g22
I1790
I57310
tp120
a(g18
g19
g91
g31
I21
S'k'
g22
I2820
I57310
tp121
a(g18
g19
g91
g31
I22
I12
g22
I3230
I57310
tp122
a(g18
g19
g91
g31
I23
S'l'
g22
I2130
I57310
tp123
a(g18
g19
g91
g31
I24
I13
g22
I1130
I57310
tp124
asS'output_format'
p125
(lp126
(S'proband_id'
p127
c__builtin__
str
p128
tp129
a(S'test_name'
p130
g128
tp131
a(S'phase'
p132
g128
tp133
a(S'trial_type'
p134
g128
tp135
a(S'n'
c__builtin__
int
p136
tp137
a(S'rsp'
p138
g128
tp139
a(S'corr'
p140
g128
tp141
a(S'rt'
p142
g136
tp143
a(S'total_time'
p144
g136
tp145
asg127
g18
sS'filename'
p146
S'4390_ctrails.data'
p147
sS'initialised'
p148
g8
(S'\x07\xdf\x06\t\x0e\x04\x05\x0e~\xf0'
tRp149
sS'last_udated'
p150
g8
(S'\x07\xdf\x06\t\x0e\x04\x05\x0e~\xf0'
tRp151
sg130
S'ctrails'
p152
sS'directory'
p153
S'C:\\Users\\Jbarrett\\Charlie\\charlie\\data\\raw'
p154
sS'user_id'
p155
S'oleach'
p156
sS'test_started'
p157
I01
sS'abs_filename'
p158
S'C:\\Users\\Jbarrett\\Charlie\\charlie\\data\\raw\\4390_ctrails.data'
p159
sS'date_started'
p160
g8
(S'\x07\xdf\x06\t\x0e\x04,\x00\x00\x00'
tRp161
sS'log'
p162
(lp163
(S'2015-06-09 14:04:05.950000'
S'instance created'
p164
tp165
a(S'2015-06-09 14:04:44.009000'
S'instance updated'
p166
tp167
a(S'2015-06-09 14:04:44.019000'
S'pandas DataFrame of data created'
p168
tp169
a(S'2015-06-09 14:04:44.023000'
S'data saved as csv to C:\\Users\\Jbarrett\\Charlie\\charlie\\data\\csv\\4390_ctrails.csv'
tp170
a(S'2015-06-09 14:05:39.618000'
g166
tp171
a(S'2015-06-09 14:05:39.627000'
g168
tp172
a(S'2015-06-09 14:05:39.631000'
S'data saved as csv to C:\\Users\\Jbarrett\\Charlie\\charlie\\data\\csv\\4390_ctrails.csv'
tp173
a(S'2015-06-09 14:06:00.546000'
g166
tp174
a(S'2015-06-09 14:06:00.557000'
g168
tp175
a(S'2015-06-09 14:06:00.561000'
S'data saved as csv to C:\\Users\\Jbarrett\\Charlie\\charlie\\data\\csv\\4390_ctrails.csv'
tp176
a(S'2015-06-09 14:07:03.781000'
g166
tp177
a(S'2015-06-09 14:07:03.789000'
g168
tp178
a(S'2015-06-09 14:07:03.792000'
S'data saved as csv to C:\\Users\\Jbarrett\\Charlie\\charlie\\data\\csv\\4390_ctrails.csv'
tp179
a(S'2015-06-09 14:07:38.798000'
g166
tp180
a(S'2015-06-09 14:07:38.803000'
g168
tp181
a(S'2015-06-09 14:07:38.805000'
S'data saved as csv to C:\\Users\\Jbarrett\\Charlie\\charlie\\data\\csv\\4390_ctrails.csv'
tp182
a(S'2015-06-09 14:08:44.555000'
g166
tp183
a(S'2015-06-09 14:08:44.561000'
g168
tp184
a(S'2015-06-09 14:08:44.564000'
S'data saved as csv to C:\\Users\\Jbarrett\\Charlie\\charlie\\data\\csv\\4390_ctrails.csv'
tp185
asb.