(icharlie.tools.data
Data
p1
(dp2
S'lang'
p3
S'EN'
p4
sS'control'
p5
(lp6
sS'last_updated'
p7
cdatetime
datetime
p8
(S'\x07\xdf\x05\x0e\r \x1c\x05\x8d\xe0'
tRp9
sS'last_opened'
p10
g8
(S'\x07\xdf\x05\x0e\r\x1b \rFp'
tRp11
sS'proj_id'
p12
S'connectivity'
p13
sS'date_done'
p14
NsS'test_done'
p15
I01
sS'data'
p16
(lp17
(S'4391'
p18
S'matrix_reasoning'
p19
S'practice'
p20
I0
S'c:\\Charlie\\charlie\\stimuli\\visual\\matrix_reasoning\\prac_MA.png'
S'c:\\Charlie\\charlie\\stimuli\\visual\\matrix_reasoning\\prac_MAa.png'
I1
I1
I2661
tp21
a(g18
g19
S'test'
p22
I0
S'c:\\Charlie\\charlie\\stimuli\\visual\\matrix_reasoning\\M001.png'
S'c:\\Charlie\\charlie\\stimuli\\visual\\matrix_reasoning\\M001a.png'
I1
I1
I1195
tp23
a(g18
g19
g22
I1
S'c:\\Charlie\\charlie\\stimuli\\visual\\matrix_reasoning\\M002.png'
S'c:\\Charlie\\charlie\\stimuli\\visual\\matrix_reasoning\\M002a.png'
I3
I3
I2205
tp24
a(g18
g19
g22
I2
S'c:\\Charlie\\charlie\\stimuli\\visual\\matrix_reasoning\\M003.png'
S'c:\\Charlie\\charlie\\stimuli\\visual\\matrix_reasoning\\M003a.png'
I1
I1
I2010
tp25
a(g18
g19
g22
I3
S'c:\\Charlie\\charlie\\stimuli\\visual\\matrix_reasoning\\M004.png'
S'c:\\Charlie\\charlie\\stimuli\\visual\\matrix_reasoning\\M004a.png'
I3
I3
I1837
tp26
a(g18
g19
g22
I4
S'c:\\Charlie\\charlie\\stimuli\\visual\\matrix_reasoning\\M005.png'
S'c:\\Charlie\\charlie\\stimuli\\visual\\matrix_reasoning\\M005a.png'
I2
I2
I2154
tp27
a(g18
g19
g22
I5
S'c:\\Charlie\\charlie\\stimuli\\visual\\matrix_reasoning\\M006.png'
S'c:\\Charlie\\charlie\\stimuli\\visual\\matrix_reasoning\\M006a.png'
I0
I0
I3185
tp28
a(g18
g19
g22
I6
S'c:\\Charlie\\charlie\\stimuli\\visual\\matrix_reasoning\\M007.png'
S'c:\\Charlie\\charlie\\stimuli\\visual\\matrix_reasoning\\M007a.png'
I0
I0
I2444
tp29
a(g18
g19
g22
I7
S'c:\\Charlie\\charlie\\stimuli\\visual\\matrix_reasoning\\M008.png'
S'c:\\Charlie\\charlie\\stimuli\\visual\\matrix_reasoning\\M008a.png'
I2
I2
I3052
tp30
a(g18
g19
g22
I8
S'c:\\Charlie\\charlie\\stimuli\\visual\\matrix_reasoning\\M009.png'
S'c:\\Charlie\\charlie\\stimuli\\visual\\matrix_reasoning\\M009a.png'
I4
I4
I3129
tp31
a(g18
g19
g22
I9
S'c:\\Charlie\\charlie\\stimuli\\visual\\matrix_reasoning\\M010.png'
S'c:\\Charlie\\charlie\\stimuli\\visual\\matrix_reasoning\\M010a.png'
I4
I3
I2493
tp32
a(g18
g19
g22
I10
S'c:\\Charlie\\charlie\\stimuli\\visual\\matrix_reasoning\\M011.png'
S'c:\\Charlie\\charlie\\stimuli\\visual\\matrix_reasoning\\M011a.png'
I4
I4
I2373
tp33
a(g18
g19
g22
I11
S'c:\\Charlie\\charlie\\stimuli\\visual\\matrix_reasoning\\M012.png'
S'c:\\Charlie\\charlie\\stimuli\\visual\\matrix_reasoning\\M012a.png'
I1
I1
I4106
tp34
a(g18
g19
g22
I12
S'c:\\Charlie\\charlie\\stimuli\\visual\\matrix_reasoning\\M013.png'
S'c:\\Charlie\\charlie\\stimuli\\visual\\matrix_reasoning\\M013a.png'
I2
I2
I6291
tp35
a(g18
g19
g22
I13
S'c:\\Charlie\\charlie\\stimuli\\visual\\matrix_reasoning\\M014.png'
S'c:\\Charlie\\charlie\\stimuli\\visual\\matrix_reasoning\\M014a.png'
I0
I0
I3307
tp36
a(g18
g19
g22
I14
S'c:\\Charlie\\charlie\\stimuli\\visual\\matrix_reasoning\\M015.png'
S'c:\\Charlie\\charlie\\stimuli\\visual\\matrix_reasoning\\M015a.png'
I1
I1
I4027
tp37
a(g18
g19
g22
I15
S'c:\\Charlie\\charlie\\stimuli\\visual\\matrix_reasoning\\M016.png'
S'c:\\Charlie\\charlie\\stimuli\\visual\\matrix_reasoning\\M016a.png'
I3
I3
I3854
tp38
a(g18
g19
g22
I16
S'c:\\Charlie\\charlie\\stimuli\\visual\\matrix_reasoning\\M017.png'
S'c:\\Charlie\\charlie\\stimuli\\visual\\matrix_reasoning\\M017a.png'
I2
I4
I3737
tp39
a(g18
g19
g22
I17
S'c:\\Charlie\\charlie\\stimuli\\visual\\matrix_reasoning\\M018.png'
S'c:\\Charlie\\charlie\\stimuli\\visual\\matrix_reasoning\\M018a.png'
I0
I0
I1945
tp40
a(g18
g19
g22
I18
S'c:\\Charlie\\charlie\\stimuli\\visual\\matrix_reasoning\\M019.png'
S'c:\\Charlie\\charlie\\stimuli\\visual\\matrix_reasoning\\M019a.png'
I0
I0
I3992
tp41
a(g18
g19
g22
I19
S'c:\\Charlie\\charlie\\stimuli\\visual\\matrix_reasoning\\M020.png'
S'c:\\Charlie\\charlie\\stimuli\\visual\\matrix_reasoning\\M020a.png'
I3
I3
I5891
tp42
a(g18
g19
g22
I20
S'c:\\Charlie\\charlie\\stimuli\\visual\\matrix_reasoning\\M021.png'
S'c:\\Charlie\\charlie\\stimuli\\visual\\matrix_reasoning\\M021a.png'
I4
I4
I6140
tp43
a(g18
g19
g22
I21
S'c:\\Charlie\\charlie\\stimuli\\visual\\matrix_reasoning\\M022.png'
S'c:\\Charlie\\charlie\\stimuli\\visual\\matrix_reasoning\\M022a.png'
I4
I4
I6370
tp44
a(g18
g19
g22
I22
S'c:\\Charlie\\charlie\\stimuli\\visual\\matrix_reasoning\\M023.png'
S'c:\\Charlie\\charlie\\stimuli\\visual\\matrix_reasoning\\M023a.png'
I1
I1
I4920
tp45
a(g18
g19
g22
I23
S'c:\\Charlie\\charlie\\stimuli\\visual\\matrix_reasoning\\M024.png'
S'c:\\Charlie\\charlie\\stimuli\\visual\\matrix_reasoning\\M024a.png'
I1
I1
I6173
tp46
a(g18
g19
g22
I24
S'c:\\Charlie\\charlie\\stimuli\\visual\\matrix_reasoning\\M025.png'
S'c:\\Charlie\\charlie\\stimuli\\visual\\matrix_reasoning\\M025a.png'
I0
I0
I6645
tp47
a(g18
g19
g22
I25
S'c:\\Charlie\\charlie\\stimuli\\visual\\matrix_reasoning\\M026.png'
S'c:\\Charlie\\charlie\\stimuli\\visual\\matrix_reasoning\\M026a.png'
I4
I4
I14757
tp48
a(g18
g19
g22
I26
S'c:\\Charlie\\charlie\\stimuli\\visual\\matrix_reasoning\\M027.png'
S'c:\\Charlie\\charlie\\stimuli\\visual\\matrix_reasoning\\M027a.png'
I3
I3
I21432
tp49
a(g18
g19
g22
I27
S'c:\\Charlie\\charlie\\stimuli\\visual\\matrix_reasoning\\M028.png'
S'c:\\Charlie\\charlie\\stimuli\\visual\\matrix_reasoning\\M028a.png'
I2
I4
I17900
tp50
a(g18
g19
g22
I28
S'c:\\Charlie\\charlie\\stimuli\\visual\\matrix_reasoning\\M029.png'
S'c:\\Charlie\\charlie\\stimuli\\visual\\matrix_reasoning\\M029a.png'
I2
I0
I14721
tp51
a(g18
g19
g22
I29
S'c:\\Charlie\\charlie\\stimuli\\visual\\matrix_reasoning\\M030.png'
S'c:\\Charlie\\charlie\\stimuli\\visual\\matrix_reasoning\\M030a.png'
I3
I3
I18510
tp52
a(g18
g19
g22
I30
S'c:\\Charlie\\charlie\\stimuli\\visual\\matrix_reasoning\\M031.png'
S'c:\\Charlie\\charlie\\stimuli\\visual\\matrix_reasoning\\M031a.png'
I0
I0
I16251
tp53
a(g18
g19
g22
I31
S'c:\\Charlie\\charlie\\stimuli\\visual\\matrix_reasoning\\M032.png'
S'c:\\Charlie\\charlie\\stimuli\\visual\\matrix_reasoning\\M032a.png'
I3
I2
I6233
tp54
a(g18
g19
g22
I32
S'c:\\Charlie\\charlie\\stimuli\\visual\\matrix_reasoning\\M033.png'
S'c:\\Charlie\\charlie\\stimuli\\visual\\matrix_reasoning\\M033a.png'
I1
I0
I16931
tp55
a(g18
g19
g22
I33
S'c:\\Charlie\\charlie\\stimuli\\visual\\matrix_reasoning\\M034.png'
S'c:\\Charlie\\charlie\\stimuli\\visual\\matrix_reasoning\\M034a.png'
I2
I2
I17060
tp56
a(g18
g19
g22
I34
S'c:\\Charlie\\charlie\\stimuli\\visual\\matrix_reasoning\\M035.png'
p57
S'c:\\Charlie\\charlie\\stimuli\\visual\\matrix_reasoning\\M035a.png'
p58
I4
I4
I22297
tp59
asS'output_format'
p60
(lp61
(S'proband_id'
p62
c__builtin__
str
p63
tp64
a(S'test_name'
p65
g63
tp66
a(S'phase'
p67
g63
tp68
a(S'trialn'
p69
c__builtin__
int
p70
tp71
a(S'matrix'
p72
g63
tp73
a(S'array'
p74
g63
tp75
a(S'ans'
p76
g70
tp77
a(S'rsp'
p78
g70
tp79
a(S'rt'
p80
g70
tp81
asg62
g18
sS'filename'
p82
S'4391_matrix_reasoning.data'
p83
sS'initialised'
p84
g8
(S'\x07\xdf\x05\x0e\r\x1b \rFp'
tRp85
sS'last_udated'
p86
g8
(S'\x07\xdf\x05\x0e\r\x1b \rFp'
tRp87
sg65
S'matrix_reasoning'
p88
sS'directory'
p89
S'c:\\Charlie\\charlie\\data\\raw'
p90
sS'user_id'
p91
S'oleach'
p92
sS'test_started'
p93
I01
sS'abs_filename'
p94
S'c:\\Charlie\\charlie\\data\\raw\\4391_matrix_reasoning.data'
p95
sS'date_started'
p96
g8
(S'\x07\xdf\x05\x0e\r\x1b;\x06\x93\x98'
tRp97
sS'log'
p98
(lp99
(S'2015-05-14 13:27:32.870000'
S'instance created'
p100
tp101
a(S'2015-05-14 13:27:59.444000'
S'instance updated'
p102
tp103
a(S'2015-05-14 13:27:59.454000'
S'pandas DataFrame of data created'
p104
tp105
a(S'2015-05-14 13:27:59.462000'
S'data saved as csv to c:\\Charlie\\charlie\\data\\csv\\4391_matrix_reasoning.csv'
tp106
a(S'2015-05-14 13:27:59.467000'
g104
tp107
a(S'2015-05-14 13:28:04.636000'
g102
tp108
a(S'2015-05-14 13:28:04.645000'
g104
tp109
a(S'2015-05-14 13:28:04.650000'
S'data saved as csv to c:\\Charlie\\charlie\\data\\csv\\4391_matrix_reasoning.csv'
tp110
a(S'2015-05-14 13:28:04.656000'
g104
tp111
a(S'2015-05-14 13:28:06.994000'
g102
tp112
a(S'2015-05-14 13:28:07.002000'
g104
tp113
a(S'2015-05-14 13:28:07.005000'
S'data saved as csv to c:\\Charlie\\charlie\\data\\csv\\4391_matrix_reasoning.csv'
tp114
a(S'2015-05-14 13:28:07.012000'
g104
tp115
a(S'2015-05-14 13:28:09.157000'
g102
tp116
a(S'2015-05-14 13:28:09.161000'
g104
tp117
a(S'2015-05-14 13:28:09.163000'
S'data saved as csv to c:\\Charlie\\charlie\\data\\csv\\4391_matrix_reasoning.csv'
tp118
a(S'2015-05-14 13:28:09.168000'
g104
tp119
a(S'2015-05-14 13:28:11.137000'
g102
tp120
a(S'2015-05-14 13:28:11.147000'
g104
tp121
a(S'2015-05-14 13:28:11.151000'
S'data saved as csv to c:\\Charlie\\charlie\\data\\csv\\4391_matrix_reasoning.csv'
tp122
a(S'2015-05-14 13:28:11.161000'
g104
tp123
a(S'2015-05-14 13:28:13.451000'
g102
tp124
a(S'2015-05-14 13:28:13.460000'
g104
tp125
a(S'2015-05-14 13:28:13.464000'
S'data saved as csv to c:\\Charlie\\charlie\\data\\csv\\4391_matrix_reasoning.csv'
tp126
a(S'2015-05-14 13:28:13.474000'
g104
tp127
a(S'2015-05-14 13:28:16.803000'
g102
tp128
a(S'2015-05-14 13:28:16.811000'
g104
tp129
a(S'2015-05-14 13:28:16.815000'
S'data saved as csv to c:\\Charlie\\charlie\\data\\csv\\4391_matrix_reasoning.csv'
tp130
a(S'2015-05-14 13:28:16.824000'
g104
tp131
a(S'2015-05-14 13:28:19.411000'
g102
tp132
a(S'2015-05-14 13:28:19.421000'
g104
tp133
a(S'2015-05-14 13:28:19.425000'
S'data saved as csv to c:\\Charlie\\charlie\\data\\csv\\4391_matrix_reasoning.csv'
tp134
a(S'2015-05-14 13:28:19.435000'
g104
tp135
a(S'2015-05-14 13:28:22.625000'
g102
tp136
a(S'2015-05-14 13:28:22.631000'
g104
tp137
a(S'2015-05-14 13:28:22.634000'
S'data saved as csv to c:\\Charlie\\charlie\\data\\csv\\4391_matrix_reasoning.csv'
tp138
a(S'2015-05-14 13:28:22.640000'
g104
tp139
a(S'2015-05-14 13:28:25.906000'
g102
tp140
a(S'2015-05-14 13:28:25.916000'
g104
tp141
a(S'2015-05-14 13:28:25.920000'
S'data saved as csv to c:\\Charlie\\charlie\\data\\csv\\4391_matrix_reasoning.csv'
tp142
a(S'2015-05-14 13:28:25.925000'
g104
tp143
a(S'2015-05-14 13:28:28.554000'
g102
tp144
a(S'2015-05-14 13:28:28.562000'
g104
tp145
a(S'2015-05-14 13:28:28.565000'
S'data saved as csv to c:\\Charlie\\charlie\\data\\csv\\4391_matrix_reasoning.csv'
tp146
a(S'2015-05-14 13:28:28.572000'
g104
tp147
a(S'2015-05-14 13:28:31.081000'
g102
tp148
a(S'2015-05-14 13:28:31.087000'
g104
tp149
a(S'2015-05-14 13:28:31.089000'
S'data saved as csv to c:\\Charlie\\charlie\\data\\csv\\4391_matrix_reasoning.csv'
tp150
a(S'2015-05-14 13:28:31.094000'
g104
tp151
a(S'2015-05-14 13:28:35.338000'
g102
tp152
a(S'2015-05-14 13:28:35.346000'
g104
tp153
a(S'2015-05-14 13:28:35.349000'
S'data saved as csv to c:\\Charlie\\charlie\\data\\csv\\4391_matrix_reasoning.csv'
tp154
a(S'2015-05-14 13:28:35.356000'
g104
tp155
a(S'2015-05-14 13:28:41.786000'
g102
tp156
a(S'2015-05-14 13:28:41.796000'
g104
tp157
a(S'2015-05-14 13:28:41.800000'
S'data saved as csv to c:\\Charlie\\charlie\\data\\csv\\4391_matrix_reasoning.csv'
tp158
a(S'2015-05-14 13:28:41.810000'
g104
tp159
a(S'2015-05-14 13:28:45.257000'
g102
tp160
a(S'2015-05-14 13:28:45.267000'
g104
tp161
a(S'2015-05-14 13:28:45.270000'
S'data saved as csv to c:\\Charlie\\charlie\\data\\csv\\4391_matrix_reasoning.csv'
tp162
a(S'2015-05-14 13:28:45.277000'
g104
tp163
a(S'2015-05-14 13:28:49.440000'
g102
tp164
a(S'2015-05-14 13:28:49.444000'
g104
tp165
a(S'2015-05-14 13:28:49.446000'
S'data saved as csv to c:\\Charlie\\charlie\\data\\csv\\4391_matrix_reasoning.csv'
tp166
a(S'2015-05-14 13:28:49.451000'
g104
tp167
a(S'2015-05-14 13:28:53.441000'
g102
tp168
a(S'2015-05-14 13:28:53.451000'
g104
tp169
a(S'2015-05-14 13:28:53.455000'
S'data saved as csv to c:\\Charlie\\charlie\\data\\csv\\4391_matrix_reasoning.csv'
tp170
a(S'2015-05-14 13:28:53.462000'
g104
tp171
a(S'2015-05-14 13:28:57.337000'
g102
tp172
a(S'2015-05-14 13:28:57.347000'
g104
tp173
a(S'2015-05-14 13:28:57.351000'
S'data saved as csv to c:\\Charlie\\charlie\\data\\csv\\4391_matrix_reasoning.csv'
tp174
a(S'2015-05-14 13:28:57.361000'
g104
tp175
a(S'2015-05-14 13:28:59.449000'
g102
tp176
a(S'2015-05-14 13:28:59.459000'
g104
tp177
a(S'2015-05-14 13:28:59.463000'
S'data saved as csv to c:\\Charlie\\charlie\\data\\csv\\4391_matrix_reasoning.csv'
tp178
a(S'2015-05-14 13:28:59.473000'
g104
tp179
a(S'2015-05-14 13:29:03.608000'
g102
tp180
a(S'2015-05-14 13:29:03.618000'
g104
tp181
a(S'2015-05-14 13:29:03.622000'
S'data saved as csv to c:\\Charlie\\charlie\\data\\csv\\4391_matrix_reasoning.csv'
tp182
a(S'2015-05-14 13:29:03.630000'
g104
tp183
a(S'2015-05-14 13:29:09.656000'
g102
tp184
a(S'2015-05-14 13:29:09.663000'
g104
tp185
a(S'2015-05-14 13:29:09.666000'
S'data saved as csv to c:\\Charlie\\charlie\\data\\csv\\4391_matrix_reasoning.csv'
tp186
a(S'2015-05-14 13:29:09.673000'
g104
tp187
a(S'2015-05-14 13:29:15.952000'
g102
tp188
a(S'2015-05-14 13:29:15.961000'
g104
tp189
a(S'2015-05-14 13:29:15.964000'
S'data saved as csv to c:\\Charlie\\charlie\\data\\csv\\4391_matrix_reasoning.csv'
tp190
a(S'2015-05-14 13:29:15.971000'
g104
tp191
a(S'2015-05-14 13:29:22.471000'
g102
tp192
a(S'2015-05-14 13:29:22.475000'
g104
tp193
a(S'2015-05-14 13:29:22.477000'
S'data saved as csv to c:\\Charlie\\charlie\\data\\csv\\4391_matrix_reasoning.csv'
tp194
a(S'2015-05-14 13:29:22.481000'
g104
tp195
a(S'2015-05-14 13:29:27.535000'
g102
tp196
a(S'2015-05-14 13:29:27.544000'
g104
tp197
a(S'2015-05-14 13:29:27.548000'
S'data saved as csv to c:\\Charlie\\charlie\\data\\csv\\4391_matrix_reasoning.csv'
tp198
a(S'2015-05-14 13:29:27.557000'
g104
tp199
a(S'2015-05-14 13:29:33.871000'
g102
tp200
a(S'2015-05-14 13:29:33.880000'
g104
tp201
a(S'2015-05-14 13:29:33.883000'
S'data saved as csv to c:\\Charlie\\charlie\\data\\csv\\4391_matrix_reasoning.csv'
tp202
a(S'2015-05-14 13:29:33.892000'
g104
tp203
a(S'2015-05-14 13:29:40.677000'
g102
tp204
a(S'2015-05-14 13:29:40.684000'
g104
tp205
a(S'2015-05-14 13:29:40.687000'
S'data saved as csv to c:\\Charlie\\charlie\\data\\csv\\4391_matrix_reasoning.csv'
tp206
a(S'2015-05-14 13:29:40.694000'
g104
tp207
a(S'2015-05-14 13:29:55.589000'
g102
tp208
a(S'2015-05-14 13:29:55.599000'
g104
tp209
a(S'2015-05-14 13:29:55.604000'
S'data saved as csv to c:\\Charlie\\charlie\\data\\csv\\4391_matrix_reasoning.csv'
tp210
a(S'2015-05-14 13:29:55.614000'
g104
tp211
a(S'2015-05-14 13:30:17.187000'
g102
tp212
a(S'2015-05-14 13:30:17.195000'
g104
tp213
a(S'2015-05-14 13:30:17.198000'
S'data saved as csv to c:\\Charlie\\charlie\\data\\csv\\4391_matrix_reasoning.csv'
tp214
a(S'2015-05-14 13:30:17.205000'
g104
tp215
a(S'2015-05-14 13:30:35.243000'
g102
tp216
a(S'2015-05-14 13:30:35.249000'
g104
tp217
a(S'2015-05-14 13:30:35.251000'
S'data saved as csv to c:\\Charlie\\charlie\\data\\csv\\4391_matrix_reasoning.csv'
tp218
a(S'2015-05-14 13:30:35.257000'
g104
tp219
a(S'2015-05-14 13:30:50.114000'
g102
tp220
a(S'2015-05-14 13:30:50.123000'
g104
tp221
a(S'2015-05-14 13:30:50.126000'
S'data saved as csv to c:\\Charlie\\charlie\\data\\csv\\4391_matrix_reasoning.csv'
tp222
a(S'2015-05-14 13:30:50.132000'
g104
tp223
a(S'2015-05-14 13:31:08.778000'
g102
tp224
a(S'2015-05-14 13:31:08.787000'
g104
tp225
a(S'2015-05-14 13:31:08.791000'
S'data saved as csv to c:\\Charlie\\charlie\\data\\csv\\4391_matrix_reasoning.csv'
tp226
a(S'2015-05-14 13:31:08.800000'
g104
tp227
a(S'2015-05-14 13:31:25.191000'
g102
tp228
a(S'2015-05-14 13:31:25.197000'
g104
tp229
a(S'2015-05-14 13:31:25.200000'
S'data saved as csv to c:\\Charlie\\charlie\\data\\csv\\4391_matrix_reasoning.csv'
tp230
a(S'2015-05-14 13:31:25.205000'
g104
tp231
a(S'2015-05-14 13:31:31.577000'
g102
tp232
a(S'2015-05-14 13:31:31.585000'
g104
tp233
a(S'2015-05-14 13:31:31.587000'
S'data saved as csv to c:\\Charlie\\charlie\\data\\csv\\4391_matrix_reasoning.csv'
tp234
a(S'2015-05-14 13:31:31.594000'
g104
tp235
a(S'2015-05-14 13:31:48.663000'
g102
tp236
a(S'2015-05-14 13:31:48.674000'
g104
tp237
a(S'2015-05-14 13:31:48.678000'
S'data saved as csv to c:\\Charlie\\charlie\\data\\csv\\4391_matrix_reasoning.csv'
tp238
a(S'2015-05-14 13:31:48.683000'
g104
tp239
a(S'2015-05-14 13:32:05.878000'
g102
tp240
a(S'2015-05-14 13:32:05.889000'
g104
tp241
a(S'2015-05-14 13:32:05.894000'
S'data saved as csv to c:\\Charlie\\charlie\\data\\csv\\4391_matrix_reasoning.csv'
tp242
a(S'2015-05-14 13:32:05.900000'
g104
tp243
a(S'2015-05-14 13:32:28.334000'
g102
tp244
a(S'2015-05-14 13:32:28.344000'
g104
tp245
a(S'2015-05-14 13:32:28.349000'
S'data saved as csv to c:\\Charlie\\charlie\\data\\csv\\4391_matrix_reasoning.csv'
tp246
a(S'2015-05-14 13:32:28.359000'
g104
tp247
asb.