(icharlie.tools.data
Data
p1
(dp2
S'lang'
p3
S'EN'
p4
sS'control'
p5
(lp6
sS'last_updated'
p7
cdatetime
datetime
p8
(S'\x07\xdf\x05\x0e\x0c\x01(\x02\xb3h'
tRp9
sS'last_opened'
p10
g8
(S'\x07\xdf\x05\x0e\x0b7:\x08X\xb8'
tRp11
sS'proj_id'
p12
S'connectivity'
p13
sS'date_done'
p14
g8
(S'\x07\xdf\x05\x0e\x0c\x01(\x01\x86\xa0'
tRp15
sS'test_done'
p16
I01
sS'data'
p17
(lp18
(S'4391'
p19
S'cvlt2'
p20
I0
csip
_unpickle_type
p21
(S'PyQt4.QtCore'
p22
S'QString'
(Vtruck
p23
ttRp24
tp25
a(g19
g20
I0
g21
(g22
S'QString'
(Vspinach
p26
ttRp27
tp28
a(g19
g20
I0
g21
(g22
S'QString'
(Vsubway
p29
ttRp30
tp31
a(g19
g20
I0
g21
(g22
S'QString'
(Vgiraffe
p32
ttRp33
tp34
a(g19
g20
I0
g21
(g22
S'QString'
(Vzebra
p35
ttRp36
tp37
a(g19
g20
I0
g21
(g22
S'QString'
(Vcow
p38
ttRp39
tp40
a(g19
g20
I0
g21
(g22
S'QString'
(Vonion
p41
ttRp42
tp43
a(g19
g20
I0
g21
(g22
S'QString'
(Vcelery
p44
ttRp45
tp46
a(g19
g20
I0
g21
(g22
S'QString'
(Vcabinet
p47
ttRp48
tp49
a(g19
g20
I0
g21
(g22
S'QString'
(Vmotorcycle
p50
ttRp51
tp52
a(g19
g20
I1
g21
(g22
S'QString'
(Vbookcase
p53
ttRp54
tp55
a(g19
g20
I1
g21
(g22
S'QString'
(Vlamp
p56
ttRp57
tp58
a(g19
g20
I1
g21
(g22
S'QString'
(Vdesk
p59
ttRp60
tp61
a(g19
g20
I1
g21
(g22
S'QString'
(Vsquirrel
p62
ttRp63
tp64
a(g19
g20
I1
g21
(g22
S'QString'
(Vzebra
p65
ttRp66
tp67
a(g19
g20
I1
g21
(g22
S'QString'
(Vsubway
p68
ttRp69
tp70
a(g19
g20
I1
g21
(g22
S'QString'
(Vcabinet
p71
ttRp72
tp73
a(g19
g20
I1
g21
(g22
S'QString'
(Vtruck
p74
ttRp75
tp76
a(g19
g20
I1
g21
(g22
S'QString'
(Vspinach
p77
ttRp78
tp79
a(g19
g20
I1
g21
(g22
S'QString'
(Vcelery
p80
ttRp81
tp82
a(g19
g20
I1
g21
(g22
S'QString'
(Vonion
p83
ttRp84
tp85
a(g19
g20
I1
g21
(g22
S'QString'
(Vboat
p86
ttRp87
tp88
a(g19
g20
I1
g21
(g22
S'QString'
(Vgiraffe
p89
ttRp90
tp91
a(g19
g20
I1
g21
(g22
S'QString'
(Vzebra
p92
ttRp93
tp94
a(g19
g20
I2
g21
(g22
S'QString'
(Vtruck
p95
ttRp96
tp97
a(g19
g20
I2
g21
(g22
S'QString'
(Vspinach
p98
ttRp99
tp100
a(g19
g20
I2
g21
(g22
S'QString'
(Vsubway
p101
ttRp102
tp103
a(g19
g20
I2
g21
(g22
S'QString'
(Vzebra
p104
ttRp105
tp106
a(g19
g20
I2
g21
(g22
S'QString'
(Vgiraffe
p107
ttRp108
tp109
a(g19
g20
I2
g21
(g22
S'QString'
(Vsquirrel
p110
ttRp111
tp112
a(g19
g20
I2
g21
(g22
S'QString'
(Vboat
p113
ttRp114
tp115
a(g19
g20
I2
g21
(g22
S'QString'
(Vcabinet
p116
ttRp117
tp118
a(g19
g20
I2
g21
(g22
S'QString'
(Vbookcase
p119
ttRp120
tp121
a(g19
g20
I3
g21
(g22
S'QString'
(Vtruck
p122
ttRp123
tp124
a(g19
g20
I3
g21
(g22
S'QString'
(Vspinach
p125
ttRp126
tp127
a(g19
g20
I3
g21
(g22
S'QString'
(Vzebra
p128
ttRp129
tp130
a(g19
g20
I3
g21
(g22
S'QString'
(Vgiraffe
p131
ttRp132
tp133
a(g19
g20
I3
g21
(g22
S'QString'
(Vsquirrel
p134
ttRp135
tp136
a(g19
g20
I3
g21
(g22
S'QString'
(Vboat
p137
ttRp138
tp139
a(g19
g20
I3
g21
(g22
S'QString'
(Vbookcase
p140
ttRp141
tp142
a(g19
g20
I3
g21
(g22
S'QString'
(Vdesk
p143
ttRp144
tp145
a(g19
g20
I3
g21
(g22
S'QString'
(Vlamp
p146
ttRp147
tp148
a(g19
g20
I3
g21
(g22
S'QString'
(Vcabinet
p149
ttRp150
tp151
a(g19
g20
I3
g21
(g22
S'QString'
(Vcelery
p152
ttRp153
tp154
a(g19
g20
I3
g21
(g22
S'QString'
(Vonion
p155
ttRp156
tp157
a(g19
g20
I3
g21
(g22
S'QString'
(Vcabbage
p158
ttRp159
tp160
a(g19
g20
I3
g21
(g22
S'QString'
(Vmotorcycle
p161
ttRp162
tp163
a(g19
g20
I4
g21
(g22
S'QString'
(Vcabbage
p164
ttRp165
tp166
a(g19
g20
I4
g21
(g22
S'QString'
(Vcelery
p167
ttRp168
tp169
a(g19
g20
I4
g21
(g22
S'QString'
(Vonion
p170
ttRp171
tp172
a(g19
g20
I4
g21
(g22
S'QString'
(Vspinach
p173
ttRp174
tp175
a(g19
g20
I4
g21
(g22
S'QString'
(Vboat
p176
ttRp177
tp178
a(g19
g20
I4
g21
(g22
S'QString'
(Vsubway
p179
ttRp180
tp181
a(g19
g20
I4
g21
(g22
S'QString'
(Vtruck
p182
ttRp183
tp184
a(g19
g20
I4
g21
(g22
S'QString'
(Vmotorcycle
p185
ttRp186
tp187
a(g19
g20
I4
g21
(g22
S'QString'
(Vcabinet
p188
ttRp189
tp190
a(g19
g20
I4
g21
(g22
S'QString'
(Vdesk
p191
ttRp192
tp193
a(g19
g20
I4
g21
(g22
S'QString'
(Vlamp
p194
ttRp195
tp196
a(g19
g20
I4
g21
(g22
S'QString'
(Vbookcase
p197
ttRp198
tp199
a(g19
g20
I4
g21
(g22
S'QString'
(Vcow
p200
ttRp201
tp202
a(g19
g20
I4
g21
(g22
S'QString'
(Vgiraffe
p203
ttRp204
tp205
a(g19
g20
I4
g21
(g22
S'QString'
(Vsquirrel
p206
ttRp207
tp208
a(g19
g20
I4
g21
(g22
S'QString'
(Vzebra
p209
ttRp210
tp211
asS'output_format'
p212
(lp213
(S'proband_id'
p214
c__builtin__
str
p215
tp216
a(S'test_name'
p217
g215
tp218
a(S'trialn'
p219
c__builtin__
int
p220
tp221
a(S'rsp'
p222
g215
tp223
asg214
g19
sS'filename'
p224
S'4391_cvlt2.data'
p225
sS'initialised'
p226
g8
(S'\x07\xdf\x05\x0e\x0b7:\x08X\xb8'
tRp227
sS'last_udated'
p228
g8
(S'\x07\xdf\x05\x0e\x0b7:\x08X\xb8'
tRp229
sg217
S'cvlt2'
p230
sS'directory'
p231
S'c:\\Charlie\\charlie\\data\\raw'
p232
sS'user_id'
p233
S'oleach'
p234
sS'test_started'
p235
I01
sS'abs_filename'
p236
S'c:\\Charlie\\charlie\\data\\raw\\4391_cvlt2.data'
p237
sS'date_started'
p238
g8
(S'\x07\xdf\x05\x0e\x0b9\x12\x0b\x088'
tRp239
sS'log'
p240
(lp241
(S'2015-05-14 11:55:58.547000'
S'instance created'
p242
tp243
a(S'2015-05-14 11:57:18.736000'
S'instance updated'
p244
tp245
a(S'2015-05-14 11:57:18.761000'
S'pandas DataFrame of data created'
p246
tp247
a(S'2015-05-14 11:57:18.765000'
S'data saved as csv to c:\\Charlie\\charlie\\data\\csv\\4391_cvlt2.csv'
tp248
a(S'2015-05-14 11:58:08.066000'
g244
tp249
a(S'2015-05-14 11:58:08.086000'
g246
tp250
a(S'2015-05-14 11:58:08.088000'
S'data saved as csv to c:\\Charlie\\charlie\\data\\csv\\4391_cvlt2.csv'
tp251
a(S'2015-05-14 11:58:32.144000'
g244
tp252
a(S'2015-05-14 11:58:32.182000'
g246
tp253
a(S'2015-05-14 11:58:32.183000'
S'data saved as csv to c:\\Charlie\\charlie\\data\\csv\\4391_cvlt2.csv'
tp254
a(S'2015-05-14 11:59:11.820000'
g244
tp255
a(S'2015-05-14 11:59:11.863000'
g246
tp256
a(S'2015-05-14 11:59:11.864000'
S'data saved as csv to c:\\Charlie\\charlie\\data\\csv\\4391_cvlt2.csv'
tp257
a(S'2015-05-14 11:59:31.931000'
g244
tp258
a(S'2015-05-14 11:59:31.974000'
g246
tp259
a(S'2015-05-14 11:59:31.975000'
S'data saved as csv to c:\\Charlie\\charlie\\data\\csv\\4391_cvlt2.csv'
tp260
a(S'2015-05-14 12:00:08.010000'
g244
tp261
a(S'2015-05-14 12:00:08.058000'
g246
tp262
a(S'2015-05-14 12:00:08.059000'
S'data saved as csv to c:\\Charlie\\charlie\\data\\csv\\4391_cvlt2.csv'
tp263
a(S'2015-05-14 12:00:37.312000'
g244
tp264
a(S'2015-05-14 12:00:37.375000'
g246
tp265
a(S'2015-05-14 12:00:37.376000'
S'data saved as csv to c:\\Charlie\\charlie\\data\\csv\\4391_cvlt2.csv'
tp266
a(S'2015-05-14 12:01:13.621000'
g244
tp267
a(S'2015-05-14 12:01:13.677000'
g246
tp268
a(S'2015-05-14 12:01:13.679000'
S'data saved as csv to c:\\Charlie\\charlie\\data\\csv\\4391_cvlt2.csv'
tp269
a(S'2015-05-14 12:01:40.100000'
g244
tp270
a(S'2015-05-14 12:01:40.176000'
g246
tp271
a(S'2015-05-14 12:01:40.177000'
S'data saved as csv to c:\\Charlie\\charlie\\data\\csv\\4391_cvlt2.csv'
tp272
asb.