(icharlie.tools.data
Data
p1
(dp2
S'lang'
p3
S'EN'
p4
sS'control'
p5
(lp6
sS'last_updated'
p7
cdatetime
datetime
p8
(S'\x07\xdf\x05\x13\x0c\n&\x07\xac\xd8'
tRp9
sS'last_opened'
p10
g8
(S'\x07\xdf\x05\x13\x0c\x054\x00\xbfh'
tRp11
sS'proj_id'
p12
S'connectivity'
p13
sS'date_done'
p14
NsS'test_done'
p15
I01
sS'data'
p16
(lp17
(S'4392'
p18
S'stroop'
p19
S'practice'
p20
I0
S'n/a'
p21
S'C:\\Users\\Jbarrett\\Charlie\\charlie\\stimuli\\visual\\stroop\\prac_1.png'
S'Right'
p22
g22
I2820
tp23
a(g18
g19
g20
I1
g21
S'C:\\Users\\Jbarrett\\Charlie\\charlie\\stimuli\\visual\\stroop\\prac_2.png'
S'Left'
p24
g24
I1820
tp25
a(g18
g19
g20
I2
g21
S'C:\\Users\\Jbarrett\\Charlie\\charlie\\stimuli\\visual\\stroop\\prac_3.png'
g22
g22
I1440
tp26
a(g18
g19
g20
I3
g21
S'C:\\Users\\Jbarrett\\Charlie\\charlie\\stimuli\\visual\\stroop\\prac_4.png'
g22
g22
I1210
tp27
a(g18
g19
S'test'
p28
I0
S'Incongruent'
p29
S'C:\\Users\\Jbarrett\\Charlie\\charlie\\stimuli\\visual\\stroop\\6-Incongruent.png'
g24
g24
I4131
tp30
a(g18
g19
g28
I1
S'Congruent'
p31
S'C:\\Users\\Jbarrett\\Charlie\\charlie\\stimuli\\visual\\stroop\\30-Congruent.png'
g24
g24
I5440
tp32
a(g18
g19
g28
I2
g31
S'C:\\Users\\Jbarrett\\Charlie\\charlie\\stimuli\\visual\\stroop\\3-Congruent.png'
g22
g22
I2370
tp33
a(g18
g19
g28
I3
g29
S'C:\\Users\\Jbarrett\\Charlie\\charlie\\stimuli\\visual\\stroop\\23-Incongruent.png'
g24
g24
I4760
tp34
a(g18
g19
g28
I4
g31
S'C:\\Users\\Jbarrett\\Charlie\\charlie\\stimuli\\visual\\stroop\\39-Congruent.png'
g24
g24
I3351
tp35
a(g18
g19
g28
I5
g31
S'C:\\Users\\Jbarrett\\Charlie\\charlie\\stimuli\\visual\\stroop\\45-Congruent.png'
g24
g24
I1780
tp36
a(g18
g19
g28
I6
g29
S'C:\\Users\\Jbarrett\\Charlie\\charlie\\stimuli\\visual\\stroop\\31-Incongruent.png'
g22
g22
I2150
tp37
a(g18
g19
g28
I7
g29
S'C:\\Users\\Jbarrett\\Charlie\\charlie\\stimuli\\visual\\stroop\\28-Incongruent.png'
g24
g24
I2780
tp38
a(g18
g19
g28
I8
g31
S'C:\\Users\\Jbarrett\\Charlie\\charlie\\stimuli\\visual\\stroop\\31-Congruent.png'
g24
g24
I8251
tp39
a(g18
g19
g28
I9
g31
S'C:\\Users\\Jbarrett\\Charlie\\charlie\\stimuli\\visual\\stroop\\10-Congruent.png'
g22
g22
I3450
tp40
a(g18
g19
g28
I10
g29
S'C:\\Users\\Jbarrett\\Charlie\\charlie\\stimuli\\visual\\stroop\\10-Incongruent.png'
g24
g24
I1500
tp41
a(g18
g19
g28
I11
g29
S'C:\\Users\\Jbarrett\\Charlie\\charlie\\stimuli\\visual\\stroop\\24-Incongruent.png'
g24
g24
I1930
tp42
a(g18
g19
g28
I12
g31
S'C:\\Users\\Jbarrett\\Charlie\\charlie\\stimuli\\visual\\stroop\\34-Congruent.png'
g24
g24
I1750
tp43
a(g18
g19
g28
I13
g31
S'C:\\Users\\Jbarrett\\Charlie\\charlie\\stimuli\\visual\\stroop\\38-Congruent.png'
g24
g24
I1500
tp44
a(g18
g19
g28
I14
g31
S'C:\\Users\\Jbarrett\\Charlie\\charlie\\stimuli\\visual\\stroop\\42-Congruent.png'
g24
g24
I1460
tp45
a(g18
g19
g28
I15
g31
S'C:\\Users\\Jbarrett\\Charlie\\charlie\\stimuli\\visual\\stroop\\17-Congruent.png'
g22
g22
I840
tp46
a(g18
g19
g28
I16
g29
S'C:\\Users\\Jbarrett\\Charlie\\charlie\\stimuli\\visual\\stroop\\42-Incongruent.png'
g22
g22
I1240
tp47
a(g18
g19
g28
I17
g29
S'C:\\Users\\Jbarrett\\Charlie\\charlie\\stimuli\\visual\\stroop\\36-Incongruent.png'
g22
g22
I1410
tp48
a(g18
g19
g28
I18
g29
S'C:\\Users\\Jbarrett\\Charlie\\charlie\\stimuli\\visual\\stroop\\43-Incongruent.png'
g22
g22
I1381
tp49
a(g18
g19
g28
I19
g31
S'C:\\Users\\Jbarrett\\Charlie\\charlie\\stimuli\\visual\\stroop\\49-Congruent.png'
g24
g24
I830
tp50
a(g18
g19
g28
I20
g31
S'C:\\Users\\Jbarrett\\Charlie\\charlie\\stimuli\\visual\\stroop\\43-Congruent.png'
g24
g24
I1260
tp51
a(g18
g19
g28
I21
g29
S'C:\\Users\\Jbarrett\\Charlie\\charlie\\stimuli\\visual\\stroop\\15-Incongruent.png'
g24
g24
I1990
tp52
a(g18
g19
g28
I22
g29
S'C:\\Users\\Jbarrett\\Charlie\\charlie\\stimuli\\visual\\stroop\\35-Incongruent.png'
g22
g22
I1350
tp53
a(g18
g19
g28
I23
g29
S'C:\\Users\\Jbarrett\\Charlie\\charlie\\stimuli\\visual\\stroop\\44-Incongruent.png'
g22
g22
I940
tp54
a(g18
g19
g28
I24
g29
S'C:\\Users\\Jbarrett\\Charlie\\charlie\\stimuli\\visual\\stroop\\47-Incongruent.png'
g22
g22
I1060
tp55
a(g18
g19
g28
I25
g29
S'C:\\Users\\Jbarrett\\Charlie\\charlie\\stimuli\\visual\\stroop\\40-Incongruent.png'
g22
g22
I970
tp56
a(g18
g19
g28
I26
g29
S'C:\\Users\\Jbarrett\\Charlie\\charlie\\stimuli\\visual\\stroop\\25-Incongruent.png'
g24
g24
I840
tp57
a(g18
g19
g28
I27
g29
S'C:\\Users\\Jbarrett\\Charlie\\charlie\\stimuli\\visual\\stroop\\27-Incongruent.png'
g24
g24
I980
tp58
a(g18
g19
g28
I28
g29
S'C:\\Users\\Jbarrett\\Charlie\\charlie\\stimuli\\visual\\stroop\\56-Incongruent.png'
g22
g22
I770
tp59
a(g18
g19
g28
I29
g31
S'C:\\Users\\Jbarrett\\Charlie\\charlie\\stimuli\\visual\\stroop\\2-Congruent.png'
g22
g22
I900
tp60
a(g18
g19
g28
I30
g29
S'C:\\Users\\Jbarrett\\Charlie\\charlie\\stimuli\\visual\\stroop\\17-Incongruent.png'
g24
g24
I1140
tp61
a(g18
g19
g28
I31
g31
S'C:\\Users\\Jbarrett\\Charlie\\charlie\\stimuli\\visual\\stroop\\12-Congruent.png'
g22
g22
I650
tp62
a(g18
g19
g28
I32
g29
S'C:\\Users\\Jbarrett\\Charlie\\charlie\\stimuli\\visual\\stroop\\12-Incongruent.png'
g24
g24
I891
tp63
a(g18
g19
g28
I33
g29
S'C:\\Users\\Jbarrett\\Charlie\\charlie\\stimuli\\visual\\stroop\\26-Incongruent.png'
g24
g24
I1070
tp64
a(g18
g19
g28
I34
g31
S'C:\\Users\\Jbarrett\\Charlie\\charlie\\stimuli\\visual\\stroop\\19-Congruent.png'
g22
g22
I721
tp65
a(g18
g19
g28
I35
g31
S'C:\\Users\\Jbarrett\\Charlie\\charlie\\stimuli\\visual\\stroop\\23-Congruent.png'
g22
g22
I1270
tp66
a(g18
g19
g28
I36
g31
S'C:\\Users\\Jbarrett\\Charlie\\charlie\\stimuli\\visual\\stroop\\35-Congruent.png'
g24
g24
I1720
tp67
a(g18
g19
g28
I37
g31
S'C:\\Users\\Jbarrett\\Charlie\\charlie\\stimuli\\visual\\stroop\\46-Congruent.png'
g24
g24
I1000
tp68
a(g18
g19
g28
I38
g29
S'C:\\Users\\Jbarrett\\Charlie\\charlie\\stimuli\\visual\\stroop\\8-Incongruent.png'
g24
g24
I2020
tp69
a(g18
g19
g28
I39
g31
S'C:\\Users\\Jbarrett\\Charlie\\charlie\\stimuli\\visual\\stroop\\29-Congruent.png'
g24
g24
I810
tp70
a(g18
g19
g28
I40
g31
S'C:\\Users\\Jbarrett\\Charlie\\charlie\\stimuli\\visual\\stroop\\14-Congruent.png'
g22
g22
I860
tp71
a(g18
g19
g28
I41
g31
S'C:\\Users\\Jbarrett\\Charlie\\charlie\\stimuli\\visual\\stroop\\33-Congruent.png'
g24
g24
I820
tp72
a(g18
g19
g28
I42
g29
S'C:\\Users\\Jbarrett\\Charlie\\charlie\\stimuli\\visual\\stroop\\13-Incongruent.png'
g24
g24
I1070
tp73
a(g18
g19
g28
I43
g29
S'C:\\Users\\Jbarrett\\Charlie\\charlie\\stimuli\\visual\\stroop\\55-Incongruent.png'
g22
g22
I850
tp74
a(g18
g19
g28
I44
g31
S'C:\\Users\\Jbarrett\\Charlie\\charlie\\stimuli\\visual\\stroop\\54-Congruent.png'
g24
g24
I1170
tp75
a(g18
g19
g28
I45
g31
S'C:\\Users\\Jbarrett\\Charlie\\charlie\\stimuli\\visual\\stroop\\8-Congruent.png'
g22
g22
I890
tp76
a(g18
g19
g28
I46
g31
S'C:\\Users\\Jbarrett\\Charlie\\charlie\\stimuli\\visual\\stroop\\13-Congruent.png'
g22
g22
I1881
tp77
a(g18
g19
g28
I47
g31
S'C:\\Users\\Jbarrett\\Charlie\\charlie\\stimuli\\visual\\stroop\\40-Congruent.png'
g24
g24
I1630
tp78
a(g18
g19
g28
I48
g29
S'C:\\Users\\Jbarrett\\Charlie\\charlie\\stimuli\\visual\\stroop\\9-Incongruent.png'
g24
g24
I4990
tp79
a(g18
g19
g28
I49
g31
S'C:\\Users\\Jbarrett\\Charlie\\charlie\\stimuli\\visual\\stroop\\50-Congruent.png'
g24
g24
I930
tp80
a(g18
g19
g28
I50
g31
S'C:\\Users\\Jbarrett\\Charlie\\charlie\\stimuli\\visual\\stroop\\5-Congruent.png'
g22
g22
I690
tp81
a(g18
g19
g28
I51
g29
S'C:\\Users\\Jbarrett\\Charlie\\charlie\\stimuli\\visual\\stroop\\5-Incongruent.png'
g24
g24
I1120
tp82
a(g18
g19
g28
I52
g29
S'C:\\Users\\Jbarrett\\Charlie\\charlie\\stimuli\\visual\\stroop\\53-Incongruent.png'
g22
g22
I1410
tp83
a(g18
g19
g28
I53
g29
S'C:\\Users\\Jbarrett\\Charlie\\charlie\\stimuli\\visual\\stroop\\1-Incongruent.png'
g24
g24
I4961
tp84
a(g18
g19
g28
I54
g31
S'C:\\Users\\Jbarrett\\Charlie\\charlie\\stimuli\\visual\\stroop\\28-Congruent.png'
g22
g22
I1790
tp85
a(g18
g19
g28
I55
g29
S'C:\\Users\\Jbarrett\\Charlie\\charlie\\stimuli\\visual\\stroop\\34-Incongruent.png'
g22
g22
I1850
tp86
a(g18
g19
g28
I56
g29
S'C:\\Users\\Jbarrett\\Charlie\\charlie\\stimuli\\visual\\stroop\\20-Incongruent.png'
g24
g24
I1780
tp87
a(g18
g19
g28
I57
g29
S'C:\\Users\\Jbarrett\\Charlie\\charlie\\stimuli\\visual\\stroop\\38-Incongruent.png'
g22
g22
I3650
tp88
a(g18
g19
g28
I58
g29
S'C:\\Users\\Jbarrett\\Charlie\\charlie\\stimuli\\visual\\stroop\\32-Incongruent.png'
g22
g22
I1190
tp89
a(g18
g19
g28
I59
g31
S'C:\\Users\\Jbarrett\\Charlie\\charlie\\stimuli\\visual\\stroop\\9-Congruent.png'
g22
g22
I1740
tp90
a(g18
g19
g28
I60
g31
S'C:\\Users\\Jbarrett\\Charlie\\charlie\\stimuli\\visual\\stroop\\55-Congruent.png'
g24
g24
I870
tp91
a(g18
g19
g28
I61
g29
S'C:\\Users\\Jbarrett\\Charlie\\charlie\\stimuli\\visual\\stroop\\33-Incongruent.png'
g22
g22
I2720
tp92
a(g18
g19
g28
I62
g29
S'C:\\Users\\Jbarrett\\Charlie\\charlie\\stimuli\\visual\\stroop\\49-Incongruent.png'
g22
g22
I2871
tp93
a(g18
g19
g28
I63
g31
S'C:\\Users\\Jbarrett\\Charlie\\charlie\\stimuli\\visual\\stroop\\4-Congruent.png'
g22
g22
I1640
tp94
a(g18
g19
g28
I64
g31
S'C:\\Users\\Jbarrett\\Charlie\\charlie\\stimuli\\visual\\stroop\\6-Congruent.png'
g22
g22
I1880
tp95
a(g18
g19
g28
I65
g31
S'C:\\Users\\Jbarrett\\Charlie\\charlie\\stimuli\\visual\\stroop\\48-Congruent.png'
g24
g24
I980
tp96
a(g18
g19
g28
I66
g31
S'C:\\Users\\Jbarrett\\Charlie\\charlie\\stimuli\\visual\\stroop\\52-Congruent.png'
g24
g24
I1820
tp97
a(g18
g19
g28
I67
g31
S'C:\\Users\\Jbarrett\\Charlie\\charlie\\stimuli\\visual\\stroop\\51-Congruent.png'
g24
g24
I1290
tp98
a(g18
g19
g28
I68
g31
S'C:\\Users\\Jbarrett\\Charlie\\charlie\\stimuli\\visual\\stroop\\16-Congruent.png'
g22
g22
I840
tp99
a(g18
g19
g28
I69
g31
S'C:\\Users\\Jbarrett\\Charlie\\charlie\\stimuli\\visual\\stroop\\24-Congruent.png'
g22
g22
I1040
tp100
a(g18
g19
g28
I70
g29
S'C:\\Users\\Jbarrett\\Charlie\\charlie\\stimuli\\visual\\stroop\\41-Incongruent.png'
g22
g22
I1280
tp101
a(g18
g19
g28
I71
g29
S'C:\\Users\\Jbarrett\\Charlie\\charlie\\stimuli\\visual\\stroop\\48-Incongruent.png'
g22
g22
I1160
tp102
a(g18
g19
g28
I72
g29
S'C:\\Users\\Jbarrett\\Charlie\\charlie\\stimuli\\visual\\stroop\\4-Incongruent.png'
g24
g24
I1550
tp103
a(g18
g19
g28
I73
g29
S'C:\\Users\\Jbarrett\\Charlie\\charlie\\stimuli\\visual\\stroop\\54-Incongruent.png'
g22
g22
I2031
tp104
a(g18
g19
g28
I74
g29
S'C:\\Users\\Jbarrett\\Charlie\\charlie\\stimuli\\visual\\stroop\\39-Incongruent.png'
g22
g22
I1580
tp105
a(g18
g19
g28
I75
g31
S'C:\\Users\\Jbarrett\\Charlie\\charlie\\stimuli\\visual\\stroop\\56-Congruent.png'
g24
g24
I1950
tp106
a(g18
g19
g28
I76
g29
S'C:\\Users\\Jbarrett\\Charlie\\charlie\\stimuli\\visual\\stroop\\46-Incongruent.png'
g22
g22
I1470
tp107
a(g18
g19
g28
I77
g31
S'C:\\Users\\Jbarrett\\Charlie\\charlie\\stimuli\\visual\\stroop\\22-Congruent.png'
g22
g22
I2470
tp108
a(g18
g19
g28
I78
g29
S'C:\\Users\\Jbarrett\\Charlie\\charlie\\stimuli\\visual\\stroop\\21-Incongruent.png'
g24
g24
I1240
tp109
a(g18
g19
g28
I79
g29
S'C:\\Users\\Jbarrett\\Charlie\\charlie\\stimuli\\visual\\stroop\\37-Incongruent.png'
g22
g22
I810
tp110
a(g18
g19
g28
I80
g29
S'C:\\Users\\Jbarrett\\Charlie\\charlie\\stimuli\\visual\\stroop\\2-Incongruent.png'
g24
g24
I1300
tp111
a(g18
g19
g28
I81
g31
S'C:\\Users\\Jbarrett\\Charlie\\charlie\\stimuli\\visual\\stroop\\21-Congruent.png'
g22
g22
I1270
tp112
a(g18
g19
g28
I82
g29
S'C:\\Users\\Jbarrett\\Charlie\\charlie\\stimuli\\visual\\stroop\\7-Incongruent.png'
g24
g24
I2461
tp113
a(g18
g19
g28
I83
g31
S'C:\\Users\\Jbarrett\\Charlie\\charlie\\stimuli\\visual\\stroop\\20-Congruent.png'
g22
g22
I3270
tp114
a(g18
g19
g28
I84
g31
S'C:\\Users\\Jbarrett\\Charlie\\charlie\\stimuli\\visual\\stroop\\15-Congruent.png'
g22
g22
I1900
tp115
a(g18
g19
g28
I85
g31
S'C:\\Users\\Jbarrett\\Charlie\\charlie\\stimuli\\visual\\stroop\\26-Congruent.png'
g22
g22
I690
tp116
a(g18
g19
g28
I86
g29
S'C:\\Users\\Jbarrett\\Charlie\\charlie\\stimuli\\visual\\stroop\\16-Incongruent.png'
g24
g24
I1210
tp117
a(g18
g19
g28
I87
g29
S'C:\\Users\\Jbarrett\\Charlie\\charlie\\stimuli\\visual\\stroop\\50-Incongruent.png'
g22
g22
I2680
tp118
a(g18
g19
g28
I88
g31
S'C:\\Users\\Jbarrett\\Charlie\\charlie\\stimuli\\visual\\stroop\\41-Congruent.png'
g24
g24
I2640
tp119
a(g18
g19
g28
I89
g31
S'C:\\Users\\Jbarrett\\Charlie\\charlie\\stimuli\\visual\\stroop\\25-Congruent.png'
g22
g22
I1430
tp120
a(g18
g19
g28
I90
g31
S'C:\\Users\\Jbarrett\\Charlie\\charlie\\stimuli\\visual\\stroop\\27-Congruent.png'
g22
g22
I1210
tp121
a(g18
g19
g28
I91
g29
S'C:\\Users\\Jbarrett\\Charlie\\charlie\\stimuli\\visual\\stroop\\18-Incongruent.png'
g24
g24
I1971
tp122
a(g18
g19
g28
I92
g29
S'C:\\Users\\Jbarrett\\Charlie\\charlie\\stimuli\\visual\\stroop\\30-Incongruent.png'
g22
g22
I1410
tp123
a(g18
g19
g28
I93
g31
S'C:\\Users\\Jbarrett\\Charlie\\charlie\\stimuli\\visual\\stroop\\44-Congruent.png'
g24
g24
I920
tp124
a(g18
g19
g28
I94
g31
S'C:\\Users\\Jbarrett\\Charlie\\charlie\\stimuli\\visual\\stroop\\37-Congruent.png'
g24
g24
I1360
tp125
a(g18
g19
g28
I95
g29
S'C:\\Users\\Jbarrett\\Charlie\\charlie\\stimuli\\visual\\stroop\\11-Incongruent.png'
g24
g24
I1980
tp126
a(g18
g19
g28
I96
g29
S'C:\\Users\\Jbarrett\\Charlie\\charlie\\stimuli\\visual\\stroop\\29-Incongruent.png'
g22
g22
I1470
tp127
a(g18
g19
g28
I97
g29
S'C:\\Users\\Jbarrett\\Charlie\\charlie\\stimuli\\visual\\stroop\\3-Incongruent.png'
g24
g24
I2420
tp128
a(g18
g19
g28
I98
g31
S'C:\\Users\\Jbarrett\\Charlie\\charlie\\stimuli\\visual\\stroop\\1-Congruent.png'
g22
g22
I1940
tp129
a(g18
g19
g28
I99
g29
S'C:\\Users\\Jbarrett\\Charlie\\charlie\\stimuli\\visual\\stroop\\52-Incongruent.png'
g22
g22
I2060
tp130
a(g18
g19
g28
I100
g29
S'C:\\Users\\Jbarrett\\Charlie\\charlie\\stimuli\\visual\\stroop\\14-Incongruent.png'
g24
g24
I1100
tp131
a(g18
g19
g28
I101
g31
S'C:\\Users\\Jbarrett\\Charlie\\charlie\\stimuli\\visual\\stroop\\47-Congruent.png'
g24
g24
I2611
tp132
a(g18
g19
g28
I102
g29
S'C:\\Users\\Jbarrett\\Charlie\\charlie\\stimuli\\visual\\stroop\\19-Incongruent.png'
g24
g24
I1660
tp133
a(g18
g19
g28
I103
g31
S'C:\\Users\\Jbarrett\\Charlie\\charlie\\stimuli\\visual\\stroop\\11-Congruent.png'
g22
g22
I1290
tp134
a(g18
g19
g28
I104
g29
S'C:\\Users\\Jbarrett\\Charlie\\charlie\\stimuli\\visual\\stroop\\22-Incongruent.png'
g24
g24
I3140
tp135
a(g18
g19
g28
I105
g31
S'C:\\Users\\Jbarrett\\Charlie\\charlie\\stimuli\\visual\\stroop\\7-Congruent.png'
g22
g22
I710
tp136
a(g18
g19
g28
I106
g31
S'C:\\Users\\Jbarrett\\Charlie\\charlie\\stimuli\\visual\\stroop\\53-Congruent.png'
g24
g24
I880
tp137
a(g18
g19
g28
I107
g31
S'C:\\Users\\Jbarrett\\Charlie\\charlie\\stimuli\\visual\\stroop\\32-Congruent.png'
g24
g24
I1900
tp138
a(g18
g19
g28
I108
g29
S'C:\\Users\\Jbarrett\\Charlie\\charlie\\stimuli\\visual\\stroop\\45-Incongruent.png'
g22
g22
I1460
tp139
a(g18
g19
g28
I109
g31
S'C:\\Users\\Jbarrett\\Charlie\\charlie\\stimuli\\visual\\stroop\\36-Congruent.png'
g24
g24
I1060
tp140
a(g18
g19
g28
I110
g29
S'C:\\Users\\Jbarrett\\Charlie\\charlie\\stimuli\\visual\\stroop\\51-Incongruent.png'
g22
g22
I980
tp141
a(g18
g19
g28
I111
g31
S'C:\\Users\\Jbarrett\\Charlie\\charlie\\stimuli\\visual\\stroop\\18-Congruent.png'
p142
g22
g22
I1161
tp143
asS'output_format'
p144
(lp145
(S'proband_id'
p146
c__builtin__
str
p147
tp148
a(S'test_name'
p149
g147
tp150
a(S'phase'
p151
g147
tp152
a(S'trialn'
p153
c__builtin__
int
p154
tp155
a(S'cong'
p156
g147
tp157
a(S'f'
g147
tp158
a(S'ans'
p159
g147
tp160
a(S'rsp'
p161
g147
tp162
a(S'rt'
p163
g154
tp164
asg146
g18
sS'filename'
p165
S'4392_stroop.data'
p166
sS'initialised'
p167
g8
(S'\x07\xdf\x05\x13\x0c\x054\x00\xbfh'
tRp168
sS'last_udated'
p169
g8
(S'\x07\xdf\x05\x13\x0c\x054\x00\xbfh'
tRp170
sg149
S'stroop'
p171
sS'directory'
p172
S'C:\\Users\\Jbarrett\\Charlie\\charlie\\data\\raw'
p173
sS'user_id'
p174
S'jbarrett'
p175
sS'test_started'
p176
I01
sS'abs_filename'
p177
S'C:\\Users\\Jbarrett\\Charlie\\charlie\\data\\raw\\4392_stroop.data'
p178
sS'date_started'
p179
g8
(S"\x07\xdf\x05\x13\x0c\x06'\x02\xb7P"
tRp180
sS'log'
p181
(lp182
(S'2015-05-19 12:05:52.049000'
S'instance created'
p183
tp184
a(S'2015-05-19 12:06:39.183000'
S'instance updated'
p185
tp186
a(S'2015-05-19 12:06:39.187000'
S'pandas DataFrame of data created'
p187
tp188
a(S'2015-05-19 12:06:39.189000'
S'data saved as csv to C:\\Users\\Jbarrett\\Charlie\\charlie\\data\\csv\\4392_stroop.csv'
tp189
a(S'2015-05-19 12:06:42.038000'
g185
tp190
a(S'2015-05-19 12:06:42.048000'
g187
tp191
a(S'2015-05-19 12:06:42.051000'
S'data saved as csv to C:\\Users\\Jbarrett\\Charlie\\charlie\\data\\csv\\4392_stroop.csv'
tp192
a(S'2015-05-19 12:06:44.520000'
g185
tp193
a(S'2015-05-19 12:06:44.525000'
g187
tp194
a(S'2015-05-19 12:06:44.526000'
S'data saved as csv to C:\\Users\\Jbarrett\\Charlie\\charlie\\data\\csv\\4392_stroop.csv'
tp195
a(S'2015-05-19 12:06:46.763000'
g185
tp196
a(S'2015-05-19 12:06:46.771000'
g187
tp197
a(S'2015-05-19 12:06:46.773000'
S'data saved as csv to C:\\Users\\Jbarrett\\Charlie\\charlie\\data\\csv\\4392_stroop.csv'
tp198
a(S'2015-05-19 12:07:11.631000'
g185
tp199
a(S'2015-05-19 12:07:11.640000'
g187
tp200
a(S'2015-05-19 12:07:11.642000'
S'data saved as csv to C:\\Users\\Jbarrett\\Charlie\\charlie\\data\\csv\\4392_stroop.csv'
tp201
a(S'2015-05-19 12:07:17.214000'
g185
tp202
a(S'2015-05-19 12:07:17.222000'
g187
tp203
a(S'2015-05-19 12:07:17.224000'
S'data saved as csv to C:\\Users\\Jbarrett\\Charlie\\charlie\\data\\csv\\4392_stroop.csv'
tp204
a(S'2015-05-19 12:07:19.726000'
g185
tp205
a(S'2015-05-19 12:07:19.735000'
g187
tp206
a(S'2015-05-19 12:07:19.739000'
S'data saved as csv to C:\\Users\\Jbarrett\\Charlie\\charlie\\data\\csv\\4392_stroop.csv'
tp207
a(S'2015-05-19 12:07:24.631000'
g185
tp208
a(S'2015-05-19 12:07:24.641000'
g187
tp209
a(S'2015-05-19 12:07:24.645000'
S'data saved as csv to C:\\Users\\Jbarrett\\Charlie\\charlie\\data\\csv\\4392_stroop.csv'
tp210
a(S'2015-05-19 12:07:28.128000'
g185
tp211
a(S'2015-05-19 12:07:28.138000'
g187
tp212
a(S'2015-05-19 12:07:28.142000'
S'data saved as csv to C:\\Users\\Jbarrett\\Charlie\\charlie\\data\\csv\\4392_stroop.csv'
tp213
a(S'2015-05-19 12:07:30.052000'
g185
tp214
a(S'2015-05-19 12:07:30.062000'
g187
tp215
a(S'2015-05-19 12:07:30.063000'
S'data saved as csv to C:\\Users\\Jbarrett\\Charlie\\charlie\\data\\csv\\4392_stroop.csv'
tp216
a(S'2015-05-19 12:07:32.345000'
g185
tp217
a(S'2015-05-19 12:07:32.354000'
g187
tp218
a(S'2015-05-19 12:07:32.358000'
S'data saved as csv to C:\\Users\\Jbarrett\\Charlie\\charlie\\data\\csv\\4392_stroop.csv'
tp219
a(S'2015-05-19 12:07:35.271000'
g185
tp220
a(S'2015-05-19 12:07:35.281000'
g187
tp221
a(S'2015-05-19 12:07:35.283000'
S'data saved as csv to C:\\Users\\Jbarrett\\Charlie\\charlie\\data\\csv\\4392_stroop.csv'
tp222
a(S'2015-05-19 12:07:43.663000'
g185
tp223
a(S'2015-05-19 12:07:43.670000'
g187
tp224
a(S'2015-05-19 12:07:43.673000'
S'data saved as csv to C:\\Users\\Jbarrett\\Charlie\\charlie\\data\\csv\\4392_stroop.csv'
tp225
a(S'2015-05-19 12:07:47.255000'
g185
tp226
a(S'2015-05-19 12:07:47.264000'
g187
tp227
a(S'2015-05-19 12:07:47.268000'
S'data saved as csv to C:\\Users\\Jbarrett\\Charlie\\charlie\\data\\csv\\4392_stroop.csv'
tp228
a(S'2015-05-19 12:07:48.901000'
g185
tp229
a(S'2015-05-19 12:07:48.910000'
g187
tp230
a(S'2015-05-19 12:07:48.914000'
S'data saved as csv to C:\\Users\\Jbarrett\\Charlie\\charlie\\data\\csv\\4392_stroop.csv'
tp231
a(S'2015-05-19 12:07:50.977000'
g185
tp232
a(S'2015-05-19 12:07:50.987000'
g187
tp233
a(S'2015-05-19 12:07:50.991000'
S'data saved as csv to C:\\Users\\Jbarrett\\Charlie\\charlie\\data\\csv\\4392_stroop.csv'
tp234
a(S'2015-05-19 12:07:52.872000'
g185
tp235
a(S'2015-05-19 12:07:52.882000'
g187
tp236
a(S'2015-05-19 12:07:52.886000'
S'data saved as csv to C:\\Users\\Jbarrett\\Charlie\\charlie\\data\\csv\\4392_stroop.csv'
tp237
a(S'2015-05-19 12:07:54.519000'
g185
tp238
a(S'2015-05-19 12:07:54.528000'
g187
tp239
a(S'2015-05-19 12:07:54.532000'
S'data saved as csv to C:\\Users\\Jbarrett\\Charlie\\charlie\\data\\csv\\4392_stroop.csv'
tp240
a(S'2015-05-19 12:07:56.124000'
g185
tp241
a(S'2015-05-19 12:07:56.134000'
g187
tp242
a(S'2015-05-19 12:07:56.138000'
S'data saved as csv to C:\\Users\\Jbarrett\\Charlie\\charlie\\data\\csv\\4392_stroop.csv'
tp243
a(S'2015-05-19 12:07:57.111000'
g185
tp244
a(S'2015-05-19 12:07:57.121000'
g187
tp245
a(S'2015-05-19 12:07:57.123000'
S'data saved as csv to C:\\Users\\Jbarrett\\Charlie\\charlie\\data\\csv\\4392_stroop.csv'
tp246
a(S'2015-05-19 12:07:58.494000'
g185
tp247
a(S'2015-05-19 12:07:58.504000'
g187
tp248
a(S'2015-05-19 12:07:58.508000'
S'data saved as csv to C:\\Users\\Jbarrett\\Charlie\\charlie\\data\\csv\\4392_stroop.csv'
tp249
a(S'2015-05-19 12:08:00.050000'
g185
tp250
a(S'2015-05-19 12:08:00.060000'
g187
tp251
a(S'2015-05-19 12:08:00.063000'
S'data saved as csv to C:\\Users\\Jbarrett\\Charlie\\charlie\\data\\csv\\4392_stroop.csv'
tp252
a(S'2015-05-19 12:08:01.574000'
g185
tp253
a(S'2015-05-19 12:08:01.584000'
g187
tp254
a(S'2015-05-19 12:08:01.588000'
S'data saved as csv to C:\\Users\\Jbarrett\\Charlie\\charlie\\data\\csv\\4392_stroop.csv'
tp255
a(S'2015-05-19 12:08:02.550000'
g185
tp256
a(S'2015-05-19 12:08:02.560000'
g187
tp257
a(S'2015-05-19 12:08:02.564000'
S'data saved as csv to C:\\Users\\Jbarrett\\Charlie\\charlie\\data\\csv\\4392_stroop.csv'
tp258
a(S'2015-05-19 12:08:03.957000'
g185
tp259
a(S'2015-05-19 12:08:03.966000'
g187
tp260
a(S'2015-05-19 12:08:03.969000'
S'data saved as csv to C:\\Users\\Jbarrett\\Charlie\\charlie\\data\\csv\\4392_stroop.csv'
tp261
a(S'2015-05-19 12:08:06.091000'
g185
tp262
a(S'2015-05-19 12:08:06.101000'
g187
tp263
a(S'2015-05-19 12:08:06.105000'
S'data saved as csv to C:\\Users\\Jbarrett\\Charlie\\charlie\\data\\csv\\4392_stroop.csv'
tp264
a(S'2015-05-19 12:08:07.589000'
g185
tp265
a(S'2015-05-19 12:08:07.599000'
g187
tp266
a(S'2015-05-19 12:08:07.603000'
S'data saved as csv to C:\\Users\\Jbarrett\\Charlie\\charlie\\data\\csv\\4392_stroop.csv'
tp267
a(S'2015-05-19 12:08:08.663000'
g185
tp268
a(S'2015-05-19 12:08:08.668000'
g187
tp269
a(S'2015-05-19 12:08:08.670000'
S'data saved as csv to C:\\Users\\Jbarrett\\Charlie\\charlie\\data\\csv\\4392_stroop.csv'
tp270
a(S'2015-05-19 12:08:09.853000'
g185
tp271
a(S'2015-05-19 12:08:09.859000'
g187
tp272
a(S'2015-05-19 12:08:09.861000'
S'data saved as csv to C:\\Users\\Jbarrett\\Charlie\\charlie\\data\\csv\\4392_stroop.csv'
tp273
a(S'2015-05-19 12:08:10.963000'
g185
tp274
a(S'2015-05-19 12:08:10.973000'
g187
tp275
a(S'2015-05-19 12:08:10.977000'
S'data saved as csv to C:\\Users\\Jbarrett\\Charlie\\charlie\\data\\csv\\4392_stroop.csv'
tp276
a(S'2015-05-19 12:08:11.940000'
g185
tp277
a(S'2015-05-19 12:08:11.945000'
g187
tp278
a(S'2015-05-19 12:08:11.948000'
S'data saved as csv to C:\\Users\\Jbarrett\\Charlie\\charlie\\data\\csv\\4392_stroop.csv'
tp279
a(S'2015-05-19 12:08:13.056000'
g185
tp280
a(S'2015-05-19 12:08:13.062000'
g187
tp281
a(S'2015-05-19 12:08:13.065000'
S'data saved as csv to C:\\Users\\Jbarrett\\Charlie\\charlie\\data\\csv\\4392_stroop.csv'
tp282
a(S'2015-05-19 12:08:13.953000'
g185
tp283
a(S'2015-05-19 12:08:13.958000'
g187
tp284
a(S'2015-05-19 12:08:13.960000'
S'data saved as csv to C:\\Users\\Jbarrett\\Charlie\\charlie\\data\\csv\\4392_stroop.csv'
tp285
a(S'2015-05-19 12:08:14.991000'
g185
tp286
a(S'2015-05-19 12:08:15.001000'
g187
tp287
a(S'2015-05-19 12:08:15.004000'
S'data saved as csv to C:\\Users\\Jbarrett\\Charlie\\charlie\\data\\csv\\4392_stroop.csv'
tp288
a(S'2015-05-19 12:08:16.274000'
g185
tp289
a(S'2015-05-19 12:08:16.284000'
g187
tp290
a(S'2015-05-19 12:08:16.288000'
S'data saved as csv to C:\\Users\\Jbarrett\\Charlie\\charlie\\data\\csv\\4392_stroop.csv'
tp291
a(S'2015-05-19 12:08:17.061000'
g185
tp292
a(S'2015-05-19 12:08:17.067000'
g187
tp293
a(S'2015-05-19 12:08:17.070000'
S'data saved as csv to C:\\Users\\Jbarrett\\Charlie\\charlie\\data\\csv\\4392_stroop.csv'
tp294
a(S'2015-05-19 12:08:18.092000'
g185
tp295
a(S'2015-05-19 12:08:18.101000'
g187
tp296
a(S'2015-05-19 12:08:18.105000'
S'data saved as csv to C:\\Users\\Jbarrett\\Charlie\\charlie\\data\\csv\\4392_stroop.csv'
tp297
a(S'2015-05-19 12:08:19.310000'
g185
tp298
a(S'2015-05-19 12:08:19.320000'
g187
tp299
a(S'2015-05-19 12:08:19.324000'
S'data saved as csv to C:\\Users\\Jbarrett\\Charlie\\charlie\\data\\csv\\4392_stroop.csv'
tp300
a(S'2015-05-19 12:08:20.174000'
g185
tp301
a(S'2015-05-19 12:08:20.185000'
g187
tp302
a(S'2015-05-19 12:08:20.189000'
S'data saved as csv to C:\\Users\\Jbarrett\\Charlie\\charlie\\data\\csv\\4392_stroop.csv'
tp303
a(S'2015-05-19 12:08:21.591000'
g185
tp304
a(S'2015-05-19 12:08:21.602000'
g187
tp305
a(S'2015-05-19 12:08:21.605000'
S'data saved as csv to C:\\Users\\Jbarrett\\Charlie\\charlie\\data\\csv\\4392_stroop.csv'
tp306
a(S'2015-05-19 12:08:23.456000'
g185
tp307
a(S'2015-05-19 12:08:23.465000'
g187
tp308
a(S'2015-05-19 12:08:23.468000'
S'data saved as csv to C:\\Users\\Jbarrett\\Charlie\\charlie\\data\\csv\\4392_stroop.csv'
tp309
a(S'2015-05-19 12:08:24.599000'
g185
tp310
a(S'2015-05-19 12:08:24.609000'
g187
tp311
a(S'2015-05-19 12:08:24.614000'
S'data saved as csv to C:\\Users\\Jbarrett\\Charlie\\charlie\\data\\csv\\4392_stroop.csv'
tp312
a(S'2015-05-19 12:08:26.768000'
g185
tp313
a(S'2015-05-19 12:08:26.778000'
g187
tp314
a(S'2015-05-19 12:08:26.782000'
S'data saved as csv to C:\\Users\\Jbarrett\\Charlie\\charlie\\data\\csv\\4392_stroop.csv'
tp315
a(S'2015-05-19 12:08:27.727000'
g185
tp316
a(S'2015-05-19 12:08:27.737000'
g187
tp317
a(S'2015-05-19 12:08:27.741000'
S'data saved as csv to C:\\Users\\Jbarrett\\Charlie\\charlie\\data\\csv\\4392_stroop.csv'
tp318
a(S'2015-05-19 12:08:28.734000'
g185
tp319
a(S'2015-05-19 12:08:28.744000'
g187
tp320
a(S'2015-05-19 12:08:28.747000'
S'data saved as csv to C:\\Users\\Jbarrett\\Charlie\\charlie\\data\\csv\\4392_stroop.csv'
tp321
a(S'2015-05-19 12:08:29.681000'
g185
tp322
a(S'2015-05-19 12:08:29.684000'
g187
tp323
a(S'2015-05-19 12:08:29.685000'
S'data saved as csv to C:\\Users\\Jbarrett\\Charlie\\charlie\\data\\csv\\4392_stroop.csv'
tp324
a(S'2015-05-19 12:08:30.885000'
g185
tp325
a(S'2015-05-19 12:08:30.895000'
g187
tp326
a(S'2015-05-19 12:08:30.900000'
S'data saved as csv to C:\\Users\\Jbarrett\\Charlie\\charlie\\data\\csv\\4392_stroop.csv'
tp327
a(S'2015-05-19 12:08:31.884000'
g185
tp328
a(S'2015-05-19 12:08:31.894000'
g187
tp329
a(S'2015-05-19 12:08:31.896000'
S'data saved as csv to C:\\Users\\Jbarrett\\Charlie\\charlie\\data\\csv\\4392_stroop.csv'
tp330
a(S'2015-05-19 12:08:33.195000'
g185
tp331
a(S'2015-05-19 12:08:33.205000'
g187
tp332
a(S'2015-05-19 12:08:33.210000'
S'data saved as csv to C:\\Users\\Jbarrett\\Charlie\\charlie\\data\\csv\\4392_stroop.csv'
tp333
a(S'2015-05-19 12:08:34.232000'
g185
tp334
a(S'2015-05-19 12:08:34.239000'
g187
tp335
a(S'2015-05-19 12:08:34.242000'
S'data saved as csv to C:\\Users\\Jbarrett\\Charlie\\charlie\\data\\csv\\4392_stroop.csv'
tp336
a(S'2015-05-19 12:08:36.254000'
g185
tp337
a(S'2015-05-19 12:08:36.264000'
g187
tp338
a(S'2015-05-19 12:08:36.269000'
S'data saved as csv to C:\\Users\\Jbarrett\\Charlie\\charlie\\data\\csv\\4392_stroop.csv'
tp339
a(S'2015-05-19 12:08:38.034000'
g185
tp340
a(S'2015-05-19 12:08:38.044000'
g187
tp341
a(S'2015-05-19 12:08:38.047000'
S'data saved as csv to C:\\Users\\Jbarrett\\Charlie\\charlie\\data\\csv\\4392_stroop.csv'
tp342
a(S'2015-05-19 12:08:43.170000'
g185
tp343
a(S'2015-05-19 12:08:43.178000'
g187
tp344
a(S'2015-05-19 12:08:43.180000'
S'data saved as csv to C:\\Users\\Jbarrett\\Charlie\\charlie\\data\\csv\\4392_stroop.csv'
tp345
a(S'2015-05-19 12:08:44.237000'
g185
tp346
a(S'2015-05-19 12:08:44.244000'
g187
tp347
a(S'2015-05-19 12:08:44.247000'
S'data saved as csv to C:\\Users\\Jbarrett\\Charlie\\charlie\\data\\csv\\4392_stroop.csv'
tp348
a(S'2015-05-19 12:08:45.067000'
g185
tp349
a(S'2015-05-19 12:08:45.073000'
g187
tp350
a(S'2015-05-19 12:08:45.075000'
S'data saved as csv to C:\\Users\\Jbarrett\\Charlie\\charlie\\data\\csv\\4392_stroop.csv'
tp351
a(S'2015-05-19 12:08:46.325000'
g185
tp352
a(S'2015-05-19 12:08:46.332000'
g187
tp353
a(S'2015-05-19 12:08:46.335000'
S'data saved as csv to C:\\Users\\Jbarrett\\Charlie\\charlie\\data\\csv\\4392_stroop.csv'
tp354
a(S'2015-05-19 12:08:47.877000'
g185
tp355
a(S'2015-05-19 12:08:47.886000'
g187
tp356
a(S'2015-05-19 12:08:47.889000'
S'data saved as csv to C:\\Users\\Jbarrett\\Charlie\\charlie\\data\\csv\\4392_stroop.csv'
tp357
a(S'2015-05-19 12:08:52.982000'
g185
tp358
a(S'2015-05-19 12:08:52.990000'
g187
tp359
a(S'2015-05-19 12:08:52.993000'
S'data saved as csv to C:\\Users\\Jbarrett\\Charlie\\charlie\\data\\csv\\4392_stroop.csv'
tp360
a(S'2015-05-19 12:08:54.914000'
g185
tp361
a(S'2015-05-19 12:08:54.925000'
g187
tp362
a(S'2015-05-19 12:08:54.929000'
S'data saved as csv to C:\\Users\\Jbarrett\\Charlie\\charlie\\data\\csv\\4392_stroop.csv'
tp363
a(S'2015-05-19 12:08:56.911000'
g185
tp364
a(S'2015-05-19 12:08:56.919000'
g187
tp365
a(S'2015-05-19 12:08:56.921000'
S'data saved as csv to C:\\Users\\Jbarrett\\Charlie\\charlie\\data\\csv\\4392_stroop.csv'
tp366
a(S'2015-05-19 12:08:58.834000'
g185
tp367
a(S'2015-05-19 12:08:58.844000'
g187
tp368
a(S'2015-05-19 12:08:58.849000'
S'data saved as csv to C:\\Users\\Jbarrett\\Charlie\\charlie\\data\\csv\\4392_stroop.csv'
tp369
a(S'2015-05-19 12:09:02.635000'
g185
tp370
a(S'2015-05-19 12:09:02.645000'
g187
tp371
a(S'2015-05-19 12:09:02.648000'
S'data saved as csv to C:\\Users\\Jbarrett\\Charlie\\charlie\\data\\csv\\4392_stroop.csv'
tp372
a(S'2015-05-19 12:09:03.970000'
g185
tp373
a(S'2015-05-19 12:09:03.980000'
g187
tp374
a(S'2015-05-19 12:09:03.985000'
S'data saved as csv to C:\\Users\\Jbarrett\\Charlie\\charlie\\data\\csv\\4392_stroop.csv'
tp375
a(S'2015-05-19 12:09:05.856000'
g185
tp376
a(S'2015-05-19 12:09:05.864000'
g187
tp377
a(S'2015-05-19 12:09:05.867000'
S'data saved as csv to C:\\Users\\Jbarrett\\Charlie\\charlie\\data\\csv\\4392_stroop.csv'
tp378
a(S'2015-05-19 12:09:06.858000'
g185
tp379
a(S'2015-05-19 12:09:06.864000'
g187
tp380
a(S'2015-05-19 12:09:06.867000'
S'data saved as csv to C:\\Users\\Jbarrett\\Charlie\\charlie\\data\\csv\\4392_stroop.csv'
tp381
a(S'2015-05-19 12:09:09.722000'
g185
tp382
a(S'2015-05-19 12:09:09.731000'
g187
tp383
a(S'2015-05-19 12:09:09.735000'
S'data saved as csv to C:\\Users\\Jbarrett\\Charlie\\charlie\\data\\csv\\4392_stroop.csv'
tp384
a(S'2015-05-19 12:09:12.738000'
g185
tp385
a(S'2015-05-19 12:09:12.747000'
g187
tp386
a(S'2015-05-19 12:09:12.751000'
S'data saved as csv to C:\\Users\\Jbarrett\\Charlie\\charlie\\data\\csv\\4392_stroop.csv'
tp387
a(S'2015-05-19 12:09:14.523000'
g185
tp388
a(S'2015-05-19 12:09:14.530000'
g187
tp389
a(S'2015-05-19 12:09:14.532000'
S'data saved as csv to C:\\Users\\Jbarrett\\Charlie\\charlie\\data\\csv\\4392_stroop.csv'
tp390
a(S'2015-05-19 12:09:16.544000'
g185
tp391
a(S'2015-05-19 12:09:16.554000'
g187
tp392
a(S'2015-05-19 12:09:16.559000'
S'data saved as csv to C:\\Users\\Jbarrett\\Charlie\\charlie\\data\\csv\\4392_stroop.csv'
tp393
a(S'2015-05-19 12:09:17.674000'
g185
tp394
a(S'2015-05-19 12:09:17.684000'
g187
tp395
a(S'2015-05-19 12:09:17.689000'
S'data saved as csv to C:\\Users\\Jbarrett\\Charlie\\charlie\\data\\csv\\4392_stroop.csv'
tp396
a(S'2015-05-19 12:09:19.645000'
g185
tp397
a(S'2015-05-19 12:09:19.656000'
g187
tp398
a(S'2015-05-19 12:09:19.658000'
S'data saved as csv to C:\\Users\\Jbarrett\\Charlie\\charlie\\data\\csv\\4392_stroop.csv'
tp399
a(S'2015-05-19 12:09:21.068000'
g185
tp400
a(S'2015-05-19 12:09:21.070000'
g187
tp401
a(S'2015-05-19 12:09:21.072000'
S'data saved as csv to C:\\Users\\Jbarrett\\Charlie\\charlie\\data\\csv\\4392_stroop.csv'
tp402
a(S'2015-05-19 12:09:22.044000'
g185
tp403
a(S'2015-05-19 12:09:22.054000'
g187
tp404
a(S'2015-05-19 12:09:22.058000'
S'data saved as csv to C:\\Users\\Jbarrett\\Charlie\\charlie\\data\\csv\\4392_stroop.csv'
tp405
a(S'2015-05-19 12:09:23.230000'
g185
tp406
a(S'2015-05-19 12:09:23.240000'
g187
tp407
a(S'2015-05-19 12:09:23.245000'
S'data saved as csv to C:\\Users\\Jbarrett\\Charlie\\charlie\\data\\csv\\4392_stroop.csv'
tp408
a(S'2015-05-19 12:09:24.660000'
g185
tp409
a(S'2015-05-19 12:09:24.668000'
g187
tp410
a(S'2015-05-19 12:09:24.671000'
S'data saved as csv to C:\\Users\\Jbarrett\\Charlie\\charlie\\data\\csv\\4392_stroop.csv'
tp411
a(S'2015-05-19 12:09:25.964000'
g185
tp412
a(S'2015-05-19 12:09:25.975000'
g187
tp413
a(S'2015-05-19 12:09:25.979000'
S'data saved as csv to C:\\Users\\Jbarrett\\Charlie\\charlie\\data\\csv\\4392_stroop.csv'
tp414
a(S'2015-05-19 12:09:27.664000'
g185
tp415
a(S'2015-05-19 12:09:27.675000'
g187
tp416
a(S'2015-05-19 12:09:27.680000'
S'data saved as csv to C:\\Users\\Jbarrett\\Charlie\\charlie\\data\\csv\\4392_stroop.csv'
tp417
a(S'2015-05-19 12:09:29.840000'
g185
tp418
a(S'2015-05-19 12:09:29.846000'
g187
tp419
a(S'2015-05-19 12:09:29.849000'
S'data saved as csv to C:\\Users\\Jbarrett\\Charlie\\charlie\\data\\csv\\4392_stroop.csv'
tp420
a(S'2015-05-19 12:09:31.562000'
g185
tp421
a(S'2015-05-19 12:09:31.570000'
g187
tp422
a(S'2015-05-19 12:09:31.573000'
S'data saved as csv to C:\\Users\\Jbarrett\\Charlie\\charlie\\data\\csv\\4392_stroop.csv'
tp423
a(S'2015-05-19 12:09:33.656000'
g185
tp424
a(S'2015-05-19 12:09:33.667000'
g187
tp425
a(S'2015-05-19 12:09:33.670000'
S'data saved as csv to C:\\Users\\Jbarrett\\Charlie\\charlie\\data\\csv\\4392_stroop.csv'
tp426
a(S'2015-05-19 12:09:35.272000'
g185
tp427
a(S'2015-05-19 12:09:35.283000'
g187
tp428
a(S'2015-05-19 12:09:35.287000'
S'data saved as csv to C:\\Users\\Jbarrett\\Charlie\\charlie\\data\\csv\\4392_stroop.csv'
tp429
a(S'2015-05-19 12:09:37.890000'
g185
tp430
a(S'2015-05-19 12:09:37.900000'
g187
tp431
a(S'2015-05-19 12:09:37.902000'
S'data saved as csv to C:\\Users\\Jbarrett\\Charlie\\charlie\\data\\csv\\4392_stroop.csv'
tp432
a(S'2015-05-19 12:09:39.275000'
g185
tp433
a(S'2015-05-19 12:09:39.285000'
g187
tp434
a(S'2015-05-19 12:09:39.290000'
S'data saved as csv to C:\\Users\\Jbarrett\\Charlie\\charlie\\data\\csv\\4392_stroop.csv'
tp435
a(S'2015-05-19 12:09:40.235000'
g185
tp436
a(S'2015-05-19 12:09:40.246000'
g187
tp437
a(S'2015-05-19 12:09:40.251000'
S'data saved as csv to C:\\Users\\Jbarrett\\Charlie\\charlie\\data\\csv\\4392_stroop.csv'
tp438
a(S'2015-05-19 12:09:41.686000'
g185
tp439
a(S'2015-05-19 12:09:41.697000'
g187
tp440
a(S'2015-05-19 12:09:41.701000'
S'data saved as csv to C:\\Users\\Jbarrett\\Charlie\\charlie\\data\\csv\\4392_stroop.csv'
tp441
a(S'2015-05-19 12:09:43.106000'
g185
tp442
a(S'2015-05-19 12:09:43.116000'
g187
tp443
a(S'2015-05-19 12:09:43.119000'
S'data saved as csv to C:\\Users\\Jbarrett\\Charlie\\charlie\\data\\csv\\4392_stroop.csv'
tp444
a(S'2015-05-19 12:09:45.713000'
g185
tp445
a(S'2015-05-19 12:09:45.723000'
g187
tp446
a(S'2015-05-19 12:09:45.728000'
S'data saved as csv to C:\\Users\\Jbarrett\\Charlie\\charlie\\data\\csv\\4392_stroop.csv'
tp447
a(S'2015-05-19 12:09:49.132000'
g185
tp448
a(S'2015-05-19 12:09:49.143000'
g187
tp449
a(S'2015-05-19 12:09:49.147000'
S'data saved as csv to C:\\Users\\Jbarrett\\Charlie\\charlie\\data\\csv\\4392_stroop.csv'
tp450
a(S'2015-05-19 12:09:51.181000'
g185
tp451
a(S'2015-05-19 12:09:51.190000'
g187
tp452
a(S'2015-05-19 12:09:51.193000'
S'data saved as csv to C:\\Users\\Jbarrett\\Charlie\\charlie\\data\\csv\\4392_stroop.csv'
tp453
a(S'2015-05-19 12:09:52.015000'
g185
tp454
a(S'2015-05-19 12:09:52.026000'
g187
tp455
a(S'2015-05-19 12:09:52.029000'
S'data saved as csv to C:\\Users\\Jbarrett\\Charlie\\charlie\\data\\csv\\4392_stroop.csv'
tp456
a(S'2015-05-19 12:09:53.371000'
g185
tp457
a(S'2015-05-19 12:09:53.380000'
g187
tp458
a(S'2015-05-19 12:09:53.383000'
S'data saved as csv to C:\\Users\\Jbarrett\\Charlie\\charlie\\data\\csv\\4392_stroop.csv'
tp459
a(S'2015-05-19 12:09:56.196000'
g185
tp460
a(S'2015-05-19 12:09:56.207000'
g187
tp461
a(S'2015-05-19 12:09:56.212000'
S'data saved as csv to C:\\Users\\Jbarrett\\Charlie\\charlie\\data\\csv\\4392_stroop.csv'
tp462
a(S'2015-05-19 12:09:58.987000'
g185
tp463
a(S'2015-05-19 12:09:58.998000'
g187
tp464
a(S'2015-05-19 12:09:59.003000'
S'data saved as csv to C:\\Users\\Jbarrett\\Charlie\\charlie\\data\\csv\\4392_stroop.csv'
tp465
a(S'2015-05-19 12:10:00.568000'
g185
tp466
a(S'2015-05-19 12:10:00.578000'
g187
tp467
a(S'2015-05-19 12:10:00.581000'
S'data saved as csv to C:\\Users\\Jbarrett\\Charlie\\charlie\\data\\csv\\4392_stroop.csv'
tp468
a(S'2015-05-19 12:10:01.923000'
g185
tp469
a(S'2015-05-19 12:10:01.934000'
g187
tp470
a(S'2015-05-19 12:10:01.939000'
S'data saved as csv to C:\\Users\\Jbarrett\\Charlie\\charlie\\data\\csv\\4392_stroop.csv'
tp471
a(S'2015-05-19 12:10:04.046000'
g185
tp472
a(S'2015-05-19 12:10:04.057000'
g187
tp473
a(S'2015-05-19 12:10:04.060000'
S'data saved as csv to C:\\Users\\Jbarrett\\Charlie\\charlie\\data\\csv\\4392_stroop.csv'
tp474
a(S'2015-05-19 12:10:05.601000'
g185
tp475
a(S'2015-05-19 12:10:05.612000'
g187
tp476
a(S'2015-05-19 12:10:05.617000'
S'data saved as csv to C:\\Users\\Jbarrett\\Charlie\\charlie\\data\\csv\\4392_stroop.csv'
tp477
a(S'2015-05-19 12:10:06.669000'
g185
tp478
a(S'2015-05-19 12:10:06.680000'
g187
tp479
a(S'2015-05-19 12:10:06.685000'
S'data saved as csv to C:\\Users\\Jbarrett\\Charlie\\charlie\\data\\csv\\4392_stroop.csv'
tp480
a(S'2015-05-19 12:10:08.181000'
g185
tp481
a(S'2015-05-19 12:10:08.192000'
g187
tp482
a(S'2015-05-19 12:10:08.197000'
S'data saved as csv to C:\\Users\\Jbarrett\\Charlie\\charlie\\data\\csv\\4392_stroop.csv'
tp483
a(S'2015-05-19 12:10:10.310000'
g185
tp484
a(S'2015-05-19 12:10:10.321000'
g187
tp485
a(S'2015-05-19 12:10:10.326000'
S'data saved as csv to C:\\Users\\Jbarrett\\Charlie\\charlie\\data\\csv\\4392_stroop.csv'
tp486
a(S'2015-05-19 12:10:11.929000'
g185
tp487
a(S'2015-05-19 12:10:11.940000'
g187
tp488
a(S'2015-05-19 12:10:11.946000'
S'data saved as csv to C:\\Users\\Jbarrett\\Charlie\\charlie\\data\\csv\\4392_stroop.csv'
tp489
a(S'2015-05-19 12:10:14.500000'
g185
tp490
a(S'2015-05-19 12:10:14.511000'
g187
tp491
a(S'2015-05-19 12:10:14.516000'
S'data saved as csv to C:\\Users\\Jbarrett\\Charlie\\charlie\\data\\csv\\4392_stroop.csv'
tp492
a(S'2015-05-19 12:10:16.592000'
g185
tp493
a(S'2015-05-19 12:10:16.601000'
g187
tp494
a(S'2015-05-19 12:10:16.604000'
S'data saved as csv to C:\\Users\\Jbarrett\\Charlie\\charlie\\data\\csv\\4392_stroop.csv'
tp495
a(S'2015-05-19 12:10:18.799000'
g185
tp496
a(S'2015-05-19 12:10:18.810000'
g187
tp497
a(S'2015-05-19 12:10:18.815000'
S'data saved as csv to C:\\Users\\Jbarrett\\Charlie\\charlie\\data\\csv\\4392_stroop.csv'
tp498
a(S'2015-05-19 12:10:20.050000'
g185
tp499
a(S'2015-05-19 12:10:20.061000'
g187
tp500
a(S'2015-05-19 12:10:20.066000'
S'data saved as csv to C:\\Users\\Jbarrett\\Charlie\\charlie\\data\\csv\\4392_stroop.csv'
tp501
a(S'2015-05-19 12:10:22.812000'
g185
tp502
a(S'2015-05-19 12:10:22.823000'
g187
tp503
a(S'2015-05-19 12:10:22.828000'
S'data saved as csv to C:\\Users\\Jbarrett\\Charlie\\charlie\\data\\csv\\4392_stroop.csv'
tp504
a(S'2015-05-19 12:10:24.623000'
g185
tp505
a(S'2015-05-19 12:10:24.634000'
g187
tp506
a(S'2015-05-19 12:10:24.639000'
S'data saved as csv to C:\\Users\\Jbarrett\\Charlie\\charlie\\data\\csv\\4392_stroop.csv'
tp507
a(S'2015-05-19 12:10:26.062000'
g185
tp508
a(S'2015-05-19 12:10:26.073000'
g187
tp509
a(S'2015-05-19 12:10:26.078000'
S'data saved as csv to C:\\Users\\Jbarrett\\Charlie\\charlie\\data\\csv\\4392_stroop.csv'
tp510
a(S'2015-05-19 12:10:29.352000'
g185
tp511
a(S'2015-05-19 12:10:29.363000'
g187
tp512
a(S'2015-05-19 12:10:29.368000'
S'data saved as csv to C:\\Users\\Jbarrett\\Charlie\\charlie\\data\\csv\\4392_stroop.csv'
tp513
a(S'2015-05-19 12:10:30.193000'
g185
tp514
a(S'2015-05-19 12:10:30.196000'
g187
tp515
a(S'2015-05-19 12:10:30.198000'
S'data saved as csv to C:\\Users\\Jbarrett\\Charlie\\charlie\\data\\csv\\4392_stroop.csv'
tp516
a(S'2015-05-19 12:10:31.209000'
g185
tp517
a(S'2015-05-19 12:10:31.220000'
g187
tp518
a(S'2015-05-19 12:10:31.226000'
S'data saved as csv to C:\\Users\\Jbarrett\\Charlie\\charlie\\data\\csv\\4392_stroop.csv'
tp519
a(S'2015-05-19 12:10:33.261000'
g185
tp520
a(S'2015-05-19 12:10:33.272000'
g187
tp521
a(S'2015-05-19 12:10:33.277000'
S'data saved as csv to C:\\Users\\Jbarrett\\Charlie\\charlie\\data\\csv\\4392_stroop.csv'
tp522
a(S'2015-05-19 12:10:34.871000'
g185
tp523
a(S'2015-05-19 12:10:34.882000'
g187
tp524
a(S'2015-05-19 12:10:34.887000'
S'data saved as csv to C:\\Users\\Jbarrett\\Charlie\\charlie\\data\\csv\\4392_stroop.csv'
tp525
a(S'2015-05-19 12:10:36.082000'
g185
tp526
a(S'2015-05-19 12:10:36.094000'
g187
tp527
a(S'2015-05-19 12:10:36.099000'
S'data saved as csv to C:\\Users\\Jbarrett\\Charlie\\charlie\\data\\csv\\4392_stroop.csv'
tp528
a(S'2015-05-19 12:10:37.191000'
g185
tp529
a(S'2015-05-19 12:10:37.194000'
g187
tp530
a(S'2015-05-19 12:10:37.195000'
S'data saved as csv to C:\\Users\\Jbarrett\\Charlie\\charlie\\data\\csv\\4392_stroop.csv'
tp531
a(S'2015-05-19 12:10:38.488000'
g185
tp532
a(S'2015-05-19 12:10:38.499000'
g187
tp533
a(S'2015-05-19 12:10:38.502000'
S'data saved as csv to C:\\Users\\Jbarrett\\Charlie\\charlie\\data\\csv\\4392_stroop.csv'
tp534
asb.