(icharlie.tools.data
Data
p1
(dp2
S'lang'
p3
S'EN'
p4
sS'control'
p5
(lp6
sS'last_updated'
p7
cdatetime
datetime
p8
(S'\x07\xdf\x05\x16\x0c+,\x05W0'
tRp9
sS'last_opened'
p10
g8
(S'\x07\xdf\x05\x16\x0c&\x03\x06* '
tRp11
sS'proj_id'
p12
S'connectivity'
p13
sS'date_done'
p14
g8
(S'\x07\xdf\x05\x16\x0c+,\x050 '
tRp15
sS'test_done'
p16
I01
sS'data'
p17
(lp18
(S'4394'
p19
S'verbal_fluency'
p20
I0
S'True'
p21
tp22
a(g19
g20
I0
g21
tp23
a(g19
g20
I0
g21
tp24
a(g19
g20
I0
g21
tp25
a(g19
g20
I0
g21
tp26
a(g19
g20
I0
g21
tp27
a(g19
g20
I0
g21
tp28
a(g19
g20
I0
g21
tp29
a(g19
g20
I0
g21
tp30
a(g19
g20
I0
g21
tp31
a(g19
g20
I1
g21
tp32
a(g19
g20
I1
g21
tp33
a(g19
g20
I1
g21
tp34
a(g19
g20
I1
g21
tp35
a(g19
g20
I1
g21
tp36
a(g19
g20
I1
g21
tp37
a(g19
g20
I1
g21
tp38
a(g19
g20
I1
g21
tp39
a(g19
g20
I1
g21
tp40
a(g19
g20
I1
g21
tp41
a(g19
g20
I1
g21
tp42
a(g19
g20
I2
g21
tp43
a(g19
g20
I2
g21
tp44
a(g19
g20
I2
g21
tp45
a(g19
g20
I2
g21
tp46
a(g19
g20
I2
g21
tp47
a(g19
g20
I2
g21
tp48
a(g19
g20
I2
g21
tp49
a(g19
g20
I2
g21
tp50
a(g19
g20
I2
g21
tp51
a(g19
g20
I2
g21
tp52
a(g19
g20
I2
g21
tp53
a(g19
g20
I2
g21
tp54
a(g19
g20
I2
g21
tp55
a(g19
g20
I2
g21
tp56
a(g19
g20
I2
g21
tp57
a(g19
g20
I2
g21
tp58
a(g19
g20
I3
g21
tp59
a(g19
g20
I3
g21
tp60
a(g19
g20
I3
g21
tp61
a(g19
g20
I3
g21
tp62
a(g19
g20
I3
g21
tp63
a(g19
g20
I3
g21
tp64
a(g19
g20
I3
g21
tp65
a(g19
g20
I3
g21
tp66
a(g19
g20
I3
g21
tp67
a(g19
g20
I3
g21
tp68
a(g19
g20
I3
g21
tp69
a(g19
g20
I3
g21
tp70
a(g19
g20
I3
g21
tp71
a(g19
g20
I3
g21
tp72
a(g19
g20
I3
g21
tp73
a(g19
g20
I3
g21
tp74
a(g19
g20
I3
g21
tp75
a(g19
g20
I3
g21
tp76
a(g19
g20
I3
g21
tp77
a(g19
g20
I3
g21
tp78
a(g19
g20
I3
g21
tp79
a(g19
g20
I3
g21
tp80
a(g19
g20
I3
g21
tp81
a(g19
g20
I3
g21
tp82
a(g19
g20
I3
g21
tp83
a(g19
g20
I3
g21
tp84
a(g19
g20
I3
g21
tp85
a(g19
g20
I3
g21
tp86
asS'output_format'
p87
(lp88
(S'proband_id'
p89
c__builtin__
str
p90
tp91
a(S'test_name'
p92
g90
tp93
a(S'trialn'
p94
c__builtin__
int
p95
tp96
a(S'rsp'
p97
g90
tp98
asg89
g19
sS'filename'
p99
S'4394_verbal_fluency.data'
p100
sS'initialised'
p101
g8
(S'\x07\xdf\x05\x16\x0c&\x03\x06* '
tRp102
sS'last_udated'
p103
g8
(S'\x07\xdf\x05\x16\x0c&\x03\x06* '
tRp104
sg92
S'verbal_fluency'
p105
sS'directory'
p106
S'c:\\Charlie\\charlie\\data\\raw'
p107
sS'user_id'
p108
S'oleach'
p109
sS'test_started'
p110
I01
sS'abs_filename'
p111
S'c:\\Charlie\\charlie\\data\\raw\\4394_verbal_fluency.data'
p112
sS'date_started'
p113
g8
(S'\x07\xdf\x05\x16\x0c(\t\r\x88\xd8'
tRp114
sS'log'
p115
(lp116
(S'2015-05-22 12:38:03.404000'
S'instance created'
p117
tp118
a(S'2015-05-22 12:40:09.893000'
S'instance updated'
p119
tp120
a(S'2015-05-22 12:40:09.895000'
S'pandas DataFrame of data created'
p121
tp122
a(S'2015-05-22 12:40:09.898000'
S'data saved as csv to c:\\Charlie\\charlie\\data\\csv\\4394_verbal_fluency.csv'
tp123
a(S'2015-05-22 12:40:10.455000'
g119
tp124
a(S'2015-05-22 12:40:10.460000'
g121
tp125
a(S'2015-05-22 12:40:10.464000'
S'data saved as csv to c:\\Charlie\\charlie\\data\\csv\\4394_verbal_fluency.csv'
tp126
a(S'2015-05-22 12:41:18.655000'
g119
tp127
a(S'2015-05-22 12:41:18.660000'
g121
tp128
a(S'2015-05-22 12:41:18.664000'
S'data saved as csv to c:\\Charlie\\charlie\\data\\csv\\4394_verbal_fluency.csv'
tp129
a(S'2015-05-22 12:41:22.950000'
g119
tp130
a(S'2015-05-22 12:41:22.955000'
g121
tp131
a(S'2015-05-22 12:41:22.959000'
S'data saved as csv to c:\\Charlie\\charlie\\data\\csv\\4394_verbal_fluency.csv'
tp132
a(S'2015-05-22 12:42:28.527000'
g119
tp133
a(S'2015-05-22 12:42:28.532000'
g121
tp134
a(S'2015-05-22 12:42:28.536000'
S'data saved as csv to c:\\Charlie\\charlie\\data\\csv\\4394_verbal_fluency.csv'
tp135
a(S'2015-05-22 12:42:37.795000'
g119
tp136
a(S'2015-05-22 12:42:37.800000'
g121
tp137
a(S'2015-05-22 12:42:37.804000'
S'data saved as csv to c:\\Charlie\\charlie\\data\\csv\\4394_verbal_fluency.csv'
tp138
a(S'2015-05-22 12:43:44.340000'
g119
tp139
a(S'2015-05-22 12:43:44.346000'
g121
tp140
a(S'2015-05-22 12:43:44.350000'
S'data saved as csv to c:\\Charlie\\charlie\\data\\csv\\4394_verbal_fluency.csv'
tp141
asb.