(icharlie.tools.data
Data
p1
(dp2
S'lang'
p3
S'EN'
p4
sS'control'
p5
(lp6
sS'last_updated'
p7
cdatetime
datetime
p8
(S'\x07\xdf\x05\x16\x0c,0\x00\xc3P'
tRp9
sS'last_opened'
p10
g8
(S'\x07\xdf\x05\x16\x0c+,\x0cX('
tRp11
sS'proj_id'
p12
S'connectivity'
p13
sS'date_done'
p14
NsS'test_done'
p15
I01
sS'data'
p16
(lp17
(S'4394'
p18
S'face_memory_delay'
p19
S'test'
p20
I0
S'c:\\Charlie\\charlie\\stimuli\\visual\\face_memory_delay\\ddis10.bmp'
S'No'
p21
g21
I1130
tp22
a(g18
g19
g20
I1
S'c:\\Charlie\\charlie\\stimuli\\visual\\face_memory_delay\\ddis04.bmp'
g21
g21
I1200
tp23
a(g18
g19
g20
I2
S'c:\\Charlie\\charlie\\stimuli\\visual\\face_memory_delay\\tar07.bmp'
S'Yes'
p24
g24
I890
tp25
a(g18
g19
g20
I3
S'c:\\Charlie\\charlie\\stimuli\\visual\\face_memory_delay\\tar18.bmp'
g24
g24
I810
tp26
a(g18
g19
g20
I4
S'c:\\Charlie\\charlie\\stimuli\\visual\\face_memory_delay\\ddis14.bmp'
g21
g21
I1110
tp27
a(g18
g19
g20
I5
S'c:\\Charlie\\charlie\\stimuli\\visual\\face_memory_delay\\tar19.bmp'
g24
g24
I770
tp28
a(g18
g19
g20
I6
S'c:\\Charlie\\charlie\\stimuli\\visual\\face_memory_delay\\ddis13.bmp'
g21
g21
I920
tp29
a(g18
g19
g20
I7
S'c:\\Charlie\\charlie\\stimuli\\visual\\face_memory_delay\\tar15.bmp'
g24
g24
I800
tp30
a(g18
g19
g20
I8
S'c:\\Charlie\\charlie\\stimuli\\visual\\face_memory_delay\\tar11.bmp'
g24
g24
I850
tp31
a(g18
g19
g20
I9
S'c:\\Charlie\\charlie\\stimuli\\visual\\face_memory_delay\\ddis05.bmp'
g21
g21
I980
tp32
a(g18
g19
g20
I10
S'c:\\Charlie\\charlie\\stimuli\\visual\\face_memory_delay\\ddis01.bmp'
g21
g21
I740
tp33
a(g18
g19
g20
I11
S'c:\\Charlie\\charlie\\stimuli\\visual\\face_memory_delay\\ddis16.bmp'
g21
g21
I750
tp34
a(g18
g19
g20
I12
S'c:\\Charlie\\charlie\\stimuli\\visual\\face_memory_delay\\tar02.bmp'
g24
g24
I801
tp35
a(g18
g19
g20
I13
S'c:\\Charlie\\charlie\\stimuli\\visual\\face_memory_delay\\tar08.bmp'
g24
g24
I800
tp36
a(g18
g19
g20
I14
S'c:\\Charlie\\charlie\\stimuli\\visual\\face_memory_delay\\tar13.bmp'
g24
g24
I690
tp37
a(g18
g19
g20
I15
S'c:\\Charlie\\charlie\\stimuli\\visual\\face_memory_delay\\tar20.bmp'
g24
g24
I700
tp38
a(g18
g19
g20
I16
S'c:\\Charlie\\charlie\\stimuli\\visual\\face_memory_delay\\ddis18.bmp'
g21
g21
I710
tp39
a(g18
g19
g20
I17
S'c:\\Charlie\\charlie\\stimuli\\visual\\face_memory_delay\\tar06.bmp'
g24
g24
I1160
tp40
a(g18
g19
g20
I18
S'c:\\Charlie\\charlie\\stimuli\\visual\\face_memory_delay\\ddis07.bmp'
g21
g21
I670
tp41
a(g18
g19
g20
I19
S'c:\\Charlie\\charlie\\stimuli\\visual\\face_memory_delay\\ddis08.bmp'
g21
g21
I770
tp42
a(g18
g19
g20
I20
S'c:\\Charlie\\charlie\\stimuli\\visual\\face_memory_delay\\tar12.bmp'
g24
g24
I810
tp43
a(g18
g19
g20
I21
S'c:\\Charlie\\charlie\\stimuli\\visual\\face_memory_delay\\ddis17.bmp'
g21
g21
I880
tp44
a(g18
g19
g20
I22
S'c:\\Charlie\\charlie\\stimuli\\visual\\face_memory_delay\\tar05.bmp'
g24
g24
I660
tp45
a(g18
g19
g20
I23
S'c:\\Charlie\\charlie\\stimuli\\visual\\face_memory_delay\\tar10.bmp'
g24
g24
I860
tp46
a(g18
g19
g20
I24
S'c:\\Charlie\\charlie\\stimuli\\visual\\face_memory_delay\\ddis02.bmp'
g21
g21
I800
tp47
a(g18
g19
g20
I25
S'c:\\Charlie\\charlie\\stimuli\\visual\\face_memory_delay\\ddis20.bmp'
g21
g21
I1220
tp48
a(g18
g19
g20
I26
S'c:\\Charlie\\charlie\\stimuli\\visual\\face_memory_delay\\tar17.bmp'
g24
g24
I790
tp49
a(g18
g19
g20
I27
S'c:\\Charlie\\charlie\\stimuli\\visual\\face_memory_delay\\ddis15.bmp'
g21
g21
I850
tp50
a(g18
g19
g20
I28
S'c:\\Charlie\\charlie\\stimuli\\visual\\face_memory_delay\\tar03.bmp'
g24
g24
I760
tp51
a(g18
g19
g20
I29
S'c:\\Charlie\\charlie\\stimuli\\visual\\face_memory_delay\\ddis19.bmp'
g21
g21
I830
tp52
a(g18
g19
g20
I30
S'c:\\Charlie\\charlie\\stimuli\\visual\\face_memory_delay\\ddis12.bmp'
g21
g21
I1631
tp53
a(g18
g19
g20
I31
S'c:\\Charlie\\charlie\\stimuli\\visual\\face_memory_delay\\tar16.bmp'
g24
g24
I940
tp54
a(g18
g19
g20
I32
S'c:\\Charlie\\charlie\\stimuli\\visual\\face_memory_delay\\tar09.bmp'
g24
g24
I850
tp55
a(g18
g19
g20
I33
S'c:\\Charlie\\charlie\\stimuli\\visual\\face_memory_delay\\ddis09.bmp'
g21
g21
I1050
tp56
a(g18
g19
g20
I34
S'c:\\Charlie\\charlie\\stimuli\\visual\\face_memory_delay\\tar01.bmp'
g24
g24
I810
tp57
a(g18
g19
g20
I35
S'c:\\Charlie\\charlie\\stimuli\\visual\\face_memory_delay\\ddis11.bmp'
g21
g21
I890
tp58
a(g18
g19
g20
I36
S'c:\\Charlie\\charlie\\stimuli\\visual\\face_memory_delay\\ddis03.bmp'
g21
g21
I900
tp59
a(g18
g19
g20
I37
S'c:\\Charlie\\charlie\\stimuli\\visual\\face_memory_delay\\tar04.bmp'
g24
g24
I770
tp60
a(g18
g19
g20
I38
S'c:\\Charlie\\charlie\\stimuli\\visual\\face_memory_delay\\tar14.bmp'
g24
g24
I880
tp61
a(g18
g19
g20
I39
S'c:\\Charlie\\charlie\\stimuli\\visual\\face_memory_delay\\ddis06.bmp'
p62
g21
g21
I790
tp63
asS'output_format'
p64
(lp65
(S'proband_id'
p66
c__builtin__
str
p67
tp68
a(S'test_name'
p69
g67
tp70
a(S'phase'
p71
g67
tp72
a(S'trialn'
p73
c__builtin__
int
p74
tp75
a(S'f'
g67
tp76
a(S'ans'
p77
g67
tp78
a(S'rsp'
p79
g67
tp80
a(S'rt'
p81
g74
tp82
asg66
g18
sS'filename'
p83
S'4394_face_memory_delay.data'
p84
sS'initialised'
p85
g8
(S'\x07\xdf\x05\x16\x0c+,\x0cX('
tRp86
sS'last_udated'
p87
g8
(S'\x07\xdf\x05\x16\x0c+,\x0cX('
tRp88
sg69
S'face_memory_delay'
p89
sS'directory'
p90
S'c:\\Charlie\\charlie\\data\\raw'
p91
sS'user_id'
p92
S'oleach'
p93
sS'test_started'
p94
I01
sS'abs_filename'
p95
S'c:\\Charlie\\charlie\\data\\raw\\4394_face_memory_delay.data'
p96
sS'date_started'
p97
g8
(S'\x07\xdf\x05\x16\x0c,\x08\x07z\x10'
tRp98
sS'log'
p99
(lp100
(S'2015-05-22 12:43:44.809000'
S'instance created'
p101
tp102
a(S'2015-05-22 12:44:08.505000'
S'instance updated'
p103
tp104
a(S'2015-05-22 12:44:08.513000'
S'pandas DataFrame of data created'
p105
tp106
a(S'2015-05-22 12:44:08.522000'
S'data saved as csv to c:\\Charlie\\charlie\\data\\csv\\4394_face_memory_delay.csv'
tp107
a(S'2015-05-22 12:44:09.840000'
g103
tp108
a(S'2015-05-22 12:44:09.843000'
g105
tp109
a(S'2015-05-22 12:44:09.845000'
S'data saved as csv to c:\\Charlie\\charlie\\data\\csv\\4394_face_memory_delay.csv'
tp110
a(S'2015-05-22 12:44:10.859000'
g103
tp111
a(S'2015-05-22 12:44:10.868000'
g105
tp112
a(S'2015-05-22 12:44:10.871000'
S'data saved as csv to c:\\Charlie\\charlie\\data\\csv\\4394_face_memory_delay.csv'
tp113
a(S'2015-05-22 12:44:11.808000'
g103
tp114
a(S'2015-05-22 12:44:11.817000'
g105
tp115
a(S'2015-05-22 12:44:11.820000'
S'data saved as csv to c:\\Charlie\\charlie\\data\\csv\\4394_face_memory_delay.csv'
tp116
a(S'2015-05-22 12:44:13.057000'
g103
tp117
a(S'2015-05-22 12:44:13.066000'
g105
tp118
a(S'2015-05-22 12:44:13.069000'
S'data saved as csv to c:\\Charlie\\charlie\\data\\csv\\4394_face_memory_delay.csv'
tp119
a(S'2015-05-22 12:44:13.966000'
g103
tp120
a(S'2015-05-22 12:44:13.975000'
g105
tp121
a(S'2015-05-22 12:44:13.979000'
S'data saved as csv to c:\\Charlie\\charlie\\data\\csv\\4394_face_memory_delay.csv'
tp122
a(S'2015-05-22 12:44:15.025000'
g103
tp123
a(S'2015-05-22 12:44:15.034000'
g105
tp124
a(S'2015-05-22 12:44:15.037000'
S'data saved as csv to c:\\Charlie\\charlie\\data\\csv\\4394_face_memory_delay.csv'
tp125
a(S'2015-05-22 12:44:15.964000'
g103
tp126
a(S'2015-05-22 12:44:15.973000'
g105
tp127
a(S'2015-05-22 12:44:15.976000'
S'data saved as csv to c:\\Charlie\\charlie\\data\\csv\\4394_face_memory_delay.csv'
tp128
a(S'2015-05-22 12:44:16.954000'
g103
tp129
a(S'2015-05-22 12:44:16.962000'
g105
tp130
a(S'2015-05-22 12:44:16.966000'
S'data saved as csv to c:\\Charlie\\charlie\\data\\csv\\4394_face_memory_delay.csv'
tp131
a(S'2015-05-22 12:44:18.074000'
g103
tp132
a(S'2015-05-22 12:44:18.082000'
g105
tp133
a(S'2015-05-22 12:44:18.086000'
S'data saved as csv to c:\\Charlie\\charlie\\data\\csv\\4394_face_memory_delay.csv'
tp134
a(S'2015-05-22 12:44:18.954000'
g103
tp135
a(S'2015-05-22 12:44:18.962000'
g105
tp136
a(S'2015-05-22 12:44:18.966000'
S'data saved as csv to c:\\Charlie\\charlie\\data\\csv\\4394_face_memory_delay.csv'
tp137
a(S'2015-05-22 12:44:19.843000'
g103
tp138
a(S'2015-05-22 12:44:19.852000'
g105
tp139
a(S'2015-05-22 12:44:19.856000'
S'data saved as csv to c:\\Charlie\\charlie\\data\\csv\\4394_face_memory_delay.csv'
tp140
a(S'2015-05-22 12:44:20.784000'
g103
tp141
a(S'2015-05-22 12:44:20.792000'
g105
tp142
a(S'2015-05-22 12:44:20.796000'
S'data saved as csv to c:\\Charlie\\charlie\\data\\csv\\4394_face_memory_delay.csv'
tp143
a(S'2015-05-22 12:44:21.724000'
g103
tp144
a(S'2015-05-22 12:44:21.732000'
g105
tp145
a(S'2015-05-22 12:44:21.736000'
S'data saved as csv to c:\\Charlie\\charlie\\data\\csv\\4394_face_memory_delay.csv'
tp146
a(S'2015-05-22 12:44:22.554000'
g103
tp147
a(S'2015-05-22 12:44:22.562000'
g105
tp148
a(S'2015-05-22 12:44:22.566000'
S'data saved as csv to c:\\Charlie\\charlie\\data\\csv\\4394_face_memory_delay.csv'
tp149
a(S'2015-05-22 12:44:23.394000'
g103
tp150
a(S'2015-05-22 12:44:23.402000'
g105
tp151
a(S'2015-05-22 12:44:23.406000'
S'data saved as csv to c:\\Charlie\\charlie\\data\\csv\\4394_face_memory_delay.csv'
tp152
a(S'2015-05-22 12:44:24.243000'
g103
tp153
a(S'2015-05-22 12:44:24.252000'
g105
tp154
a(S'2015-05-22 12:44:24.255000'
S'data saved as csv to c:\\Charlie\\charlie\\data\\csv\\4394_face_memory_delay.csv'
tp155
a(S'2015-05-22 12:44:25.544000'
g103
tp156
a(S'2015-05-22 12:44:25.552000'
g105
tp157
a(S'2015-05-22 12:44:25.556000'
S'data saved as csv to c:\\Charlie\\charlie\\data\\csv\\4394_face_memory_delay.csv'
tp158
a(S'2015-05-22 12:44:26.346000'
g103
tp159
a(S'2015-05-22 12:44:26.349000'
g105
tp160
a(S'2015-05-22 12:44:26.351000'
S'data saved as csv to c:\\Charlie\\charlie\\data\\csv\\4394_face_memory_delay.csv'
tp161
a(S'2015-05-22 12:44:27.249000'
g103
tp162
a(S'2015-05-22 12:44:27.258000'
g105
tp163
a(S'2015-05-22 12:44:27.261000'
S'data saved as csv to c:\\Charlie\\charlie\\data\\csv\\4394_face_memory_delay.csv'
tp164
a(S'2015-05-22 12:44:28.200000'
g103
tp165
a(S'2015-05-22 12:44:28.208000'
g105
tp166
a(S'2015-05-22 12:44:28.212000'
S'data saved as csv to c:\\Charlie\\charlie\\data\\csv\\4394_face_memory_delay.csv'
tp167
a(S'2015-05-22 12:44:29.220000'
g103
tp168
a(S'2015-05-22 12:44:29.229000'
g105
tp169
a(S'2015-05-22 12:44:29.232000'
S'data saved as csv to c:\\Charlie\\charlie\\data\\csv\\4394_face_memory_delay.csv'
tp170
a(S'2015-05-22 12:44:30.021000'
g103
tp171
a(S'2015-05-22 12:44:30.029000'
g105
tp172
a(S'2015-05-22 12:44:30.033000'
S'data saved as csv to c:\\Charlie\\charlie\\data\\csv\\4394_face_memory_delay.csv'
tp173
a(S'2015-05-22 12:44:31.021000'
g103
tp174
a(S'2015-05-22 12:44:31.030000'
g105
tp175
a(S'2015-05-22 12:44:31.034000'
S'data saved as csv to c:\\Charlie\\charlie\\data\\csv\\4394_face_memory_delay.csv'
tp176
a(S'2015-05-22 12:44:31.962000'
g103
tp177
a(S'2015-05-22 12:44:31.970000'
g105
tp178
a(S'2015-05-22 12:44:31.974000'
S'data saved as csv to c:\\Charlie\\charlie\\data\\csv\\4394_face_memory_delay.csv'
tp179
a(S'2015-05-22 12:44:33.322000'
g103
tp180
a(S'2015-05-22 12:44:33.331000'
g105
tp181
a(S'2015-05-22 12:44:33.335000'
S'data saved as csv to c:\\Charlie\\charlie\\data\\csv\\4394_face_memory_delay.csv'
tp182
a(S'2015-05-22 12:44:34.252000'
g103
tp183
a(S'2015-05-22 12:44:34.261000'
g105
tp184
a(S'2015-05-22 12:44:34.264000'
S'data saved as csv to c:\\Charlie\\charlie\\data\\csv\\4394_face_memory_delay.csv'
tp185
a(S'2015-05-22 12:44:35.243000'
g103
tp186
a(S'2015-05-22 12:44:35.252000'
g105
tp187
a(S'2015-05-22 12:44:35.256000'
S'data saved as csv to c:\\Charlie\\charlie\\data\\csv\\4394_face_memory_delay.csv'
tp188
a(S'2015-05-22 12:44:36.144000'
g103
tp189
a(S'2015-05-22 12:44:36.153000'
g105
tp190
a(S'2015-05-22 12:44:36.157000'
S'data saved as csv to c:\\Charlie\\charlie\\data\\csv\\4394_face_memory_delay.csv'
tp191
a(S'2015-05-22 12:44:37.115000'
g103
tp192
a(S'2015-05-22 12:44:37.124000'
g105
tp193
a(S'2015-05-22 12:44:37.128000'
S'data saved as csv to c:\\Charlie\\charlie\\data\\csv\\4394_face_memory_delay.csv'
tp194
a(S'2015-05-22 12:44:38.886000'
g103
tp195
a(S'2015-05-22 12:44:38.895000'
g105
tp196
a(S'2015-05-22 12:44:38.899000'
S'data saved as csv to c:\\Charlie\\charlie\\data\\csv\\4394_face_memory_delay.csv'
tp197
a(S'2015-05-22 12:44:39.967000'
g103
tp198
a(S'2015-05-22 12:44:39.976000'
g105
tp199
a(S'2015-05-22 12:44:39.980000'
S'data saved as csv to c:\\Charlie\\charlie\\data\\csv\\4394_face_memory_delay.csv'
tp200
a(S'2015-05-22 12:44:40.958000'
g103
tp201
a(S'2015-05-22 12:44:40.967000'
g105
tp202
a(S'2015-05-22 12:44:40.971000'
S'data saved as csv to c:\\Charlie\\charlie\\data\\csv\\4394_face_memory_delay.csv'
tp203
a(S'2015-05-22 12:44:42.149000'
g103
tp204
a(S'2015-05-22 12:44:42.158000'
g105
tp205
a(S'2015-05-22 12:44:42.162000'
S'data saved as csv to c:\\Charlie\\charlie\\data\\csv\\4394_face_memory_delay.csv'
tp206
a(S'2015-05-22 12:44:43.101000'
g103
tp207
a(S'2015-05-22 12:44:43.110000'
g105
tp208
a(S'2015-05-22 12:44:43.114000'
S'data saved as csv to c:\\Charlie\\charlie\\data\\csv\\4394_face_memory_delay.csv'
tp209
a(S'2015-05-22 12:44:44.131000'
g103
tp210
a(S'2015-05-22 12:44:44.140000'
g105
tp211
a(S'2015-05-22 12:44:44.144000'
S'data saved as csv to c:\\Charlie\\charlie\\data\\csv\\4394_face_memory_delay.csv'
tp212
a(S'2015-05-22 12:44:45.173000'
g103
tp213
a(S'2015-05-22 12:44:45.182000'
g105
tp214
a(S'2015-05-22 12:44:45.186000'
S'data saved as csv to c:\\Charlie\\charlie\\data\\csv\\4394_face_memory_delay.csv'
tp215
a(S'2015-05-22 12:44:46.084000'
g103
tp216
a(S'2015-05-22 12:44:46.093000'
g105
tp217
a(S'2015-05-22 12:44:46.097000'
S'data saved as csv to c:\\Charlie\\charlie\\data\\csv\\4394_face_memory_delay.csv'
tp218
a(S'2015-05-22 12:44:47.105000'
g103
tp219
a(S'2015-05-22 12:44:47.114000'
g105
tp220
a(S'2015-05-22 12:44:47.118000'
S'data saved as csv to c:\\Charlie\\charlie\\data\\csv\\4394_face_memory_delay.csv'
tp221
a(S'2015-05-22 12:44:48.036000'
g103
tp222
a(S'2015-05-22 12:44:48.045000'
g105
tp223
a(S'2015-05-22 12:44:48.049000'
S'data saved as csv to c:\\Charlie\\charlie\\data\\csv\\4394_face_memory_delay.csv'
tp224
asb.