(icharlie.tools.data
Data
p1
(dp2
S'lang'
p3
S'EN'
p4
sS'control'
p5
(lp6
sS'last_updated'
p7
cdatetime
datetime
p8
(S'\x07\xdf\x05\x16\x0c&\x02\ra\xc8'
tRp9
sS'last_opened'
p10
g8
(S'\x07\xdf\x05\x16\x0c"/\rV\x10'
tRp11
sS'proj_id'
p12
S'connectivity'
p13
sS'date_done'
p14
NsS'test_done'
p15
I01
sS'data'
p16
(lp17
(S'4394'
p18
S'stroop'
p19
S'practice'
p20
I0
S'n/a'
p21
S'c:\\Charlie\\charlie\\stimuli\\visual\\stroop\\prac_1.png'
S'Right'
p22
g22
I3060
tp23
a(g18
g19
g20
I1
g21
S'c:\\Charlie\\charlie\\stimuli\\visual\\stroop\\prac_2.png'
S'Left'
p24
g24
I2840
tp25
a(g18
g19
g20
I2
g21
S'c:\\Charlie\\charlie\\stimuli\\visual\\stroop\\prac_3.png'
g22
g22
I1210
tp26
a(g18
g19
g20
I3
g21
S'c:\\Charlie\\charlie\\stimuli\\visual\\stroop\\prac_4.png'
g22
g22
I980
tp27
a(g18
g19
S'test'
p28
I0
S'Incongruent'
p29
S'c:\\Charlie\\charlie\\stimuli\\visual\\stroop\\6-Incongruent.png'
g24
g24
I1210
tp30
a(g18
g19
g28
I1
S'Congruent'
p31
S'c:\\Charlie\\charlie\\stimuli\\visual\\stroop\\30-Congruent.png'
g24
g24
I1880
tp32
a(g18
g19
g28
I2
g31
S'c:\\Charlie\\charlie\\stimuli\\visual\\stroop\\3-Congruent.png'
g22
g22
I1060
tp33
a(g18
g19
g28
I3
g29
S'c:\\Charlie\\charlie\\stimuli\\visual\\stroop\\23-Incongruent.png'
g24
g22
I1620
tp34
a(g18
g19
g28
I4
g31
S'c:\\Charlie\\charlie\\stimuli\\visual\\stroop\\39-Congruent.png'
g24
g24
I1380
tp35
a(g18
g19
g28
I5
g31
S'c:\\Charlie\\charlie\\stimuli\\visual\\stroop\\45-Congruent.png'
g24
g24
I1030
tp36
a(g18
g19
g28
I6
g29
S'c:\\Charlie\\charlie\\stimuli\\visual\\stroop\\31-Incongruent.png'
g22
g24
I1350
tp37
a(g18
g19
g28
I7
g29
S'c:\\Charlie\\charlie\\stimuli\\visual\\stroop\\28-Incongruent.png'
g24
g22
I1060
tp38
a(g18
g19
g28
I8
g31
S'c:\\Charlie\\charlie\\stimuli\\visual\\stroop\\31-Congruent.png'
g24
g24
I960
tp39
a(g18
g19
g28
I9
g31
S'c:\\Charlie\\charlie\\stimuli\\visual\\stroop\\10-Congruent.png'
g22
g22
I1131
tp40
a(g18
g19
g28
I10
g29
S'c:\\Charlie\\charlie\\stimuli\\visual\\stroop\\10-Incongruent.png'
g24
g22
I1530
tp41
a(g18
g19
g28
I11
g29
S'c:\\Charlie\\charlie\\stimuli\\visual\\stroop\\24-Incongruent.png'
g24
g22
I2330
tp42
a(g18
g19
g28
I12
g31
S'c:\\Charlie\\charlie\\stimuli\\visual\\stroop\\34-Congruent.png'
g24
g24
I1530
tp43
a(g18
g19
g28
I13
g31
S'c:\\Charlie\\charlie\\stimuli\\visual\\stroop\\38-Congruent.png'
g24
g24
I1060
tp44
a(g18
g19
g28
I14
g31
S'c:\\Charlie\\charlie\\stimuli\\visual\\stroop\\42-Congruent.png'
g24
g24
I1260
tp45
a(g18
g19
g28
I15
g31
S'c:\\Charlie\\charlie\\stimuli\\visual\\stroop\\17-Congruent.png'
g22
g22
I960
tp46
a(g18
g19
g28
I16
g29
S'c:\\Charlie\\charlie\\stimuli\\visual\\stroop\\42-Incongruent.png'
g22
g24
I1770
tp47
a(g18
g19
g28
I17
g29
S'c:\\Charlie\\charlie\\stimuli\\visual\\stroop\\36-Incongruent.png'
g22
g24
I2530
tp48
a(g18
g19
g28
I18
g29
S'c:\\Charlie\\charlie\\stimuli\\visual\\stroop\\43-Incongruent.png'
g22
g24
I1870
tp49
a(g18
g19
g28
I19
g31
S'c:\\Charlie\\charlie\\stimuli\\visual\\stroop\\49-Congruent.png'
g24
g24
I1001
tp50
a(g18
g19
g28
I20
g31
S'c:\\Charlie\\charlie\\stimuli\\visual\\stroop\\43-Congruent.png'
g24
g24
I880
tp51
a(g18
g19
g28
I21
g29
S'c:\\Charlie\\charlie\\stimuli\\visual\\stroop\\15-Incongruent.png'
g24
g22
I1550
tp52
a(g18
g19
g28
I22
g29
S'c:\\Charlie\\charlie\\stimuli\\visual\\stroop\\35-Incongruent.png'
g22
g24
I1120
tp53
a(g18
g19
g28
I23
g29
S'c:\\Charlie\\charlie\\stimuli\\visual\\stroop\\44-Incongruent.png'
g22
g24
I1020
tp54
a(g18
g19
g28
I24
g29
S'c:\\Charlie\\charlie\\stimuli\\visual\\stroop\\47-Incongruent.png'
g22
g22
I1120
tp55
a(g18
g19
g28
I25
g29
S'c:\\Charlie\\charlie\\stimuli\\visual\\stroop\\40-Incongruent.png'
g22
g24
I1350
tp56
a(g18
g19
g28
I26
g29
S'c:\\Charlie\\charlie\\stimuli\\visual\\stroop\\25-Incongruent.png'
g24
g22
I1210
tp57
a(g18
g19
g28
I27
g29
S'c:\\Charlie\\charlie\\stimuli\\visual\\stroop\\27-Incongruent.png'
g24
g22
I1290
tp58
a(g18
g19
g28
I28
g29
S'c:\\Charlie\\charlie\\stimuli\\visual\\stroop\\56-Incongruent.png'
g22
g24
I1160
tp59
a(g18
g19
g28
I29
g31
S'c:\\Charlie\\charlie\\stimuli\\visual\\stroop\\2-Congruent.png'
g22
g22
I950
tp60
a(g18
g19
g28
I30
g29
S'c:\\Charlie\\charlie\\stimuli\\visual\\stroop\\17-Incongruent.png'
g24
g22
I2250
tp61
a(g18
g19
g28
I31
g31
S'c:\\Charlie\\charlie\\stimuli\\visual\\stroop\\12-Congruent.png'
g22
g22
I1191
tp62
a(g18
g19
g28
I32
g29
S'c:\\Charlie\\charlie\\stimuli\\visual\\stroop\\12-Incongruent.png'
g24
g24
I2410
tp63
a(g18
g19
g28
I33
g29
S'c:\\Charlie\\charlie\\stimuli\\visual\\stroop\\26-Incongruent.png'
g24
g24
I1750
tp64
a(g18
g19
g28
I34
g31
S'c:\\Charlie\\charlie\\stimuli\\visual\\stroop\\19-Congruent.png'
g22
g22
I970
tp65
a(g18
g19
g28
I35
g31
S'c:\\Charlie\\charlie\\stimuli\\visual\\stroop\\23-Congruent.png'
g22
g22
I820
tp66
a(g18
g19
g28
I36
g31
S'c:\\Charlie\\charlie\\stimuli\\visual\\stroop\\35-Congruent.png'
g24
g24
I1020
tp67
a(g18
g19
g28
I37
g31
S'c:\\Charlie\\charlie\\stimuli\\visual\\stroop\\46-Congruent.png'
g24
g24
I920
tp68
a(g18
g19
g28
I38
g29
S'c:\\Charlie\\charlie\\stimuli\\visual\\stroop\\8-Incongruent.png'
g24
g22
I2220
tp69
a(g18
g19
g28
I39
g31
S'c:\\Charlie\\charlie\\stimuli\\visual\\stroop\\29-Congruent.png'
g24
g24
I1010
tp70
a(g18
g19
g28
I40
g31
S'c:\\Charlie\\charlie\\stimuli\\visual\\stroop\\14-Congruent.png'
g22
g22
I790
tp71
a(g18
g19
g28
I41
g31
S'c:\\Charlie\\charlie\\stimuli\\visual\\stroop\\33-Congruent.png'
g24
g24
I900
tp72
a(g18
g19
g28
I42
g29
S'c:\\Charlie\\charlie\\stimuli\\visual\\stroop\\13-Incongruent.png'
g24
g22
I760
tp73
a(g18
g19
g28
I43
g29
S'c:\\Charlie\\charlie\\stimuli\\visual\\stroop\\55-Incongruent.png'
g22
g24
I760
tp74
a(g18
g19
g28
I44
g31
S'c:\\Charlie\\charlie\\stimuli\\visual\\stroop\\54-Congruent.png'
g24
g24
I780
tp75
a(g18
g19
g28
I45
g31
S'c:\\Charlie\\charlie\\stimuli\\visual\\stroop\\8-Congruent.png'
g22
g22
I2161
tp76
a(g18
g19
g28
I46
g31
S'c:\\Charlie\\charlie\\stimuli\\visual\\stroop\\13-Congruent.png'
g22
g24
I1940
tp77
a(g18
g19
g28
I47
g31
S'c:\\Charlie\\charlie\\stimuli\\visual\\stroop\\40-Congruent.png'
g24
g24
I1000
tp78
a(g18
g19
g28
I48
g29
S'c:\\Charlie\\charlie\\stimuli\\visual\\stroop\\9-Incongruent.png'
g24
g22
I800
tp79
a(g18
g19
g28
I49
g31
S'c:\\Charlie\\charlie\\stimuli\\visual\\stroop\\50-Congruent.png'
g24
g24
I1220
tp80
a(g18
g19
g28
I50
g31
S'c:\\Charlie\\charlie\\stimuli\\visual\\stroop\\5-Congruent.png'
g22
g22
I650
tp81
a(g18
g19
g28
I51
g29
S'c:\\Charlie\\charlie\\stimuli\\visual\\stroop\\5-Incongruent.png'
g24
g24
I2490
tp82
a(g18
g19
g28
I52
g29
S'c:\\Charlie\\charlie\\stimuli\\visual\\stroop\\53-Incongruent.png'
g22
g24
I2770
tp83
a(g18
g19
g28
I53
g29
S'c:\\Charlie\\charlie\\stimuli\\visual\\stroop\\1-Incongruent.png'
g24
g22
I810
tp84
a(g18
g19
g28
I54
g31
S'c:\\Charlie\\charlie\\stimuli\\visual\\stroop\\28-Congruent.png'
g22
g22
I670
tp85
a(g18
g19
g28
I55
g29
S'c:\\Charlie\\charlie\\stimuli\\visual\\stroop\\34-Incongruent.png'
g22
g24
I1160
tp86
a(g18
g19
g28
I56
g29
S'c:\\Charlie\\charlie\\stimuli\\visual\\stroop\\20-Incongruent.png'
g24
g22
I1241
tp87
a(g18
g19
g28
I57
g29
S'c:\\Charlie\\charlie\\stimuli\\visual\\stroop\\38-Incongruent.png'
g22
g24
I950
tp88
a(g18
g19
g28
I58
g29
S'c:\\Charlie\\charlie\\stimuli\\visual\\stroop\\32-Incongruent.png'
g22
g24
I900
tp89
a(g18
g19
g28
I59
g31
S'c:\\Charlie\\charlie\\stimuli\\visual\\stroop\\9-Congruent.png'
g22
g22
I830
tp90
a(g18
g19
g28
I60
g31
S'c:\\Charlie\\charlie\\stimuli\\visual\\stroop\\55-Congruent.png'
g24
g24
I1241
tp91
a(g18
g19
g28
I61
g29
S'c:\\Charlie\\charlie\\stimuli\\visual\\stroop\\33-Incongruent.png'
g22
g24
I1340
tp92
a(g18
g19
g28
I62
g29
S'c:\\Charlie\\charlie\\stimuli\\visual\\stroop\\49-Incongruent.png'
g22
g24
I740
tp93
a(g18
g19
g28
I63
g31
S'c:\\Charlie\\charlie\\stimuli\\visual\\stroop\\4-Congruent.png'
g22
g22
I700
tp94
a(g18
g19
g28
I64
g31
S'c:\\Charlie\\charlie\\stimuli\\visual\\stroop\\6-Congruent.png'
g22
g22
I910
tp95
a(g18
g19
g28
I65
g31
S'c:\\Charlie\\charlie\\stimuli\\visual\\stroop\\48-Congruent.png'
g24
g24
I950
tp96
a(g18
g19
g28
I66
g31
S'c:\\Charlie\\charlie\\stimuli\\visual\\stroop\\52-Congruent.png'
g24
g24
I960
tp97
a(g18
g19
g28
I67
g31
S'c:\\Charlie\\charlie\\stimuli\\visual\\stroop\\51-Congruent.png'
g24
g24
I960
tp98
a(g18
g19
g28
I68
g31
S'c:\\Charlie\\charlie\\stimuli\\visual\\stroop\\16-Congruent.png'
g22
g22
I860
tp99
a(g18
g19
g28
I69
g31
S'c:\\Charlie\\charlie\\stimuli\\visual\\stroop\\24-Congruent.png'
g22
g22
I760
tp100
a(g18
g19
g28
I70
g29
S'c:\\Charlie\\charlie\\stimuli\\visual\\stroop\\41-Incongruent.png'
g22
g24
I870
tp101
a(g18
g19
g28
I71
g29
S'c:\\Charlie\\charlie\\stimuli\\visual\\stroop\\48-Incongruent.png'
g22
g24
I870
tp102
a(g18
g19
g28
I72
g29
S'c:\\Charlie\\charlie\\stimuli\\visual\\stroop\\4-Incongruent.png'
g24
g22
I671
tp103
a(g18
g19
g28
I73
g29
S'c:\\Charlie\\charlie\\stimuli\\visual\\stroop\\54-Incongruent.png'
g22
g24
I670
tp104
a(g18
g19
g28
I74
g29
S'c:\\Charlie\\charlie\\stimuli\\visual\\stroop\\39-Incongruent.png'
g22
g24
I830
tp105
a(g18
g19
g28
I75
g31
S'c:\\Charlie\\charlie\\stimuli\\visual\\stroop\\56-Congruent.png'
g24
g24
I750
tp106
a(g18
g19
g28
I76
g29
S'c:\\Charlie\\charlie\\stimuli\\visual\\stroop\\46-Incongruent.png'
g22
g24
I640
tp107
a(g18
g19
g28
I77
g31
S'c:\\Charlie\\charlie\\stimuli\\visual\\stroop\\22-Congruent.png'
g22
g22
I650
tp108
a(g18
g19
g28
I78
g29
S'c:\\Charlie\\charlie\\stimuli\\visual\\stroop\\21-Incongruent.png'
g24
g22
I650
tp109
a(g18
g19
g28
I79
g29
S'c:\\Charlie\\charlie\\stimuli\\visual\\stroop\\37-Incongruent.png'
g22
g24
I620
tp110
a(g18
g19
g28
I80
g29
S'c:\\Charlie\\charlie\\stimuli\\visual\\stroop\\2-Incongruent.png'
g24
g22
I610
tp111
a(g18
g19
g28
I81
g31
S'c:\\Charlie\\charlie\\stimuli\\visual\\stroop\\21-Congruent.png'
g22
g22
I1090
tp112
a(g18
g19
g28
I82
g29
S'c:\\Charlie\\charlie\\stimuli\\visual\\stroop\\7-Incongruent.png'
g24
g22
I1910
tp113
a(g18
g19
g28
I83
g31
S'c:\\Charlie\\charlie\\stimuli\\visual\\stroop\\20-Congruent.png'
g22
g22
I590
tp114
a(g18
g19
g28
I84
g31
S'c:\\Charlie\\charlie\\stimuli\\visual\\stroop\\15-Congruent.png'
g22
g22
I700
tp115
a(g18
g19
g28
I85
g31
S'c:\\Charlie\\charlie\\stimuli\\visual\\stroop\\26-Congruent.png'
g22
g22
I820
tp116
a(g18
g19
g28
I86
g29
S'c:\\Charlie\\charlie\\stimuli\\visual\\stroop\\16-Incongruent.png'
g24
g22
I810
tp117
a(g18
g19
g28
I87
g29
S'c:\\Charlie\\charlie\\stimuli\\visual\\stroop\\50-Incongruent.png'
g22
g24
I1100
tp118
a(g18
g19
g28
I88
g31
S'c:\\Charlie\\charlie\\stimuli\\visual\\stroop\\41-Congruent.png'
g24
g24
I610
tp119
a(g18
g19
g28
I89
g31
S'c:\\Charlie\\charlie\\stimuli\\visual\\stroop\\25-Congruent.png'
g22
g22
I720
tp120
a(g18
g19
g28
I90
g31
S'c:\\Charlie\\charlie\\stimuli\\visual\\stroop\\27-Congruent.png'
g22
g22
I781
tp121
a(g18
g19
g28
I91
g29
S'c:\\Charlie\\charlie\\stimuli\\visual\\stroop\\18-Incongruent.png'
g24
g22
I1160
tp122
a(g18
g19
g28
I92
g29
S'c:\\Charlie\\charlie\\stimuli\\visual\\stroop\\30-Incongruent.png'
g22
g24
I640
tp123
a(g18
g19
g28
I93
g31
S'c:\\Charlie\\charlie\\stimuli\\visual\\stroop\\44-Congruent.png'
g24
g24
I680
tp124
a(g18
g19
g28
I94
g31
S'c:\\Charlie\\charlie\\stimuli\\visual\\stroop\\37-Congruent.png'
g24
g24
I700
tp125
a(g18
g19
g28
I95
g29
S'c:\\Charlie\\charlie\\stimuli\\visual\\stroop\\11-Incongruent.png'
g24
g22
I730
tp126
a(g18
g19
g28
I96
g29
S'c:\\Charlie\\charlie\\stimuli\\visual\\stroop\\29-Incongruent.png'
g22
g24
I990
tp127
a(g18
g19
g28
I97
g29
S'c:\\Charlie\\charlie\\stimuli\\visual\\stroop\\3-Incongruent.png'
g24
g22
I720
tp128
a(g18
g19
g28
I98
g31
S'c:\\Charlie\\charlie\\stimuli\\visual\\stroop\\1-Congruent.png'
g22
g22
I690
tp129
a(g18
g19
g28
I99
g29
S'c:\\Charlie\\charlie\\stimuli\\visual\\stroop\\52-Incongruent.png'
g22
g24
I880
tp130
a(g18
g19
g28
I100
g29
S'c:\\Charlie\\charlie\\stimuli\\visual\\stroop\\14-Incongruent.png'
g24
g22
I1040
tp131
a(g18
g19
g28
I101
g31
S'c:\\Charlie\\charlie\\stimuli\\visual\\stroop\\47-Congruent.png'
g24
g24
I2270
tp132
a(g18
g19
g28
I102
g29
S'c:\\Charlie\\charlie\\stimuli\\visual\\stroop\\19-Incongruent.png'
g24
g22
I910
tp133
a(g18
g19
g28
I103
g31
S'c:\\Charlie\\charlie\\stimuli\\visual\\stroop\\11-Congruent.png'
g22
g22
I1050
tp134
a(g18
g19
g28
I104
g29
S'c:\\Charlie\\charlie\\stimuli\\visual\\stroop\\22-Incongruent.png'
g24
g22
I1130
tp135
a(g18
g19
g28
I105
g31
S'c:\\Charlie\\charlie\\stimuli\\visual\\stroop\\7-Congruent.png'
g22
g22
I950
tp136
a(g18
g19
g28
I106
g31
S'c:\\Charlie\\charlie\\stimuli\\visual\\stroop\\53-Congruent.png'
g24
g24
I751
tp137
a(g18
g19
g28
I107
g31
S'c:\\Charlie\\charlie\\stimuli\\visual\\stroop\\32-Congruent.png'
g24
g24
I800
tp138
a(g18
g19
g28
I108
g29
S'c:\\Charlie\\charlie\\stimuli\\visual\\stroop\\45-Incongruent.png'
g22
g24
I690
tp139
a(g18
g19
g28
I109
g31
S'c:\\Charlie\\charlie\\stimuli\\visual\\stroop\\36-Congruent.png'
g24
g24
I1250
tp140
a(g18
g19
g28
I110
g29
S'c:\\Charlie\\charlie\\stimuli\\visual\\stroop\\51-Incongruent.png'
g22
g24
I2310
tp141
a(g18
g19
g28
I111
g31
S'c:\\Charlie\\charlie\\stimuli\\visual\\stroop\\18-Congruent.png'
p142
g22
g22
I810
tp143
asS'output_format'
p144
(lp145
(S'proband_id'
p146
c__builtin__
str
p147
tp148
a(S'test_name'
p149
g147
tp150
a(S'phase'
p151
g147
tp152
a(S'trialn'
p153
c__builtin__
int
p154
tp155
a(S'cong'
p156
g147
tp157
a(S'f'
g147
tp158
a(S'ans'
p159
g147
tp160
a(S'rsp'
p161
g147
tp162
a(S'rt'
p163
g154
tp164
asg146
g18
sS'filename'
p165
S'4394_stroop.data'
p166
sS'initialised'
p167
g8
(S'\x07\xdf\x05\x16\x0c"/\rV\x10'
tRp168
sS'last_udated'
p169
g8
(S'\x07\xdf\x05\x16\x0c"/\rV\x10'
tRp170
sg149
S'stroop'
p171
sS'directory'
p172
S'c:\\Charlie\\charlie\\data\\raw'
p173
sS'user_id'
p174
S'oleach'
p175
sS'test_started'
p176
I01
sS'abs_filename'
p177
S'c:\\Charlie\\charlie\\data\\raw\\4394_stroop.data'
p178
sS'date_started'
p179
g8
(S'\x07\xdf\x05\x16\x0c#\r\x02a`'
tRp180
sS'log'
p181
(lp182
(S'2015-05-22 12:34:47.874000'
S'instance created'
p183
tp184
a(S'2015-05-22 12:35:13.170000'
S'instance updated'
p185
tp186
a(S'2015-05-22 12:35:13.179000'
S'pandas DataFrame of data created'
p187
tp188
a(S'2015-05-22 12:35:13.188000'
S'data saved as csv to c:\\Charlie\\charlie\\data\\csv\\4394_stroop.csv'
tp189
a(S'2015-05-22 12:35:17.052000'
g185
tp190
a(S'2015-05-22 12:35:17.061000'
g187
tp191
a(S'2015-05-22 12:35:17.065000'
S'data saved as csv to c:\\Charlie\\charlie\\data\\csv\\4394_stroop.csv'
tp192
a(S'2015-05-22 12:35:19.302000'
g185
tp193
a(S'2015-05-22 12:35:19.311000'
g187
tp194
a(S'2015-05-22 12:35:19.314000'
S'data saved as csv to c:\\Charlie\\charlie\\data\\csv\\4394_stroop.csv'
tp195
a(S'2015-05-22 12:35:21.321000'
g185
tp196
a(S'2015-05-22 12:35:21.330000'
g187
tp197
a(S'2015-05-22 12:35:21.334000'
S'data saved as csv to c:\\Charlie\\charlie\\data\\csv\\4394_stroop.csv'
tp198
a(S'2015-05-22 12:35:42.177000'
g185
tp199
a(S'2015-05-22 12:35:42.187000'
g187
tp200
a(S'2015-05-22 12:35:42.190000'
S'data saved as csv to c:\\Charlie\\charlie\\data\\csv\\4394_stroop.csv'
tp201
a(S'2015-05-22 12:35:44.199000'
g185
tp202
a(S'2015-05-22 12:35:44.209000'
g187
tp203
a(S'2015-05-22 12:35:44.213000'
S'data saved as csv to c:\\Charlie\\charlie\\data\\csv\\4394_stroop.csv'
tp204
a(S'2015-05-22 12:35:45.402000'
g185
tp205
a(S'2015-05-22 12:35:45.411000'
g187
tp206
a(S'2015-05-22 12:35:45.415000'
S'data saved as csv to c:\\Charlie\\charlie\\data\\csv\\4394_stroop.csv'
tp207
a(S'2015-05-22 12:35:47.163000'
g185
tp208
a(S'2015-05-22 12:35:47.172000'
g187
tp209
a(S'2015-05-22 12:35:47.176000'
S'data saved as csv to c:\\Charlie\\charlie\\data\\csv\\4394_stroop.csv'
tp210
a(S'2015-05-22 12:35:48.685000'
g185
tp211
a(S'2015-05-22 12:35:48.694000'
g187
tp212
a(S'2015-05-22 12:35:48.698000'
S'data saved as csv to c:\\Charlie\\charlie\\data\\csv\\4394_stroop.csv'
tp213
a(S'2015-05-22 12:35:49.855000'
g185
tp214
a(S'2015-05-22 12:35:49.865000'
g187
tp215
a(S'2015-05-22 12:35:49.868000'
S'data saved as csv to c:\\Charlie\\charlie\\data\\csv\\4394_stroop.csv'
tp216
a(S'2015-05-22 12:35:51.344000'
g185
tp217
a(S'2015-05-22 12:35:51.354000'
g187
tp218
a(S'2015-05-22 12:35:51.357000'
S'data saved as csv to c:\\Charlie\\charlie\\data\\csv\\4394_stroop.csv'
tp219
a(S'2015-05-22 12:35:52.547000'
g185
tp220
a(S'2015-05-22 12:35:52.556000'
g187
tp221
a(S'2015-05-22 12:35:52.560000'
S'data saved as csv to c:\\Charlie\\charlie\\data\\csv\\4394_stroop.csv'
tp222
a(S'2015-05-22 12:35:53.648000'
g185
tp223
a(S'2015-05-22 12:35:53.658000'
g187
tp224
a(S'2015-05-22 12:35:53.662000'
S'data saved as csv to c:\\Charlie\\charlie\\data\\csv\\4394_stroop.csv'
tp225
a(S'2015-05-22 12:35:54.921000'
g185
tp226
a(S'2015-05-22 12:35:54.930000'
g187
tp227
a(S'2015-05-22 12:35:54.933000'
S'data saved as csv to c:\\Charlie\\charlie\\data\\csv\\4394_stroop.csv'
tp228
a(S'2015-05-22 12:35:56.589000'
g185
tp229
a(S'2015-05-22 12:35:56.599000'
g187
tp230
a(S'2015-05-22 12:35:56.602000'
S'data saved as csv to c:\\Charlie\\charlie\\data\\csv\\4394_stroop.csv'
tp231
a(S'2015-05-22 12:35:59.063000'
g185
tp232
a(S'2015-05-22 12:35:59.072000'
g187
tp233
a(S'2015-05-22 12:35:59.076000'
S'data saved as csv to c:\\Charlie\\charlie\\data\\csv\\4394_stroop.csv'
tp234
a(S'2015-05-22 12:36:00.735000'
g185
tp235
a(S'2015-05-22 12:36:00.744000'
g187
tp236
a(S'2015-05-22 12:36:00.747000'
S'data saved as csv to c:\\Charlie\\charlie\\data\\csv\\4394_stroop.csv'
tp237
a(S'2015-05-22 12:36:01.933000'
g185
tp238
a(S'2015-05-22 12:36:01.943000'
g187
tp239
a(S'2015-05-22 12:36:01.945000'
S'data saved as csv to c:\\Charlie\\charlie\\data\\csv\\4394_stroop.csv'
tp240
a(S'2015-05-22 12:36:03.332000'
g185
tp241
a(S'2015-05-22 12:36:03.341000'
g187
tp242
a(S'2015-05-22 12:36:03.345000'
S'data saved as csv to c:\\Charlie\\charlie\\data\\csv\\4394_stroop.csv'
tp243
a(S'2015-05-22 12:36:04.436000'
g185
tp244
a(S'2015-05-22 12:36:04.445000'
g187
tp245
a(S'2015-05-22 12:36:04.449000'
S'data saved as csv to c:\\Charlie\\charlie\\data\\csv\\4394_stroop.csv'
tp246
a(S'2015-05-22 12:36:06.348000'
g185
tp247
a(S'2015-05-22 12:36:06.358000'
g187
tp248
a(S'2015-05-22 12:36:06.361000'
S'data saved as csv to c:\\Charlie\\charlie\\data\\csv\\4394_stroop.csv'
tp249
a(S'2015-05-22 12:36:09.021000'
g185
tp250
a(S'2015-05-22 12:36:09.031000'
g187
tp251
a(S'2015-05-22 12:36:09.035000'
S'data saved as csv to c:\\Charlie\\charlie\\data\\csv\\4394_stroop.csv'
tp252
a(S'2015-05-22 12:36:11.034000'
g185
tp253
a(S'2015-05-22 12:36:11.043000'
g187
tp254
a(S'2015-05-22 12:36:11.047000'
S'data saved as csv to c:\\Charlie\\charlie\\data\\csv\\4394_stroop.csv'
tp255
a(S'2015-05-22 12:36:12.177000'
g185
tp256
a(S'2015-05-22 12:36:12.187000'
g187
tp257
a(S'2015-05-22 12:36:12.191000'
S'data saved as csv to c:\\Charlie\\charlie\\data\\csv\\4394_stroop.csv'
tp258
a(S'2015-05-22 12:36:13.201000'
g185
tp259
a(S'2015-05-22 12:36:13.210000'
g187
tp260
a(S'2015-05-22 12:36:13.212000'
S'data saved as csv to c:\\Charlie\\charlie\\data\\csv\\4394_stroop.csv'
tp261
a(S'2015-05-22 12:36:14.889000'
g185
tp262
a(S'2015-05-22 12:36:14.899000'
g187
tp263
a(S'2015-05-22 12:36:14.902000'
S'data saved as csv to c:\\Charlie\\charlie\\data\\csv\\4394_stroop.csv'
tp264
a(S'2015-05-22 12:36:16.153000'
g185
tp265
a(S'2015-05-22 12:36:16.163000'
g187
tp266
a(S'2015-05-22 12:36:16.167000'
S'data saved as csv to c:\\Charlie\\charlie\\data\\csv\\4394_stroop.csv'
tp267
a(S'2015-05-22 12:36:17.317000'
g185
tp268
a(S'2015-05-22 12:36:17.326000'
g187
tp269
a(S'2015-05-22 12:36:17.331000'
S'data saved as csv to c:\\Charlie\\charlie\\data\\csv\\4394_stroop.csv'
tp270
a(S'2015-05-22 12:36:18.582000'
g185
tp271
a(S'2015-05-22 12:36:18.592000'
g187
tp272
a(S'2015-05-22 12:36:18.596000'
S'data saved as csv to c:\\Charlie\\charlie\\data\\csv\\4394_stroop.csv'
tp273
a(S'2015-05-22 12:36:20.076000'
g185
tp274
a(S'2015-05-22 12:36:20.086000'
g187
tp275
a(S'2015-05-22 12:36:20.090000'
S'data saved as csv to c:\\Charlie\\charlie\\data\\csv\\4394_stroop.csv'
tp276
a(S'2015-05-22 12:36:21.431000'
g185
tp277
a(S'2015-05-22 12:36:21.441000'
g187
tp278
a(S'2015-05-22 12:36:21.445000'
S'data saved as csv to c:\\Charlie\\charlie\\data\\csv\\4394_stroop.csv'
tp279
a(S'2015-05-22 12:36:22.865000'
g185
tp280
a(S'2015-05-22 12:36:22.875000'
g187
tp281
a(S'2015-05-22 12:36:22.879000'
S'data saved as csv to c:\\Charlie\\charlie\\data\\csv\\4394_stroop.csv'
tp282
a(S'2015-05-22 12:36:24.178000'
g185
tp283
a(S'2015-05-22 12:36:24.188000'
g187
tp284
a(S'2015-05-22 12:36:24.192000'
S'data saved as csv to c:\\Charlie\\charlie\\data\\csv\\4394_stroop.csv'
tp285
a(S'2015-05-22 12:36:25.272000'
g185
tp286
a(S'2015-05-22 12:36:25.282000'
g187
tp287
a(S'2015-05-22 12:36:25.286000'
S'data saved as csv to c:\\Charlie\\charlie\\data\\csv\\4394_stroop.csv'
tp288
a(S'2015-05-22 12:36:27.663000'
g185
tp289
a(S'2015-05-22 12:36:27.673000'
g187
tp290
a(S'2015-05-22 12:36:27.677000'
S'data saved as csv to c:\\Charlie\\charlie\\data\\csv\\4394_stroop.csv'
tp291
a(S'2015-05-22 12:36:28.998000'
g185
tp292
a(S'2015-05-22 12:36:29.008000'
g187
tp293
a(S'2015-05-22 12:36:29.012000'
S'data saved as csv to c:\\Charlie\\charlie\\data\\csv\\4394_stroop.csv'
tp294
a(S'2015-05-22 12:36:31.551000'
g185
tp295
a(S'2015-05-22 12:36:31.561000'
g187
tp296
a(S'2015-05-22 12:36:31.565000'
S'data saved as csv to c:\\Charlie\\charlie\\data\\csv\\4394_stroop.csv'
tp297
a(S'2015-05-22 12:36:33.444000'
g185
tp298
a(S'2015-05-22 12:36:33.454000'
g187
tp299
a(S'2015-05-22 12:36:33.458000'
S'data saved as csv to c:\\Charlie\\charlie\\data\\csv\\4394_stroop.csv'
tp300
a(S'2015-05-22 12:36:34.557000'
g185
tp301
a(S'2015-05-22 12:36:34.566000'
g187
tp302
a(S'2015-05-22 12:36:34.570000'
S'data saved as csv to c:\\Charlie\\charlie\\data\\csv\\4394_stroop.csv'
tp303
a(S'2015-05-22 12:36:35.520000'
g185
tp304
a(S'2015-05-22 12:36:35.530000'
g187
tp305
a(S'2015-05-22 12:36:35.534000'
S'data saved as csv to c:\\Charlie\\charlie\\data\\csv\\4394_stroop.csv'
tp306
a(S'2015-05-22 12:36:36.682000'
g185
tp307
a(S'2015-05-22 12:36:36.692000'
g187
tp308
a(S'2015-05-22 12:36:36.696000'
S'data saved as csv to c:\\Charlie\\charlie\\data\\csv\\4394_stroop.csv'
tp309
a(S'2015-05-22 12:36:37.747000'
g185
tp310
a(S'2015-05-22 12:36:37.757000'
g187
tp311
a(S'2015-05-22 12:36:37.761000'
S'data saved as csv to c:\\Charlie\\charlie\\data\\csv\\4394_stroop.csv'
tp312
a(S'2015-05-22 12:36:40.112000'
g185
tp313
a(S'2015-05-22 12:36:40.120000'
g187
tp314
a(S'2015-05-22 12:36:40.123000'
S'data saved as csv to c:\\Charlie\\charlie\\data\\csv\\4394_stroop.csv'
tp315
a(S'2015-05-22 12:36:41.261000'
g185
tp316
a(S'2015-05-22 12:36:41.271000'
g187
tp317
a(S'2015-05-22 12:36:41.275000'
S'data saved as csv to c:\\Charlie\\charlie\\data\\csv\\4394_stroop.csv'
tp318
a(S'2015-05-22 12:36:42.195000'
g185
tp319
a(S'2015-05-22 12:36:42.205000'
g187
tp320
a(S'2015-05-22 12:36:42.209000'
S'data saved as csv to c:\\Charlie\\charlie\\data\\csv\\4394_stroop.csv'
tp321
a(S'2015-05-22 12:36:43.240000'
g185
tp322
a(S'2015-05-22 12:36:43.250000'
g187
tp323
a(S'2015-05-22 12:36:43.254000'
S'data saved as csv to c:\\Charlie\\charlie\\data\\csv\\4394_stroop.csv'
tp324
a(S'2015-05-22 12:36:44.146000'
g185
tp325
a(S'2015-05-22 12:36:44.156000'
g187
tp326
a(S'2015-05-22 12:36:44.161000'
S'data saved as csv to c:\\Charlie\\charlie\\data\\csv\\4394_stroop.csv'
tp327
a(S'2015-05-22 12:36:45.052000'
g185
tp328
a(S'2015-05-22 12:36:45.061000'
g187
tp329
a(S'2015-05-22 12:36:45.064000'
S'data saved as csv to c:\\Charlie\\charlie\\data\\csv\\4394_stroop.csv'
tp330
a(S'2015-05-22 12:36:45.972000'
g185
tp331
a(S'2015-05-22 12:36:45.982000'
g187
tp332
a(S'2015-05-22 12:36:45.987000'
S'data saved as csv to c:\\Charlie\\charlie\\data\\csv\\4394_stroop.csv'
tp333
a(S'2015-05-22 12:36:48.277000'
g185
tp334
a(S'2015-05-22 12:36:48.287000'
g187
tp335
a(S'2015-05-22 12:36:48.291000'
S'data saved as csv to c:\\Charlie\\charlie\\data\\csv\\4394_stroop.csv'
tp336
a(S'2015-05-22 12:36:50.362000'
g185
tp337
a(S'2015-05-22 12:36:50.372000'
g187
tp338
a(S'2015-05-22 12:36:50.377000'
S'data saved as csv to c:\\Charlie\\charlie\\data\\csv\\4394_stroop.csv'
tp339
a(S'2015-05-22 12:36:51.507000'
g185
tp340
a(S'2015-05-22 12:36:51.517000'
g187
tp341
a(S'2015-05-22 12:36:51.522000'
S'data saved as csv to c:\\Charlie\\charlie\\data\\csv\\4394_stroop.csv'
tp342
a(S'2015-05-22 12:36:52.453000'
g185
tp343
a(S'2015-05-22 12:36:52.463000'
g187
tp344
a(S'2015-05-22 12:36:52.466000'
S'data saved as csv to c:\\Charlie\\charlie\\data\\csv\\4394_stroop.csv'
tp345
a(S'2015-05-22 12:36:53.813000'
g185
tp346
a(S'2015-05-22 12:36:53.824000'
g187
tp347
a(S'2015-05-22 12:36:53.828000'
S'data saved as csv to c:\\Charlie\\charlie\\data\\csv\\4394_stroop.csv'
tp348
a(S'2015-05-22 12:36:54.609000'
g185
tp349
a(S'2015-05-22 12:36:54.620000'
g187
tp350
a(S'2015-05-22 12:36:54.623000'
S'data saved as csv to c:\\Charlie\\charlie\\data\\csv\\4394_stroop.csv'
tp351
a(S'2015-05-22 12:36:57.242000'
g185
tp352
a(S'2015-05-22 12:36:57.251000'
g187
tp353
a(S'2015-05-22 12:36:57.256000'
S'data saved as csv to c:\\Charlie\\charlie\\data\\csv\\4394_stroop.csv'
tp354
a(S'2015-05-22 12:37:00.156000'
g185
tp355
a(S'2015-05-22 12:37:00.166000'
g187
tp356
a(S'2015-05-22 12:37:00.168000'
S'data saved as csv to c:\\Charlie\\charlie\\data\\csv\\4394_stroop.csv'
tp357
a(S'2015-05-22 12:37:01.108000'
g185
tp358
a(S'2015-05-22 12:37:01.118000'
g187
tp359
a(S'2015-05-22 12:37:01.122000'
S'data saved as csv to c:\\Charlie\\charlie\\data\\csv\\4394_stroop.csv'
tp360
a(S'2015-05-22 12:37:01.922000'
g185
tp361
a(S'2015-05-22 12:37:01.932000'
g187
tp362
a(S'2015-05-22 12:37:01.935000'
S'data saved as csv to c:\\Charlie\\charlie\\data\\csv\\4394_stroop.csv'
tp363
a(S'2015-05-22 12:37:03.224000'
g185
tp364
a(S'2015-05-22 12:37:03.234000'
g187
tp365
a(S'2015-05-22 12:37:03.238000'
S'data saved as csv to c:\\Charlie\\charlie\\data\\csv\\4394_stroop.csv'
tp366
a(S'2015-05-22 12:37:04.609000'
g185
tp367
a(S'2015-05-22 12:37:04.619000'
g187
tp368
a(S'2015-05-22 12:37:04.624000'
S'data saved as csv to c:\\Charlie\\charlie\\data\\csv\\4394_stroop.csv'
tp369
a(S'2015-05-22 12:37:05.705000'
g185
tp370
a(S'2015-05-22 12:37:05.715000'
g187
tp371
a(S'2015-05-22 12:37:05.720000'
S'data saved as csv to c:\\Charlie\\charlie\\data\\csv\\4394_stroop.csv'
tp372
a(S'2015-05-22 12:37:06.751000'
g185
tp373
a(S'2015-05-22 12:37:06.761000'
g187
tp374
a(S'2015-05-22 12:37:06.766000'
S'data saved as csv to c:\\Charlie\\charlie\\data\\csv\\4394_stroop.csv'
tp375
a(S'2015-05-22 12:37:07.727000'
g185
tp376
a(S'2015-05-22 12:37:07.737000'
g187
tp377
a(S'2015-05-22 12:37:07.741000'
S'data saved as csv to c:\\Charlie\\charlie\\data\\csv\\4394_stroop.csv'
tp378
a(S'2015-05-22 12:37:09.112000'
g185
tp379
a(S'2015-05-22 12:37:09.122000'
g187
tp380
a(S'2015-05-22 12:37:09.125000'
S'data saved as csv to c:\\Charlie\\charlie\\data\\csv\\4394_stroop.csv'
tp381
a(S'2015-05-22 12:37:10.594000'
g185
tp382
a(S'2015-05-22 12:37:10.604000'
g187
tp383
a(S'2015-05-22 12:37:10.609000'
S'data saved as csv to c:\\Charlie\\charlie\\data\\csv\\4394_stroop.csv'
tp384
a(S'2015-05-22 12:37:11.480000'
g185
tp385
a(S'2015-05-22 12:37:11.490000'
g187
tp386
a(S'2015-05-22 12:37:11.494000'
S'data saved as csv to c:\\Charlie\\charlie\\data\\csv\\4394_stroop.csv'
tp387
a(S'2015-05-22 12:37:12.322000'
g185
tp388
a(S'2015-05-22 12:37:12.332000'
g187
tp389
a(S'2015-05-22 12:37:12.335000'
S'data saved as csv to c:\\Charlie\\charlie\\data\\csv\\4394_stroop.csv'
tp390
a(S'2015-05-22 12:37:13.373000'
g185
tp391
a(S'2015-05-22 12:37:13.383000'
g187
tp392
a(S'2015-05-22 12:37:13.386000'
S'data saved as csv to c:\\Charlie\\charlie\\data\\csv\\4394_stroop.csv'
tp393
a(S'2015-05-22 12:37:14.465000'
g185
tp394
a(S'2015-05-22 12:37:14.475000'
g187
tp395
a(S'2015-05-22 12:37:14.479000'
S'data saved as csv to c:\\Charlie\\charlie\\data\\csv\\4394_stroop.csv'
tp396
a(S'2015-05-22 12:37:15.570000'
g185
tp397
a(S'2015-05-22 12:37:15.580000'
g187
tp398
a(S'2015-05-22 12:37:15.584000'
S'data saved as csv to c:\\Charlie\\charlie\\data\\csv\\4394_stroop.csv'
tp399
a(S'2015-05-22 12:37:16.676000'
g185
tp400
a(S'2015-05-22 12:37:16.686000'
g187
tp401
a(S'2015-05-22 12:37:16.690000'
S'data saved as csv to c:\\Charlie\\charlie\\data\\csv\\4394_stroop.csv'
tp402
a(S'2015-05-22 12:37:17.682000'
g185
tp403
a(S'2015-05-22 12:37:17.692000'
g187
tp404
a(S'2015-05-22 12:37:17.696000'
S'data saved as csv to c:\\Charlie\\charlie\\data\\csv\\4394_stroop.csv'
tp405
a(S'2015-05-22 12:37:18.585000'
g185
tp406
a(S'2015-05-22 12:37:18.595000'
g187
tp407
a(S'2015-05-22 12:37:18.597000'
S'data saved as csv to c:\\Charlie\\charlie\\data\\csv\\4394_stroop.csv'
tp408
a(S'2015-05-22 12:37:19.597000'
g185
tp409
a(S'2015-05-22 12:37:19.608000'
g187
tp410
a(S'2015-05-22 12:37:19.613000'
S'data saved as csv to c:\\Charlie\\charlie\\data\\csv\\4394_stroop.csv'
tp411
a(S'2015-05-22 12:37:20.612000'
g185
tp412
a(S'2015-05-22 12:37:20.623000'
g187
tp413
a(S'2015-05-22 12:37:20.627000'
S'data saved as csv to c:\\Charlie\\charlie\\data\\csv\\4394_stroop.csv'
tp414
a(S'2015-05-22 12:37:21.428000'
g185
tp415
a(S'2015-05-22 12:37:21.438000'
g187
tp416
a(S'2015-05-22 12:37:21.442000'
S'data saved as csv to c:\\Charlie\\charlie\\data\\csv\\4394_stroop.csv'
tp417
a(S'2015-05-22 12:37:22.241000'
g185
tp418
a(S'2015-05-22 12:37:22.251000'
g187
tp419
a(S'2015-05-22 12:37:22.254000'
S'data saved as csv to c:\\Charlie\\charlie\\data\\csv\\4394_stroop.csv'
tp420
a(S'2015-05-22 12:37:23.213000'
g185
tp421
a(S'2015-05-22 12:37:23.224000'
g187
tp422
a(S'2015-05-22 12:37:23.229000'
S'data saved as csv to c:\\Charlie\\charlie\\data\\csv\\4394_stroop.csv'
tp423
a(S'2015-05-22 12:37:24.124000'
g185
tp424
a(S'2015-05-22 12:37:24.135000'
g187
tp425
a(S'2015-05-22 12:37:24.139000'
S'data saved as csv to c:\\Charlie\\charlie\\data\\csv\\4394_stroop.csv'
tp426
a(S'2015-05-22 12:37:24.911000'
g185
tp427
a(S'2015-05-22 12:37:24.922000'
g187
tp428
a(S'2015-05-22 12:37:24.927000'
S'data saved as csv to c:\\Charlie\\charlie\\data\\csv\\4394_stroop.csv'
tp429
a(S'2015-05-22 12:37:25.709000'
g185
tp430
a(S'2015-05-22 12:37:25.720000'
g187
tp431
a(S'2015-05-22 12:37:25.724000'
S'data saved as csv to c:\\Charlie\\charlie\\data\\csv\\4394_stroop.csv'
tp432
a(S'2015-05-22 12:37:26.503000'
g185
tp433
a(S'2015-05-22 12:37:26.514000'
g187
tp434
a(S'2015-05-22 12:37:26.519000'
S'data saved as csv to c:\\Charlie\\charlie\\data\\csv\\4394_stroop.csv'
tp435
a(S'2015-05-22 12:37:27.271000'
g185
tp436
a(S'2015-05-22 12:37:27.281000'
g187
tp437
a(S'2015-05-22 12:37:27.285000'
S'data saved as csv to c:\\Charlie\\charlie\\data\\csv\\4394_stroop.csv'
tp438
a(S'2015-05-22 12:37:28.025000'
g185
tp439
a(S'2015-05-22 12:37:28.035000'
g187
tp440
a(S'2015-05-22 12:37:28.038000'
S'data saved as csv to c:\\Charlie\\charlie\\data\\csv\\4394_stroop.csv'
tp441
a(S'2015-05-22 12:37:29.256000'
g185
tp442
a(S'2015-05-22 12:37:29.267000'
g187
tp443
a(S'2015-05-22 12:37:29.272000'
S'data saved as csv to c:\\Charlie\\charlie\\data\\csv\\4394_stroop.csv'
tp444
a(S'2015-05-22 12:37:31.314000'
g185
tp445
a(S'2015-05-22 12:37:31.325000'
g187
tp446
a(S'2015-05-22 12:37:31.330000'
S'data saved as csv to c:\\Charlie\\charlie\\data\\csv\\4394_stroop.csv'
tp447
a(S'2015-05-22 12:37:32.048000'
g185
tp448
a(S'2015-05-22 12:37:32.059000'
g187
tp449
a(S'2015-05-22 12:37:32.063000'
S'data saved as csv to c:\\Charlie\\charlie\\data\\csv\\4394_stroop.csv'
tp450
a(S'2015-05-22 12:37:32.895000'
g185
tp451
a(S'2015-05-22 12:37:32.905000'
g187
tp452
a(S'2015-05-22 12:37:32.910000'
S'data saved as csv to c:\\Charlie\\charlie\\data\\csv\\4394_stroop.csv'
tp453
a(S'2015-05-22 12:37:33.862000'
g185
tp454
a(S'2015-05-22 12:37:33.873000'
g187
tp455
a(S'2015-05-22 12:37:33.877000'
S'data saved as csv to c:\\Charlie\\charlie\\data\\csv\\4394_stroop.csv'
tp456
a(S'2015-05-22 12:37:34.816000'
g185
tp457
a(S'2015-05-22 12:37:34.827000'
g187
tp458
a(S'2015-05-22 12:37:34.832000'
S'data saved as csv to c:\\Charlie\\charlie\\data\\csv\\4394_stroop.csv'
tp459
a(S'2015-05-22 12:37:36.065000'
g185
tp460
a(S'2015-05-22 12:37:36.075000'
g187
tp461
a(S'2015-05-22 12:37:36.080000'
S'data saved as csv to c:\\Charlie\\charlie\\data\\csv\\4394_stroop.csv'
tp462
a(S'2015-05-22 12:37:36.822000'
g185
tp463
a(S'2015-05-22 12:37:36.832000'
g187
tp464
a(S'2015-05-22 12:37:36.837000'
S'data saved as csv to c:\\Charlie\\charlie\\data\\csv\\4394_stroop.csv'
tp465
a(S'2015-05-22 12:37:37.688000'
g185
tp466
a(S'2015-05-22 12:37:37.699000'
g187
tp467
a(S'2015-05-22 12:37:37.704000'
S'data saved as csv to c:\\Charlie\\charlie\\data\\csv\\4394_stroop.csv'
tp468
a(S'2015-05-22 12:37:38.616000'
g185
tp469
a(S'2015-05-22 12:37:38.627000'
g187
tp470
a(S'2015-05-22 12:37:38.632000'
S'data saved as csv to c:\\Charlie\\charlie\\data\\csv\\4394_stroop.csv'
tp471
a(S'2015-05-22 12:37:39.924000'
g185
tp472
a(S'2015-05-22 12:37:39.932000'
g187
tp473
a(S'2015-05-22 12:37:39.935000'
S'data saved as csv to c:\\Charlie\\charlie\\data\\csv\\4394_stroop.csv'
tp474
a(S'2015-05-22 12:37:40.707000'
g185
tp475
a(S'2015-05-22 12:37:40.717000'
g187
tp476
a(S'2015-05-22 12:37:40.722000'
S'data saved as csv to c:\\Charlie\\charlie\\data\\csv\\4394_stroop.csv'
tp477
a(S'2015-05-22 12:37:41.534000'
g185
tp478
a(S'2015-05-22 12:37:41.545000'
g187
tp479
a(S'2015-05-22 12:37:41.549000'
S'data saved as csv to c:\\Charlie\\charlie\\data\\csv\\4394_stroop.csv'
tp480
a(S'2015-05-22 12:37:42.378000'
g185
tp481
a(S'2015-05-22 12:37:42.389000'
g187
tp482
a(S'2015-05-22 12:37:42.394000'
S'data saved as csv to c:\\Charlie\\charlie\\data\\csv\\4394_stroop.csv'
tp483
a(S'2015-05-22 12:37:43.256000'
g185
tp484
a(S'2015-05-22 12:37:43.267000'
g187
tp485
a(S'2015-05-22 12:37:43.272000'
S'data saved as csv to c:\\Charlie\\charlie\\data\\csv\\4394_stroop.csv'
tp486
a(S'2015-05-22 12:37:44.394000'
g185
tp487
a(S'2015-05-22 12:37:44.405000'
g187
tp488
a(S'2015-05-22 12:37:44.410000'
S'data saved as csv to c:\\Charlie\\charlie\\data\\csv\\4394_stroop.csv'
tp489
a(S'2015-05-22 12:37:45.262000'
g185
tp490
a(S'2015-05-22 12:37:45.273000'
g187
tp491
a(S'2015-05-22 12:37:45.278000'
S'data saved as csv to c:\\Charlie\\charlie\\data\\csv\\4394_stroop.csv'
tp492
a(S'2015-05-22 12:37:46.100000'
g185
tp493
a(S'2015-05-22 12:37:46.111000'
g187
tp494
a(S'2015-05-22 12:37:46.116000'
S'data saved as csv to c:\\Charlie\\charlie\\data\\csv\\4394_stroop.csv'
tp495
a(S'2015-05-22 12:37:47.129000'
g185
tp496
a(S'2015-05-22 12:37:47.140000'
g187
tp497
a(S'2015-05-22 12:37:47.145000'
S'data saved as csv to c:\\Charlie\\charlie\\data\\csv\\4394_stroop.csv'
tp498
a(S'2015-05-22 12:37:48.317000'
g185
tp499
a(S'2015-05-22 12:37:48.328000'
g187
tp500
a(S'2015-05-22 12:37:48.333000'
S'data saved as csv to c:\\Charlie\\charlie\\data\\csv\\4394_stroop.csv'
tp501
a(S'2015-05-22 12:37:50.736000'
g185
tp502
a(S'2015-05-22 12:37:50.747000'
g187
tp503
a(S'2015-05-22 12:37:50.750000'
S'data saved as csv to c:\\Charlie\\charlie\\data\\csv\\4394_stroop.csv'
tp504
a(S'2015-05-22 12:37:51.789000'
g185
tp505
a(S'2015-05-22 12:37:51.800000'
g187
tp506
a(S'2015-05-22 12:37:51.805000'
S'data saved as csv to c:\\Charlie\\charlie\\data\\csv\\4394_stroop.csv'
tp507
a(S'2015-05-22 12:37:52.988000'
g185
tp508
a(S'2015-05-22 12:37:52.999000'
g187
tp509
a(S'2015-05-22 12:37:53.004000'
S'data saved as csv to c:\\Charlie\\charlie\\data\\csv\\4394_stroop.csv'
tp510
a(S'2015-05-22 12:37:54.266000'
g185
tp511
a(S'2015-05-22 12:37:54.277000'
g187
tp512
a(S'2015-05-22 12:37:54.282000'
S'data saved as csv to c:\\Charlie\\charlie\\data\\csv\\4394_stroop.csv'
tp513
a(S'2015-05-22 12:37:55.362000'
g185
tp514
a(S'2015-05-22 12:37:55.372000'
g187
tp515
a(S'2015-05-22 12:37:55.377000'
S'data saved as csv to c:\\Charlie\\charlie\\data\\csv\\4394_stroop.csv'
tp516
a(S'2015-05-22 12:37:56.261000'
g185
tp517
a(S'2015-05-22 12:37:56.271000'
g187
tp518
a(S'2015-05-22 12:37:56.276000'
S'data saved as csv to c:\\Charlie\\charlie\\data\\csv\\4394_stroop.csv'
tp519
a(S'2015-05-22 12:37:57.208000'
g185
tp520
a(S'2015-05-22 12:37:57.219000'
g187
tp521
a(S'2015-05-22 12:37:57.222000'
S'data saved as csv to c:\\Charlie\\charlie\\data\\csv\\4394_stroop.csv'
tp522
a(S'2015-05-22 12:37:58.043000'
g185
tp523
a(S'2015-05-22 12:37:58.054000'
g187
tp524
a(S'2015-05-22 12:37:58.061000'
S'data saved as csv to c:\\Charlie\\charlie\\data\\csv\\4394_stroop.csv'
tp525
a(S'2015-05-22 12:37:59.442000'
g185
tp526
a(S'2015-05-22 12:37:59.453000'
g187
tp527
a(S'2015-05-22 12:37:59.458000'
S'data saved as csv to c:\\Charlie\\charlie\\data\\csv\\4394_stroop.csv'
tp528
a(S'2015-05-22 12:38:01.901000'
g185
tp529
a(S'2015-05-22 12:38:01.912000'
g187
tp530
a(S'2015-05-22 12:38:01.917000'
S'data saved as csv to c:\\Charlie\\charlie\\data\\csv\\4394_stroop.csv'
tp531
a(S'2015-05-22 12:38:02.860000'
g185
tp532
a(S'2015-05-22 12:38:02.871000'
g187
tp533
a(S'2015-05-22 12:38:02.876000'
S'data saved as csv to c:\\Charlie\\charlie\\data\\csv\\4394_stroop.csv'
tp534
asb.