(icharlie.tools.data
Data
p1
(dp2
S'lang'
p3
S'EN'
p4
sS'control'
p5
(lp6
sS'last_updated'
p7
cdatetime
datetime
p8
(S'\x07\xdf\x05\x16\x0c3\x00\x07\x9d8'
tRp9
sS'last_opened'
p10
g8
(S'\x07\xdf\x05\x16\x0c,0\x08-\xc0'
tRp11
sS'proj_id'
p12
S'connectivity'
p13
sS'date_done'
p14
NsS'test_done'
p15
I01
sS'data'
p16
(lp17
(S'4394'
p18
S'scap'
p19
S'practice'
p20
I3
I0
S'Yes'
p21
S'c:\\Charlie\\charlie\\stimuli\\visual\\scap\\practice-1.BMP'
S'c:\\Charlie\\charlie\\stimuli\\visual\\scap\\practice-2.BMP'
g21
I1620
tp22
a(g18
g19
g20
I4
I1
S'No'
p23
S'c:\\Charlie\\charlie\\stimuli\\visual\\scap\\practice-3.BMP'
S'c:\\Charlie\\charlie\\stimuli\\visual\\scap\\practice-4.BMP'
g23
I1120
tp24
a(g18
g19
g20
I5
I2
g21
S'c:\\Charlie\\charlie\\stimuli\\visual\\scap\\practice-5.BMP'
S'c:\\Charlie\\charlie\\stimuli\\visual\\scap\\practice-6.BMP'
g21
I1350
tp25
a(g18
g19
S'test'
p26
I3
I0
g21
S'c:\\Charlie\\charlie\\stimuli\\visual\\scap\\load3-1.BMP'
S'c:\\Charlie\\charlie\\stimuli\\visual\\scap\\load3-2.BMP'
g21
I1120
tp27
a(g18
g19
g26
I3
I1
g23
S'c:\\Charlie\\charlie\\stimuli\\visual\\scap\\load3-3.BMP'
S'c:\\Charlie\\charlie\\stimuli\\visual\\scap\\load3-4.BMP'
g21
I860
tp28
a(g18
g19
g26
I3
I2
g21
S'c:\\Charlie\\charlie\\stimuli\\visual\\scap\\load3-5.BMP'
S'c:\\Charlie\\charlie\\stimuli\\visual\\scap\\load3-6.BMP'
g21
I1370
tp29
a(g18
g19
g26
I3
I3
g21
S'c:\\Charlie\\charlie\\stimuli\\visual\\scap\\load3-7.BMP'
S'c:\\Charlie\\charlie\\stimuli\\visual\\scap\\load3-8.BMP'
g21
I990
tp30
a(g18
g19
g26
I3
I4
g23
S'c:\\Charlie\\charlie\\stimuli\\visual\\scap\\load3-9.BMP'
S'c:\\Charlie\\charlie\\stimuli\\visual\\scap\\load3-10.BMP'
g23
I590
tp31
a(g18
g19
g26
I3
I5
g21
S'c:\\Charlie\\charlie\\stimuli\\visual\\scap\\load3-11.BMP'
S'c:\\Charlie\\charlie\\stimuli\\visual\\scap\\load3-12.BMP'
g21
I720
tp32
a(g18
g19
g26
I3
I6
g23
S'c:\\Charlie\\charlie\\stimuli\\visual\\scap\\load3-13.BMP'
S'c:\\Charlie\\charlie\\stimuli\\visual\\scap\\load3-14.BMP'
g23
I790
tp33
a(g18
g19
g26
I3
I7
g23
S'c:\\Charlie\\charlie\\stimuli\\visual\\scap\\load3-15.BMP'
S'c:\\Charlie\\charlie\\stimuli\\visual\\scap\\load3-16.BMP'
g23
I740
tp34
a(g18
g19
g26
I3
I8
g21
S'c:\\Charlie\\charlie\\stimuli\\visual\\scap\\load3-17.BMP'
S'c:\\Charlie\\charlie\\stimuli\\visual\\scap\\load3-18.BMP'
g21
I1120
tp35
a(g18
g19
g26
I3
I9
g23
S'c:\\Charlie\\charlie\\stimuli\\visual\\scap\\load3-19.BMP'
S'c:\\Charlie\\charlie\\stimuli\\visual\\scap\\load3-20.BMP'
g23
I630
tp36
a(g18
g19
g26
I3
I10
g21
S'c:\\Charlie\\charlie\\stimuli\\visual\\scap\\load3-21.BMP'
S'c:\\Charlie\\charlie\\stimuli\\visual\\scap\\load3-22.BMP'
g23
I1230
tp37
a(g18
g19
g26
I3
I11
g21
S'c:\\Charlie\\charlie\\stimuli\\visual\\scap\\load3-23.BMP'
S'c:\\Charlie\\charlie\\stimuli\\visual\\scap\\load3-24.BMP'
g21
I680
tp38
a(g18
g19
g26
I3
I12
g23
S'c:\\Charlie\\charlie\\stimuli\\visual\\scap\\load3-25.BMP'
S'c:\\Charlie\\charlie\\stimuli\\visual\\scap\\load3-26.BMP'
g23
I680
tp39
a(g18
g19
g26
I3
I13
g23
S'c:\\Charlie\\charlie\\stimuli\\visual\\scap\\load3-27.BMP'
S'c:\\Charlie\\charlie\\stimuli\\visual\\scap\\load3-28.BMP'
g23
I890
tp40
a(g18
g19
g26
I4
I0
g23
S'c:\\Charlie\\charlie\\stimuli\\visual\\scap\\load4-1.BMP'
S'c:\\Charlie\\charlie\\stimuli\\visual\\scap\\load4-2.BMP'
g23
I730
tp41
a(g18
g19
g26
I4
I1
g21
S'c:\\Charlie\\charlie\\stimuli\\visual\\scap\\load4-3.BMP'
S'c:\\Charlie\\charlie\\stimuli\\visual\\scap\\load4-4.BMP'
g21
I1590
tp42
a(g18
g19
g26
I4
I2
g21
S'c:\\Charlie\\charlie\\stimuli\\visual\\scap\\load4-5.BMP'
S'c:\\Charlie\\charlie\\stimuli\\visual\\scap\\load4-6.BMP'
g21
I1200
tp43
a(g18
g19
g26
I4
I3
g23
S'c:\\Charlie\\charlie\\stimuli\\visual\\scap\\load4-7.BMP'
S'c:\\Charlie\\charlie\\stimuli\\visual\\scap\\load4-8.BMP'
g23
I930
tp44
a(g18
g19
g26
I4
I4
g23
S'c:\\Charlie\\charlie\\stimuli\\visual\\scap\\load4-9.BMP'
S'c:\\Charlie\\charlie\\stimuli\\visual\\scap\\load4-10.BMP'
g23
I870
tp45
a(g18
g19
g26
I4
I5
g21
S'c:\\Charlie\\charlie\\stimuli\\visual\\scap\\load4-11.BMP'
S'c:\\Charlie\\charlie\\stimuli\\visual\\scap\\load4-12.BMP'
g23
I1220
tp46
a(g18
g19
g26
I4
I6
g23
S'c:\\Charlie\\charlie\\stimuli\\visual\\scap\\load4-13.BMP'
S'c:\\Charlie\\charlie\\stimuli\\visual\\scap\\load4-14.BMP'
g23
I890
tp47
a(g18
g19
g26
I4
I7
g21
S'c:\\Charlie\\charlie\\stimuli\\visual\\scap\\load4-15.BMP'
S'c:\\Charlie\\charlie\\stimuli\\visual\\scap\\load4-16.BMP'
g23
I900
tp48
a(g18
g19
g26
I4
I8
g23
S'c:\\Charlie\\charlie\\stimuli\\visual\\scap\\load4-17.BMP'
S'c:\\Charlie\\charlie\\stimuli\\visual\\scap\\load4-18.BMP'
g23
I930
tp49
a(g18
g19
g26
I4
I9
g21
S'c:\\Charlie\\charlie\\stimuli\\visual\\scap\\load4-19.BMP'
S'c:\\Charlie\\charlie\\stimuli\\visual\\scap\\load4-20.BMP'
g21
I780
tp50
a(g18
g19
g26
I4
I10
g21
S'c:\\Charlie\\charlie\\stimuli\\visual\\scap\\load4-21.BMP'
S'c:\\Charlie\\charlie\\stimuli\\visual\\scap\\load4-22.BMP'
g21
I700
tp51
a(g18
g19
g26
I4
I11
g23
S'c:\\Charlie\\charlie\\stimuli\\visual\\scap\\load4-23.BMP'
S'c:\\Charlie\\charlie\\stimuli\\visual\\scap\\load4-24.BMP'
g23
I1500
tp52
a(g18
g19
g26
I4
I12
g21
S'c:\\Charlie\\charlie\\stimuli\\visual\\scap\\load4-25.BMP'
S'c:\\Charlie\\charlie\\stimuli\\visual\\scap\\load4-26.BMP'
g21
I850
tp53
a(g18
g19
g26
I4
I13
g23
S'c:\\Charlie\\charlie\\stimuli\\visual\\scap\\load4-27.BMP'
S'c:\\Charlie\\charlie\\stimuli\\visual\\scap\\load4-28.BMP'
g23
I790
tp54
a(g18
g19
g26
I5
I0
g21
S'c:\\Charlie\\charlie\\stimuli\\visual\\scap\\load5-1.BMP'
S'c:\\Charlie\\charlie\\stimuli\\visual\\scap\\load5-2.BMP'
g21
I870
tp55
a(g18
g19
g26
I5
I1
g21
S'c:\\Charlie\\charlie\\stimuli\\visual\\scap\\load5-3.BMP'
S'c:\\Charlie\\charlie\\stimuli\\visual\\scap\\load5-4.BMP'
g21
I991
tp56
a(g18
g19
g26
I5
I2
g21
S'c:\\Charlie\\charlie\\stimuli\\visual\\scap\\load5-5.BMP'
S'c:\\Charlie\\charlie\\stimuli\\visual\\scap\\load5-6.BMP'
g21
I900
tp57
a(g18
g19
g26
I5
I3
g21
S'c:\\Charlie\\charlie\\stimuli\\visual\\scap\\load5-7.BMP'
S'c:\\Charlie\\charlie\\stimuli\\visual\\scap\\load5-8.BMP'
g21
I600
tp58
a(g18
g19
g26
I5
I4
g21
S'c:\\Charlie\\charlie\\stimuli\\visual\\scap\\load5-9.BMP'
S'c:\\Charlie\\charlie\\stimuli\\visual\\scap\\load5-10.BMP'
g21
I620
tp59
a(g18
g19
g26
I5
I5
g21
S'c:\\Charlie\\charlie\\stimuli\\visual\\scap\\load5-11.BMP'
S'c:\\Charlie\\charlie\\stimuli\\visual\\scap\\load5-12.BMP'
g21
I800
tp60
a(g18
g19
g26
I5
I6
g23
S'c:\\Charlie\\charlie\\stimuli\\visual\\scap\\load5-13.BMP'
S'c:\\Charlie\\charlie\\stimuli\\visual\\scap\\load5-14.BMP'
g23
I751
tp61
a(g18
g19
g26
I5
I7
g23
S'c:\\Charlie\\charlie\\stimuli\\visual\\scap\\load5-15.BMP'
S'c:\\Charlie\\charlie\\stimuli\\visual\\scap\\load5-16.BMP'
g23
I880
tp62
a(g18
g19
g26
I5
I8
g23
S'c:\\Charlie\\charlie\\stimuli\\visual\\scap\\load5-17.BMP'
S'c:\\Charlie\\charlie\\stimuli\\visual\\scap\\load5-18.BMP'
g23
I760
tp63
a(g18
g19
g26
I5
I9
g23
S'c:\\Charlie\\charlie\\stimuli\\visual\\scap\\load5-19.BMP'
S'c:\\Charlie\\charlie\\stimuli\\visual\\scap\\load5-20.BMP'
g23
I840
tp64
a(g18
g19
g26
I5
I10
g23
S'c:\\Charlie\\charlie\\stimuli\\visual\\scap\\load5-21.BMP'
S'c:\\Charlie\\charlie\\stimuli\\visual\\scap\\load5-22.BMP'
g21
I660
tp65
a(g18
g19
g26
I5
I11
g21
S'c:\\Charlie\\charlie\\stimuli\\visual\\scap\\load5-23.BMP'
S'c:\\Charlie\\charlie\\stimuli\\visual\\scap\\load5-24.BMP'
g21
I2001
tp66
a(g18
g19
g26
I5
I12
g23
S'c:\\Charlie\\charlie\\stimuli\\visual\\scap\\load5-25.BMP'
S'c:\\Charlie\\charlie\\stimuli\\visual\\scap\\load5-26.BMP'
g23
I1330
tp67
a(g18
g19
g26
I5
I13
g23
S'c:\\Charlie\\charlie\\stimuli\\visual\\scap\\load5-27.BMP'
p68
S'c:\\Charlie\\charlie\\stimuli\\visual\\scap\\load5-28.BMP'
p69
g23
I720
tp70
asS'output_format'
p71
(lp72
(S'proband_id'
p73
c__builtin__
str
p74
tp75
a(S'test_name'
p76
g74
tp77
a(S'phase'
p78
g74
tp79
a(S'load'
p80
c__builtin__
int
p81
tp82
a(S'trialn'
p83
g81
tp84
a(S'ans'
p85
g74
tp86
a(S'array_f'
p87
g74
tp88
a(S'probe_f'
p89
g74
tp90
a(S'rsp'
p91
g74
tp92
a(S'rt'
p93
g81
tp94
asg73
g18
sS'filename'
p95
S'4394_scap.data'
p96
sS'initialised'
p97
g8
(S'\x07\xdf\x05\x16\x0c,0\x08-\xc0'
tRp98
sS'last_udated'
p99
g8
(S'\x07\xdf\x05\x16\x0c,0\x08-\xc0'
tRp100
sg76
S'scap'
p101
sS'directory'
p102
S'c:\\Charlie\\charlie\\data\\raw'
p103
sS'user_id'
p104
S'oleach'
p105
sS'test_started'
p106
I01
sS'abs_filename'
p107
S'c:\\Charlie\\charlie\\data\\raw\\4394_scap.data'
p108
sS'date_started'
p109
g8
(S'\x07\xdf\x05\x16\x0c-%\t\xe3@'
tRp110
sS'log'
p111
(lp112
(S'2015-05-22 12:44:48.536000'
S'instance created'
p113
tp114
a(S'2015-05-22 12:45:37.662000'
S'instance updated'
p115
tp116
a(S'2015-05-22 12:45:37.672000'
S'pandas DataFrame of data created'
p117
tp118
a(S'2015-05-22 12:45:37.680000'
S'data saved as csv to c:\\Charlie\\charlie\\data\\csv\\4394_scap.csv'
tp119
a(S'2015-05-22 12:45:45.838000'
g115
tp120
a(S'2015-05-22 12:45:45.848000'
g117
tp121
a(S'2015-05-22 12:45:45.852000'
S'data saved as csv to c:\\Charlie\\charlie\\data\\csv\\4394_scap.csv'
tp122
a(S'2015-05-22 12:45:54.238000'
g115
tp123
a(S'2015-05-22 12:45:54.248000'
g117
tp124
a(S'2015-05-22 12:45:54.252000'
S'data saved as csv to c:\\Charlie\\charlie\\data\\csv\\4394_scap.csv'
tp125
a(S'2015-05-22 12:46:10.425000'
g115
tp126
a(S'2015-05-22 12:46:10.434000'
g117
tp127
a(S'2015-05-22 12:46:10.437000'
S'data saved as csv to c:\\Charlie\\charlie\\data\\csv\\4394_scap.csv'
tp128
a(S'2015-05-22 12:46:17.432000'
g115
tp129
a(S'2015-05-22 12:46:17.442000'
g117
tp130
a(S'2015-05-22 12:46:17.444000'
S'data saved as csv to c:\\Charlie\\charlie\\data\\csv\\4394_scap.csv'
tp131
a(S'2015-05-22 12:46:24.948000'
g115
tp132
a(S'2015-05-22 12:46:24.958000'
g117
tp133
a(S'2015-05-22 12:46:24.962000'
S'data saved as csv to c:\\Charlie\\charlie\\data\\csv\\4394_scap.csv'
tp134
a(S'2015-05-22 12:46:32.088000'
g115
tp135
a(S'2015-05-22 12:46:32.098000'
g117
tp136
a(S'2015-05-22 12:46:32.102000'
S'data saved as csv to c:\\Charlie\\charlie\\data\\csv\\4394_scap.csv'
tp137
a(S'2015-05-22 12:46:38.828000'
g115
tp138
a(S'2015-05-22 12:46:38.838000'
g117
tp139
a(S'2015-05-22 12:46:38.842000'
S'data saved as csv to c:\\Charlie\\charlie\\data\\csv\\4394_scap.csv'
tp140
a(S'2015-05-22 12:46:45.697000'
g115
tp141
a(S'2015-05-22 12:46:45.707000'
g117
tp142
a(S'2015-05-22 12:46:45.711000'
S'data saved as csv to c:\\Charlie\\charlie\\data\\csv\\4394_scap.csv'
tp143
a(S'2015-05-22 12:46:52.638000'
g115
tp144
a(S'2015-05-22 12:46:52.648000'
g117
tp145
a(S'2015-05-22 12:46:52.652000'
S'data saved as csv to c:\\Charlie\\charlie\\data\\csv\\4394_scap.csv'
tp146
a(S'2015-05-22 12:46:59.527000'
g115
tp147
a(S'2015-05-22 12:46:59.537000'
g117
tp148
a(S'2015-05-22 12:46:59.541000'
S'data saved as csv to c:\\Charlie\\charlie\\data\\csv\\4394_scap.csv'
tp149
a(S'2015-05-22 12:47:06.797000'
g115
tp150
a(S'2015-05-22 12:47:06.808000'
g117
tp151
a(S'2015-05-22 12:47:06.811000'
S'data saved as csv to c:\\Charlie\\charlie\\data\\csv\\4394_scap.csv'
tp152
a(S'2015-05-22 12:47:13.577000'
g115
tp153
a(S'2015-05-22 12:47:13.587000'
g117
tp154
a(S'2015-05-22 12:47:13.591000'
S'data saved as csv to c:\\Charlie\\charlie\\data\\csv\\4394_scap.csv'
tp155
a(S'2015-05-22 12:47:20.956000'
g115
tp156
a(S'2015-05-22 12:47:20.967000'
g117
tp157
a(S'2015-05-22 12:47:20.971000'
S'data saved as csv to c:\\Charlie\\charlie\\data\\csv\\4394_scap.csv'
tp158
a(S'2015-05-22 12:47:27.785000'
g115
tp159
a(S'2015-05-22 12:47:27.795000'
g117
tp160
a(S'2015-05-22 12:47:27.799000'
S'data saved as csv to c:\\Charlie\\charlie\\data\\csv\\4394_scap.csv'
tp161
a(S'2015-05-22 12:47:34.615000'
g115
tp162
a(S'2015-05-22 12:47:34.625000'
g117
tp163
a(S'2015-05-22 12:47:34.629000'
S'data saved as csv to c:\\Charlie\\charlie\\data\\csv\\4394_scap.csv'
tp164
a(S'2015-05-22 12:47:41.656000'
g115
tp165
a(S'2015-05-22 12:47:41.666000'
g117
tp166
a(S'2015-05-22 12:47:41.670000'
S'data saved as csv to c:\\Charlie\\charlie\\data\\csv\\4394_scap.csv'
tp167
a(S'2015-05-22 12:47:48.533000'
g115
tp168
a(S'2015-05-22 12:47:48.543000'
g117
tp169
a(S'2015-05-22 12:47:48.547000'
S'data saved as csv to c:\\Charlie\\charlie\\data\\csv\\4394_scap.csv'
tp170
a(S'2015-05-22 12:47:56.272000'
g115
tp171
a(S'2015-05-22 12:47:56.282000'
g117
tp172
a(S'2015-05-22 12:47:56.286000'
S'data saved as csv to c:\\Charlie\\charlie\\data\\csv\\4394_scap.csv'
tp173
a(S'2015-05-22 12:48:03.623000'
g115
tp174
a(S'2015-05-22 12:48:03.634000'
g117
tp175
a(S'2015-05-22 12:48:03.638000'
S'data saved as csv to c:\\Charlie\\charlie\\data\\csv\\4394_scap.csv'
tp176
a(S'2015-05-22 12:48:10.703000'
g115
tp177
a(S'2015-05-22 12:48:10.713000'
g117
tp178
a(S'2015-05-22 12:48:10.718000'
S'data saved as csv to c:\\Charlie\\charlie\\data\\csv\\4394_scap.csv'
tp179
a(S'2015-05-22 12:48:17.724000'
g115
tp180
a(S'2015-05-22 12:48:17.735000'
g117
tp181
a(S'2015-05-22 12:48:17.739000'
S'data saved as csv to c:\\Charlie\\charlie\\data\\csv\\4394_scap.csv'
tp182
a(S'2015-05-22 12:48:25.095000'
g115
tp183
a(S'2015-05-22 12:48:25.105000'
g117
tp184
a(S'2015-05-22 12:48:25.107000'
S'data saved as csv to c:\\Charlie\\charlie\\data\\csv\\4394_scap.csv'
tp185
a(S'2015-05-22 12:48:32.132000'
g115
tp186
a(S'2015-05-22 12:48:32.143000'
g117
tp187
a(S'2015-05-22 12:48:32.147000'
S'data saved as csv to c:\\Charlie\\charlie\\data\\csv\\4394_scap.csv'
tp188
a(S'2015-05-22 12:48:39.183000'
g115
tp189
a(S'2015-05-22 12:48:39.194000'
g117
tp190
a(S'2015-05-22 12:48:39.198000'
S'data saved as csv to c:\\Charlie\\charlie\\data\\csv\\4394_scap.csv'
tp191
a(S'2015-05-22 12:48:46.265000'
g115
tp192
a(S'2015-05-22 12:48:46.276000'
g117
tp193
a(S'2015-05-22 12:48:46.280000'
S'data saved as csv to c:\\Charlie\\charlie\\data\\csv\\4394_scap.csv'
tp194
a(S'2015-05-22 12:48:53.196000'
g115
tp195
a(S'2015-05-22 12:48:53.207000'
g117
tp196
a(S'2015-05-22 12:48:53.211000'
S'data saved as csv to c:\\Charlie\\charlie\\data\\csv\\4394_scap.csv'
tp197
a(S'2015-05-22 12:49:00.047000'
g115
tp198
a(S'2015-05-22 12:49:00.058000'
g117
tp199
a(S'2015-05-22 12:49:00.062000'
S'data saved as csv to c:\\Charlie\\charlie\\data\\csv\\4394_scap.csv'
tp200
a(S'2015-05-22 12:49:07.698000'
g115
tp201
a(S'2015-05-22 12:49:07.709000'
g117
tp202
a(S'2015-05-22 12:49:07.713000'
S'data saved as csv to c:\\Charlie\\charlie\\data\\csv\\4394_scap.csv'
tp203
a(S'2015-05-22 12:49:14.699000'
g115
tp204
a(S'2015-05-22 12:49:14.710000'
g117
tp205
a(S'2015-05-22 12:49:14.714000'
S'data saved as csv to c:\\Charlie\\charlie\\data\\csv\\4394_scap.csv'
tp206
a(S'2015-05-22 12:49:21.641000'
g115
tp207
a(S'2015-05-22 12:49:21.652000'
g117
tp208
a(S'2015-05-22 12:49:21.656000'
S'data saved as csv to c:\\Charlie\\charlie\\data\\csv\\4394_scap.csv'
tp209
a(S'2015-05-22 12:49:28.662000'
g115
tp210
a(S'2015-05-22 12:49:28.673000'
g117
tp211
a(S'2015-05-22 12:49:28.678000'
S'data saved as csv to c:\\Charlie\\charlie\\data\\csv\\4394_scap.csv'
tp212
a(S'2015-05-22 12:49:35.804000'
g115
tp213
a(S'2015-05-22 12:49:35.815000'
g117
tp214
a(S'2015-05-22 12:49:35.819000'
S'data saved as csv to c:\\Charlie\\charlie\\data\\csv\\4394_scap.csv'
tp215
a(S'2015-05-22 12:49:42.856000'
g115
tp216
a(S'2015-05-22 12:49:42.868000'
g117
tp217
a(S'2015-05-22 12:49:42.872000'
S'data saved as csv to c:\\Charlie\\charlie\\data\\csv\\4394_scap.csv'
tp218
a(S'2015-05-22 12:49:49.608000'
g115
tp219
a(S'2015-05-22 12:49:49.619000'
g117
tp220
a(S'2015-05-22 12:49:49.623000'
S'data saved as csv to c:\\Charlie\\charlie\\data\\csv\\4394_scap.csv'
tp221
a(S'2015-05-22 12:49:56.379000'
g115
tp222
a(S'2015-05-22 12:49:56.389000'
g117
tp223
a(S'2015-05-22 12:49:56.392000'
S'data saved as csv to c:\\Charlie\\charlie\\data\\csv\\4394_scap.csv'
tp224
a(S'2015-05-22 12:50:03.327000'
g115
tp225
a(S'2015-05-22 12:50:03.338000'
g117
tp226
a(S'2015-05-22 12:50:03.342000'
S'data saved as csv to c:\\Charlie\\charlie\\data\\csv\\4394_scap.csv'
tp227
a(S'2015-05-22 12:50:10.230000'
g115
tp228
a(S'2015-05-22 12:50:10.241000'
g117
tp229
a(S'2015-05-22 12:50:10.245000'
S'data saved as csv to c:\\Charlie\\charlie\\data\\csv\\4394_scap.csv'
tp230
a(S'2015-05-22 12:50:17.261000'
g115
tp231
a(S'2015-05-22 12:50:17.272000'
g117
tp232
a(S'2015-05-22 12:50:17.276000'
S'data saved as csv to c:\\Charlie\\charlie\\data\\csv\\4394_scap.csv'
tp233
a(S'2015-05-22 12:50:24.173000'
g115
tp234
a(S'2015-05-22 12:50:24.184000'
g117
tp235
a(S'2015-05-22 12:50:24.188000'
S'data saved as csv to c:\\Charlie\\charlie\\data\\csv\\4394_scap.csv'
tp236
a(S'2015-05-22 12:50:31.166000'
g115
tp237
a(S'2015-05-22 12:50:31.177000'
g117
tp238
a(S'2015-05-22 12:50:31.181000'
S'data saved as csv to c:\\Charlie\\charlie\\data\\csv\\4394_scap.csv'
tp239
a(S'2015-05-22 12:50:37.978000'
g115
tp240
a(S'2015-05-22 12:50:37.990000'
g117
tp241
a(S'2015-05-22 12:50:37.994000'
S'data saved as csv to c:\\Charlie\\charlie\\data\\csv\\4394_scap.csv'
tp242
a(S'2015-05-22 12:50:46.131000'
g115
tp243
a(S'2015-05-22 12:50:46.142000'
g117
tp244
a(S'2015-05-22 12:50:46.147000'
S'data saved as csv to c:\\Charlie\\charlie\\data\\csv\\4394_scap.csv'
tp245
a(S'2015-05-22 12:50:53.613000'
g115
tp246
a(S'2015-05-22 12:50:53.625000'
g117
tp247
a(S'2015-05-22 12:50:53.627000'
S'data saved as csv to c:\\Charlie\\charlie\\data\\csv\\4394_scap.csv'
tp248
a(S'2015-05-22 12:51:00.483000'
g115
tp249
a(S'2015-05-22 12:51:00.494000'
g117
tp250
a(S'2015-05-22 12:51:00.498000'
S'data saved as csv to c:\\Charlie\\charlie\\data\\csv\\4394_scap.csv'
tp251
asb.