(icharlie.tools.data
Data
p1
(dp2
S'lang'
p3
S'EN'
p4
sS'control'
p5
(lp6
sS'last_updated'
p7
cdatetime
datetime
p8
(S'\x07\xdf\x05\x1a\n)\x0b\n\x16\x08'
tRp9
sS'last_opened'
p10
g8
(S'\x07\xdf\x05\x1a\n$0\x061\xf0'
tRp11
sS'proj_id'
p12
S'connectivity'
p13
sS'date_done'
p14
NsS'test_done'
p15
I01
sS'data'
p16
(lp17
(S'4395'
p18
S'matrix_reasoning'
p19
S'practice'
p20
I0
S'c:\\Charlie\\charlie\\stimuli\\visual\\matrix_reasoning\\prac_MA.png'
S'c:\\Charlie\\charlie\\stimuli\\visual\\matrix_reasoning\\prac_MAa.png'
I1
I1
I1895
tp21
a(g18
g19
S'test'
p22
I0
S'c:\\Charlie\\charlie\\stimuli\\visual\\matrix_reasoning\\M001.png'
S'c:\\Charlie\\charlie\\stimuli\\visual\\matrix_reasoning\\M001a.png'
I1
I1
I1485
tp23
a(g18
g19
g22
I1
S'c:\\Charlie\\charlie\\stimuli\\visual\\matrix_reasoning\\M002.png'
S'c:\\Charlie\\charlie\\stimuli\\visual\\matrix_reasoning\\M002a.png'
I3
I3
I2998
tp24
a(g18
g19
g22
I2
S'c:\\Charlie\\charlie\\stimuli\\visual\\matrix_reasoning\\M003.png'
S'c:\\Charlie\\charlie\\stimuli\\visual\\matrix_reasoning\\M003a.png'
I1
I1
I3394
tp25
a(g18
g19
g22
I3
S'c:\\Charlie\\charlie\\stimuli\\visual\\matrix_reasoning\\M004.png'
S'c:\\Charlie\\charlie\\stimuli\\visual\\matrix_reasoning\\M004a.png'
I3
I3
I2813
tp26
a(g18
g19
g22
I4
S'c:\\Charlie\\charlie\\stimuli\\visual\\matrix_reasoning\\M005.png'
S'c:\\Charlie\\charlie\\stimuli\\visual\\matrix_reasoning\\M005a.png'
I2
I2
I3822
tp27
a(g18
g19
g22
I5
S'c:\\Charlie\\charlie\\stimuli\\visual\\matrix_reasoning\\M006.png'
S'c:\\Charlie\\charlie\\stimuli\\visual\\matrix_reasoning\\M006a.png'
I0
I0
I3621
tp28
a(g18
g19
g22
I6
S'c:\\Charlie\\charlie\\stimuli\\visual\\matrix_reasoning\\M007.png'
S'c:\\Charlie\\charlie\\stimuli\\visual\\matrix_reasoning\\M007a.png'
I0
I0
I4425
tp29
a(g18
g19
g22
I7
S'c:\\Charlie\\charlie\\stimuli\\visual\\matrix_reasoning\\M008.png'
S'c:\\Charlie\\charlie\\stimuli\\visual\\matrix_reasoning\\M008a.png'
I2
I0
I4302
tp30
a(g18
g19
g22
I8
S'c:\\Charlie\\charlie\\stimuli\\visual\\matrix_reasoning\\M009.png'
S'c:\\Charlie\\charlie\\stimuli\\visual\\matrix_reasoning\\M009a.png'
I4
I4
I4949
tp31
a(g18
g19
g22
I9
S'c:\\Charlie\\charlie\\stimuli\\visual\\matrix_reasoning\\M010.png'
S'c:\\Charlie\\charlie\\stimuli\\visual\\matrix_reasoning\\M010a.png'
I4
I4
I4845
tp32
a(g18
g19
g22
I10
S'c:\\Charlie\\charlie\\stimuli\\visual\\matrix_reasoning\\M011.png'
S'c:\\Charlie\\charlie\\stimuli\\visual\\matrix_reasoning\\M011a.png'
I4
I4
I3762
tp33
a(g18
g19
g22
I11
S'c:\\Charlie\\charlie\\stimuli\\visual\\matrix_reasoning\\M012.png'
S'c:\\Charlie\\charlie\\stimuli\\visual\\matrix_reasoning\\M012a.png'
I1
I1
I7865
tp34
a(g18
g19
g22
I12
S'c:\\Charlie\\charlie\\stimuli\\visual\\matrix_reasoning\\M013.png'
S'c:\\Charlie\\charlie\\stimuli\\visual\\matrix_reasoning\\M013a.png'
I2
I2
I5399
tp35
a(g18
g19
g22
I13
S'c:\\Charlie\\charlie\\stimuli\\visual\\matrix_reasoning\\M014.png'
S'c:\\Charlie\\charlie\\stimuli\\visual\\matrix_reasoning\\M014a.png'
I0
I0
I4776
tp36
a(g18
g19
g22
I14
S'c:\\Charlie\\charlie\\stimuli\\visual\\matrix_reasoning\\M015.png'
S'c:\\Charlie\\charlie\\stimuli\\visual\\matrix_reasoning\\M015a.png'
I1
I1
I5240
tp37
a(g18
g19
g22
I15
S'c:\\Charlie\\charlie\\stimuli\\visual\\matrix_reasoning\\M016.png'
S'c:\\Charlie\\charlie\\stimuli\\visual\\matrix_reasoning\\M016a.png'
I3
I3
I5281
tp38
a(g18
g19
g22
I16
S'c:\\Charlie\\charlie\\stimuli\\visual\\matrix_reasoning\\M017.png'
S'c:\\Charlie\\charlie\\stimuli\\visual\\matrix_reasoning\\M017a.png'
I2
I2
I7442
tp39
a(g18
g19
g22
I17
S'c:\\Charlie\\charlie\\stimuli\\visual\\matrix_reasoning\\M018.png'
S'c:\\Charlie\\charlie\\stimuli\\visual\\matrix_reasoning\\M018a.png'
I0
I0
I3445
tp40
a(g18
g19
g22
I18
S'c:\\Charlie\\charlie\\stimuli\\visual\\matrix_reasoning\\M019.png'
S'c:\\Charlie\\charlie\\stimuli\\visual\\matrix_reasoning\\M019a.png'
I0
I3
I11374
tp41
a(g18
g19
g22
I19
S'c:\\Charlie\\charlie\\stimuli\\visual\\matrix_reasoning\\M020.png'
S'c:\\Charlie\\charlie\\stimuli\\visual\\matrix_reasoning\\M020a.png'
I3
I3
I11006
tp42
a(g18
g19
g22
I20
S'c:\\Charlie\\charlie\\stimuli\\visual\\matrix_reasoning\\M021.png'
S'c:\\Charlie\\charlie\\stimuli\\visual\\matrix_reasoning\\M021a.png'
I4
I4
I11656
tp43
a(g18
g19
g22
I21
S'c:\\Charlie\\charlie\\stimuli\\visual\\matrix_reasoning\\M022.png'
S'c:\\Charlie\\charlie\\stimuli\\visual\\matrix_reasoning\\M022a.png'
I4
I2
I12841
tp44
a(g18
g19
g22
I22
S'c:\\Charlie\\charlie\\stimuli\\visual\\matrix_reasoning\\M023.png'
S'c:\\Charlie\\charlie\\stimuli\\visual\\matrix_reasoning\\M023a.png'
I1
I1
I13674
tp45
a(g18
g19
g22
I23
S'c:\\Charlie\\charlie\\stimuli\\visual\\matrix_reasoning\\M024.png'
S'c:\\Charlie\\charlie\\stimuli\\visual\\matrix_reasoning\\M024a.png'
I1
I1
I9924
tp46
a(g18
g19
g22
I24
S'c:\\Charlie\\charlie\\stimuli\\visual\\matrix_reasoning\\M025.png'
S'c:\\Charlie\\charlie\\stimuli\\visual\\matrix_reasoning\\M025a.png'
I0
I4
I9432
tp47
a(g18
g19
g22
I25
S'c:\\Charlie\\charlie\\stimuli\\visual\\matrix_reasoning\\M026.png'
S'c:\\Charlie\\charlie\\stimuli\\visual\\matrix_reasoning\\M026a.png'
I4
I0
I16323
tp48
a(g18
g19
g22
I26
S'c:\\Charlie\\charlie\\stimuli\\visual\\matrix_reasoning\\M027.png'
S'c:\\Charlie\\charlie\\stimuli\\visual\\matrix_reasoning\\M027a.png'
I3
I4
I26748
tp49
a(g18
g19
g22
I27
S'c:\\Charlie\\charlie\\stimuli\\visual\\matrix_reasoning\\M028.png'
p50
S'c:\\Charlie\\charlie\\stimuli\\visual\\matrix_reasoning\\M028a.png'
p51
I2
I3
I26420
tp52
asS'output_format'
p53
(lp54
(S'proband_id'
p55
c__builtin__
str
p56
tp57
a(S'test_name'
p58
g56
tp59
a(S'phase'
p60
g56
tp61
a(S'trialn'
p62
c__builtin__
int
p63
tp64
a(S'matrix'
p65
g56
tp66
a(S'array'
p67
g56
tp68
a(S'ans'
p69
g63
tp70
a(S'rsp'
p71
g63
tp72
a(S'rt'
p73
g63
tp74
asg55
g18
sS'filename'
p75
S'4395_matrix_reasoning.data'
p76
sS'initialised'
p77
g8
(S'\x07\xdf\x05\x1a\n$0\x061\xf0'
tRp78
sS'last_udated'
p79
g8
(S'\x07\xdf\x05\x1a\n$0\x061\xf0'
tRp80
sg58
S'matrix_reasoning'
p81
sS'directory'
p82
S'c:\\Charlie\\charlie\\data\\raw'
p83
sS'user_id'
p84
S'sbuccheri'
p85
sS'test_started'
p86
I01
sS'abs_filename'
p87
S'c:\\Charlie\\charlie\\data\\raw\\4395_matrix_reasoning.data'
p88
sS'date_started'
p89
g8
(S'\x07\xdf\x05\x1a\n%\x0f\x04\xe2\x00'
tRp90
sS'log'
p91
(lp92
(S'2015-05-26 10:36:48.406000'
S'instance created'
p93
tp94
a(S'2015-05-26 10:37:15.334000'
S'instance updated'
p95
tp96
a(S'2015-05-26 10:37:15.343000'
S'pandas DataFrame of data created'
p97
tp98
a(S'2015-05-26 10:37:15.353000'
S'data saved as csv to c:\\Charlie\\charlie\\data\\csv\\4395_matrix_reasoning.csv'
tp99
a(S'2015-05-26 10:37:15.362000'
g97
tp100
a(S'2015-05-26 10:37:19.635000'
g95
tp101
a(S'2015-05-26 10:37:19.645000'
g97
tp102
a(S'2015-05-26 10:37:19.649000'
S'data saved as csv to c:\\Charlie\\charlie\\data\\csv\\4395_matrix_reasoning.csv'
tp103
a(S'2015-05-26 10:37:19.655000'
g97
tp104
a(S'2015-05-26 10:37:22.787000'
g95
tp105
a(S'2015-05-26 10:37:22.796000'
g97
tp106
a(S'2015-05-26 10:37:22.800000'
S'data saved as csv to c:\\Charlie\\charlie\\data\\csv\\4395_matrix_reasoning.csv'
tp107
a(S'2015-05-26 10:37:22.806000'
g97
tp108
a(S'2015-05-26 10:37:26.338000'
g95
tp109
a(S'2015-05-26 10:37:26.348000'
g97
tp110
a(S'2015-05-26 10:37:26.352000'
S'data saved as csv to c:\\Charlie\\charlie\\data\\csv\\4395_matrix_reasoning.csv'
tp111
a(S'2015-05-26 10:37:26.361000'
g97
tp112
a(S'2015-05-26 10:37:29.313000'
g95
tp113
a(S'2015-05-26 10:37:29.321000'
g97
tp114
a(S'2015-05-26 10:37:29.324000'
S'data saved as csv to c:\\Charlie\\charlie\\data\\csv\\4395_matrix_reasoning.csv'
tp115
a(S'2015-05-26 10:37:29.331000'
g97
tp116
a(S'2015-05-26 10:37:33.290000'
g95
tp117
a(S'2015-05-26 10:37:33.300000'
g97
tp118
a(S'2015-05-26 10:37:33.303000'
S'data saved as csv to c:\\Charlie\\charlie\\data\\csv\\4395_matrix_reasoning.csv'
tp119
a(S'2015-05-26 10:37:33.308000'
g97
tp120
a(S'2015-05-26 10:37:37.059000'
g95
tp121
a(S'2015-05-26 10:37:37.065000'
g97
tp122
a(S'2015-05-26 10:37:37.067000'
S'data saved as csv to c:\\Charlie\\charlie\\data\\csv\\4395_matrix_reasoning.csv'
tp123
a(S'2015-05-26 10:37:37.073000'
g97
tp124
a(S'2015-05-26 10:37:41.634000'
g95
tp125
a(S'2015-05-26 10:37:41.642000'
g97
tp126
a(S'2015-05-26 10:37:41.645000'
S'data saved as csv to c:\\Charlie\\charlie\\data\\csv\\4395_matrix_reasoning.csv'
tp127
a(S'2015-05-26 10:37:41.650000'
g97
tp128
a(S'2015-05-26 10:37:46.084000'
g95
tp129
a(S'2015-05-26 10:37:46.088000'
g97
tp130
a(S'2015-05-26 10:37:46.090000'
S'data saved as csv to c:\\Charlie\\charlie\\data\\csv\\4395_matrix_reasoning.csv'
tp131
a(S'2015-05-26 10:37:46.094000'
g97
tp132
a(S'2015-05-26 10:37:51.177000'
g95
tp133
a(S'2015-05-26 10:37:51.187000'
g97
tp134
a(S'2015-05-26 10:37:51.191000'
S'data saved as csv to c:\\Charlie\\charlie\\data\\csv\\4395_matrix_reasoning.csv'
tp135
a(S'2015-05-26 10:37:51.200000'
g97
tp136
a(S'2015-05-26 10:37:56.185000'
g95
tp137
a(S'2015-05-26 10:37:56.195000'
g97
tp138
a(S'2015-05-26 10:37:56.199000'
S'data saved as csv to c:\\Charlie\\charlie\\data\\csv\\4395_matrix_reasoning.csv'
tp139
a(S'2015-05-26 10:37:56.209000'
g97
tp140
a(S'2015-05-26 10:38:00.112000'
g95
tp141
a(S'2015-05-26 10:38:00.122000'
g97
tp142
a(S'2015-05-26 10:38:00.126000'
S'data saved as csv to c:\\Charlie\\charlie\\data\\csv\\4395_matrix_reasoning.csv'
tp143
a(S'2015-05-26 10:38:00.136000'
g97
tp144
a(S'2015-05-26 10:38:08.140000'
g95
tp145
a(S'2015-05-26 10:38:08.148000'
g97
tp146
a(S'2015-05-26 10:38:08.151000'
S'data saved as csv to c:\\Charlie\\charlie\\data\\csv\\4395_matrix_reasoning.csv'
tp147
a(S'2015-05-26 10:38:08.158000'
g97
tp148
a(S'2015-05-26 10:38:13.696000'
g95
tp149
a(S'2015-05-26 10:38:13.706000'
g97
tp150
a(S'2015-05-26 10:38:13.710000'
S'data saved as csv to c:\\Charlie\\charlie\\data\\csv\\4395_matrix_reasoning.csv'
tp151
a(S'2015-05-26 10:38:13.720000'
g97
tp152
a(S'2015-05-26 10:38:18.639000'
g95
tp153
a(S'2015-05-26 10:38:18.650000'
g97
tp154
a(S'2015-05-26 10:38:18.654000'
S'data saved as csv to c:\\Charlie\\charlie\\data\\csv\\4395_matrix_reasoning.csv'
tp155
a(S'2015-05-26 10:38:18.662000'
g97
tp156
a(S'2015-05-26 10:38:24.039000'
g95
tp157
a(S'2015-05-26 10:38:24.049000'
g97
tp158
a(S'2015-05-26 10:38:24.053000'
S'data saved as csv to c:\\Charlie\\charlie\\data\\csv\\4395_matrix_reasoning.csv'
tp159
a(S'2015-05-26 10:38:24.061000'
g97
tp160
a(S'2015-05-26 10:38:29.479000'
g95
tp161
a(S'2015-05-26 10:38:29.489000'
g97
tp162
a(S'2015-05-26 10:38:29.494000'
S'data saved as csv to c:\\Charlie\\charlie\\data\\csv\\4395_matrix_reasoning.csv'
tp163
a(S'2015-05-26 10:38:29.503000'
g97
tp164
a(S'2015-05-26 10:38:37.081000'
g95
tp165
a(S'2015-05-26 10:38:37.085000'
g97
tp166
a(S'2015-05-26 10:38:37.087000'
S'data saved as csv to c:\\Charlie\\charlie\\data\\csv\\4395_matrix_reasoning.csv'
tp167
a(S'2015-05-26 10:38:37.090000'
g97
tp168
a(S'2015-05-26 10:38:40.670000'
g95
tp169
a(S'2015-05-26 10:38:40.679000'
g97
tp170
a(S'2015-05-26 10:38:40.682000'
S'data saved as csv to c:\\Charlie\\charlie\\data\\csv\\4395_matrix_reasoning.csv'
tp171
a(S'2015-05-26 10:38:40.687000'
g97
tp172
a(S'2015-05-26 10:38:52.197000'
g95
tp173
a(S'2015-05-26 10:38:52.207000'
g97
tp174
a(S'2015-05-26 10:38:52.212000'
S'data saved as csv to c:\\Charlie\\charlie\\data\\csv\\4395_matrix_reasoning.csv'
tp175
a(S'2015-05-26 10:38:52.222000'
g97
tp176
a(S'2015-05-26 10:39:03.373000'
g95
tp177
a(S'2015-05-26 10:39:03.384000'
g97
tp178
a(S'2015-05-26 10:39:03.386000'
S'data saved as csv to c:\\Charlie\\charlie\\data\\csv\\4395_matrix_reasoning.csv'
tp179
a(S'2015-05-26 10:39:03.390000'
g97
tp180
a(S'2015-05-26 10:39:15.180000'
g95
tp181
a(S'2015-05-26 10:39:15.190000'
g97
tp182
a(S'2015-05-26 10:39:15.195000'
S'data saved as csv to c:\\Charlie\\charlie\\data\\csv\\4395_matrix_reasoning.csv'
tp183
a(S'2015-05-26 10:39:15.204000'
g97
tp184
a(S'2015-05-26 10:39:28.180000'
g95
tp185
a(S'2015-05-26 10:39:28.190000'
g97
tp186
a(S'2015-05-26 10:39:28.195000'
S'data saved as csv to c:\\Charlie\\charlie\\data\\csv\\4395_matrix_reasoning.csv'
tp187
a(S'2015-05-26 10:39:28.201000'
g97
tp188
a(S'2015-05-26 10:39:42.007000'
g95
tp189
a(S'2015-05-26 10:39:42.015000'
g97
tp190
a(S'2015-05-26 10:39:42.018000'
S'data saved as csv to c:\\Charlie\\charlie\\data\\csv\\4395_matrix_reasoning.csv'
tp191
a(S'2015-05-26 10:39:42.025000'
g97
tp192
a(S'2015-05-26 10:39:52.086000'
g95
tp193
a(S'2015-05-26 10:39:52.093000'
g97
tp194
a(S'2015-05-26 10:39:52.097000'
S'data saved as csv to c:\\Charlie\\charlie\\data\\csv\\4395_matrix_reasoning.csv'
tp195
a(S'2015-05-26 10:39:52.104000'
g97
tp196
a(S'2015-05-26 10:40:01.674000'
g95
tp197
a(S'2015-05-26 10:40:01.685000'
g97
tp198
a(S'2015-05-26 10:40:01.689000'
S'data saved as csv to c:\\Charlie\\charlie\\data\\csv\\4395_matrix_reasoning.csv'
tp199
a(S'2015-05-26 10:40:01.699000'
g97
tp200
a(S'2015-05-26 10:40:18.156000'
g95
tp201
a(S'2015-05-26 10:40:18.164000'
g97
tp202
a(S'2015-05-26 10:40:18.167000'
S'data saved as csv to c:\\Charlie\\charlie\\data\\csv\\4395_matrix_reasoning.csv'
tp203
a(S'2015-05-26 10:40:18.173000'
g97
tp204
a(S'2015-05-26 10:40:45.054000'
g95
tp205
a(S'2015-05-26 10:40:45.062000'
g97
tp206
a(S'2015-05-26 10:40:45.065000'
S'data saved as csv to c:\\Charlie\\charlie\\data\\csv\\4395_matrix_reasoning.csv'
tp207
a(S'2015-05-26 10:40:45.072000'
g97
tp208
a(S'2015-05-26 10:41:11.631000'
g95
tp209
a(S'2015-05-26 10:41:11.641000'
g97
tp210
a(S'2015-05-26 10:41:11.645000'
S'data saved as csv to c:\\Charlie\\charlie\\data\\csv\\4395_matrix_reasoning.csv'
tp211
a(S'2015-05-26 10:41:11.655000'
g97
tp212
asb.