(icharlie.tools.data
Data
p1
(dp2
S'lang'
p3
S'EN'
p4
sS'control'
p5
(lp6
sS'last_updated'
p7
cdatetime
datetime
p8
(S'\x07\xdf\x06\x0f\t\n\x0e\t\xdfX'
tRp9
sS'last_opened'
p10
g8
(S"\x07\xdf\x06\x0f\t\x04\x15\x00'\x10"
tRp11
sS'proj_id'
p12
S'connectivity'
p13
sS'date_done'
p14
g8
(S'\x07\xdf\x06\x0f\t\n\x0e\t\x00\xb0'
tRp15
sS'test_done'
p16
I01
sS'data'
p17
(lp18
(S'4402'
p19
S'cvlt2'
p20
I0
csip
_unpickle_type
p21
(S'PyQt4.QtCore'
p22
S'QString'
(Vzebra
p23
ttRp24
tp25
a(g19
g20
I0
g21
(g22
S'QString'
(Vsubway
p26
ttRp27
tp28
a(g19
g20
I0
g21
(g22
S'QString'
(Vbookcase
p29
ttRp30
tp31
a(g19
g20
I1
g21
(g22
S'QString'
(Vlamp
p32
ttRp33
tp34
a(g19
g20
I1
g21
(g22
S'QString'
(Vcelery
p35
ttRp36
tp37
a(g19
g20
I1
g21
(g22
S'QString'
(Vcow
p38
ttRp39
tp40
a(g19
g20
I1
g21
(g22
S'QString'
(Vcabbage
p41
ttRp42
tp43
a(g19
g20
I1
g21
(g22
S'QString'
(Vzebra
p44
ttRp45
tp46
a(g19
g20
I1
g21
(g22
S'QString'
(Vtruck
p47
ttRp48
tp49
a(g19
g20
I1
g21
(g22
S'QString'
(Vintrusion
p50
ttRp51
tp52
a(g19
g20
I2
g21
(g22
S'QString'
(Vdesk
p53
ttRp54
tp55
a(g19
g20
I2
g21
(g22
S'QString'
(Vboat
p56
ttRp57
tp58
a(g19
g20
I2
g21
(g22
S'QString'
(Vbookcase
p59
ttRp60
tp61
a(g19
g20
I2
g21
(g22
S'QString'
(Vtruck
p62
ttRp63
tp64
a(g19
g20
I2
g21
(g22
S'QString'
(Vzebra
p65
ttRp66
tp67
a(g19
g20
I2
g21
(g22
S'QString'
(Vsubway
p68
ttRp69
tp70
a(g19
g20
I2
g21
(g22
S'QString'
(Vboat
p71
ttRp72
tp73
a(g19
g20
I3
g21
(g22
S'QString'
(Vonion
p74
ttRp75
tp76
a(g19
g20
I3
g21
(g22
S'QString'
(Vlamp
p77
ttRp78
tp79
a(g19
g20
I3
g21
(g22
S'QString'
(Vsquirrel
p80
ttRp81
tp82
a(g19
g20
I3
g21
(g22
S'QString'
(Vcabbage
p83
ttRp84
tp85
a(g19
g20
I3
g21
(g22
S'QString'
(Vzebra
p86
ttRp87
tp88
a(g19
g20
I3
g21
(g22
S'QString'
(Vsubway
p89
ttRp90
tp91
a(g19
g20
I3
g21
(g22
S'QString'
(Vtruck
p92
ttRp93
tp94
a(g19
g20
I3
g21
(g22
S'QString'
(Vintrusion
p95
ttRp96
tp97
a(g19
g20
I3
g21
(g22
S'QString'
(Vonion
p98
ttRp99
tp100
a(g19
g20
I3
g21
(g22
S'QString'
(Vcelery
p101
ttRp102
tp103
a(g19
g20
I4
g21
(g22
S'QString'
(Vcabbage
p104
ttRp105
tp106
a(g19
g20
I4
g21
(g22
S'QString'
(Vspinach
p107
ttRp108
tp109
a(g19
g20
I4
g21
(g22
S'QString'
(Vcelery
p110
ttRp111
tp112
a(g19
g20
I4
g21
(g22
S'QString'
(Vsubway
p113
ttRp114
tp115
a(g19
g20
I4
g21
(g22
S'QString'
(Vtruck
p116
ttRp117
tp118
a(g19
g20
I4
g21
(g22
S'QString'
(Vcabbage
p119
ttRp120
tp121
a(g19
g20
I4
g21
(g22
S'QString'
(Vcelery
p122
ttRp123
tp124
a(g19
g20
I4
g21
(g22
S'QString'
(Vtruck
p125
ttRp126
tp127
a(g19
g20
I4
g21
(g22
S'QString'
(Vsquirrel
p128
ttRp129
tp130
asS'output_format'
p131
(lp132
(S'proband_id'
p133
c__builtin__
str
p134
tp135
a(S'test_name'
p136
g134
tp137
a(S'trialn'
p138
c__builtin__
int
p139
tp140
a(S'rsp'
p141
g134
tp142
asg133
g19
sS'filename'
p143
S'4402_cvlt2.data'
p144
sS'initialised'
p145
g8
(S"\x07\xdf\x06\x0f\t\x04\x15\x00'\x10"
tRp146
sS'last_udated'
p147
g8
(S"\x07\xdf\x06\x0f\t\x04\x15\x00'\x10"
tRp148
sg136
S'cvlt2'
p149
sS'directory'
p150
S'C:\\Users\\Jbarrett\\Charlie\\charlie\\data\\raw'
p151
sS'user_id'
p152
S'jbarrett'
p153
sS'test_started'
p154
I01
sS'abs_filename'
p155
S'C:\\Users\\Jbarrett\\Charlie\\charlie\\data\\raw\\4402_cvlt2.data'
p156
sS'date_started'
p157
g8
(S'\x07\xdf\x06\x0f\t\x05 \x01~\xd0'
tRp158
sS'log'
p159
(lp160
(S'2015-06-15 09:04:21.010000'
S'instance created'
p161
tp162
a(S'2015-06-15 09:05:32.107000'
S'instance updated'
p163
tp164
a(S'2015-06-15 09:05:32.118000'
S'pandas DataFrame of data created'
p165
tp166
a(S'2015-06-15 09:05:32.123000'
S'data saved as csv to C:\\Users\\Jbarrett\\Charlie\\charlie\\data\\csv\\4402_cvlt2.csv'
tp167
a(S'2015-06-15 09:06:15.972000'
g163
tp168
a(S'2015-06-15 09:06:15.984000'
g165
tp169
a(S'2015-06-15 09:06:15.987000'
S'data saved as csv to C:\\Users\\Jbarrett\\Charlie\\charlie\\data\\csv\\4402_cvlt2.csv'
tp170
a(S'2015-06-15 09:06:48.917000'
g163
tp171
a(S'2015-06-15 09:06:48.939000'
g165
tp172
a(S'2015-06-15 09:06:48.941000'
S'data saved as csv to C:\\Users\\Jbarrett\\Charlie\\charlie\\data\\csv\\4402_cvlt2.csv'
tp173
a(S'2015-06-15 09:07:35.087000'
g163
tp174
a(S'2015-06-15 09:07:35.111000'
g165
tp175
a(S'2015-06-15 09:07:35.112000'
S'data saved as csv to C:\\Users\\Jbarrett\\Charlie\\charlie\\data\\csv\\4402_cvlt2.csv'
tp176
a(S'2015-06-15 09:07:54.848000'
g163
tp177
a(S'2015-06-15 09:07:54.882000'
g165
tp178
a(S'2015-06-15 09:07:54.883000'
S'data saved as csv to C:\\Users\\Jbarrett\\Charlie\\charlie\\data\\csv\\4402_cvlt2.csv'
tp179
a(S'2015-06-15 09:08:36.018000'
g163
tp180
a(S'2015-06-15 09:08:36.048000'
g165
tp181
a(S'2015-06-15 09:08:36.049000'
S'data saved as csv to C:\\Users\\Jbarrett\\Charlie\\charlie\\data\\csv\\4402_cvlt2.csv'
tp182
a(S'2015-06-15 09:09:01.611000'
g163
tp183
a(S'2015-06-15 09:09:01.651000'
g165
tp184
a(S'2015-06-15 09:09:01.653000'
S'data saved as csv to C:\\Users\\Jbarrett\\Charlie\\charlie\\data\\csv\\4402_cvlt2.csv'
tp185
a(S'2015-06-15 09:09:42.124000'
g163
tp186
a(S'2015-06-15 09:09:42.170000'
g165
tp187
a(S'2015-06-15 09:09:42.172000'
S'data saved as csv to C:\\Users\\Jbarrett\\Charlie\\charlie\\data\\csv\\4402_cvlt2.csv'
tp188
a(S'2015-06-15 09:10:14.590000'
g163
tp189
a(S'2015-06-15 09:10:14.645000'
g165
tp190
a(S'2015-06-15 09:10:14.647000'
S'data saved as csv to C:\\Users\\Jbarrett\\Charlie\\charlie\\data\\csv\\4402_cvlt2.csv'
tp191
asb.