(icharlie.tools.data
Data
p1
(dp2
S'lang'
p3
S'EN'
p4
sS'control'
p5
(lp6
sS'last_updated'
p7
cdatetime
datetime
p8
(S'\x07\xdf\x06\x0f\t\x0f7\x0e\x8a\xa8'
tRp9
sS'last_opened'
p10
g8
(S'\x07\xdf\x06\x0f\t\x0e\x08\x05\xf3p'
tRp11
sS'proj_id'
p12
S'connectivity'
p13
sS'date_done'
p14
NsS'test_done'
p15
I01
sS'data'
p16
(lp17
(S'4402'
p18
S'emotion_recognition'
p19
I0
S'Female'
p20
S'Happy'
p21
S'Strong'
p22
S'C:\\Users\\Jbarrett\\Charlie\\charlie\\stimuli\\visual\\emotion_recognition\\FHZ_152.png'
S'Happy'
p23
I960
tp24
a(g18
g19
I1
g20
S'Afraid'
p25
g22
S'C:\\Users\\Jbarrett\\Charlie\\charlie\\stimuli\\visual\\emotion_recognition\\FFZ_236.png'
S'Neutral'
I5311
tp26
a(g18
g19
I2
S'Male'
p27
g21
g22
S'C:\\Users\\Jbarrett\\Charlie\\charlie\\stimuli\\visual\\emotion_recognition\\MHZ_216.png'
S'Happy'
I1640
tp28
a(g18
g19
I3
g27
S'Angry'
p29
S'Weak'
p30
S'C:\\Users\\Jbarrett\\Charlie\\charlie\\stimuli\\visual\\emotion_recognition\\MAX_39.png'
S'Angry'
I2550
tp31
a(g18
g19
I4
g27
g21
g30
S'C:\\Users\\Jbarrett\\Charlie\\charlie\\stimuli\\visual\\emotion_recognition\\MHX_140.png'
S'Happy'
I1330
tp32
a(g18
g19
I5
g20
g25
g30
S'C:\\Users\\Jbarrett\\Charlie\\charlie\\stimuli\\visual\\emotion_recognition\\FFX_54.png'
S'Afraid'
I2770
tp33
a(g18
g19
I6
g20
S'Neutral'
p34
S'N/A'
p35
S'C:\\Users\\Jbarrett\\Charlie\\charlie\\stimuli\\visual\\emotion_recognition\\FN_30.png'
S'Sad'
I1700
tp36
a(g18
g19
I7
g20
S'Sad'
p37
g22
S'C:\\Users\\Jbarrett\\Charlie\\charlie\\stimuli\\visual\\emotion_recognition\\FSZ_219.png'
S'Sad'
I740
tp38
a(g18
g19
I8
g27
g21
g30
S'C:\\Users\\Jbarrett\\Charlie\\charlie\\stimuli\\visual\\emotion_recognition\\MHX_104.png'
S'Happy'
I1920
tp39
a(g18
g19
I9
g20
g29
g30
S'C:\\Users\\Jbarrett\\Charlie\\charlie\\stimuli\\visual\\emotion_recognition\\FAX_45.png'
S'Angry'
I2090
tp40
a(g18
g19
I10
g20
g21
g22
S'C:\\Users\\Jbarrett\\Charlie\\charlie\\stimuli\\visual\\emotion_recognition\\FHZ_131.png'
S'Happy'
I1341
tp41
a(g18
g19
I11
g27
g34
g35
S'C:\\Users\\Jbarrett\\Charlie\\charlie\\stimuli\\visual\\emotion_recognition\\MN_111.png'
S'Neutral'
I2050
tp42
a(g18
g19
I12
g20
g29
g22
S'C:\\Users\\Jbarrett\\Charlie\\charlie\\stimuli\\visual\\emotion_recognition\\FAZ_32.png'
S'Angry'
I1110
tp43
a(g18
g19
I13
g20
g21
g30
S'C:\\Users\\Jbarrett\\Charlie\\charlie\\stimuli\\visual\\emotion_recognition\\FHX_220.png'
S'Happy'
I1600
tp44
a(g18
g19
I14
g20
g25
g30
S'C:\\Users\\Jbarrett\\Charlie\\charlie\\stimuli\\visual\\emotion_recognition\\FFX_130.png'
S'Afraid'
I2300
tp45
a(g18
g19
I15
g20
g37
g30
S'C:\\Users\\Jbarrett\\Charlie\\charlie\\stimuli\\visual\\emotion_recognition\\FSX_20.png'
S'Sad'
I1560
tp46
a(g18
g19
I16
g27
g37
g30
S'C:\\Users\\Jbarrett\\Charlie\\charlie\\stimuli\\visual\\emotion_recognition\\MSX_108.png'
S'Neutral'
I3620
tp47
a(g18
g19
I17
g27
g37
g30
S'C:\\Users\\Jbarrett\\Charlie\\charlie\\stimuli\\visual\\emotion_recognition\\MSX_147.png'
S'Sad'
I3021
tp48
a(g18
g19
I18
g20
g29
g22
S'C:\\Users\\Jbarrett\\Charlie\\charlie\\stimuli\\visual\\emotion_recognition\\FAZ_129.png'
S'Angry'
I1750
tp49
a(g18
g19
I19
g27
g34
g35
S'C:\\Users\\Jbarrett\\Charlie\\charlie\\stimuli\\visual\\emotion_recognition\\MN_123.png'
S'Sad'
I3810
tp50
a(g18
g19
I20
g27
g37
g22
S'C:\\Users\\Jbarrett\\Charlie\\charlie\\stimuli\\visual\\emotion_recognition\\MSZ_126.png'
S'Sad'
I960
tp51
a(g18
g19
I21
g27
g29
g22
S'C:\\Users\\Jbarrett\\Charlie\\charlie\\stimuli\\visual\\emotion_recognition\\MAZ_128.png'
S'Angry'
I1330
tp52
a(g18
g19
I22
g27
g25
g22
S'C:\\Users\\Jbarrett\\Charlie\\charlie\\stimuli\\visual\\emotion_recognition\\MFZ_7.png'
S'Afraid'
I2190
tp53
a(g18
g19
I23
g20
g29
g30
S'C:\\Users\\Jbarrett\\Charlie\\charlie\\stimuli\\visual\\emotion_recognition\\FAX_25.png'
S'Angry'
I2030
tp54
a(g18
g19
I24
g27
g37
g22
S'C:\\Users\\Jbarrett\\Charlie\\charlie\\stimuli\\visual\\emotion_recognition\\MSZ_112.png'
S'Sad'
I2170
tp55
a(g18
g19
I25
g27
g34
g35
S'C:\\Users\\Jbarrett\\Charlie\\charlie\\stimuli\\visual\\emotion_recognition\\MN_223.png'
S'Neutral'
I1970
tp56
a(g18
g19
I26
g27
g29
g30
S'C:\\Users\\Jbarrett\\Charlie\\charlie\\stimuli\\visual\\emotion_recognition\\MAX_201.png'
S'Angry'
I4390
tp57
a(g18
g19
I27
g27
g21
g22
S'C:\\Users\\Jbarrett\\Charlie\\charlie\\stimuli\\visual\\emotion_recognition\\MHZ_227.png'
S'Happy'
I2040
tp58
a(g18
g19
I28
g27
g25
g30
S'C:\\Users\\Jbarrett\\Charlie\\charlie\\stimuli\\visual\\emotion_recognition\\MFX_153.png'
S'Neutral'
I1040
tp59
a(g18
g19
I29
g27
g29
g22
S'C:\\Users\\Jbarrett\\Charlie\\charlie\\stimuli\\visual\\emotion_recognition\\MAZ_146.png'
S'Angry'
I2410
tp60
a(g18
g19
I30
g20
g34
g35
S'C:\\Users\\Jbarrett\\Charlie\\charlie\\stimuli\\visual\\emotion_recognition\\FN_13.png'
S'Neutral'
I2080
tp61
a(g18
g19
I31
g20
g21
g30
S'C:\\Users\\Jbarrett\\Charlie\\charlie\\stimuli\\visual\\emotion_recognition\\FHX_127.png'
S'Happy'
I2351
tp62
a(g18
g19
I32
g20
g37
g22
S'C:\\Users\\Jbarrett\\Charlie\\charlie\\stimuli\\visual\\emotion_recognition\\FSZ_210.png'
S'Sad'
I1920
tp63
a(g18
g19
I33
g20
g37
g30
S'C:\\Users\\Jbarrett\\Charlie\\charlie\\stimuli\\visual\\emotion_recognition\\FSX_47.png'
S'Sad'
I1270
tp64
a(g18
g19
I34
g27
g34
g35
S'C:\\Users\\Jbarrett\\Charlie\\charlie\\stimuli\\visual\\emotion_recognition\\MN_21.png'
S'Neutral'
I1920
tp65
a(g18
g19
I35
g20
g25
g22
S'C:\\Users\\Jbarrett\\Charlie\\charlie\\stimuli\\visual\\emotion_recognition\\FFZ_29.png'
S'Afraid'
I1650
tp66
a(g18
g19
I36
g20
g34
g35
S'C:\\Users\\Jbarrett\\Charlie\\charlie\\stimuli\\visual\\emotion_recognition\\FN_228.png'
S'Neutral'
I1980
tp67
a(g18
g19
I37
g27
g25
g22
S'C:\\Users\\Jbarrett\\Charlie\\charlie\\stimuli\\visual\\emotion_recognition\\MFZ_132.png'
S'Afraid'
I2400
tp68
a(g18
g19
I38
g20
g34
g35
S'C:\\Users\\Jbarrett\\Charlie\\charlie\\stimuli\\visual\\emotion_recognition\\FN_204.png'
S'Neutral'
I1800
tp69
a(g18
g19
I39
g27
g25
g30
S'C:\\Users\\Jbarrett\\Charlie\\charlie\\stimuli\\visual\\emotion_recognition\\MFX_137.png'
p70
S'Afraid'
I3591
tp71
asS'output_format'
p72
(lp73
(S'proband_id'
p74
c__builtin__
str
p75
tp76
a(S'test_name'
p77
g75
tp78
a(S'trialn'
p79
c__builtin__
int
p80
tp81
a(S'sex'
p82
g75
tp83
a(S'emotion'
p84
g75
tp85
a(S'salience'
p86
g75
tp87
a(S'f'
g75
tp88
a(S'rsp'
p89
g75
tp90
a(S'rt'
p91
g80
tp92
asg74
g18
sS'filename'
p93
S'4402_emotion_recognition.data'
p94
sS'initialised'
p95
g8
(S'\x07\xdf\x06\x0f\t\x0e\x08\x05\xf3p'
tRp96
sS'last_udated'
p97
g8
(S'\x07\xdf\x06\x0f\t\x0e\x08\x05\xf3p'
tRp98
sg77
S'emotion_recognition'
p99
sS'directory'
p100
S'C:\\Users\\Jbarrett\\Charlie\\charlie\\data\\raw'
p101
sS'user_id'
p102
S'jbarrett'
p103
sS'test_started'
p104
I01
sS'abs_filename'
p105
S'C:\\Users\\Jbarrett\\Charlie\\charlie\\data\\raw\\4402_emotion_recognition.data'
p106
sS'date_started'
p107
g8
(S'\x07\xdf\x06\x0f\t\x0e\x18\x03\tX'
tRp108
sS'log'
p109
(lp110
(S'2015-06-15 09:14:08.390000'
S'instance created'
p111
tp112
a(S'2015-06-15 09:14:24.210000'
S'instance updated'
p113
tp114
a(S'2015-06-15 09:14:24.219000'
S'pandas DataFrame of data created'
p115
tp116
a(S'2015-06-15 09:14:24.223000'
S'data saved as csv to C:\\Users\\Jbarrett\\Charlie\\charlie\\data\\csv\\4402_emotion_recognition.csv'
tp117
a(S'2015-06-15 09:14:29.648000'
g113
tp118
a(S'2015-06-15 09:14:29.651000'
g115
tp119
a(S'2015-06-15 09:14:29.651000'
S'data saved as csv to C:\\Users\\Jbarrett\\Charlie\\charlie\\data\\csv\\4402_emotion_recognition.csv'
tp120
a(S'2015-06-15 09:14:31.420000'
g113
tp121
a(S'2015-06-15 09:14:31.429000'
g115
tp122
a(S'2015-06-15 09:14:31.433000'
S'data saved as csv to C:\\Users\\Jbarrett\\Charlie\\charlie\\data\\csv\\4402_emotion_recognition.csv'
tp123
a(S'2015-06-15 09:14:34.103000'
g113
tp124
a(S'2015-06-15 09:14:34.107000'
g115
tp125
a(S'2015-06-15 09:14:34.109000'
S'data saved as csv to C:\\Users\\Jbarrett\\Charlie\\charlie\\data\\csv\\4402_emotion_recognition.csv'
tp126
a(S'2015-06-15 09:14:35.568000'
g113
tp127
a(S'2015-06-15 09:14:35.577000'
g115
tp128
a(S'2015-06-15 09:14:35.580000'
S'data saved as csv to C:\\Users\\Jbarrett\\Charlie\\charlie\\data\\csv\\4402_emotion_recognition.csv'
tp129
a(S'2015-06-15 09:14:38.480000'
g113
tp130
a(S'2015-06-15 09:14:38.489000'
g115
tp131
a(S'2015-06-15 09:14:38.493000'
S'data saved as csv to C:\\Users\\Jbarrett\\Charlie\\charlie\\data\\csv\\4402_emotion_recognition.csv'
tp132
a(S'2015-06-15 09:14:40.322000'
g113
tp133
a(S'2015-06-15 09:14:40.327000'
g115
tp134
a(S'2015-06-15 09:14:40.330000'
S'data saved as csv to C:\\Users\\Jbarrett\\Charlie\\charlie\\data\\csv\\4402_emotion_recognition.csv'
tp135
a(S'2015-06-15 09:14:41.199000'
g113
tp136
a(S'2015-06-15 09:14:41.208000'
g115
tp137
a(S'2015-06-15 09:14:41.212000'
S'data saved as csv to C:\\Users\\Jbarrett\\Charlie\\charlie\\data\\csv\\4402_emotion_recognition.csv'
tp138
a(S'2015-06-15 09:14:43.263000'
g113
tp139
a(S'2015-06-15 09:14:43.271000'
g115
tp140
a(S'2015-06-15 09:14:43.275000'
S'data saved as csv to C:\\Users\\Jbarrett\\Charlie\\charlie\\data\\csv\\4402_emotion_recognition.csv'
tp141
a(S'2015-06-15 09:14:45.498000'
g113
tp142
a(S'2015-06-15 09:14:45.507000'
g115
tp143
a(S'2015-06-15 09:14:45.511000'
S'data saved as csv to C:\\Users\\Jbarrett\\Charlie\\charlie\\data\\csv\\4402_emotion_recognition.csv'
tp144
a(S'2015-06-15 09:14:46.982000'
g113
tp145
a(S'2015-06-15 09:14:46.992000'
g115
tp146
a(S'2015-06-15 09:14:46.996000'
S'data saved as csv to C:\\Users\\Jbarrett\\Charlie\\charlie\\data\\csv\\4402_emotion_recognition.csv'
tp147
a(S'2015-06-15 09:14:49.178000'
g113
tp148
a(S'2015-06-15 09:14:49.188000'
g115
tp149
a(S'2015-06-15 09:14:49.192000'
S'data saved as csv to C:\\Users\\Jbarrett\\Charlie\\charlie\\data\\csv\\4402_emotion_recognition.csv'
tp150
a(S'2015-06-15 09:14:50.433000'
g113
tp151
a(S'2015-06-15 09:14:50.442000'
g115
tp152
a(S'2015-06-15 09:14:50.446000'
S'data saved as csv to C:\\Users\\Jbarrett\\Charlie\\charlie\\data\\csv\\4402_emotion_recognition.csv'
tp153
a(S'2015-06-15 09:14:52.177000'
g113
tp154
a(S'2015-06-15 09:14:52.186000'
g115
tp155
a(S'2015-06-15 09:14:52.190000'
S'data saved as csv to C:\\Users\\Jbarrett\\Charlie\\charlie\\data\\csv\\4402_emotion_recognition.csv'
tp156
a(S'2015-06-15 09:14:54.624000'
g113
tp157
a(S'2015-06-15 09:14:54.633000'
g115
tp158
a(S'2015-06-15 09:14:54.637000'
S'data saved as csv to C:\\Users\\Jbarrett\\Charlie\\charlie\\data\\csv\\4402_emotion_recognition.csv'
tp159
a(S'2015-06-15 09:14:56.328000'
g113
tp160
a(S'2015-06-15 09:14:56.337000'
g115
tp161
a(S'2015-06-15 09:14:56.341000'
S'data saved as csv to C:\\Users\\Jbarrett\\Charlie\\charlie\\data\\csv\\4402_emotion_recognition.csv'
tp162
a(S'2015-06-15 09:15:00.083000'
g113
tp163
a(S'2015-06-15 09:15:00.088000'
g115
tp164
a(S'2015-06-15 09:15:00.090000'
S'data saved as csv to C:\\Users\\Jbarrett\\Charlie\\charlie\\data\\csv\\4402_emotion_recognition.csv'
tp165
a(S'2015-06-15 09:15:03.241000'
g113
tp166
a(S'2015-06-15 09:15:03.250000'
g115
tp167
a(S'2015-06-15 09:15:03.254000'
S'data saved as csv to C:\\Users\\Jbarrett\\Charlie\\charlie\\data\\csv\\4402_emotion_recognition.csv'
tp168
a(S'2015-06-15 09:15:05.136000'
g113
tp169
a(S'2015-06-15 09:15:05.146000'
g115
tp170
a(S'2015-06-15 09:15:05.150000'
S'data saved as csv to C:\\Users\\Jbarrett\\Charlie\\charlie\\data\\csv\\4402_emotion_recognition.csv'
tp171
a(S'2015-06-15 09:15:09.092000'
g113
tp172
a(S'2015-06-15 09:15:09.102000'
g115
tp173
a(S'2015-06-15 09:15:09.106000'
S'data saved as csv to C:\\Users\\Jbarrett\\Charlie\\charlie\\data\\csv\\4402_emotion_recognition.csv'
tp174
a(S'2015-06-15 09:15:10.197000'
g113
tp175
a(S'2015-06-15 09:15:10.206000'
g115
tp176
a(S'2015-06-15 09:15:10.210000'
S'data saved as csv to C:\\Users\\Jbarrett\\Charlie\\charlie\\data\\csv\\4402_emotion_recognition.csv'
tp177
a(S'2015-06-15 09:15:11.671000'
g113
tp178
a(S'2015-06-15 09:15:11.681000'
g115
tp179
a(S'2015-06-15 09:15:11.685000'
S'data saved as csv to C:\\Users\\Jbarrett\\Charlie\\charlie\\data\\csv\\4402_emotion_recognition.csv'
tp180
a(S'2015-06-15 09:15:14.008000'
g113
tp181
a(S'2015-06-15 09:15:14.018000'
g115
tp182
a(S'2015-06-15 09:15:14.022000'
S'data saved as csv to C:\\Users\\Jbarrett\\Charlie\\charlie\\data\\csv\\4402_emotion_recognition.csv'
tp183
a(S'2015-06-15 09:15:16.184000'
g113
tp184
a(S'2015-06-15 09:15:16.194000'
g115
tp185
a(S'2015-06-15 09:15:16.198000'
S'data saved as csv to C:\\Users\\Jbarrett\\Charlie\\charlie\\data\\csv\\4402_emotion_recognition.csv'
tp186
a(S'2015-06-15 09:15:18.499000'
g113
tp187
a(S'2015-06-15 09:15:18.509000'
g115
tp188
a(S'2015-06-15 09:15:18.512000'
S'data saved as csv to C:\\Users\\Jbarrett\\Charlie\\charlie\\data\\csv\\4402_emotion_recognition.csv'
tp189
a(S'2015-06-15 09:15:20.612000'
g113
tp190
a(S'2015-06-15 09:15:20.622000'
g115
tp191
a(S'2015-06-15 09:15:20.627000'
S'data saved as csv to C:\\Users\\Jbarrett\\Charlie\\charlie\\data\\csv\\4402_emotion_recognition.csv'
tp192
a(S'2015-06-15 09:15:25.150000'
g113
tp193
a(S'2015-06-15 09:15:25.161000'
g115
tp194
a(S'2015-06-15 09:15:25.164000'
S'data saved as csv to C:\\Users\\Jbarrett\\Charlie\\charlie\\data\\csv\\4402_emotion_recognition.csv'
tp195
a(S'2015-06-15 09:15:27.337000'
g113
tp196
a(S'2015-06-15 09:15:27.347000'
g115
tp197
a(S'2015-06-15 09:15:27.351000'
S'data saved as csv to C:\\Users\\Jbarrett\\Charlie\\charlie\\data\\csv\\4402_emotion_recognition.csv'
tp198
a(S'2015-06-15 09:15:30.953000'
g113
tp199
a(S'2015-06-15 09:15:30.963000'
g115
tp200
a(S'2015-06-15 09:15:30.967000'
S'data saved as csv to C:\\Users\\Jbarrett\\Charlie\\charlie\\data\\csv\\4402_emotion_recognition.csv'
tp201
a(S'2015-06-15 09:15:33.510000'
g113
tp202
a(S'2015-06-15 09:15:33.520000'
g115
tp203
a(S'2015-06-15 09:15:33.524000'
S'data saved as csv to C:\\Users\\Jbarrett\\Charlie\\charlie\\data\\csv\\4402_emotion_recognition.csv'
tp204
a(S'2015-06-15 09:15:35.737000'
g113
tp205
a(S'2015-06-15 09:15:35.747000'
g115
tp206
a(S'2015-06-15 09:15:35.751000'
S'data saved as csv to C:\\Users\\Jbarrett\\Charlie\\charlie\\data\\csv\\4402_emotion_recognition.csv'
tp207
a(S'2015-06-15 09:15:38.233000'
g113
tp208
a(S'2015-06-15 09:15:38.242000'
g115
tp209
a(S'2015-06-15 09:15:38.245000'
S'data saved as csv to C:\\Users\\Jbarrett\\Charlie\\charlie\\data\\csv\\4402_emotion_recognition.csv'
tp210
a(S'2015-06-15 09:15:40.296000'
g113
tp211
a(S'2015-06-15 09:15:40.306000'
g115
tp212
a(S'2015-06-15 09:15:40.310000'
S'data saved as csv to C:\\Users\\Jbarrett\\Charlie\\charlie\\data\\csv\\4402_emotion_recognition.csv'
tp213
a(S'2015-06-15 09:15:41.711000'
g113
tp214
a(S'2015-06-15 09:15:41.721000'
g115
tp215
a(S'2015-06-15 09:15:41.733000'
S'data saved as csv to C:\\Users\\Jbarrett\\Charlie\\charlie\\data\\csv\\4402_emotion_recognition.csv'
tp216
a(S'2015-06-15 09:15:43.785000'
g113
tp217
a(S'2015-06-15 09:15:43.795000'
g115
tp218
a(S'2015-06-15 09:15:43.799000'
S'data saved as csv to C:\\Users\\Jbarrett\\Charlie\\charlie\\data\\csv\\4402_emotion_recognition.csv'
tp219
a(S'2015-06-15 09:15:45.580000'
g113
tp220
a(S'2015-06-15 09:15:45.590000'
g115
tp221
a(S'2015-06-15 09:15:45.594000'
S'data saved as csv to C:\\Users\\Jbarrett\\Charlie\\charlie\\data\\csv\\4402_emotion_recognition.csv'
tp222
a(S'2015-06-15 09:15:47.707000'
g113
tp223
a(S'2015-06-15 09:15:47.717000'
g115
tp224
a(S'2015-06-15 09:15:47.721000'
S'data saved as csv to C:\\Users\\Jbarrett\\Charlie\\charlie\\data\\csv\\4402_emotion_recognition.csv'
tp225
a(S'2015-06-15 09:15:50.255000'
g113
tp226
a(S'2015-06-15 09:15:50.265000'
g115
tp227
a(S'2015-06-15 09:15:50.270000'
S'data saved as csv to C:\\Users\\Jbarrett\\Charlie\\charlie\\data\\csv\\4402_emotion_recognition.csv'
tp228
a(S'2015-06-15 09:15:52.202000'
g113
tp229
a(S'2015-06-15 09:15:52.212000'
g115
tp230
a(S'2015-06-15 09:15:52.216000'
S'data saved as csv to C:\\Users\\Jbarrett\\Charlie\\charlie\\data\\csv\\4402_emotion_recognition.csv'
tp231
a(S'2015-06-15 09:15:55.940000'
g113
tp232
a(S'2015-06-15 09:15:55.950000'
g115
tp233
a(S'2015-06-15 09:15:55.953000'
S'data saved as csv to C:\\Users\\Jbarrett\\Charlie\\charlie\\data\\csv\\4402_emotion_recognition.csv'
tp234
asb.