(icharlie.tools.data
Data
p1
(dp2
S'lang'
p3
S'EN'
p4
sS'control'
p5
(lp6
sS'last_updated'
p7
cdatetime
datetime
p8
(S'\x07\xdf\x06\x12\r\x02$\t\x0ch'
tRp9
sS'last_opened'
p10
g8
(S'\x07\xdf\x06\x12\x0c:5\x04\xfdX'
tRp11
sS'proj_id'
p12
S'connectivity'
p13
sS'date_done'
p14
NsS'test_done'
p15
I01
sS'data'
p16
(lp17
(S'4404'
p18
S'ctrails'
p19
S'number'
p20
S'practice'
p21
I0
I1
S'Correct'
p22
I2860
I9345
tp23
a(g18
g19
g20
g21
I1
I2
g22
I910
I9345
tp24
a(g18
g19
g20
g21
I2
I3
g22
I921
I9345
tp25
a(g18
g19
g20
g21
I3
I4
g22
I1190
I9345
tp26
a(g18
g19
g20
g21
I4
I5
g22
I810
I9345
tp27
a(g18
g19
g20
g21
I5
I6
g22
I900
I9345
tp28
a(g18
g19
g20
g21
I6
I7
g22
I910
I9345
tp29
a(g18
g19
g20
g21
I7
I8
g22
I800
I9345
tp30
a(g18
g19
g20
S'test'
p31
I0
I1
g22
I1681
I32882
tp32
a(g18
g19
g20
g31
I1
I2
g22
I1040
I32882
tp33
a(g18
g19
g20
g31
I2
I3
g22
I2500
I32882
tp34
a(g18
g19
g20
g31
I3
I4
g22
I1360
I32882
tp35
a(g18
g19
g20
g31
I4
I5
g22
I840
I32882
tp36
a(g18
g19
g20
g31
I5
I6
g22
I720
I32882
tp37
a(g18
g19
g20
g31
I6
I7
g22
I1410
I32882
tp38
a(g18
g19
g20
g31
I7
I8
g22
I730
I32882
tp39
a(g18
g19
g20
g31
I8
I9
g22
I990
I32882
tp40
a(g18
g19
g20
g31
I9
I10
g22
I1020
I32882
tp41
a(g18
g19
g20
g31
I10
I11
g22
I860
I32882
tp42
a(g18
g19
g20
g31
I11
I12
g22
I830
I32882
tp43
a(g18
g19
g20
g31
I12
I13
g22
I950
I32882
tp44
a(g18
g19
g20
g31
I13
I14
g22
I2590
I32882
tp45
a(g18
g19
g20
g31
I14
I15
g22
I800
I32882
tp46
a(g18
g19
g20
g31
I15
I16
g22
I2561
I32882
tp47
a(g18
g19
g20
g31
I16
I17
g22
I790
I32882
tp48
a(g18
g19
g20
g31
I17
I18
g22
I1780
I32882
tp49
a(g18
g19
g20
g31
I18
I19
g22
I740
I32882
tp50
a(g18
g19
g20
g31
I19
I20
g22
I1240
I32882
tp51
a(g18
g19
g20
g31
I20
I21
g22
I2350
I32882
tp52
a(g18
g19
g20
g31
I21
I22
g22
I850
I32882
tp53
a(g18
g19
g20
g31
I22
I23
g22
I2340
I32882
tp54
a(g18
g19
g20
g31
I23
I24
g22
I830
I32882
tp55
a(g18
g19
g20
g31
I24
I25
g22
I950
I32882
tp56
a(g18
g19
S'letter'
p57
g21
I0
S'a'
g22
I1510
I7946
tp58
a(g18
g19
g57
g21
I1
S'b'
g22
I980
I7946
tp59
a(g18
g19
g57
g21
I2
S'c'
g22
I670
I7946
tp60
a(g18
g19
g57
g21
I3
S'd'
g22
I910
I7946
tp61
a(g18
g19
g57
g21
I4
S'e'
g22
I1050
I7946
tp62
a(g18
g19
g57
g21
I5
S'f'
g22
I750
I7946
tp63
a(g18
g19
g57
g21
I6
S'g'
g22
I1090
I7946
tp64
a(g18
g19
g57
g21
I7
S'h'
g22
I940
I7946
tp65
a(g18
g19
g57
g31
I0
S'a'
g22
I3260
I30494
tp66
a(g18
g19
g57
g31
I1
S'b'
g22
I1130
I30494
tp67
a(g18
g19
g57
g31
I2
S'c'
g22
I2010
I30494
tp68
a(g18
g19
g57
g31
I3
S'd'
g22
I1350
I30494
tp69
a(g18
g19
g57
g31
I4
S'e'
g22
I730
I30494
tp70
a(g18
g19
g57
g31
I5
S'f'
g22
I930
I30494
tp71
a(g18
g19
g57
g31
I6
S'g'
g22
I891
I30494
tp72
a(g18
g19
g57
g31
I7
S'h'
g22
I1800
I30494
tp73
a(g18
g19
g57
g31
I8
S'i'
g22
I800
I30494
tp74
a(g18
g19
g57
g31
I9
S'j'
g22
I910
I30494
tp75
a(g18
g19
g57
g31
I10
S'k'
g22
I1470
I30494
tp76
a(g18
g19
g57
g31
I11
S'l'
g22
I1650
I30494
tp77
a(g18
g19
g57
g31
I12
S'm'
g22
I950
I30494
tp78
a(g18
g19
g57
g31
I13
S'n'
g22
I850
I30494
tp79
a(g18
g19
g57
g31
I14
S'o'
g22
I810
I30494
tp80
a(g18
g19
g57
g31
I15
S'p'
g22
I980
I30494
tp81
a(g18
g19
g57
g31
I16
S'q'
g22
I1020
I30494
tp82
a(g18
g19
g57
g31
I17
S'r'
g22
I1020
I30494
tp83
a(g18
g19
g57
g31
I18
S's'
g22
I590
I30494
tp84
a(g18
g19
g57
g31
I19
S't'
g22
I690
I30494
tp85
a(g18
g19
g57
g31
I20
S'u'
g22
I810
I30494
tp86
a(g18
g19
g57
g31
I21
S'v'
g22
I790
I30494
tp87
a(g18
g19
g57
g31
I22
S'w'
g22
I780
I30494
tp88
a(g18
g19
g57
g31
I23
S'x'
g22
I940
I30494
tp89
a(g18
g19
g57
g31
I24
S'y'
g22
I2440
I30494
tp90
a(g18
g19
S'number-letter'
p91
g21
I0
I1
g22
I3110
I10916
tp92
a(g18
g19
g91
g21
I1
S'a'
g22
I1600
I10916
tp93
a(g18
g19
g91
g21
I2
I2
g22
I1800
I10916
tp94
a(g18
g19
g91
g21
I3
S'b'
g22
I970
I10916
tp95
a(g18
g19
g91
g21
I4
I3
g22
I980
I10916
tp96
a(g18
g19
g91
g21
I5
S'c'
g22
I740
I10916
tp97
a(g18
g19
g91
g21
I6
I4
g22
I900
I10916
tp98
a(g18
g19
g91
g21
I7
S'd'
g22
I770
I10916
tp99
a(g18
g19
g91
g31
I0
I1
g22
I7910
I56322
tp100
a(g18
g19
g91
g31
I1
S'a'
g22
I660
I56322
tp101
a(g18
g19
g91
g31
I2
I2
g22
I1250
I56322
tp102
a(g18
g19
g91
g31
I3
S'b'
g22
I1810
I56322
tp103
a(g18
g19
g91
g31
I4
I3
g22
I930
I56322
tp104
a(g18
g19
g91
g31
I5
S'c'
g22
I841
I56322
tp105
a(g18
g19
g91
g31
I6
I4
g22
I900
I56322
tp106
a(g18
g19
g91
g31
I7
S'd'
g22
I3720
I56322
tp107
a(g18
g19
g91
g31
I8
I5
g22
I860
I56322
tp108
a(g18
g19
g91
g31
I9
S'e'
g22
I660
I56322
tp109
a(g18
g19
g91
g31
I10
I6
g22
I1860
I56322
tp110
a(g18
g19
g91
g31
I11
S'f'
g22
I1150
I56322
tp111
a(g18
g19
g91
g31
I12
I7
g22
I3570
I56322
tp112
a(g18
g19
g91
g31
I13
S'g'
g22
I2680
I56322
tp113
a(g18
g19
g91
g31
I14
I8
g22
I3051
I56322
tp114
a(g18
g19
g91
g31
I15
S'h'
g22
I760
I56322
tp115
a(g18
g19
g91
g31
I16
I9
g22
I4480
I56322
tp116
a(g18
g19
g91
g31
I17
S'i'
g22
I960
I56322
tp117
a(g18
g19
g91
g31
I18
I10
g22
I1810
I56322
tp118
a(g18
g19
g91
g31
I19
S'j'
g22
I1300
I56322
tp119
a(g18
g19
g91
g31
I20
I11
g22
I2790
I56322
tp120
a(g18
g19
g91
g31
I21
S'k'
g22
I780
I56322
tp121
a(g18
g19
g91
g31
I22
I12
g22
I1380
I56322
tp122
a(g18
g19
g91
g31
I23
S'l'
g22
I830
I56322
tp123
a(g18
g19
g91
g31
I24
I13
g22
I9261
I56322
tp124
asS'output_format'
p125
(lp126
(S'proband_id'
p127
c__builtin__
str
p128
tp129
a(S'test_name'
p130
g128
tp131
a(S'phase'
p132
g128
tp133
a(S'trial_type'
p134
g128
tp135
a(S'n'
c__builtin__
int
p136
tp137
a(S'rsp'
p138
g128
tp139
a(S'corr'
p140
g128
tp141
a(S'rt'
p142
g136
tp143
a(S'total_time'
p144
g136
tp145
asg127
g18
sS'filename'
p146
S'4404_ctrails.data'
p147
sS'initialised'
p148
g8
(S'\x07\xdf\x06\x12\x0c:5\x04\xfdX'
tRp149
sS'last_udated'
p150
g8
(S'\x07\xdf\x06\x12\x0c:5\x04\xfdX'
tRp151
sg130
S'ctrails'
p152
sS'directory'
p153
S'c:\\Charlie\\charlie\\data\\raw'
p154
sS'user_id'
p155
S'oleach'
p156
sS'test_started'
p157
I01
sS'abs_filename'
p158
S'c:\\Charlie\\charlie\\data\\raw\\4404_ctrails.data'
p159
sS'date_started'
p160
g8
(S'\x07\xdf\x06\x12\x0c;\x14\r\x1bx'
tRp161
sS'log'
p162
(lp163
(S'2015-06-18 12:58:53.327000'
S'instance created'
p164
tp165
a(S'2015-06-18 12:59:20.870000'
S'instance updated'
p166
tp167
a(S'2015-06-18 12:59:20.876000'
S'pandas DataFrame of data created'
p168
tp169
a(S'2015-06-18 12:59:20.883000'
S'data saved as csv to c:\\Charlie\\charlie\\data\\csv\\4404_ctrails.csv'
tp170
a(S'2015-06-18 13:00:04.567000'
g166
tp171
a(S'2015-06-18 13:00:04.577000'
g168
tp172
a(S'2015-06-18 13:00:04.581000'
S'data saved as csv to c:\\Charlie\\charlie\\data\\csv\\4404_ctrails.csv'
tp173
a(S'2015-06-18 13:00:22.666000'
g166
tp174
a(S'2015-06-18 13:00:22.676000'
g168
tp175
a(S'2015-06-18 13:00:22.680000'
S'data saved as csv to c:\\Charlie\\charlie\\data\\csv\\4404_ctrails.csv'
tp176
a(S'2015-06-18 13:01:03.268000'
g166
tp177
a(S'2015-06-18 13:01:03.278000'
g168
tp178
a(S'2015-06-18 13:01:03.283000'
S'data saved as csv to c:\\Charlie\\charlie\\data\\csv\\4404_ctrails.csv'
tp179
a(S'2015-06-18 13:01:30.664000'
g166
tp180
a(S'2015-06-18 13:01:30.674000'
g168
tp181
a(S'2015-06-18 13:01:30.678000'
S'data saved as csv to c:\\Charlie\\charlie\\data\\csv\\4404_ctrails.csv'
tp182
a(S'2015-06-18 13:02:36.576000'
g166
tp183
a(S'2015-06-18 13:02:36.587000'
g168
tp184
a(S'2015-06-18 13:02:36.592000'
S'data saved as csv to c:\\Charlie\\charlie\\data\\csv\\4404_ctrails.csv'
tp185
asb.