(icharlie.tools.data
Data
p1
(dp2
S'lang'
p3
S'EN'
p4
sS'control'
p5
(lp6
sS'last_updated'
p7
cdatetime
datetime
p8
(S'\x07\xdf\x06\x12\x0c3\r\x06\xe9\x88'
tRp9
sS'last_opened'
p10
g8
(S'\x07\xdf\x06\x12\x0c\x00\n\x08\x7f\xc8'
tRp11
sS'proj_id'
p12
S'connectivity'
p13
sS'date_done'
p14
g8
(S'\x07\xdf\x06\x12\x0c3\r\x06\xc6`'
tRp15
sS'test_done'
p16
I01
sS'data'
p17
(lp18
(S'4404'
p19
S'verbal_fluency'
p20
I0
S'True'
p21
tp22
a(g19
g20
I0
g21
tp23
a(g19
g20
I0
g21
tp24
a(g19
g20
I0
g21
tp25
a(g19
g20
I0
g21
tp26
a(g19
g20
I0
g21
tp27
a(g19
g20
I0
g21
tp28
a(g19
g20
I0
g21
tp29
a(g19
g20
I0
g21
tp30
a(g19
g20
I0
g21
tp31
a(g19
g20
I0
g21
tp32
a(g19
g20
I0
g21
tp33
a(g19
g20
I0
g21
tp34
a(g19
g20
I0
g21
tp35
a(g19
g20
I1
g21
tp36
a(g19
g20
I1
g21
tp37
a(g19
g20
I1
g21
tp38
a(g19
g20
I1
g21
tp39
a(g19
g20
I1
g21
tp40
a(g19
g20
I1
g21
tp41
a(g19
g20
I1
g21
tp42
a(g19
g20
I1
g21
tp43
a(g19
g20
I1
g21
tp44
a(g19
g20
I1
g21
tp45
a(g19
g20
I1
g21
tp46
a(g19
g20
I1
g21
tp47
a(g19
g20
I1
g21
tp48
a(g19
g20
I1
g21
tp49
a(g19
g20
I1
g21
tp50
a(g19
g20
I1
S'False'
p51
tp52
a(g19
g20
I2
g21
tp53
a(g19
g20
I2
g21
tp54
a(g19
g20
I2
g21
tp55
a(g19
g20
I2
g21
tp56
a(g19
g20
I2
g21
tp57
a(g19
g20
I2
g21
tp58
a(g19
g20
I2
g21
tp59
a(g19
g20
I2
g21
tp60
a(g19
g20
I2
g21
tp61
a(g19
g20
I2
g21
tp62
a(g19
g20
I2
g21
tp63
a(g19
g20
I2
g21
tp64
a(g19
g20
I2
g21
tp65
a(g19
g20
I2
g21
tp66
a(g19
g20
I2
g21
tp67
a(g19
g20
I2
g21
tp68
a(g19
g20
I2
g21
tp69
a(g19
g20
I2
g21
tp70
a(g19
g20
I2
g21
tp71
a(g19
g20
I3
g21
tp72
a(g19
g20
I3
g21
tp73
a(g19
g20
I3
g21
tp74
a(g19
g20
I3
g21
tp75
a(g19
g20
I3
g21
tp76
a(g19
g20
I3
g21
tp77
a(g19
g20
I3
g21
tp78
a(g19
g20
I3
g21
tp79
a(g19
g20
I3
g21
tp80
a(g19
g20
I3
g21
tp81
a(g19
g20
I3
g21
tp82
a(g19
g20
I3
g21
tp83
a(g19
g20
I3
g21
tp84
a(g19
g20
I3
g21
tp85
a(g19
g20
I3
g51
tp86
a(g19
g20
I3
g21
tp87
a(g19
g20
I3
g21
tp88
a(g19
g20
I3
g51
tp89
a(g19
g20
I3
g21
tp90
a(g19
g20
I3
g21
tp91
a(g19
g20
I3
g21
tp92
a(g19
g20
I3
g21
tp93
asS'output_format'
p94
(lp95
(S'proband_id'
p96
c__builtin__
str
p97
tp98
a(S'test_name'
p99
g97
tp100
a(S'trialn'
p101
c__builtin__
int
p102
tp103
a(S'rsp'
p104
g97
tp105
asg96
g19
sS'filename'
p106
S'4404_verbal_fluency.data'
p107
sS'initialised'
p108
g8
(S'\x07\xdf\x06\x12\x0c\x00\n\x08\x7f\xc8'
tRp109
sS'last_udated'
p110
g8
(S'\x07\xdf\x06\x12\x0c\x00\n\x08\x7f\xc8'
tRp111
sg99
S'verbal_fluency'
p112
sS'directory'
p113
S'c:\\Charlie\\charlie\\data\\raw'
p114
sS'user_id'
p115
S'oleach'
p116
sS'test_started'
p117
I01
sS'abs_filename'
p118
S'c:\\Charlie\\charlie\\data\\raw\\4404_verbal_fluency.data'
p119
sS'date_started'
p120
g8
(S'\x07\xdf\x06\x12\x0c/+\x03\tX'
tRp121
sS'log'
p122
(lp123
(S'2015-06-18 12:00:10.557000'
S'instance created'
p124
tp125
a(S'2015-06-18 12:47:43.213000'
S'instance updated'
p126
tp127
a(S'2015-06-18 12:47:43.218000'
S'pandas DataFrame of data created'
p128
tp129
a(S'2015-06-18 12:47:43.225000'
S'data saved as csv to c:\\Charlie\\charlie\\data\\csv\\4404_verbal_fluency.csv'
tp130
a(S'2015-06-18 12:47:47.551000'
g126
tp131
a(S'2015-06-18 12:47:47.556000'
g128
tp132
a(S'2015-06-18 12:47:47.560000'
S'data saved as csv to c:\\Charlie\\charlie\\data\\csv\\4404_verbal_fluency.csv'
tp133
a(S'2015-06-18 12:48:51.300000'
g126
tp134
a(S'2015-06-18 12:48:51.305000'
g128
tp135
a(S'2015-06-18 12:48:51.309000'
S'data saved as csv to c:\\Charlie\\charlie\\data\\csv\\4404_verbal_fluency.csv'
tp136
a(S'2015-06-18 12:48:55.235000'
g126
tp137
a(S'2015-06-18 12:48:55.241000'
g128
tp138
a(S'2015-06-18 12:48:55.245000'
S'data saved as csv to c:\\Charlie\\charlie\\data\\csv\\4404_verbal_fluency.csv'
tp139
a(S'2015-06-18 12:50:00.360000'
g126
tp140
a(S'2015-06-18 12:50:00.365000'
g128
tp141
a(S'2015-06-18 12:50:00.369000'
S'data saved as csv to c:\\Charlie\\charlie\\data\\csv\\4404_verbal_fluency.csv'
tp142
a(S'2015-06-18 12:50:09.519000'
g126
tp143
a(S'2015-06-18 12:50:09.525000'
g128
tp144
a(S'2015-06-18 12:50:09.529000'
S'data saved as csv to c:\\Charlie\\charlie\\data\\csv\\4404_verbal_fluency.csv'
tp145
a(S'2015-06-18 12:51:13.444000'
g126
tp146
a(S'2015-06-18 12:51:13.449000'
g128
tp147
a(S'2015-06-18 12:51:13.453000'
S'data saved as csv to c:\\Charlie\\charlie\\data\\csv\\4404_verbal_fluency.csv'
tp148
asb.