(icharlie.tools.data
Data
p1
(dp2
S'lang'
p3
S'EN'
p4
sS'control'
p5
(lp6
sS'last_updated'
p7
cdatetime
datetime
p8
(S'\x07\xdf\x06\x1e\r0\x04\x0c_\xf8'
tRp9
sS'last_opened'
p10
g8
(S'\x07\xdf\x06\x1e\r+%\x0e~\xf0'
tRp11
sS'proj_id'
p12
S'connectivity'
p13
sS'date_done'
p14
NsS'test_done'
p15
I01
sS'data'
p16
(lp17
(S'4410'
p18
S'ctrails'
p19
S'number'
p20
S'practice'
p21
I0
I1
S'Correct'
p22
I2071
I9687
tp23
a(g18
g19
g20
g21
I1
I2
g22
I1520
I9687
tp24
a(g18
g19
g20
g21
I2
I3
g22
I1080
I9687
tp25
a(g18
g19
g20
g21
I3
I4
g22
I730
I9687
tp26
a(g18
g19
g20
g21
I4
I5
g22
I1560
I9687
tp27
a(g18
g19
g20
g21
I5
I6
g22
I910
I9687
tp28
a(g18
g19
g20
g21
I6
I7
g22
I870
I9687
tp29
a(g18
g19
g20
g21
I7
I8
g22
I900
I9687
tp30
a(g18
g19
g20
S'test'
p31
I0
I1
g22
I2021
I45751
tp32
a(g18
g19
g20
g31
I1
I2
g22
I2270
I45751
tp33
a(g18
g19
g20
g31
I2
I3
g22
I870
I45751
tp34
a(g18
g19
g20
g31
I3
I4
g22
I1540
I45751
tp35
a(g18
g19
g20
g31
I4
I5
g22
I5550
I45751
tp36
a(g18
g19
g20
g31
I5
I6
g22
I1030
I45751
tp37
a(g18
g19
g20
g31
I6
I7
g22
I1120
I45751
tp38
a(g18
g19
g20
g31
I7
I8
g22
I1010
I45751
tp39
a(g18
g19
g20
g31
I8
I9
g22
I1570
I45751
tp40
a(g18
g19
g20
g31
I9
I10
g22
I1391
I45751
tp41
a(g18
g19
g20
g31
I10
I11
g22
I1040
I45751
tp42
a(g18
g19
g20
g31
I11
I12
g22
I1090
I45751
tp43
a(g18
g19
g20
g31
I12
I13
g22
I1270
I45751
tp44
a(g18
g19
g20
g31
I13
I14
g22
I970
I45751
tp45
a(g18
g19
g20
g31
I14
I15
g22
I440
I45751
tp46
a(g18
g19
g20
g31
I15
I16
g22
I1710
I45751
tp47
a(g18
g19
g20
g31
I16
I17
g22
I3480
I45751
tp48
a(g18
g19
g20
g31
I17
I18
g22
I1470
I45751
tp49
a(g18
g19
g20
g31
I18
I19
g22
I1050
I45751
tp50
a(g18
g19
g20
g31
I19
I20
g22
I8241
I45751
tp51
a(g18
g19
g20
g31
I20
I21
g22
I1190
I45751
tp52
a(g18
g19
g20
g31
I21
I22
g22
I720
I45751
tp53
a(g18
g19
g20
g31
I22
I23
g22
I1070
I45751
tp54
a(g18
g19
g20
g31
I23
I24
g22
I2740
I45751
tp55
a(g18
g19
g20
g31
I24
I25
g22
I780
I45751
tp56
a(g18
g19
S'letter'
p57
g21
I0
S'a'
g22
I2240
I9816
tp58
a(g18
g19
g57
g21
I1
S'b'
g22
I960
I9816
tp59
a(g18
g19
g57
g21
I2
S'c'
g22
I610
I9816
tp60
a(g18
g19
g57
g21
I3
S'd'
g22
I1030
I9816
tp61
a(g18
g19
g57
g21
I4
S'e'
g22
I1040
I9816
tp62
a(g18
g19
g57
g21
I5
S'f'
g22
I1980
I9816
tp63
a(g18
g19
g57
g21
I6
S'g'
g22
I1040
I9816
tp64
a(g18
g19
g57
g21
I7
S'h'
g22
I870
I9816
tp65
a(g18
g19
g57
g31
I0
S'a'
g22
I3450
I47088
tp66
a(g18
g19
g57
g31
I1
S'b'
g22
I1760
I47088
tp67
a(g18
g19
g57
g31
I2
S'c'
g22
I3970
I47088
tp68
a(g18
g19
g57
g31
I3
S'd'
g22
I1281
I47088
tp69
a(g18
g19
g57
g31
I4
S'e'
g22
I2650
I47088
tp70
a(g18
g19
g57
g31
I5
S'f'
g22
I820
I47088
tp71
a(g18
g19
g57
g31
I6
S'g'
g22
I760
I47088
tp72
a(g18
g19
g57
g31
I7
S'h'
g22
I6620
I47088
tp73
a(g18
g19
g57
g31
I8
S'i'
g22
I5060
I47088
tp74
a(g18
g19
g57
g31
I9
S'j'
g22
I620
I47088
tp75
a(g18
g19
g57
g31
I10
S'k'
g22
I2091
I47088
tp76
a(g18
g19
g57
g31
I11
S'l'
g22
I2230
I47088
tp77
a(g18
g19
g57
g31
I12
S'm'
g22
I810
I47088
tp78
a(g18
g19
g57
g31
I13
S'n'
g22
I1260
I47088
tp79
a(g18
g19
g57
g31
I14
S'o'
g22
I610
I47088
tp80
a(g18
g19
g57
g31
I15
S'p'
g22
I1760
I47088
tp81
a(g18
g19
g57
g31
I16
S'q'
g22
I1500
I47088
tp82
a(g18
g19
g57
g31
I17
S'r'
g22
I710
I47088
tp83
a(g18
g19
g57
g31
I18
S's'
g22
I540
I47088
tp84
a(g18
g19
g57
g31
I19
S't'
g22
I610
I47088
tp85
a(g18
g19
g57
g31
I20
S'u'
g22
I2700
I47088
tp86
a(g18
g19
g57
g31
I21
S'v'
g22
I720
I47088
tp87
a(g18
g19
g57
g31
I22
S'w'
g22
I2190
I47088
tp88
a(g18
g19
g57
g31
I23
S'x'
g22
I1241
I47088
tp89
a(g18
g19
g57
g31
I24
S'y'
g22
I1010
I47088
tp90
a(g18
g19
S'number-letter'
p91
g21
I0
S'a'
S'Incorrect'
p92
I1140
I12599
tp93
a(g18
g19
g91
g21
I1
I1
g22
I1070
I12599
tp94
a(g18
g19
g91
g21
I2
S'a'
g22
I970
I12599
tp95
a(g18
g19
g91
g21
I3
S'b'
g92
I2070
I12599
tp96
a(g18
g19
g91
g21
I4
I2
g22
I2041
I12599
tp97
a(g18
g19
g91
g21
I5
S'b'
g22
I850
I12599
tp98
a(g18
g19
g91
g21
I6
I3
g22
I1070
I12599
tp99
a(g18
g19
g91
g21
I7
S'c'
g22
I890
I12599
tp100
a(g18
g19
g91
g21
I8
I4
g22
I1470
I12599
tp101
a(g18
g19
g91
g21
I9
S'd'
g22
I980
I12599
tp102
a(g18
g19
g91
g31
I0
I1
g22
I2661
I56498
tp103
a(g18
g19
g91
g31
I1
S'a'
g22
I800
I56498
tp104
a(g18
g19
g91
g31
I2
I2
g22
I4340
I56498
tp105
a(g18
g19
g91
g31
I3
S'b'
g22
I3500
I56498
tp106
a(g18
g19
g91
g31
I4
I3
g22
I1160
I56498
tp107
a(g18
g19
g91
g31
I5
S'c'
g22
I2950
I56498
tp108
a(g18
g19
g91
g31
I6
I4
g22
I2200
I56498
tp109
a(g18
g19
g91
g31
I7
S'd'
g22
I790
I56498
tp110
a(g18
g19
g91
g31
I8
I5
g22
I1431
I56498
tp111
a(g18
g19
g91
g31
I9
S'e'
g22
I630
I56498
tp112
a(g18
g19
g91
g31
I10
I6
g22
I3050
I56498
tp113
a(g18
g19
g91
g31
I11
S'f'
g22
I950
I56498
tp114
a(g18
g19
g91
g31
I12
I7
g22
I3320
I56498
tp115
a(g18
g19
g91
g31
I13
S'g'
g22
I4230
I56498
tp116
a(g18
g19
g91
g31
I14
I8
g22
I1410
I56498
tp117
a(g18
g19
g91
g31
I15
S'h'
g22
I660
I56498
tp118
a(g18
g19
g91
g31
I16
I9
g22
I3631
I56498
tp119
a(g18
g19
g91
g31
I17
S'i'
g22
I790
I56498
tp120
a(g18
g19
g91
g31
I18
I10
g22
I3560
I56498
tp121
a(g18
g19
g91
g31
I19
S'j'
g22
I1550
I56498
tp122
a(g18
g19
g91
g31
I20
I11
g22
I1620
I56498
tp123
a(g18
g19
g91
g31
I21
S'k'
g22
I2150
I56498
tp124
a(g18
g19
g91
g31
I22
I12
g22
I3080
I56498
tp125
a(g18
g19
g91
g31
I23
S'l'
g22
I820
I56498
tp126
a(g18
g19
g91
g31
I24
I13
g22
I5091
I56498
tp127
asS'output_format'
p128
(lp129
(S'proband_id'
p130
c__builtin__
str
p131
tp132
a(S'test_name'
p133
g131
tp134
a(S'phase'
p135
g131
tp136
a(S'trial_type'
p137
g131
tp138
a(S'n'
c__builtin__
int
p139
tp140
a(S'rsp'
p141
g131
tp142
a(S'corr'
p143
g131
tp144
a(S'rt'
p145
g139
tp146
a(S'total_time'
p147
g139
tp148
asg130
g18
sS'filename'
p149
S'4410_ctrails.data'
p150
sS'initialised'
p151
g8
(S'\x07\xdf\x06\x1e\r+%\x0e~\xf0'
tRp152
sS'last_udated'
p153
g8
(S'\x07\xdf\x06\x1e\r+%\x0e~\xf0'
tRp154
sg133
S'ctrails'
p155
sS'directory'
p156
S'c:\\Charlie\\charlie\\data\\raw'
p157
sS'user_id'
p158
S'oleach'
p159
sS'test_started'
p160
I01
sS'abs_filename'
p161
S'c:\\Charlie\\charlie\\data\\raw\\4410_ctrails.data'
p162
sS'date_started'
p163
g8
(S'\x07\xdf\x06\x1e\r,\x06\x05zX'
tRp164
sS'log'
p165
(lp166
(S'2015-06-30 13:43:37.950000'
S'instance created'
p167
tp168
a(S'2015-06-30 13:44:06.374000'
S'instance updated'
p169
tp170
a(S'2015-06-30 13:44:06.379000'
S'pandas DataFrame of data created'
p171
tp172
a(S'2015-06-30 13:44:06.385000'
S'data saved as csv to c:\\Charlie\\charlie\\data\\csv\\4410_ctrails.csv'
tp173
a(S'2015-06-30 13:45:01.460000'
g169
tp174
a(S'2015-06-30 13:45:01.470000'
g171
tp175
a(S'2015-06-30 13:45:01.474000'
S'data saved as csv to c:\\Charlie\\charlie\\data\\csv\\4410_ctrails.csv'
tp176
a(S'2015-06-30 13:45:22.648000'
g169
tp177
a(S'2015-06-30 13:45:22.659000'
g171
tp178
a(S'2015-06-30 13:45:22.663000'
S'data saved as csv to c:\\Charlie\\charlie\\data\\csv\\4410_ctrails.csv'
tp179
a(S'2015-06-30 13:46:20.324000'
g169
tp180
a(S'2015-06-30 13:46:20.335000'
g171
tp181
a(S'2015-06-30 13:46:20.339000'
S'data saved as csv to c:\\Charlie\\charlie\\data\\csv\\4410_ctrails.csv'
tp182
a(S'2015-06-30 13:46:58.625000'
g169
tp183
a(S'2015-06-30 13:46:58.636000'
g171
tp184
a(S'2015-06-30 13:46:58.640000'
S'data saved as csv to c:\\Charlie\\charlie\\data\\csv\\4410_ctrails.csv'
tp185
a(S'2015-06-30 13:48:04.795000'
g169
tp186
a(S'2015-06-30 13:48:04.806000'
g171
tp187
a(S'2015-06-30 13:48:04.811000'
S'data saved as csv to c:\\Charlie\\charlie\\data\\csv\\4410_ctrails.csv'
tp188
asb.