(icharlie.tools.data
Data
p1
(dp2
S'lang'
p3
S'EN'
p4
sS'control'
p5
(lp6
sS'last_updated'
p7
cdatetime
datetime
p8
(S'\x07\xdf\x06\x1e\r\x049\n`@'
tRp9
sS'last_opened'
p10
g8
(S'\x07\xdf\x06\x1e\x0c;-\x0b\x98\xc0'
tRp11
sS'proj_id'
p12
S'connectivity'
p13
sS'date_done'
p14
g8
(S'\x07\xdf\x06\x1e\r\x049\t\x99\x08'
tRp15
sS'test_done'
p16
I01
sS'data'
p17
(lp18
(S'4410'
p19
S'cvlt2'
p20
I0
csip
_unpickle_type
p21
(S'PyQt4.QtCore'
p22
S'QString'
(Vdesk
p23
ttRp24
tp25
a(g19
g20
I0
g21
(g22
S'QString'
(Vbookcase
p26
ttRp27
tp28
a(g19
g20
I0
g21
(g22
S'QString'
(Vsquirrel
p29
ttRp30
tp31
a(g19
g20
I0
g21
(g22
S'QString'
(Vgiraffe
p32
ttRp33
tp34
a(g19
g20
I0
g21
(g22
S'QString'
(Vcow
p35
ttRp36
tp37
a(g19
g20
I0
g21
(g22
S'QString'
(Vspinach
p38
ttRp39
tp40
a(g19
g20
I0
g21
(g22
S'QString'
(Vtruck
p41
ttRp42
tp43
a(g19
g20
I1
g21
(g22
S'QString'
(Vgiraffe
p44
ttRp45
tp46
a(g19
g20
I1
g21
(g22
S'QString'
(Vbookcase
p47
ttRp48
tp49
a(g19
g20
I1
g21
(g22
S'QString'
(Vonion
p50
ttRp51
tp52
a(g19
g20
I1
g21
(g22
S'QString'
(Vtruck
p53
ttRp54
tp55
a(g19
g20
I1
g21
(g22
S'QString'
(Vspinach
p56
ttRp57
tp58
a(g19
g20
I1
g21
(g22
S'QString'
(Vcow
p59
ttRp60
tp61
a(g19
g20
I2
g21
(g22
S'QString'
(Vsubway
p62
ttRp63
tp64
a(g19
g20
I2
g21
(g22
S'QString'
(Vcelery
p65
ttRp66
tp67
a(g19
g20
I2
g21
(g22
S'QString'
(Vcabbage
p68
ttRp69
tp70
a(g19
g20
I2
g21
(g22
S'QString'
(Vsquirrel
p71
ttRp72
tp73
a(g19
g20
I2
g21
(g22
S'QString'
(Vcow
p74
ttRp75
tp76
a(g19
g20
I2
g21
(g22
S'QString'
(Vtruck
p77
ttRp78
tp79
a(g19
g20
I2
g21
(g22
S'QString'
(Vspinach
p80
ttRp81
tp82
a(g19
g20
I3
g21
(g22
S'QString'
(Vsubway
p83
ttRp84
tp85
a(g19
g20
I3
g21
(g22
S'QString'
(Vcelery
p86
ttRp87
tp88
a(g19
g20
I3
g21
(g22
S'QString'
(Vdesk
p89
ttRp90
tp91
a(g19
g20
I3
g21
(g22
S'QString'
(Vlamp
p92
ttRp93
tp94
a(g19
g20
I3
g21
(g22
S'QString'
(Vcabbage
p95
ttRp96
tp97
a(g19
g20
I3
g21
(g22
S'QString'
(Vcow
p98
ttRp99
tp100
a(g19
g20
I3
g21
(g22
S'QString'
(Vgiraffe
p101
ttRp102
tp103
a(g19
g20
I3
g21
(g22
S'QString'
(Vtruck
p104
ttRp105
tp106
a(g19
g20
I3
g21
(g22
S'QString'
(Vspinach
p107
ttRp108
tp109
a(g19
g20
I4
g21
(g22
S'QString'
(Vonion
p110
ttRp111
tp112
a(g19
g20
I4
g21
(g22
S'QString'
(Vmotorcycle
p113
ttRp114
tp115
a(g19
g20
I4
g21
(g22
S'QString'
(Vzebra
p116
ttRp117
tp118
a(g19
g20
I4
g21
(g22
S'QString'
(Vcabinet
p119
ttRp120
tp121
a(g19
g20
I4
g21
(g22
S'QString'
(Vcow
p122
ttRp123
tp124
a(g19
g20
I4
g21
(g22
S'QString'
(Vdesk
p125
ttRp126
tp127
a(g19
g20
I4
g21
(g22
S'QString'
(Vintrusion
p128
ttRp129
tp130
a(g19
g20
I4
g21
(g22
S'QString'
(Vtruck
p131
ttRp132
tp133
a(g19
g20
I4
g21
(g22
S'QString'
(Vspinach
p134
ttRp135
tp136
a(g19
g20
I4
g21
(g22
S'QString'
(Vsubway
p137
ttRp138
tp139
asS'output_format'
p140
(lp141
(S'proband_id'
p142
c__builtin__
str
p143
tp144
a(S'test_name'
p145
g143
tp146
a(S'trialn'
p147
c__builtin__
int
p148
tp149
a(S'rsp'
p150
g143
tp151
asg142
g19
sS'filename'
p152
S'4410_cvlt2.data'
p153
sS'initialised'
p154
g8
(S'\x07\xdf\x06\x1e\x0c;-\x0b\x98\xc0'
tRp155
sS'last_udated'
p156
g8
(S'\x07\xdf\x06\x1e\x0c;-\x0b\x98\xc0'
tRp157
sg145
S'cvlt2'
p158
sS'directory'
p159
S'c:\\Charlie\\charlie\\data\\raw'
p160
sS'user_id'
p161
S'oleach'
p162
sS'test_started'
p163
I01
sS'abs_filename'
p164
S'c:\\Charlie\\charlie\\data\\raw\\4410_cvlt2.data'
p165
sS'date_started'
p166
g8
(S'\x07\xdf\x06\x1e\r\x01\x04\tj('
tRp167
sS'log'
p168
(lp169
(S'2015-06-30 12:59:45.760000'
S'instance created'
p170
tp171
a(S'2015-06-30 13:01:04.632000'
S'instance updated'
p172
tp173
a(S'2015-06-30 13:01:04.651000'
S'pandas DataFrame of data created'
p174
tp175
a(S'2015-06-30 13:01:04.661000'
S'data saved as csv to c:\\Charlie\\charlie\\data\\csv\\4410_cvlt2.csv'
tp176
a(S'2015-06-30 13:01:49.992000'
g172
tp177
a(S'2015-06-30 13:01:50.010000'
g174
tp178
a(S'2015-06-30 13:01:50.014000'
S'data saved as csv to c:\\Charlie\\charlie\\data\\csv\\4410_cvlt2.csv'
tp179
a(S'2015-06-30 13:02:06.279000'
g172
tp180
a(S'2015-06-30 13:02:06.308000'
g174
tp181
a(S'2015-06-30 13:02:06.310000'
S'data saved as csv to c:\\Charlie\\charlie\\data\\csv\\4410_cvlt2.csv'
tp182
a(S'2015-06-30 13:02:47.068000'
g172
tp183
a(S'2015-06-30 13:02:47.097000'
g174
tp184
a(S'2015-06-30 13:02:47.101000'
S'data saved as csv to c:\\Charlie\\charlie\\data\\csv\\4410_cvlt2.csv'
tp185
a(S'2015-06-30 13:03:06.466000'
g172
tp186
a(S'2015-06-30 13:03:06.500000'
g174
tp187
a(S'2015-06-30 13:03:06.502000'
S'data saved as csv to c:\\Charlie\\charlie\\data\\csv\\4410_cvlt2.csv'
tp188
a(S'2015-06-30 13:03:45.409000'
g172
tp189
a(S'2015-06-30 13:03:45.441000'
g174
tp190
a(S'2015-06-30 13:03:45.443000'
S'data saved as csv to c:\\Charlie\\charlie\\data\\csv\\4410_cvlt2.csv'
tp191
a(S'2015-06-30 13:04:01.184000'
g172
tp192
a(S'2015-06-30 13:04:01.225000'
g174
tp193
a(S'2015-06-30 13:04:01.227000'
S'data saved as csv to c:\\Charlie\\charlie\\data\\csv\\4410_cvlt2.csv'
tp194
a(S'2015-06-30 13:04:37.830000'
g172
tp195
a(S'2015-06-30 13:04:37.871000'
g174
tp196
a(S'2015-06-30 13:04:37.873000'
S'data saved as csv to c:\\Charlie\\charlie\\data\\csv\\4410_cvlt2.csv'
tp197
a(S'2015-06-30 13:04:57.629000'
g172
tp198
a(S'2015-06-30 13:04:57.678000'
g174
tp199
a(S'2015-06-30 13:04:57.680000'
S'data saved as csv to c:\\Charlie\\charlie\\data\\csv\\4410_cvlt2.csv'
tp200
asb.