(icharlie.tools.data
Data
p1
(dp2
S'lang'
p3
S'EN'
p4
sS'control'
p5
(lp6
sS'last_updated'
p7
cdatetime
datetime
p8
(S'\x07\xdf\x06\x1e\r$\x03\x07\x04\xe0'
tRp9
sS'last_opened'
p10
g8
(S'\x07\xdf\x06\x1e\r\x1e\x10\x04\xde\x18'
tRp11
sS'proj_id'
p12
S'connectivity'
p13
sS'date_done'
p14
g8
(S'\x07\xdf\x06\x1e\r$\x03\x06\xdd\xd0'
tRp15
sS'test_done'
p16
I01
sS'data'
p17
(lp18
(S'4410'
p19
S'verbal_fluency'
p20
I0
S'True'
p21
tp22
a(g19
g20
I0
g21
tp23
a(g19
g20
I0
g21
tp24
a(g19
g20
I0
g21
tp25
a(g19
g20
I0
g21
tp26
a(g19
g20
I0
g21
tp27
a(g19
g20
I0
g21
tp28
a(g19
g20
I0
g21
tp29
a(g19
g20
I0
g21
tp30
a(g19
g20
I0
g21
tp31
a(g19
g20
I0
g21
tp32
a(g19
g20
I0
g21
tp33
a(g19
g20
I0
g21
tp34
a(g19
g20
I0
g21
tp35
a(g19
g20
I0
g21
tp36
a(g19
g20
I0
g21
tp37
a(g19
g20
I0
g21
tp38
a(g19
g20
I0
g21
tp39
a(g19
g20
I0
g21
tp40
a(g19
g20
I0
g21
tp41
a(g19
g20
I0
g21
tp42
a(g19
g20
I0
g21
tp43
a(g19
g20
I0
g21
tp44
a(g19
g20
I0
g21
tp45
a(g19
g20
I1
g21
tp46
a(g19
g20
I1
g21
tp47
a(g19
g20
I1
g21
tp48
a(g19
g20
I1
g21
tp49
a(g19
g20
I1
g21
tp50
a(g19
g20
I1
g21
tp51
a(g19
g20
I1
g21
tp52
a(g19
g20
I1
g21
tp53
a(g19
g20
I1
g21
tp54
a(g19
g20
I1
g21
tp55
a(g19
g20
I1
g21
tp56
a(g19
g20
I1
g21
tp57
a(g19
g20
I1
g21
tp58
a(g19
g20
I1
g21
tp59
a(g19
g20
I1
g21
tp60
a(g19
g20
I1
g21
tp61
a(g19
g20
I1
g21
tp62
a(g19
g20
I1
g21
tp63
a(g19
g20
I1
g21
tp64
a(g19
g20
I1
g21
tp65
a(g19
g20
I1
g21
tp66
a(g19
g20
I1
g21
tp67
a(g19
g20
I2
g21
tp68
a(g19
g20
I2
g21
tp69
a(g19
g20
I2
g21
tp70
a(g19
g20
I2
g21
tp71
a(g19
g20
I2
g21
tp72
a(g19
g20
I2
g21
tp73
a(g19
g20
I2
g21
tp74
a(g19
g20
I2
g21
tp75
a(g19
g20
I2
g21
tp76
a(g19
g20
I2
g21
tp77
a(g19
g20
I2
g21
tp78
a(g19
g20
I2
g21
tp79
a(g19
g20
I2
g21
tp80
a(g19
g20
I2
g21
tp81
a(g19
g20
I2
g21
tp82
a(g19
g20
I2
g21
tp83
a(g19
g20
I2
S'False'
p84
tp85
a(g19
g20
I2
g84
tp86
a(g19
g20
I2
g21
tp87
a(g19
g20
I2
g84
tp88
a(g19
g20
I2
g21
tp89
a(g19
g20
I2
g21
tp90
a(g19
g20
I2
g21
tp91
a(g19
g20
I2
g21
tp92
a(g19
g20
I2
g21
tp93
a(g19
g20
I2
g21
tp94
a(g19
g20
I3
g21
tp95
a(g19
g20
I3
g21
tp96
a(g19
g20
I3
g21
tp97
a(g19
g20
I3
g21
tp98
a(g19
g20
I3
g21
tp99
a(g19
g20
I3
g21
tp100
a(g19
g20
I3
g21
tp101
a(g19
g20
I3
g21
tp102
a(g19
g20
I3
g21
tp103
a(g19
g20
I3
g21
tp104
a(g19
g20
I3
g21
tp105
a(g19
g20
I3
g21
tp106
a(g19
g20
I3
g21
tp107
a(g19
g20
I3
g21
tp108
a(g19
g20
I3
g21
tp109
a(g19
g20
I3
g21
tp110
a(g19
g20
I3
g21
tp111
a(g19
g20
I3
g21
tp112
a(g19
g20
I3
g21
tp113
a(g19
g20
I3
g21
tp114
a(g19
g20
I3
g84
tp115
a(g19
g20
I3
g21
tp116
a(g19
g20
I3
g21
tp117
a(g19
g20
I3
g21
tp118
a(g19
g20
I3
g21
tp119
a(g19
g20
I3
g21
tp120
asS'output_format'
p121
(lp122
(S'proband_id'
p123
c__builtin__
str
p124
tp125
a(S'test_name'
p126
g124
tp127
a(S'trialn'
p128
c__builtin__
int
p129
tp130
a(S'rsp'
p131
g124
tp132
asg123
g19
sS'filename'
p133
S'4410_verbal_fluency.data'
p134
sS'initialised'
p135
g8
(S'\x07\xdf\x06\x1e\r\x1e\x10\x04\xde\x18'
tRp136
sS'last_udated'
p137
g8
(S'\x07\xdf\x06\x1e\r\x1e\x10\x04\xde\x18'
tRp138
sg126
S'verbal_fluency'
p139
sS'directory'
p140
S'c:\\Charlie\\charlie\\data\\raw'
p141
sS'user_id'
p142
S'oleach'
p143
sS'test_started'
p144
I01
sS'abs_filename'
p145
S'c:\\Charlie\\charlie\\data\\raw\\4410_verbal_fluency.data'
p146
sS'date_started'
p147
g8
(S'\x07\xdf\x06\x1e\r \x1e\x06\xd6\x00'
tRp148
sS'log'
p149
(lp150
(S'2015-06-30 13:30:16.319000'
S'instance created'
p151
tp152
a(S'2015-06-30 13:32:30.464000'
S'instance updated'
p153
tp154
a(S'2015-06-30 13:32:30.469000'
S'pandas DataFrame of data created'
p155
tp156
a(S'2015-06-30 13:32:30.477000'
S'data saved as csv to c:\\Charlie\\charlie\\data\\csv\\4410_verbal_fluency.csv'
tp157
a(S'2015-06-30 13:32:34.577000'
g153
tp158
a(S'2015-06-30 13:32:34.582000'
g155
tp159
a(S'2015-06-30 13:32:34.586000'
S'data saved as csv to c:\\Charlie\\charlie\\data\\csv\\4410_verbal_fluency.csv'
tp160
a(S'2015-06-30 13:33:38.932000'
g153
tp161
a(S'2015-06-30 13:33:38.937000'
g155
tp162
a(S'2015-06-30 13:33:38.941000'
S'data saved as csv to c:\\Charlie\\charlie\\data\\csv\\4410_verbal_fluency.csv'
tp163
a(S'2015-06-30 13:33:43.619000'
g153
tp164
a(S'2015-06-30 13:33:43.625000'
g155
tp165
a(S'2015-06-30 13:33:43.629000'
S'data saved as csv to c:\\Charlie\\charlie\\data\\csv\\4410_verbal_fluency.csv'
tp166
a(S'2015-06-30 13:34:47.911000'
g153
tp167
a(S'2015-06-30 13:34:47.917000'
g155
tp168
a(S'2015-06-30 13:34:47.921000'
S'data saved as csv to c:\\Charlie\\charlie\\data\\csv\\4410_verbal_fluency.csv'
tp169
a(S'2015-06-30 13:34:58.927000'
g153
tp170
a(S'2015-06-30 13:34:58.932000'
g155
tp171
a(S'2015-06-30 13:34:58.936000'
S'data saved as csv to c:\\Charlie\\charlie\\data\\csv\\4410_verbal_fluency.csv'
tp172
a(S'2015-06-30 13:36:03.450000'
g153
tp173
a(S'2015-06-30 13:36:03.456000'
g155
tp174
a(S'2015-06-30 13:36:03.460000'
S'data saved as csv to c:\\Charlie\\charlie\\data\\csv\\4410_verbal_fluency.csv'
tp175
asb.