(icharlie.tools.data
Data
p1
(dp2
S'lang'
p3
S'EN'
p4
sS'control'
p5
(lp6
sS'last_updated'
p7
cdatetime
datetime
p8
(S'\x07\xdf\x06\x1d\n3/\x04I\xa8'
tRp9
sS'last_opened'
p10
g8
(S'\x07\xdf\x06\x1d\n2-\x01_\x90'
tRp11
sS'proj_id'
p12
S'connectivity'
p13
sS'date_done'
p14
NsS'test_done'
p15
I01
sS'data'
p16
(lp17
(S'4412'
p18
S'orientation'
p19
S'first'
p20
I0
I44
I-336
I233
I131
I0
I2090
I2098
tp21
a(g18
g19
g20
I1
I291
I-190
I310
I-249
I0
I1910
I4015
tp22
a(g18
g19
g20
I2
I174
I158
I-198
I-147
I0
I1840
I5861
tp23
a(g18
g19
g20
I3
I249
I-155
I-163
I283
I0
I1060
I6927
tp24
a(g18
g19
g20
I4
I144
I171
I260
I315
I0
I880
I9063
tp25
a(g18
g19
g20
I5
I292
I-24
I-346
I-300
I0
I940
I11320
tp26
a(g18
g19
g20
I6
I-136
I-184
I174
I-307
I0
I1670
I12996
tp27
a(g18
g19
g20
I7
I-314
I-191
I209
I-166
I0
I1040
I14042
tp28
a(g18
g19
g20
I8
I76
I54
I-282
I128
I0
I1560
I15608
tp29
a(g18
g19
g20
I9
I-192
I168
I124
I-343
I0
I1090
I16704
tp30
a(g18
g19
S'last'
p31
I0
I-31
I-224
I233
I131
I0
I1020
I1027
tp32
a(g18
g19
g31
I1
I-273
I-68
I310
I-249
I0
I1420
I2455
tp33
a(g18
g19
g31
I2
I178
I207
I-198
I-147
I0
I1220
I3682
tp34
a(g18
g19
g31
I3
I40
I-55
I-163
I283
I1
I1430
I5119
tp35
a(g18
g19
g31
I3
I40
I-55
I-163
I283
I0
I850
I5969
tp36
a(g18
g19
g31
I4
I-241
I-116
I260
I315
I1
I1290
I7266
tp37
a(g18
g19
g31
I4
I-241
I-116
I260
I315
I0
I1040
I8306
tp38
a(g18
g19
g31
I5
I-95
I-43
I-346
I-300
I0
I1000
I9313
tp39
a(g18
g19
g31
I6
I287
I199
I174
I-307
I1
I1171
I10491
tp40
a(g18
g19
g31
I6
I287
I199
I174
I-307
I0
I760
I12571
tp41
a(g18
g19
g31
I7
I124
I321
I209
I-166
I1
I1040
I13619
tp42
a(g18
g19
g31
I7
I124
I321
I209
I-166
I0
I820
I14439
tp43
a(g18
g19
g31
I8
I-123
I133
I-282
I128
I1
I1220
I15667
tp44
a(g18
g19
g31
I8
I-123
I133
I-282
I128
I0
I1000
I16667
tp45
a(g18
g19
g31
I9
I138
I284
I124
I-343
I1
I1250
I17925
tp46
a(g18
g19
g31
I9
I138
I284
I124
I-343
I1
I500
I18425
tp47
a(g18
g19
g31
I9
I138
I284
I124
I-343
I0
I2030
I20455
tp48
asS'output_format'
p49
(lp50
(S'proband_id'
p51
c__builtin__
str
p52
tp53
a(S'test_name'
p54
g52
tp55
a(S'phase'
p56
g52
tp57
a(S'trialn'
p58
g52
tp59
a(S'posx'
p60
c__builtin__
int
p61
tp62
a(S'posy'
p63
g61
tp64
a(S'dposx'
p65
g61
tp66
a(S'dposy'
p67
g61
tp68
a(S'rsp'
p69
g61
tp70
a(S'rt'
p71
g61
tp72
a(S'total_time'
p73
g61
tp74
asg51
g18
sS'filename'
p75
S'4412_orientation.data'
p76
sS'initialised'
p77
g8
(S'\x07\xdf\x06\x1d\n2-\x01_\x90'
tRp78
sS'last_udated'
p79
g8
(S'\x07\xdf\x06\x1d\n2-\x01_\x90'
tRp80
sg54
S'orientation'
p81
sS'directory'
p82
S'C:\\Users\\Jbarrett\\Charlie\\charlie\\data\\raw'
p83
sS'user_id'
p84
S'sbuccheri'
p85
sS'test_started'
p86
I01
sS'abs_filename'
p87
S'C:\\Users\\Jbarrett\\Charlie\\charlie\\data\\raw\\4412_orientation.data'
p88
sS'date_started'
p89
g8
(S'\x07\xdf\x06\x1d\n3\x1a\t\x89h'
tRp90
sS'log'
p91
(lp92
(S'2015-06-29 10:50:45.090000'
S'instance created'
p93
tp94
a(S'2015-06-29 10:51:26.635000'
S'instance updated'
p95
tp96
a(S'2015-06-29 10:51:26.647000'
S'pandas DataFrame of data created'
p97
tp98
a(S'2015-06-29 10:51:26.651000'
S'data saved as csv to C:\\Users\\Jbarrett\\Charlie\\charlie\\data\\csv\\4412_orientation.csv'
tp99
a(S'2015-06-29 10:51:47.263000'
g95
tp100
a(S'2015-06-29 10:51:47.276000'
g97
tp101
a(S'2015-06-29 10:51:47.280000'
S'data saved as csv to C:\\Users\\Jbarrett\\Charlie\\charlie\\data\\csv\\4412_orientation.csv'
tp102
asb.