(icharlie.tools.data
Data
p1
(dp2
S'lang'
p3
S'EN'
p4
sS'control'
p5
(lp6
sS'last_updated'
p7
cdatetime
datetime
p8
(S'\x07\xdf\x06\x1d\x0b3\x1d\x06\x8b\xc8'
tRp9
sS'last_opened'
p10
g8
(S'\x07\xdf\x06\x1d\x0b-\x01\x01cx'
tRp11
sS'proj_id'
p12
S'connectivity'
p13
sS'date_done'
p14
NsS'test_done'
p15
I01
sS'data'
p16
(lp17
(S'4412'
p18
S'switching'
p19
S'practice'
p20
I0
S'Position'
p21
S'Left'
p22
S'Right'
p23
S'n/a'
p24
S'Incongruent'
p25
S'C:\\Users\\Jbarrett\\Charlie\\charlie\\stimuli\\visual\\switching\\arrow_blue_right.png'
g22
S'Right'
p26
I1610
tp27
a(g18
g19
g20
I1
g21
g22
g23
S'Non-switch'
p28
g25
S'C:\\Users\\Jbarrett\\Charlie\\charlie\\stimuli\\visual\\switching\\arrow_blue_right.png'
g22
S'Left'
p29
I3920
tp30
a(g18
g19
g20
I2
S'Direction'
p31
g22
g23
S'Switch'
p32
g25
S'C:\\Users\\Jbarrett\\Charlie\\charlie\\stimuli\\visual\\switching\\arrow_red_right.png'
g23
g29
I2610
tp33
a(g18
g19
g20
I3
g31
g23
g22
g28
g25
S'C:\\Users\\Jbarrett\\Charlie\\charlie\\stimuli\\visual\\switching\\arrow_red_left.png'
g22
g29
I6831
tp34
a(g18
g19
g20
I4
g21
g23
g23
g32
S'Congruent'
p35
S'C:\\Users\\Jbarrett\\Charlie\\charlie\\stimuli\\visual\\switching\\arrow_blue_right.png'
g23
g26
I1070
tp36
a(g18
g19
g20
I5
g21
g23
g22
g28
g25
S'C:\\Users\\Jbarrett\\Charlie\\charlie\\stimuli\\visual\\switching\\arrow_blue_left.png'
g23
g29
I950
tp37
a(g18
g19
g20
I6
g31
g22
g22
g32
g35
S'C:\\Users\\Jbarrett\\Charlie\\charlie\\stimuli\\visual\\switching\\arrow_red_left.png'
g22
g29
I970
tp38
a(g18
g19
g20
I7
g31
g23
g22
g28
g25
S'C:\\Users\\Jbarrett\\Charlie\\charlie\\stimuli\\visual\\switching\\arrow_red_left.png'
g22
g29
I2140
tp39
a(g18
g19
g20
I8
g21
g22
g22
g32
g35
S'C:\\Users\\Jbarrett\\Charlie\\charlie\\stimuli\\visual\\switching\\arrow_blue_left.png'
g22
g26
I3751
tp40
a(g18
g19
S'predictable'
p41
I0
g21
g22
g22
g24
g35
S'C:\\Users\\Jbarrett\\Charlie\\charlie\\stimuli\\visual\\switching\\arrow_blue_left.png'
g22
g29
I1920
tp42
a(g18
g19
g41
I1
g21
g22
g22
g28
g35
S'C:\\Users\\Jbarrett\\Charlie\\charlie\\stimuli\\visual\\switching\\arrow_blue_left.png'
g22
g29
I1700
tp43
a(g18
g19
g41
I2
g31
g22
g22
g32
g35
S'C:\\Users\\Jbarrett\\Charlie\\charlie\\stimuli\\visual\\switching\\arrow_red_left.png'
g22
g29
I3550
tp44
a(g18
g19
g41
I3
g31
g23
g23
g28
g35
S'C:\\Users\\Jbarrett\\Charlie\\charlie\\stimuli\\visual\\switching\\arrow_red_right.png'
g23
g26
I1170
tp45
a(g18
g19
g41
I4
g21
g22
g23
g32
g25
S'C:\\Users\\Jbarrett\\Charlie\\charlie\\stimuli\\visual\\switching\\arrow_blue_right.png'
g22
g29
I1990
tp46
a(g18
g19
g41
I5
g21
g22
g23
g28
g25
S'C:\\Users\\Jbarrett\\Charlie\\charlie\\stimuli\\visual\\switching\\arrow_blue_right.png'
g22
g29
I1360
tp47
a(g18
g19
g41
I6
g31
g23
g23
g32
g35
S'C:\\Users\\Jbarrett\\Charlie\\charlie\\stimuli\\visual\\switching\\arrow_red_right.png'
g23
g26
I1310
tp48
a(g18
g19
g41
I7
g31
g22
g23
g28
g25
S'C:\\Users\\Jbarrett\\Charlie\\charlie\\stimuli\\visual\\switching\\arrow_red_right.png'
g23
g26
I1240
tp49
a(g18
g19
g41
I8
g21
g23
g23
g32
g35
S'C:\\Users\\Jbarrett\\Charlie\\charlie\\stimuli\\visual\\switching\\arrow_blue_right.png'
g23
g26
I2201
tp50
a(g18
g19
g41
I9
g21
g23
g23
g28
g35
S'C:\\Users\\Jbarrett\\Charlie\\charlie\\stimuli\\visual\\switching\\arrow_blue_right.png'
g23
g26
I911
tp51
a(g18
g19
g41
I10
g31
g22
g23
g32
g25
S'C:\\Users\\Jbarrett\\Charlie\\charlie\\stimuli\\visual\\switching\\arrow_red_right.png'
g23
g26
I3890
tp52
a(g18
g19
g41
I11
g31
g22
g22
g28
g35
S'C:\\Users\\Jbarrett\\Charlie\\charlie\\stimuli\\visual\\switching\\arrow_red_left.png'
g22
g29
I1770
tp53
a(g18
g19
g41
I12
g21
g23
g23
g32
g35
S'C:\\Users\\Jbarrett\\Charlie\\charlie\\stimuli\\visual\\switching\\arrow_blue_right.png'
g23
g26
I3900
tp54
a(g18
g19
g41
I13
g21
g22
g22
g28
g35
S'C:\\Users\\Jbarrett\\Charlie\\charlie\\stimuli\\visual\\switching\\arrow_blue_left.png'
g22
g29
I960
tp55
a(g18
g19
g41
I14
g31
g23
g23
g32
g35
S'C:\\Users\\Jbarrett\\Charlie\\charlie\\stimuli\\visual\\switching\\arrow_red_right.png'
g23
g26
I1940
tp56
a(g18
g19
g41
I15
g31
g22
g23
g28
g25
S'C:\\Users\\Jbarrett\\Charlie\\charlie\\stimuli\\visual\\switching\\arrow_red_right.png'
g23
g26
I860
tp57
a(g18
g19
g41
I16
g21
g23
g23
g32
g35
S'C:\\Users\\Jbarrett\\Charlie\\charlie\\stimuli\\visual\\switching\\arrow_blue_right.png'
g23
g26
I2271
tp58
a(g18
g19
g41
I17
g21
g22
g23
g28
g25
S'C:\\Users\\Jbarrett\\Charlie\\charlie\\stimuli\\visual\\switching\\arrow_blue_right.png'
g22
g29
I1680
tp59
a(g18
g19
g41
I18
g31
g22
g22
g32
g35
S'C:\\Users\\Jbarrett\\Charlie\\charlie\\stimuli\\visual\\switching\\arrow_red_left.png'
g22
g29
I2470
tp60
a(g18
g19
g41
I19
g31
g22
g22
g28
g35
S'C:\\Users\\Jbarrett\\Charlie\\charlie\\stimuli\\visual\\switching\\arrow_red_left.png'
g22
g29
I980
tp61
a(g18
g19
g41
I20
g21
g22
g23
g32
g25
S'C:\\Users\\Jbarrett\\Charlie\\charlie\\stimuli\\visual\\switching\\arrow_blue_right.png'
g22
g29
I2080
tp62
a(g18
g19
g41
I21
g21
g22
g23
g28
g25
S'C:\\Users\\Jbarrett\\Charlie\\charlie\\stimuli\\visual\\switching\\arrow_blue_right.png'
g22
g29
I750
tp63
a(g18
g19
g41
I22
g31
g23
g23
g32
g35
S'C:\\Users\\Jbarrett\\Charlie\\charlie\\stimuli\\visual\\switching\\arrow_red_right.png'
g23
g26
I2230
tp64
a(g18
g19
g41
I23
g31
g23
g22
g28
g25
S'C:\\Users\\Jbarrett\\Charlie\\charlie\\stimuli\\visual\\switching\\arrow_red_left.png'
g22
g29
I900
tp65
a(g18
g19
g41
I24
g21
g23
g22
g32
g25
S'C:\\Users\\Jbarrett\\Charlie\\charlie\\stimuli\\visual\\switching\\arrow_blue_left.png'
g23
g26
I2030
tp66
a(g18
g19
g41
I25
g21
g22
g22
g28
g35
S'C:\\Users\\Jbarrett\\Charlie\\charlie\\stimuli\\visual\\switching\\arrow_blue_left.png'
g22
g29
I1740
tp67
a(g18
g19
g41
I26
g31
g22
g22
g32
g35
S'C:\\Users\\Jbarrett\\Charlie\\charlie\\stimuli\\visual\\switching\\arrow_red_left.png'
g22
g29
I2551
tp68
a(g18
g19
g41
I27
g31
g22
g22
g28
g35
S'C:\\Users\\Jbarrett\\Charlie\\charlie\\stimuli\\visual\\switching\\arrow_red_left.png'
g22
g29
I670
tp69
a(g18
g19
g41
I28
g21
g22
g23
g32
g25
S'C:\\Users\\Jbarrett\\Charlie\\charlie\\stimuli\\visual\\switching\\arrow_blue_right.png'
g22
g29
I1420
tp70
a(g18
g19
g41
I29
g21
g23
g22
g28
g25
S'C:\\Users\\Jbarrett\\Charlie\\charlie\\stimuli\\visual\\switching\\arrow_blue_left.png'
g23
g26
I1490
tp71
a(g18
g19
g41
I30
g31
g22
g22
g32
g35
S'C:\\Users\\Jbarrett\\Charlie\\charlie\\stimuli\\visual\\switching\\arrow_red_left.png'
g22
g29
I2080
tp72
a(g18
g19
g41
I31
g31
g22
g22
g28
g35
S'C:\\Users\\Jbarrett\\Charlie\\charlie\\stimuli\\visual\\switching\\arrow_red_left.png'
g22
g29
I580
tp73
a(g18
g19
g41
I32
g21
g23
g23
g32
g35
S'C:\\Users\\Jbarrett\\Charlie\\charlie\\stimuli\\visual\\switching\\arrow_blue_right.png'
g23
g26
I2910
tp74
a(g18
g19
g41
I33
g21
g23
g23
g28
g35
S'C:\\Users\\Jbarrett\\Charlie\\charlie\\stimuli\\visual\\switching\\arrow_blue_right.png'
g23
g26
I610
tp75
a(g18
g19
g41
I34
g31
g23
g22
g32
g25
S'C:\\Users\\Jbarrett\\Charlie\\charlie\\stimuli\\visual\\switching\\arrow_red_left.png'
g22
g29
I1760
tp76
a(g18
g19
g41
I35
g31
g23
g23
g28
g35
S'C:\\Users\\Jbarrett\\Charlie\\charlie\\stimuli\\visual\\switching\\arrow_red_right.png'
g23
g26
I940
tp77
a(g18
g19
g41
I36
g21
g22
g23
g32
g25
S'C:\\Users\\Jbarrett\\Charlie\\charlie\\stimuli\\visual\\switching\\arrow_blue_right.png'
g22
g29
I1691
tp78
a(g18
g19
g41
I37
g21
g23
g23
g28
g35
S'C:\\Users\\Jbarrett\\Charlie\\charlie\\stimuli\\visual\\switching\\arrow_blue_right.png'
g23
g26
I1190
tp79
a(g18
g19
g41
I38
g31
g22
g23
g32
g25
S'C:\\Users\\Jbarrett\\Charlie\\charlie\\stimuli\\visual\\switching\\arrow_red_right.png'
g23
g26
I1660
tp80
a(g18
g19
g41
I39
g31
g23
g22
g28
g25
S'C:\\Users\\Jbarrett\\Charlie\\charlie\\stimuli\\visual\\switching\\arrow_red_left.png'
g22
g29
I860
tp81
a(g18
g19
g41
I40
g21
g23
g23
g32
g35
S'C:\\Users\\Jbarrett\\Charlie\\charlie\\stimuli\\visual\\switching\\arrow_blue_right.png'
g23
g26
I1930
tp82
a(g18
g19
g41
I41
g21
g23
g22
g28
g25
S'C:\\Users\\Jbarrett\\Charlie\\charlie\\stimuli\\visual\\switching\\arrow_blue_left.png'
g23
g29
I1030
tp83
a(g18
g19
g41
I42
g31
g22
g22
g32
g35
S'C:\\Users\\Jbarrett\\Charlie\\charlie\\stimuli\\visual\\switching\\arrow_red_left.png'
g22
g29
I2620
tp84
a(g18
g19
g41
I43
g31
g22
g22
g28
g35
S'C:\\Users\\Jbarrett\\Charlie\\charlie\\stimuli\\visual\\switching\\arrow_red_left.png'
g22
g29
I810
tp85
a(g18
g19
g41
I44
g21
g23
g22
g32
g25
S'C:\\Users\\Jbarrett\\Charlie\\charlie\\stimuli\\visual\\switching\\arrow_blue_left.png'
g23
g26
I1460
tp86
a(g18
g19
g41
I45
g21
g23
g22
g28
g25
S'C:\\Users\\Jbarrett\\Charlie\\charlie\\stimuli\\visual\\switching\\arrow_blue_left.png'
g23
g26
I660
tp87
a(g18
g19
g41
I46
g31
g23
g22
g32
g25
S'C:\\Users\\Jbarrett\\Charlie\\charlie\\stimuli\\visual\\switching\\arrow_red_left.png'
g22
g29
I1330
tp88
a(g18
g19
g41
I47
g31
g22
g22
g28
g35
S'C:\\Users\\Jbarrett\\Charlie\\charlie\\stimuli\\visual\\switching\\arrow_red_left.png'
g22
g29
I1630
tp89
a(g18
g19
g41
I48
g21
g23
g22
g32
g25
S'C:\\Users\\Jbarrett\\Charlie\\charlie\\stimuli\\visual\\switching\\arrow_blue_left.png'
g23
g26
I1560
tp90
a(g18
g19
g41
I49
g21
g22
g23
g28
g25
S'C:\\Users\\Jbarrett\\Charlie\\charlie\\stimuli\\visual\\switching\\arrow_blue_right.png'
g22
g29
I1150
tp91
a(g18
g19
g41
I50
g31
g23
g22
g32
g25
S'C:\\Users\\Jbarrett\\Charlie\\charlie\\stimuli\\visual\\switching\\arrow_red_left.png'
g22
g29
I2020
tp92
a(g18
g19
g41
I51
g31
g22
g22
g28
g35
S'C:\\Users\\Jbarrett\\Charlie\\charlie\\stimuli\\visual\\switching\\arrow_red_left.png'
g22
g29
I820
tp93
a(g18
g19
g41
I52
g21
g23
g22
g32
g25
S'C:\\Users\\Jbarrett\\Charlie\\charlie\\stimuli\\visual\\switching\\arrow_blue_left.png'
g23
g26
I1420
tp94
a(g18
g19
g41
I53
g21
g23
g22
g28
g25
S'C:\\Users\\Jbarrett\\Charlie\\charlie\\stimuli\\visual\\switching\\arrow_blue_left.png'
g23
g26
I860
tp95
a(g18
g19
g41
I54
g31
g23
g22
g32
g25
S'C:\\Users\\Jbarrett\\Charlie\\charlie\\stimuli\\visual\\switching\\arrow_red_left.png'
g22
g29
I2090
tp96
a(g18
g19
g41
I55
g31
g23
g23
g28
g35
S'C:\\Users\\Jbarrett\\Charlie\\charlie\\stimuli\\visual\\switching\\arrow_red_right.png'
g23
g26
I1020
tp97
a(g18
g19
g41
I56
g21
g22
g23
g32
g25
S'C:\\Users\\Jbarrett\\Charlie\\charlie\\stimuli\\visual\\switching\\arrow_blue_right.png'
g22
g29
I1250
tp98
a(g18
g19
g41
I57
g21
g22
g23
g28
g25
S'C:\\Users\\Jbarrett\\Charlie\\charlie\\stimuli\\visual\\switching\\arrow_blue_right.png'
g22
g29
I780
tp99
a(g18
g19
g41
I58
g31
g23
g23
g32
g35
S'C:\\Users\\Jbarrett\\Charlie\\charlie\\stimuli\\visual\\switching\\arrow_red_right.png'
g23
g26
I1440
tp100
a(g18
g19
g41
I59
g31
g22
g22
g28
g35
S'C:\\Users\\Jbarrett\\Charlie\\charlie\\stimuli\\visual\\switching\\arrow_red_left.png'
g22
g29
I960
tp101
a(g18
g19
g41
I60
g21
g22
g22
g32
g35
S'C:\\Users\\Jbarrett\\Charlie\\charlie\\stimuli\\visual\\switching\\arrow_blue_left.png'
g22
g29
I1111
tp102
a(g18
g19
g41
I61
g21
g22
g22
g28
g35
S'C:\\Users\\Jbarrett\\Charlie\\charlie\\stimuli\\visual\\switching\\arrow_blue_left.png'
g22
g29
I670
tp103
a(g18
g19
g41
I62
g31
g23
g23
g32
g35
S'C:\\Users\\Jbarrett\\Charlie\\charlie\\stimuli\\visual\\switching\\arrow_red_right.png'
g23
g26
I1750
tp104
a(g18
g19
g41
I63
g31
g23
g23
g28
g35
S'C:\\Users\\Jbarrett\\Charlie\\charlie\\stimuli\\visual\\switching\\arrow_red_right.png'
g23
g26
I520
tp105
a(g18
g19
g41
I64
g21
g23
g23
g32
g35
S'C:\\Users\\Jbarrett\\Charlie\\charlie\\stimuli\\visual\\switching\\arrow_blue_right.png'
g23
g26
I1280
tp106
a(g18
g19
g41
I65
g21
g22
g23
g28
g25
S'C:\\Users\\Jbarrett\\Charlie\\charlie\\stimuli\\visual\\switching\\arrow_blue_right.png'
g22
g29
I960
tp107
a(g18
g19
g41
I66
g31
g23
g23
g32
g35
S'C:\\Users\\Jbarrett\\Charlie\\charlie\\stimuli\\visual\\switching\\arrow_red_right.png'
g23
g26
I1160
tp108
a(g18
g19
g41
I67
g31
g22
g23
g28
g25
S'C:\\Users\\Jbarrett\\Charlie\\charlie\\stimuli\\visual\\switching\\arrow_red_right.png'
g23
g26
I850
tp109
a(g18
g19
g41
I68
g21
g22
g22
g32
g35
S'C:\\Users\\Jbarrett\\Charlie\\charlie\\stimuli\\visual\\switching\\arrow_blue_left.png'
g22
g29
I1080
tp110
a(g18
g19
g41
I69
g21
g23
g22
g28
g25
S'C:\\Users\\Jbarrett\\Charlie\\charlie\\stimuli\\visual\\switching\\arrow_blue_left.png'
g23
g26
I1130
tp111
a(g18
g19
g41
I70
g31
g23
g22
g32
g25
S'C:\\Users\\Jbarrett\\Charlie\\charlie\\stimuli\\visual\\switching\\arrow_red_left.png'
g22
g29
I1580
tp112
a(g18
g19
g41
I71
g31
g23
g22
g28
g25
S'C:\\Users\\Jbarrett\\Charlie\\charlie\\stimuli\\visual\\switching\\arrow_red_left.png'
g22
g29
I560
tp113
a(g18
g19
g41
I72
g21
g23
g22
g32
g25
S'C:\\Users\\Jbarrett\\Charlie\\charlie\\stimuli\\visual\\switching\\arrow_blue_left.png'
g23
g26
I1190
tp114
a(g18
g19
g41
I73
g21
g22
g23
g28
g25
S'C:\\Users\\Jbarrett\\Charlie\\charlie\\stimuli\\visual\\switching\\arrow_blue_right.png'
g22
g29
I1170
tp115
a(g18
g19
g41
I74
g31
g23
g23
g32
g35
S'C:\\Users\\Jbarrett\\Charlie\\charlie\\stimuli\\visual\\switching\\arrow_red_right.png'
g23
g26
I1021
tp116
a(g18
g19
g41
I75
g31
g23
g23
g28
g35
S'C:\\Users\\Jbarrett\\Charlie\\charlie\\stimuli\\visual\\switching\\arrow_red_right.png'
g23
g26
I710
tp117
a(g18
g19
g41
I76
g21
g23
g23
g32
g35
S'C:\\Users\\Jbarrett\\Charlie\\charlie\\stimuli\\visual\\switching\\arrow_blue_right.png'
g23
g26
I1250
tp118
a(g18
g19
g41
I77
g21
g22
g23
g28
g25
S'C:\\Users\\Jbarrett\\Charlie\\charlie\\stimuli\\visual\\switching\\arrow_blue_right.png'
g22
g29
I960
tp119
a(g18
g19
g41
I78
g31
g22
g22
g32
g35
S'C:\\Users\\Jbarrett\\Charlie\\charlie\\stimuli\\visual\\switching\\arrow_red_left.png'
g22
g29
I1330
tp120
a(g18
g19
g41
I79
g31
g22
g23
g28
g25
S'C:\\Users\\Jbarrett\\Charlie\\charlie\\stimuli\\visual\\switching\\arrow_red_right.png'
g23
g26
I990
tp121
a(g18
g19
g41
I80
g21
g23
g22
g32
g25
S'C:\\Users\\Jbarrett\\Charlie\\charlie\\stimuli\\visual\\switching\\arrow_blue_left.png'
g23
g26
I1910
tp122
a(g18
g19
g41
I81
g21
g22
g22
g28
g35
S'C:\\Users\\Jbarrett\\Charlie\\charlie\\stimuli\\visual\\switching\\arrow_blue_left.png'
g22
g29
I790
tp123
a(g18
g19
g41
I82
g31
g22
g22
g32
g35
S'C:\\Users\\Jbarrett\\Charlie\\charlie\\stimuli\\visual\\switching\\arrow_red_left.png'
g22
g29
I1470
tp124
a(g18
g19
g41
I83
g31
g23
g23
g28
g35
S'C:\\Users\\Jbarrett\\Charlie\\charlie\\stimuli\\visual\\switching\\arrow_red_right.png'
g23
g26
I990
tp125
a(g18
g19
g41
I84
g21
g23
g22
g32
g25
S'C:\\Users\\Jbarrett\\Charlie\\charlie\\stimuli\\visual\\switching\\arrow_blue_left.png'
g23
g26
I1480
tp126
a(g18
g19
g41
I85
g21
g23
g22
g28
g25
S'C:\\Users\\Jbarrett\\Charlie\\charlie\\stimuli\\visual\\switching\\arrow_blue_left.png'
g23
g26
I680
tp127
a(g18
g19
g41
I86
g31
g23
g23
g32
g35
S'C:\\Users\\Jbarrett\\Charlie\\charlie\\stimuli\\visual\\switching\\arrow_red_right.png'
g23
g26
I1560
tp128
a(g18
g19
g41
I87
g31
g23
g23
g28
g35
S'C:\\Users\\Jbarrett\\Charlie\\charlie\\stimuli\\visual\\switching\\arrow_red_right.png'
g23
g26
I811
tp129
a(g18
g19
g41
I88
g21
g23
g23
g32
g35
S'C:\\Users\\Jbarrett\\Charlie\\charlie\\stimuli\\visual\\switching\\arrow_blue_right.png'
g23
g26
I1810
tp130
a(g18
g19
g41
I89
g21
g22
g23
g28
g25
S'C:\\Users\\Jbarrett\\Charlie\\charlie\\stimuli\\visual\\switching\\arrow_blue_right.png'
g22
g29
I900
tp131
a(g18
g19
g41
I90
g31
g23
g23
g32
g35
S'C:\\Users\\Jbarrett\\Charlie\\charlie\\stimuli\\visual\\switching\\arrow_red_right.png'
g23
g26
I760
tp132
a(g18
g19
g41
I91
g31
g22
g22
g28
g35
S'C:\\Users\\Jbarrett\\Charlie\\charlie\\stimuli\\visual\\switching\\arrow_red_left.png'
g22
g29
I1100
tp133
a(g18
g19
g41
I92
g21
g22
g22
g32
g35
S'C:\\Users\\Jbarrett\\Charlie\\charlie\\stimuli\\visual\\switching\\arrow_blue_left.png'
g22
g29
I890
tp134
a(g18
g19
g41
I93
g21
g23
g23
g28
g35
S'C:\\Users\\Jbarrett\\Charlie\\charlie\\stimuli\\visual\\switching\\arrow_blue_right.png'
g23
g26
I1730
tp135
a(g18
g19
g41
I94
g31
g22
g22
g32
g35
S'C:\\Users\\Jbarrett\\Charlie\\charlie\\stimuli\\visual\\switching\\arrow_red_left.png'
g22
g29
I2030
tp136
a(g18
g19
g41
I95
g31
g22
g22
g28
g35
S'C:\\Users\\Jbarrett\\Charlie\\charlie\\stimuli\\visual\\switching\\arrow_red_left.png'
g22
g29
I900
tp137
a(g18
g19
g41
I96
g21
g22
g22
g32
g35
S'C:\\Users\\Jbarrett\\Charlie\\charlie\\stimuli\\visual\\switching\\arrow_blue_left.png'
g22
g29
I930
tp138
a(g18
g19
g41
I97
g21
g23
g23
g28
g35
S'C:\\Users\\Jbarrett\\Charlie\\charlie\\stimuli\\visual\\switching\\arrow_blue_right.png'
g23
g26
I920
tp139
a(g18
g19
g41
I98
g31
g22
g22
g32
g35
S'C:\\Users\\Jbarrett\\Charlie\\charlie\\stimuli\\visual\\switching\\arrow_red_left.png'
g22
g29
I710
tp140
a(g18
g19
g41
I99
g31
g22
g23
g28
g25
S'C:\\Users\\Jbarrett\\Charlie\\charlie\\stimuli\\visual\\switching\\arrow_red_right.png'
g23
g26
I800
tp141
a(g18
g19
g41
I100
g21
g22
g22
g32
g35
S'C:\\Users\\Jbarrett\\Charlie\\charlie\\stimuli\\visual\\switching\\arrow_blue_left.png'
g22
g29
I1510
tp142
a(g18
g19
S'random'
p143
I0
g21
g23
g23
g24
g35
S'C:\\Users\\Jbarrett\\Charlie\\charlie\\stimuli\\visual\\switching\\arrow_blue_right.png'
g23
g26
I1251
tp144
a(g18
g19
g143
I1
g21
g22
g22
g28
g35
S'C:\\Users\\Jbarrett\\Charlie\\charlie\\stimuli\\visual\\switching\\arrow_blue_left.png'
g22
g29
I1191
tp145
a(g18
g19
g143
I2
g21
g23
g23
g28
g35
S'C:\\Users\\Jbarrett\\Charlie\\charlie\\stimuli\\visual\\switching\\arrow_blue_right.png'
g23
g26
I740
tp146
a(g18
g19
g143
I3
g31
g22
g22
g32
g35
S'C:\\Users\\Jbarrett\\Charlie\\charlie\\stimuli\\visual\\switching\\arrow_red_left.png'
g22
g29
I1510
tp147
a(g18
g19
g143
I4
g21
g23
g22
g32
g25
S'C:\\Users\\Jbarrett\\Charlie\\charlie\\stimuli\\visual\\switching\\arrow_blue_left.png'
g23
g26
I1390
tp148
a(g18
g19
g143
I5
g21
g23
g22
g28
g25
S'C:\\Users\\Jbarrett\\Charlie\\charlie\\stimuli\\visual\\switching\\arrow_blue_left.png'
g23
g26
I470
tp149
a(g18
g19
g143
I6
g21
g22
g23
g28
g25
S'C:\\Users\\Jbarrett\\Charlie\\charlie\\stimuli\\visual\\switching\\arrow_blue_right.png'
g22
g29
I1200
tp150
a(g18
g19
g143
I7
g31
g22
g23
g32
g25
S'C:\\Users\\Jbarrett\\Charlie\\charlie\\stimuli\\visual\\switching\\arrow_red_right.png'
g23
g26
I1500
tp151
a(g18
g19
g143
I8
g31
g22
g22
g28
g35
S'C:\\Users\\Jbarrett\\Charlie\\charlie\\stimuli\\visual\\switching\\arrow_red_left.png'
g22
g29
I830
tp152
a(g18
g19
g143
I9
g31
g23
g23
g28
g35
S'C:\\Users\\Jbarrett\\Charlie\\charlie\\stimuli\\visual\\switching\\arrow_red_right.png'
g23
g26
I1200
tp153
a(g18
g19
g143
I10
g21
g23
g23
g32
g35
S'C:\\Users\\Jbarrett\\Charlie\\charlie\\stimuli\\visual\\switching\\arrow_blue_right.png'
g23
g26
I1240
tp154
a(g18
g19
g143
I11
g21
g23
g22
g28
g25
S'C:\\Users\\Jbarrett\\Charlie\\charlie\\stimuli\\visual\\switching\\arrow_blue_left.png'
g23
g29
I850
tp155
a(g18
g19
g143
I12
g21
g22
g23
g28
g25
S'C:\\Users\\Jbarrett\\Charlie\\charlie\\stimuli\\visual\\switching\\arrow_blue_right.png'
g22
g29
I1680
tp156
a(g18
g19
g143
I13
g21
g22
g22
g28
g35
S'C:\\Users\\Jbarrett\\Charlie\\charlie\\stimuli\\visual\\switching\\arrow_blue_left.png'
g22
g29
I1061
tp157
a(g18
g19
g143
I14
g31
g23
g22
g32
g25
S'C:\\Users\\Jbarrett\\Charlie\\charlie\\stimuli\\visual\\switching\\arrow_red_left.png'
g22
g29
I1970
tp158
a(g18
g19
g143
I15
g31
g22
g23
g28
g25
S'C:\\Users\\Jbarrett\\Charlie\\charlie\\stimuli\\visual\\switching\\arrow_red_right.png'
g23
g26
I940
tp159
a(g18
g19
g143
I16
g31
g23
g23
g28
g35
S'C:\\Users\\Jbarrett\\Charlie\\charlie\\stimuli\\visual\\switching\\arrow_red_right.png'
g23
g26
I690
tp160
a(g18
g19
g143
I17
g21
g23
g22
g32
g25
S'C:\\Users\\Jbarrett\\Charlie\\charlie\\stimuli\\visual\\switching\\arrow_blue_left.png'
g23
g26
I1120
tp161
a(g18
g19
g143
I18
g31
g23
g22
g32
g25
S'C:\\Users\\Jbarrett\\Charlie\\charlie\\stimuli\\visual\\switching\\arrow_red_left.png'
g22
g29
I1170
tp162
a(g18
g19
g143
I19
g31
g22
g23
g28
g25
S'C:\\Users\\Jbarrett\\Charlie\\charlie\\stimuli\\visual\\switching\\arrow_red_right.png'
g23
g26
I970
tp163
a(g18
g19
g143
I20
g31
g22
g22
g28
g35
S'C:\\Users\\Jbarrett\\Charlie\\charlie\\stimuli\\visual\\switching\\arrow_red_left.png'
g22
g29
I830
tp164
a(g18
g19
g143
I21
g21
g22
g23
g32
g25
S'C:\\Users\\Jbarrett\\Charlie\\charlie\\stimuli\\visual\\switching\\arrow_blue_right.png'
g22
g29
I1300
tp165
a(g18
g19
g143
I22
g21
g23
g23
g28
g35
S'C:\\Users\\Jbarrett\\Charlie\\charlie\\stimuli\\visual\\switching\\arrow_blue_right.png'
g23
g26
I1200
tp166
a(g18
g19
g143
I23
g31
g23
g22
g32
g25
S'C:\\Users\\Jbarrett\\Charlie\\charlie\\stimuli\\visual\\switching\\arrow_red_left.png'
g22
g29
I2510
tp167
a(g18
g19
g143
I24
g21
g22
g22
g32
g35
S'C:\\Users\\Jbarrett\\Charlie\\charlie\\stimuli\\visual\\switching\\arrow_blue_left.png'
g22
g29
I1650
tp168
a(g18
g19
g143
I25
g31
g23
g23
g32
g35
S'C:\\Users\\Jbarrett\\Charlie\\charlie\\stimuli\\visual\\switching\\arrow_red_right.png'
g23
g26
I1501
tp169
a(g18
g19
g143
I26
g31
g23
g22
g28
g25
S'C:\\Users\\Jbarrett\\Charlie\\charlie\\stimuli\\visual\\switching\\arrow_red_left.png'
g22
g29
I830
tp170
a(g18
g19
g143
I27
g31
g23
g23
g28
g35
S'C:\\Users\\Jbarrett\\Charlie\\charlie\\stimuli\\visual\\switching\\arrow_red_right.png'
g23
g26
I750
tp171
a(g18
g19
g143
I28
g21
g23
g23
g32
g35
S'C:\\Users\\Jbarrett\\Charlie\\charlie\\stimuli\\visual\\switching\\arrow_blue_right.png'
g23
g26
I1290
tp172
a(g18
g19
g143
I29
g31
g22
g23
g32
g25
S'C:\\Users\\Jbarrett\\Charlie\\charlie\\stimuli\\visual\\switching\\arrow_red_right.png'
g23
g26
I1880
tp173
a(g18
g19
g143
I30
g31
g23
g23
g28
g35
S'C:\\Users\\Jbarrett\\Charlie\\charlie\\stimuli\\visual\\switching\\arrow_red_right.png'
g23
g26
I600
tp174
a(g18
g19
g143
I31
g31
g23
g23
g28
g35
S'C:\\Users\\Jbarrett\\Charlie\\charlie\\stimuli\\visual\\switching\\arrow_red_right.png'
g23
g26
I550
tp175
a(g18
g19
g143
I32
g31
g22
g22
g28
g35
S'C:\\Users\\Jbarrett\\Charlie\\charlie\\stimuli\\visual\\switching\\arrow_red_left.png'
g22
g29
I830
tp176
a(g18
g19
g143
I33
g31
g23
g22
g28
g25
S'C:\\Users\\Jbarrett\\Charlie\\charlie\\stimuli\\visual\\switching\\arrow_red_left.png'
g22
g29
I800
tp177
a(g18
g19
g143
I34
g21
g23
g23
g32
g35
S'C:\\Users\\Jbarrett\\Charlie\\charlie\\stimuli\\visual\\switching\\arrow_blue_right.png'
g23
g26
I990
tp178
a(g18
g19
g143
I35
g31
g22
g23
g32
g25
S'C:\\Users\\Jbarrett\\Charlie\\charlie\\stimuli\\visual\\switching\\arrow_red_right.png'
g23
g26
I1160
tp179
a(g18
g19
g143
I36
g21
g23
g22
g32
g25
S'C:\\Users\\Jbarrett\\Charlie\\charlie\\stimuli\\visual\\switching\\arrow_blue_left.png'
g23
g26
I1880
tp180
a(g18
g19
g143
I37
g21
g23
g23
g28
g35
S'C:\\Users\\Jbarrett\\Charlie\\charlie\\stimuli\\visual\\switching\\arrow_blue_right.png'
g23
g26
I2520
tp181
a(g18
g19
g143
I38
g21
g23
g23
g28
g35
S'C:\\Users\\Jbarrett\\Charlie\\charlie\\stimuli\\visual\\switching\\arrow_blue_right.png'
g23
g26
I570
tp182
a(g18
g19
g143
I39
g21
g22
g22
g28
g35
S'C:\\Users\\Jbarrett\\Charlie\\charlie\\stimuli\\visual\\switching\\arrow_blue_left.png'
g22
g29
I791
tp183
a(g18
g19
g143
I40
g31
g22
g22
g32
g35
S'C:\\Users\\Jbarrett\\Charlie\\charlie\\stimuli\\visual\\switching\\arrow_red_left.png'
g22
g29
I1630
tp184
a(g18
g19
g143
I41
g21
g23
g23
g32
g35
S'C:\\Users\\Jbarrett\\Charlie\\charlie\\stimuli\\visual\\switching\\arrow_blue_right.png'
g23
g26
I1110
tp185
a(g18
g19
g143
I42
g31
g22
g23
g32
g25
S'C:\\Users\\Jbarrett\\Charlie\\charlie\\stimuli\\visual\\switching\\arrow_red_right.png'
g23
g29
I1090
tp186
a(g18
g19
g143
I43
g21
g22
g23
g32
g25
S'C:\\Users\\Jbarrett\\Charlie\\charlie\\stimuli\\visual\\switching\\arrow_blue_right.png'
g22
g29
I2720
tp187
a(g18
g19
g143
I44
g31
g22
g23
g32
g25
S'C:\\Users\\Jbarrett\\Charlie\\charlie\\stimuli\\visual\\switching\\arrow_red_right.png'
g23
g26
I1610
tp188
a(g18
g19
g143
I45
g21
g23
g22
g32
g25
S'C:\\Users\\Jbarrett\\Charlie\\charlie\\stimuli\\visual\\switching\\arrow_blue_left.png'
g23
g26
I1370
tp189
a(g18
g19
g143
I46
g21
g22
g22
g28
g35
S'C:\\Users\\Jbarrett\\Charlie\\charlie\\stimuli\\visual\\switching\\arrow_blue_left.png'
g22
g29
I1020
tp190
a(g18
g19
g143
I47
g21
g22
g22
g28
g35
S'C:\\Users\\Jbarrett\\Charlie\\charlie\\stimuli\\visual\\switching\\arrow_blue_left.png'
g22
g29
I770
tp191
a(g18
g19
g143
I48
g31
g22
g22
g32
g35
S'C:\\Users\\Jbarrett\\Charlie\\charlie\\stimuli\\visual\\switching\\arrow_red_left.png'
g22
g29
I1240
tp192
a(g18
g19
g143
I49
g31
g22
g22
g28
g35
S'C:\\Users\\Jbarrett\\Charlie\\charlie\\stimuli\\visual\\switching\\arrow_red_left.png'
g22
g29
I760
tp193
a(g18
g19
g143
I50
g31
g23
g23
g28
g35
S'C:\\Users\\Jbarrett\\Charlie\\charlie\\stimuli\\visual\\switching\\arrow_red_right.png'
g23
g26
I890
tp194
a(g18
g19
g143
I51
g31
g23
g22
g28
g25
S'C:\\Users\\Jbarrett\\Charlie\\charlie\\stimuli\\visual\\switching\\arrow_red_left.png'
g22
g29
I840
tp195
a(g18
g19
g143
I52
g31
g22
g23
g28
g25
S'C:\\Users\\Jbarrett\\Charlie\\charlie\\stimuli\\visual\\switching\\arrow_red_right.png'
g23
g26
I930
tp196
a(g18
g19
g143
I53
g31
g23
g23
g28
g35
S'C:\\Users\\Jbarrett\\Charlie\\charlie\\stimuli\\visual\\switching\\arrow_red_right.png'
g23
g26
I830
tp197
a(g18
g19
g143
I54
g21
g23
g22
g32
g25
S'C:\\Users\\Jbarrett\\Charlie\\charlie\\stimuli\\visual\\switching\\arrow_blue_left.png'
g23
g26
I2270
tp198
a(g18
g19
g143
I55
g21
g22
g22
g28
g35
S'C:\\Users\\Jbarrett\\Charlie\\charlie\\stimuli\\visual\\switching\\arrow_blue_left.png'
g22
g29
I1250
tp199
a(g18
g19
g143
I56
g31
g22
g22
g32
g35
S'C:\\Users\\Jbarrett\\Charlie\\charlie\\stimuli\\visual\\switching\\arrow_red_left.png'
g22
g29
I2230
tp200
a(g18
g19
g143
I57
g21
g22
g22
g32
g35
S'C:\\Users\\Jbarrett\\Charlie\\charlie\\stimuli\\visual\\switching\\arrow_blue_left.png'
g22
g29
I830
tp201
a(g18
g19
g143
I58
g21
g22
g23
g28
g25
S'C:\\Users\\Jbarrett\\Charlie\\charlie\\stimuli\\visual\\switching\\arrow_blue_right.png'
g22
g26
I790
tp202
a(g18
g19
g143
I59
g31
g22
g22
g32
g35
S'C:\\Users\\Jbarrett\\Charlie\\charlie\\stimuli\\visual\\switching\\arrow_red_left.png'
g22
g29
I1550
tp203
a(g18
g19
g143
I60
g21
g22
g23
g32
g25
S'C:\\Users\\Jbarrett\\Charlie\\charlie\\stimuli\\visual\\switching\\arrow_blue_right.png'
g22
g29
I880
tp204
a(g18
g19
g143
I61
g21
g23
g23
g28
g35
S'C:\\Users\\Jbarrett\\Charlie\\charlie\\stimuli\\visual\\switching\\arrow_blue_right.png'
g23
g26
I910
tp205
a(g18
g19
g143
I62
g31
g23
g22
g32
g25
S'C:\\Users\\Jbarrett\\Charlie\\charlie\\stimuli\\visual\\switching\\arrow_red_left.png'
g22
g29
I1330
tp206
a(g18
g19
g143
I63
g21
g23
g23
g32
g35
S'C:\\Users\\Jbarrett\\Charlie\\charlie\\stimuli\\visual\\switching\\arrow_blue_right.png'
g23
g26
I1340
tp207
a(g18
g19
g143
I64
g31
g22
g22
g32
g35
S'C:\\Users\\Jbarrett\\Charlie\\charlie\\stimuli\\visual\\switching\\arrow_red_left.png'
g22
g29
I1431
tp208
a(g18
g19
g143
I65
g31
g23
g22
g28
g25
S'C:\\Users\\Jbarrett\\Charlie\\charlie\\stimuli\\visual\\switching\\arrow_red_left.png'
g22
g29
I770
tp209
a(g18
g19
g143
I66
g21
g22
g23
g32
g25
S'C:\\Users\\Jbarrett\\Charlie\\charlie\\stimuli\\visual\\switching\\arrow_blue_right.png'
g22
g26
I1440
tp210
a(g18
g19
g143
I67
g21
g22
g23
g28
g25
S'C:\\Users\\Jbarrett\\Charlie\\charlie\\stimuli\\visual\\switching\\arrow_blue_right.png'
g22
g29
I990
tp211
a(g18
g19
g143
I68
g31
g22
g22
g32
g35
S'C:\\Users\\Jbarrett\\Charlie\\charlie\\stimuli\\visual\\switching\\arrow_red_left.png'
g22
g29
I1430
tp212
a(g18
g19
g143
I69
g31
g23
g22
g28
g25
S'C:\\Users\\Jbarrett\\Charlie\\charlie\\stimuli\\visual\\switching\\arrow_red_left.png'
g22
g29
I710
tp213
a(g18
g19
g143
I70
g31
g23
g22
g28
g25
S'C:\\Users\\Jbarrett\\Charlie\\charlie\\stimuli\\visual\\switching\\arrow_red_left.png'
g22
g29
I580
tp214
a(g18
g19
g143
I71
g31
g23
g23
g28
g35
S'C:\\Users\\Jbarrett\\Charlie\\charlie\\stimuli\\visual\\switching\\arrow_red_right.png'
g23
g26
I740
tp215
a(g18
g19
g143
I72
g21
g22
g22
g32
g35
S'C:\\Users\\Jbarrett\\Charlie\\charlie\\stimuli\\visual\\switching\\arrow_blue_left.png'
g22
g29
I1160
tp216
a(g18
g19
g143
I73
g21
g22
g23
g28
g25
S'C:\\Users\\Jbarrett\\Charlie\\charlie\\stimuli\\visual\\switching\\arrow_blue_right.png'
g22
g29
I1260
tp217
a(g18
g19
g143
I74
g31
g22
g23
g32
g25
S'C:\\Users\\Jbarrett\\Charlie\\charlie\\stimuli\\visual\\switching\\arrow_red_right.png'
g23
g26
I1530
tp218
a(g18
g19
g143
I75
g21
g22
g22
g32
g35
S'C:\\Users\\Jbarrett\\Charlie\\charlie\\stimuli\\visual\\switching\\arrow_blue_left.png'
g22
g29
I760
tp219
a(g18
g19
g143
I76
g31
g22
g22
g32
g35
S'C:\\Users\\Jbarrett\\Charlie\\charlie\\stimuli\\visual\\switching\\arrow_red_left.png'
g22
g29
I2060
tp220
a(g18
g19
g143
I77
g21
g22
g23
g32
g25
S'C:\\Users\\Jbarrett\\Charlie\\charlie\\stimuli\\visual\\switching\\arrow_blue_right.png'
g22
g29
I1681
tp221
a(g18
g19
g143
I78
g21
g22
g23
g28
g25
S'C:\\Users\\Jbarrett\\Charlie\\charlie\\stimuli\\visual\\switching\\arrow_blue_right.png'
g22
g29
I540
tp222
a(g18
g19
g143
I79
g31
g22
g22
g32
g35
S'C:\\Users\\Jbarrett\\Charlie\\charlie\\stimuli\\visual\\switching\\arrow_red_left.png'
g22
g29
I1750
tp223
a(g18
g19
g143
I80
g21
g23
g22
g32
g25
S'C:\\Users\\Jbarrett\\Charlie\\charlie\\stimuli\\visual\\switching\\arrow_blue_left.png'
g23
g26
I1230
tp224
a(g18
g19
g143
I81
g31
g23
g22
g32
g25
S'C:\\Users\\Jbarrett\\Charlie\\charlie\\stimuli\\visual\\switching\\arrow_red_left.png'
g22
g29
I1880
tp225
a(g18
g19
g143
I82
g31
g23
g22
g28
g25
S'C:\\Users\\Jbarrett\\Charlie\\charlie\\stimuli\\visual\\switching\\arrow_red_left.png'
g22
g29
I650
tp226
a(g18
g19
g143
I83
g21
g23
g23
g32
g35
S'C:\\Users\\Jbarrett\\Charlie\\charlie\\stimuli\\visual\\switching\\arrow_blue_right.png'
g23
g26
I1260
tp227
a(g18
g19
g143
I84
g31
g23
g22
g32
g25
S'C:\\Users\\Jbarrett\\Charlie\\charlie\\stimuli\\visual\\switching\\arrow_red_left.png'
g22
g29
I860
tp228
a(g18
g19
g143
I85
g31
g22
g23
g28
g25
S'C:\\Users\\Jbarrett\\Charlie\\charlie\\stimuli\\visual\\switching\\arrow_red_right.png'
g23
g26
I1330
tp229
a(g18
g19
g143
I86
g21
g22
g23
g32
g25
S'C:\\Users\\Jbarrett\\Charlie\\charlie\\stimuli\\visual\\switching\\arrow_blue_right.png'
g22
g29
I1330
tp230
a(g18
g19
g143
I87
g31
g23
g23
g32
g35
S'C:\\Users\\Jbarrett\\Charlie\\charlie\\stimuli\\visual\\switching\\arrow_red_right.png'
g23
g26
I960
tp231
a(g18
g19
g143
I88
g31
g23
g23
g28
g35
S'C:\\Users\\Jbarrett\\Charlie\\charlie\\stimuli\\visual\\switching\\arrow_red_right.png'
g23
g26
I540
tp232
a(g18
g19
g143
I89
g21
g23
g22
g32
g25
S'C:\\Users\\Jbarrett\\Charlie\\charlie\\stimuli\\visual\\switching\\arrow_blue_left.png'
g23
g26
I1540
tp233
a(g18
g19
g143
I90
g21
g22
g23
g28
g25
S'C:\\Users\\Jbarrett\\Charlie\\charlie\\stimuli\\visual\\switching\\arrow_blue_right.png'
g22
g29
I791
tp234
a(g18
g19
g143
I91
g21
g23
g22
g28
g25
S'C:\\Users\\Jbarrett\\Charlie\\charlie\\stimuli\\visual\\switching\\arrow_blue_left.png'
g23
g26
I1360
tp235
a(g18
g19
g143
I92
g31
g22
g22
g32
g35
S'C:\\Users\\Jbarrett\\Charlie\\charlie\\stimuli\\visual\\switching\\arrow_red_left.png'
g22
g29
I1170
tp236
a(g18
g19
g143
I93
g21
g23
g23
g32
g35
S'C:\\Users\\Jbarrett\\Charlie\\charlie\\stimuli\\visual\\switching\\arrow_blue_right.png'
g23
g26
I1590
tp237
a(g18
g19
g143
I94
g31
g23
g23
g32
g35
S'C:\\Users\\Jbarrett\\Charlie\\charlie\\stimuli\\visual\\switching\\arrow_red_right.png'
g23
g26
I1380
tp238
a(g18
g19
g143
I95
g31
g22
g22
g28
g35
S'C:\\Users\\Jbarrett\\Charlie\\charlie\\stimuli\\visual\\switching\\arrow_red_left.png'
g22
g29
I1620
tp239
a(g18
g19
g143
I96
g21
g23
g23
g32
g35
S'C:\\Users\\Jbarrett\\Charlie\\charlie\\stimuli\\visual\\switching\\arrow_blue_right.png'
g23
g26
I1360
tp240
a(g18
g19
g143
I97
g21
g22
g22
g28
g35
S'C:\\Users\\Jbarrett\\Charlie\\charlie\\stimuli\\visual\\switching\\arrow_blue_left.png'
g22
g29
I960
tp241
a(g18
g19
g143
I98
g21
g23
g23
g28
g35
S'C:\\Users\\Jbarrett\\Charlie\\charlie\\stimuli\\visual\\switching\\arrow_blue_right.png'
g23
g26
I1950
tp242
a(g18
g19
g143
I99
g21
g22
g22
g28
g35
S'C:\\Users\\Jbarrett\\Charlie\\charlie\\stimuli\\visual\\switching\\arrow_blue_left.png'
g22
g29
I630
tp243
a(g18
g19
g143
I100
g21
g23
g23
g28
g35
S'C:\\Users\\Jbarrett\\Charlie\\charlie\\stimuli\\visual\\switching\\arrow_blue_right.png'
p244
g23
g26
I660
tp245
asS'output_format'
p246
(lp247
(S'proband_id'
p248
c__builtin__
str
p249
tp250
a(S'test_name'
p251
g249
tp252
a(S'phase'
p253
g249
tp254
a(S'trialn'
p255
c__builtin__
int
p256
tp257
a(S'task'
p258
g249
tp259
a(S'pos'
p260
g249
tp261
a(S'dir'
p262
g249
tp263
a(S'switch'
p264
g249
tp265
a(S'cong'
p266
g249
tp267
a(S'f'
g249
tp268
a(S'ans'
p269
g249
tp270
a(S'rsp'
p271
g249
tp272
a(S'rt'
p273
g256
tp274
asg248
g18
sS'filename'
p275
S'4412_switching.data'
p276
sS'initialised'
p277
g8
(S'\x07\xdf\x06\x1d\x0b-\x01\x01cx'
tRp278
sS'last_udated'
p279
g8
(S'\x07\xdf\x06\x1d\x0b-\x01\x01cx'
tRp280
sg251
S'switching'
p281
sS'directory'
p282
S'C:\\Users\\Jbarrett\\Charlie\\charlie\\data\\raw'
p283
sS'user_id'
p284
S'sbuccheri'
p285
sS'test_started'
p286
I01
sS'abs_filename'
p287
S'C:\\Users\\Jbarrett\\Charlie\\charlie\\data\\raw\\4412_switching.data'
p288
sS'date_started'
p289
g8
(S'\x07\xdf\x06\x1d\x0b-!\x06\xce0'
tRp290
sS'log'
p291
(lp292
(S'2015-06-29 11:45:01.091000'
S'instance created'
p293
tp294
a(S'2015-06-29 11:45:33.459000'
S'instance updated'
p295
tp296
a(S'2015-06-29 11:45:33.470000'
S'pandas DataFrame of data created'
p297
tp298
a(S'2015-06-29 11:45:33.475000'
S'data saved as csv to C:\\Users\\Jbarrett\\Charlie\\charlie\\data\\csv\\4412_switching.csv'
tp299
a(S'2015-06-29 11:45:38.430000'
g295
tp300
a(S'2015-06-29 11:45:38.440000'
g297
tp301
a(S'2015-06-29 11:45:38.442000'
S'data saved as csv to C:\\Users\\Jbarrett\\Charlie\\charlie\\data\\csv\\4412_switching.csv'
tp302
a(S'2015-06-29 11:45:42.087000'
g295
tp303
a(S'2015-06-29 11:45:42.097000'
g297
tp304
a(S'2015-06-29 11:45:42.099000'
S'data saved as csv to C:\\Users\\Jbarrett\\Charlie\\charlie\\data\\csv\\4412_switching.csv'
tp305
a(S'2015-06-29 11:45:49.963000'
g295
tp306
a(S'2015-06-29 11:45:49.975000'
g297
tp307
a(S'2015-06-29 11:45:49.979000'
S'data saved as csv to C:\\Users\\Jbarrett\\Charlie\\charlie\\data\\csv\\4412_switching.csv'
tp308
a(S'2015-06-29 11:45:52.083000'
g295
tp309
a(S'2015-06-29 11:45:52.096000'
g297
tp310
a(S'2015-06-29 11:45:52.099000'
S'data saved as csv to C:\\Users\\Jbarrett\\Charlie\\charlie\\data\\csv\\4412_switching.csv'
tp311
a(S'2015-06-29 11:45:54.084000'
g295
tp312
a(S'2015-06-29 11:45:54.096000'
g297
tp313
a(S'2015-06-29 11:45:54.098000'
S'data saved as csv to C:\\Users\\Jbarrett\\Charlie\\charlie\\data\\csv\\4412_switching.csv'
tp314
a(S'2015-06-29 11:45:56.100000'
g295
tp315
a(S'2015-06-29 11:45:56.113000'
g297
tp316
a(S'2015-06-29 11:45:56.116000'
S'data saved as csv to C:\\Users\\Jbarrett\\Charlie\\charlie\\data\\csv\\4412_switching.csv'
tp317
a(S'2015-06-29 11:45:59.291000'
g295
tp318
a(S'2015-06-29 11:45:59.303000'
g297
tp319
a(S'2015-06-29 11:45:59.307000'
S'data saved as csv to C:\\Users\\Jbarrett\\Charlie\\charlie\\data\\csv\\4412_switching.csv'
tp320
a(S'2015-06-29 11:46:04.091000'
g295
tp321
a(S'2015-06-29 11:46:04.104000'
g297
tp322
a(S'2015-06-29 11:46:04.108000'
S'data saved as csv to C:\\Users\\Jbarrett\\Charlie\\charlie\\data\\csv\\4412_switching.csv'
tp323
a(S'2015-06-29 11:46:20.321000'
g295
tp324
a(S'2015-06-29 11:46:20.334000'
g297
tp325
a(S'2015-06-29 11:46:20.338000'
S'data saved as csv to C:\\Users\\Jbarrett\\Charlie\\charlie\\data\\csv\\4412_switching.csv'
tp326
a(S'2015-06-29 11:46:22.174000'
g295
tp327
a(S'2015-06-29 11:46:22.187000'
g297
tp328
a(S'2015-06-29 11:46:22.191000'
S'data saved as csv to C:\\Users\\Jbarrett\\Charlie\\charlie\\data\\csv\\4412_switching.csv'
tp329
a(S'2015-06-29 11:46:25.878000'
g295
tp330
a(S'2015-06-29 11:46:25.890000'
g297
tp331
a(S'2015-06-29 11:46:25.893000'
S'data saved as csv to C:\\Users\\Jbarrett\\Charlie\\charlie\\data\\csv\\4412_switching.csv'
tp332
a(S'2015-06-29 11:46:27.199000'
g295
tp333
a(S'2015-06-29 11:46:27.211000'
g297
tp334
a(S'2015-06-29 11:46:27.214000'
S'data saved as csv to C:\\Users\\Jbarrett\\Charlie\\charlie\\data\\csv\\4412_switching.csv'
tp335
a(S'2015-06-29 11:46:29.340000'
g295
tp336
a(S'2015-06-29 11:46:29.353000'
g297
tp337
a(S'2015-06-29 11:46:29.356000'
S'data saved as csv to C:\\Users\\Jbarrett\\Charlie\\charlie\\data\\csv\\4412_switching.csv'
tp338
a(S'2015-06-29 11:46:30.853000'
g295
tp339
a(S'2015-06-29 11:46:30.866000'
g297
tp340
a(S'2015-06-29 11:46:30.870000'
S'data saved as csv to C:\\Users\\Jbarrett\\Charlie\\charlie\\data\\csv\\4412_switching.csv'
tp341
a(S'2015-06-29 11:46:32.315000'
g295
tp342
a(S'2015-06-29 11:46:32.323000'
g297
tp343
a(S'2015-06-29 11:46:32.325000'
S'data saved as csv to C:\\Users\\Jbarrett\\Charlie\\charlie\\data\\csv\\4412_switching.csv'
tp344
a(S'2015-06-29 11:46:33.701000'
g295
tp345
a(S'2015-06-29 11:46:33.714000'
g297
tp346
a(S'2015-06-29 11:46:33.718000'
S'data saved as csv to C:\\Users\\Jbarrett\\Charlie\\charlie\\data\\csv\\4412_switching.csv'
tp347
a(S'2015-06-29 11:46:36.055000'
g295
tp348
a(S'2015-06-29 11:46:36.066000'
g297
tp349
a(S'2015-06-29 11:46:36.068000'
S'data saved as csv to C:\\Users\\Jbarrett\\Charlie\\charlie\\data\\csv\\4412_switching.csv'
tp350
a(S'2015-06-29 11:46:37.114000'
g295
tp351
a(S'2015-06-29 11:46:37.127000'
g297
tp352
a(S'2015-06-29 11:46:37.131000'
S'data saved as csv to C:\\Users\\Jbarrett\\Charlie\\charlie\\data\\csv\\4412_switching.csv'
tp353
a(S'2015-06-29 11:46:41.159000'
g295
tp354
a(S'2015-06-29 11:46:41.172000'
g297
tp355
a(S'2015-06-29 11:46:41.176000'
S'data saved as csv to C:\\Users\\Jbarrett\\Charlie\\charlie\\data\\csv\\4412_switching.csv'
tp356
a(S'2015-06-29 11:46:43.082000'
g295
tp357
a(S'2015-06-29 11:46:43.095000'
g297
tp358
a(S'2015-06-29 11:46:43.099000'
S'data saved as csv to C:\\Users\\Jbarrett\\Charlie\\charlie\\data\\csv\\4412_switching.csv'
tp359
a(S'2015-06-29 11:46:47.136000'
g295
tp360
a(S'2015-06-29 11:46:47.149000'
g297
tp361
a(S'2015-06-29 11:46:47.153000'
S'data saved as csv to C:\\Users\\Jbarrett\\Charlie\\charlie\\data\\csv\\4412_switching.csv'
tp362
a(S'2015-06-29 11:46:48.249000'
g295
tp363
a(S'2015-06-29 11:46:48.262000'
g297
tp364
a(S'2015-06-29 11:46:48.266000'
S'data saved as csv to C:\\Users\\Jbarrett\\Charlie\\charlie\\data\\csv\\4412_switching.csv'
tp365
a(S'2015-06-29 11:46:50.345000'
g295
tp366
a(S'2015-06-29 11:46:50.359000'
g297
tp367
a(S'2015-06-29 11:46:50.364000'
S'data saved as csv to C:\\Users\\Jbarrett\\Charlie\\charlie\\data\\csv\\4412_switching.csv'
tp368
a(S'2015-06-29 11:46:51.360000'
g295
tp369
a(S'2015-06-29 11:46:51.373000'
g297
tp370
a(S'2015-06-29 11:46:51.377000'
S'data saved as csv to C:\\Users\\Jbarrett\\Charlie\\charlie\\data\\csv\\4412_switching.csv'
tp371
a(S'2015-06-29 11:46:53.785000'
g295
tp372
a(S'2015-06-29 11:46:53.795000'
g297
tp373
a(S'2015-06-29 11:46:53.797000'
S'data saved as csv to C:\\Users\\Jbarrett\\Charlie\\charlie\\data\\csv\\4412_switching.csv'
tp374
a(S'2015-06-29 11:46:55.613000'
g295
tp375
a(S'2015-06-29 11:46:55.623000'
g297
tp376
a(S'2015-06-29 11:46:55.626000'
S'data saved as csv to C:\\Users\\Jbarrett\\Charlie\\charlie\\data\\csv\\4412_switching.csv'
tp377
a(S'2015-06-29 11:46:58.231000'
g295
tp378
a(S'2015-06-29 11:46:58.244000'
g297
tp379
a(S'2015-06-29 11:46:58.248000'
S'data saved as csv to C:\\Users\\Jbarrett\\Charlie\\charlie\\data\\csv\\4412_switching.csv'
tp380
a(S'2015-06-29 11:46:59.365000'
g295
tp381
a(S'2015-06-29 11:46:59.378000'
g297
tp382
a(S'2015-06-29 11:46:59.382000'
S'data saved as csv to C:\\Users\\Jbarrett\\Charlie\\charlie\\data\\csv\\4412_switching.csv'
tp383
a(S'2015-06-29 11:47:01.600000'
g295
tp384
a(S'2015-06-29 11:47:01.613000'
g297
tp385
a(S'2015-06-29 11:47:01.617000'
S'data saved as csv to C:\\Users\\Jbarrett\\Charlie\\charlie\\data\\csv\\4412_switching.csv'
tp386
a(S'2015-06-29 11:47:02.504000'
g295
tp387
a(S'2015-06-29 11:47:02.517000'
g297
tp388
a(S'2015-06-29 11:47:02.521000'
S'data saved as csv to C:\\Users\\Jbarrett\\Charlie\\charlie\\data\\csv\\4412_switching.csv'
tp389
a(S'2015-06-29 11:47:04.887000'
g295
tp390
a(S'2015-06-29 11:47:04.900000'
g297
tp391
a(S'2015-06-29 11:47:04.905000'
S'data saved as csv to C:\\Users\\Jbarrett\\Charlie\\charlie\\data\\csv\\4412_switching.csv'
tp392
a(S'2015-06-29 11:47:05.942000'
g295
tp393
a(S'2015-06-29 11:47:05.955000'
g297
tp394
a(S'2015-06-29 11:47:05.959000'
S'data saved as csv to C:\\Users\\Jbarrett\\Charlie\\charlie\\data\\csv\\4412_switching.csv'
tp395
a(S'2015-06-29 11:47:08.127000'
g295
tp396
a(S'2015-06-29 11:47:08.140000'
g297
tp397
a(S'2015-06-29 11:47:08.144000'
S'data saved as csv to C:\\Users\\Jbarrett\\Charlie\\charlie\\data\\csv\\4412_switching.csv'
tp398
a(S'2015-06-29 11:47:10.022000'
g295
tp399
a(S'2015-06-29 11:47:10.035000'
g297
tp400
a(S'2015-06-29 11:47:10.039000'
S'data saved as csv to C:\\Users\\Jbarrett\\Charlie\\charlie\\data\\csv\\4412_switching.csv'
tp401
a(S'2015-06-29 11:47:12.727000'
g295
tp402
a(S'2015-06-29 11:47:12.741000'
g297
tp403
a(S'2015-06-29 11:47:12.745000'
S'data saved as csv to C:\\Users\\Jbarrett\\Charlie\\charlie\\data\\csv\\4412_switching.csv'
tp404
a(S'2015-06-29 11:47:13.552000'
g295
tp405
a(S'2015-06-29 11:47:13.562000'
g297
tp406
a(S'2015-06-29 11:47:13.565000'
S'data saved as csv to C:\\Users\\Jbarrett\\Charlie\\charlie\\data\\csv\\4412_switching.csv'
tp407
a(S'2015-06-29 11:47:15.121000'
g295
tp408
a(S'2015-06-29 11:47:15.134000'
g297
tp409
a(S'2015-06-29 11:47:15.138000'
S'data saved as csv to C:\\Users\\Jbarrett\\Charlie\\charlie\\data\\csv\\4412_switching.csv'
tp410
a(S'2015-06-29 11:47:16.766000'
g295
tp411
a(S'2015-06-29 11:47:16.780000'
g297
tp412
a(S'2015-06-29 11:47:16.784000'
S'data saved as csv to C:\\Users\\Jbarrett\\Charlie\\charlie\\data\\csv\\4412_switching.csv'
tp413
a(S'2015-06-29 11:47:19.002000'
g295
tp414
a(S'2015-06-29 11:47:19.015000'
g297
tp415
a(S'2015-06-29 11:47:19.020000'
S'data saved as csv to C:\\Users\\Jbarrett\\Charlie\\charlie\\data\\csv\\4412_switching.csv'
tp416
a(S'2015-06-29 11:47:19.735000'
g295
tp417
a(S'2015-06-29 11:47:19.748000'
g297
tp418
a(S'2015-06-29 11:47:19.753000'
S'data saved as csv to C:\\Users\\Jbarrett\\Charlie\\charlie\\data\\csv\\4412_switching.csv'
tp419
a(S'2015-06-29 11:47:22.801000'
g295
tp420
a(S'2015-06-29 11:47:22.814000'
g297
tp421
a(S'2015-06-29 11:47:22.819000'
S'data saved as csv to C:\\Users\\Jbarrett\\Charlie\\charlie\\data\\csv\\4412_switching.csv'
tp422
a(S'2015-06-29 11:47:23.567000'
g295
tp423
a(S'2015-06-29 11:47:23.580000'
g297
tp424
a(S'2015-06-29 11:47:23.583000'
S'data saved as csv to C:\\Users\\Jbarrett\\Charlie\\charlie\\data\\csv\\4412_switching.csv'
tp425
a(S'2015-06-29 11:47:25.478000'
g295
tp426
a(S'2015-06-29 11:47:25.491000'
g297
tp427
a(S'2015-06-29 11:47:25.495000'
S'data saved as csv to C:\\Users\\Jbarrett\\Charlie\\charlie\\data\\csv\\4412_switching.csv'
tp428
a(S'2015-06-29 11:47:26.573000'
g295
tp429
a(S'2015-06-29 11:47:26.584000'
g297
tp430
a(S'2015-06-29 11:47:26.586000'
S'data saved as csv to C:\\Users\\Jbarrett\\Charlie\\charlie\\data\\csv\\4412_switching.csv'
tp431
a(S'2015-06-29 11:47:28.412000'
g295
tp432
a(S'2015-06-29 11:47:28.426000'
g297
tp433
a(S'2015-06-29 11:47:28.430000'
S'data saved as csv to C:\\Users\\Jbarrett\\Charlie\\charlie\\data\\csv\\4412_switching.csv'
tp434
a(S'2015-06-29 11:47:29.757000'
g295
tp435
a(S'2015-06-29 11:47:29.771000'
g297
tp436
a(S'2015-06-29 11:47:29.775000'
S'data saved as csv to C:\\Users\\Jbarrett\\Charlie\\charlie\\data\\csv\\4412_switching.csv'
tp437
a(S'2015-06-29 11:47:31.573000'
g295
tp438
a(S'2015-06-29 11:47:31.586000'
g297
tp439
a(S'2015-06-29 11:47:31.590000'
S'data saved as csv to C:\\Users\\Jbarrett\\Charlie\\charlie\\data\\csv\\4412_switching.csv'
tp440
a(S'2015-06-29 11:47:32.585000'
g295
tp441
a(S'2015-06-29 11:47:32.599000'
g297
tp442
a(S'2015-06-29 11:47:32.604000'
S'data saved as csv to C:\\Users\\Jbarrett\\Charlie\\charlie\\data\\csv\\4412_switching.csv'
tp443
a(S'2015-06-29 11:47:34.672000'
g295
tp444
a(S'2015-06-29 11:47:34.682000'
g297
tp445
a(S'2015-06-29 11:47:34.685000'
S'data saved as csv to C:\\Users\\Jbarrett\\Charlie\\charlie\\data\\csv\\4412_switching.csv'
tp446
a(S'2015-06-29 11:47:35.852000'
g295
tp447
a(S'2015-06-29 11:47:35.865000'
g297
tp448
a(S'2015-06-29 11:47:35.870000'
S'data saved as csv to C:\\Users\\Jbarrett\\Charlie\\charlie\\data\\csv\\4412_switching.csv'
tp449
a(S'2015-06-29 11:47:38.628000'
g295
tp450
a(S'2015-06-29 11:47:38.641000'
g297
tp451
a(S'2015-06-29 11:47:38.646000'
S'data saved as csv to C:\\Users\\Jbarrett\\Charlie\\charlie\\data\\csv\\4412_switching.csv'
tp452
a(S'2015-06-29 11:47:39.594000'
g295
tp453
a(S'2015-06-29 11:47:39.608000'
g297
tp454
a(S'2015-06-29 11:47:39.612000'
S'data saved as csv to C:\\Users\\Jbarrett\\Charlie\\charlie\\data\\csv\\4412_switching.csv'
tp455
a(S'2015-06-29 11:47:41.211000'
g295
tp456
a(S'2015-06-29 11:47:41.222000'
g297
tp457
a(S'2015-06-29 11:47:41.225000'
S'data saved as csv to C:\\Users\\Jbarrett\\Charlie\\charlie\\data\\csv\\4412_switching.csv'
tp458
a(S'2015-06-29 11:47:42.021000'
g295
tp459
a(S'2015-06-29 11:47:42.035000'
g297
tp460
a(S'2015-06-29 11:47:42.040000'
S'data saved as csv to C:\\Users\\Jbarrett\\Charlie\\charlie\\data\\csv\\4412_switching.csv'
tp461
a(S'2015-06-29 11:47:43.507000'
g295
tp462
a(S'2015-06-29 11:47:43.520000'
g297
tp463
a(S'2015-06-29 11:47:43.525000'
S'data saved as csv to C:\\Users\\Jbarrett\\Charlie\\charlie\\data\\csv\\4412_switching.csv'
tp464
a(S'2015-06-29 11:47:45.292000'
g295
tp465
a(S'2015-06-29 11:47:45.303000'
g297
tp466
a(S'2015-06-29 11:47:45.305000'
S'data saved as csv to C:\\Users\\Jbarrett\\Charlie\\charlie\\data\\csv\\4412_switching.csv'
tp467
a(S'2015-06-29 11:47:47.003000'
g295
tp468
a(S'2015-06-29 11:47:47.012000'
g297
tp469
a(S'2015-06-29 11:47:47.015000'
S'data saved as csv to C:\\Users\\Jbarrett\\Charlie\\charlie\\data\\csv\\4412_switching.csv'
tp470
a(S'2015-06-29 11:47:48.300000'
g295
tp471
a(S'2015-06-29 11:47:48.314000'
g297
tp472
a(S'2015-06-29 11:47:48.319000'
S'data saved as csv to C:\\Users\\Jbarrett\\Charlie\\charlie\\data\\csv\\4412_switching.csv'
tp473
a(S'2015-06-29 11:47:50.477000'
g295
tp474
a(S'2015-06-29 11:47:50.491000'
g297
tp475
a(S'2015-06-29 11:47:50.496000'
S'data saved as csv to C:\\Users\\Jbarrett\\Charlie\\charlie\\data\\csv\\4412_switching.csv'
tp476
a(S'2015-06-29 11:47:51.454000'
g295
tp477
a(S'2015-06-29 11:47:51.467000'
g297
tp478
a(S'2015-06-29 11:47:51.472000'
S'data saved as csv to C:\\Users\\Jbarrett\\Charlie\\charlie\\data\\csv\\4412_switching.csv'
tp479
a(S'2015-06-29 11:47:53.030000'
g295
tp480
a(S'2015-06-29 11:47:53.041000'
g297
tp481
a(S'2015-06-29 11:47:53.044000'
S'data saved as csv to C:\\Users\\Jbarrett\\Charlie\\charlie\\data\\csv\\4412_switching.csv'
tp482
a(S'2015-06-29 11:47:54.041000'
g295
tp483
a(S'2015-06-29 11:47:54.055000'
g297
tp484
a(S'2015-06-29 11:47:54.058000'
S'data saved as csv to C:\\Users\\Jbarrett\\Charlie\\charlie\\data\\csv\\4412_switching.csv'
tp485
a(S'2015-06-29 11:47:56.286000'
g295
tp486
a(S'2015-06-29 11:47:56.299000'
g297
tp487
a(S'2015-06-29 11:47:56.304000'
S'data saved as csv to C:\\Users\\Jbarrett\\Charlie\\charlie\\data\\csv\\4412_switching.csv'
tp488
a(S'2015-06-29 11:47:57.462000'
g295
tp489
a(S'2015-06-29 11:47:57.476000'
g297
tp490
a(S'2015-06-29 11:47:57.479000'
S'data saved as csv to C:\\Users\\Jbarrett\\Charlie\\charlie\\data\\csv\\4412_switching.csv'
tp491
a(S'2015-06-29 11:47:58.865000'
g295
tp492
a(S'2015-06-29 11:47:58.879000'
g297
tp493
a(S'2015-06-29 11:47:58.884000'
S'data saved as csv to C:\\Users\\Jbarrett\\Charlie\\charlie\\data\\csv\\4412_switching.csv'
tp494
a(S'2015-06-29 11:47:59.802000'
g295
tp495
a(S'2015-06-29 11:47:59.816000'
g297
tp496
a(S'2015-06-29 11:47:59.819000'
S'data saved as csv to C:\\Users\\Jbarrett\\Charlie\\charlie\\data\\csv\\4412_switching.csv'
tp497
a(S'2015-06-29 11:48:01.395000'
g295
tp498
a(S'2015-06-29 11:48:01.408000'
g297
tp499
a(S'2015-06-29 11:48:01.411000'
S'data saved as csv to C:\\Users\\Jbarrett\\Charlie\\charlie\\data\\csv\\4412_switching.csv'
tp500
a(S'2015-06-29 11:48:02.508000'
g295
tp501
a(S'2015-06-29 11:48:02.520000'
g297
tp502
a(S'2015-06-29 11:48:02.523000'
S'data saved as csv to C:\\Users\\Jbarrett\\Charlie\\charlie\\data\\csv\\4412_switching.csv'
tp503
a(S'2015-06-29 11:48:03.770000'
g295
tp504
a(S'2015-06-29 11:48:03.783000'
g297
tp505
a(S'2015-06-29 11:48:03.788000'
S'data saved as csv to C:\\Users\\Jbarrett\\Charlie\\charlie\\data\\csv\\4412_switching.csv'
tp506
a(S'2015-06-29 11:48:04.596000'
g295
tp507
a(S'2015-06-29 11:48:04.610000'
g297
tp508
a(S'2015-06-29 11:48:04.615000'
S'data saved as csv to C:\\Users\\Jbarrett\\Charlie\\charlie\\data\\csv\\4412_switching.csv'
tp509
a(S'2015-06-29 11:48:06.502000'
g295
tp510
a(S'2015-06-29 11:48:06.515000'
g297
tp511
a(S'2015-06-29 11:48:06.520000'
S'data saved as csv to C:\\Users\\Jbarrett\\Charlie\\charlie\\data\\csv\\4412_switching.csv'
tp512
a(S'2015-06-29 11:48:07.178000'
g295
tp513
a(S'2015-06-29 11:48:07.192000'
g297
tp514
a(S'2015-06-29 11:48:07.197000'
S'data saved as csv to C:\\Users\\Jbarrett\\Charlie\\charlie\\data\\csv\\4412_switching.csv'
tp515
a(S'2015-06-29 11:48:08.613000'
g295
tp516
a(S'2015-06-29 11:48:08.627000'
g297
tp517
a(S'2015-06-29 11:48:08.632000'
S'data saved as csv to C:\\Users\\Jbarrett\\Charlie\\charlie\\data\\csv\\4412_switching.csv'
tp518
a(S'2015-06-29 11:48:09.730000'
g295
tp519
a(S'2015-06-29 11:48:09.743000'
g297
tp520
a(S'2015-06-29 11:48:09.747000'
S'data saved as csv to C:\\Users\\Jbarrett\\Charlie\\charlie\\data\\csv\\4412_switching.csv'
tp521
a(S'2015-06-29 11:48:11.044000'
g295
tp522
a(S'2015-06-29 11:48:11.058000'
g297
tp523
a(S'2015-06-29 11:48:11.063000'
S'data saved as csv to C:\\Users\\Jbarrett\\Charlie\\charlie\\data\\csv\\4412_switching.csv'
tp524
a(S'2015-06-29 11:48:12.051000'
g295
tp525
a(S'2015-06-29 11:48:12.066000'
g297
tp526
a(S'2015-06-29 11:48:12.071000'
S'data saved as csv to C:\\Users\\Jbarrett\\Charlie\\charlie\\data\\csv\\4412_switching.csv'
tp527
a(S'2015-06-29 11:48:13.288000'
g295
tp528
a(S'2015-06-29 11:48:13.302000'
g297
tp529
a(S'2015-06-29 11:48:13.308000'
S'data saved as csv to C:\\Users\\Jbarrett\\Charlie\\charlie\\data\\csv\\4412_switching.csv'
tp530
a(S'2015-06-29 11:48:14.576000'
g295
tp531
a(S'2015-06-29 11:48:14.590000'
g297
tp532
a(S'2015-06-29 11:48:14.596000'
S'data saved as csv to C:\\Users\\Jbarrett\\Charlie\\charlie\\data\\csv\\4412_switching.csv'
tp533
a(S'2015-06-29 11:48:16.314000'
g295
tp534
a(S'2015-06-29 11:48:16.328000'
g297
tp535
a(S'2015-06-29 11:48:16.333000'
S'data saved as csv to C:\\Users\\Jbarrett\\Charlie\\charlie\\data\\csv\\4412_switching.csv'
tp536
a(S'2015-06-29 11:48:17.032000'
g295
tp537
a(S'2015-06-29 11:48:17.047000'
g297
tp538
a(S'2015-06-29 11:48:17.052000'
S'data saved as csv to C:\\Users\\Jbarrett\\Charlie\\charlie\\data\\csv\\4412_switching.csv'
tp539
a(S'2015-06-29 11:48:18.380000'
g295
tp540
a(S'2015-06-29 11:48:18.391000'
g297
tp541
a(S'2015-06-29 11:48:18.393000'
S'data saved as csv to C:\\Users\\Jbarrett\\Charlie\\charlie\\data\\csv\\4412_switching.csv'
tp542
a(S'2015-06-29 11:48:19.700000'
g295
tp543
a(S'2015-06-29 11:48:19.711000'
g297
tp544
a(S'2015-06-29 11:48:19.714000'
S'data saved as csv to C:\\Users\\Jbarrett\\Charlie\\charlie\\data\\csv\\4412_switching.csv'
tp545
a(S'2015-06-29 11:48:20.870000'
g295
tp546
a(S'2015-06-29 11:48:20.881000'
g297
tp547
a(S'2015-06-29 11:48:20.884000'
S'data saved as csv to C:\\Users\\Jbarrett\\Charlie\\charlie\\data\\csv\\4412_switching.csv'
tp548
a(S'2015-06-29 11:48:21.731000'
g295
tp549
a(S'2015-06-29 11:48:21.746000'
g297
tp550
a(S'2015-06-29 11:48:21.749000'
S'data saved as csv to C:\\Users\\Jbarrett\\Charlie\\charlie\\data\\csv\\4412_switching.csv'
tp551
a(S'2015-06-29 11:48:23.135000'
g295
tp552
a(S'2015-06-29 11:48:23.149000'
g297
tp553
a(S'2015-06-29 11:48:23.155000'
S'data saved as csv to C:\\Users\\Jbarrett\\Charlie\\charlie\\data\\csv\\4412_switching.csv'
tp554
a(S'2015-06-29 11:48:24.252000'
g295
tp555
a(S'2015-06-29 11:48:24.267000'
g297
tp556
a(S'2015-06-29 11:48:24.272000'
S'data saved as csv to C:\\Users\\Jbarrett\\Charlie\\charlie\\data\\csv\\4412_switching.csv'
tp557
a(S'2015-06-29 11:48:25.740000'
g295
tp558
a(S'2015-06-29 11:48:25.754000'
g297
tp559
a(S'2015-06-29 11:48:25.759000'
S'data saved as csv to C:\\Users\\Jbarrett\\Charlie\\charlie\\data\\csv\\4412_switching.csv'
tp560
a(S'2015-06-29 11:48:26.888000'
g295
tp561
a(S'2015-06-29 11:48:26.903000'
g297
tp562
a(S'2015-06-29 11:48:26.907000'
S'data saved as csv to C:\\Users\\Jbarrett\\Charlie\\charlie\\data\\csv\\4412_switching.csv'
tp563
a(S'2015-06-29 11:48:28.954000'
g295
tp564
a(S'2015-06-29 11:48:28.969000'
g297
tp565
a(S'2015-06-29 11:48:28.974000'
S'data saved as csv to C:\\Users\\Jbarrett\\Charlie\\charlie\\data\\csv\\4412_switching.csv'
tp566
a(S'2015-06-29 11:48:29.901000'
g295
tp567
a(S'2015-06-29 11:48:29.912000'
g297
tp568
a(S'2015-06-29 11:48:29.915000'
S'data saved as csv to C:\\Users\\Jbarrett\\Charlie\\charlie\\data\\csv\\4412_switching.csv'
tp569
a(S'2015-06-29 11:48:31.522000'
g295
tp570
a(S'2015-06-29 11:48:31.536000'
g297
tp571
a(S'2015-06-29 11:48:31.541000'
S'data saved as csv to C:\\Users\\Jbarrett\\Charlie\\charlie\\data\\csv\\4412_switching.csv'
tp572
a(S'2015-06-29 11:48:32.670000'
g295
tp573
a(S'2015-06-29 11:48:32.684000'
g297
tp574
a(S'2015-06-29 11:48:32.690000'
S'data saved as csv to C:\\Users\\Jbarrett\\Charlie\\charlie\\data\\csv\\4412_switching.csv'
tp575
a(S'2015-06-29 11:48:34.308000'
g295
tp576
a(S'2015-06-29 11:48:34.322000'
g297
tp577
a(S'2015-06-29 11:48:34.328000'
S'data saved as csv to C:\\Users\\Jbarrett\\Charlie\\charlie\\data\\csv\\4412_switching.csv'
tp578
a(S'2015-06-29 11:48:35.147000'
g295
tp579
a(S'2015-06-29 11:48:35.158000'
g297
tp580
a(S'2015-06-29 11:48:35.161000'
S'data saved as csv to C:\\Users\\Jbarrett\\Charlie\\charlie\\data\\csv\\4412_switching.csv'
tp581
a(S'2015-06-29 11:48:36.858000'
g295
tp582
a(S'2015-06-29 11:48:36.870000'
g297
tp583
a(S'2015-06-29 11:48:36.873000'
S'data saved as csv to C:\\Users\\Jbarrett\\Charlie\\charlie\\data\\csv\\4412_switching.csv'
tp584
a(S'2015-06-29 11:48:37.820000'
g295
tp585
a(S'2015-06-29 11:48:37.830000'
g297
tp586
a(S'2015-06-29 11:48:37.833000'
S'data saved as csv to C:\\Users\\Jbarrett\\Charlie\\charlie\\data\\csv\\4412_switching.csv'
tp587
a(S'2015-06-29 11:48:39.779000'
g295
tp588
a(S'2015-06-29 11:48:39.792000'
g297
tp589
a(S'2015-06-29 11:48:39.797000'
S'data saved as csv to C:\\Users\\Jbarrett\\Charlie\\charlie\\data\\csv\\4412_switching.csv'
tp590
a(S'2015-06-29 11:48:40.835000'
g295
tp591
a(S'2015-06-29 11:48:40.849000'
g297
tp592
a(S'2015-06-29 11:48:40.854000'
S'data saved as csv to C:\\Users\\Jbarrett\\Charlie\\charlie\\data\\csv\\4412_switching.csv'
tp593
a(S'2015-06-29 11:48:41.751000'
g295
tp594
a(S'2015-06-29 11:48:41.766000'
g297
tp595
a(S'2015-06-29 11:48:41.772000'
S'data saved as csv to C:\\Users\\Jbarrett\\Charlie\\charlie\\data\\csv\\4412_switching.csv'
tp596
a(S'2015-06-29 11:48:43.011000'
g295
tp597
a(S'2015-06-29 11:48:43.026000'
g297
tp598
a(S'2015-06-29 11:48:43.031000'
S'data saved as csv to C:\\Users\\Jbarrett\\Charlie\\charlie\\data\\csv\\4412_switching.csv'
tp599
a(S'2015-06-29 11:48:44.060000'
g295
tp600
a(S'2015-06-29 11:48:44.074000'
g297
tp601
a(S'2015-06-29 11:48:44.080000'
S'data saved as csv to C:\\Users\\Jbarrett\\Charlie\\charlie\\data\\csv\\4412_switching.csv'
tp602
a(S'2015-06-29 11:48:45.949000'
g295
tp603
a(S'2015-06-29 11:48:45.959000'
g297
tp604
a(S'2015-06-29 11:48:45.963000'
S'data saved as csv to C:\\Users\\Jbarrett\\Charlie\\charlie\\data\\csv\\4412_switching.csv'
tp605
a(S'2015-06-29 11:48:48.130000'
g295
tp606
a(S'2015-06-29 11:48:48.145000'
g297
tp607
a(S'2015-06-29 11:48:48.148000'
S'data saved as csv to C:\\Users\\Jbarrett\\Charlie\\charlie\\data\\csv\\4412_switching.csv'
tp608
a(S'2015-06-29 11:48:49.186000'
g295
tp609
a(S'2015-06-29 11:48:49.201000'
g297
tp610
a(S'2015-06-29 11:48:49.207000'
S'data saved as csv to C:\\Users\\Jbarrett\\Charlie\\charlie\\data\\csv\\4412_switching.csv'
tp611
a(S'2015-06-29 11:48:50.276000'
g295
tp612
a(S'2015-06-29 11:48:50.290000'
g297
tp613
a(S'2015-06-29 11:48:50.296000'
S'data saved as csv to C:\\Users\\Jbarrett\\Charlie\\charlie\\data\\csv\\4412_switching.csv'
tp614
a(S'2015-06-29 11:48:51.355000'
g295
tp615
a(S'2015-06-29 11:48:51.370000'
g297
tp616
a(S'2015-06-29 11:48:51.376000'
S'data saved as csv to C:\\Users\\Jbarrett\\Charlie\\charlie\\data\\csv\\4412_switching.csv'
tp617
a(S'2015-06-29 11:48:52.224000'
g295
tp618
a(S'2015-06-29 11:48:52.239000'
g297
tp619
a(S'2015-06-29 11:48:52.245000'
S'data saved as csv to C:\\Users\\Jbarrett\\Charlie\\charlie\\data\\csv\\4412_switching.csv'
tp620
a(S'2015-06-29 11:48:53.185000'
g295
tp621
a(S'2015-06-29 11:48:53.199000'
g297
tp622
a(S'2015-06-29 11:48:53.205000'
S'data saved as csv to C:\\Users\\Jbarrett\\Charlie\\charlie\\data\\csv\\4412_switching.csv'
tp623
a(S'2015-06-29 11:48:54.853000'
g295
tp624
a(S'2015-06-29 11:48:54.866000'
g297
tp625
a(S'2015-06-29 11:48:54.869000'
S'data saved as csv to C:\\Users\\Jbarrett\\Charlie\\charlie\\data\\csv\\4412_switching.csv'
tp626
a(S'2015-06-29 11:49:13.432000'
g295
tp627
a(S'2015-06-29 11:49:13.447000'
g297
tp628
a(S'2015-06-29 11:49:13.452000'
S'data saved as csv to C:\\Users\\Jbarrett\\Charlie\\charlie\\data\\csv\\4412_switching.csv'
tp629
a(S'2015-06-29 11:49:14.781000'
g295
tp630
a(S'2015-06-29 11:49:14.796000'
g297
tp631
a(S'2015-06-29 11:49:14.802000'
S'data saved as csv to C:\\Users\\Jbarrett\\Charlie\\charlie\\data\\csv\\4412_switching.csv'
tp632
a(S'2015-06-29 11:49:15.681000'
g295
tp633
a(S'2015-06-29 11:49:15.696000'
g297
tp634
a(S'2015-06-29 11:49:15.702000'
S'data saved as csv to C:\\Users\\Jbarrett\\Charlie\\charlie\\data\\csv\\4412_switching.csv'
tp635
a(S'2015-06-29 11:49:17.350000'
g295
tp636
a(S'2015-06-29 11:49:17.365000'
g297
tp637
a(S'2015-06-29 11:49:17.371000'
S'data saved as csv to C:\\Users\\Jbarrett\\Charlie\\charlie\\data\\csv\\4412_switching.csv'
tp638
a(S'2015-06-29 11:49:18.900000'
g295
tp639
a(S'2015-06-29 11:49:18.915000'
g297
tp640
a(S'2015-06-29 11:49:18.920000'
S'data saved as csv to C:\\Users\\Jbarrett\\Charlie\\charlie\\data\\csv\\4412_switching.csv'
tp641
a(S'2015-06-29 11:49:19.529000'
g295
tp642
a(S'2015-06-29 11:49:19.543000'
g297
tp643
a(S'2015-06-29 11:49:19.549000'
S'data saved as csv to C:\\Users\\Jbarrett\\Charlie\\charlie\\data\\csv\\4412_switching.csv'
tp644
a(S'2015-06-29 11:49:20.888000'
g295
tp645
a(S'2015-06-29 11:49:20.903000'
g297
tp646
a(S'2015-06-29 11:49:20.905000'
S'data saved as csv to C:\\Users\\Jbarrett\\Charlie\\charlie\\data\\csv\\4412_switching.csv'
tp647
a(S'2015-06-29 11:49:22.542000'
g295
tp648
a(S'2015-06-29 11:49:22.556000'
g297
tp649
a(S'2015-06-29 11:49:22.562000'
S'data saved as csv to C:\\Users\\Jbarrett\\Charlie\\charlie\\data\\csv\\4412_switching.csv'
tp650
a(S'2015-06-29 11:49:23.530000'
g295
tp651
a(S'2015-06-29 11:49:23.544000'
g297
tp652
a(S'2015-06-29 11:49:23.548000'
S'data saved as csv to C:\\Users\\Jbarrett\\Charlie\\charlie\\data\\csv\\4412_switching.csv'
tp653
a(S'2015-06-29 11:49:24.885000'
g295
tp654
a(S'2015-06-29 11:49:24.897000'
g297
tp655
a(S'2015-06-29 11:49:24.900000'
S'data saved as csv to C:\\Users\\Jbarrett\\Charlie\\charlie\\data\\csv\\4412_switching.csv'
tp656
a(S'2015-06-29 11:49:26.278000'
g295
tp657
a(S'2015-06-29 11:49:26.293000'
g297
tp658
a(S'2015-06-29 11:49:26.298000'
S'data saved as csv to C:\\Users\\Jbarrett\\Charlie\\charlie\\data\\csv\\4412_switching.csv'
tp659
a(S'2015-06-29 11:49:27.288000'
g295
tp660
a(S'2015-06-29 11:49:27.299000'
g297
tp661
a(S'2015-06-29 11:49:27.303000'
S'data saved as csv to C:\\Users\\Jbarrett\\Charlie\\charlie\\data\\csv\\4412_switching.csv'
tp662
a(S'2015-06-29 11:49:29.121000'
g295
tp663
a(S'2015-06-29 11:49:29.136000'
g297
tp664
a(S'2015-06-29 11:49:29.142000'
S'data saved as csv to C:\\Users\\Jbarrett\\Charlie\\charlie\\data\\csv\\4412_switching.csv'
tp665
a(S'2015-06-29 11:49:30.340000'
g295
tp666
a(S'2015-06-29 11:49:30.354000'
g297
tp667
a(S'2015-06-29 11:49:30.357000'
S'data saved as csv to C:\\Users\\Jbarrett\\Charlie\\charlie\\data\\csv\\4412_switching.csv'
tp668
a(S'2015-06-29 11:49:32.464000'
g295
tp669
a(S'2015-06-29 11:49:32.480000'
g297
tp670
a(S'2015-06-29 11:49:32.484000'
S'data saved as csv to C:\\Users\\Jbarrett\\Charlie\\charlie\\data\\csv\\4412_switching.csv'
tp671
a(S'2015-06-29 11:49:33.562000'
g295
tp672
a(S'2015-06-29 11:49:33.578000'
g297
tp673
a(S'2015-06-29 11:49:33.584000'
S'data saved as csv to C:\\Users\\Jbarrett\\Charlie\\charlie\\data\\csv\\4412_switching.csv'
tp674
a(S'2015-06-29 11:49:34.413000'
g295
tp675
a(S'2015-06-29 11:49:34.429000'
g297
tp676
a(S'2015-06-29 11:49:34.433000'
S'data saved as csv to C:\\Users\\Jbarrett\\Charlie\\charlie\\data\\csv\\4412_switching.csv'
tp677
a(S'2015-06-29 11:49:35.690000'
g295
tp678
a(S'2015-06-29 11:49:35.705000'
g297
tp679
a(S'2015-06-29 11:49:35.711000'
S'data saved as csv to C:\\Users\\Jbarrett\\Charlie\\charlie\\data\\csv\\4412_switching.csv'
tp680
a(S'2015-06-29 11:49:37.019000'
g295
tp681
a(S'2015-06-29 11:49:37.035000'
g297
tp682
a(S'2015-06-29 11:49:37.041000'
S'data saved as csv to C:\\Users\\Jbarrett\\Charlie\\charlie\\data\\csv\\4412_switching.csv'
tp683
a(S'2015-06-29 11:49:38.148000'
g295
tp684
a(S'2015-06-29 11:49:38.158000'
g297
tp685
a(S'2015-06-29 11:49:38.162000'
S'data saved as csv to C:\\Users\\Jbarrett\\Charlie\\charlie\\data\\csv\\4412_switching.csv'
tp686
a(S'2015-06-29 11:49:39.130000'
g295
tp687
a(S'2015-06-29 11:49:39.143000'
g297
tp688
a(S'2015-06-29 11:49:39.146000'
S'data saved as csv to C:\\Users\\Jbarrett\\Charlie\\charlie\\data\\csv\\4412_switching.csv'
tp689
a(S'2015-06-29 11:49:40.583000'
g295
tp690
a(S'2015-06-29 11:49:40.598000'
g297
tp691
a(S'2015-06-29 11:49:40.604000'
S'data saved as csv to C:\\Users\\Jbarrett\\Charlie\\charlie\\data\\csv\\4412_switching.csv'
tp692
a(S'2015-06-29 11:49:41.944000'
g295
tp693
a(S'2015-06-29 11:49:41.959000'
g297
tp694
a(S'2015-06-29 11:49:41.964000'
S'data saved as csv to C:\\Users\\Jbarrett\\Charlie\\charlie\\data\\csv\\4412_switching.csv'
tp695
a(S'2015-06-29 11:49:44.613000'
g295
tp696
a(S'2015-06-29 11:49:44.628000'
g297
tp697
a(S'2015-06-29 11:49:44.633000'
S'data saved as csv to C:\\Users\\Jbarrett\\Charlie\\charlie\\data\\csv\\4412_switching.csv'
tp698
a(S'2015-06-29 11:49:46.419000'
g295
tp699
a(S'2015-06-29 11:49:46.433000'
g297
tp700
a(S'2015-06-29 11:49:46.436000'
S'data saved as csv to C:\\Users\\Jbarrett\\Charlie\\charlie\\data\\csv\\4412_switching.csv'
tp701
a(S'2015-06-29 11:49:48.073000'
g295
tp702
a(S'2015-06-29 11:49:48.085000'
g297
tp703
a(S'2015-06-29 11:49:48.088000'
S'data saved as csv to C:\\Users\\Jbarrett\\Charlie\\charlie\\data\\csv\\4412_switching.csv'
tp704
a(S'2015-06-29 11:49:49.056000'
g295
tp705
a(S'2015-06-29 11:49:49.072000'
g297
tp706
a(S'2015-06-29 11:49:49.074000'
S'data saved as csv to C:\\Users\\Jbarrett\\Charlie\\charlie\\data\\csv\\4412_switching.csv'
tp707
a(S'2015-06-29 11:49:49.962000'
g295
tp708
a(S'2015-06-29 11:49:49.975000'
g297
tp709
a(S'2015-06-29 11:49:49.978000'
S'data saved as csv to C:\\Users\\Jbarrett\\Charlie\\charlie\\data\\csv\\4412_switching.csv'
tp710
a(S'2015-06-29 11:49:51.405000'
g295
tp711
a(S'2015-06-29 11:49:51.416000'
g297
tp712
a(S'2015-06-29 11:49:51.420000'
S'data saved as csv to C:\\Users\\Jbarrett\\Charlie\\charlie\\data\\csv\\4412_switching.csv'
tp713
a(S'2015-06-29 11:49:53.439000'
g295
tp714
a(S'2015-06-29 11:49:53.452000'
g297
tp715
a(S'2015-06-29 11:49:53.455000'
S'data saved as csv to C:\\Users\\Jbarrett\\Charlie\\charlie\\data\\csv\\4412_switching.csv'
tp716
a(S'2015-06-29 11:49:54.194000'
g295
tp717
a(S'2015-06-29 11:49:54.205000'
g297
tp718
a(S'2015-06-29 11:49:54.209000'
S'data saved as csv to C:\\Users\\Jbarrett\\Charlie\\charlie\\data\\csv\\4412_switching.csv'
tp719
a(S'2015-06-29 11:49:54.896000'
g295
tp720
a(S'2015-06-29 11:49:54.912000'
g297
tp721
a(S'2015-06-29 11:49:54.918000'
S'data saved as csv to C:\\Users\\Jbarrett\\Charlie\\charlie\\data\\csv\\4412_switching.csv'
tp722
a(S'2015-06-29 11:49:55.887000'
g295
tp723
a(S'2015-06-29 11:49:55.903000'
g297
tp724
a(S'2015-06-29 11:49:55.909000'
S'data saved as csv to C:\\Users\\Jbarrett\\Charlie\\charlie\\data\\csv\\4412_switching.csv'
tp725
a(S'2015-06-29 11:49:56.847000'
g295
tp726
a(S'2015-06-29 11:49:56.863000'
g297
tp727
a(S'2015-06-29 11:49:56.869000'
S'data saved as csv to C:\\Users\\Jbarrett\\Charlie\\charlie\\data\\csv\\4412_switching.csv'
tp728
a(S'2015-06-29 11:49:57.997000'
g295
tp729
a(S'2015-06-29 11:49:58.011000'
g297
tp730
a(S'2015-06-29 11:49:58.014000'
S'data saved as csv to C:\\Users\\Jbarrett\\Charlie\\charlie\\data\\csv\\4412_switching.csv'
tp731
a(S'2015-06-29 11:49:59.311000'
g295
tp732
a(S'2015-06-29 11:49:59.327000'
g297
tp733
a(S'2015-06-29 11:49:59.334000'
S'data saved as csv to C:\\Users\\Jbarrett\\Charlie\\charlie\\data\\csv\\4412_switching.csv'
tp734
a(S'2015-06-29 11:50:01.354000'
g295
tp735
a(S'2015-06-29 11:50:01.369000'
g297
tp736
a(S'2015-06-29 11:50:01.373000'
S'data saved as csv to C:\\Users\\Jbarrett\\Charlie\\charlie\\data\\csv\\4412_switching.csv'
tp737
a(S'2015-06-29 11:50:04.032000'
g295
tp738
a(S'2015-06-29 11:50:04.045000'
g297
tp739
a(S'2015-06-29 11:50:04.048000'
S'data saved as csv to C:\\Users\\Jbarrett\\Charlie\\charlie\\data\\csv\\4412_switching.csv'
tp740
a(S'2015-06-29 11:50:04.756000'
g295
tp741
a(S'2015-06-29 11:50:04.767000'
g297
tp742
a(S'2015-06-29 11:50:04.771000'
S'data saved as csv to C:\\Users\\Jbarrett\\Charlie\\charlie\\data\\csv\\4412_switching.csv'
tp743
a(S'2015-06-29 11:50:05.696000'
g295
tp744
a(S'2015-06-29 11:50:05.712000'
g297
tp745
a(S'2015-06-29 11:50:05.718000'
S'data saved as csv to C:\\Users\\Jbarrett\\Charlie\\charlie\\data\\csv\\4412_switching.csv'
tp746
a(S'2015-06-29 11:50:07.487000'
g295
tp747
a(S'2015-06-29 11:50:07.497000'
g297
tp748
a(S'2015-06-29 11:50:07.501000'
S'data saved as csv to C:\\Users\\Jbarrett\\Charlie\\charlie\\data\\csv\\4412_switching.csv'
tp749
a(S'2015-06-29 11:50:08.748000'
g295
tp750
a(S'2015-06-29 11:50:08.759000'
g297
tp751
a(S'2015-06-29 11:50:08.763000'
S'data saved as csv to C:\\Users\\Jbarrett\\Charlie\\charlie\\data\\csv\\4412_switching.csv'
tp752
a(S'2015-06-29 11:50:09.992000'
g295
tp753
a(S'2015-06-29 11:50:10.008000'
g297
tp754
a(S'2015-06-29 11:50:10.012000'
S'data saved as csv to C:\\Users\\Jbarrett\\Charlie\\charlie\\data\\csv\\4412_switching.csv'
tp755
a(S'2015-06-29 11:50:12.871000'
g295
tp756
a(S'2015-06-29 11:50:12.887000'
g297
tp757
a(S'2015-06-29 11:50:12.891000'
S'data saved as csv to C:\\Users\\Jbarrett\\Charlie\\charlie\\data\\csv\\4412_switching.csv'
tp758
a(S'2015-06-29 11:50:14.638000'
g295
tp759
a(S'2015-06-29 11:50:14.654000'
g297
tp760
a(S'2015-06-29 11:50:14.660000'
S'data saved as csv to C:\\Users\\Jbarrett\\Charlie\\charlie\\data\\csv\\4412_switching.csv'
tp761
a(S'2015-06-29 11:50:16.166000'
g295
tp762
a(S'2015-06-29 11:50:16.173000'
g297
tp763
a(S'2015-06-29 11:50:16.176000'
S'data saved as csv to C:\\Users\\Jbarrett\\Charlie\\charlie\\data\\csv\\4412_switching.csv'
tp764
a(S'2015-06-29 11:50:17.334000'
g295
tp765
a(S'2015-06-29 11:50:17.350000'
g297
tp766
a(S'2015-06-29 11:50:17.357000'
S'data saved as csv to C:\\Users\\Jbarrett\\Charlie\\charlie\\data\\csv\\4412_switching.csv'
tp767
a(S'2015-06-29 11:50:18.265000'
g295
tp768
a(S'2015-06-29 11:50:18.281000'
g297
tp769
a(S'2015-06-29 11:50:18.288000'
S'data saved as csv to C:\\Users\\Jbarrett\\Charlie\\charlie\\data\\csv\\4412_switching.csv'
tp770
a(S'2015-06-29 11:50:19.666000'
g295
tp771
a(S'2015-06-29 11:50:19.676000'
g297
tp772
a(S'2015-06-29 11:50:19.680000'
S'data saved as csv to C:\\Users\\Jbarrett\\Charlie\\charlie\\data\\csv\\4412_switching.csv'
tp773
a(S'2015-06-29 11:50:20.579000'
g295
tp774
a(S'2015-06-29 11:50:20.595000'
g297
tp775
a(S'2015-06-29 11:50:20.600000'
S'data saved as csv to C:\\Users\\Jbarrett\\Charlie\\charlie\\data\\csv\\4412_switching.csv'
tp776
a(S'2015-06-29 11:50:21.629000'
g295
tp777
a(S'2015-06-29 11:50:21.645000'
g297
tp778
a(S'2015-06-29 11:50:21.651000'
S'data saved as csv to C:\\Users\\Jbarrett\\Charlie\\charlie\\data\\csv\\4412_switching.csv'
tp779
a(S'2015-06-29 11:50:22.629000'
g295
tp780
a(S'2015-06-29 11:50:22.642000'
g297
tp781
a(S'2015-06-29 11:50:22.645000'
S'data saved as csv to C:\\Users\\Jbarrett\\Charlie\\charlie\\data\\csv\\4412_switching.csv'
tp782
a(S'2015-06-29 11:50:23.713000'
g295
tp783
a(S'2015-06-29 11:50:23.725000'
g297
tp784
a(S'2015-06-29 11:50:23.729000'
S'data saved as csv to C:\\Users\\Jbarrett\\Charlie\\charlie\\data\\csv\\4412_switching.csv'
tp785
a(S'2015-06-29 11:50:24.698000'
g295
tp786
a(S'2015-06-29 11:50:24.712000'
g297
tp787
a(S'2015-06-29 11:50:24.716000'
S'data saved as csv to C:\\Users\\Jbarrett\\Charlie\\charlie\\data\\csv\\4412_switching.csv'
tp788
a(S'2015-06-29 11:50:27.126000'
g295
tp789
a(S'2015-06-29 11:50:27.140000'
g297
tp790
a(S'2015-06-29 11:50:27.143000'
S'data saved as csv to C:\\Users\\Jbarrett\\Charlie\\charlie\\data\\csv\\4412_switching.csv'
tp791
a(S'2015-06-29 11:50:28.531000'
g295
tp792
a(S'2015-06-29 11:50:28.547000'
g297
tp793
a(S'2015-06-29 11:50:28.554000'
S'data saved as csv to C:\\Users\\Jbarrett\\Charlie\\charlie\\data\\csv\\4412_switching.csv'
tp794
a(S'2015-06-29 11:50:30.924000'
g295
tp795
a(S'2015-06-29 11:50:30.941000'
g297
tp796
a(S'2015-06-29 11:50:30.948000'
S'data saved as csv to C:\\Users\\Jbarrett\\Charlie\\charlie\\data\\csv\\4412_switching.csv'
tp797
a(S'2015-06-29 11:50:31.916000'
g295
tp798
a(S'2015-06-29 11:50:31.932000'
g297
tp799
a(S'2015-06-29 11:50:31.939000'
S'data saved as csv to C:\\Users\\Jbarrett\\Charlie\\charlie\\data\\csv\\4412_switching.csv'
tp800
a(S'2015-06-29 11:50:32.867000'
g295
tp801
a(S'2015-06-29 11:50:32.883000'
g297
tp802
a(S'2015-06-29 11:50:32.890000'
S'data saved as csv to C:\\Users\\Jbarrett\\Charlie\\charlie\\data\\csv\\4412_switching.csv'
tp803
a(S'2015-06-29 11:50:34.579000'
g295
tp804
a(S'2015-06-29 11:50:34.595000'
g297
tp805
a(S'2015-06-29 11:50:34.602000'
S'data saved as csv to C:\\Users\\Jbarrett\\Charlie\\charlie\\data\\csv\\4412_switching.csv'
tp806
a(S'2015-06-29 11:50:35.622000'
g295
tp807
a(S'2015-06-29 11:50:35.634000'
g297
tp808
a(S'2015-06-29 11:50:35.638000'
S'data saved as csv to C:\\Users\\Jbarrett\\Charlie\\charlie\\data\\csv\\4412_switching.csv'
tp809
a(S'2015-06-29 11:50:36.686000'
g295
tp810
a(S'2015-06-29 11:50:36.702000'
g297
tp811
a(S'2015-06-29 11:50:36.709000'
S'data saved as csv to C:\\Users\\Jbarrett\\Charlie\\charlie\\data\\csv\\4412_switching.csv'
tp812
a(S'2015-06-29 11:50:38.176000'
g295
tp813
a(S'2015-06-29 11:50:38.187000'
g297
tp814
a(S'2015-06-29 11:50:38.191000'
S'data saved as csv to C:\\Users\\Jbarrett\\Charlie\\charlie\\data\\csv\\4412_switching.csv'
tp815
a(S'2015-06-29 11:50:39.669000'
g295
tp816
a(S'2015-06-29 11:50:39.681000'
g297
tp817
a(S'2015-06-29 11:50:39.685000'
S'data saved as csv to C:\\Users\\Jbarrett\\Charlie\\charlie\\data\\csv\\4412_switching.csv'
tp818
a(S'2015-06-29 11:50:41.253000'
g295
tp819
a(S'2015-06-29 11:50:41.269000'
g297
tp820
a(S'2015-06-29 11:50:41.271000'
S'data saved as csv to C:\\Users\\Jbarrett\\Charlie\\charlie\\data\\csv\\4412_switching.csv'
tp821
a(S'2015-06-29 11:50:42.180000'
g295
tp822
a(S'2015-06-29 11:50:42.198000'
g297
tp823
a(S'2015-06-29 11:50:42.201000'
S'data saved as csv to C:\\Users\\Jbarrett\\Charlie\\charlie\\data\\csv\\4412_switching.csv'
tp824
a(S'2015-06-29 11:50:43.780000'
g295
tp825
a(S'2015-06-29 11:50:43.792000'
g297
tp826
a(S'2015-06-29 11:50:43.796000'
S'data saved as csv to C:\\Users\\Jbarrett\\Charlie\\charlie\\data\\csv\\4412_switching.csv'
tp827
a(S'2015-06-29 11:50:44.924000'
g295
tp828
a(S'2015-06-29 11:50:44.934000'
g297
tp829
a(S'2015-06-29 11:50:44.938000'
S'data saved as csv to C:\\Users\\Jbarrett\\Charlie\\charlie\\data\\csv\\4412_switching.csv'
tp830
a(S'2015-06-29 11:50:46.507000'
g295
tp831
a(S'2015-06-29 11:50:46.520000'
g297
tp832
a(S'2015-06-29 11:50:46.523000'
S'data saved as csv to C:\\Users\\Jbarrett\\Charlie\\charlie\\data\\csv\\4412_switching.csv'
tp833
a(S'2015-06-29 11:50:47.371000'
g295
tp834
a(S'2015-06-29 11:50:47.388000'
g297
tp835
a(S'2015-06-29 11:50:47.391000'
S'data saved as csv to C:\\Users\\Jbarrett\\Charlie\\charlie\\data\\csv\\4412_switching.csv'
tp836
a(S'2015-06-29 11:50:48.109000'
g295
tp837
a(S'2015-06-29 11:50:48.126000'
g297
tp838
a(S'2015-06-29 11:50:48.132000'
S'data saved as csv to C:\\Users\\Jbarrett\\Charlie\\charlie\\data\\csv\\4412_switching.csv'
tp839
a(S'2015-06-29 11:50:49.012000'
g295
tp840
a(S'2015-06-29 11:50:49.028000'
g297
tp841
a(S'2015-06-29 11:50:49.035000'
S'data saved as csv to C:\\Users\\Jbarrett\\Charlie\\charlie\\data\\csv\\4412_switching.csv'
tp842
a(S'2015-06-29 11:50:50.335000'
g295
tp843
a(S'2015-06-29 11:50:50.351000'
g297
tp844
a(S'2015-06-29 11:50:50.358000'
S'data saved as csv to C:\\Users\\Jbarrett\\Charlie\\charlie\\data\\csv\\4412_switching.csv'
tp845
a(S'2015-06-29 11:50:51.756000'
g295
tp846
a(S'2015-06-29 11:50:51.770000'
g297
tp847
a(S'2015-06-29 11:50:51.774000'
S'data saved as csv to C:\\Users\\Jbarrett\\Charlie\\charlie\\data\\csv\\4412_switching.csv'
tp848
a(S'2015-06-29 11:50:53.443000'
g295
tp849
a(S'2015-06-29 11:50:53.454000'
g297
tp850
a(S'2015-06-29 11:50:53.458000'
S'data saved as csv to C:\\Users\\Jbarrett\\Charlie\\charlie\\data\\csv\\4412_switching.csv'
tp851
a(S'2015-06-29 11:50:54.356000'
g295
tp852
a(S'2015-06-29 11:50:54.373000'
g297
tp853
a(S'2015-06-29 11:50:54.378000'
S'data saved as csv to C:\\Users\\Jbarrett\\Charlie\\charlie\\data\\csv\\4412_switching.csv'
tp854
a(S'2015-06-29 11:50:56.578000'
g295
tp855
a(S'2015-06-29 11:50:56.594000'
g297
tp856
a(S'2015-06-29 11:50:56.599000'
S'data saved as csv to C:\\Users\\Jbarrett\\Charlie\\charlie\\data\\csv\\4412_switching.csv'
tp857
a(S'2015-06-29 11:50:58.417000'
g295
tp858
a(S'2015-06-29 11:50:58.430000'
g297
tp859
a(S'2015-06-29 11:50:58.434000'
S'data saved as csv to C:\\Users\\Jbarrett\\Charlie\\charlie\\data\\csv\\4412_switching.csv'
tp860
a(S'2015-06-29 11:50:59.113000'
g295
tp861
a(S'2015-06-29 11:50:59.124000'
g297
tp862
a(S'2015-06-29 11:50:59.128000'
S'data saved as csv to C:\\Users\\Jbarrett\\Charlie\\charlie\\data\\csv\\4412_switching.csv'
tp863
a(S'2015-06-29 11:51:01.017000'
g295
tp864
a(S'2015-06-29 11:51:01.033000'
g297
tp865
a(S'2015-06-29 11:51:01.039000'
S'data saved as csv to C:\\Users\\Jbarrett\\Charlie\\charlie\\data\\csv\\4412_switching.csv'
tp866
a(S'2015-06-29 11:51:02.407000'
g295
tp867
a(S'2015-06-29 11:51:02.421000'
g297
tp868
a(S'2015-06-29 11:51:02.425000'
S'data saved as csv to C:\\Users\\Jbarrett\\Charlie\\charlie\\data\\csv\\4412_switching.csv'
tp869
a(S'2015-06-29 11:51:04.444000'
g295
tp870
a(S'2015-06-29 11:51:04.458000'
g297
tp871
a(S'2015-06-29 11:51:04.461000'
S'data saved as csv to C:\\Users\\Jbarrett\\Charlie\\charlie\\data\\csv\\4412_switching.csv'
tp872
a(S'2015-06-29 11:51:05.251000'
g295
tp873
a(S'2015-06-29 11:51:05.267000'
g297
tp874
a(S'2015-06-29 11:51:05.270000'
S'data saved as csv to C:\\Users\\Jbarrett\\Charlie\\charlie\\data\\csv\\4412_switching.csv'
tp875
a(S'2015-06-29 11:51:06.670000'
g295
tp876
a(S'2015-06-29 11:51:06.681000'
g297
tp877
a(S'2015-06-29 11:51:06.684000'
S'data saved as csv to C:\\Users\\Jbarrett\\Charlie\\charlie\\data\\csv\\4412_switching.csv'
tp878
a(S'2015-06-29 11:51:07.683000'
g295
tp879
a(S'2015-06-29 11:51:07.698000'
g297
tp880
a(S'2015-06-29 11:51:07.702000'
S'data saved as csv to C:\\Users\\Jbarrett\\Charlie\\charlie\\data\\csv\\4412_switching.csv'
tp881
a(S'2015-06-29 11:51:09.171000'
g295
tp882
a(S'2015-06-29 11:51:09.188000'
g297
tp883
a(S'2015-06-29 11:51:09.195000'
S'data saved as csv to C:\\Users\\Jbarrett\\Charlie\\charlie\\data\\csv\\4412_switching.csv'
tp884
a(S'2015-06-29 11:51:10.664000'
g295
tp885
a(S'2015-06-29 11:51:10.675000'
g297
tp886
a(S'2015-06-29 11:51:10.679000'
S'data saved as csv to C:\\Users\\Jbarrett\\Charlie\\charlie\\data\\csv\\4412_switching.csv'
tp887
a(S'2015-06-29 11:51:11.779000'
g295
tp888
a(S'2015-06-29 11:51:11.795000'
g297
tp889
a(S'2015-06-29 11:51:11.803000'
S'data saved as csv to C:\\Users\\Jbarrett\\Charlie\\charlie\\data\\csv\\4412_switching.csv'
tp890
a(S'2015-06-29 11:51:12.484000'
g295
tp891
a(S'2015-06-29 11:51:12.498000'
g297
tp892
a(S'2015-06-29 11:51:12.502000'
S'data saved as csv to C:\\Users\\Jbarrett\\Charlie\\charlie\\data\\csv\\4412_switching.csv'
tp893
a(S'2015-06-29 11:51:14.180000'
g295
tp894
a(S'2015-06-29 11:51:14.197000'
g297
tp895
a(S'2015-06-29 11:51:14.204000'
S'data saved as csv to C:\\Users\\Jbarrett\\Charlie\\charlie\\data\\csv\\4412_switching.csv'
tp896
a(S'2015-06-29 11:51:15.135000'
g295
tp897
a(S'2015-06-29 11:51:15.145000'
g297
tp898
a(S'2015-06-29 11:51:15.149000'
S'data saved as csv to C:\\Users\\Jbarrett\\Charlie\\charlie\\data\\csv\\4412_switching.csv'
tp899
a(S'2015-06-29 11:51:16.643000'
g295
tp900
a(S'2015-06-29 11:51:16.652000'
g297
tp901
a(S'2015-06-29 11:51:16.657000'
S'data saved as csv to C:\\Users\\Jbarrett\\Charlie\\charlie\\data\\csv\\4412_switching.csv'
tp902
a(S'2015-06-29 11:51:17.965000'
g295
tp903
a(S'2015-06-29 11:51:17.982000'
g297
tp904
a(S'2015-06-29 11:51:17.987000'
S'data saved as csv to C:\\Users\\Jbarrett\\Charlie\\charlie\\data\\csv\\4412_switching.csv'
tp905
a(S'2015-06-29 11:51:19.716000'
g295
tp906
a(S'2015-06-29 11:51:19.733000'
g297
tp907
a(S'2015-06-29 11:51:19.740000'
S'data saved as csv to C:\\Users\\Jbarrett\\Charlie\\charlie\\data\\csv\\4412_switching.csv'
tp908
a(S'2015-06-29 11:51:21.261000'
g295
tp909
a(S'2015-06-29 11:51:21.278000'
g297
tp910
a(S'2015-06-29 11:51:21.285000'
S'data saved as csv to C:\\Users\\Jbarrett\\Charlie\\charlie\\data\\csv\\4412_switching.csv'
tp911
a(S'2015-06-29 11:51:23.045000'
g295
tp912
a(S'2015-06-29 11:51:23.058000'
g297
tp913
a(S'2015-06-29 11:51:23.061000'
S'data saved as csv to C:\\Users\\Jbarrett\\Charlie\\charlie\\data\\csv\\4412_switching.csv'
tp914
a(S'2015-06-29 11:51:24.561000'
g295
tp915
a(S'2015-06-29 11:51:24.577000'
g297
tp916
a(S'2015-06-29 11:51:24.585000'
S'data saved as csv to C:\\Users\\Jbarrett\\Charlie\\charlie\\data\\csv\\4412_switching.csv'
tp917
a(S'2015-06-29 11:51:25.685000'
g295
tp918
a(S'2015-06-29 11:51:25.698000'
g297
tp919
a(S'2015-06-29 11:51:25.702000'
S'data saved as csv to C:\\Users\\Jbarrett\\Charlie\\charlie\\data\\csv\\4412_switching.csv'
tp920
a(S'2015-06-29 11:51:27.793000'
g295
tp921
a(S'2015-06-29 11:51:27.803000'
g297
tp922
a(S'2015-06-29 11:51:27.807000'
S'data saved as csv to C:\\Users\\Jbarrett\\Charlie\\charlie\\data\\csv\\4412_switching.csv'
tp923
a(S'2015-06-29 11:51:28.577000'
g295
tp924
a(S'2015-06-29 11:51:28.594000'
g297
tp925
a(S'2015-06-29 11:51:28.601000'
S'data saved as csv to C:\\Users\\Jbarrett\\Charlie\\charlie\\data\\csv\\4412_switching.csv'
tp926
a(S'2015-06-29 11:51:29.403000'
g295
tp927
a(S'2015-06-29 11:51:29.421000'
g297
tp928
a(S'2015-06-29 11:51:29.428000'
S'data saved as csv to C:\\Users\\Jbarrett\\Charlie\\charlie\\data\\csv\\4412_switching.csv'
tp929
asb.