(icharlie.tools.data
Data
p1
(dp2
S'lang'
p3
S'EN'
p4
sS'control'
p5
(lp6
sS'last_updated'
p7
cdatetime
datetime
p8
(S'\x07\xdf\x06\x1e\x0b\x07\x01\x0ec\x98'
tRp9
sS'last_opened'
p10
g8
(S'\x07\xdf\x06\x1e\x0b\x03#\x03\xc0\xf0'
tRp11
sS'proj_id'
p12
S'connectivity'
p13
sS'date_done'
p14
NsS'test_done'
p15
I01
sS'data'
p16
(lp17
(S'4413'
p18
S'emotion_recognition'
p19
I0
S'Female'
p20
S'Happy'
p21
S'Strong'
p22
S'C:\\Users\\Jbarrett\\Charlie\\charlie\\stimuli\\visual\\emotion_recognition\\FHZ_152.png'
S'Happy'
p23
I8600
tp24
a(g18
g19
I1
g20
S'Afraid'
p25
g22
S'C:\\Users\\Jbarrett\\Charlie\\charlie\\stimuli\\visual\\emotion_recognition\\FFZ_236.png'
S'Neutral'
I3121
tp26
a(g18
g19
I2
S'Male'
p27
g21
g22
S'C:\\Users\\Jbarrett\\Charlie\\charlie\\stimuli\\visual\\emotion_recognition\\MHZ_216.png'
S'Happy'
I6500
tp28
a(g18
g19
I3
g27
S'Angry'
p29
S'Weak'
p30
S'C:\\Users\\Jbarrett\\Charlie\\charlie\\stimuli\\visual\\emotion_recognition\\MAX_39.png'
S'Angry'
I5220
tp31
a(g18
g19
I4
g27
g21
g30
S'C:\\Users\\Jbarrett\\Charlie\\charlie\\stimuli\\visual\\emotion_recognition\\MHX_140.png'
S'Happy'
I2810
tp32
a(g18
g19
I5
g20
g25
g30
S'C:\\Users\\Jbarrett\\Charlie\\charlie\\stimuli\\visual\\emotion_recognition\\FFX_54.png'
S'Afraid'
I9911
tp33
a(g18
g19
I6
g20
S'Neutral'
p34
S'N/A'
p35
S'C:\\Users\\Jbarrett\\Charlie\\charlie\\stimuli\\visual\\emotion_recognition\\FN_30.png'
S'Neutral'
I3780
tp36
a(g18
g19
I7
g20
S'Sad'
p37
g22
S'C:\\Users\\Jbarrett\\Charlie\\charlie\\stimuli\\visual\\emotion_recognition\\FSZ_219.png'
S'Sad'
I2940
tp38
a(g18
g19
I8
g27
g21
g30
S'C:\\Users\\Jbarrett\\Charlie\\charlie\\stimuli\\visual\\emotion_recognition\\MHX_104.png'
S'Happy'
I2361
tp39
a(g18
g19
I9
g20
g29
g30
S'C:\\Users\\Jbarrett\\Charlie\\charlie\\stimuli\\visual\\emotion_recognition\\FAX_45.png'
S'Angry'
I7160
tp40
a(g18
g19
I10
g20
g21
g22
S'C:\\Users\\Jbarrett\\Charlie\\charlie\\stimuli\\visual\\emotion_recognition\\FHZ_131.png'
S'Happy'
I2570
tp41
a(g18
g19
I11
g27
g34
g35
S'C:\\Users\\Jbarrett\\Charlie\\charlie\\stimuli\\visual\\emotion_recognition\\MN_111.png'
S'Neutral'
I3320
tp42
a(g18
g19
I12
g20
g29
g22
S'C:\\Users\\Jbarrett\\Charlie\\charlie\\stimuli\\visual\\emotion_recognition\\FAZ_32.png'
S'Angry'
I4311
tp43
a(g18
g19
I13
g20
g21
g30
S'C:\\Users\\Jbarrett\\Charlie\\charlie\\stimuli\\visual\\emotion_recognition\\FHX_220.png'
S'Happy'
I6580
tp44
a(g18
g19
I14
g20
g25
g30
S'C:\\Users\\Jbarrett\\Charlie\\charlie\\stimuli\\visual\\emotion_recognition\\FFX_130.png'
S'Afraid'
I5150
tp45
a(g18
g19
I15
g20
g37
g30
S'C:\\Users\\Jbarrett\\Charlie\\charlie\\stimuli\\visual\\emotion_recognition\\FSX_20.png'
S'Neutral'
I4431
tp46
a(g18
g19
I16
g27
g37
g30
S'C:\\Users\\Jbarrett\\Charlie\\charlie\\stimuli\\visual\\emotion_recognition\\MSX_108.png'
S'Angry'
I6910
tp47
a(g18
g19
I17
g27
g37
g30
S'C:\\Users\\Jbarrett\\Charlie\\charlie\\stimuli\\visual\\emotion_recognition\\MSX_147.png'
S'Sad'
I3810
tp48
a(g18
g19
I18
g20
g29
g22
S'C:\\Users\\Jbarrett\\Charlie\\charlie\\stimuli\\visual\\emotion_recognition\\FAZ_129.png'
S'Happy'
I2720
tp49
a(g18
g19
I19
g27
g34
g35
S'C:\\Users\\Jbarrett\\Charlie\\charlie\\stimuli\\visual\\emotion_recognition\\MN_123.png'
S'Angry'
I5351
tp50
a(g18
g19
I20
g27
g37
g22
S'C:\\Users\\Jbarrett\\Charlie\\charlie\\stimuli\\visual\\emotion_recognition\\MSZ_126.png'
S'Sad'
I1980
tp51
a(g18
g19
I21
g27
g29
g22
S'C:\\Users\\Jbarrett\\Charlie\\charlie\\stimuli\\visual\\emotion_recognition\\MAZ_128.png'
S'Angry'
I5810
tp52
a(g18
g19
I22
g27
g25
g22
S'C:\\Users\\Jbarrett\\Charlie\\charlie\\stimuli\\visual\\emotion_recognition\\MFZ_7.png'
S'Afraid'
I2300
tp53
a(g18
g19
I23
g20
g29
g30
S'C:\\Users\\Jbarrett\\Charlie\\charlie\\stimuli\\visual\\emotion_recognition\\FAX_25.png'
S'Neutral'
I2110
tp54
a(g18
g19
I24
g27
g37
g22
S'C:\\Users\\Jbarrett\\Charlie\\charlie\\stimuli\\visual\\emotion_recognition\\MSZ_112.png'
S'Sad'
I6591
tp55
a(g18
g19
I25
g27
g34
g35
S'C:\\Users\\Jbarrett\\Charlie\\charlie\\stimuli\\visual\\emotion_recognition\\MN_223.png'
S'Neutral'
I3500
tp56
a(g18
g19
I26
g27
g29
g30
S'C:\\Users\\Jbarrett\\Charlie\\charlie\\stimuli\\visual\\emotion_recognition\\MAX_201.png'
S'Angry'
I8200
tp57
a(g18
g19
I27
g27
g21
g22
S'C:\\Users\\Jbarrett\\Charlie\\charlie\\stimuli\\visual\\emotion_recognition\\MHZ_227.png'
S'Happy'
I8921
tp58
a(g18
g19
I28
g27
g25
g30
S'C:\\Users\\Jbarrett\\Charlie\\charlie\\stimuli\\visual\\emotion_recognition\\MFX_153.png'
S'Afraid'
I8260
tp59
a(g18
g19
I29
g27
g29
g22
S'C:\\Users\\Jbarrett\\Charlie\\charlie\\stimuli\\visual\\emotion_recognition\\MAZ_146.png'
S'Angry'
I2041
tp60
a(g18
g19
I30
g20
g34
g35
S'C:\\Users\\Jbarrett\\Charlie\\charlie\\stimuli\\visual\\emotion_recognition\\FN_13.png'
S'Neutral'
I2050
tp61
a(g18
g19
I31
g20
g21
g30
S'C:\\Users\\Jbarrett\\Charlie\\charlie\\stimuli\\visual\\emotion_recognition\\FHX_127.png'
S'Happy'
I2580
tp62
a(g18
g19
I32
g20
g37
g22
S'C:\\Users\\Jbarrett\\Charlie\\charlie\\stimuli\\visual\\emotion_recognition\\FSZ_210.png'
S'Happy'
I1350
tp63
a(g18
g19
I33
g20
g37
g30
S'C:\\Users\\Jbarrett\\Charlie\\charlie\\stimuli\\visual\\emotion_recognition\\FSX_47.png'
S'Sad'
I2190
tp64
a(g18
g19
I34
g27
g34
g35
S'C:\\Users\\Jbarrett\\Charlie\\charlie\\stimuli\\visual\\emotion_recognition\\MN_21.png'
S'Neutral'
I4140
tp65
a(g18
g19
I35
g20
g25
g22
S'C:\\Users\\Jbarrett\\Charlie\\charlie\\stimuli\\visual\\emotion_recognition\\FFZ_29.png'
S'Afraid'
I3831
tp66
a(g18
g19
I36
g20
g34
g35
S'C:\\Users\\Jbarrett\\Charlie\\charlie\\stimuli\\visual\\emotion_recognition\\FN_228.png'
S'Neutral'
I3310
tp67
a(g18
g19
I37
g27
g25
g22
S'C:\\Users\\Jbarrett\\Charlie\\charlie\\stimuli\\visual\\emotion_recognition\\MFZ_132.png'
S'Afraid'
I5340
tp68
a(g18
g19
I38
g20
g34
g35
S'C:\\Users\\Jbarrett\\Charlie\\charlie\\stimuli\\visual\\emotion_recognition\\FN_204.png'
S'Neutral'
I3850
tp69
a(g18
g19
I39
g27
g25
g30
S'C:\\Users\\Jbarrett\\Charlie\\charlie\\stimuli\\visual\\emotion_recognition\\MFX_137.png'
p70
S'Angry'
I4191
tp71
asS'output_format'
p72
(lp73
(S'proband_id'
p74
c__builtin__
str
p75
tp76
a(S'test_name'
p77
g75
tp78
a(S'trialn'
p79
c__builtin__
int
p80
tp81
a(S'sex'
p82
g75
tp83
a(S'emotion'
p84
g75
tp85
a(S'salience'
p86
g75
tp87
a(S'f'
g75
tp88
a(S'rsp'
p89
g75
tp90
a(S'rt'
p91
g80
tp92
asg74
g18
sS'filename'
p93
S'4413_emotion_recognition.data'
p94
sS'initialised'
p95
g8
(S'\x07\xdf\x06\x1e\x0b\x03#\x03\xc0\xf0'
tRp96
sS'last_udated'
p97
g8
(S'\x07\xdf\x06\x1e\x0b\x03#\x03\xc0\xf0'
tRp98
sg77
S'emotion_recognition'
p99
sS'directory'
p100
S'C:\\Users\\Jbarrett\\Charlie\\charlie\\data\\raw'
p101
sS'user_id'
p102
S'sbuccheri'
p103
sS'test_started'
p104
I01
sS'abs_filename'
p105
S'C:\\Users\\Jbarrett\\Charlie\\charlie\\data\\raw\\4413_emotion_recognition.data'
p106
sS'date_started'
p107
g8
(S'\x07\xdf\x06\x1e\x0b\x04\x04\x0b\x858'
tRp108
sS'log'
p109
(lp110
(S'2015-06-30 11:03:35.246000'
S'instance created'
p111
tp112
a(S'2015-06-30 11:04:04.766000'
S'instance updated'
p113
tp114
a(S'2015-06-30 11:04:04.775000'
S'pandas DataFrame of data created'
p115
tp116
a(S'2015-06-30 11:04:04.779000'
S'data saved as csv to C:\\Users\\Jbarrett\\Charlie\\charlie\\data\\csv\\4413_emotion_recognition.csv'
tp117
a(S'2015-06-30 11:04:08.031000'
g113
tp118
a(S'2015-06-30 11:04:08.040000'
g115
tp119
a(S'2015-06-30 11:04:08.044000'
S'data saved as csv to C:\\Users\\Jbarrett\\Charlie\\charlie\\data\\csv\\4413_emotion_recognition.csv'
tp120
a(S'2015-06-30 11:04:14.676000'
g113
tp121
a(S'2015-06-30 11:04:14.685000'
g115
tp122
a(S'2015-06-30 11:04:14.689000'
S'data saved as csv to C:\\Users\\Jbarrett\\Charlie\\charlie\\data\\csv\\4413_emotion_recognition.csv'
tp123
a(S'2015-06-30 11:04:20.041000'
g113
tp124
a(S'2015-06-30 11:04:20.050000'
g115
tp125
a(S'2015-06-30 11:04:20.054000'
S'data saved as csv to C:\\Users\\Jbarrett\\Charlie\\charlie\\data\\csv\\4413_emotion_recognition.csv'
tp126
a(S'2015-06-30 11:04:22.995000'
g113
tp127
a(S'2015-06-30 11:04:23.004000'
g115
tp128
a(S'2015-06-30 11:04:23.006000'
S'data saved as csv to C:\\Users\\Jbarrett\\Charlie\\charlie\\data\\csv\\4413_emotion_recognition.csv'
tp129
a(S'2015-06-30 11:04:33.046000'
g113
tp130
a(S'2015-06-30 11:04:33.055000'
g115
tp131
a(S'2015-06-30 11:04:33.059000'
S'data saved as csv to C:\\Users\\Jbarrett\\Charlie\\charlie\\data\\csv\\4413_emotion_recognition.csv'
tp132
a(S'2015-06-30 11:04:36.971000'
g113
tp133
a(S'2015-06-30 11:04:36.980000'
g115
tp134
a(S'2015-06-30 11:04:36.983000'
S'data saved as csv to C:\\Users\\Jbarrett\\Charlie\\charlie\\data\\csv\\4413_emotion_recognition.csv'
tp135
a(S'2015-06-30 11:04:40.054000'
g113
tp136
a(S'2015-06-30 11:04:40.063000'
g115
tp137
a(S'2015-06-30 11:04:40.067000'
S'data saved as csv to C:\\Users\\Jbarrett\\Charlie\\charlie\\data\\csv\\4413_emotion_recognition.csv'
tp138
a(S'2015-06-30 11:04:42.559000'
g113
tp139
a(S'2015-06-30 11:04:42.568000'
g115
tp140
a(S'2015-06-30 11:04:42.572000'
S'data saved as csv to C:\\Users\\Jbarrett\\Charlie\\charlie\\data\\csv\\4413_emotion_recognition.csv'
tp141
a(S'2015-06-30 11:04:49.864000'
g113
tp142
a(S'2015-06-30 11:04:49.874000'
g115
tp143
a(S'2015-06-30 11:04:49.878000'
S'data saved as csv to C:\\Users\\Jbarrett\\Charlie\\charlie\\data\\csv\\4413_emotion_recognition.csv'
tp144
a(S'2015-06-30 11:04:52.579000'
g113
tp145
a(S'2015-06-30 11:04:52.588000'
g115
tp146
a(S'2015-06-30 11:04:52.592000'
S'data saved as csv to C:\\Users\\Jbarrett\\Charlie\\charlie\\data\\csv\\4413_emotion_recognition.csv'
tp147
a(S'2015-06-30 11:04:56.045000'
g113
tp148
a(S'2015-06-30 11:04:56.054000'
g115
tp149
a(S'2015-06-30 11:04:56.058000'
S'data saved as csv to C:\\Users\\Jbarrett\\Charlie\\charlie\\data\\csv\\4413_emotion_recognition.csv'
tp150
a(S'2015-06-30 11:05:00.500000'
g113
tp151
a(S'2015-06-30 11:05:00.510000'
g115
tp152
a(S'2015-06-30 11:05:00.514000'
S'data saved as csv to C:\\Users\\Jbarrett\\Charlie\\charlie\\data\\csv\\4413_emotion_recognition.csv'
tp153
a(S'2015-06-30 11:05:07.226000'
g113
tp154
a(S'2015-06-30 11:05:07.236000'
g115
tp155
a(S'2015-06-30 11:05:07.240000'
S'data saved as csv to C:\\Users\\Jbarrett\\Charlie\\charlie\\data\\csv\\4413_emotion_recognition.csv'
tp156
a(S'2015-06-30 11:05:12.522000'
g113
tp157
a(S'2015-06-30 11:05:12.532000'
g115
tp158
a(S'2015-06-30 11:05:12.535000'
S'data saved as csv to C:\\Users\\Jbarrett\\Charlie\\charlie\\data\\csv\\4413_emotion_recognition.csv'
tp159
a(S'2015-06-30 11:05:17.098000'
g113
tp160
a(S'2015-06-30 11:05:17.108000'
g115
tp161
a(S'2015-06-30 11:05:17.112000'
S'data saved as csv to C:\\Users\\Jbarrett\\Charlie\\charlie\\data\\csv\\4413_emotion_recognition.csv'
tp162
a(S'2015-06-30 11:05:24.155000'
g113
tp163
a(S'2015-06-30 11:05:24.164000'
g115
tp164
a(S'2015-06-30 11:05:24.168000'
S'data saved as csv to C:\\Users\\Jbarrett\\Charlie\\charlie\\data\\csv\\4413_emotion_recognition.csv'
tp165
a(S'2015-06-30 11:05:28.110000'
g113
tp166
a(S'2015-06-30 11:05:28.119000'
g115
tp167
a(S'2015-06-30 11:05:28.123000'
S'data saved as csv to C:\\Users\\Jbarrett\\Charlie\\charlie\\data\\csv\\4413_emotion_recognition.csv'
tp168
a(S'2015-06-30 11:05:30.975000'
g113
tp169
a(S'2015-06-30 11:05:30.985000'
g115
tp170
a(S'2015-06-30 11:05:30.989000'
S'data saved as csv to C:\\Users\\Jbarrett\\Charlie\\charlie\\data\\csv\\4413_emotion_recognition.csv'
tp171
a(S'2015-06-30 11:05:36.471000'
g113
tp172
a(S'2015-06-30 11:05:36.481000'
g115
tp173
a(S'2015-06-30 11:05:36.485000'
S'data saved as csv to C:\\Users\\Jbarrett\\Charlie\\charlie\\data\\csv\\4413_emotion_recognition.csv'
tp174
a(S'2015-06-30 11:05:38.597000'
g113
tp175
a(S'2015-06-30 11:05:38.607000'
g115
tp176
a(S'2015-06-30 11:05:38.611000'
S'data saved as csv to C:\\Users\\Jbarrett\\Charlie\\charlie\\data\\csv\\4413_emotion_recognition.csv'
tp177
a(S'2015-06-30 11:05:44.553000'
g113
tp178
a(S'2015-06-30 11:05:44.562000'
g115
tp179
a(S'2015-06-30 11:05:44.566000'
S'data saved as csv to C:\\Users\\Jbarrett\\Charlie\\charlie\\data\\csv\\4413_emotion_recognition.csv'
tp180
a(S'2015-06-30 11:05:46.997000'
g113
tp181
a(S'2015-06-30 11:05:47.007000'
g115
tp182
a(S'2015-06-30 11:05:47.011000'
S'data saved as csv to C:\\Users\\Jbarrett\\Charlie\\charlie\\data\\csv\\4413_emotion_recognition.csv'
tp183
a(S'2015-06-30 11:05:49.253000'
g113
tp184
a(S'2015-06-30 11:05:49.263000'
g115
tp185
a(S'2015-06-30 11:05:49.267000'
S'data saved as csv to C:\\Users\\Jbarrett\\Charlie\\charlie\\data\\csv\\4413_emotion_recognition.csv'
tp186
a(S'2015-06-30 11:05:55.989000'
g113
tp187
a(S'2015-06-30 11:05:55.998000'
g115
tp188
a(S'2015-06-30 11:05:56.001000'
S'data saved as csv to C:\\Users\\Jbarrett\\Charlie\\charlie\\data\\csv\\4413_emotion_recognition.csv'
tp189
a(S'2015-06-30 11:05:59.632000'
g113
tp190
a(S'2015-06-30 11:05:59.641000'
g115
tp191
a(S'2015-06-30 11:05:59.645000'
S'data saved as csv to C:\\Users\\Jbarrett\\Charlie\\charlie\\data\\csv\\4413_emotion_recognition.csv'
tp192
a(S'2015-06-30 11:06:07.978000'
g113
tp193
a(S'2015-06-30 11:06:07.988000'
g115
tp194
a(S'2015-06-30 11:06:07.992000'
S'data saved as csv to C:\\Users\\Jbarrett\\Charlie\\charlie\\data\\csv\\4413_emotion_recognition.csv'
tp195
a(S'2015-06-30 11:06:17.045000'
g113
tp196
a(S'2015-06-30 11:06:17.055000'
g115
tp197
a(S'2015-06-30 11:06:17.059000'
S'data saved as csv to C:\\Users\\Jbarrett\\Charlie\\charlie\\data\\csv\\4413_emotion_recognition.csv'
tp198
a(S'2015-06-30 11:06:25.452000'
g113
tp199
a(S'2015-06-30 11:06:25.462000'
g115
tp200
a(S'2015-06-30 11:06:25.466000'
S'data saved as csv to C:\\Users\\Jbarrett\\Charlie\\charlie\\data\\csv\\4413_emotion_recognition.csv'
tp201
a(S'2015-06-30 11:06:27.638000'
g113
tp202
a(S'2015-06-30 11:06:27.649000'
g115
tp203
a(S'2015-06-30 11:06:27.653000'
S'data saved as csv to C:\\Users\\Jbarrett\\Charlie\\charlie\\data\\csv\\4413_emotion_recognition.csv'
tp204
a(S'2015-06-30 11:06:29.836000'
g113
tp205
a(S'2015-06-30 11:06:29.846000'
g115
tp206
a(S'2015-06-30 11:06:29.850000'
S'data saved as csv to C:\\Users\\Jbarrett\\Charlie\\charlie\\data\\csv\\4413_emotion_recognition.csv'
tp207
a(S'2015-06-30 11:06:32.562000'
g113
tp208
a(S'2015-06-30 11:06:32.572000'
g115
tp209
a(S'2015-06-30 11:06:32.575000'
S'data saved as csv to C:\\Users\\Jbarrett\\Charlie\\charlie\\data\\csv\\4413_emotion_recognition.csv'
tp210
a(S'2015-06-30 11:06:34.056000'
g113
tp211
a(S'2015-06-30 11:06:34.066000'
g115
tp212
a(S'2015-06-30 11:06:34.069000'
S'data saved as csv to C:\\Users\\Jbarrett\\Charlie\\charlie\\data\\csv\\4413_emotion_recognition.csv'
tp213
a(S'2015-06-30 11:06:36.390000'
g113
tp214
a(S'2015-06-30 11:06:36.400000'
g115
tp215
a(S'2015-06-30 11:06:36.404000'
S'data saved as csv to C:\\Users\\Jbarrett\\Charlie\\charlie\\data\\csv\\4413_emotion_recognition.csv'
tp216
a(S'2015-06-30 11:06:40.675000'
g113
tp217
a(S'2015-06-30 11:06:40.685000'
g115
tp218
a(S'2015-06-30 11:06:40.689000'
S'data saved as csv to C:\\Users\\Jbarrett\\Charlie\\charlie\\data\\csv\\4413_emotion_recognition.csv'
tp219
a(S'2015-06-30 11:06:44.652000'
g113
tp220
a(S'2015-06-30 11:06:44.660000'
g115
tp221
a(S'2015-06-30 11:06:44.663000'
S'data saved as csv to C:\\Users\\Jbarrett\\Charlie\\charlie\\data\\csv\\4413_emotion_recognition.csv'
tp222
a(S'2015-06-30 11:06:48.105000'
g113
tp223
a(S'2015-06-30 11:06:48.115000'
g115
tp224
a(S'2015-06-30 11:06:48.119000'
S'data saved as csv to C:\\Users\\Jbarrett\\Charlie\\charlie\\data\\csv\\4413_emotion_recognition.csv'
tp225
a(S'2015-06-30 11:06:53.592000'
g113
tp226
a(S'2015-06-30 11:06:53.603000'
g115
tp227
a(S'2015-06-30 11:06:53.607000'
S'data saved as csv to C:\\Users\\Jbarrett\\Charlie\\charlie\\data\\csv\\4413_emotion_recognition.csv'
tp228
a(S'2015-06-30 11:06:57.590000'
g113
tp229
a(S'2015-06-30 11:06:57.601000'
g115
tp230
a(S'2015-06-30 11:06:57.605000'
S'data saved as csv to C:\\Users\\Jbarrett\\Charlie\\charlie\\data\\csv\\4413_emotion_recognition.csv'
tp231
a(S'2015-06-30 11:07:01.928000'
g113
tp232
a(S'2015-06-30 11:07:01.938000'
g115
tp233
a(S'2015-06-30 11:07:01.942000'
S'data saved as csv to C:\\Users\\Jbarrett\\Charlie\\charlie\\data\\csv\\4413_emotion_recognition.csv'
tp234
asb.