(icharlie.tools.data
Data
p1
(dp2
S'lang'
p3
S'EN'
p4
sS'control'
p5
(lp6
sS'last_updated'
p7
cdatetime
datetime
p8
(S'\x07\xdf\x07\n\x0e0 \r} '
tRp9
sS'last_opened'
p10
g8
(S'\x07\xdf\x07\n\x0e-;\x07\xebX'
tRp11
sS'proj_id'
p12
S'connectivity'
p13
sS'date_done'
p14
NsS'test_done'
p15
I01
sS'data'
p16
(lp17
(S'4416'
p18
S'stroop'
p19
S'practice'
p20
I0
S'n/a'
p21
S'C:\\Users\\Jbarrett\\Charlie\\charlie\\stimuli\\visual\\stroop\\prac_1.png'
S'Right'
p22
g22
I2150
tp23
a(g18
g19
g20
I1
g21
S'C:\\Users\\Jbarrett\\Charlie\\charlie\\stimuli\\visual\\stroop\\prac_2.png'
S'Left'
p24
g24
I1270
tp25
a(g18
g19
g20
I2
g21
S'C:\\Users\\Jbarrett\\Charlie\\charlie\\stimuli\\visual\\stroop\\prac_3.png'
g22
g22
I771
tp26
a(g18
g19
g20
I3
g21
S'C:\\Users\\Jbarrett\\Charlie\\charlie\\stimuli\\visual\\stroop\\prac_4.png'
g22
g22
I850
tp27
a(g18
g19
S'test'
p28
I0
S'Incongruent'
p29
S'C:\\Users\\Jbarrett\\Charlie\\charlie\\stimuli\\visual\\stroop\\6-Incongruent.png'
g24
g24
I1830
tp30
a(g18
g19
g28
I1
S'Congruent'
p31
S'C:\\Users\\Jbarrett\\Charlie\\charlie\\stimuli\\visual\\stroop\\30-Congruent.png'
g24
g24
I1340
tp32
a(g18
g19
g28
I2
g31
S'C:\\Users\\Jbarrett\\Charlie\\charlie\\stimuli\\visual\\stroop\\3-Congruent.png'
g22
g22
I1140
tp33
a(g18
g19
g28
I3
g29
S'C:\\Users\\Jbarrett\\Charlie\\charlie\\stimuli\\visual\\stroop\\23-Incongruent.png'
g24
g24
I820
tp34
a(g18
g19
g28
I4
g31
S'C:\\Users\\Jbarrett\\Charlie\\charlie\\stimuli\\visual\\stroop\\39-Congruent.png'
g24
g24
I990
tp35
a(g18
g19
g28
I5
g31
S'C:\\Users\\Jbarrett\\Charlie\\charlie\\stimuli\\visual\\stroop\\45-Congruent.png'
g24
g24
I830
tp36
a(g18
g19
g28
I6
g29
S'C:\\Users\\Jbarrett\\Charlie\\charlie\\stimuli\\visual\\stroop\\31-Incongruent.png'
g22
g24
I890
tp37
a(g18
g19
g28
I7
g29
S'C:\\Users\\Jbarrett\\Charlie\\charlie\\stimuli\\visual\\stroop\\28-Incongruent.png'
g24
g24
I2380
tp38
a(g18
g19
g28
I8
g31
S'C:\\Users\\Jbarrett\\Charlie\\charlie\\stimuli\\visual\\stroop\\31-Congruent.png'
g24
g24
I1140
tp39
a(g18
g19
g28
I9
g31
S'C:\\Users\\Jbarrett\\Charlie\\charlie\\stimuli\\visual\\stroop\\10-Congruent.png'
g22
g22
I870
tp40
a(g18
g19
g28
I10
g29
S'C:\\Users\\Jbarrett\\Charlie\\charlie\\stimuli\\visual\\stroop\\10-Incongruent.png'
g24
g24
I880
tp41
a(g18
g19
g28
I11
g29
S'C:\\Users\\Jbarrett\\Charlie\\charlie\\stimuli\\visual\\stroop\\24-Incongruent.png'
g24
g24
I890
tp42
a(g18
g19
g28
I12
g31
S'C:\\Users\\Jbarrett\\Charlie\\charlie\\stimuli\\visual\\stroop\\34-Congruent.png'
g24
g24
I740
tp43
a(g18
g19
g28
I13
g31
S'C:\\Users\\Jbarrett\\Charlie\\charlie\\stimuli\\visual\\stroop\\38-Congruent.png'
g24
g24
I770
tp44
a(g18
g19
g28
I14
g31
S'C:\\Users\\Jbarrett\\Charlie\\charlie\\stimuli\\visual\\stroop\\42-Congruent.png'
g24
g24
I690
tp45
a(g18
g19
g28
I15
g31
S'C:\\Users\\Jbarrett\\Charlie\\charlie\\stimuli\\visual\\stroop\\17-Congruent.png'
g22
g22
I640
tp46
a(g18
g19
g28
I16
g29
S'C:\\Users\\Jbarrett\\Charlie\\charlie\\stimuli\\visual\\stroop\\42-Incongruent.png'
g22
g24
I650
tp47
a(g18
g19
g28
I17
g29
S'C:\\Users\\Jbarrett\\Charlie\\charlie\\stimuli\\visual\\stroop\\36-Incongruent.png'
g22
g22
I1040
tp48
a(g18
g19
g28
I18
g29
S'C:\\Users\\Jbarrett\\Charlie\\charlie\\stimuli\\visual\\stroop\\43-Incongruent.png'
g22
g22
I870
tp49
a(g18
g19
g28
I19
g31
S'C:\\Users\\Jbarrett\\Charlie\\charlie\\stimuli\\visual\\stroop\\49-Congruent.png'
g24
g24
I650
tp50
a(g18
g19
g28
I20
g31
S'C:\\Users\\Jbarrett\\Charlie\\charlie\\stimuli\\visual\\stroop\\43-Congruent.png'
g24
g24
I900
tp51
a(g18
g19
g28
I21
g29
S'C:\\Users\\Jbarrett\\Charlie\\charlie\\stimuli\\visual\\stroop\\15-Incongruent.png'
g24
g24
I741
tp52
a(g18
g19
g28
I22
g29
S'C:\\Users\\Jbarrett\\Charlie\\charlie\\stimuli\\visual\\stroop\\35-Incongruent.png'
g22
g22
I1390
tp53
a(g18
g19
g28
I23
g29
S'C:\\Users\\Jbarrett\\Charlie\\charlie\\stimuli\\visual\\stroop\\44-Incongruent.png'
g22
g22
I900
tp54
a(g18
g19
g28
I24
g29
S'C:\\Users\\Jbarrett\\Charlie\\charlie\\stimuli\\visual\\stroop\\47-Incongruent.png'
g22
g22
I970
tp55
a(g18
g19
g28
I25
g29
S'C:\\Users\\Jbarrett\\Charlie\\charlie\\stimuli\\visual\\stroop\\40-Incongruent.png'
g22
g22
I890
tp56
a(g18
g19
g28
I26
g29
S'C:\\Users\\Jbarrett\\Charlie\\charlie\\stimuli\\visual\\stroop\\25-Incongruent.png'
g24
g24
I830
tp57
a(g18
g19
g28
I27
g29
S'C:\\Users\\Jbarrett\\Charlie\\charlie\\stimuli\\visual\\stroop\\27-Incongruent.png'
g24
g24
I840
tp58
a(g18
g19
g28
I28
g29
S'C:\\Users\\Jbarrett\\Charlie\\charlie\\stimuli\\visual\\stroop\\56-Incongruent.png'
g22
g22
I830
tp59
a(g18
g19
g28
I29
g31
S'C:\\Users\\Jbarrett\\Charlie\\charlie\\stimuli\\visual\\stroop\\2-Congruent.png'
g22
g22
I680
tp60
a(g18
g19
g28
I30
g29
S'C:\\Users\\Jbarrett\\Charlie\\charlie\\stimuli\\visual\\stroop\\17-Incongruent.png'
g24
g24
I800
tp61
a(g18
g19
g28
I31
g31
S'C:\\Users\\Jbarrett\\Charlie\\charlie\\stimuli\\visual\\stroop\\12-Congruent.png'
g22
g22
I750
tp62
a(g18
g19
g28
I32
g29
S'C:\\Users\\Jbarrett\\Charlie\\charlie\\stimuli\\visual\\stroop\\12-Incongruent.png'
g24
g22
I1000
tp63
a(g18
g19
g28
I33
g29
S'C:\\Users\\Jbarrett\\Charlie\\charlie\\stimuli\\visual\\stroop\\26-Incongruent.png'
g24
g24
I980
tp64
a(g18
g19
g28
I34
g31
S'C:\\Users\\Jbarrett\\Charlie\\charlie\\stimuli\\visual\\stroop\\19-Congruent.png'
g22
g22
I2930
tp65
a(g18
g19
g28
I35
g31
S'C:\\Users\\Jbarrett\\Charlie\\charlie\\stimuli\\visual\\stroop\\23-Congruent.png'
g22
g22
I1040
tp66
a(g18
g19
g28
I36
g31
S'C:\\Users\\Jbarrett\\Charlie\\charlie\\stimuli\\visual\\stroop\\35-Congruent.png'
g24
g24
I951
tp67
a(g18
g19
g28
I37
g31
S'C:\\Users\\Jbarrett\\Charlie\\charlie\\stimuli\\visual\\stroop\\46-Congruent.png'
g24
g24
I900
tp68
a(g18
g19
g28
I38
g29
S'C:\\Users\\Jbarrett\\Charlie\\charlie\\stimuli\\visual\\stroop\\8-Incongruent.png'
g24
g24
I1060
tp69
a(g18
g19
g28
I39
g31
S'C:\\Users\\Jbarrett\\Charlie\\charlie\\stimuli\\visual\\stroop\\29-Congruent.png'
g24
g24
I940
tp70
a(g18
g19
g28
I40
g31
S'C:\\Users\\Jbarrett\\Charlie\\charlie\\stimuli\\visual\\stroop\\14-Congruent.png'
g22
g22
I920
tp71
a(g18
g19
g28
I41
g31
S'C:\\Users\\Jbarrett\\Charlie\\charlie\\stimuli\\visual\\stroop\\33-Congruent.png'
g24
g24
I830
tp72
a(g18
g19
g28
I42
g29
S'C:\\Users\\Jbarrett\\Charlie\\charlie\\stimuli\\visual\\stroop\\13-Incongruent.png'
g24
g24
I900
tp73
a(g18
g19
g28
I43
g29
S'C:\\Users\\Jbarrett\\Charlie\\charlie\\stimuli\\visual\\stroop\\55-Incongruent.png'
g22
g22
I880
tp74
a(g18
g19
g28
I44
g31
S'C:\\Users\\Jbarrett\\Charlie\\charlie\\stimuli\\visual\\stroop\\54-Congruent.png'
g24
g24
I800
tp75
a(g18
g19
g28
I45
g31
S'C:\\Users\\Jbarrett\\Charlie\\charlie\\stimuli\\visual\\stroop\\8-Congruent.png'
g22
g22
I1020
tp76
a(g18
g19
g28
I46
g31
S'C:\\Users\\Jbarrett\\Charlie\\charlie\\stimuli\\visual\\stroop\\13-Congruent.png'
g22
g22
I770
tp77
a(g18
g19
g28
I47
g31
S'C:\\Users\\Jbarrett\\Charlie\\charlie\\stimuli\\visual\\stroop\\40-Congruent.png'
g24
g24
I800
tp78
a(g18
g19
g28
I48
g29
S'C:\\Users\\Jbarrett\\Charlie\\charlie\\stimuli\\visual\\stroop\\9-Incongruent.png'
g24
g24
I750
tp79
a(g18
g19
g28
I49
g31
S'C:\\Users\\Jbarrett\\Charlie\\charlie\\stimuli\\visual\\stroop\\50-Congruent.png'
g24
g24
I800
tp80
a(g18
g19
g28
I50
g31
S'C:\\Users\\Jbarrett\\Charlie\\charlie\\stimuli\\visual\\stroop\\5-Congruent.png'
g22
g22
I1420
tp81
a(g18
g19
g28
I51
g29
S'C:\\Users\\Jbarrett\\Charlie\\charlie\\stimuli\\visual\\stroop\\5-Incongruent.png'
g24
g24
I720
tp82
a(g18
g19
g28
I52
g29
S'C:\\Users\\Jbarrett\\Charlie\\charlie\\stimuli\\visual\\stroop\\53-Incongruent.png'
g22
g22
I871
tp83
a(g18
g19
g28
I53
g29
S'C:\\Users\\Jbarrett\\Charlie\\charlie\\stimuli\\visual\\stroop\\1-Incongruent.png'
g24
g24
I770
tp84
a(g18
g19
g28
I54
g31
S'C:\\Users\\Jbarrett\\Charlie\\charlie\\stimuli\\visual\\stroop\\28-Congruent.png'
g22
g22
I760
tp85
a(g18
g19
g28
I55
g29
S'C:\\Users\\Jbarrett\\Charlie\\charlie\\stimuli\\visual\\stroop\\34-Incongruent.png'
g22
g22
I880
tp86
a(g18
g19
g28
I56
g29
S'C:\\Users\\Jbarrett\\Charlie\\charlie\\stimuli\\visual\\stroop\\20-Incongruent.png'
g24
g24
I990
tp87
a(g18
g19
g28
I57
g29
S'C:\\Users\\Jbarrett\\Charlie\\charlie\\stimuli\\visual\\stroop\\38-Incongruent.png'
g22
g22
I920
tp88
a(g18
g19
g28
I58
g29
S'C:\\Users\\Jbarrett\\Charlie\\charlie\\stimuli\\visual\\stroop\\32-Incongruent.png'
g22
g22
I790
tp89
a(g18
g19
g28
I59
g31
S'C:\\Users\\Jbarrett\\Charlie\\charlie\\stimuli\\visual\\stroop\\9-Congruent.png'
g22
g22
I890
tp90
a(g18
g19
g28
I60
g31
S'C:\\Users\\Jbarrett\\Charlie\\charlie\\stimuli\\visual\\stroop\\55-Congruent.png'
g24
g24
I840
tp91
a(g18
g19
g28
I61
g29
S'C:\\Users\\Jbarrett\\Charlie\\charlie\\stimuli\\visual\\stroop\\33-Incongruent.png'
g22
g22
I850
tp92
a(g18
g19
g28
I62
g29
S'C:\\Users\\Jbarrett\\Charlie\\charlie\\stimuli\\visual\\stroop\\49-Incongruent.png'
g22
g22
I940
tp93
a(g18
g19
g28
I63
g31
S'C:\\Users\\Jbarrett\\Charlie\\charlie\\stimuli\\visual\\stroop\\4-Congruent.png'
g22
g22
I730
tp94
a(g18
g19
g28
I64
g31
S'C:\\Users\\Jbarrett\\Charlie\\charlie\\stimuli\\visual\\stroop\\6-Congruent.png'
g22
g22
I1170
tp95
a(g18
g19
g28
I65
g31
S'C:\\Users\\Jbarrett\\Charlie\\charlie\\stimuli\\visual\\stroop\\48-Congruent.png'
g24
g24
I1020
tp96
a(g18
g19
g28
I66
g31
S'C:\\Users\\Jbarrett\\Charlie\\charlie\\stimuli\\visual\\stroop\\52-Congruent.png'
g24
g24
I1120
tp97
a(g18
g19
g28
I67
g31
S'C:\\Users\\Jbarrett\\Charlie\\charlie\\stimuli\\visual\\stroop\\51-Congruent.png'
g24
g24
I1230
tp98
a(g18
g19
g28
I68
g31
S'C:\\Users\\Jbarrett\\Charlie\\charlie\\stimuli\\visual\\stroop\\16-Congruent.png'
g22
g22
I1101
tp99
a(g18
g19
g28
I69
g31
S'C:\\Users\\Jbarrett\\Charlie\\charlie\\stimuli\\visual\\stroop\\24-Congruent.png'
g22
g22
I900
tp100
a(g18
g19
g28
I70
g29
S'C:\\Users\\Jbarrett\\Charlie\\charlie\\stimuli\\visual\\stroop\\41-Incongruent.png'
g22
g22
I820
tp101
a(g18
g19
g28
I71
g29
S'C:\\Users\\Jbarrett\\Charlie\\charlie\\stimuli\\visual\\stroop\\48-Incongruent.png'
g22
g22
I920
tp102
a(g18
g19
g28
I72
g29
S'C:\\Users\\Jbarrett\\Charlie\\charlie\\stimuli\\visual\\stroop\\4-Incongruent.png'
g24
g24
I830
tp103
a(g18
g19
g28
I73
g29
S'C:\\Users\\Jbarrett\\Charlie\\charlie\\stimuli\\visual\\stroop\\54-Incongruent.png'
g22
g22
I850
tp104
a(g18
g19
g28
I74
g29
S'C:\\Users\\Jbarrett\\Charlie\\charlie\\stimuli\\visual\\stroop\\39-Incongruent.png'
g22
g22
I830
tp105
a(g18
g19
g28
I75
g31
S'C:\\Users\\Jbarrett\\Charlie\\charlie\\stimuli\\visual\\stroop\\56-Congruent.png'
g24
g24
I1330
tp106
a(g18
g19
g28
I76
g29
S'C:\\Users\\Jbarrett\\Charlie\\charlie\\stimuli\\visual\\stroop\\46-Incongruent.png'
g22
g22
I1150
tp107
a(g18
g19
g28
I77
g31
S'C:\\Users\\Jbarrett\\Charlie\\charlie\\stimuli\\visual\\stroop\\22-Congruent.png'
g22
g22
I1190
tp108
a(g18
g19
g28
I78
g29
S'C:\\Users\\Jbarrett\\Charlie\\charlie\\stimuli\\visual\\stroop\\21-Incongruent.png'
g24
g24
I890
tp109
a(g18
g19
g28
I79
g29
S'C:\\Users\\Jbarrett\\Charlie\\charlie\\stimuli\\visual\\stroop\\37-Incongruent.png'
g22
g22
I1500
tp110
a(g18
g19
g28
I80
g29
S'C:\\Users\\Jbarrett\\Charlie\\charlie\\stimuli\\visual\\stroop\\2-Incongruent.png'
g24
g24
I730
tp111
a(g18
g19
g28
I81
g31
S'C:\\Users\\Jbarrett\\Charlie\\charlie\\stimuli\\visual\\stroop\\21-Congruent.png'
g22
g22
I790
tp112
a(g18
g19
g28
I82
g29
S'C:\\Users\\Jbarrett\\Charlie\\charlie\\stimuli\\visual\\stroop\\7-Incongruent.png'
g24
g24
I1250
tp113
a(g18
g19
g28
I83
g31
S'C:\\Users\\Jbarrett\\Charlie\\charlie\\stimuli\\visual\\stroop\\20-Congruent.png'
g22
g22
I730
tp114
a(g18
g19
g28
I84
g31
S'C:\\Users\\Jbarrett\\Charlie\\charlie\\stimuli\\visual\\stroop\\15-Congruent.png'
g22
g22
I701
tp115
a(g18
g19
g28
I85
g31
S'C:\\Users\\Jbarrett\\Charlie\\charlie\\stimuli\\visual\\stroop\\26-Congruent.png'
g22
g22
I740
tp116
a(g18
g19
g28
I86
g29
S'C:\\Users\\Jbarrett\\Charlie\\charlie\\stimuli\\visual\\stroop\\16-Incongruent.png'
g24
g24
I880
tp117
a(g18
g19
g28
I87
g29
S'C:\\Users\\Jbarrett\\Charlie\\charlie\\stimuli\\visual\\stroop\\50-Incongruent.png'
g22
g22
I770
tp118
a(g18
g19
g28
I88
g31
S'C:\\Users\\Jbarrett\\Charlie\\charlie\\stimuli\\visual\\stroop\\41-Congruent.png'
g24
g22
I880
tp119
a(g18
g19
g28
I89
g31
S'C:\\Users\\Jbarrett\\Charlie\\charlie\\stimuli\\visual\\stroop\\25-Congruent.png'
g22
g22
I1920
tp120
a(g18
g19
g28
I90
g31
S'C:\\Users\\Jbarrett\\Charlie\\charlie\\stimuli\\visual\\stroop\\27-Congruent.png'
g22
g22
I740
tp121
a(g18
g19
g28
I91
g29
S'C:\\Users\\Jbarrett\\Charlie\\charlie\\stimuli\\visual\\stroop\\18-Incongruent.png'
g24
g24
I840
tp122
a(g18
g19
g28
I92
g29
S'C:\\Users\\Jbarrett\\Charlie\\charlie\\stimuli\\visual\\stroop\\30-Incongruent.png'
g22
g22
I900
tp123
a(g18
g19
g28
I93
g31
S'C:\\Users\\Jbarrett\\Charlie\\charlie\\stimuli\\visual\\stroop\\44-Congruent.png'
g24
g24
I790
tp124
a(g18
g19
g28
I94
g31
S'C:\\Users\\Jbarrett\\Charlie\\charlie\\stimuli\\visual\\stroop\\37-Congruent.png'
g24
g24
I1210
tp125
a(g18
g19
g28
I95
g29
S'C:\\Users\\Jbarrett\\Charlie\\charlie\\stimuli\\visual\\stroop\\11-Incongruent.png'
g24
g24
I770
tp126
a(g18
g19
g28
I96
g29
S'C:\\Users\\Jbarrett\\Charlie\\charlie\\stimuli\\visual\\stroop\\29-Incongruent.png'
g22
g22
I770
tp127
a(g18
g19
g28
I97
g29
S'C:\\Users\\Jbarrett\\Charlie\\charlie\\stimuli\\visual\\stroop\\3-Incongruent.png'
g24
g24
I800
tp128
a(g18
g19
g28
I98
g31
S'C:\\Users\\Jbarrett\\Charlie\\charlie\\stimuli\\visual\\stroop\\1-Congruent.png'
g22
g22
I870
tp129
a(g18
g19
g28
I99
g29
S'C:\\Users\\Jbarrett\\Charlie\\charlie\\stimuli\\visual\\stroop\\52-Incongruent.png'
g22
g22
I1020
tp130
a(g18
g19
g28
I100
g29
S'C:\\Users\\Jbarrett\\Charlie\\charlie\\stimuli\\visual\\stroop\\14-Incongruent.png'
g24
g24
I620
tp131
a(g18
g19
g28
I101
g31
S'C:\\Users\\Jbarrett\\Charlie\\charlie\\stimuli\\visual\\stroop\\47-Congruent.png'
g24
g24
I841
tp132
a(g18
g19
g28
I102
g29
S'C:\\Users\\Jbarrett\\Charlie\\charlie\\stimuli\\visual\\stroop\\19-Incongruent.png'
g24
g24
I1010
tp133
a(g18
g19
g28
I103
g31
S'C:\\Users\\Jbarrett\\Charlie\\charlie\\stimuli\\visual\\stroop\\11-Congruent.png'
g22
g22
I1480
tp134
a(g18
g19
g28
I104
g29
S'C:\\Users\\Jbarrett\\Charlie\\charlie\\stimuli\\visual\\stroop\\22-Incongruent.png'
g24
g24
I930
tp135
a(g18
g19
g28
I105
g31
S'C:\\Users\\Jbarrett\\Charlie\\charlie\\stimuli\\visual\\stroop\\7-Congruent.png'
g22
g22
I940
tp136
a(g18
g19
g28
I106
g31
S'C:\\Users\\Jbarrett\\Charlie\\charlie\\stimuli\\visual\\stroop\\53-Congruent.png'
g24
g24
I990
tp137
a(g18
g19
g28
I107
g31
S'C:\\Users\\Jbarrett\\Charlie\\charlie\\stimuli\\visual\\stroop\\32-Congruent.png'
g24
g24
I580
tp138
a(g18
g19
g28
I108
g29
S'C:\\Users\\Jbarrett\\Charlie\\charlie\\stimuli\\visual\\stroop\\45-Incongruent.png'
g22
g22
I910
tp139
a(g18
g19
g28
I109
g31
S'C:\\Users\\Jbarrett\\Charlie\\charlie\\stimuli\\visual\\stroop\\36-Congruent.png'
g24
g24
I620
tp140
a(g18
g19
g28
I110
g29
S'C:\\Users\\Jbarrett\\Charlie\\charlie\\stimuli\\visual\\stroop\\51-Incongruent.png'
g22
g22
I1060
tp141
a(g18
g19
g28
I111
g31
S'C:\\Users\\Jbarrett\\Charlie\\charlie\\stimuli\\visual\\stroop\\18-Congruent.png'
p142
g22
g22
I890
tp143
asS'output_format'
p144
(lp145
(S'proband_id'
p146
c__builtin__
str
p147
tp148
a(S'test_name'
p149
g147
tp150
a(S'phase'
p151
g147
tp152
a(S'trialn'
p153
c__builtin__
int
p154
tp155
a(S'cong'
p156
g147
tp157
a(S'f'
g147
tp158
a(S'ans'
p159
g147
tp160
a(S'rsp'
p161
g147
tp162
a(S'rt'
p163
g154
tp164
asg146
g18
sS'filename'
p165
S'4416_stroop.data'
p166
sS'initialised'
p167
g8
(S'\x07\xdf\x07\n\x0e-;\x07\xebX'
tRp168
sS'last_udated'
p169
g8
(S'\x07\xdf\x07\n\x0e-;\x07\xebX'
tRp170
sg149
S'stroop'
p171
sS'directory'
p172
S'C:\\Users\\Jbarrett\\Charlie\\charlie\\data\\raw'
p173
sS'user_id'
p174
S'sbuccheri'
p175
sS'test_started'
p176
I01
sS'abs_filename'
p177
S'C:\\Users\\Jbarrett\\Charlie\\charlie\\data\\raw\\4416_stroop.data'
p178
sS'date_started'
p179
g8
(S'\x07\xdf\x07\n\x0e.\x0f\x0e\xc5@'
tRp180
sS'log'
p181
(lp182
(S'2015-07-10 14:45:59.519000'
S'instance created'
p183
tp184
a(S'2015-07-10 14:46:15.981000'
S'instance updated'
p185
tp186
a(S'2015-07-10 14:46:15.991000'
S'pandas DataFrame of data created'
p187
tp188
a(S'2015-07-10 14:46:15.995000'
S'data saved as csv to C:\\Users\\Jbarrett\\Charlie\\charlie\\data\\csv\\4416_stroop.csv'
tp189
a(S'2015-07-10 14:46:18.296000'
g185
tp190
a(S'2015-07-10 14:46:18.305000'
g187
tp191
a(S'2015-07-10 14:46:18.309000'
S'data saved as csv to C:\\Users\\Jbarrett\\Charlie\\charlie\\data\\csv\\4416_stroop.csv'
tp192
a(S'2015-07-10 14:46:20.109000'
g185
tp193
a(S'2015-07-10 14:46:20.118000'
g187
tp194
a(S'2015-07-10 14:46:20.120000'
S'data saved as csv to C:\\Users\\Jbarrett\\Charlie\\charlie\\data\\csv\\4416_stroop.csv'
tp195
a(S'2015-07-10 14:46:21.998000'
g185
tp196
a(S'2015-07-10 14:46:22.007000'
g187
tp197
a(S'2015-07-10 14:46:22.009000'
S'data saved as csv to C:\\Users\\Jbarrett\\Charlie\\charlie\\data\\csv\\4416_stroop.csv'
tp198
a(S'2015-07-10 14:46:31.386000'
g185
tp199
a(S'2015-07-10 14:46:31.389000'
g187
tp200
a(S'2015-07-10 14:46:31.390000'
S'data saved as csv to C:\\Users\\Jbarrett\\Charlie\\charlie\\data\\csv\\4416_stroop.csv'
tp201
a(S'2015-07-10 14:46:32.859000'
g185
tp202
a(S'2015-07-10 14:46:32.868000'
g187
tp203
a(S'2015-07-10 14:46:32.870000'
S'data saved as csv to C:\\Users\\Jbarrett\\Charlie\\charlie\\data\\csv\\4416_stroop.csv'
tp204
a(S'2015-07-10 14:46:34.140000'
g185
tp205
a(S'2015-07-10 14:46:34.149000'
g187
tp206
a(S'2015-07-10 14:46:34.153000'
S'data saved as csv to C:\\Users\\Jbarrett\\Charlie\\charlie\\data\\csv\\4416_stroop.csv'
tp207
a(S'2015-07-10 14:46:35.104000'
g185
tp208
a(S'2015-07-10 14:46:35.114000'
g187
tp209
a(S'2015-07-10 14:46:35.117000'
S'data saved as csv to C:\\Users\\Jbarrett\\Charlie\\charlie\\data\\csv\\4416_stroop.csv'
tp210
a(S'2015-07-10 14:46:36.237000'
g185
tp211
a(S'2015-07-10 14:46:36.247000'
g187
tp212
a(S'2015-07-10 14:46:36.250000'
S'data saved as csv to C:\\Users\\Jbarrett\\Charlie\\charlie\\data\\csv\\4416_stroop.csv'
tp213
a(S'2015-07-10 14:46:37.213000'
g185
tp214
a(S'2015-07-10 14:46:37.222000'
g187
tp215
a(S'2015-07-10 14:46:37.225000'
S'data saved as csv to C:\\Users\\Jbarrett\\Charlie\\charlie\\data\\csv\\4416_stroop.csv'
tp216
a(S'2015-07-10 14:46:38.248000'
g185
tp217
a(S'2015-07-10 14:46:38.258000'
g187
tp218
a(S'2015-07-10 14:46:38.262000'
S'data saved as csv to C:\\Users\\Jbarrett\\Charlie\\charlie\\data\\csv\\4416_stroop.csv'
tp219
a(S'2015-07-10 14:46:40.775000'
g185
tp220
a(S'2015-07-10 14:46:40.785000'
g187
tp221
a(S'2015-07-10 14:46:40.787000'
S'data saved as csv to C:\\Users\\Jbarrett\\Charlie\\charlie\\data\\csv\\4416_stroop.csv'
tp222
a(S'2015-07-10 14:46:42.056000'
g185
tp223
a(S'2015-07-10 14:46:42.066000'
g187
tp224
a(S'2015-07-10 14:46:42.070000'
S'data saved as csv to C:\\Users\\Jbarrett\\Charlie\\charlie\\data\\csv\\4416_stroop.csv'
tp225
a(S'2015-07-10 14:46:43.072000'
g185
tp226
a(S'2015-07-10 14:46:43.082000'
g187
tp227
a(S'2015-07-10 14:46:43.085000'
S'data saved as csv to C:\\Users\\Jbarrett\\Charlie\\charlie\\data\\csv\\4416_stroop.csv'
tp228
a(S'2015-07-10 14:46:44.098000'
g185
tp229
a(S'2015-07-10 14:46:44.108000'
g187
tp230
a(S'2015-07-10 14:46:44.111000'
S'data saved as csv to C:\\Users\\Jbarrett\\Charlie\\charlie\\data\\csv\\4416_stroop.csv'
tp231
a(S'2015-07-10 14:46:45.133000'
g185
tp232
a(S'2015-07-10 14:46:45.143000'
g187
tp233
a(S'2015-07-10 14:46:45.147000'
S'data saved as csv to C:\\Users\\Jbarrett\\Charlie\\charlie\\data\\csv\\4416_stroop.csv'
tp234
a(S'2015-07-10 14:46:46.019000'
g185
tp235
a(S'2015-07-10 14:46:46.029000'
g187
tp236
a(S'2015-07-10 14:46:46.032000'
S'data saved as csv to C:\\Users\\Jbarrett\\Charlie\\charlie\\data\\csv\\4416_stroop.csv'
tp237
a(S'2015-07-10 14:46:46.934000'
g185
tp238
a(S'2015-07-10 14:46:46.943000'
g187
tp239
a(S'2015-07-10 14:46:46.948000'
S'data saved as csv to C:\\Users\\Jbarrett\\Charlie\\charlie\\data\\csv\\4416_stroop.csv'
tp240
a(S'2015-07-10 14:46:47.771000'
g185
tp241
a(S'2015-07-10 14:46:47.780000'
g187
tp242
a(S'2015-07-10 14:46:47.784000'
S'data saved as csv to C:\\Users\\Jbarrett\\Charlie\\charlie\\data\\csv\\4416_stroop.csv'
tp243
a(S'2015-07-10 14:46:48.557000'
g185
tp244
a(S'2015-07-10 14:46:48.567000'
g187
tp245
a(S'2015-07-10 14:46:48.571000'
S'data saved as csv to C:\\Users\\Jbarrett\\Charlie\\charlie\\data\\csv\\4416_stroop.csv'
tp246
a(S'2015-07-10 14:46:49.355000'
g185
tp247
a(S'2015-07-10 14:46:49.364000'
g187
tp248
a(S'2015-07-10 14:46:49.367000'
S'data saved as csv to C:\\Users\\Jbarrett\\Charlie\\charlie\\data\\csv\\4416_stroop.csv'
tp249
a(S'2015-07-10 14:46:50.538000'
g185
tp250
a(S'2015-07-10 14:46:50.547000'
g187
tp251
a(S'2015-07-10 14:46:50.551000'
S'data saved as csv to C:\\Users\\Jbarrett\\Charlie\\charlie\\data\\csv\\4416_stroop.csv'
tp252
a(S'2015-07-10 14:46:51.554000'
g185
tp253
a(S'2015-07-10 14:46:51.564000'
g187
tp254
a(S'2015-07-10 14:46:51.568000'
S'data saved as csv to C:\\Users\\Jbarrett\\Charlie\\charlie\\data\\csv\\4416_stroop.csv'
tp255
a(S'2015-07-10 14:46:52.351000'
g185
tp256
a(S'2015-07-10 14:46:52.361000'
g187
tp257
a(S'2015-07-10 14:46:52.365000'
S'data saved as csv to C:\\Users\\Jbarrett\\Charlie\\charlie\\data\\csv\\4416_stroop.csv'
tp258
a(S'2015-07-10 14:46:53.395000'
g185
tp259
a(S'2015-07-10 14:46:53.405000'
g187
tp260
a(S'2015-07-10 14:46:53.409000'
S'data saved as csv to C:\\Users\\Jbarrett\\Charlie\\charlie\\data\\csv\\4416_stroop.csv'
tp261
a(S'2015-07-10 14:46:54.281000'
g185
tp262
a(S'2015-07-10 14:46:54.291000'
g187
tp263
a(S'2015-07-10 14:46:54.295000'
S'data saved as csv to C:\\Users\\Jbarrett\\Charlie\\charlie\\data\\csv\\4416_stroop.csv'
tp264
a(S'2015-07-10 14:46:55.818000'
g185
tp265
a(S'2015-07-10 14:46:55.827000'
g187
tp266
a(S'2015-07-10 14:46:55.831000'
S'data saved as csv to C:\\Users\\Jbarrett\\Charlie\\charlie\\data\\csv\\4416_stroop.csv'
tp267
a(S'2015-07-10 14:46:56.865000'
g185
tp268
a(S'2015-07-10 14:46:56.875000'
g187
tp269
a(S'2015-07-10 14:46:56.879000'
S'data saved as csv to C:\\Users\\Jbarrett\\Charlie\\charlie\\data\\csv\\4416_stroop.csv'
tp270
a(S'2015-07-10 14:46:57.982000'
g185
tp271
a(S'2015-07-10 14:46:57.992000'
g187
tp272
a(S'2015-07-10 14:46:57.996000'
S'data saved as csv to C:\\Users\\Jbarrett\\Charlie\\charlie\\data\\csv\\4416_stroop.csv'
tp273
a(S'2015-07-10 14:46:59.019000'
g185
tp274
a(S'2015-07-10 14:46:59.027000'
g187
tp275
a(S'2015-07-10 14:46:59.030000'
S'data saved as csv to C:\\Users\\Jbarrett\\Charlie\\charlie\\data\\csv\\4416_stroop.csv'
tp276
a(S'2015-07-10 14:46:59.991000'
g185
tp277
a(S'2015-07-10 14:47:00.001000'
g187
tp278
a(S'2015-07-10 14:47:00.004000'
S'data saved as csv to C:\\Users\\Jbarrett\\Charlie\\charlie\\data\\csv\\4416_stroop.csv'
tp279
a(S'2015-07-10 14:47:00.978000'
g185
tp280
a(S'2015-07-10 14:47:00.987000'
g187
tp281
a(S'2015-07-10 14:47:00.991000'
S'data saved as csv to C:\\Users\\Jbarrett\\Charlie\\charlie\\data\\csv\\4416_stroop.csv'
tp282
a(S'2015-07-10 14:47:01.955000'
g185
tp283
a(S'2015-07-10 14:47:01.965000'
g187
tp284
a(S'2015-07-10 14:47:01.967000'
S'data saved as csv to C:\\Users\\Jbarrett\\Charlie\\charlie\\data\\csv\\4416_stroop.csv'
tp285
a(S'2015-07-10 14:47:02.777000'
g185
tp286
a(S'2015-07-10 14:47:02.787000'
g187
tp287
a(S'2015-07-10 14:47:02.791000'
S'data saved as csv to C:\\Users\\Jbarrett\\Charlie\\charlie\\data\\csv\\4416_stroop.csv'
tp288
a(S'2015-07-10 14:47:03.725000'
g185
tp289
a(S'2015-07-10 14:47:03.735000'
g187
tp290
a(S'2015-07-10 14:47:03.737000'
S'data saved as csv to C:\\Users\\Jbarrett\\Charlie\\charlie\\data\\csv\\4416_stroop.csv'
tp291
a(S'2015-07-10 14:47:04.617000'
g185
tp292
a(S'2015-07-10 14:47:04.627000'
g187
tp293
a(S'2015-07-10 14:47:04.631000'
S'data saved as csv to C:\\Users\\Jbarrett\\Charlie\\charlie\\data\\csv\\4416_stroop.csv'
tp294
a(S'2015-07-10 14:47:05.764000'
g185
tp295
a(S'2015-07-10 14:47:05.774000'
g187
tp296
a(S'2015-07-10 14:47:05.777000'
S'data saved as csv to C:\\Users\\Jbarrett\\Charlie\\charlie\\data\\csv\\4416_stroop.csv'
tp297
a(S'2015-07-10 14:47:06.888000'
g185
tp298
a(S'2015-07-10 14:47:06.898000'
g187
tp299
a(S'2015-07-10 14:47:06.902000'
S'data saved as csv to C:\\Users\\Jbarrett\\Charlie\\charlie\\data\\csv\\4416_stroop.csv'
tp300
a(S'2015-07-10 14:47:09.967000'
g185
tp301
a(S'2015-07-10 14:47:09.977000'
g187
tp302
a(S'2015-07-10 14:47:09.981000'
S'data saved as csv to C:\\Users\\Jbarrett\\Charlie\\charlie\\data\\csv\\4416_stroop.csv'
tp303
a(S'2015-07-10 14:47:11.155000'
g185
tp304
a(S'2015-07-10 14:47:11.165000'
g187
tp305
a(S'2015-07-10 14:47:11.169000'
S'data saved as csv to C:\\Users\\Jbarrett\\Charlie\\charlie\\data\\csv\\4416_stroop.csv'
tp306
a(S'2015-07-10 14:47:12.253000'
g185
tp307
a(S'2015-07-10 14:47:12.263000'
g187
tp308
a(S'2015-07-10 14:47:12.267000'
S'data saved as csv to C:\\Users\\Jbarrett\\Charlie\\charlie\\data\\csv\\4416_stroop.csv'
tp309
a(S'2015-07-10 14:47:13.300000'
g185
tp310
a(S'2015-07-10 14:47:13.310000'
g187
tp311
a(S'2015-07-10 14:47:13.314000'
S'data saved as csv to C:\\Users\\Jbarrett\\Charlie\\charlie\\data\\csv\\4416_stroop.csv'
tp312
a(S'2015-07-10 14:47:14.508000'
g185
tp313
a(S'2015-07-10 14:47:14.518000'
g187
tp314
a(S'2015-07-10 14:47:14.522000'
S'data saved as csv to C:\\Users\\Jbarrett\\Charlie\\charlie\\data\\csv\\4416_stroop.csv'
tp315
a(S'2015-07-10 14:47:15.596000'
g185
tp316
a(S'2015-07-10 14:47:15.606000'
g187
tp317
a(S'2015-07-10 14:47:15.610000'
S'data saved as csv to C:\\Users\\Jbarrett\\Charlie\\charlie\\data\\csv\\4416_stroop.csv'
tp318
a(S'2015-07-10 14:47:16.663000'
g185
tp319
a(S'2015-07-10 14:47:16.673000'
g187
tp320
a(S'2015-07-10 14:47:16.677000'
S'data saved as csv to C:\\Users\\Jbarrett\\Charlie\\charlie\\data\\csv\\4416_stroop.csv'
tp321
a(S'2015-07-10 14:47:17.640000'
g185
tp322
a(S'2015-07-10 14:47:17.651000'
g187
tp323
a(S'2015-07-10 14:47:17.654000'
S'data saved as csv to C:\\Users\\Jbarrett\\Charlie\\charlie\\data\\csv\\4416_stroop.csv'
tp324
a(S'2015-07-10 14:47:18.687000'
g185
tp325
a(S'2015-07-10 14:47:18.697000'
g187
tp326
a(S'2015-07-10 14:47:18.701000'
S'data saved as csv to C:\\Users\\Jbarrett\\Charlie\\charlie\\data\\csv\\4416_stroop.csv'
tp327
a(S'2015-07-10 14:47:19.713000'
g185
tp328
a(S'2015-07-10 14:47:19.724000'
g187
tp329
a(S'2015-07-10 14:47:19.727000'
S'data saved as csv to C:\\Users\\Jbarrett\\Charlie\\charlie\\data\\csv\\4416_stroop.csv'
tp330
a(S'2015-07-10 14:47:20.658000'
g185
tp331
a(S'2015-07-10 14:47:20.668000'
g187
tp332
a(S'2015-07-10 14:47:20.672000'
S'data saved as csv to C:\\Users\\Jbarrett\\Charlie\\charlie\\data\\csv\\4416_stroop.csv'
tp333
a(S'2015-07-10 14:47:21.826000'
g185
tp334
a(S'2015-07-10 14:47:21.836000'
g187
tp335
a(S'2015-07-10 14:47:21.840000'
S'data saved as csv to C:\\Users\\Jbarrett\\Charlie\\charlie\\data\\csv\\4416_stroop.csv'
tp336
a(S'2015-07-10 14:47:22.744000'
g185
tp337
a(S'2015-07-10 14:47:22.754000'
g187
tp338
a(S'2015-07-10 14:47:22.756000'
S'data saved as csv to C:\\Users\\Jbarrett\\Charlie\\charlie\\data\\csv\\4416_stroop.csv'
tp339
a(S'2015-07-10 14:47:23.687000'
g185
tp340
a(S'2015-07-10 14:47:23.697000'
g187
tp341
a(S'2015-07-10 14:47:23.701000'
S'data saved as csv to C:\\Users\\Jbarrett\\Charlie\\charlie\\data\\csv\\4416_stroop.csv'
tp342
a(S'2015-07-10 14:47:24.585000'
g185
tp343
a(S'2015-07-10 14:47:24.595000'
g187
tp344
a(S'2015-07-10 14:47:24.600000'
S'data saved as csv to C:\\Users\\Jbarrett\\Charlie\\charlie\\data\\csv\\4416_stroop.csv'
tp345
a(S'2015-07-10 14:47:25.533000'
g185
tp346
a(S'2015-07-10 14:47:25.543000'
g187
tp347
a(S'2015-07-10 14:47:25.546000'
S'data saved as csv to C:\\Users\\Jbarrett\\Charlie\\charlie\\data\\csv\\4416_stroop.csv'
tp348
a(S'2015-07-10 14:47:27.097000'
g185
tp349
a(S'2015-07-10 14:47:27.106000'
g187
tp350
a(S'2015-07-10 14:47:27.108000'
S'data saved as csv to C:\\Users\\Jbarrett\\Charlie\\charlie\\data\\csv\\4416_stroop.csv'
tp351
a(S'2015-07-10 14:47:27.959000'
g185
tp352
a(S'2015-07-10 14:47:27.969000'
g187
tp353
a(S'2015-07-10 14:47:27.974000'
S'data saved as csv to C:\\Users\\Jbarrett\\Charlie\\charlie\\data\\csv\\4416_stroop.csv'
tp354
a(S'2015-07-10 14:47:28.976000'
g185
tp355
a(S'2015-07-10 14:47:28.986000'
g187
tp356
a(S'2015-07-10 14:47:28.991000'
S'data saved as csv to C:\\Users\\Jbarrett\\Charlie\\charlie\\data\\csv\\4416_stroop.csv'
tp357
a(S'2015-07-10 14:47:29.893000'
g185
tp358
a(S'2015-07-10 14:47:29.903000'
g187
tp359
a(S'2015-07-10 14:47:29.907000'
S'data saved as csv to C:\\Users\\Jbarrett\\Charlie\\charlie\\data\\csv\\4416_stroop.csv'
tp360
a(S'2015-07-10 14:47:30.785000'
g185
tp361
a(S'2015-07-10 14:47:30.788000'
g187
tp362
a(S'2015-07-10 14:47:30.789000'
S'data saved as csv to C:\\Users\\Jbarrett\\Charlie\\charlie\\data\\csv\\4416_stroop.csv'
tp363
a(S'2015-07-10 14:47:31.801000'
g185
tp364
a(S'2015-07-10 14:47:31.811000'
g187
tp365
a(S'2015-07-10 14:47:31.814000'
S'data saved as csv to C:\\Users\\Jbarrett\\Charlie\\charlie\\data\\csv\\4416_stroop.csv'
tp366
a(S'2015-07-10 14:47:32.936000'
g185
tp367
a(S'2015-07-10 14:47:32.946000'
g187
tp368
a(S'2015-07-10 14:47:32.950000'
S'data saved as csv to C:\\Users\\Jbarrett\\Charlie\\charlie\\data\\csv\\4416_stroop.csv'
tp369
a(S'2015-07-10 14:47:34.003000'
g185
tp370
a(S'2015-07-10 14:47:34.013000'
g187
tp371
a(S'2015-07-10 14:47:34.018000'
S'data saved as csv to C:\\Users\\Jbarrett\\Charlie\\charlie\\data\\csv\\4416_stroop.csv'
tp372
a(S'2015-07-10 14:47:34.942000'
g185
tp373
a(S'2015-07-10 14:47:34.953000'
g187
tp374
a(S'2015-07-10 14:47:34.957000'
S'data saved as csv to C:\\Users\\Jbarrett\\Charlie\\charlie\\data\\csv\\4416_stroop.csv'
tp375
a(S'2015-07-10 14:47:35.980000'
g185
tp376
a(S'2015-07-10 14:47:35.991000'
g187
tp377
a(S'2015-07-10 14:47:35.996000'
S'data saved as csv to C:\\Users\\Jbarrett\\Charlie\\charlie\\data\\csv\\4416_stroop.csv'
tp378
a(S'2015-07-10 14:47:36.969000'
g185
tp379
a(S'2015-07-10 14:47:36.980000'
g187
tp380
a(S'2015-07-10 14:47:36.985000'
S'data saved as csv to C:\\Users\\Jbarrett\\Charlie\\charlie\\data\\csv\\4416_stroop.csv'
tp381
a(S'2015-07-10 14:47:37.969000'
g185
tp382
a(S'2015-07-10 14:47:37.979000'
g187
tp383
a(S'2015-07-10 14:47:37.983000'
S'data saved as csv to C:\\Users\\Jbarrett\\Charlie\\charlie\\data\\csv\\4416_stroop.csv'
tp384
a(S'2015-07-10 14:47:39.058000'
g185
tp385
a(S'2015-07-10 14:47:39.068000'
g187
tp386
a(S'2015-07-10 14:47:39.073000'
S'data saved as csv to C:\\Users\\Jbarrett\\Charlie\\charlie\\data\\csv\\4416_stroop.csv'
tp387
a(S'2015-07-10 14:47:39.933000'
g185
tp388
a(S'2015-07-10 14:47:39.943000'
g187
tp389
a(S'2015-07-10 14:47:39.946000'
S'data saved as csv to C:\\Users\\Jbarrett\\Charlie\\charlie\\data\\csv\\4416_stroop.csv'
tp390
a(S'2015-07-10 14:47:41.247000'
g185
tp391
a(S'2015-07-10 14:47:41.258000'
g187
tp392
a(S'2015-07-10 14:47:41.263000'
S'data saved as csv to C:\\Users\\Jbarrett\\Charlie\\charlie\\data\\csv\\4416_stroop.csv'
tp393
a(S'2015-07-10 14:47:42.413000'
g185
tp394
a(S'2015-07-10 14:47:42.424000'
g187
tp395
a(S'2015-07-10 14:47:42.428000'
S'data saved as csv to C:\\Users\\Jbarrett\\Charlie\\charlie\\data\\csv\\4416_stroop.csv'
tp396
a(S'2015-07-10 14:47:43.681000'
g185
tp397
a(S'2015-07-10 14:47:43.692000'
g187
tp398
a(S'2015-07-10 14:47:43.695000'
S'data saved as csv to C:\\Users\\Jbarrett\\Charlie\\charlie\\data\\csv\\4416_stroop.csv'
tp399
a(S'2015-07-10 14:47:45.056000'
g185
tp400
a(S'2015-07-10 14:47:45.067000'
g187
tp401
a(S'2015-07-10 14:47:45.072000'
S'data saved as csv to C:\\Users\\Jbarrett\\Charlie\\charlie\\data\\csv\\4416_stroop.csv'
tp402
a(S'2015-07-10 14:47:46.303000'
g185
tp403
a(S'2015-07-10 14:47:46.314000'
g187
tp404
a(S'2015-07-10 14:47:46.319000'
S'data saved as csv to C:\\Users\\Jbarrett\\Charlie\\charlie\\data\\csv\\4416_stroop.csv'
tp405
a(S'2015-07-10 14:47:47.354000'
g185
tp406
a(S'2015-07-10 14:47:47.364000'
g187
tp407
a(S'2015-07-10 14:47:47.369000'
S'data saved as csv to C:\\Users\\Jbarrett\\Charlie\\charlie\\data\\csv\\4416_stroop.csv'
tp408
a(S'2015-07-10 14:47:48.324000'
g185
tp409
a(S'2015-07-10 14:47:48.335000'
g187
tp410
a(S'2015-07-10 14:47:48.339000'
S'data saved as csv to C:\\Users\\Jbarrett\\Charlie\\charlie\\data\\csv\\4416_stroop.csv'
tp411
a(S'2015-07-10 14:47:49.392000'
g185
tp412
a(S'2015-07-10 14:47:49.403000'
g187
tp413
a(S'2015-07-10 14:47:49.407000'
S'data saved as csv to C:\\Users\\Jbarrett\\Charlie\\charlie\\data\\csv\\4416_stroop.csv'
tp414
a(S'2015-07-10 14:47:50.372000'
g185
tp415
a(S'2015-07-10 14:47:50.382000'
g187
tp416
a(S'2015-07-10 14:47:50.385000'
S'data saved as csv to C:\\Users\\Jbarrett\\Charlie\\charlie\\data\\csv\\4416_stroop.csv'
tp417
a(S'2015-07-10 14:47:51.367000'
g185
tp418
a(S'2015-07-10 14:47:51.378000'
g187
tp419
a(S'2015-07-10 14:47:51.383000'
S'data saved as csv to C:\\Users\\Jbarrett\\Charlie\\charlie\\data\\csv\\4416_stroop.csv'
tp420
a(S'2015-07-10 14:47:52.347000'
g185
tp421
a(S'2015-07-10 14:47:52.358000'
g187
tp422
a(S'2015-07-10 14:47:52.362000'
S'data saved as csv to C:\\Users\\Jbarrett\\Charlie\\charlie\\data\\csv\\4416_stroop.csv'
tp423
a(S'2015-07-10 14:47:53.824000'
g185
tp424
a(S'2015-07-10 14:47:53.833000'
g187
tp425
a(S'2015-07-10 14:47:53.836000'
S'data saved as csv to C:\\Users\\Jbarrett\\Charlie\\charlie\\data\\csv\\4416_stroop.csv'
tp426
a(S'2015-07-10 14:47:55.118000'
g185
tp427
a(S'2015-07-10 14:47:55.129000'
g187
tp428
a(S'2015-07-10 14:47:55.134000'
S'data saved as csv to C:\\Users\\Jbarrett\\Charlie\\charlie\\data\\csv\\4416_stroop.csv'
tp429
a(S'2015-07-10 14:47:56.458000'
g185
tp430
a(S'2015-07-10 14:47:56.469000'
g187
tp431
a(S'2015-07-10 14:47:56.473000'
S'data saved as csv to C:\\Users\\Jbarrett\\Charlie\\charlie\\data\\csv\\4416_stroop.csv'
tp432
a(S'2015-07-10 14:47:57.494000'
g185
tp433
a(S'2015-07-10 14:47:57.505000'
g187
tp434
a(S'2015-07-10 14:47:57.510000'
S'data saved as csv to C:\\Users\\Jbarrett\\Charlie\\charlie\\data\\csv\\4416_stroop.csv'
tp435
a(S'2015-07-10 14:47:59.145000'
g185
tp436
a(S'2015-07-10 14:47:59.156000'
g187
tp437
a(S'2015-07-10 14:47:59.161000'
S'data saved as csv to C:\\Users\\Jbarrett\\Charlie\\charlie\\data\\csv\\4416_stroop.csv'
tp438
a(S'2015-07-10 14:48:00.026000'
g185
tp439
a(S'2015-07-10 14:48:00.037000'
g187
tp440
a(S'2015-07-10 14:48:00.042000'
S'data saved as csv to C:\\Users\\Jbarrett\\Charlie\\charlie\\data\\csv\\4416_stroop.csv'
tp441
a(S'2015-07-10 14:48:00.963000'
g185
tp442
a(S'2015-07-10 14:48:00.973000'
g187
tp443
a(S'2015-07-10 14:48:00.976000'
S'data saved as csv to C:\\Users\\Jbarrett\\Charlie\\charlie\\data\\csv\\4416_stroop.csv'
tp444
a(S'2015-07-10 14:48:02.358000'
g185
tp445
a(S'2015-07-10 14:48:02.369000'
g187
tp446
a(S'2015-07-10 14:48:02.374000'
S'data saved as csv to C:\\Users\\Jbarrett\\Charlie\\charlie\\data\\csv\\4416_stroop.csv'
tp447
a(S'2015-07-10 14:48:03.239000'
g185
tp448
a(S'2015-07-10 14:48:03.250000'
g187
tp449
a(S'2015-07-10 14:48:03.253000'
S'data saved as csv to C:\\Users\\Jbarrett\\Charlie\\charlie\\data\\csv\\4416_stroop.csv'
tp450
a(S'2015-07-10 14:48:04.085000'
g185
tp451
a(S'2015-07-10 14:48:04.094000'
g187
tp452
a(S'2015-07-10 14:48:04.098000'
S'data saved as csv to C:\\Users\\Jbarrett\\Charlie\\charlie\\data\\csv\\4416_stroop.csv'
tp453
a(S'2015-07-10 14:48:04.971000'
g185
tp454
a(S'2015-07-10 14:48:04.982000'
g187
tp455
a(S'2015-07-10 14:48:04.987000'
S'data saved as csv to C:\\Users\\Jbarrett\\Charlie\\charlie\\data\\csv\\4416_stroop.csv'
tp456
a(S'2015-07-10 14:48:06.001000'
g185
tp457
a(S'2015-07-10 14:48:06.012000'
g187
tp458
a(S'2015-07-10 14:48:06.014000'
S'data saved as csv to C:\\Users\\Jbarrett\\Charlie\\charlie\\data\\csv\\4416_stroop.csv'
tp459
a(S'2015-07-10 14:48:06.917000'
g185
tp460
a(S'2015-07-10 14:48:06.928000'
g187
tp461
a(S'2015-07-10 14:48:06.933000'
S'data saved as csv to C:\\Users\\Jbarrett\\Charlie\\charlie\\data\\csv\\4416_stroop.csv'
tp462
a(S'2015-07-10 14:48:07.949000'
g185
tp463
a(S'2015-07-10 14:48:07.960000'
g187
tp464
a(S'2015-07-10 14:48:07.963000'
S'data saved as csv to C:\\Users\\Jbarrett\\Charlie\\charlie\\data\\csv\\4416_stroop.csv'
tp465
a(S'2015-07-10 14:48:10.016000'
g185
tp466
a(S'2015-07-10 14:48:10.027000'
g187
tp467
a(S'2015-07-10 14:48:10.032000'
S'data saved as csv to C:\\Users\\Jbarrett\\Charlie\\charlie\\data\\csv\\4416_stroop.csv'
tp468
a(S'2015-07-10 14:48:10.904000'
g185
tp469
a(S'2015-07-10 14:48:10.916000'
g187
tp470
a(S'2015-07-10 14:48:10.921000'
S'data saved as csv to C:\\Users\\Jbarrett\\Charlie\\charlie\\data\\csv\\4416_stroop.csv'
tp471
a(S'2015-07-10 14:48:11.895000'
g185
tp472
a(S'2015-07-10 14:48:11.906000'
g187
tp473
a(S'2015-07-10 14:48:11.911000'
S'data saved as csv to C:\\Users\\Jbarrett\\Charlie\\charlie\\data\\csv\\4416_stroop.csv'
tp474
a(S'2015-07-10 14:48:12.947000'
g185
tp475
a(S'2015-07-10 14:48:12.957000'
g187
tp476
a(S'2015-07-10 14:48:12.962000'
S'data saved as csv to C:\\Users\\Jbarrett\\Charlie\\charlie\\data\\csv\\4416_stroop.csv'
tp477
a(S'2015-07-10 14:48:13.887000'
g185
tp478
a(S'2015-07-10 14:48:13.898000'
g187
tp479
a(S'2015-07-10 14:48:13.902000'
S'data saved as csv to C:\\Users\\Jbarrett\\Charlie\\charlie\\data\\csv\\4416_stroop.csv'
tp480
a(S'2015-07-10 14:48:15.244000'
g185
tp481
a(S'2015-07-10 14:48:15.253000'
g187
tp482
a(S'2015-07-10 14:48:15.256000'
S'data saved as csv to C:\\Users\\Jbarrett\\Charlie\\charlie\\data\\csv\\4416_stroop.csv'
tp483
a(S'2015-07-10 14:48:16.159000'
g185
tp484
a(S'2015-07-10 14:48:16.170000'
g187
tp485
a(S'2015-07-10 14:48:16.174000'
S'data saved as csv to C:\\Users\\Jbarrett\\Charlie\\charlie\\data\\csv\\4416_stroop.csv'
tp486
a(S'2015-07-10 14:48:17.080000'
g185
tp487
a(S'2015-07-10 14:48:17.091000'
g187
tp488
a(S'2015-07-10 14:48:17.096000'
S'data saved as csv to C:\\Users\\Jbarrett\\Charlie\\charlie\\data\\csv\\4416_stroop.csv'
tp489
a(S'2015-07-10 14:48:18.031000'
g185
tp490
a(S'2015-07-10 14:48:18.042000'
g187
tp491
a(S'2015-07-10 14:48:18.045000'
S'data saved as csv to C:\\Users\\Jbarrett\\Charlie\\charlie\\data\\csv\\4416_stroop.csv'
tp492
a(S'2015-07-10 14:48:19.047000'
g185
tp493
a(S'2015-07-10 14:48:19.058000'
g187
tp494
a(S'2015-07-10 14:48:19.062000'
S'data saved as csv to C:\\Users\\Jbarrett\\Charlie\\charlie\\data\\csv\\4416_stroop.csv'
tp495
a(S'2015-07-10 14:48:20.215000'
g185
tp496
a(S'2015-07-10 14:48:20.226000'
g187
tp497
a(S'2015-07-10 14:48:20.231000'
S'data saved as csv to C:\\Users\\Jbarrett\\Charlie\\charlie\\data\\csv\\4416_stroop.csv'
tp498
a(S'2015-07-10 14:48:20.983000'
g185
tp499
a(S'2015-07-10 14:48:20.994000'
g187
tp500
a(S'2015-07-10 14:48:20.999000'
S'data saved as csv to C:\\Users\\Jbarrett\\Charlie\\charlie\\data\\csv\\4416_stroop.csv'
tp501
a(S'2015-07-10 14:48:21.974000'
g185
tp502
a(S'2015-07-10 14:48:21.985000'
g187
tp503
a(S'2015-07-10 14:48:21.990000'
S'data saved as csv to C:\\Users\\Jbarrett\\Charlie\\charlie\\data\\csv\\4416_stroop.csv'
tp504
a(S'2015-07-10 14:48:23.136000'
g185
tp505
a(S'2015-07-10 14:48:23.147000'
g187
tp506
a(S'2015-07-10 14:48:23.152000'
S'data saved as csv to C:\\Users\\Jbarrett\\Charlie\\charlie\\data\\csv\\4416_stroop.csv'
tp507
a(S'2015-07-10 14:48:24.767000'
g185
tp508
a(S'2015-07-10 14:48:24.779000'
g187
tp509
a(S'2015-07-10 14:48:24.784000'
S'data saved as csv to C:\\Users\\Jbarrett\\Charlie\\charlie\\data\\csv\\4416_stroop.csv'
tp510
a(S'2015-07-10 14:48:25.849000'
g185
tp511
a(S'2015-07-10 14:48:25.860000'
g187
tp512
a(S'2015-07-10 14:48:25.865000'
S'data saved as csv to C:\\Users\\Jbarrett\\Charlie\\charlie\\data\\csv\\4416_stroop.csv'
tp513
a(S'2015-07-10 14:48:26.939000'
g185
tp514
a(S'2015-07-10 14:48:26.950000'
g187
tp515
a(S'2015-07-10 14:48:26.953000'
S'data saved as csv to C:\\Users\\Jbarrett\\Charlie\\charlie\\data\\csv\\4416_stroop.csv'
tp516
a(S'2015-07-10 14:48:28.076000'
g185
tp517
a(S'2015-07-10 14:48:28.086000'
g187
tp518
a(S'2015-07-10 14:48:28.091000'
S'data saved as csv to C:\\Users\\Jbarrett\\Charlie\\charlie\\data\\csv\\4416_stroop.csv'
tp519
a(S'2015-07-10 14:48:28.804000'
g185
tp520
a(S'2015-07-10 14:48:28.812000'
g187
tp521
a(S'2015-07-10 14:48:28.815000'
S'data saved as csv to C:\\Users\\Jbarrett\\Charlie\\charlie\\data\\csv\\4416_stroop.csv'
tp522
a(S'2015-07-10 14:48:29.858000'
g185
tp523
a(S'2015-07-10 14:48:29.869000'
g187
tp524
a(S'2015-07-10 14:48:29.874000'
S'data saved as csv to C:\\Users\\Jbarrett\\Charlie\\charlie\\data\\csv\\4416_stroop.csv'
tp525
a(S'2015-07-10 14:48:30.629000'
g185
tp526
a(S'2015-07-10 14:48:30.640000'
g187
tp527
a(S'2015-07-10 14:48:30.643000'
S'data saved as csv to C:\\Users\\Jbarrett\\Charlie\\charlie\\data\\csv\\4416_stroop.csv'
tp528
a(S'2015-07-10 14:48:31.831000'
g185
tp529
a(S'2015-07-10 14:48:31.841000'
g187
tp530
a(S'2015-07-10 14:48:31.844000'
S'data saved as csv to C:\\Users\\Jbarrett\\Charlie\\charlie\\data\\csv\\4416_stroop.csv'
tp531
a(S'2015-07-10 14:48:32.867000'
g185
tp532
a(S'2015-07-10 14:48:32.878000'
g187
tp533
a(S'2015-07-10 14:48:32.883000'
S'data saved as csv to C:\\Users\\Jbarrett\\Charlie\\charlie\\data\\csv\\4416_stroop.csv'
tp534
asb.