(icharlie.tools.data
Data
p1
(dp2
S'lang'
p3
S'EN'
p4
sS'control'
p5
(lp6
sS'last_updated'
p7
cdatetime
datetime
p8
(S'\x07\xdf\x07\x15\r$&\x04U`'
tRp9
sS'last_opened'
p10
g8
(S'\x07\xdf\x07\x15\r\x1d8\t;H'
tRp11
sS'proj_id'
p12
S'connectivity'
p13
sS'date_done'
p14
g8
(S'\x07\xdf\x07\x15\r$&\x03c0'
tRp15
sS'test_done'
p16
I01
sS'data'
p17
(lp18
(S'4422'
p19
S'cvlt2'
p20
I0
csip
_unpickle_type
p21
(S'PyQt4.QtCore'
p22
S'QString'
(Vspinach
p23
ttRp24
tp25
a(g19
g20
I0
g21
(g22
S'QString'
(Vbookcase
p26
ttRp27
tp28
a(g19
g20
I0
g21
(g22
S'QString'
(Vcabbage
p29
ttRp30
tp31
a(g19
g20
I0
g21
(g22
S'QString'
(Vcow
p32
ttRp33
tp34
a(g19
g20
I1
g21
(g22
S'QString'
(Vtruck
p35
ttRp36
tp37
a(g19
g20
I1
g21
(g22
S'QString'
(Vspinach
p38
ttRp39
tp40
a(g19
g20
I1
g21
(g22
S'QString'
(Vbookcase
p41
ttRp42
tp43
a(g19
g20
I1
g21
(g22
S'QString'
(Vzebra
p44
ttRp45
tp46
a(g19
g20
I1
g21
(g22
S'QString'
(Vonion
p47
ttRp48
tp49
a(g19
g20
I2
g21
(g22
S'QString'
(Vcabbage
p50
ttRp51
tp52
a(g19
g20
I2
g21
(g22
S'QString'
(Vsquirrel
p53
ttRp54
tp55
a(g19
g20
I2
g21
(g22
S'QString'
(Vdesk
p56
ttRp57
tp58
a(g19
g20
I2
g21
(g22
S'QString'
(Vbookcase
p59
ttRp60
tp61
a(g19
g20
I2
g21
(g22
S'QString'
(Vspinach
p62
ttRp63
tp64
a(g19
g20
I2
g21
(g22
S'QString'
(Vtruck
p65
ttRp66
tp67
a(g19
g20
I2
g21
(g22
S'QString'
(Vonion
p68
ttRp69
tp70
a(g19
g20
I2
g21
(g22
S'QString'
(Vgiraffe
p71
ttRp72
tp73
a(g19
g20
I2
g21
(g22
S'QString'
(Vzebra
p74
ttRp75
tp76
a(g19
g20
I2
g21
(g22
S'QString'
(Vsubway
p77
ttRp78
tp79
a(g19
g20
I3
g21
(g22
S'QString'
(Vtruck
p80
ttRp81
tp82
a(g19
g20
I3
g21
(g22
S'QString'
(Vspinach
p83
ttRp84
tp85
a(g19
g20
I3
g21
(g22
S'QString'
(Vcelery
p86
ttRp87
tp88
a(g19
g20
I3
g21
(g22
S'QString'
(Vzebra
p89
ttRp90
tp91
a(g19
g20
I3
g21
(g22
S'QString'
(Vcabbage
p92
ttRp93
tp94
a(g19
g20
I3
g21
(g22
S'QString'
(Vsquirrel
p95
ttRp96
tp97
a(g19
g20
I3
g21
(g22
S'QString'
(Vgiraffe
p98
ttRp99
tp100
a(g19
g20
I3
g21
(g22
S'QString'
(Vbookcase
p101
ttRp102
tp103
a(g19
g20
I3
g21
(g22
S'QString'
(Vsubway
p104
ttRp105
tp106
a(g19
g20
I3
g21
(g22
S'QString'
(Vcow
p107
ttRp108
tp109
a(g19
g20
I3
g21
(g22
S'QString'
(Vcabbage
p110
ttRp111
tp112
a(g19
g20
I3
g21
(g22
S'QString'
(Vtruck
p113
ttRp114
tp115
a(g19
g20
I3
g21
(g22
S'QString'
(Vboat
p116
ttRp117
tp118
a(g19
g20
I4
g21
(g22
S'QString'
(Vtruck
p119
ttRp120
tp121
a(g19
g20
I4
g21
(g22
S'QString'
(Vspinach
p122
ttRp123
tp124
a(g19
g20
I4
g21
(g22
S'QString'
(Vgiraffe
p125
ttRp126
tp127
a(g19
g20
I4
g21
(g22
S'QString'
(Vbookcase
p128
ttRp129
tp130
a(g19
g20
I4
g21
(g22
S'QString'
(Vzebra
p131
ttRp132
tp133
a(g19
g20
I4
g21
(g22
S'QString'
(Vboat
p134
ttRp135
tp136
a(g19
g20
I4
g21
(g22
S'QString'
(Vmotorcycle
p137
ttRp138
tp139
a(g19
g20
I4
g21
(g22
S'QString'
(Vcabinet
p140
ttRp141
tp142
a(g19
g20
I4
g21
(g22
S'QString'
(Vdesk
p143
ttRp144
tp145
a(g19
g20
I4
g21
(g22
S'QString'
(Vsquirrel
p146
ttRp147
tp148
a(g19
g20
I4
g21
(g22
S'QString'
(Vcelery
p149
ttRp150
tp151
a(g19
g20
I4
g21
(g22
S'QString'
(Vcabbage
p152
ttRp153
tp154
a(g19
g20
I4
g21
(g22
S'QString'
(Vsubway
p155
ttRp156
tp157
asS'output_format'
p158
(lp159
(S'proband_id'
p160
c__builtin__
str
p161
tp162
a(S'test_name'
p163
g161
tp164
a(S'trialn'
p165
c__builtin__
int
p166
tp167
a(S'rsp'
p168
g161
tp169
asg160
g19
sS'filename'
p170
S'4422_cvlt2.data'
p171
sS'initialised'
p172
g8
(S'\x07\xdf\x07\x15\r\x1d8\t;H'
tRp173
sS'last_udated'
p174
g8
(S'\x07\xdf\x07\x15\r\x1d8\t;H'
tRp175
sg163
S'cvlt2'
p176
sS'directory'
p177
S'C:\\Users\\Jbarrett\\Charlie\\charlie\\data\\raw'
p178
sS'user_id'
p179
S'barrett'
p180
sS'test_started'
p181
I01
sS'abs_filename'
p182
S'C:\\Users\\Jbarrett\\Charlie\\charlie\\data\\raw\\4422_cvlt2.data'
p183
sS'date_started'
p184
g8
(S"\x07\xdf\x07\x15\r\x1f'\x05\xa5P"
tRp185
sS'log'
p186
(lp187
(S'2015-07-21 13:29:56.605000'
S'instance created'
p188
tp189
a(S'2015-07-21 13:31:39.380000'
S'instance updated'
p190
tp191
a(S'2015-07-21 13:31:39.393000'
S'pandas DataFrame of data created'
p192
tp193
a(S'2015-07-21 13:31:39.399000'
S'data saved as csv to C:\\Users\\Jbarrett\\Charlie\\charlie\\data\\csv\\4422_cvlt2.csv'
tp194
a(S'2015-07-21 13:32:29.239000'
g190
tp195
a(S'2015-07-21 13:32:29.252000'
g192
tp196
a(S'2015-07-21 13:32:29.255000'
S'data saved as csv to C:\\Users\\Jbarrett\\Charlie\\charlie\\data\\csv\\4422_cvlt2.csv'
tp197
a(S'2015-07-21 13:32:50.030000'
g190
tp198
a(S'2015-07-21 13:32:50.052000'
g192
tp199
a(S'2015-07-21 13:32:50.056000'
S'data saved as csv to C:\\Users\\Jbarrett\\Charlie\\charlie\\data\\csv\\4422_cvlt2.csv'
tp200
a(S'2015-07-21 13:33:32.017000'
g190
tp201
a(S'2015-07-21 13:33:32.036000'
g192
tp202
a(S'2015-07-21 13:33:32.038000'
S'data saved as csv to C:\\Users\\Jbarrett\\Charlie\\charlie\\data\\csv\\4422_cvlt2.csv'
tp203
a(S'2015-07-21 13:34:00.320000'
g190
tp204
a(S'2015-07-21 13:34:00.355000'
g192
tp205
a(S'2015-07-21 13:34:00.356000'
S'data saved as csv to C:\\Users\\Jbarrett\\Charlie\\charlie\\data\\csv\\4422_cvlt2.csv'
tp206
a(S'2015-07-21 13:34:39.182000'
g190
tp207
a(S'2015-07-21 13:34:39.212000'
g192
tp208
a(S'2015-07-21 13:34:39.214000'
S'data saved as csv to C:\\Users\\Jbarrett\\Charlie\\charlie\\data\\csv\\4422_cvlt2.csv'
tp209
a(S'2015-07-21 13:35:18.340000'
g190
tp210
a(S'2015-07-21 13:35:18.388000'
g192
tp211
a(S'2015-07-21 13:35:18.389000'
S'data saved as csv to C:\\Users\\Jbarrett\\Charlie\\charlie\\data\\csv\\4422_cvlt2.csv'
tp212
a(S'2015-07-21 13:36:03.992000'
g190
tp213
a(S'2015-07-21 13:36:04.043000'
g192
tp214
a(S'2015-07-21 13:36:04.045000'
S'data saved as csv to C:\\Users\\Jbarrett\\Charlie\\charlie\\data\\csv\\4422_cvlt2.csv'
tp215
a(S'2015-07-21 13:36:38.222000'
g190
tp216
a(S'2015-07-21 13:36:38.283000'
g192
tp217
a(S'2015-07-21 13:36:38.284000'
S'data saved as csv to C:\\Users\\Jbarrett\\Charlie\\charlie\\data\\csv\\4422_cvlt2.csv'
tp218
asb.