(icharlie.tools.data
Data
p1
(dp2
S'lang'
p3
S'EN'
p4
sS'control'
p5
(lp6
sS'last_updated'
p7
cdatetime
datetime
p8
(S'\x07\xdf\x07\x16\x0c\x05/\x08\x16P'
tRp9
sS'last_opened'
p10
g8
(S'\x07\xdf\x07\x16\x0c\x04\x1f\x02\xb7P'
tRp11
sS'proj_id'
p12
S'connectivity'
p13
sS'date_done'
p14
NsS'test_done'
p15
I01
sS'data'
p16
(lp17
(S'4424'
p18
S'face_memory_delay'
p19
S'test'
p20
I0
S'C:\\Users\\Jbarrett\\Charlie\\charlie\\stimuli\\visual\\face_memory_delay\\ddis10.bmp'
S'No'
p21
S'Yes'
p22
I2040
tp23
a(g18
g19
g20
I1
S'C:\\Users\\Jbarrett\\Charlie\\charlie\\stimuli\\visual\\face_memory_delay\\ddis04.bmp'
g21
g22
I1671
tp24
a(g18
g19
g20
I2
S'C:\\Users\\Jbarrett\\Charlie\\charlie\\stimuli\\visual\\face_memory_delay\\tar07.bmp'
g22
g22
I910
tp25
a(g18
g19
g20
I3
S'C:\\Users\\Jbarrett\\Charlie\\charlie\\stimuli\\visual\\face_memory_delay\\tar18.bmp'
g22
g22
I770
tp26
a(g18
g19
g20
I4
S'C:\\Users\\Jbarrett\\Charlie\\charlie\\stimuli\\visual\\face_memory_delay\\ddis14.bmp'
g21
g21
I2410
tp27
a(g18
g19
g20
I5
S'C:\\Users\\Jbarrett\\Charlie\\charlie\\stimuli\\visual\\face_memory_delay\\tar19.bmp'
g22
g22
I1190
tp28
a(g18
g19
g20
I6
S'C:\\Users\\Jbarrett\\Charlie\\charlie\\stimuli\\visual\\face_memory_delay\\ddis13.bmp'
g21
g21
I970
tp29
a(g18
g19
g20
I7
S'C:\\Users\\Jbarrett\\Charlie\\charlie\\stimuli\\visual\\face_memory_delay\\tar15.bmp'
g22
g22
I950
tp30
a(g18
g19
g20
I8
S'C:\\Users\\Jbarrett\\Charlie\\charlie\\stimuli\\visual\\face_memory_delay\\tar11.bmp'
g22
g22
I730
tp31
a(g18
g19
g20
I9
S'C:\\Users\\Jbarrett\\Charlie\\charlie\\stimuli\\visual\\face_memory_delay\\ddis05.bmp'
g21
g21
I1470
tp32
a(g18
g19
g20
I10
S'C:\\Users\\Jbarrett\\Charlie\\charlie\\stimuli\\visual\\face_memory_delay\\ddis01.bmp'
g21
g21
I1030
tp33
a(g18
g19
g20
I11
S'C:\\Users\\Jbarrett\\Charlie\\charlie\\stimuli\\visual\\face_memory_delay\\ddis16.bmp'
g21
g21
I990
tp34
a(g18
g19
g20
I12
S'C:\\Users\\Jbarrett\\Charlie\\charlie\\stimuli\\visual\\face_memory_delay\\tar02.bmp'
g22
g22
I1040
tp35
a(g18
g19
g20
I13
S'C:\\Users\\Jbarrett\\Charlie\\charlie\\stimuli\\visual\\face_memory_delay\\tar08.bmp'
g22
g22
I690
tp36
a(g18
g19
g20
I14
S'C:\\Users\\Jbarrett\\Charlie\\charlie\\stimuli\\visual\\face_memory_delay\\tar13.bmp'
g22
g22
I1040
tp37
a(g18
g19
g20
I15
S'C:\\Users\\Jbarrett\\Charlie\\charlie\\stimuli\\visual\\face_memory_delay\\tar20.bmp'
g22
g22
I740
tp38
a(g18
g19
g20
I16
S'C:\\Users\\Jbarrett\\Charlie\\charlie\\stimuli\\visual\\face_memory_delay\\ddis18.bmp'
g21
g21
I1231
tp39
a(g18
g19
g20
I17
S'C:\\Users\\Jbarrett\\Charlie\\charlie\\stimuli\\visual\\face_memory_delay\\tar06.bmp'
g22
g22
I980
tp40
a(g18
g19
g20
I18
S'C:\\Users\\Jbarrett\\Charlie\\charlie\\stimuli\\visual\\face_memory_delay\\ddis07.bmp'
g21
g21
I1820
tp41
a(g18
g19
g20
I19
S'C:\\Users\\Jbarrett\\Charlie\\charlie\\stimuli\\visual\\face_memory_delay\\ddis08.bmp'
g21
g22
I1010
tp42
a(g18
g19
g20
I20
S'C:\\Users\\Jbarrett\\Charlie\\charlie\\stimuli\\visual\\face_memory_delay\\tar12.bmp'
g22
g22
I1180
tp43
a(g18
g19
g20
I21
S'C:\\Users\\Jbarrett\\Charlie\\charlie\\stimuli\\visual\\face_memory_delay\\ddis17.bmp'
g21
g21
I870
tp44
a(g18
g19
g20
I22
S'C:\\Users\\Jbarrett\\Charlie\\charlie\\stimuli\\visual\\face_memory_delay\\tar05.bmp'
g22
g22
I920
tp45
a(g18
g19
g20
I23
S'C:\\Users\\Jbarrett\\Charlie\\charlie\\stimuli\\visual\\face_memory_delay\\tar10.bmp'
g22
g22
I940
tp46
a(g18
g19
g20
I24
S'C:\\Users\\Jbarrett\\Charlie\\charlie\\stimuli\\visual\\face_memory_delay\\ddis02.bmp'
g21
g21
I1370
tp47
a(g18
g19
g20
I25
S'C:\\Users\\Jbarrett\\Charlie\\charlie\\stimuli\\visual\\face_memory_delay\\ddis20.bmp'
g21
g21
I860
tp48
a(g18
g19
g20
I26
S'C:\\Users\\Jbarrett\\Charlie\\charlie\\stimuli\\visual\\face_memory_delay\\tar17.bmp'
g22
g22
I1150
tp49
a(g18
g19
g20
I27
S'C:\\Users\\Jbarrett\\Charlie\\charlie\\stimuli\\visual\\face_memory_delay\\ddis15.bmp'
g21
g21
I1150
tp50
a(g18
g19
g20
I28
S'C:\\Users\\Jbarrett\\Charlie\\charlie\\stimuli\\visual\\face_memory_delay\\tar03.bmp'
g22
g22
I930
tp51
a(g18
g19
g20
I29
S'C:\\Users\\Jbarrett\\Charlie\\charlie\\stimuli\\visual\\face_memory_delay\\ddis19.bmp'
g21
g21
I1971
tp52
a(g18
g19
g20
I30
S'C:\\Users\\Jbarrett\\Charlie\\charlie\\stimuli\\visual\\face_memory_delay\\ddis12.bmp'
g21
g22
I900
tp53
a(g18
g19
g20
I31
S'C:\\Users\\Jbarrett\\Charlie\\charlie\\stimuli\\visual\\face_memory_delay\\tar16.bmp'
g22
g22
I3420
tp54
a(g18
g19
g20
I32
S'C:\\Users\\Jbarrett\\Charlie\\charlie\\stimuli\\visual\\face_memory_delay\\tar09.bmp'
g22
g22
I1220
tp55
a(g18
g19
g20
I33
S'C:\\Users\\Jbarrett\\Charlie\\charlie\\stimuli\\visual\\face_memory_delay\\ddis09.bmp'
g21
g21
I940
tp56
a(g18
g19
g20
I34
S'C:\\Users\\Jbarrett\\Charlie\\charlie\\stimuli\\visual\\face_memory_delay\\tar01.bmp'
g22
g22
I1490
tp57
a(g18
g19
g20
I35
S'C:\\Users\\Jbarrett\\Charlie\\charlie\\stimuli\\visual\\face_memory_delay\\ddis11.bmp'
g21
g21
I980
tp58
a(g18
g19
g20
I36
S'C:\\Users\\Jbarrett\\Charlie\\charlie\\stimuli\\visual\\face_memory_delay\\ddis03.bmp'
g21
g21
I1000
tp59
a(g18
g19
g20
I37
S'C:\\Users\\Jbarrett\\Charlie\\charlie\\stimuli\\visual\\face_memory_delay\\tar04.bmp'
g22
g21
I1650
tp60
a(g18
g19
g20
I38
S'C:\\Users\\Jbarrett\\Charlie\\charlie\\stimuli\\visual\\face_memory_delay\\tar14.bmp'
g22
g22
I960
tp61
a(g18
g19
g20
I39
S'C:\\Users\\Jbarrett\\Charlie\\charlie\\stimuli\\visual\\face_memory_delay\\ddis06.bmp'
p62
g21
g21
I1070
tp63
asS'output_format'
p64
(lp65
(S'proband_id'
p66
c__builtin__
str
p67
tp68
a(S'test_name'
p69
g67
tp70
a(S'phase'
p71
g67
tp72
a(S'trialn'
p73
c__builtin__
int
p74
tp75
a(S'f'
g67
tp76
a(S'ans'
p77
g67
tp78
a(S'rsp'
p79
g67
tp80
a(S'rt'
p81
g74
tp82
asg66
g18
sS'filename'
p83
S'4424_face_memory_delay.data'
p84
sS'initialised'
p85
g8
(S'\x07\xdf\x07\x16\x0c\x04\x1f\x02\xb7P'
tRp86
sS'last_udated'
p87
g8
(S'\x07\xdf\x07\x16\x0c\x04\x1f\x02\xb7P'
tRp88
sg69
S'face_memory_delay'
p89
sS'directory'
p90
S'C:\\Users\\Jbarrett\\Charlie\\charlie\\data\\raw'
p91
sS'user_id'
p92
S'barrett'
p93
sS'test_started'
p94
I01
sS'abs_filename'
p95
S'C:\\Users\\Jbarrett\\Charlie\\charlie\\data\\raw\\4424_face_memory_delay.data'
p96
sS'date_started'
p97
g8
(S'\x07\xdf\x07\x16\x0c\x047\x05\xf7X'
tRp98
sS'log'
p99
(lp100
(S'2015-07-22 12:04:31.178000'
S'instance created'
p101
tp102
a(S'2015-07-22 12:04:55.401000'
S'instance updated'
p103
tp104
a(S'2015-07-22 12:04:55.409000'
S'pandas DataFrame of data created'
p105
tp106
a(S'2015-07-22 12:04:55.420000'
S'data saved as csv to C:\\Users\\Jbarrett\\Charlie\\charlie\\data\\csv\\4424_face_memory_delay.csv'
tp107
a(S'2015-07-22 12:04:57.217000'
g103
tp108
a(S'2015-07-22 12:04:57.225000'
g105
tp109
a(S'2015-07-22 12:04:57.229000'
S'data saved as csv to C:\\Users\\Jbarrett\\Charlie\\charlie\\data\\csv\\4424_face_memory_delay.csv'
tp110
a(S'2015-07-22 12:04:58.259000'
g103
tp111
a(S'2015-07-22 12:04:58.264000'
g105
tp112
a(S'2015-07-22 12:04:58.266000'
S'data saved as csv to C:\\Users\\Jbarrett\\Charlie\\charlie\\data\\csv\\4424_face_memory_delay.csv'
tp113
a(S'2015-07-22 12:04:59.164000'
g103
tp114
a(S'2015-07-22 12:04:59.173000'
g105
tp115
a(S'2015-07-22 12:04:59.176000'
S'data saved as csv to C:\\Users\\Jbarrett\\Charlie\\charlie\\data\\csv\\4424_face_memory_delay.csv'
tp116
a(S'2015-07-22 12:05:01.718000'
g103
tp117
a(S'2015-07-22 12:05:01.727000'
g105
tp118
a(S'2015-07-22 12:05:01.731000'
S'data saved as csv to C:\\Users\\Jbarrett\\Charlie\\charlie\\data\\csv\\4424_face_memory_delay.csv'
tp119
a(S'2015-07-22 12:05:03.050000'
g103
tp120
a(S'2015-07-22 12:05:03.059000'
g105
tp121
a(S'2015-07-22 12:05:03.063000'
S'data saved as csv to C:\\Users\\Jbarrett\\Charlie\\charlie\\data\\csv\\4424_face_memory_delay.csv'
tp122
a(S'2015-07-22 12:05:04.162000'
g103
tp123
a(S'2015-07-22 12:05:04.171000'
g105
tp124
a(S'2015-07-22 12:05:04.174000'
S'data saved as csv to C:\\Users\\Jbarrett\\Charlie\\charlie\\data\\csv\\4424_face_memory_delay.csv'
tp125
a(S'2015-07-22 12:05:05.253000'
g103
tp126
a(S'2015-07-22 12:05:05.260000'
g105
tp127
a(S'2015-07-22 12:05:05.262000'
S'data saved as csv to C:\\Users\\Jbarrett\\Charlie\\charlie\\data\\csv\\4424_face_memory_delay.csv'
tp128
a(S'2015-07-22 12:05:06.120000'
g103
tp129
a(S'2015-07-22 12:05:06.129000'
g105
tp130
a(S'2015-07-22 12:05:06.131000'
S'data saved as csv to C:\\Users\\Jbarrett\\Charlie\\charlie\\data\\csv\\4424_face_memory_delay.csv'
tp131
a(S'2015-07-22 12:05:07.728000'
g103
tp132
a(S'2015-07-22 12:05:07.736000'
g105
tp133
a(S'2015-07-22 12:05:07.740000'
S'data saved as csv to C:\\Users\\Jbarrett\\Charlie\\charlie\\data\\csv\\4424_face_memory_delay.csv'
tp134
a(S'2015-07-22 12:05:08.899000'
g103
tp135
a(S'2015-07-22 12:05:08.908000'
g105
tp136
a(S'2015-07-22 12:05:08.911000'
S'data saved as csv to C:\\Users\\Jbarrett\\Charlie\\charlie\\data\\csv\\4424_face_memory_delay.csv'
tp137
a(S'2015-07-22 12:05:10.030000'
g103
tp138
a(S'2015-07-22 12:05:10.039000'
g105
tp139
a(S'2015-07-22 12:05:10.043000'
S'data saved as csv to C:\\Users\\Jbarrett\\Charlie\\charlie\\data\\csv\\4424_face_memory_delay.csv'
tp140
a(S'2015-07-22 12:05:11.212000'
g103
tp141
a(S'2015-07-22 12:05:11.221000'
g105
tp142
a(S'2015-07-22 12:05:11.224000'
S'data saved as csv to C:\\Users\\Jbarrett\\Charlie\\charlie\\data\\csv\\4424_face_memory_delay.csv'
tp143
a(S'2015-07-22 12:05:12.044000'
g103
tp144
a(S'2015-07-22 12:05:12.053000'
g105
tp145
a(S'2015-07-22 12:05:12.057000'
S'data saved as csv to C:\\Users\\Jbarrett\\Charlie\\charlie\\data\\csv\\4424_face_memory_delay.csv'
tp146
a(S'2015-07-22 12:05:13.226000'
g103
tp147
a(S'2015-07-22 12:05:13.235000'
g105
tp148
a(S'2015-07-22 12:05:13.239000'
S'data saved as csv to C:\\Users\\Jbarrett\\Charlie\\charlie\\data\\csv\\4424_face_memory_delay.csv'
tp149
a(S'2015-07-22 12:05:14.106000'
g103
tp150
a(S'2015-07-22 12:05:14.115000'
g105
tp151
a(S'2015-07-22 12:05:14.119000'
S'data saved as csv to C:\\Users\\Jbarrett\\Charlie\\charlie\\data\\csv\\4424_face_memory_delay.csv'
tp152
a(S'2015-07-22 12:05:15.478000'
g103
tp153
a(S'2015-07-22 12:05:15.487000'
g105
tp154
a(S'2015-07-22 12:05:15.490000'
S'data saved as csv to C:\\Users\\Jbarrett\\Charlie\\charlie\\data\\csv\\4424_face_memory_delay.csv'
tp155
a(S'2015-07-22 12:05:16.597000'
g103
tp156
a(S'2015-07-22 12:05:16.606000'
g105
tp157
a(S'2015-07-22 12:05:16.610000'
S'data saved as csv to C:\\Users\\Jbarrett\\Charlie\\charlie\\data\\csv\\4424_face_memory_delay.csv'
tp158
a(S'2015-07-22 12:05:18.559000'
g103
tp159
a(S'2015-07-22 12:05:18.569000'
g105
tp160
a(S'2015-07-22 12:05:18.572000'
S'data saved as csv to C:\\Users\\Jbarrett\\Charlie\\charlie\\data\\csv\\4424_face_memory_delay.csv'
tp161
a(S'2015-07-22 12:05:19.712000'
g103
tp162
a(S'2015-07-22 12:05:19.720000'
g105
tp163
a(S'2015-07-22 12:05:19.722000'
S'data saved as csv to C:\\Users\\Jbarrett\\Charlie\\charlie\\data\\csv\\4424_face_memory_delay.csv'
tp164
a(S'2015-07-22 12:05:21.030000'
g103
tp165
a(S'2015-07-22 12:05:21.039000'
g105
tp166
a(S'2015-07-22 12:05:21.041000'
S'data saved as csv to C:\\Users\\Jbarrett\\Charlie\\charlie\\data\\csv\\4424_face_memory_delay.csv'
tp167
a(S'2015-07-22 12:05:22.039000'
g103
tp168
a(S'2015-07-22 12:05:22.048000'
g105
tp169
a(S'2015-07-22 12:05:22.052000'
S'data saved as csv to C:\\Users\\Jbarrett\\Charlie\\charlie\\data\\csv\\4424_face_memory_delay.csv'
tp170
a(S'2015-07-22 12:05:23.102000'
g103
tp171
a(S'2015-07-22 12:05:23.110000'
g105
tp172
a(S'2015-07-22 12:05:23.113000'
S'data saved as csv to C:\\Users\\Jbarrett\\Charlie\\charlie\\data\\csv\\4424_face_memory_delay.csv'
tp173
a(S'2015-07-22 12:05:24.181000'
g103
tp174
a(S'2015-07-22 12:05:24.190000'
g105
tp175
a(S'2015-07-22 12:05:24.192000'
S'data saved as csv to C:\\Users\\Jbarrett\\Charlie\\charlie\\data\\csv\\4424_face_memory_delay.csv'
tp176
a(S'2015-07-22 12:05:25.689000'
g103
tp177
a(S'2015-07-22 12:05:25.699000'
g105
tp178
a(S'2015-07-22 12:05:25.702000'
S'data saved as csv to C:\\Users\\Jbarrett\\Charlie\\charlie\\data\\csv\\4424_face_memory_delay.csv'
tp179
a(S'2015-07-22 12:05:26.693000'
g103
tp180
a(S'2015-07-22 12:05:26.702000'
g105
tp181
a(S'2015-07-22 12:05:26.706000'
S'data saved as csv to C:\\Users\\Jbarrett\\Charlie\\charlie\\data\\csv\\4424_face_memory_delay.csv'
tp182
a(S'2015-07-22 12:05:27.984000'
g103
tp183
a(S'2015-07-22 12:05:27.993000'
g105
tp184
a(S'2015-07-22 12:05:27.997000'
S'data saved as csv to C:\\Users\\Jbarrett\\Charlie\\charlie\\data\\csv\\4424_face_memory_delay.csv'
tp185
a(S'2015-07-22 12:05:29.276000'
g103
tp186
a(S'2015-07-22 12:05:29.285000'
g105
tp187
a(S'2015-07-22 12:05:29.289000'
S'data saved as csv to C:\\Users\\Jbarrett\\Charlie\\charlie\\data\\csv\\4424_face_memory_delay.csv'
tp188
a(S'2015-07-22 12:05:30.347000'
g103
tp189
a(S'2015-07-22 12:05:30.356000'
g105
tp190
a(S'2015-07-22 12:05:30.360000'
S'data saved as csv to C:\\Users\\Jbarrett\\Charlie\\charlie\\data\\csv\\4424_face_memory_delay.csv'
tp191
a(S'2015-07-22 12:05:32.462000'
g103
tp192
a(S'2015-07-22 12:05:32.471000'
g105
tp193
a(S'2015-07-22 12:05:32.474000'
S'data saved as csv to C:\\Users\\Jbarrett\\Charlie\\charlie\\data\\csv\\4424_face_memory_delay.csv'
tp194
a(S'2015-07-22 12:05:33.501000'
g103
tp195
a(S'2015-07-22 12:05:33.511000'
g105
tp196
a(S'2015-07-22 12:05:33.515000'
S'data saved as csv to C:\\Users\\Jbarrett\\Charlie\\charlie\\data\\csv\\4424_face_memory_delay.csv'
tp197
a(S'2015-07-22 12:05:37.066000'
g103
tp198
a(S'2015-07-22 12:05:37.075000'
g105
tp199
a(S'2015-07-22 12:05:37.079000'
S'data saved as csv to C:\\Users\\Jbarrett\\Charlie\\charlie\\data\\csv\\4424_face_memory_delay.csv'
tp200
a(S'2015-07-22 12:05:38.429000'
g103
tp201
a(S'2015-07-22 12:05:38.438000'
g105
tp202
a(S'2015-07-22 12:05:38.441000'
S'data saved as csv to C:\\Users\\Jbarrett\\Charlie\\charlie\\data\\csv\\4424_face_memory_delay.csv'
tp203
a(S'2015-07-22 12:05:39.508000'
g103
tp204
a(S'2015-07-22 12:05:39.518000'
g105
tp205
a(S'2015-07-22 12:05:39.521000'
S'data saved as csv to C:\\Users\\Jbarrett\\Charlie\\charlie\\data\\csv\\4424_face_memory_delay.csv'
tp206
a(S'2015-07-22 12:05:41.139000'
g103
tp207
a(S'2015-07-22 12:05:41.148000'
g105
tp208
a(S'2015-07-22 12:05:41.152000'
S'data saved as csv to C:\\Users\\Jbarrett\\Charlie\\charlie\\data\\csv\\4424_face_memory_delay.csv'
tp209
a(S'2015-07-22 12:05:42.264000'
g103
tp210
a(S'2015-07-22 12:05:42.273000'
g105
tp211
a(S'2015-07-22 12:05:42.277000'
S'data saved as csv to C:\\Users\\Jbarrett\\Charlie\\charlie\\data\\csv\\4424_face_memory_delay.csv'
tp212
a(S'2015-07-22 12:05:43.407000'
g103
tp213
a(S'2015-07-22 12:05:43.416000'
g105
tp214
a(S'2015-07-22 12:05:43.421000'
S'data saved as csv to C:\\Users\\Jbarrett\\Charlie\\charlie\\data\\csv\\4424_face_memory_delay.csv'
tp215
a(S'2015-07-22 12:05:45.199000'
g103
tp216
a(S'2015-07-22 12:05:45.208000'
g105
tp217
a(S'2015-07-22 12:05:45.212000'
S'data saved as csv to C:\\Users\\Jbarrett\\Charlie\\charlie\\data\\csv\\4424_face_memory_delay.csv'
tp218
a(S'2015-07-22 12:05:46.302000'
g103
tp219
a(S'2015-07-22 12:05:46.312000'
g105
tp220
a(S'2015-07-22 12:05:46.316000'
S'data saved as csv to C:\\Users\\Jbarrett\\Charlie\\charlie\\data\\csv\\4424_face_memory_delay.csv'
tp221
a(S'2015-07-22 12:05:47.516000'
g103
tp222
a(S'2015-07-22 12:05:47.525000'
g105
tp223
a(S'2015-07-22 12:05:47.529000'
S'data saved as csv to C:\\Users\\Jbarrett\\Charlie\\charlie\\data\\csv\\4424_face_memory_delay.csv'
tp224
asb.