(icharlie.tools.data
Data
p1
(dp2
S'lang'
p3
S'EN'
p4
sS'control'
p5
(lp6
sS'last_updated'
p7
cdatetime
datetime
p8
(S'\x07\xdf\x07\x17\n\x0f\x0b\x0eS\xf8'
tRp9
sS'last_opened'
p10
g8
(S'\x07\xdf\x07\x17\n\x0b\x1a\r\xfe\x08'
tRp11
sS'proj_id'
p12
S'connectivity'
p13
sS'date_done'
p14
NsS'test_done'
p15
I01
sS'data'
p16
(lp17
(S'4426'
p18
S'stroop'
p19
S'practice'
p20
I0
S'n/a'
p21
S'C:\\Users\\oleach\\Charlie-master\\Charlie-master\\charlie\\stimuli\\visual\\stroop\\prac_1.png'
S'Right'
p22
g22
I2850
tp23
a(g18
g19
g20
I1
g21
S'C:\\Users\\oleach\\Charlie-master\\Charlie-master\\charlie\\stimuli\\visual\\stroop\\prac_2.png'
S'Left'
p24
g24
I2061
tp25
a(g18
g19
g20
I2
g21
S'C:\\Users\\oleach\\Charlie-master\\Charlie-master\\charlie\\stimuli\\visual\\stroop\\prac_3.png'
g22
g22
I920
tp26
a(g18
g19
g20
I3
g21
S'C:\\Users\\oleach\\Charlie-master\\Charlie-master\\charlie\\stimuli\\visual\\stroop\\prac_4.png'
g22
g22
I1830
tp27
a(g18
g19
S'test'
p28
I0
S'Incongruent'
p29
S'C:\\Users\\oleach\\Charlie-master\\Charlie-master\\charlie\\stimuli\\visual\\stroop\\6-Incongruent.png'
g24
g24
I2351
tp30
a(g18
g19
g28
I1
S'Congruent'
p31
S'C:\\Users\\oleach\\Charlie-master\\Charlie-master\\charlie\\stimuli\\visual\\stroop\\30-Congruent.png'
g24
g24
I1740
tp32
a(g18
g19
g28
I2
g31
S'C:\\Users\\oleach\\Charlie-master\\Charlie-master\\charlie\\stimuli\\visual\\stroop\\3-Congruent.png'
g22
g22
I950
tp33
a(g18
g19
g28
I3
g29
S'C:\\Users\\oleach\\Charlie-master\\Charlie-master\\charlie\\stimuli\\visual\\stroop\\23-Incongruent.png'
g24
g24
I1370
tp34
a(g18
g19
g28
I4
g31
S'C:\\Users\\oleach\\Charlie-master\\Charlie-master\\charlie\\stimuli\\visual\\stroop\\39-Congruent.png'
g24
g24
I1020
tp35
a(g18
g19
g28
I5
g31
S'C:\\Users\\oleach\\Charlie-master\\Charlie-master\\charlie\\stimuli\\visual\\stroop\\45-Congruent.png'
g24
g24
I740
tp36
a(g18
g19
g28
I6
g29
S'C:\\Users\\oleach\\Charlie-master\\Charlie-master\\charlie\\stimuli\\visual\\stroop\\31-Incongruent.png'
g22
g24
I2600
tp37
a(g18
g19
g28
I7
g29
S'C:\\Users\\oleach\\Charlie-master\\Charlie-master\\charlie\\stimuli\\visual\\stroop\\28-Incongruent.png'
g24
g22
I2350
tp38
a(g18
g19
g28
I8
g31
S'C:\\Users\\oleach\\Charlie-master\\Charlie-master\\charlie\\stimuli\\visual\\stroop\\31-Congruent.png'
g24
g24
I1030
tp39
a(g18
g19
g28
I9
g31
S'C:\\Users\\oleach\\Charlie-master\\Charlie-master\\charlie\\stimuli\\visual\\stroop\\10-Congruent.png'
g22
g22
I830
tp40
a(g18
g19
g28
I10
g29
S'C:\\Users\\oleach\\Charlie-master\\Charlie-master\\charlie\\stimuli\\visual\\stroop\\10-Incongruent.png'
g24
g22
I1410
tp41
a(g18
g19
g28
I11
g29
S'C:\\Users\\oleach\\Charlie-master\\Charlie-master\\charlie\\stimuli\\visual\\stroop\\24-Incongruent.png'
g24
g22
I2071
tp42
a(g18
g19
g28
I12
g31
S'C:\\Users\\oleach\\Charlie-master\\Charlie-master\\charlie\\stimuli\\visual\\stroop\\34-Congruent.png'
g24
g24
I1610
tp43
a(g18
g19
g28
I13
g31
S'C:\\Users\\oleach\\Charlie-master\\Charlie-master\\charlie\\stimuli\\visual\\stroop\\38-Congruent.png'
g24
g24
I1170
tp44
a(g18
g19
g28
I14
g31
S'C:\\Users\\oleach\\Charlie-master\\Charlie-master\\charlie\\stimuli\\visual\\stroop\\42-Congruent.png'
g24
g24
I880
tp45
a(g18
g19
g28
I15
g31
S'C:\\Users\\oleach\\Charlie-master\\Charlie-master\\charlie\\stimuli\\visual\\stroop\\17-Congruent.png'
g22
g22
I940
tp46
a(g18
g19
g28
I16
g29
S'C:\\Users\\oleach\\Charlie-master\\Charlie-master\\charlie\\stimuli\\visual\\stroop\\42-Incongruent.png'
g22
g24
I1990
tp47
a(g18
g19
g28
I17
g29
S'C:\\Users\\oleach\\Charlie-master\\Charlie-master\\charlie\\stimuli\\visual\\stroop\\36-Incongruent.png'
g22
g22
I1950
tp48
a(g18
g19
g28
I18
g29
S'C:\\Users\\oleach\\Charlie-master\\Charlie-master\\charlie\\stimuli\\visual\\stroop\\43-Incongruent.png'
g22
g24
I4100
tp49
a(g18
g19
g28
I19
g31
S'C:\\Users\\oleach\\Charlie-master\\Charlie-master\\charlie\\stimuli\\visual\\stroop\\49-Congruent.png'
g24
g24
I1050
tp50
a(g18
g19
g28
I20
g31
S'C:\\Users\\oleach\\Charlie-master\\Charlie-master\\charlie\\stimuli\\visual\\stroop\\43-Congruent.png'
g24
g24
I840
tp51
a(g18
g19
g28
I21
g29
S'C:\\Users\\oleach\\Charlie-master\\Charlie-master\\charlie\\stimuli\\visual\\stroop\\15-Incongruent.png'
g24
g24
I5131
tp52
a(g18
g19
g28
I22
g29
S'C:\\Users\\oleach\\Charlie-master\\Charlie-master\\charlie\\stimuli\\visual\\stroop\\35-Incongruent.png'
g22
g22
I4410
tp53
a(g18
g19
g28
I23
g29
S'C:\\Users\\oleach\\Charlie-master\\Charlie-master\\charlie\\stimuli\\visual\\stroop\\44-Incongruent.png'
g22
g22
I2920
tp54
a(g18
g19
g28
I24
g29
S'C:\\Users\\oleach\\Charlie-master\\Charlie-master\\charlie\\stimuli\\visual\\stroop\\47-Incongruent.png'
g22
g22
I850
tp55
a(g18
g19
g28
I25
g29
S'C:\\Users\\oleach\\Charlie-master\\Charlie-master\\charlie\\stimuli\\visual\\stroop\\40-Incongruent.png'
g22
g22
I790
tp56
a(g18
g19
g28
I26
g29
S'C:\\Users\\oleach\\Charlie-master\\Charlie-master\\charlie\\stimuli\\visual\\stroop\\25-Incongruent.png'
g24
g24
I1220
tp57
a(g18
g19
g28
I27
g29
S'C:\\Users\\oleach\\Charlie-master\\Charlie-master\\charlie\\stimuli\\visual\\stroop\\27-Incongruent.png'
g24
g24
I3181
tp58
a(g18
g19
g28
I28
g29
S'C:\\Users\\oleach\\Charlie-master\\Charlie-master\\charlie\\stimuli\\visual\\stroop\\56-Incongruent.png'
g22
g22
I3480
tp59
a(g18
g19
g28
I29
g31
S'C:\\Users\\oleach\\Charlie-master\\Charlie-master\\charlie\\stimuli\\visual\\stroop\\2-Congruent.png'
g22
g22
I750
tp60
a(g18
g19
g28
I30
g29
S'C:\\Users\\oleach\\Charlie-master\\Charlie-master\\charlie\\stimuli\\visual\\stroop\\17-Incongruent.png'
g24
g24
I1580
tp61
a(g18
g19
g28
I31
g31
S'C:\\Users\\oleach\\Charlie-master\\Charlie-master\\charlie\\stimuli\\visual\\stroop\\12-Congruent.png'
g22
g22
I780
tp62
a(g18
g19
g28
I32
g29
S'C:\\Users\\oleach\\Charlie-master\\Charlie-master\\charlie\\stimuli\\visual\\stroop\\12-Incongruent.png'
g24
g24
I6000
tp63
a(g18
g19
g28
I33
g29
S'C:\\Users\\oleach\\Charlie-master\\Charlie-master\\charlie\\stimuli\\visual\\stroop\\26-Incongruent.png'
g24
g24
I970
tp64
a(g18
g19
g28
I34
g31
S'C:\\Users\\oleach\\Charlie-master\\Charlie-master\\charlie\\stimuli\\visual\\stroop\\19-Congruent.png'
g22
g22
I720
tp65
a(g18
g19
g28
I35
g31
S'C:\\Users\\oleach\\Charlie-master\\Charlie-master\\charlie\\stimuli\\visual\\stroop\\23-Congruent.png'
g22
g22
I670
tp66
a(g18
g19
g28
I36
g31
S'C:\\Users\\oleach\\Charlie-master\\Charlie-master\\charlie\\stimuli\\visual\\stroop\\35-Congruent.png'
g24
g24
I620
tp67
a(g18
g19
g28
I37
g31
S'C:\\Users\\oleach\\Charlie-master\\Charlie-master\\charlie\\stimuli\\visual\\stroop\\46-Congruent.png'
g24
g24
I620
tp68
a(g18
g19
g28
I38
g29
S'C:\\Users\\oleach\\Charlie-master\\Charlie-master\\charlie\\stimuli\\visual\\stroop\\8-Incongruent.png'
g24
g24
I950
tp69
a(g18
g19
g28
I39
g31
S'C:\\Users\\oleach\\Charlie-master\\Charlie-master\\charlie\\stimuli\\visual\\stroop\\29-Congruent.png'
g24
g24
I630
tp70
a(g18
g19
g28
I40
g31
S'C:\\Users\\oleach\\Charlie-master\\Charlie-master\\charlie\\stimuli\\visual\\stroop\\14-Congruent.png'
g22
g22
I640
tp71
a(g18
g19
g28
I41
g31
S'C:\\Users\\oleach\\Charlie-master\\Charlie-master\\charlie\\stimuli\\visual\\stroop\\33-Congruent.png'
g24
g24
I580
tp72
a(g18
g19
g28
I42
g29
S'C:\\Users\\oleach\\Charlie-master\\Charlie-master\\charlie\\stimuli\\visual\\stroop\\13-Incongruent.png'
g24
g24
I1100
tp73
a(g18
g19
g28
I43
g29
S'C:\\Users\\oleach\\Charlie-master\\Charlie-master\\charlie\\stimuli\\visual\\stroop\\55-Incongruent.png'
g22
g22
I3800
tp74
a(g18
g19
g28
I44
g31
S'C:\\Users\\oleach\\Charlie-master\\Charlie-master\\charlie\\stimuli\\visual\\stroop\\54-Congruent.png'
g24
g24
I560
tp75
a(g18
g19
g28
I45
g31
S'C:\\Users\\oleach\\Charlie-master\\Charlie-master\\charlie\\stimuli\\visual\\stroop\\8-Congruent.png'
g22
g22
I640
tp76
a(g18
g19
g28
I46
g31
S'C:\\Users\\oleach\\Charlie-master\\Charlie-master\\charlie\\stimuli\\visual\\stroop\\13-Congruent.png'
g22
g22
I640
tp77
a(g18
g19
g28
I47
g31
S'C:\\Users\\oleach\\Charlie-master\\Charlie-master\\charlie\\stimuli\\visual\\stroop\\40-Congruent.png'
g24
g24
I730
tp78
a(g18
g19
g28
I48
g29
S'C:\\Users\\oleach\\Charlie-master\\Charlie-master\\charlie\\stimuli\\visual\\stroop\\9-Incongruent.png'
g24
g24
I630
tp79
a(g18
g19
g28
I49
g31
S'C:\\Users\\oleach\\Charlie-master\\Charlie-master\\charlie\\stimuli\\visual\\stroop\\50-Congruent.png'
g24
g24
I550
tp80
a(g18
g19
g28
I50
g31
S'C:\\Users\\oleach\\Charlie-master\\Charlie-master\\charlie\\stimuli\\visual\\stroop\\5-Congruent.png'
g22
g22
I560
tp81
a(g18
g19
g28
I51
g29
S'C:\\Users\\oleach\\Charlie-master\\Charlie-master\\charlie\\stimuli\\visual\\stroop\\5-Incongruent.png'
g24
g24
I710
tp82
a(g18
g19
g28
I52
g29
S'C:\\Users\\oleach\\Charlie-master\\Charlie-master\\charlie\\stimuli\\visual\\stroop\\53-Incongruent.png'
g22
g22
I820
tp83
a(g18
g19
g28
I53
g29
S'C:\\Users\\oleach\\Charlie-master\\Charlie-master\\charlie\\stimuli\\visual\\stroop\\1-Incongruent.png'
g24
g24
I621
tp84
a(g18
g19
g28
I54
g31
S'C:\\Users\\oleach\\Charlie-master\\Charlie-master\\charlie\\stimuli\\visual\\stroop\\28-Congruent.png'
g22
g22
I600
tp85
a(g18
g19
g28
I55
g29
S'C:\\Users\\oleach\\Charlie-master\\Charlie-master\\charlie\\stimuli\\visual\\stroop\\34-Incongruent.png'
g22
g22
I1480
tp86
a(g18
g19
g28
I56
g29
S'C:\\Users\\oleach\\Charlie-master\\Charlie-master\\charlie\\stimuli\\visual\\stroop\\20-Incongruent.png'
g24
g24
I2180
tp87
a(g18
g19
g28
I57
g29
S'C:\\Users\\oleach\\Charlie-master\\Charlie-master\\charlie\\stimuli\\visual\\stroop\\38-Incongruent.png'
g22
g22
I1040
tp88
a(g18
g19
g28
I58
g29
S'C:\\Users\\oleach\\Charlie-master\\Charlie-master\\charlie\\stimuli\\visual\\stroop\\32-Incongruent.png'
g22
g22
I690
tp89
a(g18
g19
g28
I59
g31
S'C:\\Users\\oleach\\Charlie-master\\Charlie-master\\charlie\\stimuli\\visual\\stroop\\9-Congruent.png'
g22
g22
I570
tp90
a(g18
g19
g28
I60
g31
S'C:\\Users\\oleach\\Charlie-master\\Charlie-master\\charlie\\stimuli\\visual\\stroop\\55-Congruent.png'
g24
g24
I640
tp91
a(g18
g19
g28
I61
g29
S'C:\\Users\\oleach\\Charlie-master\\Charlie-master\\charlie\\stimuli\\visual\\stroop\\33-Incongruent.png'
g22
g22
I4770
tp92
a(g18
g19
g28
I62
g29
S'C:\\Users\\oleach\\Charlie-master\\Charlie-master\\charlie\\stimuli\\visual\\stroop\\49-Incongruent.png'
g22
g22
I1410
tp93
a(g18
g19
g28
I63
g31
S'C:\\Users\\oleach\\Charlie-master\\Charlie-master\\charlie\\stimuli\\visual\\stroop\\4-Congruent.png'
g22
g22
I560
tp94
a(g18
g19
g28
I64
g31
S'C:\\Users\\oleach\\Charlie-master\\Charlie-master\\charlie\\stimuli\\visual\\stroop\\6-Congruent.png'
g22
g22
I830
tp95
a(g18
g19
g28
I65
g31
S'C:\\Users\\oleach\\Charlie-master\\Charlie-master\\charlie\\stimuli\\visual\\stroop\\48-Congruent.png'
g24
g24
I581
tp96
a(g18
g19
g28
I66
g31
S'C:\\Users\\oleach\\Charlie-master\\Charlie-master\\charlie\\stimuli\\visual\\stroop\\52-Congruent.png'
g24
g24
I550
tp97
a(g18
g19
g28
I67
g31
S'C:\\Users\\oleach\\Charlie-master\\Charlie-master\\charlie\\stimuli\\visual\\stroop\\51-Congruent.png'
g24
g24
I700
tp98
a(g18
g19
g28
I68
g31
S'C:\\Users\\oleach\\Charlie-master\\Charlie-master\\charlie\\stimuli\\visual\\stroop\\16-Congruent.png'
g22
g22
I900
tp99
a(g18
g19
g28
I69
g31
S'C:\\Users\\oleach\\Charlie-master\\Charlie-master\\charlie\\stimuli\\visual\\stroop\\24-Congruent.png'
g22
g22
I510
tp100
a(g18
g19
g28
I70
g29
S'C:\\Users\\oleach\\Charlie-master\\Charlie-master\\charlie\\stimuli\\visual\\stroop\\41-Incongruent.png'
g22
g22
I1580
tp101
a(g18
g19
g28
I71
g29
S'C:\\Users\\oleach\\Charlie-master\\Charlie-master\\charlie\\stimuli\\visual\\stroop\\48-Incongruent.png'
g22
g22
I1220
tp102
a(g18
g19
g28
I72
g29
S'C:\\Users\\oleach\\Charlie-master\\Charlie-master\\charlie\\stimuli\\visual\\stroop\\4-Incongruent.png'
g24
g24
I1320
tp103
a(g18
g19
g28
I73
g29
S'C:\\Users\\oleach\\Charlie-master\\Charlie-master\\charlie\\stimuli\\visual\\stroop\\54-Incongruent.png'
g22
g22
I1820
tp104
a(g18
g19
g28
I74
g29
S'C:\\Users\\oleach\\Charlie-master\\Charlie-master\\charlie\\stimuli\\visual\\stroop\\39-Incongruent.png'
g22
g22
I1250
tp105
a(g18
g19
g28
I75
g31
S'C:\\Users\\oleach\\Charlie-master\\Charlie-master\\charlie\\stimuli\\visual\\stroop\\56-Congruent.png'
g24
g24
I600
tp106
a(g18
g19
g28
I76
g29
S'C:\\Users\\oleach\\Charlie-master\\Charlie-master\\charlie\\stimuli\\visual\\stroop\\46-Incongruent.png'
g22
g22
I2270
tp107
a(g18
g19
g28
I77
g31
S'C:\\Users\\oleach\\Charlie-master\\Charlie-master\\charlie\\stimuli\\visual\\stroop\\22-Congruent.png'
g22
g22
I700
tp108
a(g18
g19
g28
I78
g29
S'C:\\Users\\oleach\\Charlie-master\\Charlie-master\\charlie\\stimuli\\visual\\stroop\\21-Incongruent.png'
g24
g22
I2181
tp109
a(g18
g19
g28
I79
g29
S'C:\\Users\\oleach\\Charlie-master\\Charlie-master\\charlie\\stimuli\\visual\\stroop\\37-Incongruent.png'
g22
g22
I730
tp110
a(g18
g19
g28
I80
g29
S'C:\\Users\\oleach\\Charlie-master\\Charlie-master\\charlie\\stimuli\\visual\\stroop\\2-Incongruent.png'
g24
g24
I850
tp111
a(g18
g19
g28
I81
g31
S'C:\\Users\\oleach\\Charlie-master\\Charlie-master\\charlie\\stimuli\\visual\\stroop\\21-Congruent.png'
g22
g22
I930
tp112
a(g18
g19
g28
I82
g29
S'C:\\Users\\oleach\\Charlie-master\\Charlie-master\\charlie\\stimuli\\visual\\stroop\\7-Incongruent.png'
g24
g24
I760
tp113
a(g18
g19
g28
I83
g31
S'C:\\Users\\oleach\\Charlie-master\\Charlie-master\\charlie\\stimuli\\visual\\stroop\\20-Congruent.png'
g22
g22
I740
tp114
a(g18
g19
g28
I84
g31
S'C:\\Users\\oleach\\Charlie-master\\Charlie-master\\charlie\\stimuli\\visual\\stroop\\15-Congruent.png'
g22
g22
I710
tp115
a(g18
g19
g28
I85
g31
S'C:\\Users\\oleach\\Charlie-master\\Charlie-master\\charlie\\stimuli\\visual\\stroop\\26-Congruent.png'
g22
g22
I650
tp116
a(g18
g19
g28
I86
g29
S'C:\\Users\\oleach\\Charlie-master\\Charlie-master\\charlie\\stimuli\\visual\\stroop\\16-Incongruent.png'
g24
g24
I690
tp117
a(g18
g19
g28
I87
g29
S'C:\\Users\\oleach\\Charlie-master\\Charlie-master\\charlie\\stimuli\\visual\\stroop\\50-Incongruent.png'
g22
g22
I680
tp118
a(g18
g19
g28
I88
g31
S'C:\\Users\\oleach\\Charlie-master\\Charlie-master\\charlie\\stimuli\\visual\\stroop\\41-Congruent.png'
g24
g24
I660
tp119
a(g18
g19
g28
I89
g31
S'C:\\Users\\oleach\\Charlie-master\\Charlie-master\\charlie\\stimuli\\visual\\stroop\\25-Congruent.png'
g22
g22
I660
tp120
a(g18
g19
g28
I90
g31
S'C:\\Users\\oleach\\Charlie-master\\Charlie-master\\charlie\\stimuli\\visual\\stroop\\27-Congruent.png'
g22
g22
I710
tp121
a(g18
g19
g28
I91
g29
S'C:\\Users\\oleach\\Charlie-master\\Charlie-master\\charlie\\stimuli\\visual\\stroop\\18-Incongruent.png'
g24
g24
I660
tp122
a(g18
g19
g28
I92
g29
S'C:\\Users\\oleach\\Charlie-master\\Charlie-master\\charlie\\stimuli\\visual\\stroop\\30-Incongruent.png'
g22
g22
I1180
tp123
a(g18
g19
g28
I93
g31
S'C:\\Users\\oleach\\Charlie-master\\Charlie-master\\charlie\\stimuli\\visual\\stroop\\44-Congruent.png'
g24
g24
I660
tp124
a(g18
g19
g28
I94
g31
S'C:\\Users\\oleach\\Charlie-master\\Charlie-master\\charlie\\stimuli\\visual\\stroop\\37-Congruent.png'
g24
g24
I650
tp125
a(g18
g19
g28
I95
g29
S'C:\\Users\\oleach\\Charlie-master\\Charlie-master\\charlie\\stimuli\\visual\\stroop\\11-Incongruent.png'
g24
g24
I650
tp126
a(g18
g19
g28
I96
g29
S'C:\\Users\\oleach\\Charlie-master\\Charlie-master\\charlie\\stimuli\\visual\\stroop\\29-Incongruent.png'
g22
g22
I830
tp127
a(g18
g19
g28
I97
g29
S'C:\\Users\\oleach\\Charlie-master\\Charlie-master\\charlie\\stimuli\\visual\\stroop\\3-Incongruent.png'
g24
g24
I590
tp128
a(g18
g19
g28
I98
g31
S'C:\\Users\\oleach\\Charlie-master\\Charlie-master\\charlie\\stimuli\\visual\\stroop\\1-Congruent.png'
g22
g22
I841
tp129
a(g18
g19
g28
I99
g29
S'C:\\Users\\oleach\\Charlie-master\\Charlie-master\\charlie\\stimuli\\visual\\stroop\\52-Incongruent.png'
g22
g22
I1790
tp130
a(g18
g19
g28
I100
g29
S'C:\\Users\\oleach\\Charlie-master\\Charlie-master\\charlie\\stimuli\\visual\\stroop\\14-Incongruent.png'
g24
g24
I610
tp131
a(g18
g19
g28
I101
g31
S'C:\\Users\\oleach\\Charlie-master\\Charlie-master\\charlie\\stimuli\\visual\\stroop\\47-Congruent.png'
g24
g24
I510
tp132
a(g18
g19
g28
I102
g29
S'C:\\Users\\oleach\\Charlie-master\\Charlie-master\\charlie\\stimuli\\visual\\stroop\\19-Incongruent.png'
g24
g24
I690
tp133
a(g18
g19
g28
I103
g31
S'C:\\Users\\oleach\\Charlie-master\\Charlie-master\\charlie\\stimuli\\visual\\stroop\\11-Congruent.png'
g22
g22
I840
tp134
a(g18
g19
g28
I104
g29
S'C:\\Users\\oleach\\Charlie-master\\Charlie-master\\charlie\\stimuli\\visual\\stroop\\22-Incongruent.png'
g24
g24
I640
tp135
a(g18
g19
g28
I105
g31
S'C:\\Users\\oleach\\Charlie-master\\Charlie-master\\charlie\\stimuli\\visual\\stroop\\7-Congruent.png'
g22
g22
I560
tp136
a(g18
g19
g28
I106
g31
S'C:\\Users\\oleach\\Charlie-master\\Charlie-master\\charlie\\stimuli\\visual\\stroop\\53-Congruent.png'
g24
g24
I680
tp137
a(g18
g19
g28
I107
g31
S'C:\\Users\\oleach\\Charlie-master\\Charlie-master\\charlie\\stimuli\\visual\\stroop\\32-Congruent.png'
g24
g24
I1040
tp138
a(g18
g19
g28
I108
g29
S'C:\\Users\\oleach\\Charlie-master\\Charlie-master\\charlie\\stimuli\\visual\\stroop\\45-Incongruent.png'
g22
g22
I1900
tp139
a(g18
g19
g28
I109
g31
S'C:\\Users\\oleach\\Charlie-master\\Charlie-master\\charlie\\stimuli\\visual\\stroop\\36-Congruent.png'
g24
g24
I650
tp140
a(g18
g19
g28
I110
g29
S'C:\\Users\\oleach\\Charlie-master\\Charlie-master\\charlie\\stimuli\\visual\\stroop\\51-Incongruent.png'
g22
g22
I2400
tp141
a(g18
g19
g28
I111
g31
S'C:\\Users\\oleach\\Charlie-master\\Charlie-master\\charlie\\stimuli\\visual\\stroop\\18-Congruent.png'
p142
g22
g22
I560
tp143
asS'output_format'
p144
(lp145
(S'proband_id'
p146
c__builtin__
str
p147
tp148
a(S'test_name'
p149
g147
tp150
a(S'phase'
p151
g147
tp152
a(S'trialn'
p153
c__builtin__
int
p154
tp155
a(S'cong'
p156
g147
tp157
a(S'f'
g147
tp158
a(S'ans'
p159
g147
tp160
a(S'rsp'
p161
g147
tp162
a(S'rt'
p163
g154
tp164
asg146
g18
sS'filename'
p165
S'4426_stroop.data'
p166
sS'initialised'
p167
g8
(S'\x07\xdf\x07\x17\n\x0b\x1a\r\xfe\x08'
tRp168
sS'last_udated'
p169
g8
(S'\x07\xdf\x07\x17\n\x0b\x1a\r\xfe\x08'
tRp170
sg149
S'stroop'
p171
sS'directory'
p172
S'C:\\Users\\oleach\\Charlie-master\\Charlie-master\\charlie\\data\\raw'
p173
sS'user_id'
p174
S'oleach'
p175
sS'test_started'
p176
I01
sS'abs_filename'
p177
S'C:\\Users\\oleach\\Charlie-master\\Charlie-master\\charlie\\data\\raw\\4426_stroop.data'
p178
sS'date_started'
p179
g8
(S'\x07\xdf\x07\x17\n\x0c\x00\x0cT@'
tRp180
sS'log'
p181
(lp182
(S'2015-07-23 10:11:26.917000'
S'instance created'
p183
tp184
a(S'2015-07-23 10:12:00.820000'
S'instance updated'
p185
tp186
a(S'2015-07-23 10:12:00.828000'
S'pandas DataFrame of data created'
p187
tp188
a(S'2015-07-23 10:12:00.832000'
S'data saved as csv to C:\\Users\\oleach\\Charlie-master\\Charlie-master\\charlie\\data\\csv\\4426_stroop.csv'
tp189
a(S'2015-07-23 10:12:03.925000'
g185
tp190
a(S'2015-07-23 10:12:03.933000'
g187
tp191
a(S'2015-07-23 10:12:03.937000'
S'data saved as csv to C:\\Users\\oleach\\Charlie-master\\Charlie-master\\charlie\\data\\csv\\4426_stroop.csv'
tp192
a(S'2015-07-23 10:12:05.889000'
g185
tp193
a(S'2015-07-23 10:12:05.897000'
g187
tp194
a(S'2015-07-23 10:12:05.901000'
S'data saved as csv to C:\\Users\\oleach\\Charlie-master\\Charlie-master\\charlie\\data\\csv\\4426_stroop.csv'
tp195
a(S'2015-07-23 10:12:08.764000'
g185
tp196
a(S'2015-07-23 10:12:08.772000'
g187
tp197
a(S'2015-07-23 10:12:08.775000'
S'data saved as csv to C:\\Users\\oleach\\Charlie-master\\Charlie-master\\charlie\\data\\csv\\4426_stroop.csv'
tp198
a(S'2015-07-23 10:12:37.332000'
g185
tp199
a(S'2015-07-23 10:12:37.340000'
g187
tp200
a(S'2015-07-23 10:12:37.344000'
S'data saved as csv to C:\\Users\\oleach\\Charlie-master\\Charlie-master\\charlie\\data\\csv\\4426_stroop.csv'
tp201
a(S'2015-07-23 10:12:39.218000'
g185
tp202
a(S'2015-07-23 10:12:39.226000'
g187
tp203
a(S'2015-07-23 10:12:39.228000'
S'data saved as csv to C:\\Users\\oleach\\Charlie-master\\Charlie-master\\charlie\\data\\csv\\4426_stroop.csv'
tp204
a(S'2015-07-23 10:12:40.310000'
g185
tp205
a(S'2015-07-23 10:12:40.319000'
g187
tp206
a(S'2015-07-23 10:12:40.323000'
S'data saved as csv to C:\\Users\\oleach\\Charlie-master\\Charlie-master\\charlie\\data\\csv\\4426_stroop.csv'
tp207
a(S'2015-07-23 10:12:41.829000'
g185
tp208
a(S'2015-07-23 10:12:41.838000'
g187
tp209
a(S'2015-07-23 10:12:41.842000'
S'data saved as csv to C:\\Users\\oleach\\Charlie-master\\Charlie-master\\charlie\\data\\csv\\4426_stroop.csv'
tp210
a(S'2015-07-23 10:12:42.997000'
g185
tp211
a(S'2015-07-23 10:12:43.005000'
g187
tp212
a(S'2015-07-23 10:12:43.008000'
S'data saved as csv to C:\\Users\\oleach\\Charlie-master\\Charlie-master\\charlie\\data\\csv\\4426_stroop.csv'
tp213
a(S'2015-07-23 10:12:43.880000'
g185
tp214
a(S'2015-07-23 10:12:43.888000'
g187
tp215
a(S'2015-07-23 10:12:43.892000'
S'data saved as csv to C:\\Users\\oleach\\Charlie-master\\Charlie-master\\charlie\\data\\csv\\4426_stroop.csv'
tp216
a(S'2015-07-23 10:12:46.627000'
g185
tp217
a(S'2015-07-23 10:12:46.636000'
g187
tp218
a(S'2015-07-23 10:12:46.638000'
S'data saved as csv to C:\\Users\\oleach\\Charlie-master\\Charlie-master\\charlie\\data\\csv\\4426_stroop.csv'
tp219
a(S'2015-07-23 10:12:49.122000'
g185
tp220
a(S'2015-07-23 10:12:49.128000'
g187
tp221
a(S'2015-07-23 10:12:49.130000'
S'data saved as csv to C:\\Users\\oleach\\Charlie-master\\Charlie-master\\charlie\\data\\csv\\4426_stroop.csv'
tp222
a(S'2015-07-23 10:12:50.293000'
g185
tp223
a(S'2015-07-23 10:12:50.301000'
g187
tp224
a(S'2015-07-23 10:12:50.305000'
S'data saved as csv to C:\\Users\\oleach\\Charlie-master\\Charlie-master\\charlie\\data\\csv\\4426_stroop.csv'
tp225
a(S'2015-07-23 10:12:51.271000'
g185
tp226
a(S'2015-07-23 10:12:51.279000'
g187
tp227
a(S'2015-07-23 10:12:51.283000'
S'data saved as csv to C:\\Users\\oleach\\Charlie-master\\Charlie-master\\charlie\\data\\csv\\4426_stroop.csv'
tp228
a(S'2015-07-23 10:12:52.826000'
g185
tp229
a(S'2015-07-23 10:12:52.835000'
g187
tp230
a(S'2015-07-23 10:12:52.840000'
S'data saved as csv to C:\\Users\\oleach\\Charlie-master\\Charlie-master\\charlie\\data\\csv\\4426_stroop.csv'
tp231
a(S'2015-07-23 10:12:55.046000'
g185
tp232
a(S'2015-07-23 10:12:55.054000'
g187
tp233
a(S'2015-07-23 10:12:55.058000'
S'data saved as csv to C:\\Users\\oleach\\Charlie-master\\Charlie-master\\charlie\\data\\csv\\4426_stroop.csv'
tp234
a(S'2015-07-23 10:12:56.802000'
g185
tp235
a(S'2015-07-23 10:12:56.811000'
g187
tp236
a(S'2015-07-23 10:12:56.815000'
S'data saved as csv to C:\\Users\\oleach\\Charlie-master\\Charlie-master\\charlie\\data\\csv\\4426_stroop.csv'
tp237
a(S'2015-07-23 10:12:58.119000'
g185
tp238
a(S'2015-07-23 10:12:58.128000'
g187
tp239
a(S'2015-07-23 10:12:58.132000'
S'data saved as csv to C:\\Users\\oleach\\Charlie-master\\Charlie-master\\charlie\\data\\csv\\4426_stroop.csv'
tp240
a(S'2015-07-23 10:12:59.147000'
g185
tp241
a(S'2015-07-23 10:12:59.155000'
g187
tp242
a(S'2015-07-23 10:12:59.159000'
S'data saved as csv to C:\\Users\\oleach\\Charlie-master\\Charlie-master\\charlie\\data\\csv\\4426_stroop.csv'
tp243
a(S'2015-07-23 10:13:00.234000'
g185
tp244
a(S'2015-07-23 10:13:00.242000'
g187
tp245
a(S'2015-07-23 10:13:00.246000'
S'data saved as csv to C:\\Users\\oleach\\Charlie-master\\Charlie-master\\charlie\\data\\csv\\4426_stroop.csv'
tp246
a(S'2015-07-23 10:13:02.373000'
g185
tp247
a(S'2015-07-23 10:13:02.382000'
g187
tp248
a(S'2015-07-23 10:13:02.386000'
S'data saved as csv to C:\\Users\\oleach\\Charlie-master\\Charlie-master\\charlie\\data\\csv\\4426_stroop.csv'
tp249
a(S'2015-07-23 10:13:04.470000'
g185
tp250
a(S'2015-07-23 10:13:04.479000'
g187
tp251
a(S'2015-07-23 10:13:04.483000'
S'data saved as csv to C:\\Users\\oleach\\Charlie-master\\Charlie-master\\charlie\\data\\csv\\4426_stroop.csv'
tp252
a(S'2015-07-23 10:13:08.717000'
g185
tp253
a(S'2015-07-23 10:13:08.726000'
g187
tp254
a(S'2015-07-23 10:13:08.730000'
S'data saved as csv to C:\\Users\\oleach\\Charlie-master\\Charlie-master\\charlie\\data\\csv\\4426_stroop.csv'
tp255
a(S'2015-07-23 10:13:09.915000'
g185
tp256
a(S'2015-07-23 10:13:09.924000'
g187
tp257
a(S'2015-07-23 10:13:09.928000'
S'data saved as csv to C:\\Users\\oleach\\Charlie-master\\Charlie-master\\charlie\\data\\csv\\4426_stroop.csv'
tp258
a(S'2015-07-23 10:13:10.904000'
g185
tp259
a(S'2015-07-23 10:13:10.913000'
g187
tp260
a(S'2015-07-23 10:13:10.917000'
S'data saved as csv to C:\\Users\\oleach\\Charlie-master\\Charlie-master\\charlie\\data\\csv\\4426_stroop.csv'
tp261
a(S'2015-07-23 10:13:16.184000'
g185
tp262
a(S'2015-07-23 10:13:16.193000'
g187
tp263
a(S'2015-07-23 10:13:16.197000'
S'data saved as csv to C:\\Users\\oleach\\Charlie-master\\Charlie-master\\charlie\\data\\csv\\4426_stroop.csv'
tp264
a(S'2015-07-23 10:13:20.744000'
g185
tp265
a(S'2015-07-23 10:13:20.753000'
g187
tp266
a(S'2015-07-23 10:13:20.758000'
S'data saved as csv to C:\\Users\\oleach\\Charlie-master\\Charlie-master\\charlie\\data\\csv\\4426_stroop.csv'
tp267
a(S'2015-07-23 10:13:23.814000'
g185
tp268
a(S'2015-07-23 10:13:23.823000'
g187
tp269
a(S'2015-07-23 10:13:23.827000'
S'data saved as csv to C:\\Users\\oleach\\Charlie-master\\Charlie-master\\charlie\\data\\csv\\4426_stroop.csv'
tp270
a(S'2015-07-23 10:13:24.813000'
g185
tp271
a(S'2015-07-23 10:13:24.822000'
g187
tp272
a(S'2015-07-23 10:13:24.826000'
S'data saved as csv to C:\\Users\\oleach\\Charlie-master\\Charlie-master\\charlie\\data\\csv\\4426_stroop.csv'
tp273
a(S'2015-07-23 10:13:25.748000'
g185
tp274
a(S'2015-07-23 10:13:25.757000'
g187
tp275
a(S'2015-07-23 10:13:25.759000'
S'data saved as csv to C:\\Users\\oleach\\Charlie-master\\Charlie-master\\charlie\\data\\csv\\4426_stroop.csv'
tp276
a(S'2015-07-23 10:13:27.112000'
g185
tp277
a(S'2015-07-23 10:13:27.121000'
g187
tp278
a(S'2015-07-23 10:13:27.126000'
S'data saved as csv to C:\\Users\\oleach\\Charlie-master\\Charlie-master\\charlie\\data\\csv\\4426_stroop.csv'
tp279
a(S'2015-07-23 10:13:30.443000'
g185
tp280
a(S'2015-07-23 10:13:30.452000'
g187
tp281
a(S'2015-07-23 10:13:30.456000'
S'data saved as csv to C:\\Users\\oleach\\Charlie-master\\Charlie-master\\charlie\\data\\csv\\4426_stroop.csv'
tp282
a(S'2015-07-23 10:13:34.054000'
g185
tp283
a(S'2015-07-23 10:13:34.056000'
g187
tp284
a(S'2015-07-23 10:13:34.057000'
S'data saved as csv to C:\\Users\\oleach\\Charlie-master\\Charlie-master\\charlie\\data\\csv\\4426_stroop.csv'
tp285
a(S'2015-07-23 10:13:34.921000'
g185
tp286
a(S'2015-07-23 10:13:34.924000'
g187
tp287
a(S'2015-07-23 10:13:34.926000'
S'data saved as csv to C:\\Users\\oleach\\Charlie-master\\Charlie-master\\charlie\\data\\csv\\4426_stroop.csv'
tp288
a(S'2015-07-23 10:13:36.638000'
g185
tp289
a(S'2015-07-23 10:13:36.647000'
g187
tp290
a(S'2015-07-23 10:13:36.649000'
S'data saved as csv to C:\\Users\\oleach\\Charlie-master\\Charlie-master\\charlie\\data\\csv\\4426_stroop.csv'
tp291
a(S'2015-07-23 10:13:37.563000'
g185
tp292
a(S'2015-07-23 10:13:37.572000'
g187
tp293
a(S'2015-07-23 10:13:37.576000'
S'data saved as csv to C:\\Users\\oleach\\Charlie-master\\Charlie-master\\charlie\\data\\csv\\4426_stroop.csv'
tp294
a(S'2015-07-23 10:13:43.712000'
g185
tp295
a(S'2015-07-23 10:13:43.721000'
g187
tp296
a(S'2015-07-23 10:13:43.725000'
S'data saved as csv to C:\\Users\\oleach\\Charlie-master\\Charlie-master\\charlie\\data\\csv\\4426_stroop.csv'
tp297
a(S'2015-07-23 10:13:44.831000'
g185
tp298
a(S'2015-07-23 10:13:44.840000'
g187
tp299
a(S'2015-07-23 10:13:44.844000'
S'data saved as csv to C:\\Users\\oleach\\Charlie-master\\Charlie-master\\charlie\\data\\csv\\4426_stroop.csv'
tp300
a(S'2015-07-23 10:13:45.699000'
g185
tp301
a(S'2015-07-23 10:13:45.709000'
g187
tp302
a(S'2015-07-23 10:13:45.713000'
S'data saved as csv to C:\\Users\\oleach\\Charlie-master\\Charlie-master\\charlie\\data\\csv\\4426_stroop.csv'
tp303
a(S'2015-07-23 10:13:46.518000'
g185
tp304
a(S'2015-07-23 10:13:46.527000'
g187
tp305
a(S'2015-07-23 10:13:46.532000'
S'data saved as csv to C:\\Users\\oleach\\Charlie-master\\Charlie-master\\charlie\\data\\csv\\4426_stroop.csv'
tp306
a(S'2015-07-23 10:13:47.288000'
g185
tp307
a(S'2015-07-23 10:13:47.297000'
g187
tp308
a(S'2015-07-23 10:13:47.300000'
S'data saved as csv to C:\\Users\\oleach\\Charlie-master\\Charlie-master\\charlie\\data\\csv\\4426_stroop.csv'
tp309
a(S'2015-07-23 10:13:48.053000'
g185
tp310
a(S'2015-07-23 10:13:48.062000'
g187
tp311
a(S'2015-07-23 10:13:48.066000'
S'data saved as csv to C:\\Users\\oleach\\Charlie-master\\Charlie-master\\charlie\\data\\csv\\4426_stroop.csv'
tp312
a(S'2015-07-23 10:13:49.141000'
g185
tp313
a(S'2015-07-23 10:13:49.146000'
g187
tp314
a(S'2015-07-23 10:13:49.148000'
S'data saved as csv to C:\\Users\\oleach\\Charlie-master\\Charlie-master\\charlie\\data\\csv\\4426_stroop.csv'
tp315
a(S'2015-07-23 10:13:49.911000'
g185
tp316
a(S'2015-07-23 10:13:49.920000'
g187
tp317
a(S'2015-07-23 10:13:49.925000'
S'data saved as csv to C:\\Users\\oleach\\Charlie-master\\Charlie-master\\charlie\\data\\csv\\4426_stroop.csv'
tp318
a(S'2015-07-23 10:13:50.698000'
g185
tp319
a(S'2015-07-23 10:13:50.704000'
g187
tp320
a(S'2015-07-23 10:13:50.708000'
S'data saved as csv to C:\\Users\\oleach\\Charlie-master\\Charlie-master\\charlie\\data\\csv\\4426_stroop.csv'
tp321
a(S'2015-07-23 10:13:51.422000'
g185
tp322
a(S'2015-07-23 10:13:51.431000'
g187
tp323
a(S'2015-07-23 10:13:51.436000'
S'data saved as csv to C:\\Users\\oleach\\Charlie-master\\Charlie-master\\charlie\\data\\csv\\4426_stroop.csv'
tp324
a(S'2015-07-23 10:13:52.670000'
g185
tp325
a(S'2015-07-23 10:13:52.679000'
g187
tp326
a(S'2015-07-23 10:13:52.683000'
S'data saved as csv to C:\\Users\\oleach\\Charlie-master\\Charlie-master\\charlie\\data\\csv\\4426_stroop.csv'
tp327
a(S'2015-07-23 10:13:56.620000'
g185
tp328
a(S'2015-07-23 10:13:56.629000'
g187
tp329
a(S'2015-07-23 10:13:56.631000'
S'data saved as csv to C:\\Users\\oleach\\Charlie-master\\Charlie-master\\charlie\\data\\csv\\4426_stroop.csv'
tp330
a(S'2015-07-23 10:13:57.324000'
g185
tp331
a(S'2015-07-23 10:13:57.334000'
g187
tp332
a(S'2015-07-23 10:13:57.338000'
S'data saved as csv to C:\\Users\\oleach\\Charlie-master\\Charlie-master\\charlie\\data\\csv\\4426_stroop.csv'
tp333
a(S'2015-07-23 10:13:58.114000'
g185
tp334
a(S'2015-07-23 10:13:58.123000'
g187
tp335
a(S'2015-07-23 10:13:58.127000'
S'data saved as csv to C:\\Users\\oleach\\Charlie-master\\Charlie-master\\charlie\\data\\csv\\4426_stroop.csv'
tp336
a(S'2015-07-23 10:13:58.901000'
g185
tp337
a(S'2015-07-23 10:13:58.909000'
g187
tp338
a(S'2015-07-23 10:13:58.911000'
S'data saved as csv to C:\\Users\\oleach\\Charlie-master\\Charlie-master\\charlie\\data\\csv\\4426_stroop.csv'
tp339
a(S'2015-07-23 10:13:59.774000'
g185
tp340
a(S'2015-07-23 10:13:59.784000'
g187
tp341
a(S'2015-07-23 10:13:59.788000'
S'data saved as csv to C:\\Users\\oleach\\Charlie-master\\Charlie-master\\charlie\\data\\csv\\4426_stroop.csv'
tp342
a(S'2015-07-23 10:14:00.555000'
g185
tp343
a(S'2015-07-23 10:14:00.565000'
g187
tp344
a(S'2015-07-23 10:14:00.569000'
S'data saved as csv to C:\\Users\\oleach\\Charlie-master\\Charlie-master\\charlie\\data\\csv\\4426_stroop.csv'
tp345
a(S'2015-07-23 10:14:01.255000'
g185
tp346
a(S'2015-07-23 10:14:01.264000'
g187
tp347
a(S'2015-07-23 10:14:01.268000'
S'data saved as csv to C:\\Users\\oleach\\Charlie-master\\Charlie-master\\charlie\\data\\csv\\4426_stroop.csv'
tp348
a(S'2015-07-23 10:14:01.964000'
g185
tp349
a(S'2015-07-23 10:14:01.973000'
g187
tp350
a(S'2015-07-23 10:14:01.978000'
S'data saved as csv to C:\\Users\\oleach\\Charlie-master\\Charlie-master\\charlie\\data\\csv\\4426_stroop.csv'
tp351
a(S'2015-07-23 10:14:02.823000'
g185
tp352
a(S'2015-07-23 10:14:02.832000'
g187
tp353
a(S'2015-07-23 10:14:02.837000'
S'data saved as csv to C:\\Users\\oleach\\Charlie-master\\Charlie-master\\charlie\\data\\csv\\4426_stroop.csv'
tp354
a(S'2015-07-23 10:14:03.790000'
g185
tp355
a(S'2015-07-23 10:14:03.799000'
g187
tp356
a(S'2015-07-23 10:14:03.802000'
S'data saved as csv to C:\\Users\\oleach\\Charlie-master\\Charlie-master\\charlie\\data\\csv\\4426_stroop.csv'
tp357
a(S'2015-07-23 10:14:04.555000'
g185
tp358
a(S'2015-07-23 10:14:04.565000'
g187
tp359
a(S'2015-07-23 10:14:04.570000'
S'data saved as csv to C:\\Users\\oleach\\Charlie-master\\Charlie-master\\charlie\\data\\csv\\4426_stroop.csv'
tp360
a(S'2015-07-23 10:14:05.305000'
g185
tp361
a(S'2015-07-23 10:14:05.315000'
g187
tp362
a(S'2015-07-23 10:14:05.319000'
S'data saved as csv to C:\\Users\\oleach\\Charlie-master\\Charlie-master\\charlie\\data\\csv\\4426_stroop.csv'
tp363
a(S'2015-07-23 10:14:06.936000'
g185
tp364
a(S'2015-07-23 10:14:06.945000'
g187
tp365
a(S'2015-07-23 10:14:06.949000'
S'data saved as csv to C:\\Users\\oleach\\Charlie-master\\Charlie-master\\charlie\\data\\csv\\4426_stroop.csv'
tp366
a(S'2015-07-23 10:14:09.264000'
g185
tp367
a(S'2015-07-23 10:14:09.273000'
g187
tp368
a(S'2015-07-23 10:14:09.278000'
S'data saved as csv to C:\\Users\\oleach\\Charlie-master\\Charlie-master\\charlie\\data\\csv\\4426_stroop.csv'
tp369
a(S'2015-07-23 10:14:10.455000'
g185
tp370
a(S'2015-07-23 10:14:10.465000'
g187
tp371
a(S'2015-07-23 10:14:10.470000'
S'data saved as csv to C:\\Users\\oleach\\Charlie-master\\Charlie-master\\charlie\\data\\csv\\4426_stroop.csv'
tp372
a(S'2015-07-23 10:14:11.296000'
g185
tp373
a(S'2015-07-23 10:14:11.306000'
g187
tp374
a(S'2015-07-23 10:14:11.311000'
S'data saved as csv to C:\\Users\\oleach\\Charlie-master\\Charlie-master\\charlie\\data\\csv\\4426_stroop.csv'
tp375
a(S'2015-07-23 10:14:12.017000'
g185
tp376
a(S'2015-07-23 10:14:12.027000'
g187
tp377
a(S'2015-07-23 10:14:12.031000'
S'data saved as csv to C:\\Users\\oleach\\Charlie-master\\Charlie-master\\charlie\\data\\csv\\4426_stroop.csv'
tp378
a(S'2015-07-23 10:14:12.807000'
g185
tp379
a(S'2015-07-23 10:14:12.817000'
g187
tp380
a(S'2015-07-23 10:14:12.821000'
S'data saved as csv to C:\\Users\\oleach\\Charlie-master\\Charlie-master\\charlie\\data\\csv\\4426_stroop.csv'
tp381
a(S'2015-07-23 10:14:17.729000'
g185
tp382
a(S'2015-07-23 10:14:17.739000'
g187
tp383
a(S'2015-07-23 10:14:17.744000'
S'data saved as csv to C:\\Users\\oleach\\Charlie-master\\Charlie-master\\charlie\\data\\csv\\4426_stroop.csv'
tp384
a(S'2015-07-23 10:14:19.290000'
g185
tp385
a(S'2015-07-23 10:14:19.300000'
g187
tp386
a(S'2015-07-23 10:14:19.305000'
S'data saved as csv to C:\\Users\\oleach\\Charlie-master\\Charlie-master\\charlie\\data\\csv\\4426_stroop.csv'
tp387
a(S'2015-07-23 10:14:20'
g185
tp388
a(S'2015-07-23 10:14:20.010000'
g187
tp389
a(S'2015-07-23 10:14:20.014000'
S'data saved as csv to C:\\Users\\oleach\\Charlie-master\\Charlie-master\\charlie\\data\\csv\\4426_stroop.csv'
tp390
a(S'2015-07-23 10:14:20.981000'
g185
tp391
a(S'2015-07-23 10:14:20.990000'
g187
tp392
a(S'2015-07-23 10:14:20.993000'
S'data saved as csv to C:\\Users\\oleach\\Charlie-master\\Charlie-master\\charlie\\data\\csv\\4426_stroop.csv'
tp393
a(S'2015-07-23 10:14:21.706000'
g185
tp394
a(S'2015-07-23 10:14:21.716000'
g187
tp395
a(S'2015-07-23 10:14:21.721000'
S'data saved as csv to C:\\Users\\oleach\\Charlie-master\\Charlie-master\\charlie\\data\\csv\\4426_stroop.csv'
tp396
a(S'2015-07-23 10:14:22.407000'
g185
tp397
a(S'2015-07-23 10:14:22.417000'
g187
tp398
a(S'2015-07-23 10:14:22.422000'
S'data saved as csv to C:\\Users\\oleach\\Charlie-master\\Charlie-master\\charlie\\data\\csv\\4426_stroop.csv'
tp399
a(S'2015-07-23 10:14:23.258000'
g185
tp400
a(S'2015-07-23 10:14:23.268000'
g187
tp401
a(S'2015-07-23 10:14:23.271000'
S'data saved as csv to C:\\Users\\oleach\\Charlie-master\\Charlie-master\\charlie\\data\\csv\\4426_stroop.csv'
tp402
a(S'2015-07-23 10:14:24.305000'
g185
tp403
a(S'2015-07-23 10:14:24.315000'
g187
tp404
a(S'2015-07-23 10:14:24.320000'
S'data saved as csv to C:\\Users\\oleach\\Charlie-master\\Charlie-master\\charlie\\data\\csv\\4426_stroop.csv'
tp405
a(S'2015-07-23 10:14:24.962000'
g185
tp406
a(S'2015-07-23 10:14:24.972000'
g187
tp407
a(S'2015-07-23 10:14:24.977000'
S'data saved as csv to C:\\Users\\oleach\\Charlie-master\\Charlie-master\\charlie\\data\\csv\\4426_stroop.csv'
tp408
a(S'2015-07-23 10:14:26.692000'
g185
tp409
a(S'2015-07-23 10:14:26.701000'
g187
tp410
a(S'2015-07-23 10:14:26.706000'
S'data saved as csv to C:\\Users\\oleach\\Charlie-master\\Charlie-master\\charlie\\data\\csv\\4426_stroop.csv'
tp411
a(S'2015-07-23 10:14:28.063000'
g185
tp412
a(S'2015-07-23 10:14:28.071000'
g187
tp413
a(S'2015-07-23 10:14:28.074000'
S'data saved as csv to C:\\Users\\oleach\\Charlie-master\\Charlie-master\\charlie\\data\\csv\\4426_stroop.csv'
tp414
a(S'2015-07-23 10:14:29.528000'
g185
tp415
a(S'2015-07-23 10:14:29.538000'
g187
tp416
a(S'2015-07-23 10:14:29.541000'
S'data saved as csv to C:\\Users\\oleach\\Charlie-master\\Charlie-master\\charlie\\data\\csv\\4426_stroop.csv'
tp417
a(S'2015-07-23 10:14:31.497000'
g185
tp418
a(S'2015-07-23 10:14:31.507000'
g187
tp419
a(S'2015-07-23 10:14:31.512000'
S'data saved as csv to C:\\Users\\oleach\\Charlie-master\\Charlie-master\\charlie\\data\\csv\\4426_stroop.csv'
tp420
a(S'2015-07-23 10:14:32.898000'
g185
tp421
a(S'2015-07-23 10:14:32.908000'
g187
tp422
a(S'2015-07-23 10:14:32.913000'
S'data saved as csv to C:\\Users\\oleach\\Charlie-master\\Charlie-master\\charlie\\data\\csv\\4426_stroop.csv'
tp423
a(S'2015-07-23 10:14:33.650000'
g185
tp424
a(S'2015-07-23 10:14:33.660000'
g187
tp425
a(S'2015-07-23 10:14:33.665000'
S'data saved as csv to C:\\Users\\oleach\\Charlie-master\\Charlie-master\\charlie\\data\\csv\\4426_stroop.csv'
tp426
a(S'2015-07-23 10:14:36.073000'
g185
tp427
a(S'2015-07-23 10:14:36.081000'
g187
tp428
a(S'2015-07-23 10:14:36.084000'
S'data saved as csv to C:\\Users\\oleach\\Charlie-master\\Charlie-master\\charlie\\data\\csv\\4426_stroop.csv'
tp429
a(S'2015-07-23 10:14:36.919000'
g185
tp430
a(S'2015-07-23 10:14:36.929000'
g187
tp431
a(S'2015-07-23 10:14:36.934000'
S'data saved as csv to C:\\Users\\oleach\\Charlie-master\\Charlie-master\\charlie\\data\\csv\\4426_stroop.csv'
tp432
a(S'2015-07-23 10:14:39.252000'
g185
tp433
a(S'2015-07-23 10:14:39.261000'
g187
tp434
a(S'2015-07-23 10:14:39.264000'
S'data saved as csv to C:\\Users\\oleach\\Charlie-master\\Charlie-master\\charlie\\data\\csv\\4426_stroop.csv'
tp435
a(S'2015-07-23 10:14:40.128000'
g185
tp436
a(S'2015-07-23 10:14:40.138000'
g187
tp437
a(S'2015-07-23 10:14:40.143000'
S'data saved as csv to C:\\Users\\oleach\\Charlie-master\\Charlie-master\\charlie\\data\\csv\\4426_stroop.csv'
tp438
a(S'2015-07-23 10:14:41.131000'
g185
tp439
a(S'2015-07-23 10:14:41.141000'
g187
tp440
a(S'2015-07-23 10:14:41.162000'
S'data saved as csv to C:\\Users\\oleach\\Charlie-master\\Charlie-master\\charlie\\data\\csv\\4426_stroop.csv'
tp441
a(S'2015-07-23 10:14:42.229000'
g185
tp442
a(S'2015-07-23 10:14:42.239000'
g187
tp443
a(S'2015-07-23 10:14:42.244000'
S'data saved as csv to C:\\Users\\oleach\\Charlie-master\\Charlie-master\\charlie\\data\\csv\\4426_stroop.csv'
tp444
a(S'2015-07-23 10:14:43.141000'
g185
tp445
a(S'2015-07-23 10:14:43.151000'
g187
tp446
a(S'2015-07-23 10:14:43.156000'
S'data saved as csv to C:\\Users\\oleach\\Charlie-master\\Charlie-master\\charlie\\data\\csv\\4426_stroop.csv'
tp447
a(S'2015-07-23 10:14:44.032000'
g185
tp448
a(S'2015-07-23 10:14:44.042000'
g187
tp449
a(S'2015-07-23 10:14:44.048000'
S'data saved as csv to C:\\Users\\oleach\\Charlie-master\\Charlie-master\\charlie\\data\\csv\\4426_stroop.csv'
tp450
a(S'2015-07-23 10:14:44.894000'
g185
tp451
a(S'2015-07-23 10:14:44.902000'
g187
tp452
a(S'2015-07-23 10:14:44.905000'
S'data saved as csv to C:\\Users\\oleach\\Charlie-master\\Charlie-master\\charlie\\data\\csv\\4426_stroop.csv'
tp453
a(S'2015-07-23 10:14:45.689000'
g185
tp454
a(S'2015-07-23 10:14:45.699000'
g187
tp455
a(S'2015-07-23 10:14:45.704000'
S'data saved as csv to C:\\Users\\oleach\\Charlie-master\\Charlie-master\\charlie\\data\\csv\\4426_stroop.csv'
tp456
a(S'2015-07-23 10:14:46.531000'
g185
tp457
a(S'2015-07-23 10:14:46.541000'
g187
tp458
a(S'2015-07-23 10:14:46.546000'
S'data saved as csv to C:\\Users\\oleach\\Charlie-master\\Charlie-master\\charlie\\data\\csv\\4426_stroop.csv'
tp459
a(S'2015-07-23 10:14:47.362000'
g185
tp460
a(S'2015-07-23 10:14:47.372000'
g187
tp461
a(S'2015-07-23 10:14:47.377000'
S'data saved as csv to C:\\Users\\oleach\\Charlie-master\\Charlie-master\\charlie\\data\\csv\\4426_stroop.csv'
tp462
a(S'2015-07-23 10:14:48.174000'
g185
tp463
a(S'2015-07-23 10:14:48.184000'
g187
tp464
a(S'2015-07-23 10:14:48.189000'
S'data saved as csv to C:\\Users\\oleach\\Charlie-master\\Charlie-master\\charlie\\data\\csv\\4426_stroop.csv'
tp465
a(S'2015-07-23 10:14:48.986000'
g185
tp466
a(S'2015-07-23 10:14:48.996000'
g187
tp467
a(S'2015-07-23 10:14:49.001000'
S'data saved as csv to C:\\Users\\oleach\\Charlie-master\\Charlie-master\\charlie\\data\\csv\\4426_stroop.csv'
tp468
a(S'2015-07-23 10:14:49.848000'
g185
tp469
a(S'2015-07-23 10:14:49.855000'
g187
tp470
a(S'2015-07-23 10:14:49.863000'
S'data saved as csv to C:\\Users\\oleach\\Charlie-master\\Charlie-master\\charlie\\data\\csv\\4426_stroop.csv'
tp471
a(S'2015-07-23 10:14:50.659000'
g185
tp472
a(S'2015-07-23 10:14:50.669000'
g187
tp473
a(S'2015-07-23 10:14:50.675000'
S'data saved as csv to C:\\Users\\oleach\\Charlie-master\\Charlie-master\\charlie\\data\\csv\\4426_stroop.csv'
tp474
a(S'2015-07-23 10:14:51.992000'
g185
tp475
a(S'2015-07-23 10:14:52.001000'
g187
tp476
a(S'2015-07-23 10:14:52.007000'
S'data saved as csv to C:\\Users\\oleach\\Charlie-master\\Charlie-master\\charlie\\data\\csv\\4426_stroop.csv'
tp477
a(S'2015-07-23 10:14:52.802000'
g185
tp478
a(S'2015-07-23 10:14:52.812000'
g187
tp479
a(S'2015-07-23 10:14:52.817000'
S'data saved as csv to C:\\Users\\oleach\\Charlie-master\\Charlie-master\\charlie\\data\\csv\\4426_stroop.csv'
tp480
a(S'2015-07-23 10:14:53.589000'
g185
tp481
a(S'2015-07-23 10:14:53.594000'
g187
tp482
a(S'2015-07-23 10:14:53.596000'
S'data saved as csv to C:\\Users\\oleach\\Charlie-master\\Charlie-master\\charlie\\data\\csv\\4426_stroop.csv'
tp483
a(S'2015-07-23 10:14:54.378000'
g185
tp484
a(S'2015-07-23 10:14:54.388000'
g187
tp485
a(S'2015-07-23 10:14:54.394000'
S'data saved as csv to C:\\Users\\oleach\\Charlie-master\\Charlie-master\\charlie\\data\\csv\\4426_stroop.csv'
tp486
a(S'2015-07-23 10:14:55.362000'
g185
tp487
a(S'2015-07-23 10:14:55.371000'
g187
tp488
a(S'2015-07-23 10:14:55.374000'
S'data saved as csv to C:\\Users\\oleach\\Charlie-master\\Charlie-master\\charlie\\data\\csv\\4426_stroop.csv'
tp489
a(S'2015-07-23 10:14:56.100000'
g185
tp490
a(S'2015-07-23 10:14:56.110000'
g187
tp491
a(S'2015-07-23 10:14:56.115000'
S'data saved as csv to C:\\Users\\oleach\\Charlie-master\\Charlie-master\\charlie\\data\\csv\\4426_stroop.csv'
tp492
a(S'2015-07-23 10:14:57.091000'
g185
tp493
a(S'2015-07-23 10:14:57.102000'
g187
tp494
a(S'2015-07-23 10:14:57.107000'
S'data saved as csv to C:\\Users\\oleach\\Charlie-master\\Charlie-master\\charlie\\data\\csv\\4426_stroop.csv'
tp495
a(S'2015-07-23 10:14:59.033000'
g185
tp496
a(S'2015-07-23 10:14:59.043000'
g187
tp497
a(S'2015-07-23 10:14:59.049000'
S'data saved as csv to C:\\Users\\oleach\\Charlie-master\\Charlie-master\\charlie\\data\\csv\\4426_stroop.csv'
tp498
a(S'2015-07-23 10:14:59.796000'
g185
tp499
a(S'2015-07-23 10:14:59.806000'
g187
tp500
a(S'2015-07-23 10:14:59.811000'
S'data saved as csv to C:\\Users\\oleach\\Charlie-master\\Charlie-master\\charlie\\data\\csv\\4426_stroop.csv'
tp501
a(S'2015-07-23 10:15:00.456000'
g185
tp502
a(S'2015-07-23 10:15:00.466000'
g187
tp503
a(S'2015-07-23 10:15:00.471000'
S'data saved as csv to C:\\Users\\oleach\\Charlie-master\\Charlie-master\\charlie\\data\\csv\\4426_stroop.csv'
tp504
a(S'2015-07-23 10:15:01.296000'
g185
tp505
a(S'2015-07-23 10:15:01.306000'
g187
tp506
a(S'2015-07-23 10:15:01.311000'
S'data saved as csv to C:\\Users\\oleach\\Charlie-master\\Charlie-master\\charlie\\data\\csv\\4426_stroop.csv'
tp507
a(S'2015-07-23 10:15:02.285000'
g185
tp508
a(S'2015-07-23 10:15:02.295000'
g187
tp509
a(S'2015-07-23 10:15:02.301000'
S'data saved as csv to C:\\Users\\oleach\\Charlie-master\\Charlie-master\\charlie\\data\\csv\\4426_stroop.csv'
tp510
a(S'2015-07-23 10:15:03.076000'
g185
tp511
a(S'2015-07-23 10:15:03.084000'
g187
tp512
a(S'2015-07-23 10:15:03.087000'
S'data saved as csv to C:\\Users\\oleach\\Charlie-master\\Charlie-master\\charlie\\data\\csv\\4426_stroop.csv'
tp513
a(S'2015-07-23 10:15:03.781000'
g185
tp514
a(S'2015-07-23 10:15:03.791000'
g187
tp515
a(S'2015-07-23 10:15:03.797000'
S'data saved as csv to C:\\Users\\oleach\\Charlie-master\\Charlie-master\\charlie\\data\\csv\\4426_stroop.csv'
tp516
a(S'2015-07-23 10:15:04.613000'
g185
tp517
a(S'2015-07-23 10:15:04.624000'
g187
tp518
a(S'2015-07-23 10:15:04.629000'
S'data saved as csv to C:\\Users\\oleach\\Charlie-master\\Charlie-master\\charlie\\data\\csv\\4426_stroop.csv'
tp519
a(S'2015-07-23 10:15:05.806000'
g185
tp520
a(S'2015-07-23 10:15:05.815000'
g187
tp521
a(S'2015-07-23 10:15:05.818000'
S'data saved as csv to C:\\Users\\oleach\\Charlie-master\\Charlie-master\\charlie\\data\\csv\\4426_stroop.csv'
tp522
a(S'2015-07-23 10:15:07.855000'
g185
tp523
a(S'2015-07-23 10:15:07.865000'
g187
tp524
a(S'2015-07-23 10:15:07.871000'
S'data saved as csv to C:\\Users\\oleach\\Charlie-master\\Charlie-master\\charlie\\data\\csv\\4426_stroop.csv'
tp525
a(S'2015-07-23 10:15:08.658000'
g185
tp526
a(S'2015-07-23 10:15:08.669000'
g187
tp527
a(S'2015-07-23 10:15:08.674000'
S'data saved as csv to C:\\Users\\oleach\\Charlie-master\\Charlie-master\\charlie\\data\\csv\\4426_stroop.csv'
tp528
a(S'2015-07-23 10:15:11.214000'
g185
tp529
a(S'2015-07-23 10:15:11.224000'
g187
tp530
a(S'2015-07-23 10:15:11.230000'
S'data saved as csv to C:\\Users\\oleach\\Charlie-master\\Charlie-master\\charlie\\data\\csv\\4426_stroop.csv'
tp531
a(S'2015-07-23 10:15:11.927000'
g185
tp532
a(S'2015-07-23 10:15:11.935000'
g187
tp533
a(S'2015-07-23 10:15:11.938000'
S'data saved as csv to C:\\Users\\oleach\\Charlie-master\\Charlie-master\\charlie\\data\\csv\\4426_stroop.csv'
tp534
asb.