(icharlie.tools.data
Data
p1
(dp2
S'lang'
p3
S'EN'
p4
sS'control'
p5
(lp6
sS'last_updated'
p7
cdatetime
datetime
p8
(S'\x07\xdf\x07\x17\n#\x04\x01\x9e\x10'
tRp9
sS'last_opened'
p10
g8
(S'\x07\xdf\x07\x17\n\x1e\x0c\x0c5\x00'
tRp11
sS'proj_id'
p12
S'connectivity'
p13
sS'date_done'
p14
NsS'test_done'
p15
I01
sS'data'
p16
(lp17
(S'4426'
p18
S'ctrails'
p19
S'number'
p20
S'practice'
p21
I0
I1
S'Correct'
p22
I4480
I11605
tp23
a(g18
g19
g20
g21
I1
I2
g22
I1270
I11605
tp24
a(g18
g19
g20
g21
I2
I3
g22
I1230
I11605
tp25
a(g18
g19
g20
g21
I3
I4
g22
I860
I11605
tp26
a(g18
g19
g20
g21
I4
I5
g22
I1020
I11605
tp27
a(g18
g19
g20
g21
I5
I6
g22
I1040
I11605
tp28
a(g18
g19
g20
g21
I6
I7
g22
I810
I11605
tp29
a(g18
g19
g20
g21
I7
I8
g22
I850
I11605
tp30
a(g18
g19
g20
S'test'
p31
I0
I1
g22
I2930
I52200
tp32
a(g18
g19
g20
g31
I1
I2
g22
I4250
I52200
tp33
a(g18
g19
g20
g31
I2
I3
g22
I1910
I52200
tp34
a(g18
g19
g20
g31
I3
I4
g22
I4911
I52200
tp35
a(g18
g19
g20
g31
I4
I5
g22
I2610
I52200
tp36
a(g18
g19
g20
g31
I5
I6
g22
I1670
I52200
tp37
a(g18
g19
g20
g31
I6
I7
g22
I820
I52200
tp38
a(g18
g19
g20
g31
I7
I8
g22
I1760
I52200
tp39
a(g18
g19
g20
g31
I8
I9
g22
I2930
I52200
tp40
a(g18
g19
g20
g31
I9
I10
g22
I2390
I52200
tp41
a(g18
g19
g20
g31
I10
I11
g22
I1920
I52200
tp42
a(g18
g19
g20
g31
I11
I12
g22
I1501
I52200
tp43
a(g18
g19
g20
g31
I12
I13
g22
I2510
I52200
tp44
a(g18
g19
g20
g31
I13
I14
g22
I3210
I52200
tp45
a(g18
g19
g20
g31
I14
I15
g22
I1830
I52200
tp46
a(g18
g19
g20
g31
I15
I16
g22
I1290
I52200
tp47
a(g18
g19
g20
g31
I16
I17
g22
I1400
I52200
tp48
a(g18
g19
g20
g31
I17
I18
g22
I1050
I52200
tp49
a(g18
g19
g20
g31
I18
I19
g22
I2190
I52200
tp50
a(g18
g19
g20
g31
I19
I20
g22
I3310
I52200
tp51
a(g18
g19
g20
g31
I20
I21
g22
I991
I52200
tp52
a(g18
g19
g20
g31
I21
I22
g22
I1190
I52200
tp53
a(g18
g19
g20
g31
I22
I23
g22
I1000
I52200
tp54
a(g18
g19
g20
g31
I23
I24
g22
I1270
I52200
tp55
a(g18
g19
g20
g31
I24
I25
g22
I1240
I52200
tp56
a(g18
g19
S'letter'
p57
g21
I0
S'a'
g22
I2561
I10748
tp58
a(g18
g19
g57
g21
I1
S'b'
g22
I1060
I10748
tp59
a(g18
g19
g57
g21
I2
S'c'
g22
I1040
I10748
tp60
a(g18
g19
g57
g21
I3
S'd'
g22
I1250
I10748
tp61
a(g18
g19
g57
g21
I4
S'e'
g22
I1160
I10748
tp62
a(g18
g19
g57
g21
I5
S'f'
g22
I1150
I10748
tp63
a(g18
g19
g57
g21
I6
S'g'
g22
I1380
I10748
tp64
a(g18
g19
g57
g21
I7
S'h'
g22
I1100
I10748
tp65
a(g18
g19
g57
g31
I0
S'a'
g22
I4980
I45308
tp66
a(g18
g19
g57
g31
I1
S'b'
g22
I1790
I45308
tp67
a(g18
g19
g57
g31
I2
S'c'
g22
I2160
I45308
tp68
a(g18
g19
g57
g31
I3
S'd'
g22
I2440
I45308
tp69
a(g18
g19
g57
g31
I4
S'e'
g22
I1340
I45308
tp70
a(g18
g19
g57
g31
I5
S'f'
g22
I1150
I45308
tp71
a(g18
g19
g57
g31
I6
S'g'
g22
I2081
I45308
tp72
a(g18
g19
g57
g31
I7
S'h'
g22
I2260
I45308
tp73
a(g18
g19
g57
g31
I8
S'i'
g22
I1040
I45308
tp74
a(g18
g19
g57
g31
I9
S'j'
g22
I2200
I45308
tp75
a(g18
g19
g57
g31
I10
S'k'
g22
I2240
I45308
tp76
a(g18
g19
g57
g31
I11
S'l'
g22
I2010
I45308
tp77
a(g18
g19
g57
g31
I12
S'm'
g22
I2120
I45308
tp78
a(g18
g19
g57
g31
I13
S'n'
g22
I1230
I45308
tp79
a(g18
g19
g57
g31
I14
S'o'
g22
I1510
I45308
tp80
a(g18
g19
g57
g31
I15
S'p'
g22
I3761
I45308
tp81
a(g18
g19
g57
g31
I16
S'q'
g22
I1220
I45308
tp82
a(g18
g19
g57
g31
I17
S'r'
g22
I1010
I45308
tp83
a(g18
g19
g57
g31
I18
S's'
g22
I1210
I45308
tp84
a(g18
g19
g57
g31
I19
S't'
g22
I890
I45308
tp85
a(g18
g19
g57
g31
I20
S'u'
g22
I1120
I45308
tp86
a(g18
g19
g57
g31
I21
S'v'
g22
I920
I45308
tp87
a(g18
g19
g57
g31
I22
S'w'
g22
I830
I45308
tp88
a(g18
g19
g57
g31
I23
S'x'
g22
I1580
I45308
tp89
a(g18
g19
g57
g31
I24
S'y'
g22
I2100
I45308
tp90
a(g18
g19
S'number-letter'
p91
g21
I0
I1
g22
I2200
I11187
tp92
a(g18
g19
g91
g21
I1
S'a'
g22
I1510
I11187
tp93
a(g18
g19
g91
g21
I2
I2
g22
I1580
I11187
tp94
a(g18
g19
g91
g21
I3
S'b'
g22
I1430
I11187
tp95
a(g18
g19
g91
g21
I4
I3
g22
I1060
I11187
tp96
a(g18
g19
g91
g21
I5
S'c'
g22
I980
I11187
tp97
a(g18
g19
g91
g21
I6
I4
g22
I1510
I11187
tp98
a(g18
g19
g91
g21
I7
S'd'
g22
I870
I11187
tp99
a(g18
g19
g91
g31
I0
I1
g22
I2540
I62660
tp100
a(g18
g19
g91
g31
I1
S'a'
g22
I1120
I62660
tp101
a(g18
g19
g91
g31
I2
I2
g22
I1280
I62660
tp102
a(g18
g19
g91
g31
I3
S'b'
g22
I2590
I62660
tp103
a(g18
g19
g91
g31
I4
I3
g22
I3491
I62660
tp104
a(g18
g19
g91
g31
I5
S'c'
g22
I4970
I62660
tp105
a(g18
g19
g91
g31
I6
I4
g22
I5450
I62660
tp106
a(g18
g19
g91
g31
I7
S'd'
g22
I2160
I62660
tp107
a(g18
g19
g91
g31
I8
I5
g22
I2910
I62660
tp108
a(g18
g19
g91
g31
I9
S'e'
g22
I1750
I62660
tp109
a(g18
g19
g91
g31
I10
I6
g22
I2360
I62660
tp110
a(g18
g19
g91
g31
I11
S'f'
g22
I2200
I62660
tp111
a(g18
g19
g91
g31
I12
I7
g22
I3920
I62660
tp112
a(g18
g19
g91
g31
I13
S'g'
g22
I4410
I62660
tp113
a(g18
g19
g91
g31
I14
I8
g22
I2030
I62660
tp114
a(g18
g19
g91
g31
I15
S'h'
g22
I1961
I62660
tp115
a(g18
g19
g91
g31
I16
I9
g22
I2550
I62660
tp116
a(g18
g19
g91
g31
I17
S'i'
g22
I1260
I62660
tp117
a(g18
g19
g91
g31
I18
I10
g22
I1050
I62660
tp118
a(g18
g19
g91
g31
I19
S'j'
g22
I1150
I62660
tp119
a(g18
g19
g91
g31
I20
I11
g22
I1860
I62660
tp120
a(g18
g19
g91
g31
I21
S'k'
g22
I2530
I62660
tp121
a(g18
g19
g91
g31
I22
I12
g22
I3600
I62660
tp122
a(g18
g19
g91
g31
I23
S'l'
g22
I1480
I62660
tp123
a(g18
g19
g91
g31
I24
I13
g22
I1921
I62660
tp124
asS'output_format'
p125
(lp126
(S'proband_id'
p127
c__builtin__
str
p128
tp129
a(S'test_name'
p130
g128
tp131
a(S'phase'
p132
g128
tp133
a(S'trial_type'
p134
g128
tp135
a(S'n'
c__builtin__
int
p136
tp137
a(S'rsp'
p138
g128
tp139
a(S'corr'
p140
g128
tp141
a(S'rt'
p142
g136
tp143
a(S'total_time'
p144
g136
tp145
asg127
g18
sS'filename'
p146
S'4426_ctrails.data'
p147
sS'initialised'
p148
g8
(S'\x07\xdf\x07\x17\n\x1e\x0c\x0c5\x00'
tRp149
sS'last_udated'
p150
g8
(S'\x07\xdf\x07\x17\n\x1e\x0c\x0c5\x00'
tRp151
sg130
S'ctrails'
p152
sS'directory'
p153
S'C:\\Users\\oleach\\Charlie-master\\Charlie-master\\charlie\\data\\raw'
p154
sS'user_id'
p155
S'oleach'
p156
sS'test_started'
p157
I01
sS'abs_filename'
p158
S'C:\\Users\\oleach\\Charlie-master\\Charlie-master\\charlie\\data\\raw\\4426_ctrails.data'
p159
sS'date_started'
p160
g8
(S'\x07\xdf\x07\x17\n\x1e4\x02\xf1\xe8'
tRp161
sS'log'
p162
(lp163
(S'2015-07-23 10:30:12.800000'
S'instance created'
p164
tp165
a(S'2015-07-23 10:30:52.203000'
S'instance updated'
p166
tp167
a(S'2015-07-23 10:30:52.212000'
S'pandas DataFrame of data created'
p168
tp169
a(S'2015-07-23 10:30:52.216000'
S'data saved as csv to C:\\Users\\oleach\\Charlie-master\\Charlie-master\\charlie\\data\\csv\\4426_ctrails.csv'
tp170
a(S'2015-07-23 10:31:55.762000'
g166
tp171
a(S'2015-07-23 10:31:55.771000'
g168
tp172
a(S'2015-07-23 10:31:55.775000'
S'data saved as csv to C:\\Users\\oleach\\Charlie-master\\Charlie-master\\charlie\\data\\csv\\4426_ctrails.csv'
tp173
a(S'2015-07-23 10:32:18.240000'
g166
tp174
a(S'2015-07-23 10:32:18.250000'
g168
tp175
a(S'2015-07-23 10:32:18.254000'
S'data saved as csv to C:\\Users\\oleach\\Charlie-master\\Charlie-master\\charlie\\data\\csv\\4426_ctrails.csv'
tp176
a(S'2015-07-23 10:33:13.029000'
g166
tp177
a(S'2015-07-23 10:33:13.039000'
g168
tp178
a(S'2015-07-23 10:33:13.043000'
S'data saved as csv to C:\\Users\\oleach\\Charlie-master\\Charlie-master\\charlie\\data\\csv\\4426_ctrails.csv'
tp179
a(S'2015-07-23 10:33:50.188000'
g166
tp180
a(S'2015-07-23 10:33:50.197000'
g168
tp181
a(S'2015-07-23 10:33:50.200000'
S'data saved as csv to C:\\Users\\oleach\\Charlie-master\\Charlie-master\\charlie\\data\\csv\\4426_ctrails.csv'
tp182
a(S'2015-07-23 10:35:04.090000'
g166
tp183
a(S'2015-07-23 10:35:04.100000'
g168
tp184
a(S'2015-07-23 10:35:04.105000'
S'data saved as csv to C:\\Users\\oleach\\Charlie-master\\Charlie-master\\charlie\\data\\csv\\4426_ctrails.csv'
tp185
asb.