(icharlie.tools.data
Data
p1
(dp2
S'lang'
p3
S'EN'
p4
sS'control'
p5
(lp6
sS'last_updated'
p7
cdatetime
datetime
p8
(S'\x07\xdf\x07\x17\n\x168\x0e\x19`'
tRp9
sS'last_opened'
p10
g8
(S'\x07\xdf\x07\x17\n\x15-\x085\x90'
tRp11
sS'proj_id'
p12
S'connectivity'
p13
sS'date_done'
p14
NsS'test_done'
p15
I01
sS'data'
p16
(lp17
(S'4426'
p18
S'face_memory_delay'
p19
S'test'
p20
I0
S'C:\\Users\\oleach\\Charlie-master\\Charlie-master\\charlie\\stimuli\\visual\\face_memory_delay\\ddis10.bmp'
S'No'
p21
g21
I1690
tp22
a(g18
g19
g20
I1
S'C:\\Users\\oleach\\Charlie-master\\Charlie-master\\charlie\\stimuli\\visual\\face_memory_delay\\ddis04.bmp'
g21
S'Yes'
p23
I1770
tp24
a(g18
g19
g20
I2
S'C:\\Users\\oleach\\Charlie-master\\Charlie-master\\charlie\\stimuli\\visual\\face_memory_delay\\tar07.bmp'
g23
g23
I780
tp25
a(g18
g19
g20
I3
S'C:\\Users\\oleach\\Charlie-master\\Charlie-master\\charlie\\stimuli\\visual\\face_memory_delay\\tar18.bmp'
g23
g23
I890
tp26
a(g18
g19
g20
I4
S'C:\\Users\\oleach\\Charlie-master\\Charlie-master\\charlie\\stimuli\\visual\\face_memory_delay\\ddis14.bmp'
g21
g23
I941
tp27
a(g18
g19
g20
I5
S'C:\\Users\\oleach\\Charlie-master\\Charlie-master\\charlie\\stimuli\\visual\\face_memory_delay\\tar19.bmp'
g23
g23
I1010
tp28
a(g18
g19
g20
I6
S'C:\\Users\\oleach\\Charlie-master\\Charlie-master\\charlie\\stimuli\\visual\\face_memory_delay\\ddis13.bmp'
g21
g21
I1140
tp29
a(g18
g19
g20
I7
S'C:\\Users\\oleach\\Charlie-master\\Charlie-master\\charlie\\stimuli\\visual\\face_memory_delay\\tar15.bmp'
g23
g23
I860
tp30
a(g18
g19
g20
I8
S'C:\\Users\\oleach\\Charlie-master\\Charlie-master\\charlie\\stimuli\\visual\\face_memory_delay\\tar11.bmp'
g23
g23
I710
tp31
a(g18
g19
g20
I9
S'C:\\Users\\oleach\\Charlie-master\\Charlie-master\\charlie\\stimuli\\visual\\face_memory_delay\\ddis05.bmp'
g21
g21
I1310
tp32
a(g18
g19
g20
I10
S'C:\\Users\\oleach\\Charlie-master\\Charlie-master\\charlie\\stimuli\\visual\\face_memory_delay\\ddis01.bmp'
g21
g21
I1050
tp33
a(g18
g19
g20
I11
S'C:\\Users\\oleach\\Charlie-master\\Charlie-master\\charlie\\stimuli\\visual\\face_memory_delay\\ddis16.bmp'
g21
g21
I1260
tp34
a(g18
g19
g20
I12
S'C:\\Users\\oleach\\Charlie-master\\Charlie-master\\charlie\\stimuli\\visual\\face_memory_delay\\tar02.bmp'
g23
g23
I800
tp35
a(g18
g19
g20
I13
S'C:\\Users\\oleach\\Charlie-master\\Charlie-master\\charlie\\stimuli\\visual\\face_memory_delay\\tar08.bmp'
g23
g23
I890
tp36
a(g18
g19
g20
I14
S'C:\\Users\\oleach\\Charlie-master\\Charlie-master\\charlie\\stimuli\\visual\\face_memory_delay\\tar13.bmp'
g23
g23
I780
tp37
a(g18
g19
g20
I15
S'C:\\Users\\oleach\\Charlie-master\\Charlie-master\\charlie\\stimuli\\visual\\face_memory_delay\\tar20.bmp'
g23
g23
I1040
tp38
a(g18
g19
g20
I16
S'C:\\Users\\oleach\\Charlie-master\\Charlie-master\\charlie\\stimuli\\visual\\face_memory_delay\\ddis18.bmp'
g21
g21
I1240
tp39
a(g18
g19
g20
I17
S'C:\\Users\\oleach\\Charlie-master\\Charlie-master\\charlie\\stimuli\\visual\\face_memory_delay\\tar06.bmp'
g23
g23
I890
tp40
a(g18
g19
g20
I18
S'C:\\Users\\oleach\\Charlie-master\\Charlie-master\\charlie\\stimuli\\visual\\face_memory_delay\\ddis07.bmp'
g21
g21
I920
tp41
a(g18
g19
g20
I19
S'C:\\Users\\oleach\\Charlie-master\\Charlie-master\\charlie\\stimuli\\visual\\face_memory_delay\\ddis08.bmp'
g21
g21
I1191
tp42
a(g18
g19
g20
I20
S'C:\\Users\\oleach\\Charlie-master\\Charlie-master\\charlie\\stimuli\\visual\\face_memory_delay\\tar12.bmp'
g23
g21
I1320
tp43
a(g18
g19
g20
I21
S'C:\\Users\\oleach\\Charlie-master\\Charlie-master\\charlie\\stimuli\\visual\\face_memory_delay\\ddis17.bmp'
g21
g21
I1070
tp44
a(g18
g19
g20
I22
S'C:\\Users\\oleach\\Charlie-master\\Charlie-master\\charlie\\stimuli\\visual\\face_memory_delay\\tar05.bmp'
g23
g23
I1730
tp45
a(g18
g19
g20
I23
S'C:\\Users\\oleach\\Charlie-master\\Charlie-master\\charlie\\stimuli\\visual\\face_memory_delay\\tar10.bmp'
g23
g21
I920
tp46
a(g18
g19
g20
I24
S'C:\\Users\\oleach\\Charlie-master\\Charlie-master\\charlie\\stimuli\\visual\\face_memory_delay\\ddis02.bmp'
g21
g21
I1180
tp47
a(g18
g19
g20
I25
S'C:\\Users\\oleach\\Charlie-master\\Charlie-master\\charlie\\stimuli\\visual\\face_memory_delay\\ddis20.bmp'
g21
g21
I870
tp48
a(g18
g19
g20
I26
S'C:\\Users\\oleach\\Charlie-master\\Charlie-master\\charlie\\stimuli\\visual\\face_memory_delay\\tar17.bmp'
g23
g21
I930
tp49
a(g18
g19
g20
I27
S'C:\\Users\\oleach\\Charlie-master\\Charlie-master\\charlie\\stimuli\\visual\\face_memory_delay\\ddis15.bmp'
g21
g23
I1020
tp50
a(g18
g19
g20
I28
S'C:\\Users\\oleach\\Charlie-master\\Charlie-master\\charlie\\stimuli\\visual\\face_memory_delay\\tar03.bmp'
g23
g23
I1080
tp51
a(g18
g19
g20
I29
S'C:\\Users\\oleach\\Charlie-master\\Charlie-master\\charlie\\stimuli\\visual\\face_memory_delay\\ddis19.bmp'
g21
g21
I970
tp52
a(g18
g19
g20
I30
S'C:\\Users\\oleach\\Charlie-master\\Charlie-master\\charlie\\stimuli\\visual\\face_memory_delay\\ddis12.bmp'
g21
g21
I1800
tp53
a(g18
g19
g20
I31
S'C:\\Users\\oleach\\Charlie-master\\Charlie-master\\charlie\\stimuli\\visual\\face_memory_delay\\tar16.bmp'
g23
g23
I1380
tp54
a(g18
g19
g20
I32
S'C:\\Users\\oleach\\Charlie-master\\Charlie-master\\charlie\\stimuli\\visual\\face_memory_delay\\tar09.bmp'
g23
g21
I1291
tp55
a(g18
g19
g20
I33
S'C:\\Users\\oleach\\Charlie-master\\Charlie-master\\charlie\\stimuli\\visual\\face_memory_delay\\ddis09.bmp'
g21
g21
I930
tp56
a(g18
g19
g20
I34
S'C:\\Users\\oleach\\Charlie-master\\Charlie-master\\charlie\\stimuli\\visual\\face_memory_delay\\tar01.bmp'
g23
g23
I990
tp57
a(g18
g19
g20
I35
S'C:\\Users\\oleach\\Charlie-master\\Charlie-master\\charlie\\stimuli\\visual\\face_memory_delay\\ddis11.bmp'
g21
g21
I1120
tp58
a(g18
g19
g20
I36
S'C:\\Users\\oleach\\Charlie-master\\Charlie-master\\charlie\\stimuli\\visual\\face_memory_delay\\ddis03.bmp'
g21
g23
I1120
tp59
a(g18
g19
g20
I37
S'C:\\Users\\oleach\\Charlie-master\\Charlie-master\\charlie\\stimuli\\visual\\face_memory_delay\\tar04.bmp'
g23
g23
I1080
tp60
a(g18
g19
g20
I38
S'C:\\Users\\oleach\\Charlie-master\\Charlie-master\\charlie\\stimuli\\visual\\face_memory_delay\\tar14.bmp'
g23
g21
I810
tp61
a(g18
g19
g20
I39
S'C:\\Users\\oleach\\Charlie-master\\Charlie-master\\charlie\\stimuli\\visual\\face_memory_delay\\ddis06.bmp'
p62
g21
g21
I800
tp63
asS'output_format'
p64
(lp65
(S'proband_id'
p66
c__builtin__
str
p67
tp68
a(S'test_name'
p69
g67
tp70
a(S'phase'
p71
g67
tp72
a(S'trialn'
p73
c__builtin__
int
p74
tp75
a(S'f'
g67
tp76
a(S'ans'
p77
g67
tp78
a(S'rsp'
p79
g67
tp80
a(S'rt'
p81
g74
tp82
asg66
g18
sS'filename'
p83
S'4426_face_memory_delay.data'
p84
sS'initialised'
p85
g8
(S'\x07\xdf\x07\x17\n\x15-\x085\x90'
tRp86
sS'last_udated'
p87
g8
(S'\x07\xdf\x07\x17\n\x15-\x085\x90'
tRp88
sg69
S'face_memory_delay'
p89
sS'directory'
p90
S'C:\\Users\\oleach\\Charlie-master\\Charlie-master\\charlie\\data\\raw'
p91
sS'user_id'
p92
S'oleach'
p93
sS'test_started'
p94
I01
sS'abs_filename'
p95
S'C:\\Users\\oleach\\Charlie-master\\Charlie-master\\charlie\\data\\raw\\4426_face_memory_delay.data'
p96
sS'date_started'
p97
g8
(S'\x07\xdf\x07\x17\n\x16\t\x07\x85\xc8'
tRp98
sS'log'
p99
(lp100
(S'2015-07-23 10:21:45.538000'
S'instance created'
p101
tp102
a(S'2015-07-23 10:22:09.504000'
S'instance updated'
p103
tp104
a(S'2015-07-23 10:22:09.512000'
S'pandas DataFrame of data created'
p105
tp106
a(S'2015-07-23 10:22:09.516000'
S'data saved as csv to C:\\Users\\oleach\\Charlie-master\\Charlie-master\\charlie\\data\\csv\\4426_face_memory_delay.csv'
tp107
a(S'2015-07-23 10:22:11.418000'
g103
tp108
a(S'2015-07-23 10:22:11.426000'
g105
tp109
a(S'2015-07-23 10:22:11.430000'
S'data saved as csv to C:\\Users\\oleach\\Charlie-master\\Charlie-master\\charlie\\data\\csv\\4426_face_memory_delay.csv'
tp110
a(S'2015-07-23 10:22:12.340000'
g103
tp111
a(S'2015-07-23 10:22:12.348000'
g105
tp112
a(S'2015-07-23 10:22:12.352000'
S'data saved as csv to C:\\Users\\oleach\\Charlie-master\\Charlie-master\\charlie\\data\\csv\\4426_face_memory_delay.csv'
tp113
a(S'2015-07-23 10:22:13.362000'
g103
tp114
a(S'2015-07-23 10:22:13.367000'
g105
tp115
a(S'2015-07-23 10:22:13.369000'
S'data saved as csv to C:\\Users\\oleach\\Charlie-master\\Charlie-master\\charlie\\data\\csv\\4426_face_memory_delay.csv'
tp116
a(S'2015-07-23 10:22:14.438000'
g103
tp117
a(S'2015-07-23 10:22:14.445000'
g105
tp118
a(S'2015-07-23 10:22:14.449000'
S'data saved as csv to C:\\Users\\oleach\\Charlie-master\\Charlie-master\\charlie\\data\\csv\\4426_face_memory_delay.csv'
tp119
a(S'2015-07-23 10:22:15.590000'
g103
tp120
a(S'2015-07-23 10:22:15.598000'
g105
tp121
a(S'2015-07-23 10:22:15.601000'
S'data saved as csv to C:\\Users\\oleach\\Charlie-master\\Charlie-master\\charlie\\data\\csv\\4426_face_memory_delay.csv'
tp122
a(S'2015-07-23 10:22:16.872000'
g103
tp123
a(S'2015-07-23 10:22:16.880000'
g105
tp124
a(S'2015-07-23 10:22:16.884000'
S'data saved as csv to C:\\Users\\oleach\\Charlie-master\\Charlie-master\\charlie\\data\\csv\\4426_face_memory_delay.csv'
tp125
a(S'2015-07-23 10:22:17.859000'
g103
tp126
a(S'2015-07-23 10:22:17.861000'
g105
tp127
a(S'2015-07-23 10:22:17.862000'
S'data saved as csv to C:\\Users\\oleach\\Charlie-master\\Charlie-master\\charlie\\data\\csv\\4426_face_memory_delay.csv'
tp128
a(S'2015-07-23 10:22:18.701000'
g103
tp129
a(S'2015-07-23 10:22:18.709000'
g105
tp130
a(S'2015-07-23 10:22:18.713000'
S'data saved as csv to C:\\Users\\oleach\\Charlie-master\\Charlie-master\\charlie\\data\\csv\\4426_face_memory_delay.csv'
tp131
a(S'2015-07-23 10:22:20.154000'
g103
tp132
a(S'2015-07-23 10:22:20.161000'
g105
tp133
a(S'2015-07-23 10:22:20.165000'
S'data saved as csv to C:\\Users\\oleach\\Charlie-master\\Charlie-master\\charlie\\data\\csv\\4426_face_memory_delay.csv'
tp134
a(S'2015-07-23 10:22:21.346000'
g103
tp135
a(S'2015-07-23 10:22:21.354000'
g105
tp136
a(S'2015-07-23 10:22:21.359000'
S'data saved as csv to C:\\Users\\oleach\\Charlie-master\\Charlie-master\\charlie\\data\\csv\\4426_face_memory_delay.csv'
tp137
a(S'2015-07-23 10:22:22.750000'
g103
tp138
a(S'2015-07-23 10:22:22.757000'
g105
tp139
a(S'2015-07-23 10:22:22.761000'
S'data saved as csv to C:\\Users\\oleach\\Charlie-master\\Charlie-master\\charlie\\data\\csv\\4426_face_memory_delay.csv'
tp140
a(S'2015-07-23 10:22:23.692000'
g103
tp141
a(S'2015-07-23 10:22:23.700000'
g105
tp142
a(S'2015-07-23 10:22:23.704000'
S'data saved as csv to C:\\Users\\oleach\\Charlie-master\\Charlie-master\\charlie\\data\\csv\\4426_face_memory_delay.csv'
tp143
a(S'2015-07-23 10:22:24.725000'
g103
tp144
a(S'2015-07-23 10:22:24.733000'
g105
tp145
a(S'2015-07-23 10:22:24.737000'
S'data saved as csv to C:\\Users\\oleach\\Charlie-master\\Charlie-master\\charlie\\data\\csv\\4426_face_memory_delay.csv'
tp146
a(S'2015-07-23 10:22:25.648000'
g103
tp147
a(S'2015-07-23 10:22:25.655000'
g105
tp148
a(S'2015-07-23 10:22:25.659000'
S'data saved as csv to C:\\Users\\oleach\\Charlie-master\\Charlie-master\\charlie\\data\\csv\\4426_face_memory_delay.csv'
tp149
a(S'2015-07-23 10:22:26.829000'
g103
tp150
a(S'2015-07-23 10:22:26.837000'
g105
tp151
a(S'2015-07-23 10:22:26.840000'
S'data saved as csv to C:\\Users\\oleach\\Charlie-master\\Charlie-master\\charlie\\data\\csv\\4426_face_memory_delay.csv'
tp152
a(S'2015-07-23 10:22:28.212000'
g103
tp153
a(S'2015-07-23 10:22:28.220000'
g105
tp154
a(S'2015-07-23 10:22:28.224000'
S'data saved as csv to C:\\Users\\oleach\\Charlie-master\\Charlie-master\\charlie\\data\\csv\\4426_face_memory_delay.csv'
tp155
a(S'2015-07-23 10:22:29.245000'
g103
tp156
a(S'2015-07-23 10:22:29.252000'
g105
tp157
a(S'2015-07-23 10:22:29.256000'
S'data saved as csv to C:\\Users\\oleach\\Charlie-master\\Charlie-master\\charlie\\data\\csv\\4426_face_memory_delay.csv'
tp158
a(S'2015-07-23 10:22:30.307000'
g103
tp159
a(S'2015-07-23 10:22:30.315000'
g105
tp160
a(S'2015-07-23 10:22:30.318000'
S'data saved as csv to C:\\Users\\oleach\\Charlie-master\\Charlie-master\\charlie\\data\\csv\\4426_face_memory_delay.csv'
tp161
a(S'2015-07-23 10:22:31.641000'
g103
tp162
a(S'2015-07-23 10:22:31.649000'
g105
tp163
a(S'2015-07-23 10:22:31.653000'
S'data saved as csv to C:\\Users\\oleach\\Charlie-master\\Charlie-master\\charlie\\data\\csv\\4426_face_memory_delay.csv'
tp164
a(S'2015-07-23 10:22:33.104000'
g103
tp165
a(S'2015-07-23 10:22:33.112000'
g105
tp166
a(S'2015-07-23 10:22:33.116000'
S'data saved as csv to C:\\Users\\oleach\\Charlie-master\\Charlie-master\\charlie\\data\\csv\\4426_face_memory_delay.csv'
tp167
a(S'2015-07-23 10:22:34.318000'
g103
tp168
a(S'2015-07-23 10:22:34.326000'
g105
tp169
a(S'2015-07-23 10:22:34.330000'
S'data saved as csv to C:\\Users\\oleach\\Charlie-master\\Charlie-master\\charlie\\data\\csv\\4426_face_memory_delay.csv'
tp170
a(S'2015-07-23 10:22:36.190000'
g103
tp171
a(S'2015-07-23 10:22:36.199000'
g105
tp172
a(S'2015-07-23 10:22:36.202000'
S'data saved as csv to C:\\Users\\oleach\\Charlie-master\\Charlie-master\\charlie\\data\\csv\\4426_face_memory_delay.csv'
tp173
a(S'2015-07-23 10:22:37.254000'
g103
tp174
a(S'2015-07-23 10:22:37.262000'
g105
tp175
a(S'2015-07-23 10:22:37.266000'
S'data saved as csv to C:\\Users\\oleach\\Charlie-master\\Charlie-master\\charlie\\data\\csv\\4426_face_memory_delay.csv'
tp176
a(S'2015-07-23 10:22:38.577000'
g103
tp177
a(S'2015-07-23 10:22:38.585000'
g105
tp178
a(S'2015-07-23 10:22:38.589000'
S'data saved as csv to C:\\Users\\oleach\\Charlie-master\\Charlie-master\\charlie\\data\\csv\\4426_face_memory_delay.csv'
tp179
a(S'2015-07-23 10:22:39.586000'
g103
tp180
a(S'2015-07-23 10:22:39.590000'
g105
tp181
a(S'2015-07-23 10:22:39.592000'
S'data saved as csv to C:\\Users\\oleach\\Charlie-master\\Charlie-master\\charlie\\data\\csv\\4426_face_memory_delay.csv'
tp182
a(S'2015-07-23 10:22:40.653000'
g103
tp183
a(S'2015-07-23 10:22:40.662000'
g105
tp184
a(S'2015-07-23 10:22:40.664000'
S'data saved as csv to C:\\Users\\oleach\\Charlie-master\\Charlie-master\\charlie\\data\\csv\\4426_face_memory_delay.csv'
tp185
a(S'2015-07-23 10:22:41.814000'
g103
tp186
a(S'2015-07-23 10:22:41.823000'
g105
tp187
a(S'2015-07-23 10:22:41.827000'
S'data saved as csv to C:\\Users\\oleach\\Charlie-master\\Charlie-master\\charlie\\data\\csv\\4426_face_memory_delay.csv'
tp188
a(S'2015-07-23 10:22:43.038000'
g103
tp189
a(S'2015-07-23 10:22:43.047000'
g105
tp190
a(S'2015-07-23 10:22:43.051000'
S'data saved as csv to C:\\Users\\oleach\\Charlie-master\\Charlie-master\\charlie\\data\\csv\\4426_face_memory_delay.csv'
tp191
a(S'2015-07-23 10:22:44.152000'
g103
tp192
a(S'2015-07-23 10:22:44.161000'
g105
tp193
a(S'2015-07-23 10:22:44.165000'
S'data saved as csv to C:\\Users\\oleach\\Charlie-master\\Charlie-master\\charlie\\data\\csv\\4426_face_memory_delay.csv'
tp194
a(S'2015-07-23 10:22:46.096000'
g103
tp195
a(S'2015-07-23 10:22:46.104000'
g105
tp196
a(S'2015-07-23 10:22:46.108000'
S'data saved as csv to C:\\Users\\oleach\\Charlie-master\\Charlie-master\\charlie\\data\\csv\\4426_face_memory_delay.csv'
tp197
a(S'2015-07-23 10:22:47.620000'
g103
tp198
a(S'2015-07-23 10:22:47.629000'
g105
tp199
a(S'2015-07-23 10:22:47.633000'
S'data saved as csv to C:\\Users\\oleach\\Charlie-master\\Charlie-master\\charlie\\data\\csv\\4426_face_memory_delay.csv'
tp200
a(S'2015-07-23 10:22:49.054000'
g103
tp201
a(S'2015-07-23 10:22:49.063000'
g105
tp202
a(S'2015-07-23 10:22:49.067000'
S'data saved as csv to C:\\Users\\oleach\\Charlie-master\\Charlie-master\\charlie\\data\\csv\\4426_face_memory_delay.csv'
tp203
a(S'2015-07-23 10:22:50.128000'
g103
tp204
a(S'2015-07-23 10:22:50.137000'
g105
tp205
a(S'2015-07-23 10:22:50.141000'
S'data saved as csv to C:\\Users\\oleach\\Charlie-master\\Charlie-master\\charlie\\data\\csv\\4426_face_memory_delay.csv'
tp206
a(S'2015-07-23 10:22:51.262000'
g103
tp207
a(S'2015-07-23 10:22:51.270000'
g105
tp208
a(S'2015-07-23 10:22:51.274000'
S'data saved as csv to C:\\Users\\oleach\\Charlie-master\\Charlie-master\\charlie\\data\\csv\\4426_face_memory_delay.csv'
tp209
a(S'2015-07-23 10:22:52.526000'
g103
tp210
a(S'2015-07-23 10:22:52.535000'
g105
tp211
a(S'2015-07-23 10:22:52.539000'
S'data saved as csv to C:\\Users\\oleach\\Charlie-master\\Charlie-master\\charlie\\data\\csv\\4426_face_memory_delay.csv'
tp212
a(S'2015-07-23 10:22:53.789000'
g103
tp213
a(S'2015-07-23 10:22:53.798000'
g105
tp214
a(S'2015-07-23 10:22:53.802000'
S'data saved as csv to C:\\Users\\oleach\\Charlie-master\\Charlie-master\\charlie\\data\\csv\\4426_face_memory_delay.csv'
tp215
a(S'2015-07-23 10:22:55.012000'
g103
tp216
a(S'2015-07-23 10:22:55.020000'
g105
tp217
a(S'2015-07-23 10:22:55.025000'
S'data saved as csv to C:\\Users\\oleach\\Charlie-master\\Charlie-master\\charlie\\data\\csv\\4426_face_memory_delay.csv'
tp218
a(S'2015-07-23 10:22:55.967000'
g103
tp219
a(S'2015-07-23 10:22:55.975000'
g105
tp220
a(S'2015-07-23 10:22:55.979000'
S'data saved as csv to C:\\Users\\oleach\\Charlie-master\\Charlie-master\\charlie\\data\\csv\\4426_face_memory_delay.csv'
tp221
a(S'2015-07-23 10:22:56.912000'
g103
tp222
a(S'2015-07-23 10:22:56.920000'
g105
tp223
a(S'2015-07-23 10:22:56.923000'
S'data saved as csv to C:\\Users\\oleach\\Charlie-master\\Charlie-master\\charlie\\data\\csv\\4426_face_memory_delay.csv'
tp224
asb.