(icharlie.tools.data
Data
p1
(dp2
S'lang'
p3
S'EN'
p4
sS'control'
p5
(lp6
sS'last_updated'
p7
cdatetime
datetime
p8
(S'\x07\xdf\x02\x19\x0e\x07\x03\x07 8'
tRp9
sS'last_opened'
p10
g8
(S'\x07\xdf\x02\x19\x0e\x02\x1a\x01W\xc0'
tRp11
sS'proj_id'
p12
S''
sS'date_done'
p13
NsS'test_done'
p14
I01
sS'data'
p15
(lp16
(S'A109'
p17
S'stroop'
p18
S'practice'
p19
I0
S'n/a'
p20
S'C:\\Users\\Jbarrett\\Charlie\\charlie\\stimuli\\visual\\stroop\\prac_1.png'
S'Right'
p21
g21
I4401
tp22
a(g17
g18
g19
I1
g20
S'C:\\Users\\Jbarrett\\Charlie\\charlie\\stimuli\\visual\\stroop\\prac_2.png'
S'Left'
p23
g23
I970
tp24
a(g17
g18
g19
I2
g20
S'C:\\Users\\Jbarrett\\Charlie\\charlie\\stimuli\\visual\\stroop\\prac_3.png'
g21
g21
I800
tp25
a(g17
g18
g19
I3
g20
S'C:\\Users\\Jbarrett\\Charlie\\charlie\\stimuli\\visual\\stroop\\prac_4.png'
g21
g21
I730
tp26
a(g17
g18
S'test'
p27
I0
S'Incongruent'
p28
S'C:\\Users\\Jbarrett\\Charlie\\charlie\\stimuli\\visual\\stroop\\6-Incongruent.png'
g23
g23
I2390
tp29
a(g17
g18
g27
I1
S'Congruent'
p30
S'C:\\Users\\Jbarrett\\Charlie\\charlie\\stimuli\\visual\\stroop\\30-Congruent.png'
g23
g23
I5490
tp31
a(g17
g18
g27
I2
g30
S'C:\\Users\\Jbarrett\\Charlie\\charlie\\stimuli\\visual\\stroop\\3-Congruent.png'
g21
g23
I12091
tp32
a(g17
g18
g27
I3
g28
S'C:\\Users\\Jbarrett\\Charlie\\charlie\\stimuli\\visual\\stroop\\23-Incongruent.png'
g23
g23
I1820
tp33
a(g17
g18
g27
I4
g30
S'C:\\Users\\Jbarrett\\Charlie\\charlie\\stimuli\\visual\\stroop\\39-Congruent.png'
g23
g21
I4380
tp34
a(g17
g18
g27
I5
g30
S'C:\\Users\\Jbarrett\\Charlie\\charlie\\stimuli\\visual\\stroop\\45-Congruent.png'
g23
g23
I6002
tp35
a(g17
g18
g27
I6
g28
S'C:\\Users\\Jbarrett\\Charlie\\charlie\\stimuli\\visual\\stroop\\31-Incongruent.png'
g21
g23
I1660
tp36
a(g17
g18
g27
I7
g28
S'C:\\Users\\Jbarrett\\Charlie\\charlie\\stimuli\\visual\\stroop\\28-Incongruent.png'
g23
g21
I1220
tp37
a(g17
g18
g27
I8
g30
S'C:\\Users\\Jbarrett\\Charlie\\charlie\\stimuli\\visual\\stroop\\31-Congruent.png'
g23
g21
I2670
tp38
a(g17
g18
g27
I9
g30
S'C:\\Users\\Jbarrett\\Charlie\\charlie\\stimuli\\visual\\stroop\\10-Congruent.png'
g21
g21
I1690
tp39
a(g17
g18
g27
I10
g28
S'C:\\Users\\Jbarrett\\Charlie\\charlie\\stimuli\\visual\\stroop\\10-Incongruent.png'
g23
g23
I1130
tp40
a(g17
g18
g27
I11
g28
S'C:\\Users\\Jbarrett\\Charlie\\charlie\\stimuli\\visual\\stroop\\24-Incongruent.png'
g23
g21
I1300
tp41
a(g17
g18
g27
I12
g30
S'C:\\Users\\Jbarrett\\Charlie\\charlie\\stimuli\\visual\\stroop\\34-Congruent.png'
g23
g21
I1640
tp42
a(g17
g18
g27
I13
g30
S'C:\\Users\\Jbarrett\\Charlie\\charlie\\stimuli\\visual\\stroop\\38-Congruent.png'
g23
g23
I4813
tp43
a(g17
g18
g27
I14
g30
S'C:\\Users\\Jbarrett\\Charlie\\charlie\\stimuli\\visual\\stroop\\42-Congruent.png'
g23
g23
I2060
tp44
a(g17
g18
g27
I15
g30
S'C:\\Users\\Jbarrett\\Charlie\\charlie\\stimuli\\visual\\stroop\\17-Congruent.png'
g21
g21
I4280
tp45
a(g17
g18
g27
I16
g28
S'C:\\Users\\Jbarrett\\Charlie\\charlie\\stimuli\\visual\\stroop\\42-Incongruent.png'
g21
g23
I1500
tp46
a(g17
g18
g27
I17
g28
S'C:\\Users\\Jbarrett\\Charlie\\charlie\\stimuli\\visual\\stroop\\36-Incongruent.png'
g21
g23
I1700
tp47
a(g17
g18
g27
I18
g28
S'C:\\Users\\Jbarrett\\Charlie\\charlie\\stimuli\\visual\\stroop\\43-Incongruent.png'
g21
g23
I1060
tp48
a(g17
g18
g27
I19
g30
S'C:\\Users\\Jbarrett\\Charlie\\charlie\\stimuli\\visual\\stroop\\49-Congruent.png'
g23
g23
I2370
tp49
a(g17
g18
g27
I20
g30
S'C:\\Users\\Jbarrett\\Charlie\\charlie\\stimuli\\visual\\stroop\\43-Congruent.png'
g23
g21
I2371
tp50
a(g17
g18
g27
I21
g28
S'C:\\Users\\Jbarrett\\Charlie\\charlie\\stimuli\\visual\\stroop\\15-Incongruent.png'
g23
g23
I1150
tp51
a(g17
g18
g27
I22
g28
S'C:\\Users\\Jbarrett\\Charlie\\charlie\\stimuli\\visual\\stroop\\35-Incongruent.png'
g21
g21
I1740
tp52
a(g17
g18
g27
I23
g28
S'C:\\Users\\Jbarrett\\Charlie\\charlie\\stimuli\\visual\\stroop\\44-Incongruent.png'
g21
g21
I1540
tp53
a(g17
g18
g27
I24
g28
S'C:\\Users\\Jbarrett\\Charlie\\charlie\\stimuli\\visual\\stroop\\47-Incongruent.png'
g21
g21
I3710
tp54
a(g17
g18
g27
I25
g28
S'C:\\Users\\Jbarrett\\Charlie\\charlie\\stimuli\\visual\\stroop\\40-Incongruent.png'
g21
g21
I2350
tp55
a(g17
g18
g27
I26
g28
S'C:\\Users\\Jbarrett\\Charlie\\charlie\\stimuli\\visual\\stroop\\25-Incongruent.png'
g23
g23
I1140
tp56
a(g17
g18
g27
I27
g28
S'C:\\Users\\Jbarrett\\Charlie\\charlie\\stimuli\\visual\\stroop\\27-Incongruent.png'
g23
g23
I1280
tp57
a(g17
g18
g27
I28
g28
S'C:\\Users\\Jbarrett\\Charlie\\charlie\\stimuli\\visual\\stroop\\56-Incongruent.png'
g21
g21
I1181
tp58
a(g17
g18
g27
I29
g30
S'C:\\Users\\Jbarrett\\Charlie\\charlie\\stimuli\\visual\\stroop\\2-Congruent.png'
g21
g21
I2120
tp59
a(g17
g18
g27
I30
g28
S'C:\\Users\\Jbarrett\\Charlie\\charlie\\stimuli\\visual\\stroop\\17-Incongruent.png'
g23
g23
I1210
tp60
a(g17
g18
g27
I31
g30
S'C:\\Users\\Jbarrett\\Charlie\\charlie\\stimuli\\visual\\stroop\\12-Congruent.png'
g21
g21
I2570
tp61
a(g17
g18
g27
I32
g28
S'C:\\Users\\Jbarrett\\Charlie\\charlie\\stimuli\\visual\\stroop\\12-Incongruent.png'
g23
g23
I970
tp62
a(g17
g18
g27
I33
g28
S'C:\\Users\\Jbarrett\\Charlie\\charlie\\stimuli\\visual\\stroop\\26-Incongruent.png'
g23
g23
I1340
tp63
a(g17
g18
g27
I34
g30
S'C:\\Users\\Jbarrett\\Charlie\\charlie\\stimuli\\visual\\stroop\\19-Congruent.png'
g21
g21
I1560
tp64
a(g17
g18
g27
I35
g30
S'C:\\Users\\Jbarrett\\Charlie\\charlie\\stimuli\\visual\\stroop\\23-Congruent.png'
g21
g21
I1180
tp65
a(g17
g18
g27
I36
g30
S'C:\\Users\\Jbarrett\\Charlie\\charlie\\stimuli\\visual\\stroop\\35-Congruent.png'
g23
g23
I1600
tp66
a(g17
g18
g27
I37
g30
S'C:\\Users\\Jbarrett\\Charlie\\charlie\\stimuli\\visual\\stroop\\46-Congruent.png'
g23
g23
I2381
tp67
a(g17
g18
g27
I38
g28
S'C:\\Users\\Jbarrett\\Charlie\\charlie\\stimuli\\visual\\stroop\\8-Incongruent.png'
g23
g23
I1530
tp68
a(g17
g18
g27
I39
g30
S'C:\\Users\\Jbarrett\\Charlie\\charlie\\stimuli\\visual\\stroop\\29-Congruent.png'
g23
g23
I1230
tp69
a(g17
g18
g27
I40
g30
S'C:\\Users\\Jbarrett\\Charlie\\charlie\\stimuli\\visual\\stroop\\14-Congruent.png'
g21
g21
I1150
tp70
a(g17
g18
g27
I41
g30
S'C:\\Users\\Jbarrett\\Charlie\\charlie\\stimuli\\visual\\stroop\\33-Congruent.png'
g23
g23
I970
tp71
a(g17
g18
g27
I42
g28
S'C:\\Users\\Jbarrett\\Charlie\\charlie\\stimuli\\visual\\stroop\\13-Incongruent.png'
g23
g23
I900
tp72
a(g17
g18
g27
I43
g28
S'C:\\Users\\Jbarrett\\Charlie\\charlie\\stimuli\\visual\\stroop\\55-Incongruent.png'
g21
g21
I1100
tp73
a(g17
g18
g27
I44
g30
S'C:\\Users\\Jbarrett\\Charlie\\charlie\\stimuli\\visual\\stroop\\54-Congruent.png'
g23
g23
I1260
tp74
a(g17
g18
g27
I45
g30
S'C:\\Users\\Jbarrett\\Charlie\\charlie\\stimuli\\visual\\stroop\\8-Congruent.png'
g21
g21
I1010
tp75
a(g17
g18
g27
I46
g30
S'C:\\Users\\Jbarrett\\Charlie\\charlie\\stimuli\\visual\\stroop\\13-Congruent.png'
g21
g21
I1630
tp76
a(g17
g18
g27
I47
g30
S'C:\\Users\\Jbarrett\\Charlie\\charlie\\stimuli\\visual\\stroop\\40-Congruent.png'
g23
g23
I1150
tp77
a(g17
g18
g27
I48
g28
S'C:\\Users\\Jbarrett\\Charlie\\charlie\\stimuli\\visual\\stroop\\9-Incongruent.png'
g23
g23
I1150
tp78
a(g17
g18
g27
I49
g30
S'C:\\Users\\Jbarrett\\Charlie\\charlie\\stimuli\\visual\\stroop\\50-Congruent.png'
g23
g23
I1020
tp79
a(g17
g18
g27
I50
g30
S'C:\\Users\\Jbarrett\\Charlie\\charlie\\stimuli\\visual\\stroop\\5-Congruent.png'
g21
g21
I1710
tp80
a(g17
g18
g27
I51
g28
S'C:\\Users\\Jbarrett\\Charlie\\charlie\\stimuli\\visual\\stroop\\5-Incongruent.png'
g23
g23
I1130
tp81
a(g17
g18
g27
I52
g28
S'C:\\Users\\Jbarrett\\Charlie\\charlie\\stimuli\\visual\\stroop\\53-Incongruent.png'
g21
g21
I1310
tp82
a(g17
g18
g27
I53
g28
S'C:\\Users\\Jbarrett\\Charlie\\charlie\\stimuli\\visual\\stroop\\1-Incongruent.png'
g23
g23
I1040
tp83
a(g17
g18
g27
I54
g30
S'C:\\Users\\Jbarrett\\Charlie\\charlie\\stimuli\\visual\\stroop\\28-Congruent.png'
g21
g21
I1560
tp84
a(g17
g18
g27
I55
g28
S'C:\\Users\\Jbarrett\\Charlie\\charlie\\stimuli\\visual\\stroop\\34-Incongruent.png'
g21
g21
I1490
tp85
a(g17
g18
g27
I56
g28
S'C:\\Users\\Jbarrett\\Charlie\\charlie\\stimuli\\visual\\stroop\\20-Incongruent.png'
g23
g23
I1040
tp86
a(g17
g18
g27
I57
g28
S'C:\\Users\\Jbarrett\\Charlie\\charlie\\stimuli\\visual\\stroop\\38-Incongruent.png'
g21
g21
I770
tp87
a(g17
g18
g27
I58
g28
S'C:\\Users\\Jbarrett\\Charlie\\charlie\\stimuli\\visual\\stroop\\32-Incongruent.png'
g21
g21
I720
tp88
a(g17
g18
g27
I59
g30
S'C:\\Users\\Jbarrett\\Charlie\\charlie\\stimuli\\visual\\stroop\\9-Congruent.png'
g21
g21
I600
tp89
a(g17
g18
g27
I60
g30
S'C:\\Users\\Jbarrett\\Charlie\\charlie\\stimuli\\visual\\stroop\\55-Congruent.png'
g23
g23
I1430
tp90
a(g17
g18
g27
I61
g28
S'C:\\Users\\Jbarrett\\Charlie\\charlie\\stimuli\\visual\\stroop\\33-Incongruent.png'
g21
g21
I1011
tp91
a(g17
g18
g27
I62
g28
S'C:\\Users\\Jbarrett\\Charlie\\charlie\\stimuli\\visual\\stroop\\49-Incongruent.png'
g21
g21
I1400
tp92
a(g17
g18
g27
I63
g30
S'C:\\Users\\Jbarrett\\Charlie\\charlie\\stimuli\\visual\\stroop\\4-Congruent.png'
g21
g21
I1220
tp93
a(g17
g18
g27
I64
g30
S'C:\\Users\\Jbarrett\\Charlie\\charlie\\stimuli\\visual\\stroop\\6-Congruent.png'
g21
g21
I1140
tp94
a(g17
g18
g27
I65
g30
S'C:\\Users\\Jbarrett\\Charlie\\charlie\\stimuli\\visual\\stroop\\48-Congruent.png'
g23
g23
I1060
tp95
a(g17
g18
g27
I66
g30
S'C:\\Users\\Jbarrett\\Charlie\\charlie\\stimuli\\visual\\stroop\\52-Congruent.png'
g23
g23
I1510
tp96
a(g17
g18
g27
I67
g30
S'C:\\Users\\Jbarrett\\Charlie\\charlie\\stimuli\\visual\\stroop\\51-Congruent.png'
g23
g23
I1100
tp97
a(g17
g18
g27
I68
g30
S'C:\\Users\\Jbarrett\\Charlie\\charlie\\stimuli\\visual\\stroop\\16-Congruent.png'
g21
g21
I1060
tp98
a(g17
g18
g27
I69
g30
S'C:\\Users\\Jbarrett\\Charlie\\charlie\\stimuli\\visual\\stroop\\24-Congruent.png'
g21
g21
I870
tp99
a(g17
g18
g27
I70
g28
S'C:\\Users\\Jbarrett\\Charlie\\charlie\\stimuli\\visual\\stroop\\41-Incongruent.png'
g21
g21
I1260
tp100
a(g17
g18
g27
I71
g28
S'C:\\Users\\Jbarrett\\Charlie\\charlie\\stimuli\\visual\\stroop\\48-Incongruent.png'
g21
g21
I1600
tp101
a(g17
g18
g27
I72
g28
S'C:\\Users\\Jbarrett\\Charlie\\charlie\\stimuli\\visual\\stroop\\4-Incongruent.png'
g23
g23
I1200
tp102
a(g17
g18
g27
I73
g28
S'C:\\Users\\Jbarrett\\Charlie\\charlie\\stimuli\\visual\\stroop\\54-Incongruent.png'
g21
g21
I950
tp103
a(g17
g18
g27
I74
g28
S'C:\\Users\\Jbarrett\\Charlie\\charlie\\stimuli\\visual\\stroop\\39-Incongruent.png'
g21
g21
I890
tp104
a(g17
g18
g27
I75
g30
S'C:\\Users\\Jbarrett\\Charlie\\charlie\\stimuli\\visual\\stroop\\56-Congruent.png'
g23
g23
I1410
tp105
a(g17
g18
g27
I76
g28
S'C:\\Users\\Jbarrett\\Charlie\\charlie\\stimuli\\visual\\stroop\\46-Incongruent.png'
g21
g21
I1320
tp106
a(g17
g18
g27
I77
g30
S'C:\\Users\\Jbarrett\\Charlie\\charlie\\stimuli\\visual\\stroop\\22-Congruent.png'
g21
g21
I1490
tp107
a(g17
g18
g27
I78
g28
S'C:\\Users\\Jbarrett\\Charlie\\charlie\\stimuli\\visual\\stroop\\21-Incongruent.png'
g23
g23
I910
tp108
a(g17
g18
g27
I79
g28
S'C:\\Users\\Jbarrett\\Charlie\\charlie\\stimuli\\visual\\stroop\\37-Incongruent.png'
g21
g21
I1090
tp109
a(g17
g18
g27
I80
g28
S'C:\\Users\\Jbarrett\\Charlie\\charlie\\stimuli\\visual\\stroop\\2-Incongruent.png'
g23
g23
I890
tp110
a(g17
g18
g27
I81
g30
S'C:\\Users\\Jbarrett\\Charlie\\charlie\\stimuli\\visual\\stroop\\21-Congruent.png'
g21
g21
I1480
tp111
a(g17
g18
g27
I82
g28
S'C:\\Users\\Jbarrett\\Charlie\\charlie\\stimuli\\visual\\stroop\\7-Incongruent.png'
g23
g23
I1040
tp112
a(g17
g18
g27
I83
g30
S'C:\\Users\\Jbarrett\\Charlie\\charlie\\stimuli\\visual\\stroop\\20-Congruent.png'
g21
g21
I690
tp113
a(g17
g18
g27
I84
g30
S'C:\\Users\\Jbarrett\\Charlie\\charlie\\stimuli\\visual\\stroop\\15-Congruent.png'
g21
g21
I870
tp114
a(g17
g18
g27
I85
g30
S'C:\\Users\\Jbarrett\\Charlie\\charlie\\stimuli\\visual\\stroop\\26-Congruent.png'
g21
g21
I901
tp115
a(g17
g18
g27
I86
g28
S'C:\\Users\\Jbarrett\\Charlie\\charlie\\stimuli\\visual\\stroop\\16-Incongruent.png'
g23
g23
I1450
tp116
a(g17
g18
g27
I87
g28
S'C:\\Users\\Jbarrett\\Charlie\\charlie\\stimuli\\visual\\stroop\\50-Incongruent.png'
g21
g21
I1040
tp117
a(g17
g18
g27
I88
g30
S'C:\\Users\\Jbarrett\\Charlie\\charlie\\stimuli\\visual\\stroop\\41-Congruent.png'
g23
g21
I3460
tp118
a(g17
g18
g27
I89
g30
S'C:\\Users\\Jbarrett\\Charlie\\charlie\\stimuli\\visual\\stroop\\25-Congruent.png'
g21
g21
I2590
tp119
a(g17
g18
g27
I90
g30
S'C:\\Users\\Jbarrett\\Charlie\\charlie\\stimuli\\visual\\stroop\\27-Congruent.png'
g21
g21
I610
tp120
a(g17
g18
g27
I91
g28
S'C:\\Users\\Jbarrett\\Charlie\\charlie\\stimuli\\visual\\stroop\\18-Incongruent.png'
g23
g23
I940
tp121
a(g17
g18
g27
I92
g28
S'C:\\Users\\Jbarrett\\Charlie\\charlie\\stimuli\\visual\\stroop\\30-Incongruent.png'
g21
g21
I1040
tp122
a(g17
g18
g27
I93
g30
S'C:\\Users\\Jbarrett\\Charlie\\charlie\\stimuli\\visual\\stroop\\44-Congruent.png'
g23
g23
I1190
tp123
a(g17
g18
g27
I94
g30
S'C:\\Users\\Jbarrett\\Charlie\\charlie\\stimuli\\visual\\stroop\\37-Congruent.png'
g23
g23
I1000
tp124
a(g17
g18
g27
I95
g28
S'C:\\Users\\Jbarrett\\Charlie\\charlie\\stimuli\\visual\\stroop\\11-Incongruent.png'
g23
g23
I1090
tp125
a(g17
g18
g27
I96
g28
S'C:\\Users\\Jbarrett\\Charlie\\charlie\\stimuli\\visual\\stroop\\29-Incongruent.png'
g21
g21
I830
tp126
a(g17
g18
g27
I97
g28
S'C:\\Users\\Jbarrett\\Charlie\\charlie\\stimuli\\visual\\stroop\\3-Incongruent.png'
g23
g23
I800
tp127
a(g17
g18
g27
I98
g30
S'C:\\Users\\Jbarrett\\Charlie\\charlie\\stimuli\\visual\\stroop\\1-Congruent.png'
g21
g21
I960
tp128
a(g17
g18
g27
I99
g28
S'C:\\Users\\Jbarrett\\Charlie\\charlie\\stimuli\\visual\\stroop\\52-Incongruent.png'
g21
g21
I690
tp129
a(g17
g18
g27
I100
g28
S'C:\\Users\\Jbarrett\\Charlie\\charlie\\stimuli\\visual\\stroop\\14-Incongruent.png'
g23
g23
I700
tp130
a(g17
g18
g27
I101
g30
S'C:\\Users\\Jbarrett\\Charlie\\charlie\\stimuli\\visual\\stroop\\47-Congruent.png'
g23
g23
I1340
tp131
a(g17
g18
g27
I102
g28
S'C:\\Users\\Jbarrett\\Charlie\\charlie\\stimuli\\visual\\stroop\\19-Incongruent.png'
g23
g23
I940
tp132
a(g17
g18
g27
I103
g30
S'C:\\Users\\Jbarrett\\Charlie\\charlie\\stimuli\\visual\\stroop\\11-Congruent.png'
g21
g21
I1160
tp133
a(g17
g18
g27
I104
g28
S'C:\\Users\\Jbarrett\\Charlie\\charlie\\stimuli\\visual\\stroop\\22-Incongruent.png'
g23
g23
I770
tp134
a(g17
g18
g27
I105
g30
S'C:\\Users\\Jbarrett\\Charlie\\charlie\\stimuli\\visual\\stroop\\7-Congruent.png'
g21
g21
I840
tp135
a(g17
g18
g27
I106
g30
S'C:\\Users\\Jbarrett\\Charlie\\charlie\\stimuli\\visual\\stroop\\53-Congruent.png'
g23
g23
I800
tp136
a(g17
g18
g27
I107
g30
S'C:\\Users\\Jbarrett\\Charlie\\charlie\\stimuli\\visual\\stroop\\32-Congruent.png'
g23
g23
I1280
tp137
a(g17
g18
g27
I108
g28
S'C:\\Users\\Jbarrett\\Charlie\\charlie\\stimuli\\visual\\stroop\\45-Incongruent.png'
g21
g21
I830
tp138
a(g17
g18
g27
I109
g30
S'C:\\Users\\Jbarrett\\Charlie\\charlie\\stimuli\\visual\\stroop\\36-Congruent.png'
g23
g23
I640
tp139
a(g17
g18
g27
I110
g28
S'C:\\Users\\Jbarrett\\Charlie\\charlie\\stimuli\\visual\\stroop\\51-Incongruent.png'
g21
g21
I771
tp140
a(g17
g18
g27
I111
g30
S'C:\\Users\\Jbarrett\\Charlie\\charlie\\stimuli\\visual\\stroop\\18-Congruent.png'
p141
g21
g21
I620
tp142
asS'output_format'
p143
(lp144
(S'proband_id'
p145
c__builtin__
str
p146
tp147
a(S'test_name'
p148
g146
tp149
a(S'phase'
p150
g146
tp151
a(S'trialn'
p152
c__builtin__
int
p153
tp154
a(S'cong'
p155
g146
tp156
a(S'f'
g146
tp157
a(S'ans'
p158
g146
tp159
a(S'rsp'
p160
g146
tp161
a(S'rt'
p162
g153
tp163
asg145
g17
sS'filename'
p164
S'A109_stroop.data'
p165
sS'initialised'
p166
g8
(S'\x07\xdf\x02\x19\x0e\x02\x1a\x01W\xc0'
tRp167
sS'last_udated'
p168
g8
(S'\x07\xdf\x02\x19\x0e\x02\x1a\x01W\xc0'
tRp169
sg148
S'stroop'
p170
sS'directory'
p171
S'C:\\Users\\Jbarrett\\Charlie\\charlie\\data\\raw'
p172
sS'user_id'
p173
S''
sS'test_started'
p174
I01
sS'abs_filename'
p175
S'C:\\Users\\Jbarrett\\Charlie\\charlie\\data\\raw\\A109_stroop.data'
p176
sS'date_started'
p177
g8
(S'\x07\xdf\x02\x19\x0e\x02:\tq\xf8'
tRp178
sS'log'
p179
(lp180
(S'2015-02-25 14:02:26.088000'
S'instance created'
p181
tp182
a(S'2015-02-25 14:02:58.629000'
S'instance updated'
p183
tp184
a(S'2015-02-25 14:02:58.638000'
S'pandas DataFrame of data created'
p185
tp186
a(S'2015-02-25 14:02:58.642000'
S'data saved as csv to C:\\Users\\Jbarrett\\Charlie\\charlie\\data\\csv\\A109_stroop.csv'
tp187
a(S'2015-02-25 14:03:00.630000'
g183
tp188
a(S'2015-02-25 14:03:00.640000'
g185
tp189
a(S'2015-02-25 14:03:00.643000'
S'data saved as csv to C:\\Users\\Jbarrett\\Charlie\\charlie\\data\\csv\\A109_stroop.csv'
tp190
a(S'2015-02-25 14:03:02.460000'
g183
tp191
a(S'2015-02-25 14:03:02.470000'
g185
tp192
a(S'2015-02-25 14:03:02.474000'
S'data saved as csv to C:\\Users\\Jbarrett\\Charlie\\charlie\\data\\csv\\A109_stroop.csv'
tp193
a(S'2015-02-25 14:03:04.222000'
g183
tp194
a(S'2015-02-25 14:03:04.231000'
g185
tp195
a(S'2015-02-25 14:03:04.234000'
S'data saved as csv to C:\\Users\\Jbarrett\\Charlie\\charlie\\data\\csv\\A109_stroop.csv'
tp196
a(S'2015-02-25 14:03:37.871000'
g183
tp197
a(S'2015-02-25 14:03:37.880000'
g185
tp198
a(S'2015-02-25 14:03:37.884000'
S'data saved as csv to C:\\Users\\Jbarrett\\Charlie\\charlie\\data\\csv\\A109_stroop.csv'
tp199
a(S'2015-02-25 14:03:43.645000'
g183
tp200
a(S'2015-02-25 14:03:43.655000'
g185
tp201
a(S'2015-02-25 14:03:43.659000'
S'data saved as csv to C:\\Users\\Jbarrett\\Charlie\\charlie\\data\\csv\\A109_stroop.csv'
tp202
a(S'2015-02-25 14:03:56.021000'
g183
tp203
a(S'2015-02-25 14:03:56.030000'
g185
tp204
a(S'2015-02-25 14:03:56.034000'
S'data saved as csv to C:\\Users\\Jbarrett\\Charlie\\charlie\\data\\csv\\A109_stroop.csv'
tp205
a(S'2015-02-25 14:03:58.125000'
g183
tp206
a(S'2015-02-25 14:03:58.135000'
g185
tp207
a(S'2015-02-25 14:03:58.139000'
S'data saved as csv to C:\\Users\\Jbarrett\\Charlie\\charlie\\data\\csv\\A109_stroop.csv'
tp208
a(S'2015-02-25 14:04:02.790000'
g183
tp209
a(S'2015-02-25 14:04:02.800000'
g185
tp210
a(S'2015-02-25 14:04:02.804000'
S'data saved as csv to C:\\Users\\Jbarrett\\Charlie\\charlie\\data\\csv\\A109_stroop.csv'
tp211
a(S'2015-02-25 14:04:09.076000'
g183
tp212
a(S'2015-02-25 14:04:09.086000'
g185
tp213
a(S'2015-02-25 14:04:09.090000'
S'data saved as csv to C:\\Users\\Jbarrett\\Charlie\\charlie\\data\\csv\\A109_stroop.csv'
tp214
a(S'2015-02-25 14:04:11.020000'
g183
tp215
a(S'2015-02-25 14:04:11.030000'
g185
tp216
a(S'2015-02-25 14:04:11.034000'
S'data saved as csv to C:\\Users\\Jbarrett\\Charlie\\charlie\\data\\csv\\A109_stroop.csv'
tp217
a(S'2015-02-25 14:04:12.524000'
g183
tp218
a(S'2015-02-25 14:04:12.534000'
g185
tp219
a(S'2015-02-25 14:04:12.538000'
S'data saved as csv to C:\\Users\\Jbarrett\\Charlie\\charlie\\data\\csv\\A109_stroop.csv'
tp220
a(S'2015-02-25 14:04:15.479000'
g183
tp221
a(S'2015-02-25 14:04:15.488000'
g185
tp222
a(S'2015-02-25 14:04:15.492000'
S'data saved as csv to C:\\Users\\Jbarrett\\Charlie\\charlie\\data\\csv\\A109_stroop.csv'
tp223
a(S'2015-02-25 14:04:17.452000'
g183
tp224
a(S'2015-02-25 14:04:17.461000'
g185
tp225
a(S'2015-02-25 14:04:17.465000'
S'data saved as csv to C:\\Users\\Jbarrett\\Charlie\\charlie\\data\\csv\\A109_stroop.csv'
tp226
a(S'2015-02-25 14:04:18.864000'
g183
tp227
a(S'2015-02-25 14:04:18.873000'
g185
tp228
a(S'2015-02-25 14:04:18.877000'
S'data saved as csv to C:\\Users\\Jbarrett\\Charlie\\charlie\\data\\csv\\A109_stroop.csv'
tp229
a(S'2015-02-25 14:04:20.444000'
g183
tp230
a(S'2015-02-25 14:04:20.454000'
g185
tp231
a(S'2015-02-25 14:04:20.458000'
S'data saved as csv to C:\\Users\\Jbarrett\\Charlie\\charlie\\data\\csv\\A109_stroop.csv'
tp232
a(S'2015-02-25 14:04:22.368000'
g183
tp233
a(S'2015-02-25 14:04:22.378000'
g185
tp234
a(S'2015-02-25 14:04:22.382000'
S'data saved as csv to C:\\Users\\Jbarrett\\Charlie\\charlie\\data\\csv\\A109_stroop.csv'
tp235
a(S'2015-02-25 14:04:27.464000'
g183
tp236
a(S'2015-02-25 14:04:27.474000'
g185
tp237
a(S'2015-02-25 14:04:27.478000'
S'data saved as csv to C:\\Users\\Jbarrett\\Charlie\\charlie\\data\\csv\\A109_stroop.csv'
tp238
a(S'2015-02-25 14:04:29.810000'
g183
tp239
a(S'2015-02-25 14:04:29.820000'
g185
tp240
a(S'2015-02-25 14:04:29.824000'
S'data saved as csv to C:\\Users\\Jbarrett\\Charlie\\charlie\\data\\csv\\A109_stroop.csv'
tp241
a(S'2015-02-25 14:04:34.373000'
g183
tp242
a(S'2015-02-25 14:04:34.383000'
g185
tp243
a(S'2015-02-25 14:04:34.387000'
S'data saved as csv to C:\\Users\\Jbarrett\\Charlie\\charlie\\data\\csv\\A109_stroop.csv'
tp244
a(S'2015-02-25 14:04:36.154000'
g183
tp245
a(S'2015-02-25 14:04:36.164000'
g185
tp246
a(S'2015-02-25 14:04:36.168000'
S'data saved as csv to C:\\Users\\Jbarrett\\Charlie\\charlie\\data\\csv\\A109_stroop.csv'
tp247
a(S'2015-02-25 14:04:38.139000'
g183
tp248
a(S'2015-02-25 14:04:38.149000'
g185
tp249
a(S'2015-02-25 14:04:38.153000'
S'data saved as csv to C:\\Users\\Jbarrett\\Charlie\\charlie\\data\\csv\\A109_stroop.csv'
tp250
a(S'2015-02-25 14:04:39.483000'
g183
tp251
a(S'2015-02-25 14:04:39.494000'
g185
tp252
a(S'2015-02-25 14:04:39.497000'
S'data saved as csv to C:\\Users\\Jbarrett\\Charlie\\charlie\\data\\csv\\A109_stroop.csv'
tp253
a(S'2015-02-25 14:04:42.138000'
g183
tp254
a(S'2015-02-25 14:04:42.148000'
g185
tp255
a(S'2015-02-25 14:04:42.152000'
S'data saved as csv to C:\\Users\\Jbarrett\\Charlie\\charlie\\data\\csv\\A109_stroop.csv'
tp256
a(S'2015-02-25 14:04:44.793000'
g183
tp257
a(S'2015-02-25 14:04:44.803000'
g185
tp258
a(S'2015-02-25 14:04:44.807000'
S'data saved as csv to C:\\Users\\Jbarrett\\Charlie\\charlie\\data\\csv\\A109_stroop.csv'
tp259
a(S'2015-02-25 14:04:46.228000'
g183
tp260
a(S'2015-02-25 14:04:46.238000'
g185
tp261
a(S'2015-02-25 14:04:46.242000'
S'data saved as csv to C:\\Users\\Jbarrett\\Charlie\\charlie\\data\\csv\\A109_stroop.csv'
tp262
a(S'2015-02-25 14:04:48.254000'
g183
tp263
a(S'2015-02-25 14:04:48.264000'
g185
tp264
a(S'2015-02-25 14:04:48.268000'
S'data saved as csv to C:\\Users\\Jbarrett\\Charlie\\charlie\\data\\csv\\A109_stroop.csv'
tp265
a(S'2015-02-25 14:04:50.078000'
g183
tp266
a(S'2015-02-25 14:04:50.088000'
g185
tp267
a(S'2015-02-25 14:04:50.092000'
S'data saved as csv to C:\\Users\\Jbarrett\\Charlie\\charlie\\data\\csv\\A109_stroop.csv'
tp268
a(S'2015-02-25 14:04:54.073000'
g183
tp269
a(S'2015-02-25 14:04:54.083000'
g185
tp270
a(S'2015-02-25 14:04:54.087000'
S'data saved as csv to C:\\Users\\Jbarrett\\Charlie\\charlie\\data\\csv\\A109_stroop.csv'
tp271
a(S'2015-02-25 14:04:56.706000'
g183
tp272
a(S'2015-02-25 14:04:56.711000'
g185
tp273
a(S'2015-02-25 14:04:56.713000'
S'data saved as csv to C:\\Users\\Jbarrett\\Charlie\\charlie\\data\\csv\\A109_stroop.csv'
tp274
a(S'2015-02-25 14:04:58.121000'
g183
tp275
a(S'2015-02-25 14:04:58.131000'
g185
tp276
a(S'2015-02-25 14:04:58.135000'
S'data saved as csv to C:\\Users\\Jbarrett\\Charlie\\charlie\\data\\csv\\A109_stroop.csv'
tp277
a(S'2015-02-25 14:04:59.686000'
g183
tp278
a(S'2015-02-25 14:04:59.696000'
g185
tp279
a(S'2015-02-25 14:04:59.700000'
S'data saved as csv to C:\\Users\\Jbarrett\\Charlie\\charlie\\data\\csv\\A109_stroop.csv'
tp280
a(S'2015-02-25 14:05:01.151000'
g183
tp281
a(S'2015-02-25 14:05:01.160000'
g185
tp282
a(S'2015-02-25 14:05:01.164000'
S'data saved as csv to C:\\Users\\Jbarrett\\Charlie\\charlie\\data\\csv\\A109_stroop.csv'
tp283
a(S'2015-02-25 14:05:03.554000'
g183
tp284
a(S'2015-02-25 14:05:03.565000'
g185
tp285
a(S'2015-02-25 14:05:03.569000'
S'data saved as csv to C:\\Users\\Jbarrett\\Charlie\\charlie\\data\\csv\\A109_stroop.csv'
tp286
a(S'2015-02-25 14:05:05.049000'
g183
tp287
a(S'2015-02-25 14:05:05.060000'
g185
tp288
a(S'2015-02-25 14:05:05.064000'
S'data saved as csv to C:\\Users\\Jbarrett\\Charlie\\charlie\\data\\csv\\A109_stroop.csv'
tp289
a(S'2015-02-25 14:05:07.905000'
g183
tp290
a(S'2015-02-25 14:05:07.916000'
g185
tp291
a(S'2015-02-25 14:05:07.921000'
S'data saved as csv to C:\\Users\\Jbarrett\\Charlie\\charlie\\data\\csv\\A109_stroop.csv'
tp292
a(S'2015-02-25 14:05:09.161000'
g183
tp293
a(S'2015-02-25 14:05:09.172000'
g185
tp294
a(S'2015-02-25 14:05:09.176000'
S'data saved as csv to C:\\Users\\Jbarrett\\Charlie\\charlie\\data\\csv\\A109_stroop.csv'
tp295
a(S'2015-02-25 14:05:10.787000'
g183
tp296
a(S'2015-02-25 14:05:10.796000'
g185
tp297
a(S'2015-02-25 14:05:10.801000'
S'data saved as csv to C:\\Users\\Jbarrett\\Charlie\\charlie\\data\\csv\\A109_stroop.csv'
tp298
a(S'2015-02-25 14:05:12.631000'
g183
tp299
a(S'2015-02-25 14:05:12.641000'
g185
tp300
a(S'2015-02-25 14:05:12.645000'
S'data saved as csv to C:\\Users\\Jbarrett\\Charlie\\charlie\\data\\csv\\A109_stroop.csv'
tp301
a(S'2015-02-25 14:05:14.096000'
g183
tp302
a(S'2015-02-25 14:05:14.106000'
g185
tp303
a(S'2015-02-25 14:05:14.110000'
S'data saved as csv to C:\\Users\\Jbarrett\\Charlie\\charlie\\data\\csv\\A109_stroop.csv'
tp304
a(S'2015-02-25 14:05:15.978000'
g183
tp305
a(S'2015-02-25 14:05:15.987000'
g185
tp306
a(S'2015-02-25 14:05:15.992000'
S'data saved as csv to C:\\Users\\Jbarrett\\Charlie\\charlie\\data\\csv\\A109_stroop.csv'
tp307
a(S'2015-02-25 14:05:18.644000'
g183
tp308
a(S'2015-02-25 14:05:18.655000'
g185
tp309
a(S'2015-02-25 14:05:18.659000'
S'data saved as csv to C:\\Users\\Jbarrett\\Charlie\\charlie\\data\\csv\\A109_stroop.csv'
tp310
a(S'2015-02-25 14:05:20.460000'
g183
tp311
a(S'2015-02-25 14:05:20.470000'
g185
tp312
a(S'2015-02-25 14:05:20.474000'
S'data saved as csv to C:\\Users\\Jbarrett\\Charlie\\charlie\\data\\csv\\A109_stroop.csv'
tp313
a(S'2015-02-25 14:05:21.975000'
g183
tp314
a(S'2015-02-25 14:05:21.985000'
g185
tp315
a(S'2015-02-25 14:05:21.989000'
S'data saved as csv to C:\\Users\\Jbarrett\\Charlie\\charlie\\data\\csv\\A109_stroop.csv'
tp316
a(S'2015-02-25 14:05:23.410000'
g183
tp317
a(S'2015-02-25 14:05:23.420000'
g185
tp318
a(S'2015-02-25 14:05:23.424000'
S'data saved as csv to C:\\Users\\Jbarrett\\Charlie\\charlie\\data\\csv\\A109_stroop.csv'
tp319
a(S'2015-02-25 14:05:24.665000'
g183
tp320
a(S'2015-02-25 14:05:24.675000'
g185
tp321
a(S'2015-02-25 14:05:24.679000'
S'data saved as csv to C:\\Users\\Jbarrett\\Charlie\\charlie\\data\\csv\\A109_stroop.csv'
tp322
a(S'2015-02-25 14:05:25.850000'
g183
tp323
a(S'2015-02-25 14:05:25.860000'
g185
tp324
a(S'2015-02-25 14:05:25.865000'
S'data saved as csv to C:\\Users\\Jbarrett\\Charlie\\charlie\\data\\csv\\A109_stroop.csv'
tp325
a(S'2015-02-25 14:05:27.234000'
g183
tp326
a(S'2015-02-25 14:05:27.244000'
g185
tp327
a(S'2015-02-25 14:05:27.248000'
S'data saved as csv to C:\\Users\\Jbarrett\\Charlie\\charlie\\data\\csv\\A109_stroop.csv'
tp328
a(S'2015-02-25 14:05:28.778000'
g183
tp329
a(S'2015-02-25 14:05:28.788000'
g185
tp330
a(S'2015-02-25 14:05:28.793000'
S'data saved as csv to C:\\Users\\Jbarrett\\Charlie\\charlie\\data\\csv\\A109_stroop.csv'
tp331
a(S'2015-02-25 14:05:30.074000'
g183
tp332
a(S'2015-02-25 14:05:30.084000'
g185
tp333
a(S'2015-02-25 14:05:30.088000'
S'data saved as csv to C:\\Users\\Jbarrett\\Charlie\\charlie\\data\\csv\\A109_stroop.csv'
tp334
a(S'2015-02-25 14:05:31.989000'
g183
tp335
a(S'2015-02-25 14:05:31.999000'
g185
tp336
a(S'2015-02-25 14:05:32.004000'
S'data saved as csv to C:\\Users\\Jbarrett\\Charlie\\charlie\\data\\csv\\A109_stroop.csv'
tp337
a(S'2015-02-25 14:05:33.425000'
g183
tp338
a(S'2015-02-25 14:05:33.436000'
g185
tp339
a(S'2015-02-25 14:05:33.441000'
S'data saved as csv to C:\\Users\\Jbarrett\\Charlie\\charlie\\data\\csv\\A109_stroop.csv'
tp340
a(S'2015-02-25 14:05:34.862000'
g183
tp341
a(S'2015-02-25 14:05:34.873000'
g185
tp342
a(S'2015-02-25 14:05:34.877000'
S'data saved as csv to C:\\Users\\Jbarrett\\Charlie\\charlie\\data\\csv\\A109_stroop.csv'
tp343
a(S'2015-02-25 14:05:36.168000'
g183
tp344
a(S'2015-02-25 14:05:36.178000'
g185
tp345
a(S'2015-02-25 14:05:36.183000'
S'data saved as csv to C:\\Users\\Jbarrett\\Charlie\\charlie\\data\\csv\\A109_stroop.csv'
tp346
a(S'2015-02-25 14:05:38.165000'
g183
tp347
a(S'2015-02-25 14:05:38.175000'
g185
tp348
a(S'2015-02-25 14:05:38.180000'
S'data saved as csv to C:\\Users\\Jbarrett\\Charlie\\charlie\\data\\csv\\A109_stroop.csv'
tp349
a(S'2015-02-25 14:05:39.581000'
g183
tp350
a(S'2015-02-25 14:05:39.592000'
g185
tp351
a(S'2015-02-25 14:05:39.596000'
S'data saved as csv to C:\\Users\\Jbarrett\\Charlie\\charlie\\data\\csv\\A109_stroop.csv'
tp352
a(S'2015-02-25 14:05:41.177000'
g183
tp353
a(S'2015-02-25 14:05:41.187000'
g185
tp354
a(S'2015-02-25 14:05:41.192000'
S'data saved as csv to C:\\Users\\Jbarrett\\Charlie\\charlie\\data\\csv\\A109_stroop.csv'
tp355
a(S'2015-02-25 14:05:42.503000'
g183
tp356
a(S'2015-02-25 14:05:42.514000'
g185
tp357
a(S'2015-02-25 14:05:42.518000'
S'data saved as csv to C:\\Users\\Jbarrett\\Charlie\\charlie\\data\\csv\\A109_stroop.csv'
tp358
a(S'2015-02-25 14:05:44.347000'
g183
tp359
a(S'2015-02-25 14:05:44.358000'
g185
tp360
a(S'2015-02-25 14:05:44.363000'
S'data saved as csv to C:\\Users\\Jbarrett\\Charlie\\charlie\\data\\csv\\A109_stroop.csv'
tp361
a(S'2015-02-25 14:05:46.124000'
g183
tp362
a(S'2015-02-25 14:05:46.135000'
g185
tp363
a(S'2015-02-25 14:05:46.140000'
S'data saved as csv to C:\\Users\\Jbarrett\\Charlie\\charlie\\data\\csv\\A109_stroop.csv'
tp364
a(S'2015-02-25 14:05:47.451000'
g183
tp365
a(S'2015-02-25 14:05:47.462000'
g185
tp366
a(S'2015-02-25 14:05:47.466000'
S'data saved as csv to C:\\Users\\Jbarrett\\Charlie\\charlie\\data\\csv\\A109_stroop.csv'
tp367
a(S'2015-02-25 14:05:48.507000'
g183
tp368
a(S'2015-02-25 14:05:48.518000'
g185
tp369
a(S'2015-02-25 14:05:48.522000'
S'data saved as csv to C:\\Users\\Jbarrett\\Charlie\\charlie\\data\\csv\\A109_stroop.csv'
tp370
a(S'2015-02-25 14:05:49.510000'
g183
tp371
a(S'2015-02-25 14:05:49.521000'
g185
tp372
a(S'2015-02-25 14:05:49.525000'
S'data saved as csv to C:\\Users\\Jbarrett\\Charlie\\charlie\\data\\csv\\A109_stroop.csv'
tp373
a(S'2015-02-25 14:05:50.396000'
g183
tp374
a(S'2015-02-25 14:05:50.407000'
g185
tp375
a(S'2015-02-25 14:05:50.411000'
S'data saved as csv to C:\\Users\\Jbarrett\\Charlie\\charlie\\data\\csv\\A109_stroop.csv'
tp376
a(S'2015-02-25 14:05:52.109000'
g183
tp377
a(S'2015-02-25 14:05:52.120000'
g185
tp378
a(S'2015-02-25 14:05:52.123000'
S'data saved as csv to C:\\Users\\Jbarrett\\Charlie\\charlie\\data\\csv\\A109_stroop.csv'
tp379
a(S'2015-02-25 14:05:53.401000'
g183
tp380
a(S'2015-02-25 14:05:53.411000'
g185
tp381
a(S'2015-02-25 14:05:53.414000'
S'data saved as csv to C:\\Users\\Jbarrett\\Charlie\\charlie\\data\\csv\\A109_stroop.csv'
tp382
a(S'2015-02-25 14:05:55.082000'
g183
tp383
a(S'2015-02-25 14:05:55.093000'
g185
tp384
a(S'2015-02-25 14:05:55.098000'
S'data saved as csv to C:\\Users\\Jbarrett\\Charlie\\charlie\\data\\csv\\A109_stroop.csv'
tp385
a(S'2015-02-25 14:05:56.589000'
g183
tp386
a(S'2015-02-25 14:05:56.600000'
g185
tp387
a(S'2015-02-25 14:05:56.605000'
S'data saved as csv to C:\\Users\\Jbarrett\\Charlie\\charlie\\data\\csv\\A109_stroop.csv'
tp388
a(S'2015-02-25 14:05:58.017000'
g183
tp389
a(S'2015-02-25 14:05:58.028000'
g185
tp390
a(S'2015-02-25 14:05:58.032000'
S'data saved as csv to C:\\Users\\Jbarrett\\Charlie\\charlie\\data\\csv\\A109_stroop.csv'
tp391
a(S'2015-02-25 14:05:59.360000'
g183
tp392
a(S'2015-02-25 14:05:59.371000'
g185
tp393
a(S'2015-02-25 14:05:59.376000'
S'data saved as csv to C:\\Users\\Jbarrett\\Charlie\\charlie\\data\\csv\\A109_stroop.csv'
tp394
a(S'2015-02-25 14:06:01.155000'
g183
tp395
a(S'2015-02-25 14:06:01.166000'
g185
tp396
a(S'2015-02-25 14:06:01.171000'
S'data saved as csv to C:\\Users\\Jbarrett\\Charlie\\charlie\\data\\csv\\A109_stroop.csv'
tp397
a(S'2015-02-25 14:06:02.542000'
g183
tp398
a(S'2015-02-25 14:06:02.553000'
g185
tp399
a(S'2015-02-25 14:06:02.558000'
S'data saved as csv to C:\\Users\\Jbarrett\\Charlie\\charlie\\data\\csv\\A109_stroop.csv'
tp400
a(S'2015-02-25 14:06:03.888000'
g183
tp401
a(S'2015-02-25 14:06:03.899000'
g185
tp402
a(S'2015-02-25 14:06:03.904000'
S'data saved as csv to C:\\Users\\Jbarrett\\Charlie\\charlie\\data\\csv\\A109_stroop.csv'
tp403
a(S'2015-02-25 14:06:05.046000'
g183
tp404
a(S'2015-02-25 14:06:05.057000'
g185
tp405
a(S'2015-02-25 14:06:05.062000'
S'data saved as csv to C:\\Users\\Jbarrett\\Charlie\\charlie\\data\\csv\\A109_stroop.csv'
tp406
a(S'2015-02-25 14:06:06.593000'
g183
tp407
a(S'2015-02-25 14:06:06.604000'
g185
tp408
a(S'2015-02-25 14:06:06.609000'
S'data saved as csv to C:\\Users\\Jbarrett\\Charlie\\charlie\\data\\csv\\A109_stroop.csv'
tp409
a(S'2015-02-25 14:06:08.479000'
g183
tp410
a(S'2015-02-25 14:06:08.490000'
g185
tp411
a(S'2015-02-25 14:06:08.495000'
S'data saved as csv to C:\\Users\\Jbarrett\\Charlie\\charlie\\data\\csv\\A109_stroop.csv'
tp412
a(S'2015-02-25 14:06:09.967000'
g183
tp413
a(S'2015-02-25 14:06:09.978000'
g185
tp414
a(S'2015-02-25 14:06:09.983000'
S'data saved as csv to C:\\Users\\Jbarrett\\Charlie\\charlie\\data\\csv\\A109_stroop.csv'
tp415
a(S'2015-02-25 14:06:11.205000'
g183
tp416
a(S'2015-02-25 14:06:11.216000'
g185
tp417
a(S'2015-02-25 14:06:11.221000'
S'data saved as csv to C:\\Users\\Jbarrett\\Charlie\\charlie\\data\\csv\\A109_stroop.csv'
tp418
a(S'2015-02-25 14:06:12.382000'
g183
tp419
a(S'2015-02-25 14:06:12.394000'
g185
tp420
a(S'2015-02-25 14:06:12.399000'
S'data saved as csv to C:\\Users\\Jbarrett\\Charlie\\charlie\\data\\csv\\A109_stroop.csv'
tp421
a(S'2015-02-25 14:06:14.078000'
g183
tp422
a(S'2015-02-25 14:06:14.089000'
g185
tp423
a(S'2015-02-25 14:06:14.094000'
S'data saved as csv to C:\\Users\\Jbarrett\\Charlie\\charlie\\data\\csv\\A109_stroop.csv'
tp424
a(S'2015-02-25 14:06:15.686000'
g183
tp425
a(S'2015-02-25 14:06:15.696000'
g185
tp426
a(S'2015-02-25 14:06:15.701000'
S'data saved as csv to C:\\Users\\Jbarrett\\Charlie\\charlie\\data\\csv\\A109_stroop.csv'
tp427
a(S'2015-02-25 14:06:17.460000'
g183
tp428
a(S'2015-02-25 14:06:17.471000'
g185
tp429
a(S'2015-02-25 14:06:17.474000'
S'data saved as csv to C:\\Users\\Jbarrett\\Charlie\\charlie\\data\\csv\\A109_stroop.csv'
tp430
a(S'2015-02-25 14:06:18.654000'
g183
tp431
a(S'2015-02-25 14:06:18.665000'
g185
tp432
a(S'2015-02-25 14:06:18.670000'
S'data saved as csv to C:\\Users\\Jbarrett\\Charlie\\charlie\\data\\csv\\A109_stroop.csv'
tp433
a(S'2015-02-25 14:06:20.029000'
g183
tp434
a(S'2015-02-25 14:06:20.040000'
g185
tp435
a(S'2015-02-25 14:06:20.045000'
S'data saved as csv to C:\\Users\\Jbarrett\\Charlie\\charlie\\data\\csv\\A109_stroop.csv'
tp436
a(S'2015-02-25 14:06:21.207000'
g183
tp437
a(S'2015-02-25 14:06:21.218000'
g185
tp438
a(S'2015-02-25 14:06:21.222000'
S'data saved as csv to C:\\Users\\Jbarrett\\Charlie\\charlie\\data\\csv\\A109_stroop.csv'
tp439
a(S'2015-02-25 14:06:22.968000'
g183
tp440
a(S'2015-02-25 14:06:22.974000'
g185
tp441
a(S'2015-02-25 14:06:22.977000'
S'data saved as csv to C:\\Users\\Jbarrett\\Charlie\\charlie\\data\\csv\\A109_stroop.csv'
tp442
a(S'2015-02-25 14:06:24.287000'
g183
tp443
a(S'2015-02-25 14:06:24.298000'
g185
tp444
a(S'2015-02-25 14:06:24.303000'
S'data saved as csv to C:\\Users\\Jbarrett\\Charlie\\charlie\\data\\csv\\A109_stroop.csv'
tp445
a(S'2015-02-25 14:06:25.265000'
g183
tp446
a(S'2015-02-25 14:06:25.276000'
g185
tp447
a(S'2015-02-25 14:06:25.281000'
S'data saved as csv to C:\\Users\\Jbarrett\\Charlie\\charlie\\data\\csv\\A109_stroop.csv'
tp448
a(S'2015-02-25 14:06:26.423000'
g183
tp449
a(S'2015-02-25 14:06:26.434000'
g185
tp450
a(S'2015-02-25 14:06:26.439000'
S'data saved as csv to C:\\Users\\Jbarrett\\Charlie\\charlie\\data\\csv\\A109_stroop.csv'
tp451
a(S'2015-02-25 14:06:27.609000'
g183
tp452
a(S'2015-02-25 14:06:27.620000'
g185
tp453
a(S'2015-02-25 14:06:27.625000'
S'data saved as csv to C:\\Users\\Jbarrett\\Charlie\\charlie\\data\\csv\\A109_stroop.csv'
tp454
a(S'2015-02-25 14:06:29.348000'
g183
tp455
a(S'2015-02-25 14:06:29.360000'
g185
tp456
a(S'2015-02-25 14:06:29.364000'
S'data saved as csv to C:\\Users\\Jbarrett\\Charlie\\charlie\\data\\csv\\A109_stroop.csv'
tp457
a(S'2015-02-25 14:06:30.676000'
g183
tp458
a(S'2015-02-25 14:06:30.687000'
g185
tp459
a(S'2015-02-25 14:06:30.692000'
S'data saved as csv to C:\\Users\\Jbarrett\\Charlie\\charlie\\data\\csv\\A109_stroop.csv'
tp460
a(S'2015-02-25 14:06:34.425000'
g183
tp461
a(S'2015-02-25 14:06:34.436000'
g185
tp462
a(S'2015-02-25 14:06:34.441000'
S'data saved as csv to C:\\Users\\Jbarrett\\Charlie\\charlie\\data\\csv\\A109_stroop.csv'
tp463
a(S'2015-02-25 14:06:37.305000'
g183
tp464
a(S'2015-02-25 14:06:37.316000'
g185
tp465
a(S'2015-02-25 14:06:37.321000'
S'data saved as csv to C:\\Users\\Jbarrett\\Charlie\\charlie\\data\\csv\\A109_stroop.csv'
tp466
a(S'2015-02-25 14:06:38.204000'
g183
tp467
a(S'2015-02-25 14:06:38.215000'
g185
tp468
a(S'2015-02-25 14:06:38.220000'
S'data saved as csv to C:\\Users\\Jbarrett\\Charlie\\charlie\\data\\csv\\A109_stroop.csv'
tp469
a(S'2015-02-25 14:06:39.432000'
g183
tp470
a(S'2015-02-25 14:06:39.444000'
g185
tp471
a(S'2015-02-25 14:06:39.448000'
S'data saved as csv to C:\\Users\\Jbarrett\\Charlie\\charlie\\data\\csv\\A109_stroop.csv'
tp472
a(S'2015-02-25 14:06:40.760000'
g183
tp473
a(S'2015-02-25 14:06:40.772000'
g185
tp474
a(S'2015-02-25 14:06:40.777000'
S'data saved as csv to C:\\Users\\Jbarrett\\Charlie\\charlie\\data\\csv\\A109_stroop.csv'
tp475
a(S'2015-02-25 14:06:42.239000'
g183
tp476
a(S'2015-02-25 14:06:42.251000'
g185
tp477
a(S'2015-02-25 14:06:42.255000'
S'data saved as csv to C:\\Users\\Jbarrett\\Charlie\\charlie\\data\\csv\\A109_stroop.csv'
tp478
a(S'2015-02-25 14:06:43.524000'
g183
tp479
a(S'2015-02-25 14:06:43.535000'
g185
tp480
a(S'2015-02-25 14:06:43.540000'
S'data saved as csv to C:\\Users\\Jbarrett\\Charlie\\charlie\\data\\csv\\A109_stroop.csv'
tp481
a(S'2015-02-25 14:06:44.900000'
g183
tp482
a(S'2015-02-25 14:06:44.912000'
g185
tp483
a(S'2015-02-25 14:06:44.917000'
S'data saved as csv to C:\\Users\\Jbarrett\\Charlie\\charlie\\data\\csv\\A109_stroop.csv'
tp484
a(S'2015-02-25 14:06:46.019000'
g183
tp485
a(S'2015-02-25 14:06:46.031000'
g185
tp486
a(S'2015-02-25 14:06:46.034000'
S'data saved as csv to C:\\Users\\Jbarrett\\Charlie\\charlie\\data\\csv\\A109_stroop.csv'
tp487
a(S'2015-02-25 14:06:47.103000'
g183
tp488
a(S'2015-02-25 14:06:47.113000'
g185
tp489
a(S'2015-02-25 14:06:47.115000'
S'data saved as csv to C:\\Users\\Jbarrett\\Charlie\\charlie\\data\\csv\\A109_stroop.csv'
tp490
a(S'2015-02-25 14:06:48.346000'
g183
tp491
a(S'2015-02-25 14:06:48.357000'
g185
tp492
a(S'2015-02-25 14:06:48.362000'
S'data saved as csv to C:\\Users\\Jbarrett\\Charlie\\charlie\\data\\csv\\A109_stroop.csv'
tp493
a(S'2015-02-25 14:06:49.324000'
g183
tp494
a(S'2015-02-25 14:06:49.335000'
g185
tp495
a(S'2015-02-25 14:06:49.338000'
S'data saved as csv to C:\\Users\\Jbarrett\\Charlie\\charlie\\data\\csv\\A109_stroop.csv'
tp496
a(S'2015-02-25 14:06:50.308000'
g183
tp497
a(S'2015-02-25 14:06:50.319000'
g185
tp498
a(S'2015-02-25 14:06:50.323000'
S'data saved as csv to C:\\Users\\Jbarrett\\Charlie\\charlie\\data\\csv\\A109_stroop.csv'
tp499
a(S'2015-02-25 14:06:51.933000'
g183
tp500
a(S'2015-02-25 14:06:51.943000'
g185
tp501
a(S'2015-02-25 14:06:51.946000'
S'data saved as csv to C:\\Users\\Jbarrett\\Charlie\\charlie\\data\\csv\\A109_stroop.csv'
tp502
a(S'2015-02-25 14:06:53.156000'
g183
tp503
a(S'2015-02-25 14:06:53.168000'
g185
tp504
a(S'2015-02-25 14:06:53.173000'
S'data saved as csv to C:\\Users\\Jbarrett\\Charlie\\charlie\\data\\csv\\A109_stroop.csv'
tp505
a(S'2015-02-25 14:06:54.602000'
g183
tp506
a(S'2015-02-25 14:06:54.613000'
g185
tp507
a(S'2015-02-25 14:06:54.616000'
S'data saved as csv to C:\\Users\\Jbarrett\\Charlie\\charlie\\data\\csv\\A109_stroop.csv'
tp508
a(S'2015-02-25 14:06:55.655000'
g183
tp509
a(S'2015-02-25 14:06:55.668000'
g185
tp510
a(S'2015-02-25 14:06:55.673000'
S'data saved as csv to C:\\Users\\Jbarrett\\Charlie\\charlie\\data\\csv\\A109_stroop.csv'
tp511
a(S'2015-02-25 14:06:56.786000'
g183
tp512
a(S'2015-02-25 14:06:56.798000'
g185
tp513
a(S'2015-02-25 14:06:56.803000'
S'data saved as csv to C:\\Users\\Jbarrett\\Charlie\\charlie\\data\\csv\\A109_stroop.csv'
tp514
a(S'2015-02-25 14:06:57.872000'
g183
tp515
a(S'2015-02-25 14:06:57.883000'
g185
tp516
a(S'2015-02-25 14:06:57.886000'
S'data saved as csv to C:\\Users\\Jbarrett\\Charlie\\charlie\\data\\csv\\A109_stroop.csv'
tp517
a(S'2015-02-25 14:06:59.438000'
g183
tp518
a(S'2015-02-25 14:06:59.449000'
g185
tp519
a(S'2015-02-25 14:06:59.454000'
S'data saved as csv to C:\\Users\\Jbarrett\\Charlie\\charlie\\data\\csv\\A109_stroop.csv'
tp520
a(S'2015-02-25 14:07:00.557000'
g183
tp521
a(S'2015-02-25 14:07:00.568000'
g185
tp522
a(S'2015-02-25 14:07:00.573000'
S'data saved as csv to C:\\Users\\Jbarrett\\Charlie\\charlie\\data\\csv\\A109_stroop.csv'
tp523
a(S'2015-02-25 14:07:01.485000'
g183
tp524
a(S'2015-02-25 14:07:01.497000'
g185
tp525
a(S'2015-02-25 14:07:01.502000'
S'data saved as csv to C:\\Users\\Jbarrett\\Charlie\\charlie\\data\\csv\\A109_stroop.csv'
tp526
a(S'2015-02-25 14:07:02.544000'
g183
tp527
a(S'2015-02-25 14:07:02.556000'
g185
tp528
a(S'2015-02-25 14:07:02.561000'
S'data saved as csv to C:\\Users\\Jbarrett\\Charlie\\charlie\\data\\csv\\A109_stroop.csv'
tp529
a(S'2015-02-25 14:07:03.452000'
g183
tp530
a(S'2015-02-25 14:07:03.464000'
g185
tp531
a(S'2015-02-25 14:07:03.467000'
S'data saved as csv to C:\\Users\\Jbarrett\\Charlie\\charlie\\data\\csv\\A109_stroop.csv'
tp532
asb.