(icharlie.tools.data
Data
p1
(dp2
S'lang'
p3
S'EN'
p4
sS'control'
p5
(lp6
sS'last_updated'
p7
cdatetime
datetime
p8
(S'\x07\xdf\x02\x19\r1"\x00\xde\xa8'
tRp9
sS'last_opened'
p10
g8
(S'\x07\xdf\x02\x19\r*$\x0e\x1dH'
tRp11
sS'proj_id'
p12
S''
sS'date_done'
p13
NsS'test_done'
p14
I01
sS'data'
p15
(lp16
(S'A109'
p17
S'ipcpts'
p18
S'practice'
p19
I0
I0
S'No'
p20
S'C:\\Users\\Jbarrett\\Charlie\\charlie\\stimuli\\visual\\ipcpts\\sym0.bmp'
S'C:\\Users\\Jbarrett\\Charlie\\charlie\\stimuli\\visual\\ipcpts\\sym1.bmp'
S'C:\\Users\\Jbarrett\\Charlie\\charlie\\stimuli\\visual\\ipcpts\\sym2.bmp'
S'No'
p21
I0
tp22
a(g17
g18
g19
I1
I0
g20
S'C:\\Users\\Jbarrett\\Charlie\\charlie\\stimuli\\visual\\ipcpts\\sym1.bmp'
S'C:\\Users\\Jbarrett\\Charlie\\charlie\\stimuli\\visual\\ipcpts\\sym2.bmp'
S'C:\\Users\\Jbarrett\\Charlie\\charlie\\stimuli\\visual\\ipcpts\\sym6.bmp'
g21
I0
tp23
a(g17
g18
g19
I2
I0
g20
S'C:\\Users\\Jbarrett\\Charlie\\charlie\\stimuli\\visual\\ipcpts\\sym3.bmp'
S'C:\\Users\\Jbarrett\\Charlie\\charlie\\stimuli\\visual\\ipcpts\\sym4.bmp'
S'C:\\Users\\Jbarrett\\Charlie\\charlie\\stimuli\\visual\\ipcpts\\sym7.bmp'
g21
I0
tp24
a(g17
g18
g19
I3
I3
S'Yes'
p25
S'C:\\Users\\Jbarrett\\Charlie\\charlie\\stimuli\\visual\\ipcpts\\sym3.bmp'
S'C:\\Users\\Jbarrett\\Charlie\\charlie\\stimuli\\visual\\ipcpts\\sym4.bmp'
S'C:\\Users\\Jbarrett\\Charlie\\charlie\\stimuli\\visual\\ipcpts\\sym7.bmp'
S'Yes'
p26
I813
tp27
a(g17
g18
g19
I4
I0
g20
S'C:\\Users\\Jbarrett\\Charlie\\charlie\\stimuli\\visual\\ipcpts\\sym4.bmp'
S'C:\\Users\\Jbarrett\\Charlie\\charlie\\stimuli\\visual\\ipcpts\\sym7.bmp'
S'C:\\Users\\Jbarrett\\Charlie\\charlie\\stimuli\\visual\\ipcpts\\sym3.bmp'
g21
I0
tp28
a(g17
g18
g19
I5
I3
g25
S'C:\\Users\\Jbarrett\\Charlie\\charlie\\stimuli\\visual\\ipcpts\\sym4.bmp'
S'C:\\Users\\Jbarrett\\Charlie\\charlie\\stimuli\\visual\\ipcpts\\sym7.bmp'
S'C:\\Users\\Jbarrett\\Charlie\\charlie\\stimuli\\visual\\ipcpts\\sym3.bmp'
g26
I668
tp29
a(g17
g18
g19
I6
I0
g20
S'C:\\Users\\Jbarrett\\Charlie\\charlie\\stimuli\\visual\\ipcpts\\sym7.bmp'
S'C:\\Users\\Jbarrett\\Charlie\\charlie\\stimuli\\visual\\ipcpts\\sym1.bmp'
S'C:\\Users\\Jbarrett\\Charlie\\charlie\\stimuli\\visual\\ipcpts\\sym0.bmp'
g21
I0
tp30
a(g17
g18
S'test'
p31
I0
I0
g20
S'C:\\Users\\Jbarrett\\Charlie\\charlie\\stimuli\\visual\\ipcpts\\sym0.bmp'
S'C:\\Users\\Jbarrett\\Charlie\\charlie\\stimuli\\visual\\ipcpts\\sym1.bmp'
S'C:\\Users\\Jbarrett\\Charlie\\charlie\\stimuli\\visual\\ipcpts\\sym2.bmp'
g21
I0
tp32
a(g17
g18
g31
I1
I0
g20
S'C:\\Users\\Jbarrett\\Charlie\\charlie\\stimuli\\visual\\ipcpts\\sym6.bmp'
S'C:\\Users\\Jbarrett\\Charlie\\charlie\\stimuli\\visual\\ipcpts\\sym9.bmp'
S'C:\\Users\\Jbarrett\\Charlie\\charlie\\stimuli\\visual\\ipcpts\\sym0.bmp'
g21
I0
tp33
a(g17
g18
g31
I2
I3
g25
S'C:\\Users\\Jbarrett\\Charlie\\charlie\\stimuli\\visual\\ipcpts\\sym6.bmp'
S'C:\\Users\\Jbarrett\\Charlie\\charlie\\stimuli\\visual\\ipcpts\\sym9.bmp'
S'C:\\Users\\Jbarrett\\Charlie\\charlie\\stimuli\\visual\\ipcpts\\sym0.bmp'
g26
I669
tp34
a(g17
g18
g31
I3
I3
g25
S'C:\\Users\\Jbarrett\\Charlie\\charlie\\stimuli\\visual\\ipcpts\\sym6.bmp'
S'C:\\Users\\Jbarrett\\Charlie\\charlie\\stimuli\\visual\\ipcpts\\sym9.bmp'
S'C:\\Users\\Jbarrett\\Charlie\\charlie\\stimuli\\visual\\ipcpts\\sym0.bmp'
g26
I753
tp35
a(g17
g18
g31
I4
I0
g20
S'C:\\Users\\Jbarrett\\Charlie\\charlie\\stimuli\\visual\\ipcpts\\sym3.bmp'
S'C:\\Users\\Jbarrett\\Charlie\\charlie\\stimuli\\visual\\ipcpts\\sym5.bmp'
S'C:\\Users\\Jbarrett\\Charlie\\charlie\\stimuli\\visual\\ipcpts\\sym8.bmp'
g21
I0
tp36
a(g17
g18
g31
I5
I3
g25
S'C:\\Users\\Jbarrett\\Charlie\\charlie\\stimuli\\visual\\ipcpts\\sym3.bmp'
S'C:\\Users\\Jbarrett\\Charlie\\charlie\\stimuli\\visual\\ipcpts\\sym5.bmp'
S'C:\\Users\\Jbarrett\\Charlie\\charlie\\stimuli\\visual\\ipcpts\\sym8.bmp'
g26
I473
tp37
a(g17
g18
g31
I6
I0
g20
S'C:\\Users\\Jbarrett\\Charlie\\charlie\\stimuli\\visual\\ipcpts\\sym9.bmp'
S'C:\\Users\\Jbarrett\\Charlie\\charlie\\stimuli\\visual\\ipcpts\\sym3.bmp'
S'C:\\Users\\Jbarrett\\Charlie\\charlie\\stimuli\\visual\\ipcpts\\sym0.bmp'
g21
I0
tp38
a(g17
g18
g31
I7
I1
g20
S'C:\\Users\\Jbarrett\\Charlie\\charlie\\stimuli\\visual\\ipcpts\\sym2.bmp'
S'C:\\Users\\Jbarrett\\Charlie\\charlie\\stimuli\\visual\\ipcpts\\sym4.bmp'
S'C:\\Users\\Jbarrett\\Charlie\\charlie\\stimuli\\visual\\ipcpts\\sym0.bmp'
g21
I0
tp39
a(g17
g18
g31
I8
I3
g25
S'C:\\Users\\Jbarrett\\Charlie\\charlie\\stimuli\\visual\\ipcpts\\sym2.bmp'
S'C:\\Users\\Jbarrett\\Charlie\\charlie\\stimuli\\visual\\ipcpts\\sym4.bmp'
S'C:\\Users\\Jbarrett\\Charlie\\charlie\\stimuli\\visual\\ipcpts\\sym0.bmp'
g26
I492
tp40
a(g17
g18
g31
I9
I1
g20
S'C:\\Users\\Jbarrett\\Charlie\\charlie\\stimuli\\visual\\ipcpts\\sym4.bmp'
S'C:\\Users\\Jbarrett\\Charlie\\charlie\\stimuli\\visual\\ipcpts\\sym5.bmp'
S'C:\\Users\\Jbarrett\\Charlie\\charlie\\stimuli\\visual\\ipcpts\\sym0.bmp'
g21
I0
tp41
a(g17
g18
g31
I10
I3
g25
S'C:\\Users\\Jbarrett\\Charlie\\charlie\\stimuli\\visual\\ipcpts\\sym4.bmp'
S'C:\\Users\\Jbarrett\\Charlie\\charlie\\stimuli\\visual\\ipcpts\\sym5.bmp'
S'C:\\Users\\Jbarrett\\Charlie\\charlie\\stimuli\\visual\\ipcpts\\sym0.bmp'
g26
I428
tp42
a(g17
g18
g31
I11
I2
g20
S'C:\\Users\\Jbarrett\\Charlie\\charlie\\stimuli\\visual\\ipcpts\\sym8.bmp'
S'C:\\Users\\Jbarrett\\Charlie\\charlie\\stimuli\\visual\\ipcpts\\sym5.bmp'
S'C:\\Users\\Jbarrett\\Charlie\\charlie\\stimuli\\visual\\ipcpts\\sym0.bmp'
g21
I0
tp43
a(g17
g18
g31
I12
I2
g20
S'C:\\Users\\Jbarrett\\Charlie\\charlie\\stimuli\\visual\\ipcpts\\sym8.bmp'
S'C:\\Users\\Jbarrett\\Charlie\\charlie\\stimuli\\visual\\ipcpts\\sym5.bmp'
S'C:\\Users\\Jbarrett\\Charlie\\charlie\\stimuli\\visual\\ipcpts\\sym4.bmp'
g21
I0
tp44
a(g17
g18
g31
I13
I2
g20
S'C:\\Users\\Jbarrett\\Charlie\\charlie\\stimuli\\visual\\ipcpts\\sym8.bmp'
S'C:\\Users\\Jbarrett\\Charlie\\charlie\\stimuli\\visual\\ipcpts\\sym3.bmp'
S'C:\\Users\\Jbarrett\\Charlie\\charlie\\stimuli\\visual\\ipcpts\\sym4.bmp'
g21
I0
tp45
a(g17
g18
g31
I14
I0
g20
S'C:\\Users\\Jbarrett\\Charlie\\charlie\\stimuli\\visual\\ipcpts\\sym1.bmp'
S'C:\\Users\\Jbarrett\\Charlie\\charlie\\stimuli\\visual\\ipcpts\\sym7.bmp'
S'C:\\Users\\Jbarrett\\Charlie\\charlie\\stimuli\\visual\\ipcpts\\sym9.bmp'
g21
I0
tp46
a(g17
g18
g31
I15
I0
g20
S'C:\\Users\\Jbarrett\\Charlie\\charlie\\stimuli\\visual\\ipcpts\\sym9.bmp'
S'C:\\Users\\Jbarrett\\Charlie\\charlie\\stimuli\\visual\\ipcpts\\sym5.bmp'
S'C:\\Users\\Jbarrett\\Charlie\\charlie\\stimuli\\visual\\ipcpts\\sym2.bmp'
g21
I0
tp47
a(g17
g18
g31
I16
I3
g25
S'C:\\Users\\Jbarrett\\Charlie\\charlie\\stimuli\\visual\\ipcpts\\sym9.bmp'
S'C:\\Users\\Jbarrett\\Charlie\\charlie\\stimuli\\visual\\ipcpts\\sym5.bmp'
S'C:\\Users\\Jbarrett\\Charlie\\charlie\\stimuli\\visual\\ipcpts\\sym2.bmp'
g26
I581
tp48
a(g17
g18
g31
I17
I0
g20
S'C:\\Users\\Jbarrett\\Charlie\\charlie\\stimuli\\visual\\ipcpts\\sym6.bmp'
S'C:\\Users\\Jbarrett\\Charlie\\charlie\\stimuli\\visual\\ipcpts\\sym2.bmp'
S'C:\\Users\\Jbarrett\\Charlie\\charlie\\stimuli\\visual\\ipcpts\\sym9.bmp'
g21
I0
tp49
a(g17
g18
g31
I18
I3
g25
S'C:\\Users\\Jbarrett\\Charlie\\charlie\\stimuli\\visual\\ipcpts\\sym6.bmp'
S'C:\\Users\\Jbarrett\\Charlie\\charlie\\stimuli\\visual\\ipcpts\\sym2.bmp'
S'C:\\Users\\Jbarrett\\Charlie\\charlie\\stimuli\\visual\\ipcpts\\sym9.bmp'
g26
I589
tp50
a(g17
g18
g31
I19
I0
g20
S'C:\\Users\\Jbarrett\\Charlie\\charlie\\stimuli\\visual\\ipcpts\\sym8.bmp'
S'C:\\Users\\Jbarrett\\Charlie\\charlie\\stimuli\\visual\\ipcpts\\sym5.bmp'
S'C:\\Users\\Jbarrett\\Charlie\\charlie\\stimuli\\visual\\ipcpts\\sym2.bmp'
g21
I0
tp51
a(g17
g18
g31
I20
I3
g25
S'C:\\Users\\Jbarrett\\Charlie\\charlie\\stimuli\\visual\\ipcpts\\sym8.bmp'
S'C:\\Users\\Jbarrett\\Charlie\\charlie\\stimuli\\visual\\ipcpts\\sym5.bmp'
S'C:\\Users\\Jbarrett\\Charlie\\charlie\\stimuli\\visual\\ipcpts\\sym2.bmp'
g26
I532
tp52
a(g17
g18
g31
I21
I0
g20
S'C:\\Users\\Jbarrett\\Charlie\\charlie\\stimuli\\visual\\ipcpts\\sym0.bmp'
S'C:\\Users\\Jbarrett\\Charlie\\charlie\\stimuli\\visual\\ipcpts\\sym7.bmp'
S'C:\\Users\\Jbarrett\\Charlie\\charlie\\stimuli\\visual\\ipcpts\\sym5.bmp'
g21
I0
tp53
a(g17
g18
g31
I22
I2
g20
S'C:\\Users\\Jbarrett\\Charlie\\charlie\\stimuli\\visual\\ipcpts\\sym0.bmp'
S'C:\\Users\\Jbarrett\\Charlie\\charlie\\stimuli\\visual\\ipcpts\\sym1.bmp'
S'C:\\Users\\Jbarrett\\Charlie\\charlie\\stimuli\\visual\\ipcpts\\sym5.bmp'
g21
I0
tp54
a(g17
g18
g31
I23
I3
g25
S'C:\\Users\\Jbarrett\\Charlie\\charlie\\stimuli\\visual\\ipcpts\\sym0.bmp'
S'C:\\Users\\Jbarrett\\Charlie\\charlie\\stimuli\\visual\\ipcpts\\sym1.bmp'
S'C:\\Users\\Jbarrett\\Charlie\\charlie\\stimuli\\visual\\ipcpts\\sym5.bmp'
g21
I0
tp55
a(g17
g18
g31
I24
I2
g20
S'C:\\Users\\Jbarrett\\Charlie\\charlie\\stimuli\\visual\\ipcpts\\sym0.bmp'
S'C:\\Users\\Jbarrett\\Charlie\\charlie\\stimuli\\visual\\ipcpts\\sym8.bmp'
S'C:\\Users\\Jbarrett\\Charlie\\charlie\\stimuli\\visual\\ipcpts\\sym5.bmp'
g21
I0
tp56
a(g17
g18
g31
I25
I3
g25
S'C:\\Users\\Jbarrett\\Charlie\\charlie\\stimuli\\visual\\ipcpts\\sym0.bmp'
S'C:\\Users\\Jbarrett\\Charlie\\charlie\\stimuli\\visual\\ipcpts\\sym8.bmp'
S'C:\\Users\\Jbarrett\\Charlie\\charlie\\stimuli\\visual\\ipcpts\\sym5.bmp'
g26
I488
tp57
a(g17
g18
g31
I26
I1
g20
S'C:\\Users\\Jbarrett\\Charlie\\charlie\\stimuli\\visual\\ipcpts\\sym0.bmp'
S'C:\\Users\\Jbarrett\\Charlie\\charlie\\stimuli\\visual\\ipcpts\\sym3.bmp'
S'C:\\Users\\Jbarrett\\Charlie\\charlie\\stimuli\\visual\\ipcpts\\sym2.bmp'
g21
I0
tp58
a(g17
g18
g31
I27
I2
g20
S'C:\\Users\\Jbarrett\\Charlie\\charlie\\stimuli\\visual\\ipcpts\\sym5.bmp'
S'C:\\Users\\Jbarrett\\Charlie\\charlie\\stimuli\\visual\\ipcpts\\sym3.bmp'
S'C:\\Users\\Jbarrett\\Charlie\\charlie\\stimuli\\visual\\ipcpts\\sym2.bmp'
g26
I553
tp59
a(g17
g18
g31
I28
I1
g20
S'C:\\Users\\Jbarrett\\Charlie\\charlie\\stimuli\\visual\\ipcpts\\sym0.bmp'
S'C:\\Users\\Jbarrett\\Charlie\\charlie\\stimuli\\visual\\ipcpts\\sym3.bmp'
S'C:\\Users\\Jbarrett\\Charlie\\charlie\\stimuli\\visual\\ipcpts\\sym5.bmp'
g26
I941
tp60
a(g17
g18
g31
I29
I0
g20
S'C:\\Users\\Jbarrett\\Charlie\\charlie\\stimuli\\visual\\ipcpts\\sym3.bmp'
S'C:\\Users\\Jbarrett\\Charlie\\charlie\\stimuli\\visual\\ipcpts\\sym8.bmp'
S'C:\\Users\\Jbarrett\\Charlie\\charlie\\stimuli\\visual\\ipcpts\\sym9.bmp'
g21
I0
tp61
a(g17
g18
g31
I30
I2
g20
S'C:\\Users\\Jbarrett\\Charlie\\charlie\\stimuli\\visual\\ipcpts\\sym2.bmp'
S'C:\\Users\\Jbarrett\\Charlie\\charlie\\stimuli\\visual\\ipcpts\\sym8.bmp'
S'C:\\Users\\Jbarrett\\Charlie\\charlie\\stimuli\\visual\\ipcpts\\sym9.bmp'
g21
I0
tp62
a(g17
g18
g31
I31
I0
g20
S'C:\\Users\\Jbarrett\\Charlie\\charlie\\stimuli\\visual\\ipcpts\\sym5.bmp'
S'C:\\Users\\Jbarrett\\Charlie\\charlie\\stimuli\\visual\\ipcpts\\sym6.bmp'
S'C:\\Users\\Jbarrett\\Charlie\\charlie\\stimuli\\visual\\ipcpts\\sym2.bmp'
g21
I0
tp63
a(g17
g18
g31
I32
I1
g20
S'C:\\Users\\Jbarrett\\Charlie\\charlie\\stimuli\\visual\\ipcpts\\sym1.bmp'
S'C:\\Users\\Jbarrett\\Charlie\\charlie\\stimuli\\visual\\ipcpts\\sym9.bmp'
S'C:\\Users\\Jbarrett\\Charlie\\charlie\\stimuli\\visual\\ipcpts\\sym2.bmp'
g21
I0
tp64
a(g17
g18
g31
I33
I0
g20
S'C:\\Users\\Jbarrett\\Charlie\\charlie\\stimuli\\visual\\ipcpts\\sym0.bmp'
S'C:\\Users\\Jbarrett\\Charlie\\charlie\\stimuli\\visual\\ipcpts\\sym5.bmp'
S'C:\\Users\\Jbarrett\\Charlie\\charlie\\stimuli\\visual\\ipcpts\\sym7.bmp'
g21
I0
tp65
a(g17
g18
g31
I34
I3
g25
S'C:\\Users\\Jbarrett\\Charlie\\charlie\\stimuli\\visual\\ipcpts\\sym0.bmp'
S'C:\\Users\\Jbarrett\\Charlie\\charlie\\stimuli\\visual\\ipcpts\\sym5.bmp'
S'C:\\Users\\Jbarrett\\Charlie\\charlie\\stimuli\\visual\\ipcpts\\sym7.bmp'
g21
I0
tp66
a(g17
g18
g31
I35
I0
g20
S'C:\\Users\\Jbarrett\\Charlie\\charlie\\stimuli\\visual\\ipcpts\\sym3.bmp'
S'C:\\Users\\Jbarrett\\Charlie\\charlie\\stimuli\\visual\\ipcpts\\sym6.bmp'
S'C:\\Users\\Jbarrett\\Charlie\\charlie\\stimuli\\visual\\ipcpts\\sym0.bmp'
g21
I0
tp67
a(g17
g18
g31
I36
I2
g20
S'C:\\Users\\Jbarrett\\Charlie\\charlie\\stimuli\\visual\\ipcpts\\sym2.bmp'
S'C:\\Users\\Jbarrett\\Charlie\\charlie\\stimuli\\visual\\ipcpts\\sym6.bmp'
S'C:\\Users\\Jbarrett\\Charlie\\charlie\\stimuli\\visual\\ipcpts\\sym0.bmp'
g21
I0
tp68
a(g17
g18
g31
I37
I3
g25
S'C:\\Users\\Jbarrett\\Charlie\\charlie\\stimuli\\visual\\ipcpts\\sym2.bmp'
S'C:\\Users\\Jbarrett\\Charlie\\charlie\\stimuli\\visual\\ipcpts\\sym6.bmp'
S'C:\\Users\\Jbarrett\\Charlie\\charlie\\stimuli\\visual\\ipcpts\\sym0.bmp'
g26
I561
tp69
a(g17
g18
g31
I38
I1
g20
S'C:\\Users\\Jbarrett\\Charlie\\charlie\\stimuli\\visual\\ipcpts\\sym2.bmp'
S'C:\\Users\\Jbarrett\\Charlie\\charlie\\stimuli\\visual\\ipcpts\\sym8.bmp'
S'C:\\Users\\Jbarrett\\Charlie\\charlie\\stimuli\\visual\\ipcpts\\sym3.bmp'
g21
I0
tp70
a(g17
g18
g31
I39
I0
g20
S'C:\\Users\\Jbarrett\\Charlie\\charlie\\stimuli\\visual\\ipcpts\\sym8.bmp'
S'C:\\Users\\Jbarrett\\Charlie\\charlie\\stimuli\\visual\\ipcpts\\sym2.bmp'
S'C:\\Users\\Jbarrett\\Charlie\\charlie\\stimuli\\visual\\ipcpts\\sym0.bmp'
g21
I0
tp71
a(g17
g18
g31
I40
I0
g20
S'C:\\Users\\Jbarrett\\Charlie\\charlie\\stimuli\\visual\\ipcpts\\sym5.bmp'
S'C:\\Users\\Jbarrett\\Charlie\\charlie\\stimuli\\visual\\ipcpts\\sym7.bmp'
S'C:\\Users\\Jbarrett\\Charlie\\charlie\\stimuli\\visual\\ipcpts\\sym9.bmp'
g21
I0
tp72
a(g17
g18
g31
I41
I2
g20
S'C:\\Users\\Jbarrett\\Charlie\\charlie\\stimuli\\visual\\ipcpts\\sym5.bmp'
S'C:\\Users\\Jbarrett\\Charlie\\charlie\\stimuli\\visual\\ipcpts\\sym7.bmp'
S'C:\\Users\\Jbarrett\\Charlie\\charlie\\stimuli\\visual\\ipcpts\\sym2.bmp'
g21
I0
tp73
a(g17
g18
g31
I42
I3
g25
S'C:\\Users\\Jbarrett\\Charlie\\charlie\\stimuli\\visual\\ipcpts\\sym5.bmp'
S'C:\\Users\\Jbarrett\\Charlie\\charlie\\stimuli\\visual\\ipcpts\\sym7.bmp'
S'C:\\Users\\Jbarrett\\Charlie\\charlie\\stimuli\\visual\\ipcpts\\sym2.bmp'
g21
I0
tp74
a(g17
g18
g31
I43
I1
g20
S'C:\\Users\\Jbarrett\\Charlie\\charlie\\stimuli\\visual\\ipcpts\\sym9.bmp'
S'C:\\Users\\Jbarrett\\Charlie\\charlie\\stimuli\\visual\\ipcpts\\sym0.bmp'
S'C:\\Users\\Jbarrett\\Charlie\\charlie\\stimuli\\visual\\ipcpts\\sym2.bmp'
g21
I0
tp75
a(g17
g18
g31
I44
I3
g25
S'C:\\Users\\Jbarrett\\Charlie\\charlie\\stimuli\\visual\\ipcpts\\sym9.bmp'
S'C:\\Users\\Jbarrett\\Charlie\\charlie\\stimuli\\visual\\ipcpts\\sym0.bmp'
S'C:\\Users\\Jbarrett\\Charlie\\charlie\\stimuli\\visual\\ipcpts\\sym2.bmp'
g26
I444
tp76
a(g17
g18
g31
I45
I3
g25
S'C:\\Users\\Jbarrett\\Charlie\\charlie\\stimuli\\visual\\ipcpts\\sym9.bmp'
S'C:\\Users\\Jbarrett\\Charlie\\charlie\\stimuli\\visual\\ipcpts\\sym0.bmp'
S'C:\\Users\\Jbarrett\\Charlie\\charlie\\stimuli\\visual\\ipcpts\\sym2.bmp'
g26
I456
tp77
a(g17
g18
g31
I46
I0
g20
S'C:\\Users\\Jbarrett\\Charlie\\charlie\\stimuli\\visual\\ipcpts\\sym7.bmp'
S'C:\\Users\\Jbarrett\\Charlie\\charlie\\stimuli\\visual\\ipcpts\\sym3.bmp'
S'C:\\Users\\Jbarrett\\Charlie\\charlie\\stimuli\\visual\\ipcpts\\sym6.bmp'
g21
I0
tp78
a(g17
g18
g31
I47
I0
g20
S'C:\\Users\\Jbarrett\\Charlie\\charlie\\stimuli\\visual\\ipcpts\\sym4.bmp'
S'C:\\Users\\Jbarrett\\Charlie\\charlie\\stimuli\\visual\\ipcpts\\sym2.bmp'
S'C:\\Users\\Jbarrett\\Charlie\\charlie\\stimuli\\visual\\ipcpts\\sym7.bmp'
g21
I0
tp79
a(g17
g18
g31
I48
I0
g20
S'C:\\Users\\Jbarrett\\Charlie\\charlie\\stimuli\\visual\\ipcpts\\sym6.bmp'
S'C:\\Users\\Jbarrett\\Charlie\\charlie\\stimuli\\visual\\ipcpts\\sym3.bmp'
S'C:\\Users\\Jbarrett\\Charlie\\charlie\\stimuli\\visual\\ipcpts\\sym1.bmp'
g21
I0
tp80
a(g17
g18
g31
I49
I3
g25
S'C:\\Users\\Jbarrett\\Charlie\\charlie\\stimuli\\visual\\ipcpts\\sym6.bmp'
S'C:\\Users\\Jbarrett\\Charlie\\charlie\\stimuli\\visual\\ipcpts\\sym3.bmp'
S'C:\\Users\\Jbarrett\\Charlie\\charlie\\stimuli\\visual\\ipcpts\\sym1.bmp'
g26
I393
tp81
a(g17
g18
g31
I50
I3
g25
S'C:\\Users\\Jbarrett\\Charlie\\charlie\\stimuli\\visual\\ipcpts\\sym6.bmp'
S'C:\\Users\\Jbarrett\\Charlie\\charlie\\stimuli\\visual\\ipcpts\\sym3.bmp'
S'C:\\Users\\Jbarrett\\Charlie\\charlie\\stimuli\\visual\\ipcpts\\sym1.bmp'
g26
I629
tp82
a(g17
g18
g31
I51
I3
g25
S'C:\\Users\\Jbarrett\\Charlie\\charlie\\stimuli\\visual\\ipcpts\\sym6.bmp'
S'C:\\Users\\Jbarrett\\Charlie\\charlie\\stimuli\\visual\\ipcpts\\sym3.bmp'
S'C:\\Users\\Jbarrett\\Charlie\\charlie\\stimuli\\visual\\ipcpts\\sym1.bmp'
g26
I617
tp83
a(g17
g18
g31
I52
I0
g20
S'C:\\Users\\Jbarrett\\Charlie\\charlie\\stimuli\\visual\\ipcpts\\sym1.bmp'
S'C:\\Users\\Jbarrett\\Charlie\\charlie\\stimuli\\visual\\ipcpts\\sym0.bmp'
S'C:\\Users\\Jbarrett\\Charlie\\charlie\\stimuli\\visual\\ipcpts\\sym8.bmp'
g21
I0
tp84
a(g17
g18
g31
I53
I3
g25
S'C:\\Users\\Jbarrett\\Charlie\\charlie\\stimuli\\visual\\ipcpts\\sym1.bmp'
S'C:\\Users\\Jbarrett\\Charlie\\charlie\\stimuli\\visual\\ipcpts\\sym0.bmp'
S'C:\\Users\\Jbarrett\\Charlie\\charlie\\stimuli\\visual\\ipcpts\\sym8.bmp'
g21
I0
tp85
a(g17
g18
g31
I54
I3
g25
S'C:\\Users\\Jbarrett\\Charlie\\charlie\\stimuli\\visual\\ipcpts\\sym1.bmp'
S'C:\\Users\\Jbarrett\\Charlie\\charlie\\stimuli\\visual\\ipcpts\\sym0.bmp'
S'C:\\Users\\Jbarrett\\Charlie\\charlie\\stimuli\\visual\\ipcpts\\sym8.bmp'
g21
I0
tp86
a(g17
g18
g31
I55
I0
g20
S'C:\\Users\\Jbarrett\\Charlie\\charlie\\stimuli\\visual\\ipcpts\\sym4.bmp'
S'C:\\Users\\Jbarrett\\Charlie\\charlie\\stimuli\\visual\\ipcpts\\sym8.bmp'
S'C:\\Users\\Jbarrett\\Charlie\\charlie\\stimuli\\visual\\ipcpts\\sym3.bmp'
g21
I0
tp87
a(g17
g18
g31
I56
I0
g20
S'C:\\Users\\Jbarrett\\Charlie\\charlie\\stimuli\\visual\\ipcpts\\sym3.bmp'
S'C:\\Users\\Jbarrett\\Charlie\\charlie\\stimuli\\visual\\ipcpts\\sym1.bmp'
S'C:\\Users\\Jbarrett\\Charlie\\charlie\\stimuli\\visual\\ipcpts\\sym2.bmp'
g21
I0
tp88
a(g17
g18
g31
I57
I3
g25
S'C:\\Users\\Jbarrett\\Charlie\\charlie\\stimuli\\visual\\ipcpts\\sym3.bmp'
S'C:\\Users\\Jbarrett\\Charlie\\charlie\\stimuli\\visual\\ipcpts\\sym1.bmp'
S'C:\\Users\\Jbarrett\\Charlie\\charlie\\stimuli\\visual\\ipcpts\\sym2.bmp'
g26
I392
tp89
a(g17
g18
g31
I58
I3
g25
S'C:\\Users\\Jbarrett\\Charlie\\charlie\\stimuli\\visual\\ipcpts\\sym3.bmp'
S'C:\\Users\\Jbarrett\\Charlie\\charlie\\stimuli\\visual\\ipcpts\\sym1.bmp'
S'C:\\Users\\Jbarrett\\Charlie\\charlie\\stimuli\\visual\\ipcpts\\sym2.bmp'
g26
I372
tp90
a(g17
g18
g31
I59
I0
g20
S'C:\\Users\\Jbarrett\\Charlie\\charlie\\stimuli\\visual\\ipcpts\\sym7.bmp'
S'C:\\Users\\Jbarrett\\Charlie\\charlie\\stimuli\\visual\\ipcpts\\sym5.bmp'
S'C:\\Users\\Jbarrett\\Charlie\\charlie\\stimuli\\visual\\ipcpts\\sym8.bmp'
g21
I0
tp91
a(g17
g18
g31
I60
I3
g25
S'C:\\Users\\Jbarrett\\Charlie\\charlie\\stimuli\\visual\\ipcpts\\sym7.bmp'
S'C:\\Users\\Jbarrett\\Charlie\\charlie\\stimuli\\visual\\ipcpts\\sym5.bmp'
S'C:\\Users\\Jbarrett\\Charlie\\charlie\\stimuli\\visual\\ipcpts\\sym8.bmp'
g21
I0
tp92
a(g17
g18
g31
I61
I0
g20
S'C:\\Users\\Jbarrett\\Charlie\\charlie\\stimuli\\visual\\ipcpts\\sym1.bmp'
S'C:\\Users\\Jbarrett\\Charlie\\charlie\\stimuli\\visual\\ipcpts\\sym9.bmp'
S'C:\\Users\\Jbarrett\\Charlie\\charlie\\stimuli\\visual\\ipcpts\\sym3.bmp'
g21
I0
tp93
a(g17
g18
g31
I62
I1
g20
S'C:\\Users\\Jbarrett\\Charlie\\charlie\\stimuli\\visual\\ipcpts\\sym0.bmp'
S'C:\\Users\\Jbarrett\\Charlie\\charlie\\stimuli\\visual\\ipcpts\\sym9.bmp'
S'C:\\Users\\Jbarrett\\Charlie\\charlie\\stimuli\\visual\\ipcpts\\sym6.bmp'
g21
I0
tp94
a(g17
g18
g31
I63
I2
g20
S'C:\\Users\\Jbarrett\\Charlie\\charlie\\stimuli\\visual\\ipcpts\\sym0.bmp'
S'C:\\Users\\Jbarrett\\Charlie\\charlie\\stimuli\\visual\\ipcpts\\sym2.bmp'
S'C:\\Users\\Jbarrett\\Charlie\\charlie\\stimuli\\visual\\ipcpts\\sym6.bmp'
g21
I0
tp95
a(g17
g18
g31
I64
I3
g25
S'C:\\Users\\Jbarrett\\Charlie\\charlie\\stimuli\\visual\\ipcpts\\sym0.bmp'
S'C:\\Users\\Jbarrett\\Charlie\\charlie\\stimuli\\visual\\ipcpts\\sym2.bmp'
S'C:\\Users\\Jbarrett\\Charlie\\charlie\\stimuli\\visual\\ipcpts\\sym6.bmp'
g21
I0
tp96
a(g17
g18
g31
I65
I2
g20
S'C:\\Users\\Jbarrett\\Charlie\\charlie\\stimuli\\visual\\ipcpts\\sym0.bmp'
S'C:\\Users\\Jbarrett\\Charlie\\charlie\\stimuli\\visual\\ipcpts\\sym2.bmp'
S'C:\\Users\\Jbarrett\\Charlie\\charlie\\stimuli\\visual\\ipcpts\\sym9.bmp'
g21
I0
tp97
a(g17
g18
g31
I66
I2
g20
S'C:\\Users\\Jbarrett\\Charlie\\charlie\\stimuli\\visual\\ipcpts\\sym0.bmp'
S'C:\\Users\\Jbarrett\\Charlie\\charlie\\stimuli\\visual\\ipcpts\\sym2.bmp'
S'C:\\Users\\Jbarrett\\Charlie\\charlie\\stimuli\\visual\\ipcpts\\sym5.bmp'
g21
I0
tp98
a(g17
g18
g31
I67
I0
g20
S'C:\\Users\\Jbarrett\\Charlie\\charlie\\stimuli\\visual\\ipcpts\\sym1.bmp'
S'C:\\Users\\Jbarrett\\Charlie\\charlie\\stimuli\\visual\\ipcpts\\sym7.bmp'
S'C:\\Users\\Jbarrett\\Charlie\\charlie\\stimuli\\visual\\ipcpts\\sym0.bmp'
g21
I0
tp99
a(g17
g18
g31
I68
I0
g20
S'C:\\Users\\Jbarrett\\Charlie\\charlie\\stimuli\\visual\\ipcpts\\sym3.bmp'
S'C:\\Users\\Jbarrett\\Charlie\\charlie\\stimuli\\visual\\ipcpts\\sym1.bmp'
S'C:\\Users\\Jbarrett\\Charlie\\charlie\\stimuli\\visual\\ipcpts\\sym2.bmp'
g21
I0
tp100
a(g17
g18
g31
I69
I1
g20
S'C:\\Users\\Jbarrett\\Charlie\\charlie\\stimuli\\visual\\ipcpts\\sym0.bmp'
S'C:\\Users\\Jbarrett\\Charlie\\charlie\\stimuli\\visual\\ipcpts\\sym1.bmp'
S'C:\\Users\\Jbarrett\\Charlie\\charlie\\stimuli\\visual\\ipcpts\\sym7.bmp'
g21
I0
tp101
a(g17
g18
g31
I70
I2
g20
S'C:\\Users\\Jbarrett\\Charlie\\charlie\\stimuli\\visual\\ipcpts\\sym9.bmp'
S'C:\\Users\\Jbarrett\\Charlie\\charlie\\stimuli\\visual\\ipcpts\\sym1.bmp'
S'C:\\Users\\Jbarrett\\Charlie\\charlie\\stimuli\\visual\\ipcpts\\sym7.bmp'
g21
I0
tp102
a(g17
g18
g31
I71
I1
g20
S'C:\\Users\\Jbarrett\\Charlie\\charlie\\stimuli\\visual\\ipcpts\\sym9.bmp'
S'C:\\Users\\Jbarrett\\Charlie\\charlie\\stimuli\\visual\\ipcpts\\sym3.bmp'
S'C:\\Users\\Jbarrett\\Charlie\\charlie\\stimuli\\visual\\ipcpts\\sym5.bmp'
g21
I0
tp103
a(g17
g18
g31
I72
I3
g25
S'C:\\Users\\Jbarrett\\Charlie\\charlie\\stimuli\\visual\\ipcpts\\sym9.bmp'
S'C:\\Users\\Jbarrett\\Charlie\\charlie\\stimuli\\visual\\ipcpts\\sym3.bmp'
S'C:\\Users\\Jbarrett\\Charlie\\charlie\\stimuli\\visual\\ipcpts\\sym5.bmp'
g26
I693
tp104
a(g17
g18
g31
I73
I0
g20
S'C:\\Users\\Jbarrett\\Charlie\\charlie\\stimuli\\visual\\ipcpts\\sym8.bmp'
S'C:\\Users\\Jbarrett\\Charlie\\charlie\\stimuli\\visual\\ipcpts\\sym4.bmp'
S'C:\\Users\\Jbarrett\\Charlie\\charlie\\stimuli\\visual\\ipcpts\\sym9.bmp'
g21
I0
tp105
a(g17
g18
g31
I74
I2
g20
S'C:\\Users\\Jbarrett\\Charlie\\charlie\\stimuli\\visual\\ipcpts\\sym8.bmp'
S'C:\\Users\\Jbarrett\\Charlie\\charlie\\stimuli\\visual\\ipcpts\\sym0.bmp'
S'C:\\Users\\Jbarrett\\Charlie\\charlie\\stimuli\\visual\\ipcpts\\sym9.bmp'
g21
I0
tp106
a(g17
g18
g31
I75
I2
g20
S'C:\\Users\\Jbarrett\\Charlie\\charlie\\stimuli\\visual\\ipcpts\\sym8.bmp'
S'C:\\Users\\Jbarrett\\Charlie\\charlie\\stimuli\\visual\\ipcpts\\sym1.bmp'
S'C:\\Users\\Jbarrett\\Charlie\\charlie\\stimuli\\visual\\ipcpts\\sym9.bmp'
g26
I553
tp107
a(g17
g18
g31
I76
I1
g20
S'C:\\Users\\Jbarrett\\Charlie\\charlie\\stimuli\\visual\\ipcpts\\sym9.bmp'
S'C:\\Users\\Jbarrett\\Charlie\\charlie\\stimuli\\visual\\ipcpts\\sym1.bmp'
S'C:\\Users\\Jbarrett\\Charlie\\charlie\\stimuli\\visual\\ipcpts\\sym6.bmp'
g21
I0
tp108
a(g17
g18
g31
I77
I0
g20
S'C:\\Users\\Jbarrett\\Charlie\\charlie\\stimuli\\visual\\ipcpts\\sym7.bmp'
S'C:\\Users\\Jbarrett\\Charlie\\charlie\\stimuli\\visual\\ipcpts\\sym3.bmp'
S'C:\\Users\\Jbarrett\\Charlie\\charlie\\stimuli\\visual\\ipcpts\\sym0.bmp'
g21
I0
tp109
a(g17
g18
g31
I78
I2
g20
S'C:\\Users\\Jbarrett\\Charlie\\charlie\\stimuli\\visual\\ipcpts\\sym7.bmp'
S'C:\\Users\\Jbarrett\\Charlie\\charlie\\stimuli\\visual\\ipcpts\\sym3.bmp'
S'C:\\Users\\Jbarrett\\Charlie\\charlie\\stimuli\\visual\\ipcpts\\sym1.bmp'
g21
I0
tp110
a(g17
g18
g31
I79
I1
g20
S'C:\\Users\\Jbarrett\\Charlie\\charlie\\stimuli\\visual\\ipcpts\\sym0.bmp'
S'C:\\Users\\Jbarrett\\Charlie\\charlie\\stimuli\\visual\\ipcpts\\sym4.bmp'
S'C:\\Users\\Jbarrett\\Charlie\\charlie\\stimuli\\visual\\ipcpts\\sym1.bmp'
g21
I0
tp111
a(g17
g18
g31
I80
I0
g20
S'C:\\Users\\Jbarrett\\Charlie\\charlie\\stimuli\\visual\\ipcpts\\sym3.bmp'
S'C:\\Users\\Jbarrett\\Charlie\\charlie\\stimuli\\visual\\ipcpts\\sym2.bmp'
S'C:\\Users\\Jbarrett\\Charlie\\charlie\\stimuli\\visual\\ipcpts\\sym6.bmp'
g21
I0
tp112
a(g17
g18
g31
I81
I3
g25
S'C:\\Users\\Jbarrett\\Charlie\\charlie\\stimuli\\visual\\ipcpts\\sym3.bmp'
S'C:\\Users\\Jbarrett\\Charlie\\charlie\\stimuli\\visual\\ipcpts\\sym2.bmp'
S'C:\\Users\\Jbarrett\\Charlie\\charlie\\stimuli\\visual\\ipcpts\\sym6.bmp'
g26
I576
tp113
a(g17
g18
g31
I82
I0
g20
S'C:\\Users\\Jbarrett\\Charlie\\charlie\\stimuli\\visual\\ipcpts\\sym6.bmp'
S'C:\\Users\\Jbarrett\\Charlie\\charlie\\stimuli\\visual\\ipcpts\\sym0.bmp'
S'C:\\Users\\Jbarrett\\Charlie\\charlie\\stimuli\\visual\\ipcpts\\sym7.bmp'
g21
I0
tp114
a(g17
g18
g31
I83
I3
g25
S'C:\\Users\\Jbarrett\\Charlie\\charlie\\stimuli\\visual\\ipcpts\\sym6.bmp'
S'C:\\Users\\Jbarrett\\Charlie\\charlie\\stimuli\\visual\\ipcpts\\sym0.bmp'
S'C:\\Users\\Jbarrett\\Charlie\\charlie\\stimuli\\visual\\ipcpts\\sym7.bmp'
g26
I552
tp115
a(g17
g18
g31
I84
I3
g25
S'C:\\Users\\Jbarrett\\Charlie\\charlie\\stimuli\\visual\\ipcpts\\sym6.bmp'
S'C:\\Users\\Jbarrett\\Charlie\\charlie\\stimuli\\visual\\ipcpts\\sym0.bmp'
S'C:\\Users\\Jbarrett\\Charlie\\charlie\\stimuli\\visual\\ipcpts\\sym7.bmp'
g26
I725
tp116
a(g17
g18
g31
I85
I3
g25
S'C:\\Users\\Jbarrett\\Charlie\\charlie\\stimuli\\visual\\ipcpts\\sym6.bmp'
S'C:\\Users\\Jbarrett\\Charlie\\charlie\\stimuli\\visual\\ipcpts\\sym0.bmp'
S'C:\\Users\\Jbarrett\\Charlie\\charlie\\stimuli\\visual\\ipcpts\\sym7.bmp'
g26
I745
tp117
a(g17
g18
g31
I86
I1
g20
S'C:\\Users\\Jbarrett\\Charlie\\charlie\\stimuli\\visual\\ipcpts\\sym1.bmp'
S'C:\\Users\\Jbarrett\\Charlie\\charlie\\stimuli\\visual\\ipcpts\\sym6.bmp'
S'C:\\Users\\Jbarrett\\Charlie\\charlie\\stimuli\\visual\\ipcpts\\sym7.bmp'
g21
I0
tp118
a(g17
g18
g31
I87
I0
g20
S'C:\\Users\\Jbarrett\\Charlie\\charlie\\stimuli\\visual\\ipcpts\\sym9.bmp'
S'C:\\Users\\Jbarrett\\Charlie\\charlie\\stimuli\\visual\\ipcpts\\sym1.bmp'
S'C:\\Users\\Jbarrett\\Charlie\\charlie\\stimuli\\visual\\ipcpts\\sym3.bmp'
g21
I0
tp119
a(g17
g18
g31
I88
I3
g25
S'C:\\Users\\Jbarrett\\Charlie\\charlie\\stimuli\\visual\\ipcpts\\sym9.bmp'
S'C:\\Users\\Jbarrett\\Charlie\\charlie\\stimuli\\visual\\ipcpts\\sym1.bmp'
S'C:\\Users\\Jbarrett\\Charlie\\charlie\\stimuli\\visual\\ipcpts\\sym3.bmp'
g26
I645
tp120
a(g17
g18
g31
I89
I0
g20
S'C:\\Users\\Jbarrett\\Charlie\\charlie\\stimuli\\visual\\ipcpts\\sym0.bmp'
S'C:\\Users\\Jbarrett\\Charlie\\charlie\\stimuli\\visual\\ipcpts\\sym4.bmp'
S'C:\\Users\\Jbarrett\\Charlie\\charlie\\stimuli\\visual\\ipcpts\\sym8.bmp'
g21
I0
tp121
a(g17
g18
g31
I90
I0
g20
S'C:\\Users\\Jbarrett\\Charlie\\charlie\\stimuli\\visual\\ipcpts\\sym1.bmp'
S'C:\\Users\\Jbarrett\\Charlie\\charlie\\stimuli\\visual\\ipcpts\\sym0.bmp'
S'C:\\Users\\Jbarrett\\Charlie\\charlie\\stimuli\\visual\\ipcpts\\sym3.bmp'
g21
I0
tp122
a(g17
g18
g31
I91
I0
g20
S'C:\\Users\\Jbarrett\\Charlie\\charlie\\stimuli\\visual\\ipcpts\\sym5.bmp'
S'C:\\Users\\Jbarrett\\Charlie\\charlie\\stimuli\\visual\\ipcpts\\sym9.bmp'
S'C:\\Users\\Jbarrett\\Charlie\\charlie\\stimuli\\visual\\ipcpts\\sym6.bmp'
g26
I768
tp123
a(g17
g18
g31
I92
I3
g25
S'C:\\Users\\Jbarrett\\Charlie\\charlie\\stimuli\\visual\\ipcpts\\sym5.bmp'
S'C:\\Users\\Jbarrett\\Charlie\\charlie\\stimuli\\visual\\ipcpts\\sym9.bmp'
S'C:\\Users\\Jbarrett\\Charlie\\charlie\\stimuli\\visual\\ipcpts\\sym6.bmp'
g26
I588
tp124
a(g17
g18
g31
I93
I3
g25
S'C:\\Users\\Jbarrett\\Charlie\\charlie\\stimuli\\visual\\ipcpts\\sym5.bmp'
S'C:\\Users\\Jbarrett\\Charlie\\charlie\\stimuli\\visual\\ipcpts\\sym9.bmp'
S'C:\\Users\\Jbarrett\\Charlie\\charlie\\stimuli\\visual\\ipcpts\\sym6.bmp'
g26
I480
tp125
a(g17
g18
g31
I94
I0
g20
S'C:\\Users\\Jbarrett\\Charlie\\charlie\\stimuli\\visual\\ipcpts\\sym6.bmp'
S'C:\\Users\\Jbarrett\\Charlie\\charlie\\stimuli\\visual\\ipcpts\\sym7.bmp'
S'C:\\Users\\Jbarrett\\Charlie\\charlie\\stimuli\\visual\\ipcpts\\sym3.bmp'
g26
I524
tp126
a(g17
g18
g31
I95
I3
g25
S'C:\\Users\\Jbarrett\\Charlie\\charlie\\stimuli\\visual\\ipcpts\\sym6.bmp'
S'C:\\Users\\Jbarrett\\Charlie\\charlie\\stimuli\\visual\\ipcpts\\sym7.bmp'
S'C:\\Users\\Jbarrett\\Charlie\\charlie\\stimuli\\visual\\ipcpts\\sym3.bmp'
g26
I544
tp127
a(g17
g18
g31
I96
I0
g20
S'C:\\Users\\Jbarrett\\Charlie\\charlie\\stimuli\\visual\\ipcpts\\sym4.bmp'
S'C:\\Users\\Jbarrett\\Charlie\\charlie\\stimuli\\visual\\ipcpts\\sym9.bmp'
S'C:\\Users\\Jbarrett\\Charlie\\charlie\\stimuli\\visual\\ipcpts\\sym0.bmp'
g21
I0
tp128
a(g17
g18
g31
I97
I1
g20
S'C:\\Users\\Jbarrett\\Charlie\\charlie\\stimuli\\visual\\ipcpts\\sym5.bmp'
S'C:\\Users\\Jbarrett\\Charlie\\charlie\\stimuli\\visual\\ipcpts\\sym3.bmp'
S'C:\\Users\\Jbarrett\\Charlie\\charlie\\stimuli\\visual\\ipcpts\\sym0.bmp'
g21
I0
tp129
a(g17
g18
g31
I98
I2
g20
S'C:\\Users\\Jbarrett\\Charlie\\charlie\\stimuli\\visual\\ipcpts\\sym8.bmp'
S'C:\\Users\\Jbarrett\\Charlie\\charlie\\stimuli\\visual\\ipcpts\\sym3.bmp'
S'C:\\Users\\Jbarrett\\Charlie\\charlie\\stimuli\\visual\\ipcpts\\sym0.bmp'
g21
I0
tp130
a(g17
g18
g31
I99
I0
g20
S'C:\\Users\\Jbarrett\\Charlie\\charlie\\stimuli\\visual\\ipcpts\\sym7.bmp'
S'C:\\Users\\Jbarrett\\Charlie\\charlie\\stimuli\\visual\\ipcpts\\sym9.bmp'
S'C:\\Users\\Jbarrett\\Charlie\\charlie\\stimuli\\visual\\ipcpts\\sym2.bmp'
g21
I0
tp131
a(g17
g18
g31
I100
I2
g20
S'C:\\Users\\Jbarrett\\Charlie\\charlie\\stimuli\\visual\\ipcpts\\sym7.bmp'
S'C:\\Users\\Jbarrett\\Charlie\\charlie\\stimuli\\visual\\ipcpts\\sym3.bmp'
S'C:\\Users\\Jbarrett\\Charlie\\charlie\\stimuli\\visual\\ipcpts\\sym2.bmp'
g21
I0
tp132
a(g17
g18
g31
I101
I1
g20
S'C:\\Users\\Jbarrett\\Charlie\\charlie\\stimuli\\visual\\ipcpts\\sym7.bmp'
S'C:\\Users\\Jbarrett\\Charlie\\charlie\\stimuli\\visual\\ipcpts\\sym4.bmp'
S'C:\\Users\\Jbarrett\\Charlie\\charlie\\stimuli\\visual\\ipcpts\\sym1.bmp'
g21
I0
tp133
a(g17
g18
g31
I102
I0
g20
S'C:\\Users\\Jbarrett\\Charlie\\charlie\\stimuli\\visual\\ipcpts\\sym8.bmp'
S'C:\\Users\\Jbarrett\\Charlie\\charlie\\stimuli\\visual\\ipcpts\\sym0.bmp'
S'C:\\Users\\Jbarrett\\Charlie\\charlie\\stimuli\\visual\\ipcpts\\sym7.bmp'
g21
I0
tp134
a(g17
g18
g31
I103
I3
g25
S'C:\\Users\\Jbarrett\\Charlie\\charlie\\stimuli\\visual\\ipcpts\\sym8.bmp'
S'C:\\Users\\Jbarrett\\Charlie\\charlie\\stimuli\\visual\\ipcpts\\sym0.bmp'
S'C:\\Users\\Jbarrett\\Charlie\\charlie\\stimuli\\visual\\ipcpts\\sym7.bmp'
g26
I768
tp135
a(g17
g18
g31
I104
I2
g20
S'C:\\Users\\Jbarrett\\Charlie\\charlie\\stimuli\\visual\\ipcpts\\sym8.bmp'
S'C:\\Users\\Jbarrett\\Charlie\\charlie\\stimuli\\visual\\ipcpts\\sym0.bmp'
S'C:\\Users\\Jbarrett\\Charlie\\charlie\\stimuli\\visual\\ipcpts\\sym1.bmp'
g26
I612
tp136
a(g17
g18
g31
I105
I1
g20
S'C:\\Users\\Jbarrett\\Charlie\\charlie\\stimuli\\visual\\ipcpts\\sym8.bmp'
S'C:\\Users\\Jbarrett\\Charlie\\charlie\\stimuli\\visual\\ipcpts\\sym4.bmp'
S'C:\\Users\\Jbarrett\\Charlie\\charlie\\stimuli\\visual\\ipcpts\\sym7.bmp'
g21
I0
tp137
a(g17
g18
g31
I106
I0
g20
S'C:\\Users\\Jbarrett\\Charlie\\charlie\\stimuli\\visual\\ipcpts\\sym1.bmp'
S'C:\\Users\\Jbarrett\\Charlie\\charlie\\stimuli\\visual\\ipcpts\\sym3.bmp'
S'C:\\Users\\Jbarrett\\Charlie\\charlie\\stimuli\\visual\\ipcpts\\sym6.bmp'
g21
I0
tp138
a(g17
g18
g31
I107
I3
g25
S'C:\\Users\\Jbarrett\\Charlie\\charlie\\stimuli\\visual\\ipcpts\\sym1.bmp'
S'C:\\Users\\Jbarrett\\Charlie\\charlie\\stimuli\\visual\\ipcpts\\sym3.bmp'
S'C:\\Users\\Jbarrett\\Charlie\\charlie\\stimuli\\visual\\ipcpts\\sym6.bmp'
g26
I561
tp139
a(g17
g18
g31
I108
I0
g20
S'C:\\Users\\Jbarrett\\Charlie\\charlie\\stimuli\\visual\\ipcpts\\sym5.bmp'
S'C:\\Users\\Jbarrett\\Charlie\\charlie\\stimuli\\visual\\ipcpts\\sym1.bmp'
S'C:\\Users\\Jbarrett\\Charlie\\charlie\\stimuli\\visual\\ipcpts\\sym0.bmp'
g21
I0
tp140
a(g17
g18
g31
I109
I1
g20
S'C:\\Users\\Jbarrett\\Charlie\\charlie\\stimuli\\visual\\ipcpts\\sym8.bmp'
S'C:\\Users\\Jbarrett\\Charlie\\charlie\\stimuli\\visual\\ipcpts\\sym1.bmp'
S'C:\\Users\\Jbarrett\\Charlie\\charlie\\stimuli\\visual\\ipcpts\\sym2.bmp'
g21
I0
tp141
a(g17
g18
g31
I110
I0
g20
S'C:\\Users\\Jbarrett\\Charlie\\charlie\\stimuli\\visual\\ipcpts\\sym0.bmp'
S'C:\\Users\\Jbarrett\\Charlie\\charlie\\stimuli\\visual\\ipcpts\\sym4.bmp'
S'C:\\Users\\Jbarrett\\Charlie\\charlie\\stimuli\\visual\\ipcpts\\sym5.bmp'
g21
I0
tp142
a(g17
g18
g31
I111
I0
g20
S'C:\\Users\\Jbarrett\\Charlie\\charlie\\stimuli\\visual\\ipcpts\\sym4.bmp'
S'C:\\Users\\Jbarrett\\Charlie\\charlie\\stimuli\\visual\\ipcpts\\sym5.bmp'
S'C:\\Users\\Jbarrett\\Charlie\\charlie\\stimuli\\visual\\ipcpts\\sym7.bmp'
g21
I0
tp143
a(g17
g18
g31
I112
I3
g25
S'C:\\Users\\Jbarrett\\Charlie\\charlie\\stimuli\\visual\\ipcpts\\sym4.bmp'
S'C:\\Users\\Jbarrett\\Charlie\\charlie\\stimuli\\visual\\ipcpts\\sym5.bmp'
S'C:\\Users\\Jbarrett\\Charlie\\charlie\\stimuli\\visual\\ipcpts\\sym7.bmp'
g26
I397
tp144
a(g17
g18
g31
I113
I0
g20
S'C:\\Users\\Jbarrett\\Charlie\\charlie\\stimuli\\visual\\ipcpts\\sym6.bmp'
S'C:\\Users\\Jbarrett\\Charlie\\charlie\\stimuli\\visual\\ipcpts\\sym7.bmp'
S'C:\\Users\\Jbarrett\\Charlie\\charlie\\stimuli\\visual\\ipcpts\\sym0.bmp'
g21
I0
tp145
a(g17
g18
g31
I114
I0
g20
S'C:\\Users\\Jbarrett\\Charlie\\charlie\\stimuli\\visual\\ipcpts\\sym5.bmp'
S'C:\\Users\\Jbarrett\\Charlie\\charlie\\stimuli\\visual\\ipcpts\\sym2.bmp'
S'C:\\Users\\Jbarrett\\Charlie\\charlie\\stimuli\\visual\\ipcpts\\sym1.bmp'
g21
I0
tp146
a(g17
g18
g31
I115
I3
g25
S'C:\\Users\\Jbarrett\\Charlie\\charlie\\stimuli\\visual\\ipcpts\\sym5.bmp'
S'C:\\Users\\Jbarrett\\Charlie\\charlie\\stimuli\\visual\\ipcpts\\sym2.bmp'
S'C:\\Users\\Jbarrett\\Charlie\\charlie\\stimuli\\visual\\ipcpts\\sym1.bmp'
g26
I456
tp147
a(g17
g18
g31
I116
I3
g25
S'C:\\Users\\Jbarrett\\Charlie\\charlie\\stimuli\\visual\\ipcpts\\sym5.bmp'
S'C:\\Users\\Jbarrett\\Charlie\\charlie\\stimuli\\visual\\ipcpts\\sym2.bmp'
S'C:\\Users\\Jbarrett\\Charlie\\charlie\\stimuli\\visual\\ipcpts\\sym1.bmp'
g26
I588
tp148
a(g17
g18
g31
I117
I0
g20
S'C:\\Users\\Jbarrett\\Charlie\\charlie\\stimuli\\visual\\ipcpts\\sym7.bmp'
S'C:\\Users\\Jbarrett\\Charlie\\charlie\\stimuli\\visual\\ipcpts\\sym4.bmp'
S'C:\\Users\\Jbarrett\\Charlie\\charlie\\stimuli\\visual\\ipcpts\\sym5.bmp'
g21
I0
tp149
a(g17
g18
g31
I118
I0
g20
S'C:\\Users\\Jbarrett\\Charlie\\charlie\\stimuli\\visual\\ipcpts\\sym9.bmp'
S'C:\\Users\\Jbarrett\\Charlie\\charlie\\stimuli\\visual\\ipcpts\\sym8.bmp'
S'C:\\Users\\Jbarrett\\Charlie\\charlie\\stimuli\\visual\\ipcpts\\sym0.bmp'
g21
I0
tp150
a(g17
g18
g31
I119
I2
g20
S'C:\\Users\\Jbarrett\\Charlie\\charlie\\stimuli\\visual\\ipcpts\\sym9.bmp'
S'C:\\Users\\Jbarrett\\Charlie\\charlie\\stimuli\\visual\\ipcpts\\sym8.bmp'
S'C:\\Users\\Jbarrett\\Charlie\\charlie\\stimuli\\visual\\ipcpts\\sym6.bmp'
g21
I0
tp151
a(g17
g18
g31
I120
I0
g20
S'C:\\Users\\Jbarrett\\Charlie\\charlie\\stimuli\\visual\\ipcpts\\sym6.bmp'
S'C:\\Users\\Jbarrett\\Charlie\\charlie\\stimuli\\visual\\ipcpts\\sym3.bmp'
S'C:\\Users\\Jbarrett\\Charlie\\charlie\\stimuli\\visual\\ipcpts\\sym2.bmp'
g26
I645
tp152
a(g17
g18
g31
I121
I3
g25
S'C:\\Users\\Jbarrett\\Charlie\\charlie\\stimuli\\visual\\ipcpts\\sym6.bmp'
S'C:\\Users\\Jbarrett\\Charlie\\charlie\\stimuli\\visual\\ipcpts\\sym3.bmp'
S'C:\\Users\\Jbarrett\\Charlie\\charlie\\stimuli\\visual\\ipcpts\\sym2.bmp'
g26
I569
tp153
a(g17
g18
g31
I122
I0
g20
S'C:\\Users\\Jbarrett\\Charlie\\charlie\\stimuli\\visual\\ipcpts\\sym4.bmp'
S'C:\\Users\\Jbarrett\\Charlie\\charlie\\stimuli\\visual\\ipcpts\\sym5.bmp'
S'C:\\Users\\Jbarrett\\Charlie\\charlie\\stimuli\\visual\\ipcpts\\sym7.bmp'
g21
I0
tp154
a(g17
g18
g31
I123
I1
g20
S'C:\\Users\\Jbarrett\\Charlie\\charlie\\stimuli\\visual\\ipcpts\\sym7.bmp'
S'C:\\Users\\Jbarrett\\Charlie\\charlie\\stimuli\\visual\\ipcpts\\sym5.bmp'
S'C:\\Users\\Jbarrett\\Charlie\\charlie\\stimuli\\visual\\ipcpts\\sym0.bmp'
g21
I0
tp155
a(g17
g18
g31
I124
I3
g25
S'C:\\Users\\Jbarrett\\Charlie\\charlie\\stimuli\\visual\\ipcpts\\sym7.bmp'
S'C:\\Users\\Jbarrett\\Charlie\\charlie\\stimuli\\visual\\ipcpts\\sym5.bmp'
S'C:\\Users\\Jbarrett\\Charlie\\charlie\\stimuli\\visual\\ipcpts\\sym0.bmp'
g21
I0
tp156
a(g17
g18
g31
I125
I3
g25
S'C:\\Users\\Jbarrett\\Charlie\\charlie\\stimuli\\visual\\ipcpts\\sym7.bmp'
S'C:\\Users\\Jbarrett\\Charlie\\charlie\\stimuli\\visual\\ipcpts\\sym5.bmp'
S'C:\\Users\\Jbarrett\\Charlie\\charlie\\stimuli\\visual\\ipcpts\\sym0.bmp'
g26
I672
tp157
a(g17
g18
g31
I126
I3
g25
S'C:\\Users\\Jbarrett\\Charlie\\charlie\\stimuli\\visual\\ipcpts\\sym7.bmp'
S'C:\\Users\\Jbarrett\\Charlie\\charlie\\stimuli\\visual\\ipcpts\\sym5.bmp'
S'C:\\Users\\Jbarrett\\Charlie\\charlie\\stimuli\\visual\\ipcpts\\sym0.bmp'
g26
I604
tp158
a(g17
g18
g31
I127
I3
g25
S'C:\\Users\\Jbarrett\\Charlie\\charlie\\stimuli\\visual\\ipcpts\\sym7.bmp'
S'C:\\Users\\Jbarrett\\Charlie\\charlie\\stimuli\\visual\\ipcpts\\sym5.bmp'
S'C:\\Users\\Jbarrett\\Charlie\\charlie\\stimuli\\visual\\ipcpts\\sym0.bmp'
g26
I664
tp159
a(g17
g18
g31
I128
I3
g25
S'C:\\Users\\Jbarrett\\Charlie\\charlie\\stimuli\\visual\\ipcpts\\sym7.bmp'
S'C:\\Users\\Jbarrett\\Charlie\\charlie\\stimuli\\visual\\ipcpts\\sym5.bmp'
S'C:\\Users\\Jbarrett\\Charlie\\charlie\\stimuli\\visual\\ipcpts\\sym0.bmp'
g21
I0
tp160
a(g17
g18
g31
I129
I2
g20
S'C:\\Users\\Jbarrett\\Charlie\\charlie\\stimuli\\visual\\ipcpts\\sym7.bmp'
S'C:\\Users\\Jbarrett\\Charlie\\charlie\\stimuli\\visual\\ipcpts\\sym1.bmp'
S'C:\\Users\\Jbarrett\\Charlie\\charlie\\stimuli\\visual\\ipcpts\\sym0.bmp'
g21
I0
tp161
a(g17
g18
g31
I130
I3
g25
S'C:\\Users\\Jbarrett\\Charlie\\charlie\\stimuli\\visual\\ipcpts\\sym7.bmp'
S'C:\\Users\\Jbarrett\\Charlie\\charlie\\stimuli\\visual\\ipcpts\\sym1.bmp'
S'C:\\Users\\Jbarrett\\Charlie\\charlie\\stimuli\\visual\\ipcpts\\sym0.bmp'
g21
I0
tp162
a(g17
g18
g31
I131
I0
g20
S'C:\\Users\\Jbarrett\\Charlie\\charlie\\stimuli\\visual\\ipcpts\\sym4.bmp'
S'C:\\Users\\Jbarrett\\Charlie\\charlie\\stimuli\\visual\\ipcpts\\sym9.bmp'
S'C:\\Users\\Jbarrett\\Charlie\\charlie\\stimuli\\visual\\ipcpts\\sym5.bmp'
g21
I0
tp163
a(g17
g18
g31
I132
I0
g20
S'C:\\Users\\Jbarrett\\Charlie\\charlie\\stimuli\\visual\\ipcpts\\sym5.bmp'
S'C:\\Users\\Jbarrett\\Charlie\\charlie\\stimuli\\visual\\ipcpts\\sym0.bmp'
S'C:\\Users\\Jbarrett\\Charlie\\charlie\\stimuli\\visual\\ipcpts\\sym7.bmp'
g21
I0
tp164
a(g17
g18
g31
I133
I1
g20
S'C:\\Users\\Jbarrett\\Charlie\\charlie\\stimuli\\visual\\ipcpts\\sym5.bmp'
S'C:\\Users\\Jbarrett\\Charlie\\charlie\\stimuli\\visual\\ipcpts\\sym7.bmp'
S'C:\\Users\\Jbarrett\\Charlie\\charlie\\stimuli\\visual\\ipcpts\\sym0.bmp'
g26
I937
tp165
a(g17
g18
g31
I134
I0
g20
S'C:\\Users\\Jbarrett\\Charlie\\charlie\\stimuli\\visual\\ipcpts\\sym1.bmp'
S'C:\\Users\\Jbarrett\\Charlie\\charlie\\stimuli\\visual\\ipcpts\\sym3.bmp'
S'C:\\Users\\Jbarrett\\Charlie\\charlie\\stimuli\\visual\\ipcpts\\sym6.bmp'
g21
I0
tp166
a(g17
g18
g31
I135
I3
g25
S'C:\\Users\\Jbarrett\\Charlie\\charlie\\stimuli\\visual\\ipcpts\\sym1.bmp'
S'C:\\Users\\Jbarrett\\Charlie\\charlie\\stimuli\\visual\\ipcpts\\sym3.bmp'
S'C:\\Users\\Jbarrett\\Charlie\\charlie\\stimuli\\visual\\ipcpts\\sym6.bmp'
g26
I617
tp167
a(g17
g18
g31
I136
I0
g20
S'C:\\Users\\Jbarrett\\Charlie\\charlie\\stimuli\\visual\\ipcpts\\sym7.bmp'
S'C:\\Users\\Jbarrett\\Charlie\\charlie\\stimuli\\visual\\ipcpts\\sym4.bmp'
S'C:\\Users\\Jbarrett\\Charlie\\charlie\\stimuli\\visual\\ipcpts\\sym8.bmp'
g21
I0
tp168
a(g17
g18
g31
I137
I0
g20
S'C:\\Users\\Jbarrett\\Charlie\\charlie\\stimuli\\visual\\ipcpts\\sym8.bmp'
S'C:\\Users\\Jbarrett\\Charlie\\charlie\\stimuli\\visual\\ipcpts\\sym0.bmp'
S'C:\\Users\\Jbarrett\\Charlie\\charlie\\stimuli\\visual\\ipcpts\\sym5.bmp'
g21
I0
tp169
a(g17
g18
g31
I138
I3
g25
S'C:\\Users\\Jbarrett\\Charlie\\charlie\\stimuli\\visual\\ipcpts\\sym8.bmp'
S'C:\\Users\\Jbarrett\\Charlie\\charlie\\stimuli\\visual\\ipcpts\\sym0.bmp'
S'C:\\Users\\Jbarrett\\Charlie\\charlie\\stimuli\\visual\\ipcpts\\sym5.bmp'
g26
I556
tp170
a(g17
g18
g31
I139
I0
g20
S'C:\\Users\\Jbarrett\\Charlie\\charlie\\stimuli\\visual\\ipcpts\\sym4.bmp'
S'C:\\Users\\Jbarrett\\Charlie\\charlie\\stimuli\\visual\\ipcpts\\sym1.bmp'
S'C:\\Users\\Jbarrett\\Charlie\\charlie\\stimuli\\visual\\ipcpts\\sym6.bmp'
g21
I0
tp171
a(g17
g18
g31
I140
I0
g20
S'C:\\Users\\Jbarrett\\Charlie\\charlie\\stimuli\\visual\\ipcpts\\sym9.bmp'
S'C:\\Users\\Jbarrett\\Charlie\\charlie\\stimuli\\visual\\ipcpts\\sym8.bmp'
S'C:\\Users\\Jbarrett\\Charlie\\charlie\\stimuli\\visual\\ipcpts\\sym4.bmp'
g21
I0
tp172
a(g17
g18
g31
I141
I1
g20
S'C:\\Users\\Jbarrett\\Charlie\\charlie\\stimuli\\visual\\ipcpts\\sym1.bmp'
S'C:\\Users\\Jbarrett\\Charlie\\charlie\\stimuli\\visual\\ipcpts\\sym8.bmp'
S'C:\\Users\\Jbarrett\\Charlie\\charlie\\stimuli\\visual\\ipcpts\\sym0.bmp'
g21
I0
tp173
a(g17
g18
g31
I142
I2
g20
S'C:\\Users\\Jbarrett\\Charlie\\charlie\\stimuli\\visual\\ipcpts\\sym3.bmp'
S'C:\\Users\\Jbarrett\\Charlie\\charlie\\stimuli\\visual\\ipcpts\\sym8.bmp'
S'C:\\Users\\Jbarrett\\Charlie\\charlie\\stimuli\\visual\\ipcpts\\sym0.bmp'
g26
I637
tp174
a(g17
g18
g31
I143
I0
g20
S'C:\\Users\\Jbarrett\\Charlie\\charlie\\stimuli\\visual\\ipcpts\\sym2.bmp'
S'C:\\Users\\Jbarrett\\Charlie\\charlie\\stimuli\\visual\\ipcpts\\sym6.bmp'
S'C:\\Users\\Jbarrett\\Charlie\\charlie\\stimuli\\visual\\ipcpts\\sym7.bmp'
g21
I0
tp175
a(g17
g18
g31
I144
I3
g25
S'C:\\Users\\Jbarrett\\Charlie\\charlie\\stimuli\\visual\\ipcpts\\sym2.bmp'
S'C:\\Users\\Jbarrett\\Charlie\\charlie\\stimuli\\visual\\ipcpts\\sym6.bmp'
S'C:\\Users\\Jbarrett\\Charlie\\charlie\\stimuli\\visual\\ipcpts\\sym7.bmp'
g26
I885
tp176
a(g17
g18
g31
I145
I0
g20
S'C:\\Users\\Jbarrett\\Charlie\\charlie\\stimuli\\visual\\ipcpts\\sym5.bmp'
S'C:\\Users\\Jbarrett\\Charlie\\charlie\\stimuli\\visual\\ipcpts\\sym0.bmp'
S'C:\\Users\\Jbarrett\\Charlie\\charlie\\stimuli\\visual\\ipcpts\\sym9.bmp'
g21
I0
tp177
a(g17
g18
g31
I146
I1
g20
S'C:\\Users\\Jbarrett\\Charlie\\charlie\\stimuli\\visual\\ipcpts\\sym5.bmp'
S'C:\\Users\\Jbarrett\\Charlie\\charlie\\stimuli\\visual\\ipcpts\\sym8.bmp'
S'C:\\Users\\Jbarrett\\Charlie\\charlie\\stimuli\\visual\\ipcpts\\sym4.bmp'
g21
I0
tp178
a(g17
g18
g31
I147
I3
g25
S'C:\\Users\\Jbarrett\\Charlie\\charlie\\stimuli\\visual\\ipcpts\\sym5.bmp'
S'C:\\Users\\Jbarrett\\Charlie\\charlie\\stimuli\\visual\\ipcpts\\sym8.bmp'
S'C:\\Users\\Jbarrett\\Charlie\\charlie\\stimuli\\visual\\ipcpts\\sym4.bmp'
g21
I0
tp179
a(g17
g18
g31
I148
I0
g20
S'C:\\Users\\Jbarrett\\Charlie\\charlie\\stimuli\\visual\\ipcpts\\sym6.bmp'
S'C:\\Users\\Jbarrett\\Charlie\\charlie\\stimuli\\visual\\ipcpts\\sym2.bmp'
S'C:\\Users\\Jbarrett\\Charlie\\charlie\\stimuli\\visual\\ipcpts\\sym1.bmp'
g21
I0
tp180
a(g17
g18
g31
I149
I0
g20
S'C:\\Users\\Jbarrett\\Charlie\\charlie\\stimuli\\visual\\ipcpts\\sym2.bmp'
S'C:\\Users\\Jbarrett\\Charlie\\charlie\\stimuli\\visual\\ipcpts\\sym1.bmp'
S'C:\\Users\\Jbarrett\\Charlie\\charlie\\stimuli\\visual\\ipcpts\\sym6.bmp'
g21
I0
tp181
a(g17
g18
g31
I150
I2
g20
S'C:\\Users\\Jbarrett\\Charlie\\charlie\\stimuli\\visual\\ipcpts\\sym3.bmp'
S'C:\\Users\\Jbarrett\\Charlie\\charlie\\stimuli\\visual\\ipcpts\\sym1.bmp'
S'C:\\Users\\Jbarrett\\Charlie\\charlie\\stimuli\\visual\\ipcpts\\sym6.bmp'
g21
I0
tp182
a(g17
g18
g31
I151
I3
g25
S'C:\\Users\\Jbarrett\\Charlie\\charlie\\stimuli\\visual\\ipcpts\\sym3.bmp'
S'C:\\Users\\Jbarrett\\Charlie\\charlie\\stimuli\\visual\\ipcpts\\sym1.bmp'
S'C:\\Users\\Jbarrett\\Charlie\\charlie\\stimuli\\visual\\ipcpts\\sym6.bmp'
g26
I448
tp183
a(g17
g18
g31
I152
I1
g20
S'C:\\Users\\Jbarrett\\Charlie\\charlie\\stimuli\\visual\\ipcpts\\sym0.bmp'
S'C:\\Users\\Jbarrett\\Charlie\\charlie\\stimuli\\visual\\ipcpts\\sym1.bmp'
S'C:\\Users\\Jbarrett\\Charlie\\charlie\\stimuli\\visual\\ipcpts\\sym7.bmp'
g21
I0
tp184
a(g17
g18
g31
I153
I0
g20
S'C:\\Users\\Jbarrett\\Charlie\\charlie\\stimuli\\visual\\ipcpts\\sym5.bmp'
S'C:\\Users\\Jbarrett\\Charlie\\charlie\\stimuli\\visual\\ipcpts\\sym6.bmp'
S'C:\\Users\\Jbarrett\\Charlie\\charlie\\stimuli\\visual\\ipcpts\\sym9.bmp'
g21
I0
tp185
a(g17
g18
g31
I154
I3
g25
S'C:\\Users\\Jbarrett\\Charlie\\charlie\\stimuli\\visual\\ipcpts\\sym5.bmp'
S'C:\\Users\\Jbarrett\\Charlie\\charlie\\stimuli\\visual\\ipcpts\\sym6.bmp'
S'C:\\Users\\Jbarrett\\Charlie\\charlie\\stimuli\\visual\\ipcpts\\sym9.bmp'
g26
I1325
tp186
a(g17
g18
g31
I155
I3
g25
S'C:\\Users\\Jbarrett\\Charlie\\charlie\\stimuli\\visual\\ipcpts\\sym5.bmp'
S'C:\\Users\\Jbarrett\\Charlie\\charlie\\stimuli\\visual\\ipcpts\\sym6.bmp'
S'C:\\Users\\Jbarrett\\Charlie\\charlie\\stimuli\\visual\\ipcpts\\sym9.bmp'
g26
I641
tp187
a(g17
g18
g31
I156
I0
g20
S'C:\\Users\\Jbarrett\\Charlie\\charlie\\stimuli\\visual\\ipcpts\\sym7.bmp'
S'C:\\Users\\Jbarrett\\Charlie\\charlie\\stimuli\\visual\\ipcpts\\sym0.bmp'
S'C:\\Users\\Jbarrett\\Charlie\\charlie\\stimuli\\visual\\ipcpts\\sym8.bmp'
g21
I0
tp188
a(g17
g18
g31
I157
I3
g25
S'C:\\Users\\Jbarrett\\Charlie\\charlie\\stimuli\\visual\\ipcpts\\sym7.bmp'
S'C:\\Users\\Jbarrett\\Charlie\\charlie\\stimuli\\visual\\ipcpts\\sym0.bmp'
S'C:\\Users\\Jbarrett\\Charlie\\charlie\\stimuli\\visual\\ipcpts\\sym8.bmp'
g21
I0
tp189
a(g17
g18
g31
I158
I0
g20
S'C:\\Users\\Jbarrett\\Charlie\\charlie\\stimuli\\visual\\ipcpts\\sym5.bmp'
S'C:\\Users\\Jbarrett\\Charlie\\charlie\\stimuli\\visual\\ipcpts\\sym1.bmp'
S'C:\\Users\\Jbarrett\\Charlie\\charlie\\stimuli\\visual\\ipcpts\\sym9.bmp'
g21
I0
tp190
a(g17
g18
g31
I159
I3
g25
S'C:\\Users\\Jbarrett\\Charlie\\charlie\\stimuli\\visual\\ipcpts\\sym5.bmp'
S'C:\\Users\\Jbarrett\\Charlie\\charlie\\stimuli\\visual\\ipcpts\\sym1.bmp'
S'C:\\Users\\Jbarrett\\Charlie\\charlie\\stimuli\\visual\\ipcpts\\sym9.bmp'
g26
I593
tp191
a(g17
g18
g31
I160
I3
g25
S'C:\\Users\\Jbarrett\\Charlie\\charlie\\stimuli\\visual\\ipcpts\\sym5.bmp'
S'C:\\Users\\Jbarrett\\Charlie\\charlie\\stimuli\\visual\\ipcpts\\sym1.bmp'
S'C:\\Users\\Jbarrett\\Charlie\\charlie\\stimuli\\visual\\ipcpts\\sym9.bmp'
g26
I405
tp192
a(g17
g18
g31
I161
I3
g25
S'C:\\Users\\Jbarrett\\Charlie\\charlie\\stimuli\\visual\\ipcpts\\sym5.bmp'
S'C:\\Users\\Jbarrett\\Charlie\\charlie\\stimuli\\visual\\ipcpts\\sym1.bmp'
S'C:\\Users\\Jbarrett\\Charlie\\charlie\\stimuli\\visual\\ipcpts\\sym9.bmp'
g26
I600
tp193
a(g17
g18
g31
I162
I2
g20
S'C:\\Users\\Jbarrett\\Charlie\\charlie\\stimuli\\visual\\ipcpts\\sym0.bmp'
S'C:\\Users\\Jbarrett\\Charlie\\charlie\\stimuli\\visual\\ipcpts\\sym1.bmp'
S'C:\\Users\\Jbarrett\\Charlie\\charlie\\stimuli\\visual\\ipcpts\\sym9.bmp'
g26
I788
tp194
a(g17
g18
g31
I163
I0
g20
S'C:\\Users\\Jbarrett\\Charlie\\charlie\\stimuli\\visual\\ipcpts\\sym8.bmp'
S'C:\\Users\\Jbarrett\\Charlie\\charlie\\stimuli\\visual\\ipcpts\\sym0.bmp'
S'C:\\Users\\Jbarrett\\Charlie\\charlie\\stimuli\\visual\\ipcpts\\sym4.bmp'
g21
I0
tp195
a(g17
g18
g31
I164
I2
g20
S'C:\\Users\\Jbarrett\\Charlie\\charlie\\stimuli\\visual\\ipcpts\\sym8.bmp'
S'C:\\Users\\Jbarrett\\Charlie\\charlie\\stimuli\\visual\\ipcpts\\sym0.bmp'
S'C:\\Users\\Jbarrett\\Charlie\\charlie\\stimuli\\visual\\ipcpts\\sym6.bmp'
g21
I0
tp196
a(g17
g18
g31
I165
I3
g25
S'C:\\Users\\Jbarrett\\Charlie\\charlie\\stimuli\\visual\\ipcpts\\sym8.bmp'
S'C:\\Users\\Jbarrett\\Charlie\\charlie\\stimuli\\visual\\ipcpts\\sym0.bmp'
S'C:\\Users\\Jbarrett\\Charlie\\charlie\\stimuli\\visual\\ipcpts\\sym6.bmp'
g26
I384
tp197
a(g17
g18
g31
I166
I0
g20
S'C:\\Users\\Jbarrett\\Charlie\\charlie\\stimuli\\visual\\ipcpts\\sym6.bmp'
S'C:\\Users\\Jbarrett\\Charlie\\charlie\\stimuli\\visual\\ipcpts\\sym3.bmp'
S'C:\\Users\\Jbarrett\\Charlie\\charlie\\stimuli\\visual\\ipcpts\\sym8.bmp'
g21
I0
tp198
a(g17
g18
g31
I167
I0
g20
S'C:\\Users\\Jbarrett\\Charlie\\charlie\\stimuli\\visual\\ipcpts\\sym8.bmp'
S'C:\\Users\\Jbarrett\\Charlie\\charlie\\stimuli\\visual\\ipcpts\\sym4.bmp'
S'C:\\Users\\Jbarrett\\Charlie\\charlie\\stimuli\\visual\\ipcpts\\sym7.bmp'
g21
I0
tp199
a(g17
g18
g31
I168
I3
g25
S'C:\\Users\\Jbarrett\\Charlie\\charlie\\stimuli\\visual\\ipcpts\\sym8.bmp'
S'C:\\Users\\Jbarrett\\Charlie\\charlie\\stimuli\\visual\\ipcpts\\sym4.bmp'
S'C:\\Users\\Jbarrett\\Charlie\\charlie\\stimuli\\visual\\ipcpts\\sym7.bmp'
g26
I525
tp200
a(g17
g18
g31
I169
I1
g20
S'C:\\Users\\Jbarrett\\Charlie\\charlie\\stimuli\\visual\\ipcpts\\sym7.bmp'
S'C:\\Users\\Jbarrett\\Charlie\\charlie\\stimuli\\visual\\ipcpts\\sym4.bmp'
S'C:\\Users\\Jbarrett\\Charlie\\charlie\\stimuli\\visual\\ipcpts\\sym8.bmp'
g21
I0
tp201
a(g17
g18
g31
I170
I0
g20
S'C:\\Users\\Jbarrett\\Charlie\\charlie\\stimuli\\visual\\ipcpts\\sym6.bmp'
S'C:\\Users\\Jbarrett\\Charlie\\charlie\\stimuli\\visual\\ipcpts\\sym8.bmp'
S'C:\\Users\\Jbarrett\\Charlie\\charlie\\stimuli\\visual\\ipcpts\\sym4.bmp'
g21
I0
tp202
a(g17
g18
g31
I171
I3
g25
S'C:\\Users\\Jbarrett\\Charlie\\charlie\\stimuli\\visual\\ipcpts\\sym6.bmp'
S'C:\\Users\\Jbarrett\\Charlie\\charlie\\stimuli\\visual\\ipcpts\\sym8.bmp'
S'C:\\Users\\Jbarrett\\Charlie\\charlie\\stimuli\\visual\\ipcpts\\sym4.bmp'
g26
I569
tp203
a(g17
g18
g31
I172
I0
g20
S'C:\\Users\\Jbarrett\\Charlie\\charlie\\stimuli\\visual\\ipcpts\\sym9.bmp'
S'C:\\Users\\Jbarrett\\Charlie\\charlie\\stimuli\\visual\\ipcpts\\sym2.bmp'
S'C:\\Users\\Jbarrett\\Charlie\\charlie\\stimuli\\visual\\ipcpts\\sym7.bmp'
g21
I0
tp204
a(g17
g18
g31
I173
I3
g25
S'C:\\Users\\Jbarrett\\Charlie\\charlie\\stimuli\\visual\\ipcpts\\sym9.bmp'
S'C:\\Users\\Jbarrett\\Charlie\\charlie\\stimuli\\visual\\ipcpts\\sym2.bmp'
S'C:\\Users\\Jbarrett\\Charlie\\charlie\\stimuli\\visual\\ipcpts\\sym7.bmp'
g21
I0
tp205
a(g17
g18
g31
I174
I2
g20
S'C:\\Users\\Jbarrett\\Charlie\\charlie\\stimuli\\visual\\ipcpts\\sym1.bmp'
S'C:\\Users\\Jbarrett\\Charlie\\charlie\\stimuli\\visual\\ipcpts\\sym2.bmp'
S'C:\\Users\\Jbarrett\\Charlie\\charlie\\stimuli\\visual\\ipcpts\\sym7.bmp'
g21
I0
tp206
a(g17
g18
g31
I175
I3
g25
S'C:\\Users\\Jbarrett\\Charlie\\charlie\\stimuli\\visual\\ipcpts\\sym1.bmp'
S'C:\\Users\\Jbarrett\\Charlie\\charlie\\stimuli\\visual\\ipcpts\\sym2.bmp'
S'C:\\Users\\Jbarrett\\Charlie\\charlie\\stimuli\\visual\\ipcpts\\sym7.bmp'
g26
I376
tp207
a(g17
g18
g31
I176
I0
g20
S'C:\\Users\\Jbarrett\\Charlie\\charlie\\stimuli\\visual\\ipcpts\\sym4.bmp'
S'C:\\Users\\Jbarrett\\Charlie\\charlie\\stimuli\\visual\\ipcpts\\sym8.bmp'
S'C:\\Users\\Jbarrett\\Charlie\\charlie\\stimuli\\visual\\ipcpts\\sym6.bmp'
g21
I0
tp208
a(g17
g18
g31
I177
I3
g25
S'C:\\Users\\Jbarrett\\Charlie\\charlie\\stimuli\\visual\\ipcpts\\sym4.bmp'
S'C:\\Users\\Jbarrett\\Charlie\\charlie\\stimuli\\visual\\ipcpts\\sym8.bmp'
S'C:\\Users\\Jbarrett\\Charlie\\charlie\\stimuli\\visual\\ipcpts\\sym6.bmp'
g21
I0
tp209
a(g17
g18
g31
I178
I3
g25
S'C:\\Users\\Jbarrett\\Charlie\\charlie\\stimuli\\visual\\ipcpts\\sym4.bmp'
S'C:\\Users\\Jbarrett\\Charlie\\charlie\\stimuli\\visual\\ipcpts\\sym8.bmp'
S'C:\\Users\\Jbarrett\\Charlie\\charlie\\stimuli\\visual\\ipcpts\\sym6.bmp'
g26
I869
tp210
a(g17
g18
g31
I179
I3
g25
S'C:\\Users\\Jbarrett\\Charlie\\charlie\\stimuli\\visual\\ipcpts\\sym4.bmp'
S'C:\\Users\\Jbarrett\\Charlie\\charlie\\stimuli\\visual\\ipcpts\\sym8.bmp'
S'C:\\Users\\Jbarrett\\Charlie\\charlie\\stimuli\\visual\\ipcpts\\sym6.bmp'
g26
I545
tp211
a(g17
g18
g31
I180
I2
g20
S'C:\\Users\\Jbarrett\\Charlie\\charlie\\stimuli\\visual\\ipcpts\\sym0.bmp'
S'C:\\Users\\Jbarrett\\Charlie\\charlie\\stimuli\\visual\\ipcpts\\sym8.bmp'
S'C:\\Users\\Jbarrett\\Charlie\\charlie\\stimuli\\visual\\ipcpts\\sym6.bmp'
g21
I0
tp212
a(g17
g18
g31
I181
I2
g20
S'C:\\Users\\Jbarrett\\Charlie\\charlie\\stimuli\\visual\\ipcpts\\sym9.bmp'
S'C:\\Users\\Jbarrett\\Charlie\\charlie\\stimuli\\visual\\ipcpts\\sym8.bmp'
S'C:\\Users\\Jbarrett\\Charlie\\charlie\\stimuli\\visual\\ipcpts\\sym6.bmp'
g26
I713
tp213
a(g17
g18
g31
I182
I0
g20
S'C:\\Users\\Jbarrett\\Charlie\\charlie\\stimuli\\visual\\ipcpts\\sym7.bmp'
S'C:\\Users\\Jbarrett\\Charlie\\charlie\\stimuli\\visual\\ipcpts\\sym3.bmp'
S'C:\\Users\\Jbarrett\\Charlie\\charlie\\stimuli\\visual\\ipcpts\\sym2.bmp'
g21
I0
tp214
a(g17
g18
g31
I183
I3
g25
S'C:\\Users\\Jbarrett\\Charlie\\charlie\\stimuli\\visual\\ipcpts\\sym7.bmp'
S'C:\\Users\\Jbarrett\\Charlie\\charlie\\stimuli\\visual\\ipcpts\\sym3.bmp'
S'C:\\Users\\Jbarrett\\Charlie\\charlie\\stimuli\\visual\\ipcpts\\sym2.bmp'
g21
I0
tp215
a(g17
g18
g31
I184
I1
g20
S'C:\\Users\\Jbarrett\\Charlie\\charlie\\stimuli\\visual\\ipcpts\\sym9.bmp'
S'C:\\Users\\Jbarrett\\Charlie\\charlie\\stimuli\\visual\\ipcpts\\sym6.bmp'
S'C:\\Users\\Jbarrett\\Charlie\\charlie\\stimuli\\visual\\ipcpts\\sym2.bmp'
g26
I692
tp216
a(g17
g18
g31
I185
I1
g20
S'C:\\Users\\Jbarrett\\Charlie\\charlie\\stimuli\\visual\\ipcpts\\sym4.bmp'
S'C:\\Users\\Jbarrett\\Charlie\\charlie\\stimuli\\visual\\ipcpts\\sym0.bmp'
S'C:\\Users\\Jbarrett\\Charlie\\charlie\\stimuli\\visual\\ipcpts\\sym2.bmp'
g26
I544
tp217
a(g17
g18
g31
I186
I3
g25
S'C:\\Users\\Jbarrett\\Charlie\\charlie\\stimuli\\visual\\ipcpts\\sym4.bmp'
S'C:\\Users\\Jbarrett\\Charlie\\charlie\\stimuli\\visual\\ipcpts\\sym0.bmp'
S'C:\\Users\\Jbarrett\\Charlie\\charlie\\stimuli\\visual\\ipcpts\\sym2.bmp'
g26
I580
tp218
a(g17
g18
g31
I187
I1
g20
S'C:\\Users\\Jbarrett\\Charlie\\charlie\\stimuli\\visual\\ipcpts\\sym4.bmp'
S'C:\\Users\\Jbarrett\\Charlie\\charlie\\stimuli\\visual\\ipcpts\\sym8.bmp'
S'C:\\Users\\Jbarrett\\Charlie\\charlie\\stimuli\\visual\\ipcpts\\sym3.bmp'
g21
I0
tp219
a(g17
g18
g31
I188
I3
g25
S'C:\\Users\\Jbarrett\\Charlie\\charlie\\stimuli\\visual\\ipcpts\\sym4.bmp'
S'C:\\Users\\Jbarrett\\Charlie\\charlie\\stimuli\\visual\\ipcpts\\sym8.bmp'
S'C:\\Users\\Jbarrett\\Charlie\\charlie\\stimuli\\visual\\ipcpts\\sym3.bmp'
g26
I724
tp220
a(g17
g18
g31
I189
I3
g25
S'C:\\Users\\Jbarrett\\Charlie\\charlie\\stimuli\\visual\\ipcpts\\sym4.bmp'
S'C:\\Users\\Jbarrett\\Charlie\\charlie\\stimuli\\visual\\ipcpts\\sym8.bmp'
S'C:\\Users\\Jbarrett\\Charlie\\charlie\\stimuli\\visual\\ipcpts\\sym3.bmp'
g26
I425
tp221
a(g17
g18
g31
I190
I1
g20
S'C:\\Users\\Jbarrett\\Charlie\\charlie\\stimuli\\visual\\ipcpts\\sym9.bmp'
S'C:\\Users\\Jbarrett\\Charlie\\charlie\\stimuli\\visual\\ipcpts\\sym4.bmp'
S'C:\\Users\\Jbarrett\\Charlie\\charlie\\stimuli\\visual\\ipcpts\\sym3.bmp'
g26
I389
tp222
a(g17
g18
g31
I191
I1
g20
S'C:\\Users\\Jbarrett\\Charlie\\charlie\\stimuli\\visual\\ipcpts\\sym6.bmp'
S'C:\\Users\\Jbarrett\\Charlie\\charlie\\stimuli\\visual\\ipcpts\\sym9.bmp'
S'C:\\Users\\Jbarrett\\Charlie\\charlie\\stimuli\\visual\\ipcpts\\sym3.bmp'
g21
I0
tp223
a(g17
g18
g31
I192
I1
g20
S'C:\\Users\\Jbarrett\\Charlie\\charlie\\stimuli\\visual\\ipcpts\\sym1.bmp'
S'C:\\Users\\Jbarrett\\Charlie\\charlie\\stimuli\\visual\\ipcpts\\sym9.bmp'
S'C:\\Users\\Jbarrett\\Charlie\\charlie\\stimuli\\visual\\ipcpts\\sym0.bmp'
g21
I0
tp224
a(g17
g18
g31
I193
I2
g20
S'C:\\Users\\Jbarrett\\Charlie\\charlie\\stimuli\\visual\\ipcpts\\sym1.bmp'
S'C:\\Users\\Jbarrett\\Charlie\\charlie\\stimuli\\visual\\ipcpts\\sym9.bmp'
S'C:\\Users\\Jbarrett\\Charlie\\charlie\\stimuli\\visual\\ipcpts\\sym7.bmp'
g21
I0
tp225
a(g17
g18
g31
I194
I0
g20
S'C:\\Users\\Jbarrett\\Charlie\\charlie\\stimuli\\visual\\ipcpts\\sym7.bmp'
S'C:\\Users\\Jbarrett\\Charlie\\charlie\\stimuli\\visual\\ipcpts\\sym8.bmp'
S'C:\\Users\\Jbarrett\\Charlie\\charlie\\stimuli\\visual\\ipcpts\\sym4.bmp'
g21
I0
tp226
a(g17
g18
g31
I195
I0
g20
S'C:\\Users\\Jbarrett\\Charlie\\charlie\\stimuli\\visual\\ipcpts\\sym0.bmp'
S'C:\\Users\\Jbarrett\\Charlie\\charlie\\stimuli\\visual\\ipcpts\\sym2.bmp'
S'C:\\Users\\Jbarrett\\Charlie\\charlie\\stimuli\\visual\\ipcpts\\sym1.bmp'
g21
I0
tp227
a(g17
g18
g31
I196
I3
g25
S'C:\\Users\\Jbarrett\\Charlie\\charlie\\stimuli\\visual\\ipcpts\\sym0.bmp'
S'C:\\Users\\Jbarrett\\Charlie\\charlie\\stimuli\\visual\\ipcpts\\sym2.bmp'
S'C:\\Users\\Jbarrett\\Charlie\\charlie\\stimuli\\visual\\ipcpts\\sym1.bmp'
g26
I796
tp228
a(g17
g18
g31
I197
I3
g25
S'C:\\Users\\Jbarrett\\Charlie\\charlie\\stimuli\\visual\\ipcpts\\sym0.bmp'
S'C:\\Users\\Jbarrett\\Charlie\\charlie\\stimuli\\visual\\ipcpts\\sym2.bmp'
S'C:\\Users\\Jbarrett\\Charlie\\charlie\\stimuli\\visual\\ipcpts\\sym1.bmp'
g21
I0
tp229
a(g17
g18
g31
I198
I1
g20
S'C:\\Users\\Jbarrett\\Charlie\\charlie\\stimuli\\visual\\ipcpts\\sym0.bmp'
S'C:\\Users\\Jbarrett\\Charlie\\charlie\\stimuli\\visual\\ipcpts\\sym3.bmp'
S'C:\\Users\\Jbarrett\\Charlie\\charlie\\stimuli\\visual\\ipcpts\\sym4.bmp'
g21
I0
tp230
a(g17
g18
g31
I199
I0
g20
S'C:\\Users\\Jbarrett\\Charlie\\charlie\\stimuli\\visual\\ipcpts\\sym9.bmp'
S'C:\\Users\\Jbarrett\\Charlie\\charlie\\stimuli\\visual\\ipcpts\\sym8.bmp'
S'C:\\Users\\Jbarrett\\Charlie\\charlie\\stimuli\\visual\\ipcpts\\sym1.bmp'
g21
I0
tp231
a(g17
g18
g31
I200
I2
g20
S'C:\\Users\\Jbarrett\\Charlie\\charlie\\stimuli\\visual\\ipcpts\\sym3.bmp'
S'C:\\Users\\Jbarrett\\Charlie\\charlie\\stimuli\\visual\\ipcpts\\sym8.bmp'
S'C:\\Users\\Jbarrett\\Charlie\\charlie\\stimuli\\visual\\ipcpts\\sym1.bmp'
g21
I0
tp232
asS'output_format'
p233
(lp234
(S'proband_id'
p235
c__builtin__
str
p236
tp237
a(S'test_name'
p238
g236
tp239
a(S'phase'
p240
g236
tp241
a(S'trialn'
p242
c__builtin__
int
p243
tp244
a(S'matches'
p245
g243
tp246
a(S'ans'
p247
g236
tp248
a(S'symbol1'
p249
g236
tp250
a(S'symbol2'
p251
g236
tp252
a(S'symbol3'
p253
g236
tp254
a(S'rsp'
p255
g236
tp256
a(S'rt'
p257
g243
tp258
asg235
g17
sS'filename'
p259
S'A109_ipcpts.data'
p260
sS'initialised'
p261
g8
(S'\x07\xdf\x02\x19\r*$\x0e\x1dH'
tRp262
sS'last_udated'
p263
g8
(S'\x07\xdf\x02\x19\r*$\x0e\x1dH'
tRp264
sg238
S'ipcpts'
p265
sS'directory'
p266
S'C:\\Users\\Jbarrett\\Charlie\\charlie\\data\\raw'
p267
sS'user_id'
p268
S''
sS'test_started'
p269
I01
sS'abs_filename'
p270
S'C:\\Users\\Jbarrett\\Charlie\\charlie\\data\\raw\\A109_ipcpts.data'
p271
sS'date_started'
p272
g8
(S'\x07\xdf\x02\x19\r+8\x04\x1e\xb0'
tRp273
sS'log'
p274
(lp275
(S'2015-02-25 13:42:36.925000'
S'instance created'
p276
tp277
a(S'2015-02-25 13:43:56.272000'
S'instance updated'
p278
tp279
a(S'2015-02-25 13:43:56.275000'
S'pandas DataFrame of data created'
p280
tp281
a(S'2015-02-25 13:43:56.276000'
S'data saved as csv to C:\\Users\\Jbarrett\\Charlie\\charlie\\data\\csv\\A109_ipcpts.csv'
tp282
a(S'2015-02-25 13:49:34.050000'
g278
tp283
a(S'2015-02-25 13:49:34.054000'
g280
tp284
a(S'2015-02-25 13:49:34.057000'
S'data saved as csv to C:\\Users\\Jbarrett\\Charlie\\charlie\\data\\csv\\A109_ipcpts.csv'
tp285
asb.