(icharlie.tools.data
Data
p1
(dp2
S'lang'
p3
S'EN'
p4
sS'control'
p5
(lp6
sS'last_updated'
p7
cdatetime
datetime
p8
(S'\x07\xdf\x02\x19\x0e\x0e\x08\t\xfe\x98'
tRp9
sS'last_opened'
p10
g8
(S'\x07\xdf\x02\x19\x0e\x0c#\x03c0'
tRp11
sS'proj_id'
p12
S''
sS'date_done'
p13
NsS'test_done'
p14
I01
sS'data'
p15
(lp16
(S'A109'
p17
S'face_memory_delay'
p18
S'test'
p19
I0
S'C:\\Users\\Jbarrett\\Charlie\\charlie\\stimuli\\visual\\face_memory_delay\\ddis10.bmp'
S'No'
p20
g20
I1390
tp21
a(g17
g18
g19
I1
S'C:\\Users\\Jbarrett\\Charlie\\charlie\\stimuli\\visual\\face_memory_delay\\ddis04.bmp'
g20
g20
I1610
tp22
a(g17
g18
g19
I2
S'C:\\Users\\Jbarrett\\Charlie\\charlie\\stimuli\\visual\\face_memory_delay\\tar07.bmp'
S'Yes'
p23
g23
I3330
tp24
a(g17
g18
g19
I3
S'C:\\Users\\Jbarrett\\Charlie\\charlie\\stimuli\\visual\\face_memory_delay\\tar18.bmp'
g23
g23
I1260
tp25
a(g17
g18
g19
I4
S'C:\\Users\\Jbarrett\\Charlie\\charlie\\stimuli\\visual\\face_memory_delay\\ddis14.bmp'
g20
g20
I1000
tp26
a(g17
g18
g19
I5
S'C:\\Users\\Jbarrett\\Charlie\\charlie\\stimuli\\visual\\face_memory_delay\\tar19.bmp'
g23
g23
I1130
tp27
a(g17
g18
g19
I6
S'C:\\Users\\Jbarrett\\Charlie\\charlie\\stimuli\\visual\\face_memory_delay\\ddis13.bmp'
g20
g20
I2100
tp28
a(g17
g18
g19
I7
S'C:\\Users\\Jbarrett\\Charlie\\charlie\\stimuli\\visual\\face_memory_delay\\tar15.bmp'
g23
g23
I740
tp29
a(g17
g18
g19
I8
S'C:\\Users\\Jbarrett\\Charlie\\charlie\\stimuli\\visual\\face_memory_delay\\tar11.bmp'
g23
g23
I671
tp30
a(g17
g18
g19
I9
S'C:\\Users\\Jbarrett\\Charlie\\charlie\\stimuli\\visual\\face_memory_delay\\ddis05.bmp'
g20
g20
I950
tp31
a(g17
g18
g19
I10
S'C:\\Users\\Jbarrett\\Charlie\\charlie\\stimuli\\visual\\face_memory_delay\\ddis01.bmp'
g20
g20
I960
tp32
a(g17
g18
g19
I11
S'C:\\Users\\Jbarrett\\Charlie\\charlie\\stimuli\\visual\\face_memory_delay\\ddis16.bmp'
g20
g20
I670
tp33
a(g17
g18
g19
I12
S'C:\\Users\\Jbarrett\\Charlie\\charlie\\stimuli\\visual\\face_memory_delay\\tar02.bmp'
g23
g23
I860
tp34
a(g17
g18
g19
I13
S'C:\\Users\\Jbarrett\\Charlie\\charlie\\stimuli\\visual\\face_memory_delay\\tar08.bmp'
g23
g23
I1130
tp35
a(g17
g18
g19
I14
S'C:\\Users\\Jbarrett\\Charlie\\charlie\\stimuli\\visual\\face_memory_delay\\tar13.bmp'
g23
g23
I890
tp36
a(g17
g18
g19
I15
S'C:\\Users\\Jbarrett\\Charlie\\charlie\\stimuli\\visual\\face_memory_delay\\tar20.bmp'
g23
g23
I1760
tp37
a(g17
g18
g19
I16
S'C:\\Users\\Jbarrett\\Charlie\\charlie\\stimuli\\visual\\face_memory_delay\\ddis18.bmp'
g20
g20
I800
tp38
a(g17
g18
g19
I17
S'C:\\Users\\Jbarrett\\Charlie\\charlie\\stimuli\\visual\\face_memory_delay\\tar06.bmp'
g23
g20
I1560
tp39
a(g17
g18
g19
I18
S'C:\\Users\\Jbarrett\\Charlie\\charlie\\stimuli\\visual\\face_memory_delay\\ddis07.bmp'
g20
g20
I720
tp40
a(g17
g18
g19
I19
S'C:\\Users\\Jbarrett\\Charlie\\charlie\\stimuli\\visual\\face_memory_delay\\ddis08.bmp'
g20
g20
I810
tp41
a(g17
g18
g19
I20
S'C:\\Users\\Jbarrett\\Charlie\\charlie\\stimuli\\visual\\face_memory_delay\\tar12.bmp'
g23
g23
I920
tp42
a(g17
g18
g19
I21
S'C:\\Users\\Jbarrett\\Charlie\\charlie\\stimuli\\visual\\face_memory_delay\\ddis17.bmp'
g20
g23
I1751
tp43
a(g17
g18
g19
I22
S'C:\\Users\\Jbarrett\\Charlie\\charlie\\stimuli\\visual\\face_memory_delay\\tar05.bmp'
g23
g23
I1040
tp44
a(g17
g18
g19
I23
S'C:\\Users\\Jbarrett\\Charlie\\charlie\\stimuli\\visual\\face_memory_delay\\tar10.bmp'
g23
g23
I800
tp45
a(g17
g18
g19
I24
S'C:\\Users\\Jbarrett\\Charlie\\charlie\\stimuli\\visual\\face_memory_delay\\ddis02.bmp'
g20
g20
I690
tp46
a(g17
g18
g19
I25
S'C:\\Users\\Jbarrett\\Charlie\\charlie\\stimuli\\visual\\face_memory_delay\\ddis20.bmp'
g20
g20
I1020
tp47
a(g17
g18
g19
I26
S'C:\\Users\\Jbarrett\\Charlie\\charlie\\stimuli\\visual\\face_memory_delay\\tar17.bmp'
g23
g23
I3350
tp48
a(g17
g18
g19
I27
S'C:\\Users\\Jbarrett\\Charlie\\charlie\\stimuli\\visual\\face_memory_delay\\ddis15.bmp'
g20
g20
I1030
tp49
a(g17
g18
g19
I28
S'C:\\Users\\Jbarrett\\Charlie\\charlie\\stimuli\\visual\\face_memory_delay\\tar03.bmp'
g23
g23
I860
tp50
a(g17
g18
g19
I29
S'C:\\Users\\Jbarrett\\Charlie\\charlie\\stimuli\\visual\\face_memory_delay\\ddis19.bmp'
g20
g20
I1140
tp51
a(g17
g18
g19
I30
S'C:\\Users\\Jbarrett\\Charlie\\charlie\\stimuli\\visual\\face_memory_delay\\ddis12.bmp'
g20
g20
I1040
tp52
a(g17
g18
g19
I31
S'C:\\Users\\Jbarrett\\Charlie\\charlie\\stimuli\\visual\\face_memory_delay\\tar16.bmp'
g23
g20
I810
tp53
a(g17
g18
g19
I32
S'C:\\Users\\Jbarrett\\Charlie\\charlie\\stimuli\\visual\\face_memory_delay\\tar09.bmp'
g23
g23
I820
tp54
a(g17
g18
g19
I33
S'C:\\Users\\Jbarrett\\Charlie\\charlie\\stimuli\\visual\\face_memory_delay\\ddis09.bmp'
g20
g20
I860
tp55
a(g17
g18
g19
I34
S'C:\\Users\\Jbarrett\\Charlie\\charlie\\stimuli\\visual\\face_memory_delay\\tar01.bmp'
g23
g23
I711
tp56
a(g17
g18
g19
I35
S'C:\\Users\\Jbarrett\\Charlie\\charlie\\stimuli\\visual\\face_memory_delay\\ddis11.bmp'
g20
g20
I760
tp57
a(g17
g18
g19
I36
S'C:\\Users\\Jbarrett\\Charlie\\charlie\\stimuli\\visual\\face_memory_delay\\ddis03.bmp'
g20
g20
I1020
tp58
a(g17
g18
g19
I37
S'C:\\Users\\Jbarrett\\Charlie\\charlie\\stimuli\\visual\\face_memory_delay\\tar04.bmp'
g23
g23
I1040
tp59
a(g17
g18
g19
I38
S'C:\\Users\\Jbarrett\\Charlie\\charlie\\stimuli\\visual\\face_memory_delay\\tar14.bmp'
g23
g23
I900
tp60
a(g17
g18
g19
I39
S'C:\\Users\\Jbarrett\\Charlie\\charlie\\stimuli\\visual\\face_memory_delay\\ddis06.bmp'
p61
g20
g20
I720
tp62
asS'output_format'
p63
(lp64
(S'proband_id'
p65
c__builtin__
str
p66
tp67
a(S'test_name'
p68
g66
tp69
a(S'phase'
p70
g66
tp71
a(S'trialn'
p72
c__builtin__
int
p73
tp74
a(S'f'
g66
tp75
a(S'ans'
p76
g66
tp77
a(S'rsp'
p78
g66
tp79
a(S'rt'
p80
g73
tp81
asg65
g17
sS'filename'
p82
S'A109_face_memory_delay.data'
p83
sS'initialised'
p84
g8
(S'\x07\xdf\x02\x19\x0e\x0c#\x03c0'
tRp85
sS'last_udated'
p86
g8
(S'\x07\xdf\x02\x19\x0e\x0c#\x03c0'
tRp87
sg68
S'face_memory_delay'
p88
sS'directory'
p89
S'C:\\Users\\Jbarrett\\Charlie\\charlie\\data\\raw'
p90
sS'user_id'
p91
S''
sS'test_started'
p92
I01
sS'abs_filename'
p93
S'C:\\Users\\Jbarrett\\Charlie\\charlie\\data\\raw\\A109_face_memory_delay.data'
p94
sS'date_started'
p95
g8
(S'\x07\xdf\x02\x19\x0e\r\r\x08%\xf0'
tRp96
sS'log'
p97
(lp98
(S'2015-02-25 14:12:35.222000'
S'instance created'
p99
tp100
a(S'2015-02-25 14:13:13.542000'
S'instance updated'
p101
tp102
a(S'2015-02-25 14:13:13.551000'
S'pandas DataFrame of data created'
p103
tp104
a(S'2015-02-25 14:13:13.555000'
S'data saved as csv to C:\\Users\\Jbarrett\\Charlie\\charlie\\data\\csv\\A109_face_memory_delay.csv'
tp105
a(S'2015-02-25 14:13:15.431000'
g101
tp106
a(S'2015-02-25 14:13:15.439000'
g103
tp107
a(S'2015-02-25 14:13:15.443000'
S'data saved as csv to C:\\Users\\Jbarrett\\Charlie\\charlie\\data\\csv\\A109_face_memory_delay.csv'
tp108
a(S'2015-02-25 14:13:19.041000'
g101
tp109
a(S'2015-02-25 14:13:19.050000'
g103
tp110
a(S'2015-02-25 14:13:19.053000'
S'data saved as csv to C:\\Users\\Jbarrett\\Charlie\\charlie\\data\\csv\\A109_face_memory_delay.csv'
tp111
a(S'2015-02-25 14:13:20.580000'
g101
tp112
a(S'2015-02-25 14:13:20.589000'
g103
tp113
a(S'2015-02-25 14:13:20.592000'
S'data saved as csv to C:\\Users\\Jbarrett\\Charlie\\charlie\\data\\csv\\A109_face_memory_delay.csv'
tp114
a(S'2015-02-25 14:13:21.859000'
g101
tp115
a(S'2015-02-25 14:13:21.867000'
g103
tp116
a(S'2015-02-25 14:13:21.871000'
S'data saved as csv to C:\\Users\\Jbarrett\\Charlie\\charlie\\data\\csv\\A109_face_memory_delay.csv'
tp117
a(S'2015-02-25 14:13:23.263000'
g101
tp118
a(S'2015-02-25 14:13:23.269000'
g103
tp119
a(S'2015-02-25 14:13:23.271000'
S'data saved as csv to C:\\Users\\Jbarrett\\Charlie\\charlie\\data\\csv\\A109_face_memory_delay.csv'
tp120
a(S'2015-02-25 14:13:25.635000'
g101
tp121
a(S'2015-02-25 14:13:25.644000'
g103
tp122
a(S'2015-02-25 14:13:25.648000'
S'data saved as csv to C:\\Users\\Jbarrett\\Charlie\\charlie\\data\\csv\\A109_face_memory_delay.csv'
tp123
a(S'2015-02-25 14:13:26.653000'
g101
tp124
a(S'2015-02-25 14:13:26.662000'
g103
tp125
a(S'2015-02-25 14:13:26.666000'
S'data saved as csv to C:\\Users\\Jbarrett\\Charlie\\charlie\\data\\csv\\A109_face_memory_delay.csv'
tp126
a(S'2015-02-25 14:13:27.602000'
g101
tp127
a(S'2015-02-25 14:13:27.611000'
g103
tp128
a(S'2015-02-25 14:13:27.614000'
S'data saved as csv to C:\\Users\\Jbarrett\\Charlie\\charlie\\data\\csv\\A109_face_memory_delay.csv'
tp129
a(S'2015-02-25 14:13:28.832000'
g101
tp130
a(S'2015-02-25 14:13:28.841000'
g103
tp131
a(S'2015-02-25 14:13:28.845000'
S'data saved as csv to C:\\Users\\Jbarrett\\Charlie\\charlie\\data\\csv\\A109_face_memory_delay.csv'
tp132
a(S'2015-02-25 14:13:30.071000'
g101
tp133
a(S'2015-02-25 14:13:30.080000'
g103
tp134
a(S'2015-02-25 14:13:30.084000'
S'data saved as csv to C:\\Users\\Jbarrett\\Charlie\\charlie\\data\\csv\\A109_face_memory_delay.csv'
tp135
a(S'2015-02-25 14:13:31.020000'
g101
tp136
a(S'2015-02-25 14:13:31.029000'
g103
tp137
a(S'2015-02-25 14:13:31.033000'
S'data saved as csv to C:\\Users\\Jbarrett\\Charlie\\charlie\\data\\csv\\A109_face_memory_delay.csv'
tp138
a(S'2015-02-25 14:13:32.160000'
g101
tp139
a(S'2015-02-25 14:13:32.169000'
g103
tp140
a(S'2015-02-25 14:13:32.173000'
S'data saved as csv to C:\\Users\\Jbarrett\\Charlie\\charlie\\data\\csv\\A109_face_memory_delay.csv'
tp141
a(S'2015-02-25 14:13:33.570000'
g101
tp142
a(S'2015-02-25 14:13:33.579000'
g103
tp143
a(S'2015-02-25 14:13:33.582000'
S'data saved as csv to C:\\Users\\Jbarrett\\Charlie\\charlie\\data\\csv\\A109_face_memory_delay.csv'
tp144
a(S'2015-02-25 14:13:34.739000'
g101
tp145
a(S'2015-02-25 14:13:34.748000'
g103
tp146
a(S'2015-02-25 14:13:34.752000'
S'data saved as csv to C:\\Users\\Jbarrett\\Charlie\\charlie\\data\\csv\\A109_face_memory_delay.csv'
tp147
a(S'2015-02-25 14:13:36.780000'
g101
tp148
a(S'2015-02-25 14:13:36.790000'
g103
tp149
a(S'2015-02-25 14:13:36.794000'
S'data saved as csv to C:\\Users\\Jbarrett\\Charlie\\charlie\\data\\csv\\A109_face_memory_delay.csv'
tp150
a(S'2015-02-25 14:13:37.860000'
g101
tp151
a(S'2015-02-25 14:13:37.869000'
g103
tp152
a(S'2015-02-25 14:13:37.873000'
S'data saved as csv to C:\\Users\\Jbarrett\\Charlie\\charlie\\data\\csv\\A109_face_memory_delay.csv'
tp153
a(S'2015-02-25 14:13:39.701000'
g101
tp154
a(S'2015-02-25 14:13:39.710000'
g103
tp155
a(S'2015-02-25 14:13:39.714000'
S'data saved as csv to C:\\Users\\Jbarrett\\Charlie\\charlie\\data\\csv\\A109_face_memory_delay.csv'
tp156
a(S'2015-02-25 14:13:40.701000'
g101
tp157
a(S'2015-02-25 14:13:40.710000'
g103
tp158
a(S'2015-02-25 14:13:40.713000'
S'data saved as csv to C:\\Users\\Jbarrett\\Charlie\\charlie\\data\\csv\\A109_face_memory_delay.csv'
tp159
a(S'2015-02-25 14:13:41.790000'
g101
tp160
a(S'2015-02-25 14:13:41.795000'
g103
tp161
a(S'2015-02-25 14:13:41.797000'
S'data saved as csv to C:\\Users\\Jbarrett\\Charlie\\charlie\\data\\csv\\A109_face_memory_delay.csv'
tp162
a(S'2015-02-25 14:13:42.983000'
g101
tp163
a(S'2015-02-25 14:13:42.992000'
g103
tp164
a(S'2015-02-25 14:13:42.996000'
S'data saved as csv to C:\\Users\\Jbarrett\\Charlie\\charlie\\data\\csv\\A109_face_memory_delay.csv'
tp165
a(S'2015-02-25 14:13:45.013000'
g101
tp166
a(S'2015-02-25 14:13:45.022000'
g103
tp167
a(S'2015-02-25 14:13:45.026000'
S'data saved as csv to C:\\Users\\Jbarrett\\Charlie\\charlie\\data\\csv\\A109_face_memory_delay.csv'
tp168
a(S'2015-02-25 14:13:46.326000'
g101
tp169
a(S'2015-02-25 14:13:46.329000'
g103
tp170
a(S'2015-02-25 14:13:46.330000'
S'data saved as csv to C:\\Users\\Jbarrett\\Charlie\\charlie\\data\\csv\\A109_face_memory_delay.csv'
tp171
a(S'2015-02-25 14:13:47.395000'
g101
tp172
a(S'2015-02-25 14:13:47.404000'
g103
tp173
a(S'2015-02-25 14:13:47.408000'
S'data saved as csv to C:\\Users\\Jbarrett\\Charlie\\charlie\\data\\csv\\A109_face_memory_delay.csv'
tp174
a(S'2015-02-25 14:13:48.365000'
g101
tp175
a(S'2015-02-25 14:13:48.375000'
g103
tp176
a(S'2015-02-25 14:13:48.379000'
S'data saved as csv to C:\\Users\\Jbarrett\\Charlie\\charlie\\data\\csv\\A109_face_memory_delay.csv'
tp177
a(S'2015-02-25 14:13:49.666000'
g101
tp178
a(S'2015-02-25 14:13:49.675000'
g103
tp179
a(S'2015-02-25 14:13:49.679000'
S'data saved as csv to C:\\Users\\Jbarrett\\Charlie\\charlie\\data\\csv\\A109_face_memory_delay.csv'
tp180
a(S'2015-02-25 14:13:53.295000'
g101
tp181
a(S'2015-02-25 14:13:53.305000'
g103
tp182
a(S'2015-02-25 14:13:53.309000'
S'data saved as csv to C:\\Users\\Jbarrett\\Charlie\\charlie\\data\\csv\\A109_face_memory_delay.csv'
tp183
a(S'2015-02-25 14:13:54.605000'
g101
tp184
a(S'2015-02-25 14:13:54.614000'
g103
tp185
a(S'2015-02-25 14:13:54.618000'
S'data saved as csv to C:\\Users\\Jbarrett\\Charlie\\charlie\\data\\csv\\A109_face_memory_delay.csv'
tp186
a(S'2015-02-25 14:13:55.745000'
g101
tp187
a(S'2015-02-25 14:13:55.754000'
g103
tp188
a(S'2015-02-25 14:13:55.758000'
S'data saved as csv to C:\\Users\\Jbarrett\\Charlie\\charlie\\data\\csv\\A109_face_memory_delay.csv'
tp189
a(S'2015-02-25 14:13:57.165000'
g101
tp190
a(S'2015-02-25 14:13:57.174000'
g103
tp191
a(S'2015-02-25 14:13:57.178000'
S'data saved as csv to C:\\Users\\Jbarrett\\Charlie\\charlie\\data\\csv\\A109_face_memory_delay.csv'
tp192
a(S'2015-02-25 14:13:58.486000'
g101
tp193
a(S'2015-02-25 14:13:58.495000'
g103
tp194
a(S'2015-02-25 14:13:58.499000'
S'data saved as csv to C:\\Users\\Jbarrett\\Charlie\\charlie\\data\\csv\\A109_face_memory_delay.csv'
tp195
a(S'2015-02-25 14:13:59.575000'
g101
tp196
a(S'2015-02-25 14:13:59.585000'
g103
tp197
a(S'2015-02-25 14:13:59.589000'
S'data saved as csv to C:\\Users\\Jbarrett\\Charlie\\charlie\\data\\csv\\A109_face_memory_delay.csv'
tp198
a(S'2015-02-25 14:14:00.676000'
g101
tp199
a(S'2015-02-25 14:14:00.685000'
g103
tp200
a(S'2015-02-25 14:14:00.689000'
S'data saved as csv to C:\\Users\\Jbarrett\\Charlie\\charlie\\data\\csv\\A109_face_memory_delay.csv'
tp201
a(S'2015-02-25 14:14:01.816000'
g101
tp202
a(S'2015-02-25 14:14:01.825000'
g103
tp203
a(S'2015-02-25 14:14:01.829000'
S'data saved as csv to C:\\Users\\Jbarrett\\Charlie\\charlie\\data\\csv\\A109_face_memory_delay.csv'
tp204
a(S'2015-02-25 14:14:02.806000'
g101
tp205
a(S'2015-02-25 14:14:02.815000'
g103
tp206
a(S'2015-02-25 14:14:02.820000'
S'data saved as csv to C:\\Users\\Jbarrett\\Charlie\\charlie\\data\\csv\\A109_face_memory_delay.csv'
tp207
a(S'2015-02-25 14:14:03.846000'
g101
tp208
a(S'2015-02-25 14:14:03.855000'
g103
tp209
a(S'2015-02-25 14:14:03.859000'
S'data saved as csv to C:\\Users\\Jbarrett\\Charlie\\charlie\\data\\csv\\A109_face_memory_delay.csv'
tp210
a(S'2015-02-25 14:14:05.147000'
g101
tp211
a(S'2015-02-25 14:14:05.156000'
g103
tp212
a(S'2015-02-25 14:14:05.161000'
S'data saved as csv to C:\\Users\\Jbarrett\\Charlie\\charlie\\data\\csv\\A109_face_memory_delay.csv'
tp213
a(S'2015-02-25 14:14:06.466000'
g101
tp214
a(S'2015-02-25 14:14:06.476000'
g103
tp215
a(S'2015-02-25 14:14:06.480000'
S'data saved as csv to C:\\Users\\Jbarrett\\Charlie\\charlie\\data\\csv\\A109_face_memory_delay.csv'
tp216
a(S'2015-02-25 14:14:07.645000'
g101
tp217
a(S'2015-02-25 14:14:07.652000'
g103
tp218
a(S'2015-02-25 14:14:07.655000'
S'data saved as csv to C:\\Users\\Jbarrett\\Charlie\\charlie\\data\\csv\\A109_face_memory_delay.csv'
tp219
a(S'2015-02-25 14:14:08.640000'
g101
tp220
a(S'2015-02-25 14:14:08.650000'
g103
tp221
a(S'2015-02-25 14:14:08.654000'
S'data saved as csv to C:\\Users\\Jbarrett\\Charlie\\charlie\\data\\csv\\A109_face_memory_delay.csv'
tp222
asb.