(icharlie.tools.data
Data
p1
(dp2
S'lang'
p3
S'EN'
p4
sS'control'
p5
(lp6
sS'last_updated'
p7
cdatetime
datetime
p8
(S'\x07\xdf\x02\r\x0e\x16\x1f\x0c1\x18'
tRp9
sS'last_opened'
p10
g8
(S'\x07\xdf\x02\r\x0e\x0f\x11\x0bq\xb0'
tRp11
sS'proj_id'
p12
S''
sS'date_done'
p13
g8
(S'\x07\xdf\x02\r\x0e\x16\x1f\x0b^('
tRp14
sS'test_done'
p15
I01
sS'data'
p16
(lp17
(S'C102'
p18
S'cvlt2'
p19
I0
csip
_unpickle_type
p20
(S'PyQt4.QtCore'
p21
S'QString'
(Vlamp
p22
ttRp23
tp24
a(g18
g19
I0
g20
(g21
S'QString'
(Vdesk
p25
ttRp26
tp27
a(g18
g19
I0
g20
(g21
S'QString'
(Vboat
p28
ttRp29
tp30
a(g18
g19
I0
g20
(g21
S'QString'
(Vcow
p31
ttRp32
tp33
a(g18
g19
I0
g20
(g21
S'QString'
(Vonion
p34
ttRp35
tp36
a(g18
g19
I0
g20
(g21
S'QString'
(Vtruck
p37
ttRp38
tp39
a(g18
g19
I0
g20
(g21
S'QString'
(Vspinach
p40
ttRp41
tp42
a(g18
g19
I0
g20
(g21
S'QString'
(Vbookcase
p43
ttRp44
tp45
a(g18
g19
I0
g20
(g21
S'QString'
(Vonion
p46
ttRp47
tp48
a(g18
g19
I1
g20
(g21
S'QString'
(Vonion
p49
ttRp50
tp51
a(g18
g19
I1
g20
(g21
S'QString'
(Vcelery
p52
ttRp53
tp54
a(g18
g19
I1
g20
(g21
S'QString'
(Vspinach
p55
ttRp56
tp57
a(g18
g19
I1
g20
(g21
S'QString'
(Vtruck
p58
ttRp59
tp60
a(g18
g19
I1
g20
(g21
S'QString'
(Vboat
p61
ttRp62
tp63
a(g18
g19
I1
g20
(g21
S'QString'
(Vmotorcycle
p64
ttRp65
tp66
a(g18
g19
I1
g20
(g21
S'QString'
(Vsquirrel
p67
ttRp68
tp69
a(g18
g19
I1
g20
(g21
S'QString'
(Vcow
p70
ttRp71
tp72
a(g18
g19
I1
g20
(g21
S'QString'
(Vcabinet
p73
ttRp74
tp75
a(g18
g19
I1
g20
(g21
S'QString'
(Vdesk
p76
ttRp77
tp78
a(g18
g19
I1
g20
(g21
S'QString'
(Vlamp
p79
ttRp80
tp81
a(g18
g19
I2
g20
(g21
S'QString'
(Vcabbage
p82
ttRp83
tp84
a(g18
g19
I2
g20
(g21
S'QString'
(Vonion
p85
ttRp86
tp87
a(g18
g19
I2
g20
(g21
S'QString'
(Vspinach
p88
ttRp89
tp90
a(g18
g19
I2
g20
(g21
S'QString'
(Vtruck
p91
ttRp92
tp93
a(g18
g19
I2
g20
(g21
S'QString'
(Vboat
p94
ttRp95
tp96
a(g18
g19
I2
g20
(g21
S'QString'
(Vmotorcycle
p97
ttRp98
tp99
a(g18
g19
I2
g20
(g21
S'QString'
(Vsubway
p100
ttRp101
tp102
a(g18
g19
I2
g20
(g21
S'QString'
(Vcabinet
p103
ttRp104
tp105
a(g18
g19
I2
g20
(g21
S'QString'
(Vdesk
p106
ttRp107
tp108
a(g18
g19
I2
g20
(g21
S'QString'
(Vlamp
p109
ttRp110
tp111
a(g18
g19
I2
g20
(g21
S'QString'
(Vgiraffe
p112
ttRp113
tp114
a(g18
g19
I2
g20
(g21
S'QString'
(Vzebra
p115
ttRp116
tp117
a(g18
g19
I2
g20
(g21
S'QString'
(Vsquirrel
p118
ttRp119
tp120
a(g18
g19
I2
g20
(g21
S'QString'
(Vcow
p121
ttRp122
tp123
a(g18
g19
I3
g20
(g21
S'QString'
(Vcelery
p124
ttRp125
tp126
a(g18
g19
I3
g20
(g21
S'QString'
(Vcabbage
p127
ttRp128
tp129
a(g18
g19
I3
g20
(g21
S'QString'
(Vspinach
p130
ttRp131
tp132
a(g18
g19
I3
g20
(g21
S'QString'
(Vonion
p133
ttRp134
tp135
a(g18
g19
I3
g20
(g21
S'QString'
(Vdesk
p136
ttRp137
tp138
a(g18
g19
I3
g20
(g21
S'QString'
(Vcabinet
p139
ttRp140
tp141
a(g18
g19
I3
g20
(g21
S'QString'
(Vbookcase
p142
ttRp143
tp144
a(g18
g19
I3
g20
(g21
S'QString'
(Vlamp
p145
ttRp146
tp147
a(g18
g19
I3
g20
(g21
S'QString'
(Vsquirrel
p148
ttRp149
tp150
a(g18
g19
I3
g20
(g21
S'QString'
(Vgiraffe
p151
ttRp152
tp153
a(g18
g19
I3
g20
(g21
S'QString'
(Vzebra
p154
ttRp155
tp156
a(g18
g19
I3
g20
(g21
S'QString'
(Vcow
p157
ttRp158
tp159
a(g18
g19
I3
g20
(g21
S'QString'
(Vtruck
p160
ttRp161
tp162
a(g18
g19
I3
g20
(g21
S'QString'
(Vsubway
p163
ttRp164
tp165
a(g18
g19
I3
g20
(g21
S'QString'
(Vboat
p166
ttRp167
tp168
a(g18
g19
I4
g20
(g21
S'QString'
(Vtruck
p169
ttRp170
tp171
a(g18
g19
I4
g20
(g21
S'QString'
(Vboat
p172
ttRp173
tp174
a(g18
g19
I4
g20
(g21
S'QString'
(Vmotorcycle
p175
ttRp176
tp177
a(g18
g19
I4
g20
(g21
S'QString'
(Vsubway
p178
ttRp179
tp180
a(g18
g19
I4
g20
(g21
S'QString'
(Vsquirrel
p181
ttRp182
tp183
a(g18
g19
I4
g20
(g21
S'QString'
(Vzebra
p184
ttRp185
tp186
a(g18
g19
I4
g20
(g21
S'QString'
(Vgiraffe
p187
ttRp188
tp189
a(g18
g19
I4
g20
(g21
S'QString'
(Vcow
p190
ttRp191
tp192
a(g18
g19
I4
g20
(g21
S'QString'
(Vlamp
p193
ttRp194
tp195
a(g18
g19
I4
g20
(g21
S'QString'
(Vdesk
p196
ttRp197
tp198
a(g18
g19
I4
g20
(g21
S'QString'
(Vbookcase
p199
ttRp200
tp201
a(g18
g19
I4
g20
(g21
S'QString'
(Vcabinet
p202
ttRp203
tp204
a(g18
g19
I4
g20
(g21
S'QString'
(Vspinach
p205
ttRp206
tp207
a(g18
g19
I4
g20
(g21
S'QString'
(Vonion
p208
ttRp209
tp210
a(g18
g19
I4
g20
(g21
S'QString'
(Vcabbage
p211
ttRp212
tp213
a(g18
g19
I4
g20
(g21
S'QString'
(Vcelery
p214
ttRp215
tp216
asS'output_format'
p217
(lp218
(S'proband_id'
p219
c__builtin__
str
p220
tp221
a(S'test_name'
p222
g220
tp223
a(S'trialn'
p224
c__builtin__
int
p225
tp226
a(S'rsp'
p227
g220
tp228
asg219
g18
sS'filename'
p229
S'C102_cvlt2.data'
p230
sS'initialised'
p231
g8
(S'\x07\xdf\x02\r\x0e\x0f\x11\x0bq\xb0'
tRp232
sS'last_udated'
p233
g8
(S'\x07\xdf\x02\r\x0e\x0f\x11\x0bq\xb0'
tRp234
sg222
S'cvlt2'
p235
sS'directory'
p236
S'C:\\Users\\Jbarrett\\Charlie\\charlie\\data\\raw'
p237
sS'user_id'
p238
S''
sS'test_started'
p239
I01
sS'abs_filename'
p240
S'C:\\Users\\Jbarrett\\Charlie\\charlie\\data\\raw\\C102_cvlt2.data'
p241
sS'date_started'
p242
g8
(S'\x07\xdf\x02\r\x0e\x105\x06\x1a\x80'
tRp243
sS'log'
p244
(lp245
(S'2015-02-13 14:15:17.750000'
S'instance created'
p246
tp247
a(S'2015-02-13 14:16:53.408000'
S'instance updated'
p248
tp249
a(S'2015-02-13 14:16:53.423000'
S'pandas DataFrame of data created'
p250
tp251
a(S'2015-02-13 14:16:53.427000'
S'data saved as csv to C:\\Users\\Jbarrett\\Charlie\\charlie\\data\\csv\\C102_cvlt2.csv'
tp252
a(S'2015-02-13 14:17:46.051000'
g248
tp253
a(S'2015-02-13 14:17:46.065000'
g250
tp254
a(S'2015-02-13 14:17:46.068000'
S'data saved as csv to C:\\Users\\Jbarrett\\Charlie\\charlie\\data\\csv\\C102_cvlt2.csv'
tp255
a(S'2015-02-13 14:18:26.269000'
g248
tp256
a(S'2015-02-13 14:18:26.295000'
g250
tp257
a(S'2015-02-13 14:18:26.299000'
S'data saved as csv to C:\\Users\\Jbarrett\\Charlie\\charlie\\data\\csv\\C102_cvlt2.csv'
tp258
a(S'2015-02-13 14:19:11.606000'
g248
tp259
a(S'2015-02-13 14:19:11.633000'
g250
tp260
a(S'2015-02-13 14:19:11.635000'
S'data saved as csv to C:\\Users\\Jbarrett\\Charlie\\charlie\\data\\csv\\C102_cvlt2.csv'
tp261
a(S'2015-02-13 14:19:53.025000'
g248
tp262
a(S'2015-02-13 14:19:53.068000'
g250
tp263
a(S'2015-02-13 14:19:53.069000'
S'data saved as csv to C:\\Users\\Jbarrett\\Charlie\\charlie\\data\\csv\\C102_cvlt2.csv'
tp264
a(S'2015-02-13 14:20:33.242000'
g248
tp265
a(S'2015-02-13 14:20:33.276000'
g250
tp266
a(S'2015-02-13 14:20:33.277000'
S'data saved as csv to C:\\Users\\Jbarrett\\Charlie\\charlie\\data\\csv\\C102_cvlt2.csv'
tp267
a(S'2015-02-13 14:21:17.565000'
g248
tp268
a(S'2015-02-13 14:21:17.607000'
g250
tp269
a(S'2015-02-13 14:21:17.610000'
S'data saved as csv to C:\\Users\\Jbarrett\\Charlie\\charlie\\data\\csv\\C102_cvlt2.csv'
tp270
a(S'2015-02-13 14:21:59.455000'
g248
tp271
a(S'2015-02-13 14:21:59.506000'
g250
tp272
a(S'2015-02-13 14:21:59.508000'
S'data saved as csv to C:\\Users\\Jbarrett\\Charlie\\charlie\\data\\csv\\C102_cvlt2.csv'
tp273
a(S'2015-02-13 14:22:31.745000'
g248
tp274
a(S'2015-02-13 14:22:31.797000'
g250
tp275
a(S'2015-02-13 14:22:31.799000'
S'data saved as csv to C:\\Users\\Jbarrett\\Charlie\\charlie\\data\\csv\\C102_cvlt2.csv'
tp276
asb.