(icharlie.tools.data
Data
p1
(dp2
S'lang'
p3
S'EN'
p4
sS'control'
p5
(lp6
sS'last_updated'
p7
cdatetime
datetime
p8
(S'\x07\xdf\x02\r\x0f\x08\x0f\tJ\xe8'
tRp9
sS'last_opened'
p10
g8
(S'\x07\xdf\x02\r\x0f\x04:\x05\x10\xe0'
tRp11
sS'proj_id'
p12
S''
sS'date_done'
p13
NsS'test_done'
p14
I01
sS'data'
p15
(lp16
(S'C102'
p17
S'ctrails'
p18
S'number'
p19
S'practice'
p20
I0
I1
S'Correct'
p21
I1460
I6958
tp22
a(g17
g18
g19
g20
I1
I2
g21
I850
I6958
tp23
a(g17
g18
g19
g20
I2
I3
g21
I971
I6958
tp24
a(g17
g18
g19
g20
I3
I4
g21
I690
I6958
tp25
a(g17
g18
g19
g20
I4
I5
g21
I680
I6958
tp26
a(g17
g18
g19
g20
I5
I6
g21
I750
I6958
tp27
a(g17
g18
g19
g20
I6
I7
g21
I710
I6958
tp28
a(g17
g18
g19
g20
I7
I8
g21
I800
I6958
tp29
a(g17
g18
g19
S'test'
p30
I0
I1
g21
I1970
I26771
tp31
a(g17
g18
g19
g30
I1
I2
g21
I900
I26771
tp32
a(g17
g18
g19
g30
I2
I3
g21
I2040
I26771
tp33
a(g17
g18
g19
g30
I3
I4
g21
I1070
I26771
tp34
a(g17
g18
g19
g30
I4
I5
g21
I770
I26771
tp35
a(g17
g18
g19
g30
I5
I6
g21
I670
I26771
tp36
a(g17
g18
g19
g30
I6
I7
g21
I680
I26771
tp37
a(g17
g18
g19
g30
I7
I8
g21
I510
I26771
tp38
a(g17
g18
g19
g30
I8
I9
g21
I770
I26771
tp39
a(g17
g18
g19
g30
I9
I10
g21
I750
I26771
tp40
a(g17
g18
g19
g30
I10
I11
g21
I920
I26771
tp41
a(g17
g18
g19
g30
I11
I12
g21
I500
I26771
tp42
a(g17
g18
g19
g30
I12
I13
g21
I1270
I26771
tp43
a(g17
g18
g19
g30
I13
I14
g21
I1030
I26771
tp44
a(g17
g18
g19
g30
I14
I15
g21
I480
I26771
tp45
a(g17
g18
g19
g30
I15
I16
g21
I710
I26771
tp46
a(g17
g18
g19
g30
I16
I17
g21
I700
I26771
tp47
a(g17
g18
g19
g30
I17
I18
g21
I2201
I26771
tp48
a(g17
g18
g19
g30
I18
I19
g21
I2550
I26771
tp49
a(g17
g18
g19
g30
I19
I20
g21
I690
I26771
tp50
a(g17
g18
g19
g30
I20
I21
g21
I660
I26771
tp51
a(g17
g18
g19
g30
I21
I22
g21
I1720
I26771
tp52
a(g17
g18
g19
g30
I22
I23
g21
I780
I26771
tp53
a(g17
g18
g19
g30
I23
I24
g21
I600
I26771
tp54
a(g17
g18
g19
g30
I24
I25
g21
I650
I26771
tp55
a(g17
g18
g19
g30
I25
I26
g21
I1080
I26771
tp56
a(g17
g18
S'letter'
p57
g20
I0
S'a'
g21
I1420
I7497
tp58
a(g17
g18
g57
g20
I1
S'b'
g21
I2000
I7497
tp59
a(g17
g18
g57
g20
I2
S'c'
g21
I520
I7497
tp60
a(g17
g18
g57
g20
I3
S'd'
g21
I670
I7497
tp61
a(g17
g18
g57
g20
I4
S'e'
g21
I920
I7497
tp62
a(g17
g18
g57
g20
I5
S'f'
g21
I580
I7497
tp63
a(g17
g18
g57
g20
I6
S'g'
g21
I720
I7497
tp64
a(g17
g18
g57
g20
I7
S'h'
g21
I650
I7497
tp65
a(g17
g18
g57
g30
I0
S'a'
g21
I3121
I29432
tp66
a(g17
g18
g57
g30
I1
S'b'
g21
I2000
I29432
tp67
a(g17
g18
g57
g30
I2
S'c'
g21
I930
I29432
tp68
a(g17
g18
g57
g30
I3
S'd'
g21
I1860
I29432
tp69
a(g17
g18
g57
g30
I4
S'e'
g21
I600
I29432
tp70
a(g17
g18
g57
g30
I5
S'f'
g21
I490
I29432
tp71
a(g17
g18
g57
g30
I6
S'g'
g21
I710
I29432
tp72
a(g17
g18
g57
g30
I7
S'h'
g21
I2250
I29432
tp73
a(g17
g18
g57
g30
I8
S'i'
g21
I610
I29432
tp74
a(g17
g18
g57
g30
I9
S'j'
g21
I550
I29432
tp75
a(g17
g18
g57
g30
I10
S'k'
g21
I1190
I29432
tp76
a(g17
g18
g57
g30
I11
S'l'
g21
I1690
I29432
tp77
a(g17
g18
g57
g30
I12
S'm'
g21
I500
I29432
tp78
a(g17
g18
g57
g30
I13
S'n'
g21
I1450
I29432
tp79
a(g17
g18
g57
g30
I14
S'o'
g21
I511
I29432
tp80
a(g17
g18
g57
g30
I15
S'p'
g21
I700
I29432
tp81
a(g17
g18
g57
g30
I16
S'q'
g21
I710
I29432
tp82
a(g17
g18
g57
g30
I17
S'r'
g21
I540
I29432
tp83
a(g17
g18
g57
g30
I18
S's'
g21
I570
I29432
tp84
a(g17
g18
g57
g30
I19
S't'
g21
I540
I29432
tp85
a(g17
g18
g57
g30
I20
S'u'
g21
I530
I29432
tp86
a(g17
g18
g57
g30
I21
S'v'
g21
I550
I29432
tp87
a(g17
g18
g57
g30
I22
S'w'
g21
I520
I29432
tp88
a(g17
g18
g57
g30
I23
S'x'
g21
I4850
I29432
tp89
a(g17
g18
g57
g30
I24
S'y'
g21
I580
I29432
tp90
a(g17
g18
g57
g30
I25
S'z'
g21
I770
I29432
tp91
a(g17
g18
S'number-letter'
p92
g20
I0
I1
g21
I1470
I7396
tp93
a(g17
g18
g92
g20
I1
S'a'
g21
I690
I7396
tp94
a(g17
g18
g92
g20
I2
I2
g21
I1450
I7396
tp95
a(g17
g18
g92
g20
I3
S'b'
g21
I700
I7396
tp96
a(g17
g18
g92
g20
I4
I3
g21
I1000
I7396
tp97
a(g17
g18
g92
g20
I5
S'c'
g21
I690
I7396
tp98
a(g17
g18
g92
g20
I6
I4
g21
I640
I7396
tp99
a(g17
g18
g92
g20
I7
S'd'
g21
I710
I7396
tp100
a(g17
g18
g92
g30
I0
I1
g21
I1400
I43534
tp101
a(g17
g18
g92
g30
I1
S'a'
g21
I710
I43534
tp102
a(g17
g18
g92
g30
I2
I2
g21
I1130
I43534
tp103
a(g17
g18
g92
g30
I3
S'b'
g21
I6071
I43534
tp104
a(g17
g18
g92
g30
I4
I3
g21
I620
I43534
tp105
a(g17
g18
g92
g30
I5
S'c'
g21
I560
I43534
tp106
a(g17
g18
g92
g30
I6
I4
g21
I2180
I43534
tp107
a(g17
g18
g92
g30
I7
S'd'
g21
I670
I43534
tp108
a(g17
g18
g92
g30
I8
I5
g21
I1060
I43534
tp109
a(g17
g18
g92
g30
I9
S'e'
g21
I660
I43534
tp110
a(g17
g18
g92
g30
I10
I6
g21
I2150
I43534
tp111
a(g17
g18
g92
g30
I11
S'f'
g21
I750
I43534
tp112
a(g17
g18
g92
g30
I12
I7
g21
I930
I43534
tp113
a(g17
g18
g92
g30
I13
S'g'
g21
I2580
I43534
tp114
a(g17
g18
g92
g30
I14
I8
g21
I1860
I43534
tp115
a(g17
g18
g92
g30
I15
S'h'
g21
I6011
I43534
tp116
a(g17
g18
g92
g30
I16
I9
g21
I1450
I43534
tp117
a(g17
g18
g92
g30
I17
S'i'
g21
I670
I43534
tp118
a(g17
g18
g92
g30
I18
I10
g21
I1680
I43534
tp119
a(g17
g18
g92
g30
I19
S'j'
g21
I750
I43534
tp120
a(g17
g18
g92
g30
I20
I11
g21
I1680
I43534
tp121
a(g17
g18
g92
g30
I21
S'k'
g21
I1740
I43534
tp122
a(g17
g18
g92
g30
I22
I12
g21
I4090
I43534
tp123
a(g17
g18
g92
g30
I23
S'l'
g21
I600
I43534
tp124
a(g17
g18
g92
g30
I24
I13
g21
I671
I43534
tp125
a(g17
g18
g92
g30
I25
S'm'
g21
I730
I43534
tp126
asS'output_format'
p127
(lp128
(S'proband_id'
p129
c__builtin__
str
p130
tp131
a(S'test_name'
p132
g130
tp133
a(S'phase'
p134
g130
tp135
a(S'trial_type'
p136
g130
tp137
a(S'n'
c__builtin__
int
p138
tp139
a(S'rsp'
p140
g130
tp141
a(S'corr'
p142
g130
tp143
a(S'rt'
p144
g138
tp145
a(S'total_time'
p146
g138
tp147
asg129
g17
sS'filename'
p148
S'C102_ctrails.data'
p149
sS'initialised'
p150
g8
(S'\x07\xdf\x02\r\x0f\x04:\x05\x10\xe0'
tRp151
sS'last_udated'
p152
g8
(S'\x07\xdf\x02\r\x0f\x04:\x05\x10\xe0'
tRp153
sg132
S'ctrails'
p154
sS'directory'
p155
S'C:\\Users\\Jbarrett\\Charlie\\charlie\\data\\raw'
p156
sS'user_id'
p157
S''
sS'test_started'
p158
I01
sS'abs_filename'
p159
S'C:\\Users\\Jbarrett\\Charlie\\charlie\\data\\raw\\C102_ctrails.data'
p160
sS'date_started'
p161
g8
(S'\x07\xdf\x02\r\x0f\x05\x1c\x02i0'
tRp162
sS'log'
p163
(lp164
(S'2015-02-13 15:04:58.332000'
S'instance created'
p165
tp166
a(S'2015-02-13 15:05:28.167000'
S'instance updated'
p167
tp168
a(S'2015-02-13 15:05:28.177000'
S'pandas DataFrame of data created'
p169
tp170
a(S'2015-02-13 15:05:28.182000'
S'data saved as csv to C:\\Users\\Jbarrett\\Charlie\\charlie\\data\\csv\\C102_ctrails.csv'
tp171
a(S'2015-02-13 15:06:04.413000'
g167
tp172
a(S'2015-02-13 15:06:04.415000'
g169
tp173
a(S'2015-02-13 15:06:04.417000'
S'data saved as csv to C:\\Users\\Jbarrett\\Charlie\\charlie\\data\\csv\\C102_ctrails.csv'
tp174
a(S'2015-02-13 15:06:19.556000'
g167
tp175
a(S'2015-02-13 15:06:19.558000'
g169
tp176
a(S'2015-02-13 15:06:19.560000'
S'data saved as csv to C:\\Users\\Jbarrett\\Charlie\\charlie\\data\\csv\\C102_ctrails.csv'
tp177
a(S'2015-02-13 15:06:57.963000'
g167
tp178
a(S'2015-02-13 15:06:57.974000'
g169
tp179
a(S'2015-02-13 15:06:57.979000'
S'data saved as csv to C:\\Users\\Jbarrett\\Charlie\\charlie\\data\\csv\\C102_ctrails.csv'
tp180
a(S'2015-02-13 15:07:19.891000'
g167
tp181
a(S'2015-02-13 15:07:19.903000'
g169
tp182
a(S'2015-02-13 15:07:19.908000'
S'data saved as csv to C:\\Users\\Jbarrett\\Charlie\\charlie\\data\\csv\\C102_ctrails.csv'
tp183
a(S'2015-02-13 15:08:15.592000'
g167
tp184
a(S'2015-02-13 15:08:15.604000'
g169
tp185
a(S'2015-02-13 15:08:15.609000'
S'data saved as csv to C:\\Users\\Jbarrett\\Charlie\\charlie\\data\\csv\\C102_ctrails.csv'
tp186
asb.