(icharlie.tools.data
Data
p1
(dp2
S'lang'
p3
S'EN'
p4
sS'control'
p5
(lp6
sS'last_updated'
p7
cdatetime
datetime
p8
(S'\x07\xdf\x02\x13\n50\x04\xf5\x88'
tRp9
sS'last_opened'
p10
g8
(S'\x07\xdf\x02\x13\n1\x15\x0c\xe0\xe0'
tRp11
sS'proj_id'
p12
S''
sS'date_done'
p13
NsS'test_done'
p14
I01
sS'data'
p15
(lp16
(S'F104'
p17
S'pcet'
p18
S'practice'
p19
I0
NI2
I2
I2
I2
S'C:\\Users\\Jbarrett\\Charlie\\charlie\\stimuli\\visual\\pcet\\000.png'
S'C:\\Users\\Jbarrett\\Charlie\\charlie\\stimuli\\visual\\pcet\\000.png'
S'C:\\Users\\Jbarrett\\Charlie\\charlie\\stimuli\\visual\\pcet\\111.png'
S'C:\\Users\\Jbarrett\\Charlie\\charlie\\stimuli\\visual\\pcet\\000.png'
I2
I1450
tp20
a(g17
g18
S'test'
p21
I0
S'thickness'
p22
I3
NNI1
S'C:\\Users\\Jbarrett\\Charlie\\charlie\\stimuli\\visual\\pcet\\010.png'
S'C:\\Users\\Jbarrett\\Charlie\\charlie\\stimuli\\visual\\pcet\\000.png'
S'C:\\Users\\Jbarrett\\Charlie\\charlie\\stimuli\\visual\\pcet\\001.png'
S'C:\\Users\\Jbarrett\\Charlie\\charlie\\stimuli\\visual\\pcet\\100.png'
I3
I2810
tp23
a(g17
g18
g21
I1
g22
I2
NNI0
S'C:\\Users\\Jbarrett\\Charlie\\charlie\\stimuli\\visual\\pcet\\110.png'
S'C:\\Users\\Jbarrett\\Charlie\\charlie\\stimuli\\visual\\pcet\\111.png'
S'C:\\Users\\Jbarrett\\Charlie\\charlie\\stimuli\\visual\\pcet\\010.png'
S'C:\\Users\\Jbarrett\\Charlie\\charlie\\stimuli\\visual\\pcet\\100.png'
I2
I2380
tp24
a(g17
g18
g21
I2
g22
I0
NNI3
S'C:\\Users\\Jbarrett\\Charlie\\charlie\\stimuli\\visual\\pcet\\010.png'
S'C:\\Users\\Jbarrett\\Charlie\\charlie\\stimuli\\visual\\pcet\\111.png'
S'C:\\Users\\Jbarrett\\Charlie\\charlie\\stimuli\\visual\\pcet\\100.png'
S'C:\\Users\\Jbarrett\\Charlie\\charlie\\stimuli\\visual\\pcet\\110.png'
I0
I1140
tp25
a(g17
g18
g21
I3
g22
I3
NNI1
S'C:\\Users\\Jbarrett\\Charlie\\charlie\\stimuli\\visual\\pcet\\000.png'
S'C:\\Users\\Jbarrett\\Charlie\\charlie\\stimuli\\visual\\pcet\\010.png'
S'C:\\Users\\Jbarrett\\Charlie\\charlie\\stimuli\\visual\\pcet\\011.png'
S'C:\\Users\\Jbarrett\\Charlie\\charlie\\stimuli\\visual\\pcet\\110.png'
I3
I1260
tp26
a(g17
g18
g21
I4
g22
I0
NNI3
S'C:\\Users\\Jbarrett\\Charlie\\charlie\\stimuli\\visual\\pcet\\011.png'
S'C:\\Users\\Jbarrett\\Charlie\\charlie\\stimuli\\visual\\pcet\\110.png'
S'C:\\Users\\Jbarrett\\Charlie\\charlie\\stimuli\\visual\\pcet\\101.png'
S'C:\\Users\\Jbarrett\\Charlie\\charlie\\stimuli\\visual\\pcet\\111.png'
I0
I1201
tp27
a(g17
g18
g21
I5
g22
I3
NNI1
S'C:\\Users\\Jbarrett\\Charlie\\charlie\\stimuli\\visual\\pcet\\100.png'
S'C:\\Users\\Jbarrett\\Charlie\\charlie\\stimuli\\visual\\pcet\\101.png'
S'C:\\Users\\Jbarrett\\Charlie\\charlie\\stimuli\\visual\\pcet\\111.png'
S'C:\\Users\\Jbarrett\\Charlie\\charlie\\stimuli\\visual\\pcet\\001.png'
I3
I1430
tp28
a(g17
g18
g21
I6
g22
I1
NNI3
S'C:\\Users\\Jbarrett\\Charlie\\charlie\\stimuli\\visual\\pcet\\010.png'
S'C:\\Users\\Jbarrett\\Charlie\\charlie\\stimuli\\visual\\pcet\\100.png'
S'C:\\Users\\Jbarrett\\Charlie\\charlie\\stimuli\\visual\\pcet\\001.png'
S'C:\\Users\\Jbarrett\\Charlie\\charlie\\stimuli\\visual\\pcet\\000.png'
I1
I1650
tp29
a(g17
g18
g21
I7
g22
I0
NNI1
S'C:\\Users\\Jbarrett\\Charlie\\charlie\\stimuli\\visual\\pcet\\101.png'
S'C:\\Users\\Jbarrett\\Charlie\\charlie\\stimuli\\visual\\pcet\\001.png'
S'C:\\Users\\Jbarrett\\Charlie\\charlie\\stimuli\\visual\\pcet\\000.png'
S'C:\\Users\\Jbarrett\\Charlie\\charlie\\stimuli\\visual\\pcet\\011.png'
I0
I1190
tp30
a(g17
g18
g21
I8
g22
I0
NNI1
S'C:\\Users\\Jbarrett\\Charlie\\charlie\\stimuli\\visual\\pcet\\010.png'
S'C:\\Users\\Jbarrett\\Charlie\\charlie\\stimuli\\visual\\pcet\\110.png'
S'C:\\Users\\Jbarrett\\Charlie\\charlie\\stimuli\\visual\\pcet\\111.png'
S'C:\\Users\\Jbarrett\\Charlie\\charlie\\stimuli\\visual\\pcet\\100.png'
I0
I1450
tp31
a(g17
g18
g21
I9
g22
I1
NNI3
S'C:\\Users\\Jbarrett\\Charlie\\charlie\\stimuli\\visual\\pcet\\100.png'
S'C:\\Users\\Jbarrett\\Charlie\\charlie\\stimuli\\visual\\pcet\\010.png'
S'C:\\Users\\Jbarrett\\Charlie\\charlie\\stimuli\\visual\\pcet\\111.png'
S'C:\\Users\\Jbarrett\\Charlie\\charlie\\stimuli\\visual\\pcet\\110.png'
I1
I1480
tp32
a(g17
g18
g21
I10
g22
I2
NNI0
S'C:\\Users\\Jbarrett\\Charlie\\charlie\\stimuli\\visual\\pcet\\111.png'
S'C:\\Users\\Jbarrett\\Charlie\\charlie\\stimuli\\visual\\pcet\\101.png'
S'C:\\Users\\Jbarrett\\Charlie\\charlie\\stimuli\\visual\\pcet\\011.png'
S'C:\\Users\\Jbarrett\\Charlie\\charlie\\stimuli\\visual\\pcet\\110.png'
I2
I1160
tp33
a(g17
g18
g21
I11
g22
I0
NNI1
S'C:\\Users\\Jbarrett\\Charlie\\charlie\\stimuli\\visual\\pcet\\011.png'
S'C:\\Users\\Jbarrett\\Charlie\\charlie\\stimuli\\visual\\pcet\\111.png'
S'C:\\Users\\Jbarrett\\Charlie\\charlie\\stimuli\\visual\\pcet\\101.png'
S'C:\\Users\\Jbarrett\\Charlie\\charlie\\stimuli\\visual\\pcet\\110.png'
I0
I1100
tp34
a(g17
g18
g21
I12
S'shape'
p35
I0
I3
I2
I1
S'C:\\Users\\Jbarrett\\Charlie\\charlie\\stimuli\\visual\\pcet\\110.png'
S'C:\\Users\\Jbarrett\\Charlie\\charlie\\stimuli\\visual\\pcet\\100.png'
S'C:\\Users\\Jbarrett\\Charlie\\charlie\\stimuli\\visual\\pcet\\101.png'
S'C:\\Users\\Jbarrett\\Charlie\\charlie\\stimuli\\visual\\pcet\\000.png'
I3
I1370
tp36
a(g17
g18
g21
I13
S'shape'
p37
I3
I2
I1
I0
S'C:\\Users\\Jbarrett\\Charlie\\charlie\\stimuli\\visual\\pcet\\101.png'
S'C:\\Users\\Jbarrett\\Charlie\\charlie\\stimuli\\visual\\pcet\\100.png'
S'C:\\Users\\Jbarrett\\Charlie\\charlie\\stimuli\\visual\\pcet\\001.png'
S'C:\\Users\\Jbarrett\\Charlie\\charlie\\stimuli\\visual\\pcet\\111.png'
I3
I3070
tp38
a(g17
g18
g21
I14
S'shape'
p39
I3
I1
I0
I2
S'C:\\Users\\Jbarrett\\Charlie\\charlie\\stimuli\\visual\\pcet\\101.png'
S'C:\\Users\\Jbarrett\\Charlie\\charlie\\stimuli\\visual\\pcet\\000.png'
S'C:\\Users\\Jbarrett\\Charlie\\charlie\\stimuli\\visual\\pcet\\100.png'
S'C:\\Users\\Jbarrett\\Charlie\\charlie\\stimuli\\visual\\pcet\\110.png'
I3
I910
tp40
a(g17
g18
g21
I15
S'shape'
p41
I1
I3
I0
I2
S'C:\\Users\\Jbarrett\\Charlie\\charlie\\stimuli\\visual\\pcet\\101.png'
S'C:\\Users\\Jbarrett\\Charlie\\charlie\\stimuli\\visual\\pcet\\110.png'
S'C:\\Users\\Jbarrett\\Charlie\\charlie\\stimuli\\visual\\pcet\\100.png'
S'C:\\Users\\Jbarrett\\Charlie\\charlie\\stimuli\\visual\\pcet\\000.png'
I1
I1040
tp42
a(g17
g18
g21
I16
S'shape'
p43
I1
I0
I3
I2
S'C:\\Users\\Jbarrett\\Charlie\\charlie\\stimuli\\visual\\pcet\\111.png'
S'C:\\Users\\Jbarrett\\Charlie\\charlie\\stimuli\\visual\\pcet\\001.png'
S'C:\\Users\\Jbarrett\\Charlie\\charlie\\stimuli\\visual\\pcet\\011.png'
S'C:\\Users\\Jbarrett\\Charlie\\charlie\\stimuli\\visual\\pcet\\010.png'
I1
I1950
tp44
a(g17
g18
g21
I17
S'shape'
p45
I2
I1
I3
I0
S'C:\\Users\\Jbarrett\\Charlie\\charlie\\stimuli\\visual\\pcet\\111.png'
S'C:\\Users\\Jbarrett\\Charlie\\charlie\\stimuli\\visual\\pcet\\011.png'
S'C:\\Users\\Jbarrett\\Charlie\\charlie\\stimuli\\visual\\pcet\\101.png'
S'C:\\Users\\Jbarrett\\Charlie\\charlie\\stimuli\\visual\\pcet\\110.png'
I2
I1330
tp46
a(g17
g18
g21
I18
S'shape'
p47
I3
I2
I1
I0
S'C:\\Users\\Jbarrett\\Charlie\\charlie\\stimuli\\visual\\pcet\\010.png'
S'C:\\Users\\Jbarrett\\Charlie\\charlie\\stimuli\\visual\\pcet\\011.png'
S'C:\\Users\\Jbarrett\\Charlie\\charlie\\stimuli\\visual\\pcet\\110.png'
S'C:\\Users\\Jbarrett\\Charlie\\charlie\\stimuli\\visual\\pcet\\000.png'
I3
I280
tp48
a(g17
g18
g21
I19
S'shape'
p49
I1
I0
I2
I3
S'C:\\Users\\Jbarrett\\Charlie\\charlie\\stimuli\\visual\\pcet\\000.png'
S'C:\\Users\\Jbarrett\\Charlie\\charlie\\stimuli\\visual\\pcet\\110.png'
S'C:\\Users\\Jbarrett\\Charlie\\charlie\\stimuli\\visual\\pcet\\101.png'
S'C:\\Users\\Jbarrett\\Charlie\\charlie\\stimuli\\visual\\pcet\\100.png'
I1
I1470
tp50
a(g17
g18
g21
I20
S'shape'
p51
I3
I2
I1
I0
S'C:\\Users\\Jbarrett\\Charlie\\charlie\\stimuli\\visual\\pcet\\101.png'
S'C:\\Users\\Jbarrett\\Charlie\\charlie\\stimuli\\visual\\pcet\\100.png'
S'C:\\Users\\Jbarrett\\Charlie\\charlie\\stimuli\\visual\\pcet\\001.png'
S'C:\\Users\\Jbarrett\\Charlie\\charlie\\stimuli\\visual\\pcet\\111.png'
I3
I1060
tp52
a(g17
g18
g21
I21
S'shape'
p53
I1
I0
I3
I2
S'C:\\Users\\Jbarrett\\Charlie\\charlie\\stimuli\\visual\\pcet\\010.png'
S'C:\\Users\\Jbarrett\\Charlie\\charlie\\stimuli\\visual\\pcet\\100.png'
S'C:\\Users\\Jbarrett\\Charlie\\charlie\\stimuli\\visual\\pcet\\110.png'
S'C:\\Users\\Jbarrett\\Charlie\\charlie\\stimuli\\visual\\pcet\\111.png'
I1
I1580
tp54
a(g17
g18
g21
I22
S'shape'
p55
I2
I1
I0
I3
S'C:\\Users\\Jbarrett\\Charlie\\charlie\\stimuli\\visual\\pcet\\000.png'
S'C:\\Users\\Jbarrett\\Charlie\\charlie\\stimuli\\visual\\pcet\\101.png'
S'C:\\Users\\Jbarrett\\Charlie\\charlie\\stimuli\\visual\\pcet\\011.png'
S'C:\\Users\\Jbarrett\\Charlie\\charlie\\stimuli\\visual\\pcet\\001.png'
I2
I1660
tp56
a(g17
g18
g21
I23
S'shape'
p57
I1
I0
I2
I3
S'C:\\Users\\Jbarrett\\Charlie\\charlie\\stimuli\\visual\\pcet\\100.png'
S'C:\\Users\\Jbarrett\\Charlie\\charlie\\stimuli\\visual\\pcet\\010.png'
S'C:\\Users\\Jbarrett\\Charlie\\charlie\\stimuli\\visual\\pcet\\001.png'
S'C:\\Users\\Jbarrett\\Charlie\\charlie\\stimuli\\visual\\pcet\\000.png'
I1
I2190
tp58
a(g17
g18
g21
I24
S'size'
p59
I0
I2
I3
I1
S'C:\\Users\\Jbarrett\\Charlie\\charlie\\stimuli\\visual\\pcet\\101.png'
S'C:\\Users\\Jbarrett\\Charlie\\charlie\\stimuli\\visual\\pcet\\100.png'
S'C:\\Users\\Jbarrett\\Charlie\\charlie\\stimuli\\visual\\pcet\\110.png'
S'C:\\Users\\Jbarrett\\Charlie\\charlie\\stimuli\\visual\\pcet\\000.png'
I2
I2631
tp60
a(g17
g18
g21
I25
S'size'
p61
I3
I2
I0
I1
S'C:\\Users\\Jbarrett\\Charlie\\charlie\\stimuli\\visual\\pcet\\001.png'
S'C:\\Users\\Jbarrett\\Charlie\\charlie\\stimuli\\visual\\pcet\\101.png'
S'C:\\Users\\Jbarrett\\Charlie\\charlie\\stimuli\\visual\\pcet\\111.png'
S'C:\\Users\\Jbarrett\\Charlie\\charlie\\stimuli\\visual\\pcet\\100.png'
I3
I3712
tp62
a(g17
g18
g21
I26
S'size'
p63
I0
I3
I2
I1
S'C:\\Users\\Jbarrett\\Charlie\\charlie\\stimuli\\visual\\pcet\\000.png'
S'C:\\Users\\Jbarrett\\Charlie\\charlie\\stimuli\\visual\\pcet\\001.png'
S'C:\\Users\\Jbarrett\\Charlie\\charlie\\stimuli\\visual\\pcet\\101.png'
S'C:\\Users\\Jbarrett\\Charlie\\charlie\\stimuli\\visual\\pcet\\011.png'
I0
I990
tp64
a(g17
g18
g21
I27
S'size'
p65
I1
I2
I3
I0
S'C:\\Users\\Jbarrett\\Charlie\\charlie\\stimuli\\visual\\pcet\\101.png'
S'C:\\Users\\Jbarrett\\Charlie\\charlie\\stimuli\\visual\\pcet\\100.png'
S'C:\\Users\\Jbarrett\\Charlie\\charlie\\stimuli\\visual\\pcet\\111.png'
S'C:\\Users\\Jbarrett\\Charlie\\charlie\\stimuli\\visual\\pcet\\001.png'
I1
I1080
tp66
a(g17
g18
g21
I28
S'size'
p67
I2
I3
I1
I0
S'C:\\Users\\Jbarrett\\Charlie\\charlie\\stimuli\\visual\\pcet\\110.png'
S'C:\\Users\\Jbarrett\\Charlie\\charlie\\stimuli\\visual\\pcet\\010.png'
S'C:\\Users\\Jbarrett\\Charlie\\charlie\\stimuli\\visual\\pcet\\111.png'
S'C:\\Users\\Jbarrett\\Charlie\\charlie\\stimuli\\visual\\pcet\\100.png'
I1
I7251
tp68
a(g17
g18
g21
I29
S'size'
p69
I1
I0
I2
I3
S'C:\\Users\\Jbarrett\\Charlie\\charlie\\stimuli\\visual\\pcet\\111.png'
S'C:\\Users\\Jbarrett\\Charlie\\charlie\\stimuli\\visual\\pcet\\100.png'
S'C:\\Users\\Jbarrett\\Charlie\\charlie\\stimuli\\visual\\pcet\\001.png'
S'C:\\Users\\Jbarrett\\Charlie\\charlie\\stimuli\\visual\\pcet\\101.png'
I0
I3200
tp70
a(g17
g18
g21
I30
S'size'
p71
I0
I1
I2
I3
S'C:\\Users\\Jbarrett\\Charlie\\charlie\\stimuli\\visual\\pcet\\011.png'
S'C:\\Users\\Jbarrett\\Charlie\\charlie\\stimuli\\visual\\pcet\\000.png'
S'C:\\Users\\Jbarrett\\Charlie\\charlie\\stimuli\\visual\\pcet\\110.png'
S'C:\\Users\\Jbarrett\\Charlie\\charlie\\stimuli\\visual\\pcet\\010.png'
I2
I1880
tp72
a(g17
g18
g21
I31
S'size'
p73
I3
I1
I0
I2
S'C:\\Users\\Jbarrett\\Charlie\\charlie\\stimuli\\visual\\pcet\\110.png'
S'C:\\Users\\Jbarrett\\Charlie\\charlie\\stimuli\\visual\\pcet\\000.png'
S'C:\\Users\\Jbarrett\\Charlie\\charlie\\stimuli\\visual\\pcet\\010.png'
S'C:\\Users\\Jbarrett\\Charlie\\charlie\\stimuli\\visual\\pcet\\011.png'
I0
I3590
tp74
a(g17
g18
g21
I32
S'size'
p75
I0
I2
I1
I3
S'C:\\Users\\Jbarrett\\Charlie\\charlie\\stimuli\\visual\\pcet\\000.png'
S'C:\\Users\\Jbarrett\\Charlie\\charlie\\stimuli\\visual\\pcet\\101.png'
S'C:\\Users\\Jbarrett\\Charlie\\charlie\\stimuli\\visual\\pcet\\011.png'
S'C:\\Users\\Jbarrett\\Charlie\\charlie\\stimuli\\visual\\pcet\\001.png'
I1
I9681
tp76
a(g17
g18
g21
I33
S'size'
p77
I3
I1
I2
I0
S'C:\\Users\\Jbarrett\\Charlie\\charlie\\stimuli\\visual\\pcet\\011.png'
S'C:\\Users\\Jbarrett\\Charlie\\charlie\\stimuli\\visual\\pcet\\001.png'
S'C:\\Users\\Jbarrett\\Charlie\\charlie\\stimuli\\visual\\pcet\\111.png'
S'C:\\Users\\Jbarrett\\Charlie\\charlie\\stimuli\\visual\\pcet\\010.png'
I1
I3010
tp78
a(g17
g18
g21
I34
S'size'
p79
I2
I3
I1
I0
S'C:\\Users\\Jbarrett\\Charlie\\charlie\\stimuli\\visual\\pcet\\011.png'
S'C:\\Users\\Jbarrett\\Charlie\\charlie\\stimuli\\visual\\pcet\\111.png'
S'C:\\Users\\Jbarrett\\Charlie\\charlie\\stimuli\\visual\\pcet\\010.png'
S'C:\\Users\\Jbarrett\\Charlie\\charlie\\stimuli\\visual\\pcet\\001.png'
I2
I4180
tp80
a(g17
g18
g21
I35
S'size'
p81
I2
I0
I1
I3
S'C:\\Users\\Jbarrett\\Charlie\\charlie\\stimuli\\visual\\pcet\\010.png'
S'C:\\Users\\Jbarrett\\Charlie\\charlie\\stimuli\\visual\\pcet\\100.png'
S'C:\\Users\\Jbarrett\\Charlie\\charlie\\stimuli\\visual\\pcet\\001.png'
S'C:\\Users\\Jbarrett\\Charlie\\charlie\\stimuli\\visual\\pcet\\000.png'
I0
I4361
tp82
a(g17
g18
g21
I36
g22
I2
I3
I1
I0
S'C:\\Users\\Jbarrett\\Charlie\\charlie\\stimuli\\visual\\pcet\\010.png'
S'C:\\Users\\Jbarrett\\Charlie\\charlie\\stimuli\\visual\\pcet\\000.png'
S'C:\\Users\\Jbarrett\\Charlie\\charlie\\stimuli\\visual\\pcet\\110.png'
S'C:\\Users\\Jbarrett\\Charlie\\charlie\\stimuli\\visual\\pcet\\011.png'
I0
I2460
tp83
a(g17
g18
g21
I37
g22
I3
I2
I1
I0
S'C:\\Users\\Jbarrett\\Charlie\\charlie\\stimuli\\visual\\pcet\\101.png'
S'C:\\Users\\Jbarrett\\Charlie\\charlie\\stimuli\\visual\\pcet\\111.png'
S'C:\\Users\\Jbarrett\\Charlie\\charlie\\stimuli\\visual\\pcet\\100.png'
S'C:\\Users\\Jbarrett\\Charlie\\charlie\\stimuli\\visual\\pcet\\001.png'
I2
I3050
tp84
a(g17
g18
g21
I38
g22
I0
I3
I1
I2
S'C:\\Users\\Jbarrett\\Charlie\\charlie\\stimuli\\visual\\pcet\\100.png'
S'C:\\Users\\Jbarrett\\Charlie\\charlie\\stimuli\\visual\\pcet\\010.png'
S'C:\\Users\\Jbarrett\\Charlie\\charlie\\stimuli\\visual\\pcet\\000.png'
S'C:\\Users\\Jbarrett\\Charlie\\charlie\\stimuli\\visual\\pcet\\001.png'
I3
I5631
tp85
a(g17
g18
g21
I39
g22
I0
I3
I2
I1
S'C:\\Users\\Jbarrett\\Charlie\\charlie\\stimuli\\visual\\pcet\\010.png'
S'C:\\Users\\Jbarrett\\Charlie\\charlie\\stimuli\\visual\\pcet\\110.png'
S'C:\\Users\\Jbarrett\\Charlie\\charlie\\stimuli\\visual\\pcet\\100.png'
S'C:\\Users\\Jbarrett\\Charlie\\charlie\\stimuli\\visual\\pcet\\111.png'
I0
I2740
tp86
a(g17
g18
g21
I40
g22
I0
I1
I2
I3
S'C:\\Users\\Jbarrett\\Charlie\\charlie\\stimuli\\visual\\pcet\\001.png'
S'C:\\Users\\Jbarrett\\Charlie\\charlie\\stimuli\\visual\\pcet\\100.png'
S'C:\\Users\\Jbarrett\\Charlie\\charlie\\stimuli\\visual\\pcet\\111.png'
S'C:\\Users\\Jbarrett\\Charlie\\charlie\\stimuli\\visual\\pcet\\101.png'
I0
I910
tp87
a(g17
g18
g21
I41
g22
I3
I0
I2
I1
S'C:\\Users\\Jbarrett\\Charlie\\charlie\\stimuli\\visual\\pcet\\111.png'
S'C:\\Users\\Jbarrett\\Charlie\\charlie\\stimuli\\visual\\pcet\\110.png'
S'C:\\Users\\Jbarrett\\Charlie\\charlie\\stimuli\\visual\\pcet\\100.png'
S'C:\\Users\\Jbarrett\\Charlie\\charlie\\stimuli\\visual\\pcet\\010.png'
I3
I1220
tp88
a(g17
g18
g21
I42
g22
I0
I3
I1
I2
S'C:\\Users\\Jbarrett\\Charlie\\charlie\\stimuli\\visual\\pcet\\110.png'
S'C:\\Users\\Jbarrett\\Charlie\\charlie\\stimuli\\visual\\pcet\\000.png'
S'C:\\Users\\Jbarrett\\Charlie\\charlie\\stimuli\\visual\\pcet\\010.png'
S'C:\\Users\\Jbarrett\\Charlie\\charlie\\stimuli\\visual\\pcet\\011.png'
I0
I1290
tp89
a(g17
g18
g21
I43
g22
I0
I3
I2
I1
S'C:\\Users\\Jbarrett\\Charlie\\charlie\\stimuli\\visual\\pcet\\000.png'
S'C:\\Users\\Jbarrett\\Charlie\\charlie\\stimuli\\visual\\pcet\\100.png'
S'C:\\Users\\Jbarrett\\Charlie\\charlie\\stimuli\\visual\\pcet\\110.png'
S'C:\\Users\\Jbarrett\\Charlie\\charlie\\stimuli\\visual\\pcet\\101.png'
I0
I840
tp90
a(g17
g18
g21
I44
g22
I2
I1
I3
I0
S'C:\\Users\\Jbarrett\\Charlie\\charlie\\stimuli\\visual\\pcet\\010.png'
S'C:\\Users\\Jbarrett\\Charlie\\charlie\\stimuli\\visual\\pcet\\011.png'
S'C:\\Users\\Jbarrett\\Charlie\\charlie\\stimuli\\visual\\pcet\\110.png'
S'C:\\Users\\Jbarrett\\Charlie\\charlie\\stimuli\\visual\\pcet\\000.png'
I2
I1520
tp91
a(g17
g18
g21
I45
g22
I3
I0
I2
I1
S'C:\\Users\\Jbarrett\\Charlie\\charlie\\stimuli\\visual\\pcet\\011.png'
S'C:\\Users\\Jbarrett\\Charlie\\charlie\\stimuli\\visual\\pcet\\010.png'
S'C:\\Users\\Jbarrett\\Charlie\\charlie\\stimuli\\visual\\pcet\\000.png'
S'C:\\Users\\Jbarrett\\Charlie\\charlie\\stimuli\\visual\\pcet\\110.png'
I3
I2701
tp92
a(g17
g18
g21
I46
g22
I1
I3
I2
I0
S'C:\\Users\\Jbarrett\\Charlie\\charlie\\stimuli\\visual\\pcet\\101.png'
S'C:\\Users\\Jbarrett\\Charlie\\charlie\\stimuli\\visual\\pcet\\001.png'
S'C:\\Users\\Jbarrett\\Charlie\\charlie\\stimuli\\visual\\pcet\\111.png'
S'C:\\Users\\Jbarrett\\Charlie\\charlie\\stimuli\\visual\\pcet\\100.png'
I1
I5330
tp93
a(g17
g18
g21
I47
g22
I1
I3
I2
I0
S'C:\\Users\\Jbarrett\\Charlie\\charlie\\stimuli\\visual\\pcet\\010.png'
S'C:\\Users\\Jbarrett\\Charlie\\charlie\\stimuli\\visual\\pcet\\110.png'
S'C:\\Users\\Jbarrett\\Charlie\\charlie\\stimuli\\visual\\pcet\\000.png'
S'C:\\Users\\Jbarrett\\Charlie\\charlie\\stimuli\\visual\\pcet\\011.png'
I1
I2030
tp94
a(g17
g18
g21
I48
S'shape'
p95
I3
I2
I1
I0
S'C:\\Users\\Jbarrett\\Charlie\\charlie\\stimuli\\visual\\pcet\\110.png'
S'C:\\Users\\Jbarrett\\Charlie\\charlie\\stimuli\\visual\\pcet\\111.png'
S'C:\\Users\\Jbarrett\\Charlie\\charlie\\stimuli\\visual\\pcet\\010.png'
S'C:\\Users\\Jbarrett\\Charlie\\charlie\\stimuli\\visual\\pcet\\100.png'
I2
I1720
tp96
a(g17
g18
g21
I49
S'shape'
p97
I1
I0
I3
I2
S'C:\\Users\\Jbarrett\\Charlie\\charlie\\stimuli\\visual\\pcet\\101.png'
S'C:\\Users\\Jbarrett\\Charlie\\charlie\\stimuli\\visual\\pcet\\011.png'
S'C:\\Users\\Jbarrett\\Charlie\\charlie\\stimuli\\visual\\pcet\\001.png'
S'C:\\Users\\Jbarrett\\Charlie\\charlie\\stimuli\\visual\\pcet\\000.png'
I3
I5901
tp98
a(g17
g18
g21
I50
S'shape'
p99
I2
I0
I3
I1
S'C:\\Users\\Jbarrett\\Charlie\\charlie\\stimuli\\visual\\pcet\\101.png'
S'C:\\Users\\Jbarrett\\Charlie\\charlie\\stimuli\\visual\\pcet\\001.png'
S'C:\\Users\\Jbarrett\\Charlie\\charlie\\stimuli\\visual\\pcet\\011.png'
S'C:\\Users\\Jbarrett\\Charlie\\charlie\\stimuli\\visual\\pcet\\000.png'
I2
I400
tp100
a(g17
g18
g21
I51
S'shape'
p101
I1
I3
I0
I2
S'C:\\Users\\Jbarrett\\Charlie\\charlie\\stimuli\\visual\\pcet\\111.png'
S'C:\\Users\\Jbarrett\\Charlie\\charlie\\stimuli\\visual\\pcet\\100.png'
S'C:\\Users\\Jbarrett\\Charlie\\charlie\\stimuli\\visual\\pcet\\110.png'
S'C:\\Users\\Jbarrett\\Charlie\\charlie\\stimuli\\visual\\pcet\\010.png'
I1
I1950
tp102
a(g17
g18
g21
I52
S'shape'
p103
I1
I3
I2
I0
S'C:\\Users\\Jbarrett\\Charlie\\charlie\\stimuli\\visual\\pcet\\100.png'
S'C:\\Users\\Jbarrett\\Charlie\\charlie\\stimuli\\visual\\pcet\\110.png'
S'C:\\Users\\Jbarrett\\Charlie\\charlie\\stimuli\\visual\\pcet\\101.png'
S'C:\\Users\\Jbarrett\\Charlie\\charlie\\stimuli\\visual\\pcet\\000.png'
I1
I1720
tp104
a(g17
g18
g21
I53
S'shape'
p105
I1
I2
I0
I3
S'C:\\Users\\Jbarrett\\Charlie\\charlie\\stimuli\\visual\\pcet\\001.png'
S'C:\\Users\\Jbarrett\\Charlie\\charlie\\stimuli\\visual\\pcet\\010.png'
S'C:\\Users\\Jbarrett\\Charlie\\charlie\\stimuli\\visual\\pcet\\100.png'
S'C:\\Users\\Jbarrett\\Charlie\\charlie\\stimuli\\visual\\pcet\\000.png'
I1
I720
tp106
a(g17
g18
g21
I54
S'shape'
p107
I3
I0
I1
I2
S'C:\\Users\\Jbarrett\\Charlie\\charlie\\stimuli\\visual\\pcet\\010.png'
S'C:\\Users\\Jbarrett\\Charlie\\charlie\\stimuli\\visual\\pcet\\111.png'
S'C:\\Users\\Jbarrett\\Charlie\\charlie\\stimuli\\visual\\pcet\\110.png'
S'C:\\Users\\Jbarrett\\Charlie\\charlie\\stimuli\\visual\\pcet\\100.png'
I3
I1030
tp108
a(g17
g18
g21
I55
S'shape'
p109
I3
I0
I2
I1
S'C:\\Users\\Jbarrett\\Charlie\\charlie\\stimuli\\visual\\pcet\\001.png'
S'C:\\Users\\Jbarrett\\Charlie\\charlie\\stimuli\\visual\\pcet\\101.png'
S'C:\\Users\\Jbarrett\\Charlie\\charlie\\stimuli\\visual\\pcet\\100.png'
S'C:\\Users\\Jbarrett\\Charlie\\charlie\\stimuli\\visual\\pcet\\111.png'
I3
I1261
tp110
a(g17
g18
g21
I56
S'shape'
p111
I2
I1
I3
I0
S'C:\\Users\\Jbarrett\\Charlie\\charlie\\stimuli\\visual\\pcet\\001.png'
S'C:\\Users\\Jbarrett\\Charlie\\charlie\\stimuli\\visual\\pcet\\101.png'
S'C:\\Users\\Jbarrett\\Charlie\\charlie\\stimuli\\visual\\pcet\\011.png'
S'C:\\Users\\Jbarrett\\Charlie\\charlie\\stimuli\\visual\\pcet\\000.png'
I2
I1060
tp112
a(g17
g18
g21
I57
S'shape'
p113
I0
I2
I1
I3
S'C:\\Users\\Jbarrett\\Charlie\\charlie\\stimuli\\visual\\pcet\\100.png'
S'C:\\Users\\Jbarrett\\Charlie\\charlie\\stimuli\\visual\\pcet\\111.png'
S'C:\\Users\\Jbarrett\\Charlie\\charlie\\stimuli\\visual\\pcet\\010.png'
S'C:\\Users\\Jbarrett\\Charlie\\charlie\\stimuli\\visual\\pcet\\110.png'
I0
I1820
tp114
a(g17
g18
g21
I58
S'shape'
p115
I2
I3
I1
I0
S'C:\\Users\\Jbarrett\\Charlie\\charlie\\stimuli\\visual\\pcet\\001.png'
S'C:\\Users\\Jbarrett\\Charlie\\charlie\\stimuli\\visual\\pcet\\000.png'
S'C:\\Users\\Jbarrett\\Charlie\\charlie\\stimuli\\visual\\pcet\\011.png'
S'C:\\Users\\Jbarrett\\Charlie\\charlie\\stimuli\\visual\\pcet\\101.png'
I2
I1170
tp116
a(g17
g18
g21
I59
S'shape'
p117
I0
I1
I2
I3
S'C:\\Users\\Jbarrett\\Charlie\\charlie\\stimuli\\visual\\pcet\\111.png'
S'C:\\Users\\Jbarrett\\Charlie\\charlie\\stimuli\\visual\\pcet\\001.png'
S'C:\\Users\\Jbarrett\\Charlie\\charlie\\stimuli\\visual\\pcet\\100.png'
S'C:\\Users\\Jbarrett\\Charlie\\charlie\\stimuli\\visual\\pcet\\101.png'
I0
I1050
tp118
a(g17
g18
g21
I60
S'size'
p119
I0
I2
I1
I3
S'C:\\Users\\Jbarrett\\Charlie\\charlie\\stimuli\\visual\\pcet\\101.png'
S'C:\\Users\\Jbarrett\\Charlie\\charlie\\stimuli\\visual\\pcet\\000.png'
S'C:\\Users\\Jbarrett\\Charlie\\charlie\\stimuli\\visual\\pcet\\110.png'
S'C:\\Users\\Jbarrett\\Charlie\\charlie\\stimuli\\visual\\pcet\\100.png'
I2
I1140
tp120
a(g17
g18
g21
I61
S'size'
p121
I2
I3
I0
I1
S'C:\\Users\\Jbarrett\\Charlie\\charlie\\stimuli\\visual\\pcet\\100.png'
S'C:\\Users\\Jbarrett\\Charlie\\charlie\\stimuli\\visual\\pcet\\000.png'
S'C:\\Users\\Jbarrett\\Charlie\\charlie\\stimuli\\visual\\pcet\\001.png'
S'C:\\Users\\Jbarrett\\Charlie\\charlie\\stimuli\\visual\\pcet\\010.png'
I2
I2320
tp122
a(g17
g18
g21
I62
S'size'
p123
I2
I0
I1
I3
S'C:\\Users\\Jbarrett\\Charlie\\charlie\\stimuli\\visual\\pcet\\111.png'
S'C:\\Users\\Jbarrett\\Charlie\\charlie\\stimuli\\visual\\pcet\\001.png'
S'C:\\Users\\Jbarrett\\Charlie\\charlie\\stimuli\\visual\\pcet\\100.png'
S'C:\\Users\\Jbarrett\\Charlie\\charlie\\stimuli\\visual\\pcet\\101.png'
I2
I1210
tp124
a(g17
g18
g21
I63
S'size'
p125
I1
I0
I3
I2
S'C:\\Users\\Jbarrett\\Charlie\\charlie\\stimuli\\visual\\pcet\\010.png'
S'C:\\Users\\Jbarrett\\Charlie\\charlie\\stimuli\\visual\\pcet\\001.png'
S'C:\\Users\\Jbarrett\\Charlie\\charlie\\stimuli\\visual\\pcet\\000.png'
S'C:\\Users\\Jbarrett\\Charlie\\charlie\\stimuli\\visual\\pcet\\100.png'
I1
I1120
tp126
a(g17
g18
g21
I64
S'size'
p127
I0
I2
I3
I1
S'C:\\Users\\Jbarrett\\Charlie\\charlie\\stimuli\\visual\\pcet\\110.png'
S'C:\\Users\\Jbarrett\\Charlie\\charlie\\stimuli\\visual\\pcet\\111.png'
S'C:\\Users\\Jbarrett\\Charlie\\charlie\\stimuli\\visual\\pcet\\101.png'
S'C:\\Users\\Jbarrett\\Charlie\\charlie\\stimuli\\visual\\pcet\\011.png'
I2
I800
tp128
a(g17
g18
g21
I65
S'size'
p129
I3
I1
I0
I2
S'C:\\Users\\Jbarrett\\Charlie\\charlie\\stimuli\\visual\\pcet\\100.png'
S'C:\\Users\\Jbarrett\\Charlie\\charlie\\stimuli\\visual\\pcet\\010.png'
S'C:\\Users\\Jbarrett\\Charlie\\charlie\\stimuli\\visual\\pcet\\000.png'
S'C:\\Users\\Jbarrett\\Charlie\\charlie\\stimuli\\visual\\pcet\\001.png'
I0
I7400
tp130
a(g17
g18
g21
I66
S'size'
p131
I3
I1
I2
I0
S'C:\\Users\\Jbarrett\\Charlie\\charlie\\stimuli\\visual\\pcet\\011.png'
S'C:\\Users\\Jbarrett\\Charlie\\charlie\\stimuli\\visual\\pcet\\001.png'
S'C:\\Users\\Jbarrett\\Charlie\\charlie\\stimuli\\visual\\pcet\\111.png'
S'C:\\Users\\Jbarrett\\Charlie\\charlie\\stimuli\\visual\\pcet\\010.png'
I1
I1970
tp132
a(g17
g18
g21
I67
S'size'
p133
I1
I2
I3
I0
S'C:\\Users\\Jbarrett\\Charlie\\charlie\\stimuli\\visual\\pcet\\011.png'
S'C:\\Users\\Jbarrett\\Charlie\\charlie\\stimuli\\visual\\pcet\\010.png'
S'C:\\Users\\Jbarrett\\Charlie\\charlie\\stimuli\\visual\\pcet\\001.png'
S'C:\\Users\\Jbarrett\\Charlie\\charlie\\stimuli\\visual\\pcet\\111.png'
I1
I1721
tp134
a(g17
g18
g21
I68
S'size'
p135
I0
I2
I3
I1
S'C:\\Users\\Jbarrett\\Charlie\\charlie\\stimuli\\visual\\pcet\\100.png'
S'C:\\Users\\Jbarrett\\Charlie\\charlie\\stimuli\\visual\\pcet\\101.png'
S'C:\\Users\\Jbarrett\\Charlie\\charlie\\stimuli\\visual\\pcet\\111.png'
S'C:\\Users\\Jbarrett\\Charlie\\charlie\\stimuli\\visual\\pcet\\001.png'
I0
I1170
tp136
a(g17
g18
g21
I69
S'size'
p137
I0
I1
I2
I3
S'C:\\Users\\Jbarrett\\Charlie\\charlie\\stimuli\\visual\\pcet\\100.png'
S'C:\\Users\\Jbarrett\\Charlie\\charlie\\stimuli\\visual\\pcet\\111.png'
S'C:\\Users\\Jbarrett\\Charlie\\charlie\\stimuli\\visual\\pcet\\001.png'
S'C:\\Users\\Jbarrett\\Charlie\\charlie\\stimuli\\visual\\pcet\\101.png'
I0
I1070
tp138
a(g17
g18
g21
I70
S'size'
p139
I1
I0
I3
I2
S'C:\\Users\\Jbarrett\\Charlie\\charlie\\stimuli\\visual\\pcet\\111.png'
S'C:\\Users\\Jbarrett\\Charlie\\charlie\\stimuli\\visual\\pcet\\100.png'
S'C:\\Users\\Jbarrett\\Charlie\\charlie\\stimuli\\visual\\pcet\\101.png'
S'C:\\Users\\Jbarrett\\Charlie\\charlie\\stimuli\\visual\\pcet\\001.png'
I1
I2840
tp140
a(g17
g18
g21
I71
S'size'
p141
I1
I2
I3
I0
S'C:\\Users\\Jbarrett\\Charlie\\charlie\\stimuli\\visual\\pcet\\010.png'
p142
S'C:\\Users\\Jbarrett\\Charlie\\charlie\\stimuli\\visual\\pcet\\011.png'
p143
S'C:\\Users\\Jbarrett\\Charlie\\charlie\\stimuli\\visual\\pcet\\000.png'
p144
S'C:\\Users\\Jbarrett\\Charlie\\charlie\\stimuli\\visual\\pcet\\110.png'
p145
I0
I1570
tp146
asS'output_format'
p147
(lp148
(S'proband_id'
p149
c__builtin__
str
p150
tp151
a(S'test_name'
p152
g150
tp153
a(S'phase'
p154
g150
tp155
a(S'trialn'
p156
c__builtin__
int
p157
tp158
a(S'rule'
p159
g150
tp160
a(S'ans'
p161
g150
tp162
a(S'pers'
p163
g150
tp164
a(S'other'
p165
g150
tp166
a(S'lapse'
p167
g150
tp168
a(S'f1'
p169
g150
tp170
a(S'f2'
p171
g150
tp172
a(S'f3'
p173
g150
tp174
a(S'f4'
p175
g150
tp176
a(S'rsp'
p177
g150
tp178
a(S'rt'
p179
g157
tp180
asg149
g17
sS'filename'
p181
S'F104_pcet.data'
p182
sS'initialised'
p183
g8
(S'\x07\xdf\x02\x13\n1\x15\x0c\xe0\xe0'
tRp184
sS'last_udated'
p185
g8
(S'\x07\xdf\x02\x13\n1\x15\x0c\xe0\xe0'
tRp186
sg152
S'pcet'
p187
sS'directory'
p188
S'C:\\Users\\Jbarrett\\Charlie\\charlie\\data\\raw'
p189
sS'user_id'
p190
S''
sS'test_started'
p191
I01
sS'abs_filename'
p192
S'C:\\Users\\Jbarrett\\Charlie\\charlie\\data\\raw\\F104_pcet.data'
p193
sS'date_started'
p194
g8
(S"\x07\xdf\x02\x13\n1'\t\x148"
tRp195
sS'log'
p196
(lp197
(S'2015-02-19 10:49:21.844000'
S'instance created'
p198
tp199
a(S'2015-02-19 10:49:39.608000'
S'instance updated'
p200
tp201
a(S'2015-02-19 10:49:39.622000'
S'pandas DataFrame of data created'
p202
tp203
a(S'2015-02-19 10:49:39.624000'
S'data saved as csv to C:\\Users\\Jbarrett\\Charlie\\charlie\\data\\csv\\F104_pcet.csv'
tp204
a(S'2015-02-19 10:49:56.881000'
g200
tp205
a(S'2015-02-19 10:49:56.896000'
g202
tp206
a(S'2015-02-19 10:49:56.899000'
S'data saved as csv to C:\\Users\\Jbarrett\\Charlie\\charlie\\data\\csv\\F104_pcet.csv'
tp207
a(S'2015-02-19 10:50:00.328000'
g200
tp208
a(S'2015-02-19 10:50:00.342000'
g202
tp209
a(S'2015-02-19 10:50:00.346000'
S'data saved as csv to C:\\Users\\Jbarrett\\Charlie\\charlie\\data\\csv\\F104_pcet.csv'
tp210
a(S'2015-02-19 10:50:02.536000'
g200
tp211
a(S'2015-02-19 10:50:02.551000'
g202
tp212
a(S'2015-02-19 10:50:02.555000'
S'data saved as csv to C:\\Users\\Jbarrett\\Charlie\\charlie\\data\\csv\\F104_pcet.csv'
tp213
a(S'2015-02-19 10:50:04.867000'
g200
tp214
a(S'2015-02-19 10:50:04.882000'
g202
tp215
a(S'2015-02-19 10:50:04.885000'
S'data saved as csv to C:\\Users\\Jbarrett\\Charlie\\charlie\\data\\csv\\F104_pcet.csv'
tp216
a(S'2015-02-19 10:50:07.136000'
g200
tp217
a(S'2015-02-19 10:50:07.144000'
g202
tp218
a(S'2015-02-19 10:50:07.147000'
S'data saved as csv to C:\\Users\\Jbarrett\\Charlie\\charlie\\data\\csv\\F104_pcet.csv'
tp219
a(S'2015-02-19 10:50:09.628000'
g200
tp220
a(S'2015-02-19 10:50:09.638000'
g202
tp221
a(S'2015-02-19 10:50:09.641000'
S'data saved as csv to C:\\Users\\Jbarrett\\Charlie\\charlie\\data\\csv\\F104_pcet.csv'
tp222
a(S'2015-02-19 10:50:12.336000'
g200
tp223
a(S'2015-02-19 10:50:12.351000'
g202
tp224
a(S'2015-02-19 10:50:12.355000'
S'data saved as csv to C:\\Users\\Jbarrett\\Charlie\\charlie\\data\\csv\\F104_pcet.csv'
tp225
a(S'2015-02-19 10:50:14.595000'
g200
tp226
a(S'2015-02-19 10:50:14.606000'
g202
tp227
a(S'2015-02-19 10:50:14.608000'
S'data saved as csv to C:\\Users\\Jbarrett\\Charlie\\charlie\\data\\csv\\F104_pcet.csv'
tp228
a(S'2015-02-19 10:50:17.104000'
g200
tp229
a(S'2015-02-19 10:50:17.119000'
g202
tp230
a(S'2015-02-19 10:50:17.123000'
S'data saved as csv to C:\\Users\\Jbarrett\\Charlie\\charlie\\data\\csv\\F104_pcet.csv'
tp231
a(S'2015-02-19 10:50:19.650000'
g200
tp232
a(S'2015-02-19 10:50:19.665000'
g202
tp233
a(S'2015-02-19 10:50:19.669000'
S'data saved as csv to C:\\Users\\Jbarrett\\Charlie\\charlie\\data\\csv\\F104_pcet.csv'
tp234
a(S'2015-02-19 10:50:21.886000'
g200
tp235
a(S'2015-02-19 10:50:21.898000'
g202
tp236
a(S'2015-02-19 10:50:21.900000'
S'data saved as csv to C:\\Users\\Jbarrett\\Charlie\\charlie\\data\\csv\\F104_pcet.csv'
tp237
a(S'2015-02-19 10:50:24.054000'
g200
tp238
a(S'2015-02-19 10:50:24.070000'
g202
tp239
a(S'2015-02-19 10:50:24.074000'
S'data saved as csv to C:\\Users\\Jbarrett\\Charlie\\charlie\\data\\csv\\F104_pcet.csv'
tp240
a(S'2015-02-19 10:50:26.493000'
g200
tp241
a(S'2015-02-19 10:50:26.507000'
g202
tp242
a(S'2015-02-19 10:50:26.511000'
S'data saved as csv to C:\\Users\\Jbarrett\\Charlie\\charlie\\data\\csv\\F104_pcet.csv'
tp243
a(S'2015-02-19 10:50:30.635000'
g200
tp244
a(S'2015-02-19 10:50:30.649000'
g202
tp245
a(S'2015-02-19 10:50:30.653000'
S'data saved as csv to C:\\Users\\Jbarrett\\Charlie\\charlie\\data\\csv\\F104_pcet.csv'
tp246
a(S'2015-02-19 10:50:32.605000'
g200
tp247
a(S'2015-02-19 10:50:32.620000'
g202
tp248
a(S'2015-02-19 10:50:32.625000'
S'data saved as csv to C:\\Users\\Jbarrett\\Charlie\\charlie\\data\\csv\\F104_pcet.csv'
tp249
a(S'2015-02-19 10:50:34.713000'
g200
tp250
a(S'2015-02-19 10:50:34.727000'
g202
tp251
a(S'2015-02-19 10:50:34.731000'
S'data saved as csv to C:\\Users\\Jbarrett\\Charlie\\charlie\\data\\csv\\F104_pcet.csv'
tp252
a(S'2015-02-19 10:50:37.734000'
g200
tp253
a(S'2015-02-19 10:50:37.749000'
g202
tp254
a(S'2015-02-19 10:50:37.753000'
S'data saved as csv to C:\\Users\\Jbarrett\\Charlie\\charlie\\data\\csv\\F104_pcet.csv'
tp255
a(S'2015-02-19 10:50:40.145000'
g200
tp256
a(S'2015-02-19 10:50:40.160000'
g202
tp257
a(S'2015-02-19 10:50:40.165000'
S'data saved as csv to C:\\Users\\Jbarrett\\Charlie\\charlie\\data\\csv\\F104_pcet.csv'
tp258
a(S'2015-02-19 10:50:43.251000'
g200
tp259
a(S'2015-02-19 10:50:43.266000'
g202
tp260
a(S'2015-02-19 10:50:43.270000'
S'data saved as csv to C:\\Users\\Jbarrett\\Charlie\\charlie\\data\\csv\\F104_pcet.csv'
tp261
a(S'2015-02-19 10:50:45.791000'
g200
tp262
a(S'2015-02-19 10:50:45.806000'
g202
tp263
a(S'2015-02-19 10:50:45.808000'
S'data saved as csv to C:\\Users\\Jbarrett\\Charlie\\charlie\\data\\csv\\F104_pcet.csv'
tp264
a(S'2015-02-19 10:50:47.922000'
g200
tp265
a(S'2015-02-19 10:50:47.936000'
g202
tp266
a(S'2015-02-19 10:50:47.938000'
S'data saved as csv to C:\\Users\\Jbarrett\\Charlie\\charlie\\data\\csv\\F104_pcet.csv'
tp267
a(S'2015-02-19 10:50:50.565000'
g200
tp268
a(S'2015-02-19 10:50:50.578000'
g202
tp269
a(S'2015-02-19 10:50:50.580000'
S'data saved as csv to C:\\Users\\Jbarrett\\Charlie\\charlie\\data\\csv\\F104_pcet.csv'
tp270
a(S'2015-02-19 10:50:53.288000'
g200
tp271
a(S'2015-02-19 10:50:53.302000'
g202
tp272
a(S'2015-02-19 10:50:53.306000'
S'data saved as csv to C:\\Users\\Jbarrett\\Charlie\\charlie\\data\\csv\\F104_pcet.csv'
tp273
a(S'2015-02-19 10:50:56.537000'
g200
tp274
a(S'2015-02-19 10:50:56.548000'
g202
tp275
a(S'2015-02-19 10:50:56.550000'
S'data saved as csv to C:\\Users\\Jbarrett\\Charlie\\charlie\\data\\csv\\F104_pcet.csv'
tp276
a(S'2015-02-19 10:51:00.224000'
g200
tp277
a(S'2015-02-19 10:51:00.238000'
g202
tp278
a(S'2015-02-19 10:51:00.240000'
S'data saved as csv to C:\\Users\\Jbarrett\\Charlie\\charlie\\data\\csv\\F104_pcet.csv'
tp279
a(S'2015-02-19 10:51:05.004000'
g200
tp280
a(S'2015-02-19 10:51:05.019000'
g202
tp281
a(S'2015-02-19 10:51:05.023000'
S'data saved as csv to C:\\Users\\Jbarrett\\Charlie\\charlie\\data\\csv\\F104_pcet.csv'
tp282
a(S'2015-02-19 10:51:07.068000'
g200
tp283
a(S'2015-02-19 10:51:07.080000'
g202
tp284
a(S'2015-02-19 10:51:07.082000'
S'data saved as csv to C:\\Users\\Jbarrett\\Charlie\\charlie\\data\\csv\\F104_pcet.csv'
tp285
a(S'2015-02-19 10:51:09.215000'
g200
tp286
a(S'2015-02-19 10:51:09.230000'
g202
tp287
a(S'2015-02-19 10:51:09.234000'
S'data saved as csv to C:\\Users\\Jbarrett\\Charlie\\charlie\\data\\csv\\F104_pcet.csv'
tp288
a(S'2015-02-19 10:51:17.533000'
g200
tp289
a(S'2015-02-19 10:51:17.547000'
g202
tp290
a(S'2015-02-19 10:51:17.549000'
S'data saved as csv to C:\\Users\\Jbarrett\\Charlie\\charlie\\data\\csv\\F104_pcet.csv'
tp291
a(S'2015-02-19 10:51:21.802000'
g200
tp292
a(S'2015-02-19 10:51:21.813000'
g202
tp293
a(S'2015-02-19 10:51:21.817000'
S'data saved as csv to C:\\Users\\Jbarrett\\Charlie\\charlie\\data\\csv\\F104_pcet.csv'
tp294
a(S'2015-02-19 10:51:24.744000'
g200
tp295
a(S'2015-02-19 10:51:24.759000'
g202
tp296
a(S'2015-02-19 10:51:24.764000'
S'data saved as csv to C:\\Users\\Jbarrett\\Charlie\\charlie\\data\\csv\\F104_pcet.csv'
tp297
a(S'2015-02-19 10:51:29.405000'
g200
tp298
a(S'2015-02-19 10:51:29.420000'
g202
tp299
a(S'2015-02-19 10:51:29.424000'
S'data saved as csv to C:\\Users\\Jbarrett\\Charlie\\charlie\\data\\csv\\F104_pcet.csv'
tp300
a(S'2015-02-19 10:51:40.155000'
g200
tp301
a(S'2015-02-19 10:51:40.170000'
g202
tp302
a(S'2015-02-19 10:51:40.174000'
S'data saved as csv to C:\\Users\\Jbarrett\\Charlie\\charlie\\data\\csv\\F104_pcet.csv'
tp303
a(S'2015-02-19 10:51:44.242000'
g200
tp304
a(S'2015-02-19 10:51:44.253000'
g202
tp305
a(S'2015-02-19 10:51:44.256000'
S'data saved as csv to C:\\Users\\Jbarrett\\Charlie\\charlie\\data\\csv\\F104_pcet.csv'
tp306
a(S'2015-02-19 10:51:49.492000'
g200
tp307
a(S'2015-02-19 10:51:49.503000'
g202
tp308
a(S'2015-02-19 10:51:49.506000'
S'data saved as csv to C:\\Users\\Jbarrett\\Charlie\\charlie\\data\\csv\\F104_pcet.csv'
tp309
a(S'2015-02-19 10:51:54.908000'
g200
tp310
a(S'2015-02-19 10:51:54.923000'
g202
tp311
a(S'2015-02-19 10:51:54.928000'
S'data saved as csv to C:\\Users\\Jbarrett\\Charlie\\charlie\\data\\csv\\F104_pcet.csv'
tp312
a(S'2015-02-19 10:51:58.431000'
g200
tp313
a(S'2015-02-19 10:51:58.443000'
g202
tp314
a(S'2015-02-19 10:51:58.446000'
S'data saved as csv to C:\\Users\\Jbarrett\\Charlie\\charlie\\data\\csv\\F104_pcet.csv'
tp315
a(S'2015-02-19 10:52:02.549000'
g200
tp316
a(S'2015-02-19 10:52:02.565000'
g202
tp317
a(S'2015-02-19 10:52:02.570000'
S'data saved as csv to C:\\Users\\Jbarrett\\Charlie\\charlie\\data\\csv\\F104_pcet.csv'
tp318
a(S'2015-02-19 10:52:09.246000'
g200
tp319
a(S'2015-02-19 10:52:09.261000'
g202
tp320
a(S'2015-02-19 10:52:09.266000'
S'data saved as csv to C:\\Users\\Jbarrett\\Charlie\\charlie\\data\\csv\\F104_pcet.csv'
tp321
a(S'2015-02-19 10:52:13.055000'
g200
tp322
a(S'2015-02-19 10:52:13.069000'
g202
tp323
a(S'2015-02-19 10:52:13.074000'
S'data saved as csv to C:\\Users\\Jbarrett\\Charlie\\charlie\\data\\csv\\F104_pcet.csv'
tp324
a(S'2015-02-19 10:52:15.037000'
g200
tp325
a(S'2015-02-19 10:52:15.052000'
g202
tp326
a(S'2015-02-19 10:52:15.057000'
S'data saved as csv to C:\\Users\\Jbarrett\\Charlie\\charlie\\data\\csv\\F104_pcet.csv'
tp327
a(S'2015-02-19 10:52:17.324000'
g200
tp328
a(S'2015-02-19 10:52:17.339000'
g202
tp329
a(S'2015-02-19 10:52:17.341000'
S'data saved as csv to C:\\Users\\Jbarrett\\Charlie\\charlie\\data\\csv\\F104_pcet.csv'
tp330
a(S'2015-02-19 10:52:19.675000'
g200
tp331
a(S'2015-02-19 10:52:19.691000'
g202
tp332
a(S'2015-02-19 10:52:19.696000'
S'data saved as csv to C:\\Users\\Jbarrett\\Charlie\\charlie\\data\\csv\\F104_pcet.csv'
tp333
a(S'2015-02-19 10:52:21.586000'
g200
tp334
a(S'2015-02-19 10:52:21.601000'
g202
tp335
a(S'2015-02-19 10:52:21.603000'
S'data saved as csv to C:\\Users\\Jbarrett\\Charlie\\charlie\\data\\csv\\F104_pcet.csv'
tp336
a(S'2015-02-19 10:52:24.167000'
g200
tp337
a(S'2015-02-19 10:52:24.181000'
g202
tp338
a(S'2015-02-19 10:52:24.184000'
S'data saved as csv to C:\\Users\\Jbarrett\\Charlie\\charlie\\data\\csv\\F104_pcet.csv'
tp339
a(S'2015-02-19 10:52:27.930000'
g200
tp340
a(S'2015-02-19 10:52:27.944000'
g202
tp341
a(S'2015-02-19 10:52:27.949000'
S'data saved as csv to C:\\Users\\Jbarrett\\Charlie\\charlie\\data\\csv\\F104_pcet.csv'
tp342
a(S'2015-02-19 10:52:34.339000'
g200
tp343
a(S'2015-02-19 10:52:34.354000'
g202
tp344
a(S'2015-02-19 10:52:34.359000'
S'data saved as csv to C:\\Users\\Jbarrett\\Charlie\\charlie\\data\\csv\\F104_pcet.csv'
tp345
a(S'2015-02-19 10:52:37.447000'
g200
tp346
a(S'2015-02-19 10:52:37.462000'
g202
tp347
a(S'2015-02-19 10:52:37.468000'
S'data saved as csv to C:\\Users\\Jbarrett\\Charlie\\charlie\\data\\csv\\F104_pcet.csv'
tp348
a(S'2015-02-19 10:52:40.236000'
g200
tp349
a(S'2015-02-19 10:52:40.251000'
g202
tp350
a(S'2015-02-19 10:52:40.256000'
S'data saved as csv to C:\\Users\\Jbarrett\\Charlie\\charlie\\data\\csv\\F104_pcet.csv'
tp351
a(S'2015-02-19 10:52:47.207000'
g200
tp352
a(S'2015-02-19 10:52:47.222000'
g202
tp353
a(S'2015-02-19 10:52:47.225000'
S'data saved as csv to C:\\Users\\Jbarrett\\Charlie\\charlie\\data\\csv\\F104_pcet.csv'
tp354
a(S'2015-02-19 10:52:49.737000'
g200
tp355
a(S'2015-02-19 10:52:49.751000'
g202
tp356
a(S'2015-02-19 10:52:49.757000'
S'data saved as csv to C:\\Users\\Jbarrett\\Charlie\\charlie\\data\\csv\\F104_pcet.csv'
tp357
a(S'2015-02-19 10:52:52.762000'
g200
tp358
a(S'2015-02-19 10:52:52.773000'
g202
tp359
a(S'2015-02-19 10:52:52.776000'
S'data saved as csv to C:\\Users\\Jbarrett\\Charlie\\charlie\\data\\csv\\F104_pcet.csv'
tp360
a(S'2015-02-19 10:52:55.539000'
g200
tp361
a(S'2015-02-19 10:52:55.554000'
g202
tp362
a(S'2015-02-19 10:52:55.560000'
S'data saved as csv to C:\\Users\\Jbarrett\\Charlie\\charlie\\data\\csv\\F104_pcet.csv'
tp363
a(S'2015-02-19 10:52:57.320000'
g200
tp364
a(S'2015-02-19 10:52:57.333000'
g202
tp365
a(S'2015-02-19 10:52:57.336000'
S'data saved as csv to C:\\Users\\Jbarrett\\Charlie\\charlie\\data\\csv\\F104_pcet.csv'
tp366
a(S'2015-02-19 10:52:59.414000'
g200
tp367
a(S'2015-02-19 10:52:59.429000'
g202
tp368
a(S'2015-02-19 10:52:59.432000'
S'data saved as csv to C:\\Users\\Jbarrett\\Charlie\\charlie\\data\\csv\\F104_pcet.csv'
tp369
a(S'2015-02-19 10:53:01.743000'
g200
tp370
a(S'2015-02-19 10:53:01.758000'
g202
tp371
a(S'2015-02-19 10:53:01.763000'
S'data saved as csv to C:\\Users\\Jbarrett\\Charlie\\charlie\\data\\csv\\F104_pcet.csv'
tp372
a(S'2015-02-19 10:53:03.875000'
g200
tp373
a(S'2015-02-19 10:53:03.890000'
g202
tp374
a(S'2015-02-19 10:53:03.896000'
S'data saved as csv to C:\\Users\\Jbarrett\\Charlie\\charlie\\data\\csv\\F104_pcet.csv'
tp375
a(S'2015-02-19 10:53:06.765000'
g200
tp376
a(S'2015-02-19 10:53:06.781000'
g202
tp377
a(S'2015-02-19 10:53:06.783000'
S'data saved as csv to C:\\Users\\Jbarrett\\Charlie\\charlie\\data\\csv\\F104_pcet.csv'
tp378
a(S'2015-02-19 10:53:09.001000'
g200
tp379
a(S'2015-02-19 10:53:09.017000'
g202
tp380
a(S'2015-02-19 10:53:09.022000'
S'data saved as csv to C:\\Users\\Jbarrett\\Charlie\\charlie\\data\\csv\\F104_pcet.csv'
tp381
a(S'2015-02-19 10:53:11.130000'
g200
tp382
a(S'2015-02-19 10:53:11.145000'
g202
tp383
a(S'2015-02-19 10:53:11.150000'
S'data saved as csv to C:\\Users\\Jbarrett\\Charlie\\charlie\\data\\csv\\F104_pcet.csv'
tp384
a(S'2015-02-19 10:53:13.340000'
g200
tp385
a(S'2015-02-19 10:53:13.353000'
g202
tp386
a(S'2015-02-19 10:53:13.356000'
S'data saved as csv to C:\\Users\\Jbarrett\\Charlie\\charlie\\data\\csv\\F104_pcet.csv'
tp387
a(S'2015-02-19 10:53:16.718000'
g200
tp388
a(S'2015-02-19 10:53:16.733000'
g202
tp389
a(S'2015-02-19 10:53:16.739000'
S'data saved as csv to C:\\Users\\Jbarrett\\Charlie\\charlie\\data\\csv\\F104_pcet.csv'
tp390
a(S'2015-02-19 10:53:19.005000'
g200
tp391
a(S'2015-02-19 10:53:19.021000'
g202
tp392
a(S'2015-02-19 10:53:19.024000'
S'data saved as csv to C:\\Users\\Jbarrett\\Charlie\\charlie\\data\\csv\\F104_pcet.csv'
tp393
a(S'2015-02-19 10:53:21.188000'
g200
tp394
a(S'2015-02-19 10:53:21.203000'
g202
tp395
a(S'2015-02-19 10:53:21.209000'
S'data saved as csv to C:\\Users\\Jbarrett\\Charlie\\charlie\\data\\csv\\F104_pcet.csv'
tp396
a(S'2015-02-19 10:53:23.065000'
g200
tp397
a(S'2015-02-19 10:53:23.081000'
g202
tp398
a(S'2015-02-19 10:53:23.087000'
S'data saved as csv to C:\\Users\\Jbarrett\\Charlie\\charlie\\data\\csv\\F104_pcet.csv'
tp399
a(S'2015-02-19 10:53:31.537000'
g200
tp400
a(S'2015-02-19 10:53:31.552000'
g202
tp401
a(S'2015-02-19 10:53:31.558000'
S'data saved as csv to C:\\Users\\Jbarrett\\Charlie\\charlie\\data\\csv\\F104_pcet.csv'
tp402
a(S'2015-02-19 10:53:34.584000'
g200
tp403
a(S'2015-02-19 10:53:34.596000'
g202
tp404
a(S'2015-02-19 10:53:34.598000'
S'data saved as csv to C:\\Users\\Jbarrett\\Charlie\\charlie\\data\\csv\\F104_pcet.csv'
tp405
a(S'2015-02-19 10:53:37.372000'
g200
tp406
a(S'2015-02-19 10:53:37.385000'
g202
tp407
a(S'2015-02-19 10:53:37.388000'
S'data saved as csv to C:\\Users\\Jbarrett\\Charlie\\charlie\\data\\csv\\F104_pcet.csv'
tp408
a(S'2015-02-19 10:53:39.611000'
g200
tp409
a(S'2015-02-19 10:53:39.627000'
g202
tp410
a(S'2015-02-19 10:53:39.632000'
S'data saved as csv to C:\\Users\\Jbarrett\\Charlie\\charlie\\data\\csv\\F104_pcet.csv'
tp411
a(S'2015-02-19 10:53:41.756000'
g200
tp412
a(S'2015-02-19 10:53:41.767000'
g202
tp413
a(S'2015-02-19 10:53:41.770000'
S'data saved as csv to C:\\Users\\Jbarrett\\Charlie\\charlie\\data\\csv\\F104_pcet.csv'
tp414
a(S'2015-02-19 10:53:45.663000'
g200
tp415
a(S'2015-02-19 10:53:45.678000'
g202
tp416
a(S'2015-02-19 10:53:45.684000'
S'data saved as csv to C:\\Users\\Jbarrett\\Charlie\\charlie\\data\\csv\\F104_pcet.csv'
tp417
a(S'2015-02-19 10:53:48.303000'
g200
tp418
a(S'2015-02-19 10:53:48.318000'
g202
tp419
a(S'2015-02-19 10:53:48.324000'
S'data saved as csv to C:\\Users\\Jbarrett\\Charlie\\charlie\\data\\csv\\F104_pcet.csv'
tp420
asb.