(icharlie.tools.data
Data
p1
(dp2
S'lang'
p3
S'EN'
p4
sS'control'
p5
(lp6
sS'last_updated'
p7
cdatetime
datetime
p8
(S'\x07\xdf\x02\x13\n\x17/\x05\xd0H'
tRp9
sS'last_opened'
p10
g8
(S'\x07\xdf\x02\x13\n\x12\x00\x07\xd0\x00'
tRp11
sS'proj_id'
p12
S''
sS'date_done'
p13
g8
(S'\x07\xdf\x02\x13\n\x17/\x05\xc4\x90'
tRp14
sS'test_done'
p15
I01
sS'data'
p16
(lp17
(S'F104'
p18
S'verbal_fluency'
p19
I0
S'True'
p20
tp21
a(g18
g19
I0
g20
tp22
a(g18
g19
I0
g20
tp23
a(g18
g19
I0
g20
tp24
a(g18
g19
I0
g20
tp25
a(g18
g19
I0
g20
tp26
a(g18
g19
I0
g20
tp27
a(g18
g19
I0
g20
tp28
a(g18
g19
I0
g20
tp29
a(g18
g19
I0
g20
tp30
a(g18
g19
I0
g20
tp31
a(g18
g19
I0
g20
tp32
a(g18
g19
I0
g20
tp33
a(g18
g19
I0
g20
tp34
a(g18
g19
I0
g20
tp35
a(g18
g19
I0
g20
tp36
a(g18
g19
I0
g20
tp37
a(g18
g19
I0
S'False'
p38
tp39
a(g18
g19
I0
g20
tp40
a(g18
g19
I0
g20
tp41
a(g18
g19
I0
g20
tp42
a(g18
g19
I0
g20
tp43
a(g18
g19
I0
g20
tp44
a(g18
g19
I0
g20
tp45
a(g18
g19
I1
g20
tp46
a(g18
g19
I1
g20
tp47
a(g18
g19
I1
g20
tp48
a(g18
g19
I1
g20
tp49
a(g18
g19
I1
g20
tp50
a(g18
g19
I1
g20
tp51
a(g18
g19
I1
g20
tp52
a(g18
g19
I1
g20
tp53
a(g18
g19
I1
g20
tp54
a(g18
g19
I1
g20
tp55
a(g18
g19
I1
g20
tp56
a(g18
g19
I1
g20
tp57
a(g18
g19
I1
g20
tp58
a(g18
g19
I1
g20
tp59
a(g18
g19
I1
g20
tp60
a(g18
g19
I1
g20
tp61
a(g18
g19
I1
g20
tp62
a(g18
g19
I1
g38
tp63
a(g18
g19
I1
g20
tp64
a(g18
g19
I2
g20
tp65
a(g18
g19
I2
g20
tp66
a(g18
g19
I2
g20
tp67
a(g18
g19
I2
g20
tp68
a(g18
g19
I2
g20
tp69
a(g18
g19
I2
g20
tp70
a(g18
g19
I2
g20
tp71
a(g18
g19
I2
g20
tp72
a(g18
g19
I2
g20
tp73
a(g18
g19
I2
g20
tp74
a(g18
g19
I2
g20
tp75
a(g18
g19
I2
g20
tp76
a(g18
g19
I2
g20
tp77
a(g18
g19
I2
g20
tp78
a(g18
g19
I2
g20
tp79
a(g18
g19
I2
g20
tp80
a(g18
g19
I2
g20
tp81
a(g18
g19
I2
g20
tp82
a(g18
g19
I2
g20
tp83
a(g18
g19
I2
g20
tp84
a(g18
g19
I2
g20
tp85
a(g18
g19
I2
g20
tp86
a(g18
g19
I2
g20
tp87
a(g18
g19
I2
g20
tp88
a(g18
g19
I2
g20
tp89
a(g18
g19
I2
g20
tp90
a(g18
g19
I3
g20
tp91
a(g18
g19
I3
g20
tp92
a(g18
g19
I3
g20
tp93
a(g18
g19
I3
g20
tp94
a(g18
g19
I3
g20
tp95
a(g18
g19
I3
g20
tp96
a(g18
g19
I3
g20
tp97
a(g18
g19
I3
g20
tp98
a(g18
g19
I3
g20
tp99
a(g18
g19
I3
g20
tp100
a(g18
g19
I3
g20
tp101
a(g18
g19
I3
g20
tp102
a(g18
g19
I3
g20
tp103
a(g18
g19
I3
g20
tp104
a(g18
g19
I3
g20
tp105
a(g18
g19
I3
g20
tp106
a(g18
g19
I3
g20
tp107
a(g18
g19
I3
g20
tp108
a(g18
g19
I3
g20
tp109
a(g18
g19
I3
g20
tp110
a(g18
g19
I3
g20
tp111
a(g18
g19
I3
g38
tp112
a(g18
g19
I3
g20
tp113
a(g18
g19
I3
g20
tp114
a(g18
g19
I3
g20
tp115
a(g18
g19
I3
g20
tp116
a(g18
g19
I3
g20
tp117
a(g18
g19
I3
g20
tp118
a(g18
g19
I3
g20
tp119
a(g18
g19
I3
g20
tp120
a(g18
g19
I3
g20
tp121
a(g18
g19
I3
g20
tp122
a(g18
g19
I3
g20
tp123
a(g18
g19
I3
g20
tp124
a(g18
g19
I3
g20
tp125
a(g18
g19
I3
g20
tp126
a(g18
g19
I3
g20
tp127
asS'output_format'
p128
(lp129
(S'proband_id'
p130
c__builtin__
str
p131
tp132
a(S'test_name'
p133
g131
tp134
a(S'trialn'
p135
c__builtin__
int
p136
tp137
a(S'rsp'
p138
g131
tp139
asg130
g18
sS'filename'
p140
S'F104_verbal_fluency.data'
p141
sS'initialised'
p142
g8
(S'\x07\xdf\x02\x13\n\x12\x00\x07\xd0\x00'
tRp143
sS'last_udated'
p144
g8
(S'\x07\xdf\x02\x13\n\x12\x00\x07\xd0\x00'
tRp145
sg133
S'verbal_fluency'
p146
sS'directory'
p147
S'C:\\Users\\Jbarrett\\Charlie\\charlie\\data\\raw'
p148
sS'user_id'
p149
S''
sS'test_started'
p150
I01
sS'abs_filename'
p151
S'C:\\Users\\Jbarrett\\Charlie\\charlie\\data\\raw\\F104_verbal_fluency.data'
p152
sS'date_started'
p153
g8
(S'\x07\xdf\x02\x13\n\x14\x0e\ri\x98'
tRp154
sS'log'
p155
(lp156
(S'2015-02-19 10:18:00.512000'
S'instance created'
p157
tp158
a(S'2015-02-19 10:20:14.887000'
S'instance updated'
p159
tp160
a(S'2015-02-19 10:20:14.893000'
S'pandas DataFrame of data created'
p161
tp162
a(S'2015-02-19 10:20:14.897000'
S'data saved as csv to C:\\Users\\Jbarrett\\Charlie\\charlie\\data\\csv\\F104_verbal_fluency.csv'
tp163
a(S'2015-02-19 10:20:19.391000'
g159
tp164
a(S'2015-02-19 10:20:19.396000'
g161
tp165
a(S'2015-02-19 10:20:19.400000'
S'data saved as csv to C:\\Users\\Jbarrett\\Charlie\\charlie\\data\\csv\\F104_verbal_fluency.csv'
tp166
a(S'2015-02-19 10:21:23.082000'
g159
tp167
a(S'2015-02-19 10:21:23.087000'
g161
tp168
a(S'2015-02-19 10:21:23.091000'
S'data saved as csv to C:\\Users\\Jbarrett\\Charlie\\charlie\\data\\csv\\F104_verbal_fluency.csv'
tp169
a(S'2015-02-19 10:21:25.337000'
g159
tp170
a(S'2015-02-19 10:21:25.342000'
g161
tp171
a(S'2015-02-19 10:21:25.346000'
S'data saved as csv to C:\\Users\\Jbarrett\\Charlie\\charlie\\data\\csv\\F104_verbal_fluency.csv'
tp172
a(S'2015-02-19 10:22:38.046000'
g159
tp173
a(S'2015-02-19 10:22:38.052000'
g161
tp174
a(S'2015-02-19 10:22:38.055000'
S'data saved as csv to C:\\Users\\Jbarrett\\Charlie\\charlie\\data\\csv\\F104_verbal_fluency.csv'
tp175
a(S'2015-02-19 10:22:43.565000'
g159
tp176
a(S'2015-02-19 10:22:43.571000'
g161
tp177
a(S'2015-02-19 10:22:43.575000'
S'data saved as csv to C:\\Users\\Jbarrett\\Charlie\\charlie\\data\\csv\\F104_verbal_fluency.csv'
tp178
a(S'2015-02-19 10:23:47.378000'
g159
tp179
a(S'2015-02-19 10:23:47.380000'
g161
tp180
a(S'2015-02-19 10:23:47.381000'
S'data saved as csv to C:\\Users\\Jbarrett\\Charlie\\charlie\\data\\csv\\F104_verbal_fluency.csv'
tp181
asb.