(icharlie.tools.data
Data
p1
(dp2
S'lang'
p3
S'EN'
p4
sS'control'
p5
(lp6
sS'last_updated'
p7
cdatetime
datetime
p8
(S'\x07\xdf\x02\x13\t3\x06\x01\xb5\x80'
tRp9
sS'last_opened'
p10
g8
(S'\x07\xdf\x02\x13\t0\x0c\x00\x84\xd0'
tRp11
sS'proj_id'
p12
S''
sS'date_done'
p13
NsS'test_done'
p14
I01
sS'data'
p15
(lp16
(S'F104'
p17
S'digit_symbol'
p18
S'practice'
p19
I0
I2
I2
S'Yes'
p20
S'C:\\Users\\Jbarrett\\Charlie\\charlie\\stimuli\\visual\\digit_symbol\\sym2.bmp'
g20
I7761
tp21
a(g17
g18
g19
I1
I6
I6
g20
S'C:\\Users\\Jbarrett\\Charlie\\charlie\\stimuli\\visual\\digit_symbol\\sym6.bmp'
S'No'
p22
I2250
tp23
a(g17
g18
g19
I2
I8
I4
g22
S'C:\\Users\\Jbarrett\\Charlie\\charlie\\stimuli\\visual\\digit_symbol\\sym4.bmp'
g22
I2830
tp24
a(g17
g18
g19
I3
I4
I4
g20
S'C:\\Users\\Jbarrett\\Charlie\\charlie\\stimuli\\visual\\digit_symbol\\sym4.bmp'
g20
I3331
tp25
a(g17
g18
g19
I4
I7
I7
g20
S'C:\\Users\\Jbarrett\\Charlie\\charlie\\stimuli\\visual\\digit_symbol\\sym7.bmp'
g20
I1720
tp26
a(g17
g18
g19
I5
I6
I5
g22
S'C:\\Users\\Jbarrett\\Charlie\\charlie\\stimuli\\visual\\digit_symbol\\sym5.bmp'
g22
I1490
tp27
a(g17
g18
g19
I6
I2
I8
g22
S'C:\\Users\\Jbarrett\\Charlie\\charlie\\stimuli\\visual\\digit_symbol\\sym8.bmp'
g22
I2180
tp28
a(g17
g18
g19
I7
I9
I2
g22
S'C:\\Users\\Jbarrett\\Charlie\\charlie\\stimuli\\visual\\digit_symbol\\sym2.bmp'
g22
I2680
tp29
a(g17
g18
g19
I8
I3
I7
g22
S'C:\\Users\\Jbarrett\\Charlie\\charlie\\stimuli\\visual\\digit_symbol\\sym7.bmp'
g22
I3400
tp30
a(g17
g18
g19
I9
I5
I6
g22
S'C:\\Users\\Jbarrett\\Charlie\\charlie\\stimuli\\visual\\digit_symbol\\sym6.bmp'
g22
I2330
tp31
a(g17
g18
S'test'
p32
I0
I8
I8
g20
S'C:\\Users\\Jbarrett\\Charlie\\charlie\\stimuli\\visual\\digit_symbol\\sym8.bmp'
g20
I2006
tp33
a(g17
g18
g32
I1
I1
I4
g22
S'C:\\Users\\Jbarrett\\Charlie\\charlie\\stimuli\\visual\\digit_symbol\\sym4.bmp'
g22
I2253
tp34
a(g17
g18
g32
I2
I2
I8
g22
S'C:\\Users\\Jbarrett\\Charlie\\charlie\\stimuli\\visual\\digit_symbol\\sym8.bmp'
g22
I2253
tp35
a(g17
g18
g32
I3
I6
I2
g22
S'C:\\Users\\Jbarrett\\Charlie\\charlie\\stimuli\\visual\\digit_symbol\\sym2.bmp'
g22
I1753
tp36
a(g17
g18
g32
I4
I4
I4
g20
S'C:\\Users\\Jbarrett\\Charlie\\charlie\\stimuli\\visual\\digit_symbol\\sym4.bmp'
g20
I1754
tp37
a(g17
g18
g32
I5
I9
I5
g22
S'C:\\Users\\Jbarrett\\Charlie\\charlie\\stimuli\\visual\\digit_symbol\\sym5.bmp'
g22
I1753
tp38
a(g17
g18
g32
I6
I5
I6
g22
S'C:\\Users\\Jbarrett\\Charlie\\charlie\\stimuli\\visual\\digit_symbol\\sym6.bmp'
g22
I1503
tp39
a(g17
g18
g32
I7
I3
I3
g20
S'C:\\Users\\Jbarrett\\Charlie\\charlie\\stimuli\\visual\\digit_symbol\\sym3.bmp'
g20
I2003
tp40
a(g17
g18
g32
I8
I4
I4
g20
S'C:\\Users\\Jbarrett\\Charlie\\charlie\\stimuli\\visual\\digit_symbol\\sym4.bmp'
g20
I1503
tp41
a(g17
g18
g32
I9
I9
I9
g20
S'C:\\Users\\Jbarrett\\Charlie\\charlie\\stimuli\\visual\\digit_symbol\\sym9.bmp'
g20
I2253
tp42
a(g17
g18
g32
I10
I6
I6
g20
S'C:\\Users\\Jbarrett\\Charlie\\charlie\\stimuli\\visual\\digit_symbol\\sym6.bmp'
g20
I1253
tp43
a(g17
g18
g32
I11
I1
I1
g20
S'C:\\Users\\Jbarrett\\Charlie\\charlie\\stimuli\\visual\\digit_symbol\\sym1.bmp'
g20
I2003
tp44
a(g17
g18
g32
I12
I2
I2
g20
S'C:\\Users\\Jbarrett\\Charlie\\charlie\\stimuli\\visual\\digit_symbol\\sym2.bmp'
g20
I1253
tp45
a(g17
g18
g32
I13
I7
I7
g20
S'C:\\Users\\Jbarrett\\Charlie\\charlie\\stimuli\\visual\\digit_symbol\\sym7.bmp'
g20
I1503
tp46
a(g17
g18
g32
I14
I3
I3
g20
S'C:\\Users\\Jbarrett\\Charlie\\charlie\\stimuli\\visual\\digit_symbol\\sym3.bmp'
g20
I1753
tp47
a(g17
g18
g32
I15
I8
I8
g20
S'C:\\Users\\Jbarrett\\Charlie\\charlie\\stimuli\\visual\\digit_symbol\\sym8.bmp'
g20
I1753
tp48
a(g17
g18
g32
I16
I7
I7
g20
S'C:\\Users\\Jbarrett\\Charlie\\charlie\\stimuli\\visual\\digit_symbol\\sym7.bmp'
g20
I1003
tp49
a(g17
g18
g32
I17
I5
I3
g22
S'C:\\Users\\Jbarrett\\Charlie\\charlie\\stimuli\\visual\\digit_symbol\\sym3.bmp'
g20
I1253
tp50
a(g17
g18
g32
I18
I1
I5
g22
S'C:\\Users\\Jbarrett\\Charlie\\charlie\\stimuli\\visual\\digit_symbol\\sym5.bmp'
g22
I1753
tp51
a(g17
g18
g32
I19
I4
I4
g20
S'C:\\Users\\Jbarrett\\Charlie\\charlie\\stimuli\\visual\\digit_symbol\\sym4.bmp'
g20
I2003
tp52
a(g17
g18
g32
I20
I7
I8
g22
S'C:\\Users\\Jbarrett\\Charlie\\charlie\\stimuli\\visual\\digit_symbol\\sym8.bmp'
g22
I2003
tp53
a(g17
g18
g32
I21
I4
I4
g20
S'C:\\Users\\Jbarrett\\Charlie\\charlie\\stimuli\\visual\\digit_symbol\\sym4.bmp'
g20
I1503
tp54
a(g17
g18
g32
I22
I8
I8
g20
S'C:\\Users\\Jbarrett\\Charlie\\charlie\\stimuli\\visual\\digit_symbol\\sym8.bmp'
g20
I1003
tp55
a(g17
g18
g32
I23
I3
I3
g20
S'C:\\Users\\Jbarrett\\Charlie\\charlie\\stimuli\\visual\\digit_symbol\\sym3.bmp'
g20
I1504
tp56
a(g17
g18
g32
I24
I5
I5
g20
S'C:\\Users\\Jbarrett\\Charlie\\charlie\\stimuli\\visual\\digit_symbol\\sym5.bmp'
g20
I1503
tp57
a(g17
g18
g32
I25
I3
I1
g22
S'C:\\Users\\Jbarrett\\Charlie\\charlie\\stimuli\\visual\\digit_symbol\\sym1.bmp'
g20
I1253
tp58
a(g17
g18
g32
I26
I6
I9
g22
S'C:\\Users\\Jbarrett\\Charlie\\charlie\\stimuli\\visual\\digit_symbol\\sym9.bmp'
g22
I2253
tp59
a(g17
g18
g32
I27
I2
I2
g20
S'C:\\Users\\Jbarrett\\Charlie\\charlie\\stimuli\\visual\\digit_symbol\\sym2.bmp'
g20
I1503
tp60
a(g17
g18
g32
I28
I8
I8
g20
S'C:\\Users\\Jbarrett\\Charlie\\charlie\\stimuli\\visual\\digit_symbol\\sym8.bmp'
g20
I1503
tp61
a(g17
g18
g32
I29
I9
I2
g22
S'C:\\Users\\Jbarrett\\Charlie\\charlie\\stimuli\\visual\\digit_symbol\\sym2.bmp'
g22
I1503
tp62
a(g17
g18
g32
I30
I1
I6
g22
S'C:\\Users\\Jbarrett\\Charlie\\charlie\\stimuli\\visual\\digit_symbol\\sym6.bmp'
g22
I1503
tp63
a(g17
g18
g32
I31
I5
I4
g22
S'C:\\Users\\Jbarrett\\Charlie\\charlie\\stimuli\\visual\\digit_symbol\\sym4.bmp'
g22
I1503
tp64
a(g17
g18
g32
I32
I6
I6
g20
S'C:\\Users\\Jbarrett\\Charlie\\charlie\\stimuli\\visual\\digit_symbol\\sym6.bmp'
g20
I1253
tp65
a(g17
g18
g32
I33
I2
I2
g20
S'C:\\Users\\Jbarrett\\Charlie\\charlie\\stimuli\\visual\\digit_symbol\\sym2.bmp'
g20
I1504
tp66
a(g17
g18
g32
I34
I9
I9
g20
S'C:\\Users\\Jbarrett\\Charlie\\charlie\\stimuli\\visual\\digit_symbol\\sym9.bmp'
g20
I1253
tp67
a(g17
g18
g32
I35
I7
I7
g20
S'C:\\Users\\Jbarrett\\Charlie\\charlie\\stimuli\\visual\\digit_symbol\\sym7.bmp'
g20
I1253
tp68
a(g17
g18
g32
I36
I3
I3
g20
S'C:\\Users\\Jbarrett\\Charlie\\charlie\\stimuli\\visual\\digit_symbol\\sym3.bmp'
g20
I1253
tp69
a(g17
g18
g32
I37
I1
I8
g22
S'C:\\Users\\Jbarrett\\Charlie\\charlie\\stimuli\\visual\\digit_symbol\\sym8.bmp'
g20
I1503
tp70
a(g17
g18
g32
I38
I6
I6
g20
S'C:\\Users\\Jbarrett\\Charlie\\charlie\\stimuli\\visual\\digit_symbol\\sym6.bmp'
g20
I1503
tp71
a(g17
g18
g32
I39
I7
I7
g20
S'C:\\Users\\Jbarrett\\Charlie\\charlie\\stimuli\\visual\\digit_symbol\\sym7.bmp'
g20
I2003
tp72
a(g17
g18
g32
I40
I9
I5
g22
S'C:\\Users\\Jbarrett\\Charlie\\charlie\\stimuli\\visual\\digit_symbol\\sym5.bmp'
g22
I1753
tp73
a(g17
g18
g32
I41
I7
I9
g22
S'C:\\Users\\Jbarrett\\Charlie\\charlie\\stimuli\\visual\\digit_symbol\\sym9.bmp'
g22
I2003
tp74
a(g17
g18
g32
I42
I5
I7
g22
S'C:\\Users\\Jbarrett\\Charlie\\charlie\\stimuli\\visual\\digit_symbol\\sym7.bmp'
g22
I2004
tp75
a(g17
g18
g32
I43
I2
I2
g20
S'C:\\Users\\Jbarrett\\Charlie\\charlie\\stimuli\\visual\\digit_symbol\\sym2.bmp'
g20
I1753
tp76
a(g17
g18
g32
I44
I1
I1
g20
S'C:\\Users\\Jbarrett\\Charlie\\charlie\\stimuli\\visual\\digit_symbol\\sym1.bmp'
g20
I1253
tp77
a(g17
g18
g32
I45
I6
I4
g22
S'C:\\Users\\Jbarrett\\Charlie\\charlie\\stimuli\\visual\\digit_symbol\\sym4.bmp'
g22
I1503
tp78
a(g17
g18
g32
I46
I8
I3
g22
S'C:\\Users\\Jbarrett\\Charlie\\charlie\\stimuli\\visual\\digit_symbol\\sym3.bmp'
g22
I1503
tp79
a(g17
g18
g32
I47
I2
I2
g20
S'C:\\Users\\Jbarrett\\Charlie\\charlie\\stimuli\\visual\\digit_symbol\\sym2.bmp'
g20
I1503
tp80
asS'output_format'
p81
(lp82
(S'proband_id'
p83
c__builtin__
str
p84
tp85
a(S'test_name'
p86
g84
tp87
a(S'phase'
p88
g84
tp89
a(S'trialn'
p90
c__builtin__
int
p91
tp92
a(S'digit'
p93
g91
tp94
a(S'symbol'
p95
g91
tp96
a(S'ans'
p97
g84
tp98
a(S'f'
g84
tp99
a(S'rsp'
p100
g84
tp101
a(S'rt'
p102
g91
tp103
asg83
g17
sS'filename'
p104
S'F104_digit_symbol.data'
p105
sS'initialised'
p106
g8
(S'\x07\xdf\x02\x13\t0\x0c\x00\x84\xd0'
tRp107
sS'last_udated'
p108
g8
(S'\x07\xdf\x02\x13\t0\x0c\x00\x84\xd0'
tRp109
sg86
S'digit_symbol'
p110
sS'directory'
p111
S'C:\\Users\\Jbarrett\\Charlie\\charlie\\data\\raw'
p112
sS'user_id'
p113
S''
sS'test_started'
p114
I01
sS'abs_filename'
p115
S'C:\\Users\\Jbarrett\\Charlie\\charlie\\data\\raw\\F104_digit_symbol.data'
p116
sS'date_started'
p117
g8
(S'\x07\xdf\x02\x13\t0,\x03\x9d\xc8'
tRp118
sS'log'
p119
(lp120
(S'2015-02-19 09:48:12.034000'
S'instance created'
p121
tp122
a(S'2015-02-19 09:48:44.241000'
S'instance updated'
p123
tp124
a(S'2015-02-19 09:48:44.247000'
S'pandas DataFrame of data created'
p125
tp126
a(S'2015-02-19 09:48:44.250000'
S'data saved as csv to C:\\Users\\Jbarrett\\Charlie\\charlie\\data\\csv\\F104_digit_symbol.csv'
tp127
a(S'2015-02-19 09:48:47.523000'
g123
tp128
a(S'2015-02-19 09:48:47.534000'
g125
tp129
a(S'2015-02-19 09:48:47.539000'
S'data saved as csv to C:\\Users\\Jbarrett\\Charlie\\charlie\\data\\csv\\F104_digit_symbol.csv'
tp130
a(S'2015-02-19 09:48:51.382000'
g123
tp131
a(S'2015-02-19 09:48:51.393000'
g125
tp132
a(S'2015-02-19 09:48:51.397000'
S'data saved as csv to C:\\Users\\Jbarrett\\Charlie\\charlie\\data\\csv\\F104_digit_symbol.csv'
tp133
a(S'2015-02-19 09:48:55.741000'
g123
tp134
a(S'2015-02-19 09:48:55.752000'
g125
tp135
a(S'2015-02-19 09:48:55.756000'
S'data saved as csv to C:\\Users\\Jbarrett\\Charlie\\charlie\\data\\csv\\F104_digit_symbol.csv'
tp136
a(S'2015-02-19 09:48:58.489000'
g123
tp137
a(S'2015-02-19 09:48:58.500000'
g125
tp138
a(S'2015-02-19 09:48:58.504000'
S'data saved as csv to C:\\Users\\Jbarrett\\Charlie\\charlie\\data\\csv\\F104_digit_symbol.csv'
tp139
a(S'2015-02-19 09:49:01.007000'
g123
tp140
a(S'2015-02-19 09:49:01.019000'
g125
tp141
a(S'2015-02-19 09:49:01.023000'
S'data saved as csv to C:\\Users\\Jbarrett\\Charlie\\charlie\\data\\csv\\F104_digit_symbol.csv'
tp142
a(S'2015-02-19 09:49:04.217000'
g123
tp143
a(S'2015-02-19 09:49:04.228000'
g125
tp144
a(S'2015-02-19 09:49:04.232000'
S'data saved as csv to C:\\Users\\Jbarrett\\Charlie\\charlie\\data\\csv\\F104_digit_symbol.csv'
tp145
a(S'2015-02-19 09:49:07.925000'
g123
tp146
a(S'2015-02-19 09:49:07.937000'
g125
tp147
a(S'2015-02-19 09:49:07.941000'
S'data saved as csv to C:\\Users\\Jbarrett\\Charlie\\charlie\\data\\csv\\F104_digit_symbol.csv'
tp148
a(S'2015-02-19 09:49:12.355000'
g123
tp149
a(S'2015-02-19 09:49:12.367000'
g125
tp150
a(S'2015-02-19 09:49:12.371000'
S'data saved as csv to C:\\Users\\Jbarrett\\Charlie\\charlie\\data\\csv\\F104_digit_symbol.csv'
tp151
a(S'2015-02-19 09:49:15.713000'
g123
tp152
a(S'2015-02-19 09:49:15.724000'
g125
tp153
a(S'2015-02-19 09:49:15.728000'
S'data saved as csv to C:\\Users\\Jbarrett\\Charlie\\charlie\\data\\csv\\F104_digit_symbol.csv'
tp154
a(S'2015-02-19 09:51:06.094000'
g123
tp155
a(S'2015-02-19 09:51:06.106000'
g125
tp156
a(S'2015-02-19 09:51:06.111000'
S'data saved as csv to C:\\Users\\Jbarrett\\Charlie\\charlie\\data\\csv\\F104_digit_symbol.csv'
tp157
asb.