(icharlie.tools.data
Data
p1
(dp2
S'lang'
p3
S'EN'
p4
sS'control'
p5
(lp6
sS'last_updated'
p7
cdatetime
datetime
p8
(S'\x07\xdf\x02\x13\n\x18;\x0eH@'
tRp9
sS'last_opened'
p10
g8
(S'\x07\xdf\x02\x13\n\x17/\x0b\xfah'
tRp11
sS'proj_id'
p12
S''
sS'date_done'
p13
NsS'test_done'
p14
I01
sS'data'
p15
(lp16
(S'F104'
p17
S'face_memory_delay'
p18
S'test'
p19
I0
S'C:\\Users\\Jbarrett\\Charlie\\charlie\\stimuli\\visual\\face_memory_delay\\ddis10.bmp'
S'No'
p20
g20
I1140
tp21
a(g17
g18
g19
I1
S'C:\\Users\\Jbarrett\\Charlie\\charlie\\stimuli\\visual\\face_memory_delay\\ddis04.bmp'
g20
g20
I1180
tp22
a(g17
g18
g19
I2
S'C:\\Users\\Jbarrett\\Charlie\\charlie\\stimuli\\visual\\face_memory_delay\\tar07.bmp'
S'Yes'
p23
g20
I1120
tp24
a(g17
g18
g19
I3
S'C:\\Users\\Jbarrett\\Charlie\\charlie\\stimuli\\visual\\face_memory_delay\\tar18.bmp'
g23
g23
I1210
tp25
a(g17
g18
g19
I4
S'C:\\Users\\Jbarrett\\Charlie\\charlie\\stimuli\\visual\\face_memory_delay\\ddis14.bmp'
g20
g23
I1941
tp26
a(g17
g18
g19
I5
S'C:\\Users\\Jbarrett\\Charlie\\charlie\\stimuli\\visual\\face_memory_delay\\tar19.bmp'
g23
g23
I1211
tp27
a(g17
g18
g19
I6
S'C:\\Users\\Jbarrett\\Charlie\\charlie\\stimuli\\visual\\face_memory_delay\\ddis13.bmp'
g20
g20
I730
tp28
a(g17
g18
g19
I7
S'C:\\Users\\Jbarrett\\Charlie\\charlie\\stimuli\\visual\\face_memory_delay\\tar15.bmp'
g23
g23
I740
tp29
a(g17
g18
g19
I8
S'C:\\Users\\Jbarrett\\Charlie\\charlie\\stimuli\\visual\\face_memory_delay\\tar11.bmp'
g23
g23
I690
tp30
a(g17
g18
g19
I9
S'C:\\Users\\Jbarrett\\Charlie\\charlie\\stimuli\\visual\\face_memory_delay\\ddis05.bmp'
g20
g20
I900
tp31
a(g17
g18
g19
I10
S'C:\\Users\\Jbarrett\\Charlie\\charlie\\stimuli\\visual\\face_memory_delay\\ddis01.bmp'
g20
g20
I770
tp32
a(g17
g18
g19
I11
S'C:\\Users\\Jbarrett\\Charlie\\charlie\\stimuli\\visual\\face_memory_delay\\ddis16.bmp'
g20
g20
I730
tp33
a(g17
g18
g19
I12
S'C:\\Users\\Jbarrett\\Charlie\\charlie\\stimuli\\visual\\face_memory_delay\\tar02.bmp'
g23
g23
I860
tp34
a(g17
g18
g19
I13
S'C:\\Users\\Jbarrett\\Charlie\\charlie\\stimuli\\visual\\face_memory_delay\\tar08.bmp'
g23
g23
I830
tp35
a(g17
g18
g19
I14
S'C:\\Users\\Jbarrett\\Charlie\\charlie\\stimuli\\visual\\face_memory_delay\\tar13.bmp'
g23
g23
I770
tp36
a(g17
g18
g19
I15
S'C:\\Users\\Jbarrett\\Charlie\\charlie\\stimuli\\visual\\face_memory_delay\\tar20.bmp'
g23
g23
I760
tp37
a(g17
g18
g19
I16
S'C:\\Users\\Jbarrett\\Charlie\\charlie\\stimuli\\visual\\face_memory_delay\\ddis18.bmp'
g20
g20
I710
tp38
a(g17
g18
g19
I17
S'C:\\Users\\Jbarrett\\Charlie\\charlie\\stimuli\\visual\\face_memory_delay\\tar06.bmp'
g23
g23
I1880
tp39
a(g17
g18
g19
I18
S'C:\\Users\\Jbarrett\\Charlie\\charlie\\stimuli\\visual\\face_memory_delay\\ddis07.bmp'
g20
g20
I1820
tp40
a(g17
g18
g19
I19
S'C:\\Users\\Jbarrett\\Charlie\\charlie\\stimuli\\visual\\face_memory_delay\\ddis08.bmp'
g20
g20
I840
tp41
a(g17
g18
g19
I20
S'C:\\Users\\Jbarrett\\Charlie\\charlie\\stimuli\\visual\\face_memory_delay\\tar12.bmp'
g23
g23
I1050
tp42
a(g17
g18
g19
I21
S'C:\\Users\\Jbarrett\\Charlie\\charlie\\stimuli\\visual\\face_memory_delay\\ddis17.bmp'
g20
g23
I800
tp43
a(g17
g18
g19
I22
S'C:\\Users\\Jbarrett\\Charlie\\charlie\\stimuli\\visual\\face_memory_delay\\tar05.bmp'
g23
g23
I1310
tp44
a(g17
g18
g19
I23
S'C:\\Users\\Jbarrett\\Charlie\\charlie\\stimuli\\visual\\face_memory_delay\\tar10.bmp'
g23
g23
I760
tp45
a(g17
g18
g19
I24
S'C:\\Users\\Jbarrett\\Charlie\\charlie\\stimuli\\visual\\face_memory_delay\\ddis02.bmp'
g20
g20
I730
tp46
a(g17
g18
g19
I25
S'C:\\Users\\Jbarrett\\Charlie\\charlie\\stimuli\\visual\\face_memory_delay\\ddis20.bmp'
g20
g20
I1880
tp47
a(g17
g18
g19
I26
S'C:\\Users\\Jbarrett\\Charlie\\charlie\\stimuli\\visual\\face_memory_delay\\tar17.bmp'
g23
g23
I880
tp48
a(g17
g18
g19
I27
S'C:\\Users\\Jbarrett\\Charlie\\charlie\\stimuli\\visual\\face_memory_delay\\ddis15.bmp'
g20
g20
I1050
tp49
a(g17
g18
g19
I28
S'C:\\Users\\Jbarrett\\Charlie\\charlie\\stimuli\\visual\\face_memory_delay\\tar03.bmp'
g23
g23
I2050
tp50
a(g17
g18
g19
I29
S'C:\\Users\\Jbarrett\\Charlie\\charlie\\stimuli\\visual\\face_memory_delay\\ddis19.bmp'
g20
g20
I2420
tp51
a(g17
g18
g19
I30
S'C:\\Users\\Jbarrett\\Charlie\\charlie\\stimuli\\visual\\face_memory_delay\\ddis12.bmp'
g20
g20
I950
tp52
a(g17
g18
g19
I31
S'C:\\Users\\Jbarrett\\Charlie\\charlie\\stimuli\\visual\\face_memory_delay\\tar16.bmp'
g23
g23
I921
tp53
a(g17
g18
g19
I32
S'C:\\Users\\Jbarrett\\Charlie\\charlie\\stimuli\\visual\\face_memory_delay\\tar09.bmp'
g23
g23
I1260
tp54
a(g17
g18
g19
I33
S'C:\\Users\\Jbarrett\\Charlie\\charlie\\stimuli\\visual\\face_memory_delay\\ddis09.bmp'
g20
g23
I5730
tp55
a(g17
g18
g19
I34
S'C:\\Users\\Jbarrett\\Charlie\\charlie\\stimuli\\visual\\face_memory_delay\\tar01.bmp'
g23
g23
I1040
tp56
a(g17
g18
g19
I35
S'C:\\Users\\Jbarrett\\Charlie\\charlie\\stimuli\\visual\\face_memory_delay\\ddis11.bmp'
g20
g23
I960
tp57
a(g17
g18
g19
I36
S'C:\\Users\\Jbarrett\\Charlie\\charlie\\stimuli\\visual\\face_memory_delay\\ddis03.bmp'
g20
g23
I890
tp58
a(g17
g18
g19
I37
S'C:\\Users\\Jbarrett\\Charlie\\charlie\\stimuli\\visual\\face_memory_delay\\tar04.bmp'
g23
g23
I720
tp59
a(g17
g18
g19
I38
S'C:\\Users\\Jbarrett\\Charlie\\charlie\\stimuli\\visual\\face_memory_delay\\tar14.bmp'
g23
g23
I800
tp60
a(g17
g18
g19
I39
S'C:\\Users\\Jbarrett\\Charlie\\charlie\\stimuli\\visual\\face_memory_delay\\ddis06.bmp'
p61
g20
g20
I720
tp62
asS'output_format'
p63
(lp64
(S'proband_id'
p65
c__builtin__
str
p66
tp67
a(S'test_name'
p68
g66
tp69
a(S'phase'
p70
g66
tp71
a(S'trialn'
p72
c__builtin__
int
p73
tp74
a(S'f'
g66
tp75
a(S'ans'
p76
g66
tp77
a(S'rsp'
p78
g66
tp79
a(S'rt'
p80
g73
tp81
asg65
g17
sS'filename'
p82
S'F104_face_memory_delay.data'
p83
sS'initialised'
p84
g8
(S'\x07\xdf\x02\x13\n\x17/\x0b\xfah'
tRp85
sS'last_udated'
p86
g8
(S'\x07\xdf\x02\x13\n\x17/\x0b\xfah'
tRp87
sg68
S'face_memory_delay'
p88
sS'directory'
p89
S'C:\\Users\\Jbarrett\\Charlie\\charlie\\data\\raw'
p90
sS'user_id'
p91
S''
sS'test_started'
p92
I01
sS'abs_filename'
p93
S'C:\\Users\\Jbarrett\\Charlie\\charlie\\data\\raw\\F104_face_memory_delay.data'
p94
sS'date_started'
p95
g8
(S'\x07\xdf\x02\x13\n\x18\x02\x05\x9d\x80'
tRp96
sS'log'
p97
(lp98
(S'2015-02-19 10:23:47.785000'
S'instance created'
p99
tp100
a(S'2015-02-19 10:24:02.377000'
S'instance updated'
p101
tp102
a(S'2015-02-19 10:24:02.386000'
S'pandas DataFrame of data created'
p103
tp104
a(S'2015-02-19 10:24:02.403000'
S'data saved as csv to C:\\Users\\Jbarrett\\Charlie\\charlie\\data\\csv\\F104_face_memory_delay.csv'
tp105
a(S'2015-02-19 10:24:03.849000'
g101
tp106
a(S'2015-02-19 10:24:03.858000'
g103
tp107
a(S'2015-02-19 10:24:03.862000'
S'data saved as csv to C:\\Users\\Jbarrett\\Charlie\\charlie\\data\\csv\\F104_face_memory_delay.csv'
tp108
a(S'2015-02-19 10:24:05.248000'
g101
tp109
a(S'2015-02-19 10:24:05.257000'
g103
tp110
a(S'2015-02-19 10:24:05.261000'
S'data saved as csv to C:\\Users\\Jbarrett\\Charlie\\charlie\\data\\csv\\F104_face_memory_delay.csv'
tp111
a(S'2015-02-19 10:24:06.738000'
g101
tp112
a(S'2015-02-19 10:24:06.747000'
g103
tp113
a(S'2015-02-19 10:24:06.751000'
S'data saved as csv to C:\\Users\\Jbarrett\\Charlie\\charlie\\data\\csv\\F104_face_memory_delay.csv'
tp114
a(S'2015-02-19 10:24:08.959000'
g101
tp115
a(S'2015-02-19 10:24:08.968000'
g103
tp116
a(S'2015-02-19 10:24:08.972000'
S'data saved as csv to C:\\Users\\Jbarrett\\Charlie\\charlie\\data\\csv\\F104_face_memory_delay.csv'
tp117
a(S'2015-02-19 10:24:10.448000'
g101
tp118
a(S'2015-02-19 10:24:10.457000'
g103
tp119
a(S'2015-02-19 10:24:10.461000'
S'data saved as csv to C:\\Users\\Jbarrett\\Charlie\\charlie\\data\\csv\\F104_face_memory_delay.csv'
tp120
a(S'2015-02-19 10:24:11.457000'
g101
tp121
a(S'2015-02-19 10:24:11.467000'
g103
tp122
a(S'2015-02-19 10:24:11.471000'
S'data saved as csv to C:\\Users\\Jbarrett\\Charlie\\charlie\\data\\csv\\F104_face_memory_delay.csv'
tp123
a(S'2015-02-19 10:24:12.477000'
g101
tp124
a(S'2015-02-19 10:24:12.487000'
g103
tp125
a(S'2015-02-19 10:24:12.490000'
S'data saved as csv to C:\\Users\\Jbarrett\\Charlie\\charlie\\data\\csv\\F104_face_memory_delay.csv'
tp126
a(S'2015-02-19 10:24:13.447000'
g101
tp127
a(S'2015-02-19 10:24:13.457000'
g103
tp128
a(S'2015-02-19 10:24:13.460000'
S'data saved as csv to C:\\Users\\Jbarrett\\Charlie\\charlie\\data\\csv\\F104_face_memory_delay.csv'
tp129
a(S'2015-02-19 10:24:14.627000'
g101
tp130
a(S'2015-02-19 10:24:14.636000'
g103
tp131
a(S'2015-02-19 10:24:14.640000'
S'data saved as csv to C:\\Users\\Jbarrett\\Charlie\\charlie\\data\\csv\\F104_face_memory_delay.csv'
tp132
a(S'2015-02-19 10:24:15.675000'
g101
tp133
a(S'2015-02-19 10:24:15.685000'
g103
tp134
a(S'2015-02-19 10:24:15.689000'
S'data saved as csv to C:\\Users\\Jbarrett\\Charlie\\charlie\\data\\csv\\F104_face_memory_delay.csv'
tp135
a(S'2015-02-19 10:24:16.684000'
g101
tp136
a(S'2015-02-19 10:24:16.694000'
g103
tp137
a(S'2015-02-19 10:24:16.698000'
S'data saved as csv to C:\\Users\\Jbarrett\\Charlie\\charlie\\data\\csv\\F104_face_memory_delay.csv'
tp138
a(S'2015-02-19 10:24:17.824000'
g101
tp139
a(S'2015-02-19 10:24:17.833000'
g103
tp140
a(S'2015-02-19 10:24:17.837000'
S'data saved as csv to C:\\Users\\Jbarrett\\Charlie\\charlie\\data\\csv\\F104_face_memory_delay.csv'
tp141
a(S'2015-02-19 10:24:18.934000'
g101
tp142
a(S'2015-02-19 10:24:18.944000'
g103
tp143
a(S'2015-02-19 10:24:18.948000'
S'data saved as csv to C:\\Users\\Jbarrett\\Charlie\\charlie\\data\\csv\\F104_face_memory_delay.csv'
tp144
a(S'2015-02-19 10:24:19.984000'
g101
tp145
a(S'2015-02-19 10:24:19.994000'
g103
tp146
a(S'2015-02-19 10:24:19.998000'
S'data saved as csv to C:\\Users\\Jbarrett\\Charlie\\charlie\\data\\csv\\F104_face_memory_delay.csv'
tp147
a(S'2015-02-19 10:24:21.024000'
g101
tp148
a(S'2015-02-19 10:24:21.034000'
g103
tp149
a(S'2015-02-19 10:24:21.038000'
S'data saved as csv to C:\\Users\\Jbarrett\\Charlie\\charlie\\data\\csv\\F104_face_memory_delay.csv'
tp150
a(S'2015-02-19 10:24:22.015000'
g101
tp151
a(S'2015-02-19 10:24:22.024000'
g103
tp152
a(S'2015-02-19 10:24:22.028000'
S'data saved as csv to C:\\Users\\Jbarrett\\Charlie\\charlie\\data\\csv\\F104_face_memory_delay.csv'
tp153
a(S'2015-02-19 10:24:24.175000'
g101
tp154
a(S'2015-02-19 10:24:24.185000'
g103
tp155
a(S'2015-02-19 10:24:24.188000'
S'data saved as csv to C:\\Users\\Jbarrett\\Charlie\\charlie\\data\\csv\\F104_face_memory_delay.csv'
tp156
a(S'2015-02-19 10:24:26.278000'
g101
tp157
a(S'2015-02-19 10:24:26.287000'
g103
tp158
a(S'2015-02-19 10:24:26.291000'
S'data saved as csv to C:\\Users\\Jbarrett\\Charlie\\charlie\\data\\csv\\F104_face_memory_delay.csv'
tp159
a(S'2015-02-19 10:24:27.398000'
g101
tp160
a(S'2015-02-19 10:24:27.407000'
g103
tp161
a(S'2015-02-19 10:24:27.411000'
S'data saved as csv to C:\\Users\\Jbarrett\\Charlie\\charlie\\data\\csv\\F104_face_memory_delay.csv'
tp162
a(S'2015-02-19 10:24:28.727000'
g101
tp163
a(S'2015-02-19 10:24:28.737000'
g103
tp164
a(S'2015-02-19 10:24:28.741000'
S'data saved as csv to C:\\Users\\Jbarrett\\Charlie\\charlie\\data\\csv\\F104_face_memory_delay.csv'
tp165
a(S'2015-02-19 10:24:29.808000'
g101
tp166
a(S'2015-02-19 10:24:29.817000'
g103
tp167
a(S'2015-02-19 10:24:29.821000'
S'data saved as csv to C:\\Users\\Jbarrett\\Charlie\\charlie\\data\\csv\\F104_face_memory_delay.csv'
tp168
a(S'2015-02-19 10:24:31.397000'
g101
tp169
a(S'2015-02-19 10:24:31.406000'
g103
tp170
a(S'2015-02-19 10:24:31.410000'
S'data saved as csv to C:\\Users\\Jbarrett\\Charlie\\charlie\\data\\csv\\F104_face_memory_delay.csv'
tp171
a(S'2015-02-19 10:24:32.435000'
g101
tp172
a(S'2015-02-19 10:24:32.445000'
g103
tp173
a(S'2015-02-19 10:24:32.449000'
S'data saved as csv to C:\\Users\\Jbarrett\\Charlie\\charlie\\data\\csv\\F104_face_memory_delay.csv'
tp174
a(S'2015-02-19 10:24:33.446000'
g101
tp175
a(S'2015-02-19 10:24:33.455000'
g103
tp176
a(S'2015-02-19 10:24:33.459000'
S'data saved as csv to C:\\Users\\Jbarrett\\Charlie\\charlie\\data\\csv\\F104_face_memory_delay.csv'
tp177
a(S'2015-02-19 10:24:35.608000'
g101
tp178
a(S'2015-02-19 10:24:35.618000'
g103
tp179
a(S'2015-02-19 10:24:35.622000'
S'data saved as csv to C:\\Users\\Jbarrett\\Charlie\\charlie\\data\\csv\\F104_face_memory_delay.csv'
tp180
a(S'2015-02-19 10:24:36.764000'
g101
tp181
a(S'2015-02-19 10:24:36.766000'
g103
tp182
a(S'2015-02-19 10:24:36.767000'
S'data saved as csv to C:\\Users\\Jbarrett\\Charlie\\charlie\\data\\csv\\F104_face_memory_delay.csv'
tp183
a(S'2015-02-19 10:24:38.082000'
g101
tp184
a(S'2015-02-19 10:24:38.092000'
g103
tp185
a(S'2015-02-19 10:24:38.096000'
S'data saved as csv to C:\\Users\\Jbarrett\\Charlie\\charlie\\data\\csv\\F104_face_memory_delay.csv'
tp186
a(S'2015-02-19 10:24:40.414000'
g101
tp187
a(S'2015-02-19 10:24:40.423000'
g103
tp188
a(S'2015-02-19 10:24:40.427000'
S'data saved as csv to C:\\Users\\Jbarrett\\Charlie\\charlie\\data\\csv\\F104_face_memory_delay.csv'
tp189
a(S'2015-02-19 10:24:43.116000'
g101
tp190
a(S'2015-02-19 10:24:43.126000'
g103
tp191
a(S'2015-02-19 10:24:43.136000'
S'data saved as csv to C:\\Users\\Jbarrett\\Charlie\\charlie\\data\\csv\\F104_face_memory_delay.csv'
tp192
a(S'2015-02-19 10:24:44.353000'
g101
tp193
a(S'2015-02-19 10:24:44.362000'
g103
tp194
a(S'2015-02-19 10:24:44.366000'
S'data saved as csv to C:\\Users\\Jbarrett\\Charlie\\charlie\\data\\csv\\F104_face_memory_delay.csv'
tp195
a(S'2015-02-19 10:24:45.553000'
g101
tp196
a(S'2015-02-19 10:24:45.563000'
g103
tp197
a(S'2015-02-19 10:24:45.567000'
S'data saved as csv to C:\\Users\\Jbarrett\\Charlie\\charlie\\data\\csv\\F104_face_memory_delay.csv'
tp198
a(S'2015-02-19 10:24:47.095000'
g101
tp199
a(S'2015-02-19 10:24:47.105000'
g103
tp200
a(S'2015-02-19 10:24:47.109000'
S'data saved as csv to C:\\Users\\Jbarrett\\Charlie\\charlie\\data\\csv\\F104_face_memory_delay.csv'
tp201
a(S'2015-02-19 10:24:53.107000'
g101
tp202
a(S'2015-02-19 10:24:53.117000'
g103
tp203
a(S'2015-02-19 10:24:53.121000'
S'data saved as csv to C:\\Users\\Jbarrett\\Charlie\\charlie\\data\\csv\\F104_face_memory_delay.csv'
tp204
a(S'2015-02-19 10:24:54.429000'
g101
tp205
a(S'2015-02-19 10:24:54.439000'
g103
tp206
a(S'2015-02-19 10:24:54.443000'
S'data saved as csv to C:\\Users\\Jbarrett\\Charlie\\charlie\\data\\csv\\F104_face_memory_delay.csv'
tp207
a(S'2015-02-19 10:24:55.670000'
g101
tp208
a(S'2015-02-19 10:24:55.680000'
g103
tp209
a(S'2015-02-19 10:24:55.683000'
S'data saved as csv to C:\\Users\\Jbarrett\\Charlie\\charlie\\data\\csv\\F104_face_memory_delay.csv'
tp210
a(S'2015-02-19 10:24:56.838000'
g101
tp211
a(S'2015-02-19 10:24:56.848000'
g103
tp212
a(S'2015-02-19 10:24:56.852000'
S'data saved as csv to C:\\Users\\Jbarrett\\Charlie\\charlie\\data\\csv\\F104_face_memory_delay.csv'
tp213
a(S'2015-02-19 10:24:57.839000'
g101
tp214
a(S'2015-02-19 10:24:57.849000'
g103
tp215
a(S'2015-02-19 10:24:57.853000'
S'data saved as csv to C:\\Users\\Jbarrett\\Charlie\\charlie\\data\\csv\\F104_face_memory_delay.csv'
tp216
a(S'2015-02-19 10:24:58.920000'
g101
tp217
a(S'2015-02-19 10:24:58.930000'
g103
tp218
a(S'2015-02-19 10:24:58.934000'
S'data saved as csv to C:\\Users\\Jbarrett\\Charlie\\charlie\\data\\csv\\F104_face_memory_delay.csv'
tp219
a(S'2015-02-19 10:24:59.921000'
g101
tp220
a(S'2015-02-19 10:24:59.931000'
g103
tp221
a(S'2015-02-19 10:24:59.935000'
S'data saved as csv to C:\\Users\\Jbarrett\\Charlie\\charlie\\data\\csv\\F104_face_memory_delay.csv'
tp222
asb.