(icharlie.tools.data
Data
p1
(dp2
S'lang'
p3
S'EN'
p4
sS'control'
p5
(lp6
sS'last_updated'
p7
cdatetime
datetime
p8
(S'\x07\xdf\x02\x13\n"\x08\x08hX'
tRp9
sS'last_opened'
p10
g8
(S'\x07\xdf\x02\x13\n\x1e2\x02\xca\xd8'
tRp11
sS'proj_id'
p12
S''
sS'date_done'
p13
NsS'test_done'
p14
I01
sS'data'
p15
(lp16
(S'F104'
p17
S'ctrails'
p18
S'number'
p19
S'practice'
p20
I0
I1
S'Correct'
p21
I1531
I5857
tp22
a(g17
g18
g19
g20
I1
I2
g21
I803
I5857
tp23
a(g17
g18
g19
g20
I2
I3
g21
I780
I5857
tp24
a(g17
g18
g19
g20
I3
I4
g21
I540
I5857
tp25
a(g17
g18
g19
g20
I4
I5
g21
I510
I5857
tp26
a(g17
g18
g19
g20
I5
I6
g21
I560
I5857
tp27
a(g17
g18
g19
g20
I6
I7
g21
I540
I5857
tp28
a(g17
g18
g19
g20
I7
I8
g21
I550
I5857
tp29
a(g17
g18
g19
S'test'
p30
I0
I1
g21
I1690
I35921
tp31
a(g17
g18
g19
g30
I1
I2
g21
I2361
I35921
tp32
a(g17
g18
g19
g30
I2
I3
g21
I1900
I35921
tp33
a(g17
g18
g19
g30
I3
I4
g21
I3430
I35921
tp34
a(g17
g18
g19
g30
I4
I5
g21
I790
I35921
tp35
a(g17
g18
g19
g30
I5
I6
g21
I680
I35921
tp36
a(g17
g18
g19
g30
I6
I7
g21
I620
I35921
tp37
a(g17
g18
g19
g30
I7
I8
g21
I410
I35921
tp38
a(g17
g18
g19
g30
I8
I9
g21
I710
I35921
tp39
a(g17
g18
g19
g30
I9
I10
g21
I1030
I35921
tp40
a(g17
g18
g19
g30
I10
I11
g21
I4270
I35921
tp41
a(g17
g18
g19
g30
I11
I12
g21
I560
I35921
tp42
a(g17
g18
g19
g30
I12
I13
g21
I1100
I35921
tp43
a(g17
g18
g19
g30
I13
I14
g21
I1081
I35921
tp44
a(g17
g18
g19
g30
I14
I15
g21
I310
I35921
tp45
a(g17
g18
g19
g30
I15
I16
g21
I740
I35921
tp46
a(g17
g18
g19
g30
I16
I17
g21
I1460
I35921
tp47
a(g17
g18
g19
g30
I17
I18
g21
I1310
I35921
tp48
a(g17
g18
g19
g30
I18
I19
g21
I3430
I35921
tp49
a(g17
g18
g19
g30
I19
I20
g21
I620
I35921
tp50
a(g17
g18
g19
g30
I20
I21
g21
I810
I35921
tp51
a(g17
g18
g19
g30
I21
I22
g21
I760
I35921
tp52
a(g17
g18
g19
g30
I22
I23
g21
I2400
I35921
tp53
a(g17
g18
g19
g30
I23
I24
g21
I890
I35921
tp54
a(g17
g18
g19
g30
I24
I25
g21
I940
I35921
tp55
a(g17
g18
g19
g30
I25
I26
g21
I1500
I35921
tp56
a(g17
g18
S'letter'
p57
g20
I0
S'a'
g21
I1100
I7357
tp58
a(g17
g18
g57
g20
I1
S'b'
g21
I410
I7357
tp59
a(g17
g18
g57
g20
I2
S'c'
g21
I800
I7357
tp60
a(g17
g18
g57
g20
I3
S'd'
g21
I790
I7357
tp61
a(g17
g18
g57
g20
I4
S'e'
g21
I600
I7357
tp62
a(g17
g18
g57
g20
I5
S'f'
g21
I600
I7357
tp63
a(g17
g18
g57
g20
I6
S'g'
g21
I530
I7357
tp64
a(g17
g18
g57
g20
I7
S'h'
g21
I760
I7357
tp65
a(g17
g18
g57
g30
I0
S'a'
g21
I4390
I45036
tp66
a(g17
g18
g57
g30
I1
S'b'
g21
I2810
I45036
tp67
a(g17
g18
g57
g30
I2
S'c'
g21
I340
I45036
tp68
a(g17
g18
g57
g30
I3
S'd'
g21
I2690
I45036
tp69
a(g17
g18
g57
g30
I4
S'e'
g21
I450
I45036
tp70
a(g17
g18
g57
g30
I5
S'f'
g21
I570
I45036
tp71
a(g17
g18
g57
g30
I6
S'g'
g21
I911
I45036
tp72
a(g17
g18
g57
g30
I7
S'h'
g21
I3040
I45036
tp73
a(g17
g18
g57
g30
I8
S'i'
g21
I1100
I45036
tp74
a(g17
g18
g57
g30
I9
S'j'
g21
I640
I45036
tp75
a(g17
g18
g57
g30
I10
S'k'
g21
I3300
I45036
tp76
a(g17
g18
g57
g30
I11
S'l'
g21
I1500
I45036
tp77
a(g17
g18
g57
g30
I12
S'm'
g21
I1140
I45036
tp78
a(g17
g18
g57
g30
I13
S'n'
g21
I1760
I45036
tp79
a(g17
g18
g57
g30
I14
S'o'
g21
I500
I45036
tp80
a(g17
g18
g57
g30
I15
S'p'
g21
I990
I45036
tp81
a(g17
g18
g57
g30
I16
S'q'
g21
I610
I45036
tp82
a(g17
g18
g57
g30
I17
S'r'
g21
I630
I45036
tp83
a(g17
g18
g57
g30
I18
S's'
g21
I3681
I45036
tp84
a(g17
g18
g57
g30
I19
S't'
g21
I620
I45036
tp85
a(g17
g18
g57
g30
I20
S'u'
g21
I5240
I45036
tp86
a(g17
g18
g57
g30
I21
S'v'
g21
I500
I45036
tp87
a(g17
g18
g57
g30
I22
S'w'
g21
I4090
I45036
tp88
a(g17
g18
g57
g30
I23
S'x'
g21
I1470
I45036
tp89
a(g17
g18
g57
g30
I24
S'y'
g21
I800
I45036
tp90
a(g17
g18
g57
g30
I25
S'z'
g21
I600
I45036
tp91
a(g17
g18
S'number-letter'
p92
g20
I0
I1
g21
I1360
I6296
tp93
a(g17
g18
g92
g20
I1
S'a'
g21
I560
I6296
tp94
a(g17
g18
g92
g20
I2
I2
g21
I970
I6296
tp95
a(g17
g18
g92
g20
I3
S'b'
g21
I720
I6296
tp96
a(g17
g18
g92
g20
I4
I3
g21
I880
I6296
tp97
a(g17
g18
g92
g20
I5
S'c'
g21
I550
I6296
tp98
a(g17
g18
g92
g20
I6
I4
g21
I650
I6296
tp99
a(g17
g18
g92
g20
I7
S'd'
g21
I560
I6296
tp100
a(g17
g18
g92
g30
I0
I1
g21
I1510
I38429
tp101
a(g17
g18
g92
g30
I1
S'a'
g21
I650
I38429
tp102
a(g17
g18
g92
g30
I2
I2
g21
I730
I38429
tp103
a(g17
g18
g92
g30
I3
S'b'
g21
I1570
I38429
tp104
a(g17
g18
g92
g30
I4
I3
g21
I1970
I38429
tp105
a(g17
g18
g92
g30
I5
S'c'
g21
I1990
I38429
tp106
a(g17
g18
g92
g30
I6
I4
g21
I790
I38429
tp107
a(g17
g18
g92
g30
I7
S'd'
g21
I670
I38429
tp108
a(g17
g18
g92
g30
I8
I5
g21
I3020
I38429
tp109
a(g17
g18
g92
g30
I9
S'e'
g21
I740
I38429
tp110
a(g17
g18
g92
g30
I10
I6
g21
I830
I38429
tp111
a(g17
g18
g92
g30
I11
S'f'
g21
I1790
I38429
tp112
a(g17
g18
g92
g30
I12
I7
g21
I1021
I38429
tp113
a(g17
g18
g92
g30
I13
S'g'
g21
I1730
I38429
tp114
a(g17
g18
g92
g30
I14
I8
g21
I870
I38429
tp115
a(g17
g18
g92
g30
I15
S'h'
g21
I730
I38429
tp116
a(g17
g18
g92
g30
I16
I9
g21
I2210
I38429
tp117
a(g17
g18
g92
g30
I17
S'i'
g21
I1330
I38429
tp118
a(g17
g18
g92
g30
I18
I10
g21
I2420
I38429
tp119
a(g17
g18
g92
g30
I19
S'j'
g21
I930
I38429
tp120
a(g17
g18
g92
g30
I20
I11
g21
I2790
I38429
tp121
a(g17
g18
g92
g30
I21
S'k'
g21
I1420
I38429
tp122
a(g17
g18
g92
g30
I22
I12
g21
I1890
I38429
tp123
a(g17
g18
g92
g30
I23
S'l'
g21
I951
I38429
tp124
a(g17
g18
g92
g30
I24
I13
g21
I3080
I38429
tp125
a(g17
g18
g92
g30
I25
S'm'
g21
I680
I38429
tp126
asS'output_format'
p127
(lp128
(S'proband_id'
p129
c__builtin__
str
p130
tp131
a(S'test_name'
p132
g130
tp133
a(S'phase'
p134
g130
tp135
a(S'trial_type'
p136
g130
tp137
a(S'n'
c__builtin__
int
p138
tp139
a(S'rsp'
p140
g130
tp141
a(S'corr'
p142
g130
tp143
a(S'rt'
p144
g138
tp145
a(S'total_time'
p146
g138
tp147
asg129
g17
sS'filename'
p148
S'F104_ctrails.data'
p149
sS'initialised'
p150
g8
(S'\x07\xdf\x02\x13\n\x1e2\x02\xca\xd8'
tRp151
sS'last_udated'
p152
g8
(S'\x07\xdf\x02\x13\n\x1e2\x02\xca\xd8'
tRp153
sg132
S'ctrails'
p154
sS'directory'
p155
S'C:\\Users\\Jbarrett\\Charlie\\charlie\\data\\raw'
p156
sS'user_id'
p157
S''
sS'test_started'
p158
I01
sS'abs_filename'
p159
S'C:\\Users\\Jbarrett\\Charlie\\charlie\\data\\raw\\F104_ctrails.data'
p160
sS'date_started'
p161
g8
(S'\x07\xdf\x02\x13\n\x1f\x0e\n\x96\xf0'
tRp162
sS'log'
p163
(lp164
(S'2015-02-19 10:30:50.183000'
S'instance created'
p165
tp166
a(S'2015-02-19 10:31:14.703000'
S'instance updated'
p167
tp168
a(S'2015-02-19 10:31:14.713000'
S'pandas DataFrame of data created'
p169
tp170
a(S'2015-02-19 10:31:14.718000'
S'data saved as csv to C:\\Users\\Jbarrett\\Charlie\\charlie\\data\\csv\\F104_ctrails.csv'
tp171
a(S'2015-02-19 10:31:59.611000'
g167
tp172
a(S'2015-02-19 10:31:59.622000'
g169
tp173
a(S'2015-02-19 10:31:59.626000'
S'data saved as csv to C:\\Users\\Jbarrett\\Charlie\\charlie\\data\\csv\\F104_ctrails.csv'
tp174
a(S'2015-02-19 10:32:11.476000'
g167
tp175
a(S'2015-02-19 10:32:11.487000'
g169
tp176
a(S'2015-02-19 10:32:11.491000'
S'data saved as csv to C:\\Users\\Jbarrett\\Charlie\\charlie\\data\\csv\\F104_ctrails.csv'
tp177
a(S'2015-02-19 10:33:09.090000'
g167
tp178
a(S'2015-02-19 10:33:09.101000'
g169
tp179
a(S'2015-02-19 10:33:09.106000'
S'data saved as csv to C:\\Users\\Jbarrett\\Charlie\\charlie\\data\\csv\\F104_ctrails.csv'
tp180
a(S'2015-02-19 10:33:22.458000'
g167
tp181
a(S'2015-02-19 10:33:22.469000'
g169
tp182
a(S'2015-02-19 10:33:22.472000'
S'data saved as csv to C:\\Users\\Jbarrett\\Charlie\\charlie\\data\\csv\\F104_ctrails.csv'
tp183
a(S'2015-02-19 10:34:08.535000'
g167
tp184
a(S'2015-02-19 10:34:08.546000'
g169
tp185
a(S'2015-02-19 10:34:08.550000'
S'data saved as csv to C:\\Users\\Jbarrett\\Charlie\\charlie\\data\\csv\\F104_ctrails.csv'
tp186
asb.