(icharlie.tools.data
Data
p1
(dp2
S'lang'
p3
S'EN'
p4
sS'control'
p5
(lp6
sS'last_updated'
p7
cdatetime
datetime
p8
(S'\x07\xdf\x02\x14\n\x07/\x0c{P'
tRp9
sS'last_opened'
p10
g8
(S'\x07\xdf\x02\x14\n\x02\t\r\x9c`'
tRp11
sS'proj_id'
p12
S''
sS'date_done'
p13
NsS'test_done'
p14
I01
sS'data'
p15
(lp16
(S'K106'
p17
S'switching'
p18
S'practice'
p19
I0
S'Position'
p20
S'Left'
p21
S'Right'
p22
S'n/a'
p23
S'Incongruent'
p24
S'C:\\Users\\Jbarrett\\Charlie\\charlie\\stimuli\\visual\\switching\\arrow_blue_right.png'
g21
S'Left'
p25
I1590
tp26
a(g17
g18
g19
I1
g20
g21
g22
S'Non-switch'
p27
g24
S'C:\\Users\\Jbarrett\\Charlie\\charlie\\stimuli\\visual\\switching\\arrow_blue_right.png'
g21
g25
I2970
tp28
a(g17
g18
g19
I2
S'Direction'
p29
g21
g22
S'Switch'
p30
g24
S'C:\\Users\\Jbarrett\\Charlie\\charlie\\stimuli\\visual\\switching\\arrow_red_right.png'
g22
S'Right'
p31
I1370
tp32
a(g17
g18
g19
I3
g29
g22
g21
g27
g24
S'C:\\Users\\Jbarrett\\Charlie\\charlie\\stimuli\\visual\\switching\\arrow_red_left.png'
g21
g25
I980
tp33
a(g17
g18
g19
I4
g20
g22
g22
g30
S'Congruent'
p34
S'C:\\Users\\Jbarrett\\Charlie\\charlie\\stimuli\\visual\\switching\\arrow_blue_right.png'
g22
g31
I800
tp35
a(g17
g18
g19
I5
g20
g22
g21
g27
g24
S'C:\\Users\\Jbarrett\\Charlie\\charlie\\stimuli\\visual\\switching\\arrow_blue_left.png'
g22
g31
I1020
tp36
a(g17
g18
g19
I6
g29
g21
g21
g30
g34
S'C:\\Users\\Jbarrett\\Charlie\\charlie\\stimuli\\visual\\switching\\arrow_red_left.png'
g21
g25
I1880
tp37
a(g17
g18
g19
I7
g29
g22
g21
g27
g24
S'C:\\Users\\Jbarrett\\Charlie\\charlie\\stimuli\\visual\\switching\\arrow_red_left.png'
g21
g25
I580
tp38
a(g17
g18
g19
I8
g20
g21
g21
g30
g34
S'C:\\Users\\Jbarrett\\Charlie\\charlie\\stimuli\\visual\\switching\\arrow_blue_left.png'
g21
g25
I1010
tp39
a(g17
g18
S'predictable'
p40
I0
g20
g21
g21
g23
g34
S'C:\\Users\\Jbarrett\\Charlie\\charlie\\stimuli\\visual\\switching\\arrow_blue_left.png'
g21
g25
I890
tp41
a(g17
g18
g40
I1
g20
g21
g21
g27
g34
S'C:\\Users\\Jbarrett\\Charlie\\charlie\\stimuli\\visual\\switching\\arrow_blue_left.png'
g21
g25
I900
tp42
a(g17
g18
g40
I2
g29
g21
g21
g30
g34
S'C:\\Users\\Jbarrett\\Charlie\\charlie\\stimuli\\visual\\switching\\arrow_red_left.png'
g21
g25
I971
tp43
a(g17
g18
g40
I3
g29
g22
g22
g27
g34
S'C:\\Users\\Jbarrett\\Charlie\\charlie\\stimuli\\visual\\switching\\arrow_red_right.png'
g22
g31
I1010
tp44
a(g17
g18
g40
I4
g20
g21
g22
g30
g24
S'C:\\Users\\Jbarrett\\Charlie\\charlie\\stimuli\\visual\\switching\\arrow_blue_right.png'
g21
g25
I1090
tp45
a(g17
g18
g40
I5
g20
g21
g22
g27
g24
S'C:\\Users\\Jbarrett\\Charlie\\charlie\\stimuli\\visual\\switching\\arrow_blue_right.png'
g21
g25
I500
tp46
a(g17
g18
g40
I6
g29
g22
g22
g30
g34
S'C:\\Users\\Jbarrett\\Charlie\\charlie\\stimuli\\visual\\switching\\arrow_red_right.png'
g22
g31
I720
tp47
a(g17
g18
g40
I7
g29
g21
g22
g27
g24
S'C:\\Users\\Jbarrett\\Charlie\\charlie\\stimuli\\visual\\switching\\arrow_red_right.png'
g22
g31
I700
tp48
a(g17
g18
g40
I8
g20
g22
g22
g30
g34
S'C:\\Users\\Jbarrett\\Charlie\\charlie\\stimuli\\visual\\switching\\arrow_blue_right.png'
g22
g31
I640
tp49
a(g17
g18
g40
I9
g20
g22
g22
g27
g34
S'C:\\Users\\Jbarrett\\Charlie\\charlie\\stimuli\\visual\\switching\\arrow_blue_right.png'
g22
g31
I470
tp50
a(g17
g18
g40
I10
g29
g21
g22
g30
g24
S'C:\\Users\\Jbarrett\\Charlie\\charlie\\stimuli\\visual\\switching\\arrow_red_right.png'
g22
g31
I880
tp51
a(g17
g18
g40
I11
g29
g21
g21
g27
g34
S'C:\\Users\\Jbarrett\\Charlie\\charlie\\stimuli\\visual\\switching\\arrow_red_left.png'
g21
g25
I590
tp52
a(g17
g18
g40
I12
g20
g22
g22
g30
g34
S'C:\\Users\\Jbarrett\\Charlie\\charlie\\stimuli\\visual\\switching\\arrow_blue_right.png'
g22
g31
I890
tp53
a(g17
g18
g40
I13
g20
g21
g21
g27
g34
S'C:\\Users\\Jbarrett\\Charlie\\charlie\\stimuli\\visual\\switching\\arrow_blue_left.png'
g21
g25
I470
tp54
a(g17
g18
g40
I14
g29
g22
g22
g30
g34
S'C:\\Users\\Jbarrett\\Charlie\\charlie\\stimuli\\visual\\switching\\arrow_red_right.png'
g22
g31
I870
tp55
a(g17
g18
g40
I15
g29
g21
g22
g27
g24
S'C:\\Users\\Jbarrett\\Charlie\\charlie\\stimuli\\visual\\switching\\arrow_red_right.png'
g22
g31
I580
tp56
a(g17
g18
g40
I16
g20
g22
g22
g30
g34
S'C:\\Users\\Jbarrett\\Charlie\\charlie\\stimuli\\visual\\switching\\arrow_blue_right.png'
g22
g31
I880
tp57
a(g17
g18
g40
I17
g20
g21
g22
g27
g24
S'C:\\Users\\Jbarrett\\Charlie\\charlie\\stimuli\\visual\\switching\\arrow_blue_right.png'
g21
g25
I550
tp58
a(g17
g18
g40
I18
g29
g21
g21
g30
g34
S'C:\\Users\\Jbarrett\\Charlie\\charlie\\stimuli\\visual\\switching\\arrow_red_left.png'
g21
g25
I1020
tp59
a(g17
g18
g40
I19
g29
g21
g21
g27
g34
S'C:\\Users\\Jbarrett\\Charlie\\charlie\\stimuli\\visual\\switching\\arrow_red_left.png'
g21
g25
I591
tp60
a(g17
g18
g40
I20
g20
g21
g22
g30
g24
S'C:\\Users\\Jbarrett\\Charlie\\charlie\\stimuli\\visual\\switching\\arrow_blue_right.png'
g21
g25
I1330
tp61
a(g17
g18
g40
I21
g20
g21
g22
g27
g24
S'C:\\Users\\Jbarrett\\Charlie\\charlie\\stimuli\\visual\\switching\\arrow_blue_right.png'
g21
g25
I580
tp62
a(g17
g18
g40
I22
g29
g22
g22
g30
g34
S'C:\\Users\\Jbarrett\\Charlie\\charlie\\stimuli\\visual\\switching\\arrow_red_right.png'
g22
g31
I1130
tp63
a(g17
g18
g40
I23
g29
g22
g21
g27
g24
S'C:\\Users\\Jbarrett\\Charlie\\charlie\\stimuli\\visual\\switching\\arrow_red_left.png'
g21
g25
I850
tp64
a(g17
g18
g40
I24
g20
g22
g21
g30
g24
S'C:\\Users\\Jbarrett\\Charlie\\charlie\\stimuli\\visual\\switching\\arrow_blue_left.png'
g22
g31
I900
tp65
a(g17
g18
g40
I25
g20
g21
g21
g27
g34
S'C:\\Users\\Jbarrett\\Charlie\\charlie\\stimuli\\visual\\switching\\arrow_blue_left.png'
g21
g25
I750
tp66
a(g17
g18
g40
I26
g29
g21
g21
g30
g34
S'C:\\Users\\Jbarrett\\Charlie\\charlie\\stimuli\\visual\\switching\\arrow_red_left.png'
g21
g25
I2140
tp67
a(g17
g18
g40
I27
g29
g21
g21
g27
g34
S'C:\\Users\\Jbarrett\\Charlie\\charlie\\stimuli\\visual\\switching\\arrow_red_left.png'
g21
g25
I440
tp68
a(g17
g18
g40
I28
g20
g21
g22
g30
g24
S'C:\\Users\\Jbarrett\\Charlie\\charlie\\stimuli\\visual\\switching\\arrow_blue_right.png'
g21
g31
I860
tp69
a(g17
g18
g40
I29
g20
g22
g21
g27
g24
S'C:\\Users\\Jbarrett\\Charlie\\charlie\\stimuli\\visual\\switching\\arrow_blue_left.png'
g22
g31
I680
tp70
a(g17
g18
g40
I30
g29
g21
g21
g30
g34
S'C:\\Users\\Jbarrett\\Charlie\\charlie\\stimuli\\visual\\switching\\arrow_red_left.png'
g21
g25
I1860
tp71
a(g17
g18
g40
I31
g29
g21
g21
g27
g34
S'C:\\Users\\Jbarrett\\Charlie\\charlie\\stimuli\\visual\\switching\\arrow_red_left.png'
g21
g25
I470
tp72
a(g17
g18
g40
I32
g20
g22
g22
g30
g34
S'C:\\Users\\Jbarrett\\Charlie\\charlie\\stimuli\\visual\\switching\\arrow_blue_right.png'
g22
g31
I920
tp73
a(g17
g18
g40
I33
g20
g22
g22
g27
g34
S'C:\\Users\\Jbarrett\\Charlie\\charlie\\stimuli\\visual\\switching\\arrow_blue_right.png'
g22
g31
I711
tp74
a(g17
g18
g40
I34
g29
g22
g21
g30
g24
S'C:\\Users\\Jbarrett\\Charlie\\charlie\\stimuli\\visual\\switching\\arrow_red_left.png'
g21
g25
I770
tp75
a(g17
g18
g40
I35
g29
g22
g22
g27
g34
S'C:\\Users\\Jbarrett\\Charlie\\charlie\\stimuli\\visual\\switching\\arrow_red_right.png'
g22
g31
I580
tp76
a(g17
g18
g40
I36
g20
g21
g22
g30
g24
S'C:\\Users\\Jbarrett\\Charlie\\charlie\\stimuli\\visual\\switching\\arrow_blue_right.png'
g21
g25
I880
tp77
a(g17
g18
g40
I37
g20
g22
g22
g27
g34
S'C:\\Users\\Jbarrett\\Charlie\\charlie\\stimuli\\visual\\switching\\arrow_blue_right.png'
g22
g31
I580
tp78
a(g17
g18
g40
I38
g29
g21
g22
g30
g24
S'C:\\Users\\Jbarrett\\Charlie\\charlie\\stimuli\\visual\\switching\\arrow_red_right.png'
g22
g31
I1170
tp79
a(g17
g18
g40
I39
g29
g22
g21
g27
g24
S'C:\\Users\\Jbarrett\\Charlie\\charlie\\stimuli\\visual\\switching\\arrow_red_left.png'
g21
g25
I600
tp80
a(g17
g18
g40
I40
g20
g22
g22
g30
g34
S'C:\\Users\\Jbarrett\\Charlie\\charlie\\stimuli\\visual\\switching\\arrow_blue_right.png'
g22
g31
I740
tp81
a(g17
g18
g40
I41
g20
g22
g21
g27
g24
S'C:\\Users\\Jbarrett\\Charlie\\charlie\\stimuli\\visual\\switching\\arrow_blue_left.png'
g22
g31
I1000
tp82
a(g17
g18
g40
I42
g29
g21
g21
g30
g34
S'C:\\Users\\Jbarrett\\Charlie\\charlie\\stimuli\\visual\\switching\\arrow_red_left.png'
g21
g25
I1290
tp83
a(g17
g18
g40
I43
g29
g21
g21
g27
g34
S'C:\\Users\\Jbarrett\\Charlie\\charlie\\stimuli\\visual\\switching\\arrow_red_left.png'
g21
g25
I430
tp84
a(g17
g18
g40
I44
g20
g22
g21
g30
g24
S'C:\\Users\\Jbarrett\\Charlie\\charlie\\stimuli\\visual\\switching\\arrow_blue_left.png'
g22
g31
I760
tp85
a(g17
g18
g40
I45
g20
g22
g21
g27
g24
S'C:\\Users\\Jbarrett\\Charlie\\charlie\\stimuli\\visual\\switching\\arrow_blue_left.png'
g22
g31
I400
tp86
a(g17
g18
g40
I46
g29
g22
g21
g30
g24
S'C:\\Users\\Jbarrett\\Charlie\\charlie\\stimuli\\visual\\switching\\arrow_red_left.png'
g21
g25
I1090
tp87
a(g17
g18
g40
I47
g29
g21
g21
g27
g34
S'C:\\Users\\Jbarrett\\Charlie\\charlie\\stimuli\\visual\\switching\\arrow_red_left.png'
g21
g25
I480
tp88
a(g17
g18
g40
I48
g20
g22
g21
g30
g24
S'C:\\Users\\Jbarrett\\Charlie\\charlie\\stimuli\\visual\\switching\\arrow_blue_left.png'
g22
g31
I970
tp89
a(g17
g18
g40
I49
g20
g21
g22
g27
g24
S'C:\\Users\\Jbarrett\\Charlie\\charlie\\stimuli\\visual\\switching\\arrow_blue_right.png'
g21
g25
I1541
tp90
a(g17
g18
g40
I50
g29
g22
g21
g30
g24
S'C:\\Users\\Jbarrett\\Charlie\\charlie\\stimuli\\visual\\switching\\arrow_red_left.png'
g21
g25
I1020
tp91
a(g17
g18
g40
I51
g29
g21
g21
g27
g34
S'C:\\Users\\Jbarrett\\Charlie\\charlie\\stimuli\\visual\\switching\\arrow_red_left.png'
g21
g25
I450
tp92
a(g17
g18
g40
I52
g20
g22
g21
g30
g24
S'C:\\Users\\Jbarrett\\Charlie\\charlie\\stimuli\\visual\\switching\\arrow_blue_left.png'
g22
g31
I670
tp93
a(g17
g18
g40
I53
g20
g22
g21
g27
g24
S'C:\\Users\\Jbarrett\\Charlie\\charlie\\stimuli\\visual\\switching\\arrow_blue_left.png'
g22
g31
I550
tp94
a(g17
g18
g40
I54
g29
g22
g21
g30
g24
S'C:\\Users\\Jbarrett\\Charlie\\charlie\\stimuli\\visual\\switching\\arrow_red_left.png'
g21
g25
I990
tp95
a(g17
g18
g40
I55
g29
g22
g22
g27
g34
S'C:\\Users\\Jbarrett\\Charlie\\charlie\\stimuli\\visual\\switching\\arrow_red_right.png'
g22
g31
I580
tp96
a(g17
g18
g40
I56
g20
g21
g22
g30
g24
S'C:\\Users\\Jbarrett\\Charlie\\charlie\\stimuli\\visual\\switching\\arrow_blue_right.png'
g21
g25
I880
tp97
a(g17
g18
g40
I57
g20
g21
g22
g27
g24
S'C:\\Users\\Jbarrett\\Charlie\\charlie\\stimuli\\visual\\switching\\arrow_blue_right.png'
g21
g25
I460
tp98
a(g17
g18
g40
I58
g29
g22
g22
g30
g34
S'C:\\Users\\Jbarrett\\Charlie\\charlie\\stimuli\\visual\\switching\\arrow_red_right.png'
g22
g31
I810
tp99
a(g17
g18
g40
I59
g29
g21
g21
g27
g34
S'C:\\Users\\Jbarrett\\Charlie\\charlie\\stimuli\\visual\\switching\\arrow_red_left.png'
g21
g25
I580
tp100
a(g17
g18
g40
I60
g20
g21
g21
g30
g34
S'C:\\Users\\Jbarrett\\Charlie\\charlie\\stimuli\\visual\\switching\\arrow_blue_left.png'
g21
g25
I710
tp101
a(g17
g18
g40
I61
g20
g21
g21
g27
g34
S'C:\\Users\\Jbarrett\\Charlie\\charlie\\stimuli\\visual\\switching\\arrow_blue_left.png'
g21
g25
I560
tp102
a(g17
g18
g40
I62
g29
g22
g22
g30
g34
S'C:\\Users\\Jbarrett\\Charlie\\charlie\\stimuli\\visual\\switching\\arrow_red_right.png'
g22
g31
I730
tp103
a(g17
g18
g40
I63
g29
g22
g22
g27
g34
S'C:\\Users\\Jbarrett\\Charlie\\charlie\\stimuli\\visual\\switching\\arrow_red_right.png'
g22
g31
I480
tp104
a(g17
g18
g40
I64
g20
g22
g22
g30
g34
S'C:\\Users\\Jbarrett\\Charlie\\charlie\\stimuli\\visual\\switching\\arrow_blue_right.png'
g22
g31
I620
tp105
a(g17
g18
g40
I65
g20
g21
g22
g27
g24
S'C:\\Users\\Jbarrett\\Charlie\\charlie\\stimuli\\visual\\switching\\arrow_blue_right.png'
g21
g25
I570
tp106
a(g17
g18
g40
I66
g29
g22
g22
g30
g34
S'C:\\Users\\Jbarrett\\Charlie\\charlie\\stimuli\\visual\\switching\\arrow_red_right.png'
g22
g31
I710
tp107
a(g17
g18
g40
I67
g29
g21
g22
g27
g24
S'C:\\Users\\Jbarrett\\Charlie\\charlie\\stimuli\\visual\\switching\\arrow_red_right.png'
g22
g31
I810
tp108
a(g17
g18
g40
I68
g20
g21
g21
g30
g34
S'C:\\Users\\Jbarrett\\Charlie\\charlie\\stimuli\\visual\\switching\\arrow_blue_left.png'
g21
g25
I680
tp109
a(g17
g18
g40
I69
g20
g22
g21
g27
g24
S'C:\\Users\\Jbarrett\\Charlie\\charlie\\stimuli\\visual\\switching\\arrow_blue_left.png'
g22
g25
I710
tp110
a(g17
g18
g40
I70
g29
g22
g21
g30
g24
S'C:\\Users\\Jbarrett\\Charlie\\charlie\\stimuli\\visual\\switching\\arrow_red_left.png'
g21
g25
I1960
tp111
a(g17
g18
g40
I71
g29
g22
g21
g27
g24
S'C:\\Users\\Jbarrett\\Charlie\\charlie\\stimuli\\visual\\switching\\arrow_red_left.png'
g21
g25
I560
tp112
a(g17
g18
g40
I72
g20
g22
g21
g30
g24
S'C:\\Users\\Jbarrett\\Charlie\\charlie\\stimuli\\visual\\switching\\arrow_blue_left.png'
g22
g31
I1090
tp113
a(g17
g18
g40
I73
g20
g21
g22
g27
g24
S'C:\\Users\\Jbarrett\\Charlie\\charlie\\stimuli\\visual\\switching\\arrow_blue_right.png'
g21
g25
I960
tp114
a(g17
g18
g40
I74
g29
g22
g22
g30
g34
S'C:\\Users\\Jbarrett\\Charlie\\charlie\\stimuli\\visual\\switching\\arrow_red_right.png'
g22
g31
I1050
tp115
a(g17
g18
g40
I75
g29
g22
g22
g27
g34
S'C:\\Users\\Jbarrett\\Charlie\\charlie\\stimuli\\visual\\switching\\arrow_red_right.png'
g22
g31
I420
tp116
a(g17
g18
g40
I76
g20
g22
g22
g30
g34
S'C:\\Users\\Jbarrett\\Charlie\\charlie\\stimuli\\visual\\switching\\arrow_blue_right.png'
g22
g31
I2340
tp117
a(g17
g18
g40
I77
g20
g21
g22
g27
g24
S'C:\\Users\\Jbarrett\\Charlie\\charlie\\stimuli\\visual\\switching\\arrow_blue_right.png'
g21
g31
I850
tp118
a(g17
g18
g40
I78
g29
g21
g21
g30
g34
S'C:\\Users\\Jbarrett\\Charlie\\charlie\\stimuli\\visual\\switching\\arrow_red_left.png'
g21
g25
I920
tp119
a(g17
g18
g40
I79
g29
g21
g22
g27
g24
S'C:\\Users\\Jbarrett\\Charlie\\charlie\\stimuli\\visual\\switching\\arrow_red_right.png'
g22
g31
I1110
tp120
a(g17
g18
g40
I80
g20
g22
g21
g30
g24
S'C:\\Users\\Jbarrett\\Charlie\\charlie\\stimuli\\visual\\switching\\arrow_blue_left.png'
g22
g25
I1011
tp121
a(g17
g18
g40
I81
g20
g21
g21
g27
g34
S'C:\\Users\\Jbarrett\\Charlie\\charlie\\stimuli\\visual\\switching\\arrow_blue_left.png'
g21
g25
I600
tp122
a(g17
g18
g40
I82
g29
g21
g21
g30
g34
S'C:\\Users\\Jbarrett\\Charlie\\charlie\\stimuli\\visual\\switching\\arrow_red_left.png'
g21
g25
I900
tp123
a(g17
g18
g40
I83
g29
g22
g22
g27
g34
S'C:\\Users\\Jbarrett\\Charlie\\charlie\\stimuli\\visual\\switching\\arrow_red_right.png'
g22
g31
I770
tp124
a(g17
g18
g40
I84
g20
g22
g21
g30
g24
S'C:\\Users\\Jbarrett\\Charlie\\charlie\\stimuli\\visual\\switching\\arrow_blue_left.png'
g22
g31
I840
tp125
a(g17
g18
g40
I85
g20
g22
g21
g27
g24
S'C:\\Users\\Jbarrett\\Charlie\\charlie\\stimuli\\visual\\switching\\arrow_blue_left.png'
g22
g31
I700
tp126
a(g17
g18
g40
I86
g29
g22
g22
g30
g34
S'C:\\Users\\Jbarrett\\Charlie\\charlie\\stimuli\\visual\\switching\\arrow_red_right.png'
g22
g31
I620
tp127
a(g17
g18
g40
I87
g29
g22
g22
g27
g34
S'C:\\Users\\Jbarrett\\Charlie\\charlie\\stimuli\\visual\\switching\\arrow_red_right.png'
g22
g31
I430
tp128
a(g17
g18
g40
I88
g20
g22
g22
g30
g34
S'C:\\Users\\Jbarrett\\Charlie\\charlie\\stimuli\\visual\\switching\\arrow_blue_right.png'
g22
g31
I590
tp129
a(g17
g18
g40
I89
g20
g21
g22
g27
g24
S'C:\\Users\\Jbarrett\\Charlie\\charlie\\stimuli\\visual\\switching\\arrow_blue_right.png'
g21
g25
I630
tp130
a(g17
g18
g40
I90
g29
g22
g22
g30
g34
S'C:\\Users\\Jbarrett\\Charlie\\charlie\\stimuli\\visual\\switching\\arrow_red_right.png'
g22
g31
I550
tp131
a(g17
g18
g40
I91
g29
g21
g21
g27
g34
S'C:\\Users\\Jbarrett\\Charlie\\charlie\\stimuli\\visual\\switching\\arrow_red_left.png'
g21
g25
I520
tp132
a(g17
g18
g40
I92
g20
g21
g21
g30
g34
S'C:\\Users\\Jbarrett\\Charlie\\charlie\\stimuli\\visual\\switching\\arrow_blue_left.png'
g21
g25
I500
tp133
a(g17
g18
g40
I93
g20
g22
g22
g27
g34
S'C:\\Users\\Jbarrett\\Charlie\\charlie\\stimuli\\visual\\switching\\arrow_blue_right.png'
g22
g31
I490
tp134
a(g17
g18
g40
I94
g29
g21
g21
g30
g34
S'C:\\Users\\Jbarrett\\Charlie\\charlie\\stimuli\\visual\\switching\\arrow_red_left.png'
g21
g25
I460
tp135
a(g17
g18
g40
I95
g29
g21
g21
g27
g34
S'C:\\Users\\Jbarrett\\Charlie\\charlie\\stimuli\\visual\\switching\\arrow_red_left.png'
g21
g25
I620
tp136
a(g17
g18
g40
I96
g20
g21
g21
g30
g34
S'C:\\Users\\Jbarrett\\Charlie\\charlie\\stimuli\\visual\\switching\\arrow_blue_left.png'
g21
g25
I570
tp137
a(g17
g18
g40
I97
g20
g22
g22
g27
g34
S'C:\\Users\\Jbarrett\\Charlie\\charlie\\stimuli\\visual\\switching\\arrow_blue_right.png'
g22
g31
I440
tp138
a(g17
g18
g40
I98
g29
g21
g21
g30
g34
S'C:\\Users\\Jbarrett\\Charlie\\charlie\\stimuli\\visual\\switching\\arrow_red_left.png'
g21
g25
I640
tp139
a(g17
g18
g40
I99
g29
g21
g22
g27
g24
S'C:\\Users\\Jbarrett\\Charlie\\charlie\\stimuli\\visual\\switching\\arrow_red_right.png'
g22
g31
I761
tp140
a(g17
g18
g40
I100
g20
g21
g21
g30
g34
S'C:\\Users\\Jbarrett\\Charlie\\charlie\\stimuli\\visual\\switching\\arrow_blue_left.png'
g21
g25
I570
tp141
a(g17
g18
S'random'
p142
I0
g20
g22
g22
g23
g34
S'C:\\Users\\Jbarrett\\Charlie\\charlie\\stimuli\\visual\\switching\\arrow_blue_right.png'
g22
g31
I680
tp143
a(g17
g18
g142
I1
g20
g21
g21
g27
g34
S'C:\\Users\\Jbarrett\\Charlie\\charlie\\stimuli\\visual\\switching\\arrow_blue_left.png'
g21
g25
I490
tp144
a(g17
g18
g142
I2
g20
g22
g22
g27
g34
S'C:\\Users\\Jbarrett\\Charlie\\charlie\\stimuli\\visual\\switching\\arrow_blue_right.png'
g22
g31
I581
tp145
a(g17
g18
g142
I3
g29
g21
g21
g30
g34
S'C:\\Users\\Jbarrett\\Charlie\\charlie\\stimuli\\visual\\switching\\arrow_red_left.png'
g21
g25
I730
tp146
a(g17
g18
g142
I4
g20
g22
g21
g30
g24
S'C:\\Users\\Jbarrett\\Charlie\\charlie\\stimuli\\visual\\switching\\arrow_blue_left.png'
g22
g31
I930
tp147
a(g17
g18
g142
I5
g20
g22
g21
g27
g24
S'C:\\Users\\Jbarrett\\Charlie\\charlie\\stimuli\\visual\\switching\\arrow_blue_left.png'
g22
g31
I500
tp148
a(g17
g18
g142
I6
g20
g21
g22
g27
g24
S'C:\\Users\\Jbarrett\\Charlie\\charlie\\stimuli\\visual\\switching\\arrow_blue_right.png'
g21
g25
I890
tp149
a(g17
g18
g142
I7
g29
g21
g22
g30
g24
S'C:\\Users\\Jbarrett\\Charlie\\charlie\\stimuli\\visual\\switching\\arrow_red_right.png'
g22
g31
I630
tp150
a(g17
g18
g142
I8
g29
g21
g21
g27
g34
S'C:\\Users\\Jbarrett\\Charlie\\charlie\\stimuli\\visual\\switching\\arrow_red_left.png'
g21
g25
I600
tp151
a(g17
g18
g142
I9
g29
g22
g22
g27
g34
S'C:\\Users\\Jbarrett\\Charlie\\charlie\\stimuli\\visual\\switching\\arrow_red_right.png'
g22
g31
I590
tp152
a(g17
g18
g142
I10
g20
g22
g22
g30
g34
S'C:\\Users\\Jbarrett\\Charlie\\charlie\\stimuli\\visual\\switching\\arrow_blue_right.png'
g22
g31
I670
tp153
a(g17
g18
g142
I11
g20
g22
g21
g27
g24
S'C:\\Users\\Jbarrett\\Charlie\\charlie\\stimuli\\visual\\switching\\arrow_blue_left.png'
g22
g31
I950
tp154
a(g17
g18
g142
I12
g20
g21
g22
g27
g24
S'C:\\Users\\Jbarrett\\Charlie\\charlie\\stimuli\\visual\\switching\\arrow_blue_right.png'
g21
g25
I1101
tp155
a(g17
g18
g142
I13
g20
g21
g21
g27
g34
S'C:\\Users\\Jbarrett\\Charlie\\charlie\\stimuli\\visual\\switching\\arrow_blue_left.png'
g21
g25
I630
tp156
a(g17
g18
g142
I14
g29
g22
g21
g30
g24
S'C:\\Users\\Jbarrett\\Charlie\\charlie\\stimuli\\visual\\switching\\arrow_red_left.png'
g21
g25
I1210
tp157
a(g17
g18
g142
I15
g29
g21
g22
g27
g24
S'C:\\Users\\Jbarrett\\Charlie\\charlie\\stimuli\\visual\\switching\\arrow_red_right.png'
g22
g31
I560
tp158
a(g17
g18
g142
I16
g29
g22
g22
g27
g34
S'C:\\Users\\Jbarrett\\Charlie\\charlie\\stimuli\\visual\\switching\\arrow_red_right.png'
g22
g31
I530
tp159
a(g17
g18
g142
I17
g20
g22
g21
g30
g24
S'C:\\Users\\Jbarrett\\Charlie\\charlie\\stimuli\\visual\\switching\\arrow_blue_left.png'
g22
g31
I950
tp160
a(g17
g18
g142
I18
g29
g22
g21
g30
g24
S'C:\\Users\\Jbarrett\\Charlie\\charlie\\stimuli\\visual\\switching\\arrow_red_left.png'
g21
g25
I800
tp161
a(g17
g18
g142
I19
g29
g21
g22
g27
g24
S'C:\\Users\\Jbarrett\\Charlie\\charlie\\stimuli\\visual\\switching\\arrow_red_right.png'
g22
g31
I620
tp162
a(g17
g18
g142
I20
g29
g21
g21
g27
g34
S'C:\\Users\\Jbarrett\\Charlie\\charlie\\stimuli\\visual\\switching\\arrow_red_left.png'
g21
g25
I560
tp163
a(g17
g18
g142
I21
g20
g21
g22
g30
g24
S'C:\\Users\\Jbarrett\\Charlie\\charlie\\stimuli\\visual\\switching\\arrow_blue_right.png'
g21
g25
I900
tp164
a(g17
g18
g142
I22
g20
g22
g22
g27
g34
S'C:\\Users\\Jbarrett\\Charlie\\charlie\\stimuli\\visual\\switching\\arrow_blue_right.png'
g22
g31
I610
tp165
a(g17
g18
g142
I23
g29
g22
g21
g30
g24
S'C:\\Users\\Jbarrett\\Charlie\\charlie\\stimuli\\visual\\switching\\arrow_red_left.png'
g21
g25
I1010
tp166
a(g17
g18
g142
I24
g20
g21
g21
g30
g34
S'C:\\Users\\Jbarrett\\Charlie\\charlie\\stimuli\\visual\\switching\\arrow_blue_left.png'
g21
g25
I760
tp167
a(g17
g18
g142
I25
g29
g22
g22
g30
g34
S'C:\\Users\\Jbarrett\\Charlie\\charlie\\stimuli\\visual\\switching\\arrow_red_right.png'
g22
g31
I1340
tp168
a(g17
g18
g142
I26
g29
g22
g21
g27
g24
S'C:\\Users\\Jbarrett\\Charlie\\charlie\\stimuli\\visual\\switching\\arrow_red_left.png'
g21
g25
I640
tp169
a(g17
g18
g142
I27
g29
g22
g22
g27
g34
S'C:\\Users\\Jbarrett\\Charlie\\charlie\\stimuli\\visual\\switching\\arrow_red_right.png'
g22
g31
I590
tp170
a(g17
g18
g142
I28
g20
g22
g22
g30
g34
S'C:\\Users\\Jbarrett\\Charlie\\charlie\\stimuli\\visual\\switching\\arrow_blue_right.png'
g22
g31
I671
tp171
a(g17
g18
g142
I29
g29
g21
g22
g30
g24
S'C:\\Users\\Jbarrett\\Charlie\\charlie\\stimuli\\visual\\switching\\arrow_red_right.png'
g22
g31
I1440
tp172
a(g17
g18
g142
I30
g29
g22
g22
g27
g34
S'C:\\Users\\Jbarrett\\Charlie\\charlie\\stimuli\\visual\\switching\\arrow_red_right.png'
g22
g31
I540
tp173
a(g17
g18
g142
I31
g29
g22
g22
g27
g34
S'C:\\Users\\Jbarrett\\Charlie\\charlie\\stimuli\\visual\\switching\\arrow_red_right.png'
g22
g31
I780
tp174
a(g17
g18
g142
I32
g29
g21
g21
g27
g34
S'C:\\Users\\Jbarrett\\Charlie\\charlie\\stimuli\\visual\\switching\\arrow_red_left.png'
g21
g25
I550
tp175
a(g17
g18
g142
I33
g29
g22
g21
g27
g24
S'C:\\Users\\Jbarrett\\Charlie\\charlie\\stimuli\\visual\\switching\\arrow_red_left.png'
g21
g25
I600
tp176
a(g17
g18
g142
I34
g20
g22
g22
g30
g34
S'C:\\Users\\Jbarrett\\Charlie\\charlie\\stimuli\\visual\\switching\\arrow_blue_right.png'
g22
g31
I740
tp177
a(g17
g18
g142
I35
g29
g21
g22
g30
g24
S'C:\\Users\\Jbarrett\\Charlie\\charlie\\stimuli\\visual\\switching\\arrow_red_right.png'
g22
g31
I770
tp178
a(g17
g18
g142
I36
g20
g22
g21
g30
g24
S'C:\\Users\\Jbarrett\\Charlie\\charlie\\stimuli\\visual\\switching\\arrow_blue_left.png'
g22
g25
I640
tp179
a(g17
g18
g142
I37
g20
g22
g22
g27
g34
S'C:\\Users\\Jbarrett\\Charlie\\charlie\\stimuli\\visual\\switching\\arrow_blue_right.png'
g22
g31
I1750
tp180
a(g17
g18
g142
I38
g20
g22
g22
g27
g34
S'C:\\Users\\Jbarrett\\Charlie\\charlie\\stimuli\\visual\\switching\\arrow_blue_right.png'
g22
g31
I750
tp181
a(g17
g18
g142
I39
g20
g21
g21
g27
g34
S'C:\\Users\\Jbarrett\\Charlie\\charlie\\stimuli\\visual\\switching\\arrow_blue_left.png'
g21
g25
I640
tp182
a(g17
g18
g142
I40
g29
g21
g21
g30
g34
S'C:\\Users\\Jbarrett\\Charlie\\charlie\\stimuli\\visual\\switching\\arrow_red_left.png'
g21
g25
I900
tp183
a(g17
g18
g142
I41
g20
g22
g22
g30
g34
S'C:\\Users\\Jbarrett\\Charlie\\charlie\\stimuli\\visual\\switching\\arrow_blue_right.png'
g22
g31
I1160
tp184
a(g17
g18
g142
I42
g29
g21
g22
g30
g24
S'C:\\Users\\Jbarrett\\Charlie\\charlie\\stimuli\\visual\\switching\\arrow_red_right.png'
g22
g31
I1730
tp185
a(g17
g18
g142
I43
g20
g21
g22
g30
g24
S'C:\\Users\\Jbarrett\\Charlie\\charlie\\stimuli\\visual\\switching\\arrow_blue_right.png'
g21
g25
I1010
tp186
a(g17
g18
g142
I44
g29
g21
g22
g30
g24
S'C:\\Users\\Jbarrett\\Charlie\\charlie\\stimuli\\visual\\switching\\arrow_red_right.png'
g22
g31
I1080
tp187
a(g17
g18
g142
I45
g20
g22
g21
g30
g24
S'C:\\Users\\Jbarrett\\Charlie\\charlie\\stimuli\\visual\\switching\\arrow_blue_left.png'
g22
g25
I980
tp188
a(g17
g18
g142
I46
g20
g21
g21
g27
g34
S'C:\\Users\\Jbarrett\\Charlie\\charlie\\stimuli\\visual\\switching\\arrow_blue_left.png'
g21
g25
I710
tp189
a(g17
g18
g142
I47
g20
g21
g21
g27
g34
S'C:\\Users\\Jbarrett\\Charlie\\charlie\\stimuli\\visual\\switching\\arrow_blue_left.png'
g21
g25
I460
tp190
a(g17
g18
g142
I48
g29
g21
g21
g30
g34
S'C:\\Users\\Jbarrett\\Charlie\\charlie\\stimuli\\visual\\switching\\arrow_red_left.png'
g21
g25
I690
tp191
a(g17
g18
g142
I49
g29
g21
g21
g27
g34
S'C:\\Users\\Jbarrett\\Charlie\\charlie\\stimuli\\visual\\switching\\arrow_red_left.png'
g21
g25
I430
tp192
a(g17
g18
g142
I50
g29
g22
g22
g27
g34
S'C:\\Users\\Jbarrett\\Charlie\\charlie\\stimuli\\visual\\switching\\arrow_red_right.png'
g22
g31
I470
tp193
a(g17
g18
g142
I51
g29
g22
g21
g27
g24
S'C:\\Users\\Jbarrett\\Charlie\\charlie\\stimuli\\visual\\switching\\arrow_red_left.png'
g21
g25
I640
tp194
a(g17
g18
g142
I52
g29
g21
g22
g27
g24
S'C:\\Users\\Jbarrett\\Charlie\\charlie\\stimuli\\visual\\switching\\arrow_red_right.png'
g22
g31
I630
tp195
a(g17
g18
g142
I53
g29
g22
g22
g27
g34
S'C:\\Users\\Jbarrett\\Charlie\\charlie\\stimuli\\visual\\switching\\arrow_red_right.png'
g22
g31
I530
tp196
a(g17
g18
g142
I54
g20
g22
g21
g30
g24
S'C:\\Users\\Jbarrett\\Charlie\\charlie\\stimuli\\visual\\switching\\arrow_blue_left.png'
g22
g31
I640
tp197
a(g17
g18
g142
I55
g20
g21
g21
g27
g34
S'C:\\Users\\Jbarrett\\Charlie\\charlie\\stimuli\\visual\\switching\\arrow_blue_left.png'
g21
g25
I610
tp198
a(g17
g18
g142
I56
g29
g21
g21
g30
g34
S'C:\\Users\\Jbarrett\\Charlie\\charlie\\stimuli\\visual\\switching\\arrow_red_left.png'
g21
g25
I710
tp199
a(g17
g18
g142
I57
g20
g21
g21
g30
g34
S'C:\\Users\\Jbarrett\\Charlie\\charlie\\stimuli\\visual\\switching\\arrow_blue_left.png'
g21
g25
I870
tp200
a(g17
g18
g142
I58
g20
g21
g22
g27
g24
S'C:\\Users\\Jbarrett\\Charlie\\charlie\\stimuli\\visual\\switching\\arrow_blue_right.png'
g21
g31
I1100
tp201
a(g17
g18
g142
I59
g29
g21
g21
g30
g34
S'C:\\Users\\Jbarrett\\Charlie\\charlie\\stimuli\\visual\\switching\\arrow_red_left.png'
g21
g25
I1581
tp202
a(g17
g18
g142
I60
g20
g21
g22
g30
g24
S'C:\\Users\\Jbarrett\\Charlie\\charlie\\stimuli\\visual\\switching\\arrow_blue_right.png'
g21
g25
I1670
tp203
a(g17
g18
g142
I61
g20
g22
g22
g27
g34
S'C:\\Users\\Jbarrett\\Charlie\\charlie\\stimuli\\visual\\switching\\arrow_blue_right.png'
g22
g31
I550
tp204
a(g17
g18
g142
I62
g29
g22
g21
g30
g24
S'C:\\Users\\Jbarrett\\Charlie\\charlie\\stimuli\\visual\\switching\\arrow_red_left.png'
g21
g25
I770
tp205
a(g17
g18
g142
I63
g20
g22
g22
g30
g34
S'C:\\Users\\Jbarrett\\Charlie\\charlie\\stimuli\\visual\\switching\\arrow_blue_right.png'
g22
g31
I550
tp206
a(g17
g18
g142
I64
g29
g21
g21
g30
g34
S'C:\\Users\\Jbarrett\\Charlie\\charlie\\stimuli\\visual\\switching\\arrow_red_left.png'
g21
g25
I1640
tp207
a(g17
g18
g142
I65
g29
g22
g21
g27
g24
S'C:\\Users\\Jbarrett\\Charlie\\charlie\\stimuli\\visual\\switching\\arrow_red_left.png'
g21
g25
I620
tp208
a(g17
g18
g142
I66
g20
g21
g22
g30
g24
S'C:\\Users\\Jbarrett\\Charlie\\charlie\\stimuli\\visual\\switching\\arrow_blue_right.png'
g21
g31
I760
tp209
a(g17
g18
g142
I67
g20
g21
g22
g27
g24
S'C:\\Users\\Jbarrett\\Charlie\\charlie\\stimuli\\visual\\switching\\arrow_blue_right.png'
g21
g25
I890
tp210
a(g17
g18
g142
I68
g29
g21
g21
g30
g34
S'C:\\Users\\Jbarrett\\Charlie\\charlie\\stimuli\\visual\\switching\\arrow_red_left.png'
g21
g25
I540
tp211
a(g17
g18
g142
I69
g29
g22
g21
g27
g24
S'C:\\Users\\Jbarrett\\Charlie\\charlie\\stimuli\\visual\\switching\\arrow_red_left.png'
g21
g25
I920
tp212
a(g17
g18
g142
I70
g29
g22
g21
g27
g24
S'C:\\Users\\Jbarrett\\Charlie\\charlie\\stimuli\\visual\\switching\\arrow_red_left.png'
g21
g25
I750
tp213
a(g17
g18
g142
I71
g29
g22
g22
g27
g34
S'C:\\Users\\Jbarrett\\Charlie\\charlie\\stimuli\\visual\\switching\\arrow_red_right.png'
g22
g31
I480
tp214
a(g17
g18
g142
I72
g20
g21
g21
g30
g34
S'C:\\Users\\Jbarrett\\Charlie\\charlie\\stimuli\\visual\\switching\\arrow_blue_left.png'
g21
g25
I610
tp215
a(g17
g18
g142
I73
g20
g21
g22
g27
g24
S'C:\\Users\\Jbarrett\\Charlie\\charlie\\stimuli\\visual\\switching\\arrow_blue_right.png'
g21
g25
I770
tp216
a(g17
g18
g142
I74
g29
g21
g22
g30
g24
S'C:\\Users\\Jbarrett\\Charlie\\charlie\\stimuli\\visual\\switching\\arrow_red_right.png'
g22
g31
I940
tp217
a(g17
g18
g142
I75
g20
g21
g21
g30
g34
S'C:\\Users\\Jbarrett\\Charlie\\charlie\\stimuli\\visual\\switching\\arrow_blue_left.png'
g21
g25
I640
tp218
a(g17
g18
g142
I76
g29
g21
g21
g30
g34
S'C:\\Users\\Jbarrett\\Charlie\\charlie\\stimuli\\visual\\switching\\arrow_red_left.png'
g21
g25
I1780
tp219
a(g17
g18
g142
I77
g20
g21
g22
g30
g24
S'C:\\Users\\Jbarrett\\Charlie\\charlie\\stimuli\\visual\\switching\\arrow_blue_right.png'
g21
g25
I670
tp220
a(g17
g18
g142
I78
g20
g21
g22
g27
g24
S'C:\\Users\\Jbarrett\\Charlie\\charlie\\stimuli\\visual\\switching\\arrow_blue_right.png'
g21
g25
I610
tp221
a(g17
g18
g142
I79
g29
g21
g21
g30
g34
S'C:\\Users\\Jbarrett\\Charlie\\charlie\\stimuli\\visual\\switching\\arrow_red_left.png'
g21
g25
I650
tp222
a(g17
g18
g142
I80
g20
g22
g21
g30
g24
S'C:\\Users\\Jbarrett\\Charlie\\charlie\\stimuli\\visual\\switching\\arrow_blue_left.png'
g22
g31
I1320
tp223
a(g17
g18
g142
I81
g29
g22
g21
g30
g24
S'C:\\Users\\Jbarrett\\Charlie\\charlie\\stimuli\\visual\\switching\\arrow_red_left.png'
g21
g25
I1170
tp224
a(g17
g18
g142
I82
g29
g22
g21
g27
g24
S'C:\\Users\\Jbarrett\\Charlie\\charlie\\stimuli\\visual\\switching\\arrow_red_left.png'
g21
g25
I560
tp225
a(g17
g18
g142
I83
g20
g22
g22
g30
g34
S'C:\\Users\\Jbarrett\\Charlie\\charlie\\stimuli\\visual\\switching\\arrow_blue_right.png'
g22
g31
I1080
tp226
a(g17
g18
g142
I84
g29
g22
g21
g30
g24
S'C:\\Users\\Jbarrett\\Charlie\\charlie\\stimuli\\visual\\switching\\arrow_red_left.png'
g21
g25
I900
tp227
a(g17
g18
g142
I85
g29
g21
g22
g27
g24
S'C:\\Users\\Jbarrett\\Charlie\\charlie\\stimuli\\visual\\switching\\arrow_red_right.png'
g22
g31
I800
tp228
a(g17
g18
g142
I86
g20
g21
g22
g30
g24
S'C:\\Users\\Jbarrett\\Charlie\\charlie\\stimuli\\visual\\switching\\arrow_blue_right.png'
g21
g25
I1980
tp229
a(g17
g18
g142
I87
g29
g22
g22
g30
g34
S'C:\\Users\\Jbarrett\\Charlie\\charlie\\stimuli\\visual\\switching\\arrow_red_right.png'
g22
g31
I600
tp230
a(g17
g18
g142
I88
g29
g22
g22
g27
g34
S'C:\\Users\\Jbarrett\\Charlie\\charlie\\stimuli\\visual\\switching\\arrow_red_right.png'
g22
g31
I460
tp231
a(g17
g18
g142
I89
g20
g22
g21
g30
g24
S'C:\\Users\\Jbarrett\\Charlie\\charlie\\stimuli\\visual\\switching\\arrow_blue_left.png'
g22
g31
I951
tp232
a(g17
g18
g142
I90
g20
g21
g22
g27
g24
S'C:\\Users\\Jbarrett\\Charlie\\charlie\\stimuli\\visual\\switching\\arrow_blue_right.png'
g21
g25
I1060
tp233
a(g17
g18
g142
I91
g20
g22
g21
g27
g24
S'C:\\Users\\Jbarrett\\Charlie\\charlie\\stimuli\\visual\\switching\\arrow_blue_left.png'
g22
g31
I820
tp234
a(g17
g18
g142
I92
g29
g21
g21
g30
g34
S'C:\\Users\\Jbarrett\\Charlie\\charlie\\stimuli\\visual\\switching\\arrow_red_left.png'
g21
g25
I600
tp235
a(g17
g18
g142
I93
g20
g22
g22
g30
g34
S'C:\\Users\\Jbarrett\\Charlie\\charlie\\stimuli\\visual\\switching\\arrow_blue_right.png'
g22
g31
I1210
tp236
a(g17
g18
g142
I94
g29
g22
g22
g30
g34
S'C:\\Users\\Jbarrett\\Charlie\\charlie\\stimuli\\visual\\switching\\arrow_red_right.png'
g22
g31
I980
tp237
a(g17
g18
g142
I95
g29
g21
g21
g27
g34
S'C:\\Users\\Jbarrett\\Charlie\\charlie\\stimuli\\visual\\switching\\arrow_red_left.png'
g21
g25
I480
tp238
a(g17
g18
g142
I96
g20
g22
g22
g30
g34
S'C:\\Users\\Jbarrett\\Charlie\\charlie\\stimuli\\visual\\switching\\arrow_blue_right.png'
g22
g31
I610
tp239
a(g17
g18
g142
I97
g20
g21
g21
g27
g34
S'C:\\Users\\Jbarrett\\Charlie\\charlie\\stimuli\\visual\\switching\\arrow_blue_left.png'
g21
g25
I530
tp240
a(g17
g18
g142
I98
g20
g22
g22
g27
g34
S'C:\\Users\\Jbarrett\\Charlie\\charlie\\stimuli\\visual\\switching\\arrow_blue_right.png'
g22
g31
I660
tp241
a(g17
g18
g142
I99
g20
g21
g21
g27
g34
S'C:\\Users\\Jbarrett\\Charlie\\charlie\\stimuli\\visual\\switching\\arrow_blue_left.png'
g21
g25
I1030
tp242
a(g17
g18
g142
I100
g20
g22
g22
g27
g34
S'C:\\Users\\Jbarrett\\Charlie\\charlie\\stimuli\\visual\\switching\\arrow_blue_right.png'
p243
g22
g31
I420
tp244
asS'output_format'
p245
(lp246
(S'proband_id'
p247
c__builtin__
str
p248
tp249
a(S'test_name'
p250
g248
tp251
a(S'phase'
p252
g248
tp253
a(S'trialn'
p254
c__builtin__
int
p255
tp256
a(S'task'
p257
g248
tp258
a(S'pos'
p259
g248
tp260
a(S'dir'
p261
g248
tp262
a(S'switch'
p263
g248
tp264
a(S'cong'
p265
g248
tp266
a(S'f'
g248
tp267
a(S'ans'
p268
g248
tp269
a(S'rsp'
p270
g248
tp271
a(S'rt'
p272
g255
tp273
asg247
g17
sS'filename'
p274
S'K106_switching.data'
p275
sS'initialised'
p276
g8
(S'\x07\xdf\x02\x14\n\x02\t\r\x9c`'
tRp277
sS'last_udated'
p278
g8
(S'\x07\xdf\x02\x14\n\x02\t\r\x9c`'
tRp279
sg250
S'switching'
p280
sS'directory'
p281
S'C:\\Users\\Jbarrett\\Charlie\\charlie\\data\\raw'
p282
sS'user_id'
p283
S''
sS'test_started'
p284
I01
sS'abs_filename'
p285
S'C:\\Users\\Jbarrett\\Charlie\\charlie\\data\\raw\\K106_switching.data'
p286
sS'date_started'
p287
g8
(S'\x07\xdf\x02\x14\n\x03\x06\x0b\x94\xd8'
tRp288
sS'log'
p289
(lp290
(S'2015-02-20 10:02:09.892000'
S'instance created'
p291
tp292
a(S'2015-02-20 10:03:06.772000'
S'instance updated'
p293
tp294
a(S'2015-02-20 10:03:06.785000'
S'pandas DataFrame of data created'
p295
tp296
a(S'2015-02-20 10:03:06.789000'
S'data saved as csv to C:\\Users\\Jbarrett\\Charlie\\charlie\\data\\csv\\K106_switching.csv'
tp297
a(S'2015-02-20 10:03:10.776000'
g293
tp298
a(S'2015-02-20 10:03:10.789000'
g295
tp299
a(S'2015-02-20 10:03:10.793000'
S'data saved as csv to C:\\Users\\Jbarrett\\Charlie\\charlie\\data\\csv\\K106_switching.csv'
tp300
a(S'2015-02-20 10:03:13.180000'
g293
tp301
a(S'2015-02-20 10:03:13.193000'
g295
tp302
a(S'2015-02-20 10:03:13.197000'
S'data saved as csv to C:\\Users\\Jbarrett\\Charlie\\charlie\\data\\csv\\K106_switching.csv'
tp303
a(S'2015-02-20 10:03:15.194000'
g293
tp304
a(S'2015-02-20 10:03:15.206000'
g295
tp305
a(S'2015-02-20 10:03:15.210000'
S'data saved as csv to C:\\Users\\Jbarrett\\Charlie\\charlie\\data\\csv\\K106_switching.csv'
tp306
a(S'2015-02-20 10:03:17.026000'
g293
tp307
a(S'2015-02-20 10:03:17.040000'
g295
tp308
a(S'2015-02-20 10:03:17.043000'
S'data saved as csv to C:\\Users\\Jbarrett\\Charlie\\charlie\\data\\csv\\K106_switching.csv'
tp309
a(S'2015-02-20 10:03:19.081000'
g293
tp310
a(S'2015-02-20 10:03:19.094000'
g295
tp311
a(S'2015-02-20 10:03:19.098000'
S'data saved as csv to C:\\Users\\Jbarrett\\Charlie\\charlie\\data\\csv\\K106_switching.csv'
tp312
a(S'2015-02-20 10:03:21.996000'
g293
tp313
a(S'2015-02-20 10:03:22.010000'
g295
tp314
a(S'2015-02-20 10:03:22.014000'
S'data saved as csv to C:\\Users\\Jbarrett\\Charlie\\charlie\\data\\csv\\K106_switching.csv'
tp315
a(S'2015-02-20 10:03:23.610000'
g293
tp316
a(S'2015-02-20 10:03:23.623000'
g295
tp317
a(S'2015-02-20 10:03:23.625000'
S'data saved as csv to C:\\Users\\Jbarrett\\Charlie\\charlie\\data\\csv\\K106_switching.csv'
tp318
a(S'2015-02-20 10:03:25.642000'
g293
tp319
a(S'2015-02-20 10:03:25.645000'
g295
tp320
a(S'2015-02-20 10:03:25.647000'
S'data saved as csv to C:\\Users\\Jbarrett\\Charlie\\charlie\\data\\csv\\K106_switching.csv'
tp321
a(S'2015-02-20 10:03:46.273000'
g293
tp322
a(S'2015-02-20 10:03:46.286000'
g295
tp323
a(S'2015-02-20 10:03:46.289000'
S'data saved as csv to C:\\Users\\Jbarrett\\Charlie\\charlie\\data\\csv\\K106_switching.csv'
tp324
a(S'2015-02-20 10:03:47.458000'
g293
tp325
a(S'2015-02-20 10:03:47.471000'
g295
tp326
a(S'2015-02-20 10:03:47.474000'
S'data saved as csv to C:\\Users\\Jbarrett\\Charlie\\charlie\\data\\csv\\K106_switching.csv'
tp327
a(S'2015-02-20 10:03:48.710000'
g293
tp328
a(S'2015-02-20 10:03:48.724000'
g295
tp329
a(S'2015-02-20 10:03:48.728000'
S'data saved as csv to C:\\Users\\Jbarrett\\Charlie\\charlie\\data\\csv\\K106_switching.csv'
tp330
a(S'2015-02-20 10:03:50.008000'
g293
tp331
a(S'2015-02-20 10:03:50.021000'
g295
tp332
a(S'2015-02-20 10:03:50.025000'
S'data saved as csv to C:\\Users\\Jbarrett\\Charlie\\charlie\\data\\csv\\K106_switching.csv'
tp333
a(S'2015-02-20 10:03:51.384000'
g293
tp334
a(S'2015-02-20 10:03:51.397000'
g295
tp335
a(S'2015-02-20 10:03:51.401000'
S'data saved as csv to C:\\Users\\Jbarrett\\Charlie\\charlie\\data\\csv\\K106_switching.csv'
tp336
a(S'2015-02-20 10:03:52.170000'
g293
tp337
a(S'2015-02-20 10:03:52.183000'
g295
tp338
a(S'2015-02-20 10:03:52.187000'
S'data saved as csv to C:\\Users\\Jbarrett\\Charlie\\charlie\\data\\csv\\K106_switching.csv'
tp339
a(S'2015-02-20 10:03:53.175000'
g293
tp340
a(S'2015-02-20 10:03:53.188000'
g295
tp341
a(S'2015-02-20 10:03:53.192000'
S'data saved as csv to C:\\Users\\Jbarrett\\Charlie\\charlie\\data\\csv\\K106_switching.csv'
tp342
a(S'2015-02-20 10:03:54.161000'
g293
tp343
a(S'2015-02-20 10:03:54.174000'
g295
tp344
a(S'2015-02-20 10:03:54.178000'
S'data saved as csv to C:\\Users\\Jbarrett\\Charlie\\charlie\\data\\csv\\K106_switching.csv'
tp345
a(S'2015-02-20 10:03:55.087000'
g293
tp346
a(S'2015-02-20 10:03:55.100000'
g295
tp347
a(S'2015-02-20 10:03:55.105000'
S'data saved as csv to C:\\Users\\Jbarrett\\Charlie\\charlie\\data\\csv\\K106_switching.csv'
tp348
a(S'2015-02-20 10:03:55.844000'
g293
tp349
a(S'2015-02-20 10:03:55.857000'
g295
tp350
a(S'2015-02-20 10:03:55.861000'
S'data saved as csv to C:\\Users\\Jbarrett\\Charlie\\charlie\\data\\csv\\K106_switching.csv'
tp351
a(S'2015-02-20 10:03:57.010000'
g293
tp352
a(S'2015-02-20 10:03:57.024000'
g295
tp353
a(S'2015-02-20 10:03:57.028000'
S'data saved as csv to C:\\Users\\Jbarrett\\Charlie\\charlie\\data\\csv\\K106_switching.csv'
tp354
a(S'2015-02-20 10:03:57.887000'
g293
tp355
a(S'2015-02-20 10:03:57.901000'
g295
tp356
a(S'2015-02-20 10:03:57.905000'
S'data saved as csv to C:\\Users\\Jbarrett\\Charlie\\charlie\\data\\csv\\K106_switching.csv'
tp357
a(S'2015-02-20 10:03:59.064000'
g293
tp358
a(S'2015-02-20 10:03:59.077000'
g295
tp359
a(S'2015-02-20 10:03:59.081000'
S'data saved as csv to C:\\Users\\Jbarrett\\Charlie\\charlie\\data\\csv\\K106_switching.csv'
tp360
a(S'2015-02-20 10:03:59.821000'
g293
tp361
a(S'2015-02-20 10:03:59.834000'
g295
tp362
a(S'2015-02-20 10:03:59.838000'
S'data saved as csv to C:\\Users\\Jbarrett\\Charlie\\charlie\\data\\csv\\K106_switching.csv'
tp363
a(S'2015-02-20 10:04:00.977000'
g293
tp364
a(S'2015-02-20 10:04:00.990000'
g295
tp365
a(S'2015-02-20 10:04:00.994000'
S'data saved as csv to C:\\Users\\Jbarrett\\Charlie\\charlie\\data\\csv\\K106_switching.csv'
tp366
a(S'2015-02-20 10:04:01.843000'
g293
tp367
a(S'2015-02-20 10:04:01.857000'
g295
tp368
a(S'2015-02-20 10:04:01.861000'
S'data saved as csv to C:\\Users\\Jbarrett\\Charlie\\charlie\\data\\csv\\K106_switching.csv'
tp369
a(S'2015-02-20 10:04:03.010000'
g293
tp370
a(S'2015-02-20 10:04:03.024000'
g295
tp371
a(S'2015-02-20 10:04:03.028000'
S'data saved as csv to C:\\Users\\Jbarrett\\Charlie\\charlie\\data\\csv\\K106_switching.csv'
tp372
a(S'2015-02-20 10:04:03.847000'
g293
tp373
a(S'2015-02-20 10:04:03.861000'
g295
tp374
a(S'2015-02-20 10:04:03.865000'
S'data saved as csv to C:\\Users\\Jbarrett\\Charlie\\charlie\\data\\csv\\K106_switching.csv'
tp375
a(S'2015-02-20 10:04:05.155000'
g293
tp376
a(S'2015-02-20 10:04:05.169000'
g295
tp377
a(S'2015-02-20 10:04:05.173000'
S'data saved as csv to C:\\Users\\Jbarrett\\Charlie\\charlie\\data\\csv\\K106_switching.csv'
tp378
a(S'2015-02-20 10:04:06.031000'
g293
tp379
a(S'2015-02-20 10:04:06.045000'
g295
tp380
a(S'2015-02-20 10:04:06.049000'
S'data saved as csv to C:\\Users\\Jbarrett\\Charlie\\charlie\\data\\csv\\K106_switching.csv'
tp381
a(S'2015-02-20 10:04:07.648000'
g293
tp382
a(S'2015-02-20 10:04:07.662000'
g295
tp383
a(S'2015-02-20 10:04:07.665000'
S'data saved as csv to C:\\Users\\Jbarrett\\Charlie\\charlie\\data\\csv\\K106_switching.csv'
tp384
a(S'2015-02-20 10:04:08.513000'
g293
tp385
a(S'2015-02-20 10:04:08.527000'
g295
tp386
a(S'2015-02-20 10:04:08.532000'
S'data saved as csv to C:\\Users\\Jbarrett\\Charlie\\charlie\\data\\csv\\K106_switching.csv'
tp387
a(S'2015-02-20 10:04:09.931000'
g293
tp388
a(S'2015-02-20 10:04:09.945000'
g295
tp389
a(S'2015-02-20 10:04:09.947000'
S'data saved as csv to C:\\Users\\Jbarrett\\Charlie\\charlie\\data\\csv\\K106_switching.csv'
tp390
a(S'2015-02-20 10:04:11.065000'
g293
tp391
a(S'2015-02-20 10:04:11.079000'
g295
tp392
a(S'2015-02-20 10:04:11.083000'
S'data saved as csv to C:\\Users\\Jbarrett\\Charlie\\charlie\\data\\csv\\K106_switching.csv'
tp393
a(S'2015-02-20 10:04:12.251000'
g293
tp394
a(S'2015-02-20 10:04:12.265000'
g295
tp395
a(S'2015-02-20 10:04:12.269000'
S'data saved as csv to C:\\Users\\Jbarrett\\Charlie\\charlie\\data\\csv\\K106_switching.csv'
tp396
a(S'2015-02-20 10:04:13.288000'
g293
tp397
a(S'2015-02-20 10:04:13.302000'
g295
tp398
a(S'2015-02-20 10:04:13.305000'
S'data saved as csv to C:\\Users\\Jbarrett\\Charlie\\charlie\\data\\csv\\K106_switching.csv'
tp399
a(S'2015-02-20 10:04:15.713000'
g293
tp400
a(S'2015-02-20 10:04:15.728000'
g295
tp401
a(S'2015-02-20 10:04:15.732000'
S'data saved as csv to C:\\Users\\Jbarrett\\Charlie\\charlie\\data\\csv\\K106_switching.csv'
tp402
a(S'2015-02-20 10:04:16.441000'
g293
tp403
a(S'2015-02-20 10:04:16.454000'
g295
tp404
a(S'2015-02-20 10:04:16.456000'
S'data saved as csv to C:\\Users\\Jbarrett\\Charlie\\charlie\\data\\csv\\K106_switching.csv'
tp405
a(S'2015-02-20 10:04:17.585000'
g293
tp406
a(S'2015-02-20 10:04:17.599000'
g295
tp407
a(S'2015-02-20 10:04:17.604000'
S'data saved as csv to C:\\Users\\Jbarrett\\Charlie\\charlie\\data\\csv\\K106_switching.csv'
tp408
a(S'2015-02-20 10:04:18.553000'
g293
tp409
a(S'2015-02-20 10:04:18.567000'
g295
tp410
a(S'2015-02-20 10:04:18.571000'
S'data saved as csv to C:\\Users\\Jbarrett\\Charlie\\charlie\\data\\csv\\K106_switching.csv'
tp411
a(S'2015-02-20 10:04:20.702000'
g293
tp412
a(S'2015-02-20 10:04:20.715000'
g295
tp413
a(S'2015-02-20 10:04:20.718000'
S'data saved as csv to C:\\Users\\Jbarrett\\Charlie\\charlie\\data\\csv\\K106_switching.csv'
tp414
a(S'2015-02-20 10:04:21.456000'
g293
tp415
a(S'2015-02-20 10:04:21.471000'
g295
tp416
a(S'2015-02-20 10:04:21.475000'
S'data saved as csv to C:\\Users\\Jbarrett\\Charlie\\charlie\\data\\csv\\K106_switching.csv'
tp417
a(S'2015-02-20 10:04:22.664000'
g293
tp418
a(S'2015-02-20 10:04:22.678000'
g295
tp419
a(S'2015-02-20 10:04:22.683000'
S'data saved as csv to C:\\Users\\Jbarrett\\Charlie\\charlie\\data\\csv\\K106_switching.csv'
tp420
a(S'2015-02-20 10:04:23.663000'
g293
tp421
a(S'2015-02-20 10:04:23.677000'
g295
tp422
a(S'2015-02-20 10:04:23.681000'
S'data saved as csv to C:\\Users\\Jbarrett\\Charlie\\charlie\\data\\csv\\K106_switching.csv'
tp423
a(S'2015-02-20 10:04:24.721000'
g293
tp424
a(S'2015-02-20 10:04:24.735000'
g295
tp425
a(S'2015-02-20 10:04:24.737000'
S'data saved as csv to C:\\Users\\Jbarrett\\Charlie\\charlie\\data\\csv\\K106_switching.csv'
tp426
a(S'2015-02-20 10:04:25.586000'
g293
tp427
a(S'2015-02-20 10:04:25.600000'
g295
tp428
a(S'2015-02-20 10:04:25.604000'
S'data saved as csv to C:\\Users\\Jbarrett\\Charlie\\charlie\\data\\csv\\K106_switching.csv'
tp429
a(S'2015-02-20 10:04:26.752000'
g293
tp430
a(S'2015-02-20 10:04:26.766000'
g295
tp431
a(S'2015-02-20 10:04:26.771000'
S'data saved as csv to C:\\Users\\Jbarrett\\Charlie\\charlie\\data\\csv\\K106_switching.csv'
tp432
a(S'2015-02-20 10:04:27.621000'
g293
tp433
a(S'2015-02-20 10:04:27.635000'
g295
tp434
a(S'2015-02-20 10:04:27.639000'
S'data saved as csv to C:\\Users\\Jbarrett\\Charlie\\charlie\\data\\csv\\K106_switching.csv'
tp435
a(S'2015-02-20 10:04:29.079000'
g293
tp436
a(S'2015-02-20 10:04:29.093000'
g295
tp437
a(S'2015-02-20 10:04:29.097000'
S'data saved as csv to C:\\Users\\Jbarrett\\Charlie\\charlie\\data\\csv\\K106_switching.csv'
tp438
a(S'2015-02-20 10:04:29.968000'
g293
tp439
a(S'2015-02-20 10:04:29.983000'
g295
tp440
a(S'2015-02-20 10:04:29.987000'
S'data saved as csv to C:\\Users\\Jbarrett\\Charlie\\charlie\\data\\csv\\K106_switching.csv'
tp441
a(S'2015-02-20 10:04:30.997000'
g293
tp442
a(S'2015-02-20 10:04:31.011000'
g295
tp443
a(S'2015-02-20 10:04:31.016000'
S'data saved as csv to C:\\Users\\Jbarrett\\Charlie\\charlie\\data\\csv\\K106_switching.csv'
tp444
a(S'2015-02-20 10:04:32.286000'
g293
tp445
a(S'2015-02-20 10:04:32.297000'
g295
tp446
a(S'2015-02-20 10:04:32.300000'
S'data saved as csv to C:\\Users\\Jbarrett\\Charlie\\charlie\\data\\csv\\K106_switching.csv'
tp447
a(S'2015-02-20 10:04:33.859000'
g293
tp448
a(S'2015-02-20 10:04:33.873000'
g295
tp449
a(S'2015-02-20 10:04:33.878000'
S'data saved as csv to C:\\Users\\Jbarrett\\Charlie\\charlie\\data\\csv\\K106_switching.csv'
tp450
a(S'2015-02-20 10:04:34.578000'
g293
tp451
a(S'2015-02-20 10:04:34.592000'
g295
tp452
a(S'2015-02-20 10:04:34.597000'
S'data saved as csv to C:\\Users\\Jbarrett\\Charlie\\charlie\\data\\csv\\K106_switching.csv'
tp453
a(S'2015-02-20 10:04:35.626000'
g293
tp454
a(S'2015-02-20 10:04:35.640000'
g295
tp455
a(S'2015-02-20 10:04:35.645000'
S'data saved as csv to C:\\Users\\Jbarrett\\Charlie\\charlie\\data\\csv\\K106_switching.csv'
tp456
a(S'2015-02-20 10:04:36.315000'
g293
tp457
a(S'2015-02-20 10:04:36.329000'
g295
tp458
a(S'2015-02-20 10:04:36.334000'
S'data saved as csv to C:\\Users\\Jbarrett\\Charlie\\charlie\\data\\csv\\K106_switching.csv'
tp459
a(S'2015-02-20 10:04:37.694000'
g293
tp460
a(S'2015-02-20 10:04:37.708000'
g295
tp461
a(S'2015-02-20 10:04:37.713000'
S'data saved as csv to C:\\Users\\Jbarrett\\Charlie\\charlie\\data\\csv\\K106_switching.csv'
tp462
a(S'2015-02-20 10:04:38.463000'
g293
tp463
a(S'2015-02-20 10:04:38.478000'
g295
tp464
a(S'2015-02-20 10:04:38.482000'
S'data saved as csv to C:\\Users\\Jbarrett\\Charlie\\charlie\\data\\csv\\K106_switching.csv'
tp465
a(S'2015-02-20 10:04:39.724000'
g293
tp466
a(S'2015-02-20 10:04:39.737000'
g295
tp467
a(S'2015-02-20 10:04:39.739000'
S'data saved as csv to C:\\Users\\Jbarrett\\Charlie\\charlie\\data\\csv\\K106_switching.csv'
tp468
a(S'2015-02-20 10:04:41.548000'
g293
tp469
a(S'2015-02-20 10:04:41.563000'
g295
tp470
a(S'2015-02-20 10:04:41.567000'
S'data saved as csv to C:\\Users\\Jbarrett\\Charlie\\charlie\\data\\csv\\K106_switching.csv'
tp471
a(S'2015-02-20 10:04:42.855000'
g293
tp472
a(S'2015-02-20 10:04:42.869000'
g295
tp473
a(S'2015-02-20 10:04:42.874000'
S'data saved as csv to C:\\Users\\Jbarrett\\Charlie\\charlie\\data\\csv\\K106_switching.csv'
tp474
a(S'2015-02-20 10:04:43.595000'
g293
tp475
a(S'2015-02-20 10:04:43.609000'
g295
tp476
a(S'2015-02-20 10:04:43.615000'
S'data saved as csv to C:\\Users\\Jbarrett\\Charlie\\charlie\\data\\csv\\K106_switching.csv'
tp477
a(S'2015-02-20 10:04:44.555000'
g293
tp478
a(S'2015-02-20 10:04:44.568000'
g295
tp479
a(S'2015-02-20 10:04:44.586000'
S'data saved as csv to C:\\Users\\Jbarrett\\Charlie\\charlie\\data\\csv\\K106_switching.csv'
tp480
a(S'2015-02-20 10:04:45.404000'
g293
tp481
a(S'2015-02-20 10:04:45.418000'
g295
tp482
a(S'2015-02-20 10:04:45.423000'
S'data saved as csv to C:\\Users\\Jbarrett\\Charlie\\charlie\\data\\csv\\K106_switching.csv'
tp483
a(S'2015-02-20 10:04:46.683000'
g293
tp484
a(S'2015-02-20 10:04:46.696000'
g295
tp485
a(S'2015-02-20 10:04:46.698000'
S'data saved as csv to C:\\Users\\Jbarrett\\Charlie\\charlie\\data\\csv\\K106_switching.csv'
tp486
a(S'2015-02-20 10:04:47.547000'
g293
tp487
a(S'2015-02-20 10:04:47.561000'
g295
tp488
a(S'2015-02-20 10:04:47.565000'
S'data saved as csv to C:\\Users\\Jbarrett\\Charlie\\charlie\\data\\csv\\K106_switching.csv'
tp489
a(S'2015-02-20 10:04:48.714000'
g293
tp490
a(S'2015-02-20 10:04:48.729000'
g295
tp491
a(S'2015-02-20 10:04:48.734000'
S'data saved as csv to C:\\Users\\Jbarrett\\Charlie\\charlie\\data\\csv\\K106_switching.csv'
tp492
a(S'2015-02-20 10:04:49.464000'
g293
tp493
a(S'2015-02-20 10:04:49.479000'
g295
tp494
a(S'2015-02-20 10:04:49.484000'
S'data saved as csv to C:\\Users\\Jbarrett\\Charlie\\charlie\\data\\csv\\K106_switching.csv'
tp495
a(S'2015-02-20 10:04:50.563000'
g293
tp496
a(S'2015-02-20 10:04:50.578000'
g295
tp497
a(S'2015-02-20 10:04:50.583000'
S'data saved as csv to C:\\Users\\Jbarrett\\Charlie\\charlie\\data\\csv\\K106_switching.csv'
tp498
a(S'2015-02-20 10:04:51.434000'
g293
tp499
a(S'2015-02-20 10:04:51.449000'
g295
tp500
a(S'2015-02-20 10:04:51.454000'
S'data saved as csv to C:\\Users\\Jbarrett\\Charlie\\charlie\\data\\csv\\K106_switching.csv'
tp501
a(S'2015-02-20 10:04:52.434000'
g293
tp502
a(S'2015-02-20 10:04:52.448000'
g295
tp503
a(S'2015-02-20 10:04:52.453000'
S'data saved as csv to C:\\Users\\Jbarrett\\Charlie\\charlie\\data\\csv\\K106_switching.csv'
tp504
a(S'2015-02-20 10:04:53.283000'
g293
tp505
a(S'2015-02-20 10:04:53.297000'
g295
tp506
a(S'2015-02-20 10:04:53.300000'
S'data saved as csv to C:\\Users\\Jbarrett\\Charlie\\charlie\\data\\csv\\K106_switching.csv'
tp507
a(S'2015-02-20 10:04:54.299000'
g293
tp508
a(S'2015-02-20 10:04:54.314000'
g295
tp509
a(S'2015-02-20 10:04:54.318000'
S'data saved as csv to C:\\Users\\Jbarrett\\Charlie\\charlie\\data\\csv\\K106_switching.csv'
tp510
a(S'2015-02-20 10:04:55.066000'
g293
tp511
a(S'2015-02-20 10:04:55.081000'
g295
tp512
a(S'2015-02-20 10:04:55.086000'
S'data saved as csv to C:\\Users\\Jbarrett\\Charlie\\charlie\\data\\csv\\K106_switching.csv'
tp513
a(S'2015-02-20 10:04:55.977000'
g293
tp514
a(S'2015-02-20 10:04:55.992000'
g295
tp515
a(S'2015-02-20 10:04:55.997000'
S'data saved as csv to C:\\Users\\Jbarrett\\Charlie\\charlie\\data\\csv\\K106_switching.csv'
tp516
a(S'2015-02-20 10:04:56.835000'
g293
tp517
a(S'2015-02-20 10:04:56.850000'
g295
tp518
a(S'2015-02-20 10:04:56.855000'
S'data saved as csv to C:\\Users\\Jbarrett\\Charlie\\charlie\\data\\csv\\K106_switching.csv'
tp519
a(S'2015-02-20 10:04:57.835000'
g293
tp520
a(S'2015-02-20 10:04:57.851000'
g295
tp521
a(S'2015-02-20 10:04:57.856000'
S'data saved as csv to C:\\Users\\Jbarrett\\Charlie\\charlie\\data\\csv\\K106_switching.csv'
tp522
a(S'2015-02-20 10:04:58.936000'
g293
tp523
a(S'2015-02-20 10:04:58.951000'
g295
tp524
a(S'2015-02-20 10:04:58.956000'
S'data saved as csv to C:\\Users\\Jbarrett\\Charlie\\charlie\\data\\csv\\K106_switching.csv'
tp525
a(S'2015-02-20 10:04:59.907000'
g293
tp526
a(S'2015-02-20 10:04:59.922000'
g295
tp527
a(S'2015-02-20 10:04:59.927000'
S'data saved as csv to C:\\Users\\Jbarrett\\Charlie\\charlie\\data\\csv\\K106_switching.csv'
tp528
a(S'2015-02-20 10:05:00.905000'
g293
tp529
a(S'2015-02-20 10:05:00.918000'
g295
tp530
a(S'2015-02-20 10:05:00.921000'
S'data saved as csv to C:\\Users\\Jbarrett\\Charlie\\charlie\\data\\csv\\K106_switching.csv'
tp531
a(S'2015-02-20 10:05:03.152000'
g293
tp532
a(S'2015-02-20 10:05:03.166000'
g295
tp533
a(S'2015-02-20 10:05:03.169000'
S'data saved as csv to C:\\Users\\Jbarrett\\Charlie\\charlie\\data\\csv\\K106_switching.csv'
tp534
a(S'2015-02-20 10:05:03.997000'
g293
tp535
a(S'2015-02-20 10:05:04.009000'
g295
tp536
a(S'2015-02-20 10:05:04.012000'
S'data saved as csv to C:\\Users\\Jbarrett\\Charlie\\charlie\\data\\csv\\K106_switching.csv'
tp537
a(S'2015-02-20 10:05:05.371000'
g293
tp538
a(S'2015-02-20 10:05:05.386000'
g295
tp539
a(S'2015-02-20 10:05:05.389000'
S'data saved as csv to C:\\Users\\Jbarrett\\Charlie\\charlie\\data\\csv\\K106_switching.csv'
tp540
a(S'2015-02-20 10:05:06.619000'
g293
tp541
a(S'2015-02-20 10:05:06.633000'
g295
tp542
a(S'2015-02-20 10:05:06.638000'
S'data saved as csv to C:\\Users\\Jbarrett\\Charlie\\charlie\\data\\csv\\K106_switching.csv'
tp543
a(S'2015-02-20 10:05:07.958000'
g293
tp544
a(S'2015-02-20 10:05:07.971000'
g295
tp545
a(S'2015-02-20 10:05:07.974000'
S'data saved as csv to C:\\Users\\Jbarrett\\Charlie\\charlie\\data\\csv\\K106_switching.csv'
tp546
a(S'2015-02-20 10:05:08.664000'
g293
tp547
a(S'2015-02-20 10:05:08.679000'
g295
tp548
a(S'2015-02-20 10:05:08.684000'
S'data saved as csv to C:\\Users\\Jbarrett\\Charlie\\charlie\\data\\csv\\K106_switching.csv'
tp549
a(S'2015-02-20 10:05:11.295000'
g293
tp550
a(S'2015-02-20 10:05:11.310000'
g295
tp551
a(S'2015-02-20 10:05:11.316000'
S'data saved as csv to C:\\Users\\Jbarrett\\Charlie\\charlie\\data\\csv\\K106_switching.csv'
tp552
a(S'2015-02-20 10:05:12.437000'
g293
tp553
a(S'2015-02-20 10:05:12.452000'
g295
tp554
a(S'2015-02-20 10:05:12.457000'
S'data saved as csv to C:\\Users\\Jbarrett\\Charlie\\charlie\\data\\csv\\K106_switching.csv'
tp555
a(S'2015-02-20 10:05:13.648000'
g293
tp556
a(S'2015-02-20 10:05:13.663000'
g295
tp557
a(S'2015-02-20 10:05:13.667000'
S'data saved as csv to C:\\Users\\Jbarrett\\Charlie\\charlie\\data\\csv\\K106_switching.csv'
tp558
a(S'2015-02-20 10:05:15.047000'
g293
tp559
a(S'2015-02-20 10:05:15.062000'
g295
tp560
a(S'2015-02-20 10:05:15.068000'
S'data saved as csv to C:\\Users\\Jbarrett\\Charlie\\charlie\\data\\csv\\K106_switching.csv'
tp561
a(S'2015-02-20 10:05:16.349000'
g293
tp562
a(S'2015-02-20 10:05:16.364000'
g295
tp563
a(S'2015-02-20 10:05:16.368000'
S'data saved as csv to C:\\Users\\Jbarrett\\Charlie\\charlie\\data\\csv\\K106_switching.csv'
tp564
a(S'2015-02-20 10:05:17.237000'
g293
tp565
a(S'2015-02-20 10:05:17.253000'
g295
tp566
a(S'2015-02-20 10:05:17.258000'
S'data saved as csv to C:\\Users\\Jbarrett\\Charlie\\charlie\\data\\csv\\K106_switching.csv'
tp567
a(S'2015-02-20 10:05:18.429000'
g293
tp568
a(S'2015-02-20 10:05:18.440000'
g295
tp569
a(S'2015-02-20 10:05:18.443000'
S'data saved as csv to C:\\Users\\Jbarrett\\Charlie\\charlie\\data\\csv\\K106_switching.csv'
tp570
a(S'2015-02-20 10:05:19.484000'
g293
tp571
a(S'2015-02-20 10:05:19.499000'
g295
tp572
a(S'2015-02-20 10:05:19.504000'
S'data saved as csv to C:\\Users\\Jbarrett\\Charlie\\charlie\\data\\csv\\K106_switching.csv'
tp573
a(S'2015-02-20 10:05:20.615000'
g293
tp574
a(S'2015-02-20 10:05:20.628000'
g295
tp575
a(S'2015-02-20 10:05:20.631000'
S'data saved as csv to C:\\Users\\Jbarrett\\Charlie\\charlie\\data\\csv\\K106_switching.csv'
tp576
a(S'2015-02-20 10:05:21.600000'
g293
tp577
a(S'2015-02-20 10:05:21.615000'
g295
tp578
a(S'2015-02-20 10:05:21.619000'
S'data saved as csv to C:\\Users\\Jbarrett\\Charlie\\charlie\\data\\csv\\K106_switching.csv'
tp579
a(S'2015-02-20 10:05:22.509000'
g293
tp580
a(S'2015-02-20 10:05:22.524000'
g295
tp581
a(S'2015-02-20 10:05:22.529000'
S'data saved as csv to C:\\Users\\Jbarrett\\Charlie\\charlie\\data\\csv\\K106_switching.csv'
tp582
a(S'2015-02-20 10:05:23.230000'
g293
tp583
a(S'2015-02-20 10:05:23.242000'
g295
tp584
a(S'2015-02-20 10:05:23.246000'
S'data saved as csv to C:\\Users\\Jbarrett\\Charlie\\charlie\\data\\csv\\K106_switching.csv'
tp585
a(S'2015-02-20 10:05:24.106000'
g293
tp586
a(S'2015-02-20 10:05:24.121000'
g295
tp587
a(S'2015-02-20 10:05:24.127000'
S'data saved as csv to C:\\Users\\Jbarrett\\Charlie\\charlie\\data\\csv\\K106_switching.csv'
tp588
a(S'2015-02-20 10:05:25.028000'
g293
tp589
a(S'2015-02-20 10:05:25.040000'
g295
tp590
a(S'2015-02-20 10:05:25.043000'
S'data saved as csv to C:\\Users\\Jbarrett\\Charlie\\charlie\\data\\csv\\K106_switching.csv'
tp591
a(S'2015-02-20 10:05:25.864000'
g293
tp592
a(S'2015-02-20 10:05:25.880000'
g295
tp593
a(S'2015-02-20 10:05:25.886000'
S'data saved as csv to C:\\Users\\Jbarrett\\Charlie\\charlie\\data\\csv\\K106_switching.csv'
tp594
a(S'2015-02-20 10:05:26.677000'
g293
tp595
a(S'2015-02-20 10:05:26.690000'
g295
tp596
a(S'2015-02-20 10:05:26.693000'
S'data saved as csv to C:\\Users\\Jbarrett\\Charlie\\charlie\\data\\csv\\K106_switching.csv'
tp597
a(S'2015-02-20 10:05:27.463000'
g293
tp598
a(S'2015-02-20 10:05:27.478000'
g295
tp599
a(S'2015-02-20 10:05:27.484000'
S'data saved as csv to C:\\Users\\Jbarrett\\Charlie\\charlie\\data\\csv\\K106_switching.csv'
tp600
a(S'2015-02-20 10:05:28.245000'
g293
tp601
a(S'2015-02-20 10:05:28.260000'
g295
tp602
a(S'2015-02-20 10:05:28.266000'
S'data saved as csv to C:\\Users\\Jbarrett\\Charlie\\charlie\\data\\csv\\K106_switching.csv'
tp603
a(S'2015-02-20 10:05:28.997000'
g293
tp604
a(S'2015-02-20 10:05:29.012000'
g295
tp605
a(S'2015-02-20 10:05:29.018000'
S'data saved as csv to C:\\Users\\Jbarrett\\Charlie\\charlie\\data\\csv\\K106_switching.csv'
tp606
a(S'2015-02-20 10:05:29.910000'
g293
tp607
a(S'2015-02-20 10:05:29.926000'
g295
tp608
a(S'2015-02-20 10:05:29.929000'
S'data saved as csv to C:\\Users\\Jbarrett\\Charlie\\charlie\\data\\csv\\K106_switching.csv'
tp609
a(S'2015-02-20 10:05:30.769000'
g293
tp610
a(S'2015-02-20 10:05:30.785000'
g295
tp611
a(S'2015-02-20 10:05:30.790000'
S'data saved as csv to C:\\Users\\Jbarrett\\Charlie\\charlie\\data\\csv\\K106_switching.csv'
tp612
a(S'2015-02-20 10:05:31.502000'
g293
tp613
a(S'2015-02-20 10:05:31.517000'
g295
tp614
a(S'2015-02-20 10:05:31.520000'
S'data saved as csv to C:\\Users\\Jbarrett\\Charlie\\charlie\\data\\csv\\K106_switching.csv'
tp615
a(S'2015-02-20 10:05:32.429000'
g293
tp616
a(S'2015-02-20 10:05:32.445000'
g295
tp617
a(S'2015-02-20 10:05:32.449000'
S'data saved as csv to C:\\Users\\Jbarrett\\Charlie\\charlie\\data\\csv\\K106_switching.csv'
tp618
a(S'2015-02-20 10:05:33.478000'
g293
tp619
a(S'2015-02-20 10:05:33.494000'
g295
tp620
a(S'2015-02-20 10:05:33.499000'
S'data saved as csv to C:\\Users\\Jbarrett\\Charlie\\charlie\\data\\csv\\K106_switching.csv'
tp621
a(S'2015-02-20 10:05:34.338000'
g293
tp622
a(S'2015-02-20 10:05:34.353000'
g295
tp623
a(S'2015-02-20 10:05:34.359000'
S'data saved as csv to C:\\Users\\Jbarrett\\Charlie\\charlie\\data\\csv\\K106_switching.csv'
tp624
a(S'2015-02-20 10:05:56.387000'
g293
tp625
a(S'2015-02-20 10:05:56.401000'
g295
tp626
a(S'2015-02-20 10:05:56.406000'
S'data saved as csv to C:\\Users\\Jbarrett\\Charlie\\charlie\\data\\csv\\K106_switching.csv'
tp627
a(S'2015-02-20 10:05:57.167000'
g293
tp628
a(S'2015-02-20 10:05:57.182000'
g295
tp629
a(S'2015-02-20 10:05:57.188000'
S'data saved as csv to C:\\Users\\Jbarrett\\Charlie\\charlie\\data\\csv\\K106_switching.csv'
tp630
a(S'2015-02-20 10:05:58.040000'
g293
tp631
a(S'2015-02-20 10:05:58.056000'
g295
tp632
a(S'2015-02-20 10:05:58.062000'
S'data saved as csv to C:\\Users\\Jbarrett\\Charlie\\charlie\\data\\csv\\K106_switching.csv'
tp633
a(S'2015-02-20 10:05:59.063000'
g293
tp634
a(S'2015-02-20 10:05:59.079000'
g295
tp635
a(S'2015-02-20 10:05:59.085000'
S'data saved as csv to C:\\Users\\Jbarrett\\Charlie\\charlie\\data\\csv\\K106_switching.csv'
tp636
a(S'2015-02-20 10:06:00.287000'
g293
tp637
a(S'2015-02-20 10:06:00.303000'
g295
tp638
a(S'2015-02-20 10:06:00.309000'
S'data saved as csv to C:\\Users\\Jbarrett\\Charlie\\charlie\\data\\csv\\K106_switching.csv'
tp639
a(S'2015-02-20 10:06:01.081000'
g293
tp640
a(S'2015-02-20 10:06:01.097000'
g295
tp641
a(S'2015-02-20 10:06:01.102000'
S'data saved as csv to C:\\Users\\Jbarrett\\Charlie\\charlie\\data\\csv\\K106_switching.csv'
tp642
a(S'2015-02-20 10:06:02.262000'
g293
tp643
a(S'2015-02-20 10:06:02.278000'
g295
tp644
a(S'2015-02-20 10:06:02.284000'
S'data saved as csv to C:\\Users\\Jbarrett\\Charlie\\charlie\\data\\csv\\K106_switching.csv'
tp645
a(S'2015-02-20 10:06:03.185000'
g293
tp646
a(S'2015-02-20 10:06:03.201000'
g295
tp647
a(S'2015-02-20 10:06:03.208000'
S'data saved as csv to C:\\Users\\Jbarrett\\Charlie\\charlie\\data\\csv\\K106_switching.csv'
tp648
a(S'2015-02-20 10:06:04.079000'
g293
tp649
a(S'2015-02-20 10:06:04.095000'
g295
tp650
a(S'2015-02-20 10:06:04.100000'
S'data saved as csv to C:\\Users\\Jbarrett\\Charlie\\charlie\\data\\csv\\K106_switching.csv'
tp651
a(S'2015-02-20 10:06:04.959000'
g293
tp652
a(S'2015-02-20 10:06:04.972000'
g295
tp653
a(S'2015-02-20 10:06:04.976000'
S'data saved as csv to C:\\Users\\Jbarrett\\Charlie\\charlie\\data\\csv\\K106_switching.csv'
tp654
a(S'2015-02-20 10:06:05.916000'
g293
tp655
a(S'2015-02-20 10:06:05.930000'
g295
tp656
a(S'2015-02-20 10:06:05.933000'
S'data saved as csv to C:\\Users\\Jbarrett\\Charlie\\charlie\\data\\csv\\K106_switching.csv'
tp657
a(S'2015-02-20 10:06:07.152000'
g293
tp658
a(S'2015-02-20 10:06:07.165000'
g295
tp659
a(S'2015-02-20 10:06:07.169000'
S'data saved as csv to C:\\Users\\Jbarrett\\Charlie\\charlie\\data\\csv\\K106_switching.csv'
tp660
a(S'2015-02-20 10:06:08.539000'
g293
tp661
a(S'2015-02-20 10:06:08.555000'
g295
tp662
a(S'2015-02-20 10:06:08.561000'
S'data saved as csv to C:\\Users\\Jbarrett\\Charlie\\charlie\\data\\csv\\K106_switching.csv'
tp663
a(S'2015-02-20 10:06:09.463000'
g293
tp664
a(S'2015-02-20 10:06:09.476000'
g295
tp665
a(S'2015-02-20 10:06:09.480000'
S'data saved as csv to C:\\Users\\Jbarrett\\Charlie\\charlie\\data\\csv\\K106_switching.csv'
tp666
a(S'2015-02-20 10:06:10.960000'
g293
tp667
a(S'2015-02-20 10:06:10.973000'
g295
tp668
a(S'2015-02-20 10:06:10.977000'
S'data saved as csv to C:\\Users\\Jbarrett\\Charlie\\charlie\\data\\csv\\K106_switching.csv'
tp669
a(S'2015-02-20 10:06:11.807000'
g293
tp670
a(S'2015-02-20 10:06:11.823000'
g295
tp671
a(S'2015-02-20 10:06:11.829000'
S'data saved as csv to C:\\Users\\Jbarrett\\Charlie\\charlie\\data\\csv\\K106_switching.csv'
tp672
a(S'2015-02-20 10:06:12.632000'
g293
tp673
a(S'2015-02-20 10:06:12.648000'
g295
tp674
a(S'2015-02-20 10:06:12.651000'
S'data saved as csv to C:\\Users\\Jbarrett\\Charlie\\charlie\\data\\csv\\K106_switching.csv'
tp675
a(S'2015-02-20 10:06:13.870000'
g293
tp676
a(S'2015-02-20 10:06:13.883000'
g295
tp677
a(S'2015-02-20 10:06:13.886000'
S'data saved as csv to C:\\Users\\Jbarrett\\Charlie\\charlie\\data\\csv\\K106_switching.csv'
tp678
a(S'2015-02-20 10:06:14.957000'
g293
tp679
a(S'2015-02-20 10:06:14.973000'
g295
tp680
a(S'2015-02-20 10:06:14.979000'
S'data saved as csv to C:\\Users\\Jbarrett\\Charlie\\charlie\\data\\csv\\K106_switching.csv'
tp681
a(S'2015-02-20 10:06:15.871000'
g293
tp682
a(S'2015-02-20 10:06:15.887000'
g295
tp683
a(S'2015-02-20 10:06:15.891000'
S'data saved as csv to C:\\Users\\Jbarrett\\Charlie\\charlie\\data\\csv\\K106_switching.csv'
tp684
a(S'2015-02-20 10:06:16.722000'
g293
tp685
a(S'2015-02-20 10:06:16.734000'
g295
tp686
a(S'2015-02-20 10:06:16.737000'
S'data saved as csv to C:\\Users\\Jbarrett\\Charlie\\charlie\\data\\csv\\K106_switching.csv'
tp687
a(S'2015-02-20 10:06:17.908000'
g293
tp688
a(S'2015-02-20 10:06:17.924000'
g295
tp689
a(S'2015-02-20 10:06:17.930000'
S'data saved as csv to C:\\Users\\Jbarrett\\Charlie\\charlie\\data\\csv\\K106_switching.csv'
tp690
a(S'2015-02-20 10:06:18.811000'
g293
tp691
a(S'2015-02-20 10:06:18.828000'
g295
tp692
a(S'2015-02-20 10:06:18.831000'
S'data saved as csv to C:\\Users\\Jbarrett\\Charlie\\charlie\\data\\csv\\K106_switching.csv'
tp693
a(S'2015-02-20 10:06:20.113000'
g293
tp694
a(S'2015-02-20 10:06:20.129000'
g295
tp695
a(S'2015-02-20 10:06:20.135000'
S'data saved as csv to C:\\Users\\Jbarrett\\Charlie\\charlie\\data\\csv\\K106_switching.csv'
tp696
a(S'2015-02-20 10:06:21.167000'
g293
tp697
a(S'2015-02-20 10:06:21.183000'
g295
tp698
a(S'2015-02-20 10:06:21.189000'
S'data saved as csv to C:\\Users\\Jbarrett\\Charlie\\charlie\\data\\csv\\K106_switching.csv'
tp699
a(S'2015-02-20 10:06:22.802000'
g293
tp700
a(S'2015-02-20 10:06:22.818000'
g295
tp701
a(S'2015-02-20 10:06:22.821000'
S'data saved as csv to C:\\Users\\Jbarrett\\Charlie\\charlie\\data\\csv\\K106_switching.csv'
tp702
a(S'2015-02-20 10:06:23.732000'
g293
tp703
a(S'2015-02-20 10:06:23.748000'
g295
tp704
a(S'2015-02-20 10:06:23.752000'
S'data saved as csv to C:\\Users\\Jbarrett\\Charlie\\charlie\\data\\csv\\K106_switching.csv'
tp705
a(S'2015-02-20 10:06:24.612000'
g293
tp706
a(S'2015-02-20 10:06:24.625000'
g295
tp707
a(S'2015-02-20 10:06:24.628000'
S'data saved as csv to C:\\Users\\Jbarrett\\Charlie\\charlie\\data\\csv\\K106_switching.csv'
tp708
a(S'2015-02-20 10:06:25.569000'
g293
tp709
a(S'2015-02-20 10:06:25.582000'
g295
tp710
a(S'2015-02-20 10:06:25.586000'
S'data saved as csv to C:\\Users\\Jbarrett\\Charlie\\charlie\\data\\csv\\K106_switching.csv'
tp711
a(S'2015-02-20 10:06:27.296000'
g293
tp712
a(S'2015-02-20 10:06:27.312000'
g295
tp713
a(S'2015-02-20 10:06:27.318000'
S'data saved as csv to C:\\Users\\Jbarrett\\Charlie\\charlie\\data\\csv\\K106_switching.csv'
tp714
a(S'2015-02-20 10:06:28.130000'
g293
tp715
a(S'2015-02-20 10:06:28.147000'
g295
tp716
a(S'2015-02-20 10:06:28.153000'
S'data saved as csv to C:\\Users\\Jbarrett\\Charlie\\charlie\\data\\csv\\K106_switching.csv'
tp717
a(S'2015-02-20 10:06:29.205000'
g293
tp718
a(S'2015-02-20 10:06:29.216000'
g295
tp719
a(S'2015-02-20 10:06:29.220000'
S'data saved as csv to C:\\Users\\Jbarrett\\Charlie\\charlie\\data\\csv\\K106_switching.csv'
tp720
a(S'2015-02-20 10:06:30.042000'
g293
tp721
a(S'2015-02-20 10:06:30.055000'
g295
tp722
a(S'2015-02-20 10:06:30.058000'
S'data saved as csv to C:\\Users\\Jbarrett\\Charlie\\charlie\\data\\csv\\K106_switching.csv'
tp723
a(S'2015-02-20 10:06:30.929000'
g293
tp724
a(S'2015-02-20 10:06:30.946000'
g295
tp725
a(S'2015-02-20 10:06:30.951000'
S'data saved as csv to C:\\Users\\Jbarrett\\Charlie\\charlie\\data\\csv\\K106_switching.csv'
tp726
a(S'2015-02-20 10:06:31.961000'
g293
tp727
a(S'2015-02-20 10:06:31.973000'
g295
tp728
a(S'2015-02-20 10:06:31.977000'
S'data saved as csv to C:\\Users\\Jbarrett\\Charlie\\charlie\\data\\csv\\K106_switching.csv'
tp729
a(S'2015-02-20 10:06:33.018000'
g293
tp730
a(S'2015-02-20 10:06:33.035000'
g295
tp731
a(S'2015-02-20 10:06:33.041000'
S'data saved as csv to C:\\Users\\Jbarrett\\Charlie\\charlie\\data\\csv\\K106_switching.csv'
tp732
a(S'2015-02-20 10:06:33.954000'
g293
tp733
a(S'2015-02-20 10:06:33.970000'
g295
tp734
a(S'2015-02-20 10:06:33.977000'
S'data saved as csv to C:\\Users\\Jbarrett\\Charlie\\charlie\\data\\csv\\K106_switching.csv'
tp735
a(S'2015-02-20 10:06:36'
g293
tp736
a(S'2015-02-20 10:06:36.016000'
g295
tp737
a(S'2015-02-20 10:06:36.021000'
S'data saved as csv to C:\\Users\\Jbarrett\\Charlie\\charlie\\data\\csv\\K106_switching.csv'
tp738
a(S'2015-02-20 10:06:37.041000'
g293
tp739
a(S'2015-02-20 10:06:37.057000'
g295
tp740
a(S'2015-02-20 10:06:37.064000'
S'data saved as csv to C:\\Users\\Jbarrett\\Charlie\\charlie\\data\\csv\\K106_switching.csv'
tp741
a(S'2015-02-20 10:06:37.976000'
g293
tp742
a(S'2015-02-20 10:06:37.993000'
g295
tp743
a(S'2015-02-20 10:06:37.999000'
S'data saved as csv to C:\\Users\\Jbarrett\\Charlie\\charlie\\data\\csv\\K106_switching.csv'
tp744
a(S'2015-02-20 10:06:39.170000'
g293
tp745
a(S'2015-02-20 10:06:39.186000'
g295
tp746
a(S'2015-02-20 10:06:39.193000'
S'data saved as csv to C:\\Users\\Jbarrett\\Charlie\\charlie\\data\\csv\\K106_switching.csv'
tp747
a(S'2015-02-20 10:06:40.626000'
g293
tp748
a(S'2015-02-20 10:06:40.642000'
g295
tp749
a(S'2015-02-20 10:06:40.644000'
S'data saved as csv to C:\\Users\\Jbarrett\\Charlie\\charlie\\data\\csv\\K106_switching.csv'
tp750
a(S'2015-02-20 10:06:42.646000'
g293
tp751
a(S'2015-02-20 10:06:42.662000'
g295
tp752
a(S'2015-02-20 10:06:42.669000'
S'data saved as csv to C:\\Users\\Jbarrett\\Charlie\\charlie\\data\\csv\\K106_switching.csv'
tp753
a(S'2015-02-20 10:06:43.951000'
g293
tp754
a(S'2015-02-20 10:06:43.968000'
g295
tp755
a(S'2015-02-20 10:06:43.972000'
S'data saved as csv to C:\\Users\\Jbarrett\\Charlie\\charlie\\data\\csv\\K106_switching.csv'
tp756
a(S'2015-02-20 10:06:45.322000'
g293
tp757
a(S'2015-02-20 10:06:45.339000'
g295
tp758
a(S'2015-02-20 10:06:45.345000'
S'data saved as csv to C:\\Users\\Jbarrett\\Charlie\\charlie\\data\\csv\\K106_switching.csv'
tp759
a(S'2015-02-20 10:06:46.599000'
g293
tp760
a(S'2015-02-20 10:06:46.613000'
g295
tp761
a(S'2015-02-20 10:06:46.616000'
S'data saved as csv to C:\\Users\\Jbarrett\\Charlie\\charlie\\data\\csv\\K106_switching.csv'
tp762
a(S'2015-02-20 10:06:47.596000'
g293
tp763
a(S'2015-02-20 10:06:47.613000'
g295
tp764
a(S'2015-02-20 10:06:47.620000'
S'data saved as csv to C:\\Users\\Jbarrett\\Charlie\\charlie\\data\\csv\\K106_switching.csv'
tp765
a(S'2015-02-20 10:06:48.352000'
g293
tp766
a(S'2015-02-20 10:06:48.368000'
g295
tp767
a(S'2015-02-20 10:06:48.375000'
S'data saved as csv to C:\\Users\\Jbarrett\\Charlie\\charlie\\data\\csv\\K106_switching.csv'
tp768
a(S'2015-02-20 10:06:49.337000'
g293
tp769
a(S'2015-02-20 10:06:49.354000'
g295
tp770
a(S'2015-02-20 10:06:49.361000'
S'data saved as csv to C:\\Users\\Jbarrett\\Charlie\\charlie\\data\\csv\\K106_switching.csv'
tp771
a(S'2015-02-20 10:06:50.064000'
g293
tp772
a(S'2015-02-20 10:06:50.081000'
g295
tp773
a(S'2015-02-20 10:06:50.088000'
S'data saved as csv to C:\\Users\\Jbarrett\\Charlie\\charlie\\data\\csv\\K106_switching.csv'
tp774
a(S'2015-02-20 10:06:50.824000'
g293
tp775
a(S'2015-02-20 10:06:50.834000'
g295
tp776
a(S'2015-02-20 10:06:50.837000'
S'data saved as csv to C:\\Users\\Jbarrett\\Charlie\\charlie\\data\\csv\\K106_switching.csv'
tp777
a(S'2015-02-20 10:06:51.749000'
g293
tp778
a(S'2015-02-20 10:06:51.766000'
g295
tp779
a(S'2015-02-20 10:06:51.772000'
S'data saved as csv to C:\\Users\\Jbarrett\\Charlie\\charlie\\data\\csv\\K106_switching.csv'
tp780
a(S'2015-02-20 10:06:52.674000'
g293
tp781
a(S'2015-02-20 10:06:52.691000'
g295
tp782
a(S'2015-02-20 10:06:52.697000'
S'data saved as csv to C:\\Users\\Jbarrett\\Charlie\\charlie\\data\\csv\\K106_switching.csv'
tp783
a(S'2015-02-20 10:06:53.500000'
g293
tp784
a(S'2015-02-20 10:06:53.513000'
g295
tp785
a(S'2015-02-20 10:06:53.516000'
S'data saved as csv to C:\\Users\\Jbarrett\\Charlie\\charlie\\data\\csv\\K106_switching.csv'
tp786
a(S'2015-02-20 10:06:54.428000'
g293
tp787
a(S'2015-02-20 10:06:54.442000'
g295
tp788
a(S'2015-02-20 10:06:54.446000'
S'data saved as csv to C:\\Users\\Jbarrett\\Charlie\\charlie\\data\\csv\\K106_switching.csv'
tp789
a(S'2015-02-20 10:06:55.326000'
g293
tp790
a(S'2015-02-20 10:06:55.342000'
g295
tp791
a(S'2015-02-20 10:06:55.345000'
S'data saved as csv to C:\\Users\\Jbarrett\\Charlie\\charlie\\data\\csv\\K106_switching.csv'
tp792
a(S'2015-02-20 10:06:56.326000'
g293
tp793
a(S'2015-02-20 10:06:56.339000'
g295
tp794
a(S'2015-02-20 10:06:56.343000'
S'data saved as csv to C:\\Users\\Jbarrett\\Charlie\\charlie\\data\\csv\\K106_switching.csv'
tp795
a(S'2015-02-20 10:06:57.485000'
g293
tp796
a(S'2015-02-20 10:06:57.501000'
g295
tp797
a(S'2015-02-20 10:06:57.505000'
S'data saved as csv to C:\\Users\\Jbarrett\\Charlie\\charlie\\data\\csv\\K106_switching.csv'
tp798
a(S'2015-02-20 10:06:58.877000'
g293
tp799
a(S'2015-02-20 10:06:58.894000'
g295
tp800
a(S'2015-02-20 10:06:58.901000'
S'data saved as csv to C:\\Users\\Jbarrett\\Charlie\\charlie\\data\\csv\\K106_switching.csv'
tp801
a(S'2015-02-20 10:07:00.755000'
g293
tp802
a(S'2015-02-20 10:07:00.771000'
g295
tp803
a(S'2015-02-20 10:07:00.774000'
S'data saved as csv to C:\\Users\\Jbarrett\\Charlie\\charlie\\data\\csv\\K106_switching.csv'
tp804
a(S'2015-02-20 10:07:02.716000'
g293
tp805
a(S'2015-02-20 10:07:02.728000'
g295
tp806
a(S'2015-02-20 10:07:02.732000'
S'data saved as csv to C:\\Users\\Jbarrett\\Charlie\\charlie\\data\\csv\\K106_switching.csv'
tp807
a(S'2015-02-20 10:07:03.554000'
g293
tp808
a(S'2015-02-20 10:07:03.566000'
g295
tp809
a(S'2015-02-20 10:07:03.570000'
S'data saved as csv to C:\\Users\\Jbarrett\\Charlie\\charlie\\data\\csv\\K106_switching.csv'
tp810
a(S'2015-02-20 10:07:04.612000'
g293
tp811
a(S'2015-02-20 10:07:04.621000'
g295
tp812
a(S'2015-02-20 10:07:04.625000'
S'data saved as csv to C:\\Users\\Jbarrett\\Charlie\\charlie\\data\\csv\\K106_switching.csv'
tp813
a(S'2015-02-20 10:07:05.446000'
g293
tp814
a(S'2015-02-20 10:07:05.458000'
g295
tp815
a(S'2015-02-20 10:07:05.463000'
S'data saved as csv to C:\\Users\\Jbarrett\\Charlie\\charlie\\data\\csv\\K106_switching.csv'
tp816
a(S'2015-02-20 10:07:07.375000'
g293
tp817
a(S'2015-02-20 10:07:07.392000'
g295
tp818
a(S'2015-02-20 10:07:07.399000'
S'data saved as csv to C:\\Users\\Jbarrett\\Charlie\\charlie\\data\\csv\\K106_switching.csv'
tp819
a(S'2015-02-20 10:07:08.291000'
g293
tp820
a(S'2015-02-20 10:07:08.304000'
g295
tp821
a(S'2015-02-20 10:07:08.307000'
S'data saved as csv to C:\\Users\\Jbarrett\\Charlie\\charlie\\data\\csv\\K106_switching.csv'
tp822
a(S'2015-02-20 10:07:09.339000'
g293
tp823
a(S'2015-02-20 10:07:09.353000'
g295
tp824
a(S'2015-02-20 10:07:09.356000'
S'data saved as csv to C:\\Users\\Jbarrett\\Charlie\\charlie\\data\\csv\\K106_switching.csv'
tp825
a(S'2015-02-20 10:07:10.519000'
g293
tp826
a(S'2015-02-20 10:07:10.536000'
g295
tp827
a(S'2015-02-20 10:07:10.543000'
S'data saved as csv to C:\\Users\\Jbarrett\\Charlie\\charlie\\data\\csv\\K106_switching.csv'
tp828
a(S'2015-02-20 10:07:11.357000'
g293
tp829
a(S'2015-02-20 10:07:11.373000'
g295
tp830
a(S'2015-02-20 10:07:11.380000'
S'data saved as csv to C:\\Users\\Jbarrett\\Charlie\\charlie\\data\\csv\\K106_switching.csv'
tp831
a(S'2015-02-20 10:07:12.573000'
g293
tp832
a(S'2015-02-20 10:07:12.590000'
g295
tp833
a(S'2015-02-20 10:07:12.594000'
S'data saved as csv to C:\\Users\\Jbarrett\\Charlie\\charlie\\data\\csv\\K106_switching.csv'
tp834
a(S'2015-02-20 10:07:13.616000'
g293
tp835
a(S'2015-02-20 10:07:13.633000'
g295
tp836
a(S'2015-02-20 10:07:13.640000'
S'data saved as csv to C:\\Users\\Jbarrett\\Charlie\\charlie\\data\\csv\\K106_switching.csv'
tp837
a(S'2015-02-20 10:07:14.392000'
g293
tp838
a(S'2015-02-20 10:07:14.410000'
g295
tp839
a(S'2015-02-20 10:07:14.417000'
S'data saved as csv to C:\\Users\\Jbarrett\\Charlie\\charlie\\data\\csv\\K106_switching.csv'
tp840
a(S'2015-02-20 10:07:15.300000'
g293
tp841
a(S'2015-02-20 10:07:15.317000'
g295
tp842
a(S'2015-02-20 10:07:15.323000'
S'data saved as csv to C:\\Users\\Jbarrett\\Charlie\\charlie\\data\\csv\\K106_switching.csv'
tp843
a(S'2015-02-20 10:07:16.364000'
g293
tp844
a(S'2015-02-20 10:07:16.377000'
g295
tp845
a(S'2015-02-20 10:07:16.381000'
S'data saved as csv to C:\\Users\\Jbarrett\\Charlie\\charlie\\data\\csv\\K106_switching.csv'
tp846
a(S'2015-02-20 10:07:17.594000'
g293
tp847
a(S'2015-02-20 10:07:17.611000'
g295
tp848
a(S'2015-02-20 10:07:17.618000'
S'data saved as csv to C:\\Users\\Jbarrett\\Charlie\\charlie\\data\\csv\\K106_switching.csv'
tp849
a(S'2015-02-20 10:07:18.531000'
g293
tp850
a(S'2015-02-20 10:07:18.549000'
g295
tp851
a(S'2015-02-20 10:07:18.556000'
S'data saved as csv to C:\\Users\\Jbarrett\\Charlie\\charlie\\data\\csv\\K106_switching.csv'
tp852
a(S'2015-02-20 10:07:20.612000'
g293
tp853
a(S'2015-02-20 10:07:20.630000'
g295
tp854
a(S'2015-02-20 10:07:20.634000'
S'data saved as csv to C:\\Users\\Jbarrett\\Charlie\\charlie\\data\\csv\\K106_switching.csv'
tp855
a(S'2015-02-20 10:07:21.576000'
g293
tp856
a(S'2015-02-20 10:07:21.593000'
g295
tp857
a(S'2015-02-20 10:07:21.596000'
S'data saved as csv to C:\\Users\\Jbarrett\\Charlie\\charlie\\data\\csv\\K106_switching.csv'
tp858
a(S'2015-02-20 10:07:22.477000'
g293
tp859
a(S'2015-02-20 10:07:22.493000'
g295
tp860
a(S'2015-02-20 10:07:22.498000'
S'data saved as csv to C:\\Users\\Jbarrett\\Charlie\\charlie\\data\\csv\\K106_switching.csv'
tp861
a(S'2015-02-20 10:07:23.420000'
g293
tp862
a(S'2015-02-20 10:07:23.437000'
g295
tp863
a(S'2015-02-20 10:07:23.444000'
S'data saved as csv to C:\\Users\\Jbarrett\\Charlie\\charlie\\data\\csv\\K106_switching.csv'
tp864
a(S'2015-02-20 10:07:25.037000'
g293
tp865
a(S'2015-02-20 10:07:25.054000'
g295
tp866
a(S'2015-02-20 10:07:25.061000'
S'data saved as csv to C:\\Users\\Jbarrett\\Charlie\\charlie\\data\\csv\\K106_switching.csv'
tp867
a(S'2015-02-20 10:07:26.505000'
g293
tp868
a(S'2015-02-20 10:07:26.518000'
g295
tp869
a(S'2015-02-20 10:07:26.522000'
S'data saved as csv to C:\\Users\\Jbarrett\\Charlie\\charlie\\data\\csv\\K106_switching.csv'
tp870
a(S'2015-02-20 10:07:27.354000'
g293
tp871
a(S'2015-02-20 10:07:27.372000'
g295
tp872
a(S'2015-02-20 10:07:27.380000'
S'data saved as csv to C:\\Users\\Jbarrett\\Charlie\\charlie\\data\\csv\\K106_switching.csv'
tp873
a(S'2015-02-20 10:07:28.733000'
g293
tp874
a(S'2015-02-20 10:07:28.750000'
g295
tp875
a(S'2015-02-20 10:07:28.757000'
S'data saved as csv to C:\\Users\\Jbarrett\\Charlie\\charlie\\data\\csv\\K106_switching.csv'
tp876
a(S'2015-02-20 10:07:29.932000'
g293
tp877
a(S'2015-02-20 10:07:29.949000'
g295
tp878
a(S'2015-02-20 10:07:29.957000'
S'data saved as csv to C:\\Users\\Jbarrett\\Charlie\\charlie\\data\\csv\\K106_switching.csv'
tp879
a(S'2015-02-20 10:07:31.030000'
g293
tp880
a(S'2015-02-20 10:07:31.045000'
g295
tp881
a(S'2015-02-20 10:07:31.049000'
S'data saved as csv to C:\\Users\\Jbarrett\\Charlie\\charlie\\data\\csv\\K106_switching.csv'
tp882
a(S'2015-02-20 10:07:33.302000'
g293
tp883
a(S'2015-02-20 10:07:33.320000'
g295
tp884
a(S'2015-02-20 10:07:33.325000'
S'data saved as csv to C:\\Users\\Jbarrett\\Charlie\\charlie\\data\\csv\\K106_switching.csv'
tp885
a(S'2015-02-20 10:07:34.197000'
g293
tp886
a(S'2015-02-20 10:07:34.215000'
g295
tp887
a(S'2015-02-20 10:07:34.222000'
S'data saved as csv to C:\\Users\\Jbarrett\\Charlie\\charlie\\data\\csv\\K106_switching.csv'
tp888
a(S'2015-02-20 10:07:34.954000'
g293
tp889
a(S'2015-02-20 10:07:34.971000'
g295
tp890
a(S'2015-02-20 10:07:34.975000'
S'data saved as csv to C:\\Users\\Jbarrett\\Charlie\\charlie\\data\\csv\\K106_switching.csv'
tp891
a(S'2015-02-20 10:07:36.196000'
g293
tp892
a(S'2015-02-20 10:07:36.209000'
g295
tp893
a(S'2015-02-20 10:07:36.213000'
S'data saved as csv to C:\\Users\\Jbarrett\\Charlie\\charlie\\data\\csv\\K106_switching.csv'
tp894
a(S'2015-02-20 10:07:37.545000'
g293
tp895
a(S'2015-02-20 10:07:37.558000'
g295
tp896
a(S'2015-02-20 10:07:37.562000'
S'data saved as csv to C:\\Users\\Jbarrett\\Charlie\\charlie\\data\\csv\\K106_switching.csv'
tp897
a(S'2015-02-20 10:07:38.654000'
g293
tp898
a(S'2015-02-20 10:07:38.666000'
g295
tp899
a(S'2015-02-20 10:07:38.670000'
S'data saved as csv to C:\\Users\\Jbarrett\\Charlie\\charlie\\data\\csv\\K106_switching.csv'
tp900
a(S'2015-02-20 10:07:39.544000'
g293
tp901
a(S'2015-02-20 10:07:39.562000'
g295
tp902
a(S'2015-02-20 10:07:39.566000'
S'data saved as csv to C:\\Users\\Jbarrett\\Charlie\\charlie\\data\\csv\\K106_switching.csv'
tp903
a(S'2015-02-20 10:07:41.049000'
g293
tp904
a(S'2015-02-20 10:07:41.064000'
g295
tp905
a(S'2015-02-20 10:07:41.067000'
S'data saved as csv to C:\\Users\\Jbarrett\\Charlie\\charlie\\data\\csv\\K106_switching.csv'
tp906
a(S'2015-02-20 10:07:42.319000'
g293
tp907
a(S'2015-02-20 10:07:42.336000'
g295
tp908
a(S'2015-02-20 10:07:42.344000'
S'data saved as csv to C:\\Users\\Jbarrett\\Charlie\\charlie\\data\\csv\\K106_switching.csv'
tp909
a(S'2015-02-20 10:07:43.088000'
g293
tp910
a(S'2015-02-20 10:07:43.096000'
g295
tp911
a(S'2015-02-20 10:07:43.100000'
S'data saved as csv to C:\\Users\\Jbarrett\\Charlie\\charlie\\data\\csv\\K106_switching.csv'
tp912
a(S'2015-02-20 10:07:43.982000'
g293
tp913
a(S'2015-02-20 10:07:43.999000'
g295
tp914
a(S'2015-02-20 10:07:44.005000'
S'data saved as csv to C:\\Users\\Jbarrett\\Charlie\\charlie\\data\\csv\\K106_switching.csv'
tp915
a(S'2015-02-20 10:07:44.808000'
g293
tp916
a(S'2015-02-20 10:07:44.820000'
g295
tp917
a(S'2015-02-20 10:07:44.824000'
S'data saved as csv to C:\\Users\\Jbarrett\\Charlie\\charlie\\data\\csv\\K106_switching.csv'
tp918
a(S'2015-02-20 10:07:45.757000'
g293
tp919
a(S'2015-02-20 10:07:45.773000'
g295
tp920
a(S'2015-02-20 10:07:45.776000'
S'data saved as csv to C:\\Users\\Jbarrett\\Charlie\\charlie\\data\\csv\\K106_switching.csv'
tp921
a(S'2015-02-20 10:07:47.079000'
g293
tp922
a(S'2015-02-20 10:07:47.097000'
g295
tp923
a(S'2015-02-20 10:07:47.104000'
S'data saved as csv to C:\\Users\\Jbarrett\\Charlie\\charlie\\data\\csv\\K106_switching.csv'
tp924
a(S'2015-02-20 10:07:47.799000'
g293
tp925
a(S'2015-02-20 10:07:47.814000'
g295
tp926
a(S'2015-02-20 10:07:47.818000'
S'data saved as csv to C:\\Users\\Jbarrett\\Charlie\\charlie\\data\\csv\\K106_switching.csv'
tp927
asb.