(icharlie.tools.data
Data
p1
(dp2
S'lang'
p3
S'EN'
p4
sS'control'
p5
(lp6
sS'last_updated'
p7
cdatetime
datetime
p8
(S'\x07\xdf\x02\x14\x083\x04\x06\xb2\xd8'
tRp9
sS'last_opened'
p10
g8
(S'\x07\xdf\x02\x14\x08,\x12\x04\x97\xc8'
tRp11
sS'proj_id'
p12
S''
sS'date_done'
p13
g8
(S'\x07\xdf\x02\x14\x083\x04\x06\x8f\xb0'
tRp14
sS'test_done'
p15
I01
sS'data'
p16
(lp17
(S'K106'
p18
S'verbal_fluency'
p19
I0
S'True'
p20
tp21
a(g18
g19
I0
g20
tp22
a(g18
g19
I0
g20
tp23
a(g18
g19
I0
g20
tp24
a(g18
g19
I0
g20
tp25
a(g18
g19
I0
g20
tp26
a(g18
g19
I0
g20
tp27
a(g18
g19
I0
g20
tp28
a(g18
g19
I0
g20
tp29
a(g18
g19
I0
g20
tp30
a(g18
g19
I0
g20
tp31
a(g18
g19
I0
g20
tp32
a(g18
g19
I1
g20
tp33
a(g18
g19
I1
g20
tp34
a(g18
g19
I1
g20
tp35
a(g18
g19
I1
g20
tp36
a(g18
g19
I1
g20
tp37
a(g18
g19
I1
g20
tp38
a(g18
g19
I1
g20
tp39
a(g18
g19
I1
g20
tp40
a(g18
g19
I1
g20
tp41
a(g18
g19
I1
g20
tp42
a(g18
g19
I2
g20
tp43
a(g18
g19
I2
g20
tp44
a(g18
g19
I2
g20
tp45
a(g18
g19
I2
g20
tp46
a(g18
g19
I2
g20
tp47
a(g18
g19
I2
g20
tp48
a(g18
g19
I2
g20
tp49
a(g18
g19
I2
g20
tp50
a(g18
g19
I2
g20
tp51
a(g18
g19
I2
g20
tp52
a(g18
g19
I2
S'False'
p53
tp54
a(g18
g19
I2
g20
tp55
a(g18
g19
I2
g20
tp56
a(g18
g19
I3
g20
tp57
a(g18
g19
I3
g20
tp58
a(g18
g19
I3
g20
tp59
a(g18
g19
I3
g20
tp60
a(g18
g19
I3
g20
tp61
a(g18
g19
I3
g20
tp62
a(g18
g19
I3
g20
tp63
a(g18
g19
I3
g20
tp64
a(g18
g19
I3
g20
tp65
a(g18
g19
I3
g20
tp66
a(g18
g19
I3
g20
tp67
a(g18
g19
I3
g20
tp68
a(g18
g19
I3
g20
tp69
a(g18
g19
I3
g20
tp70
a(g18
g19
I3
g20
tp71
a(g18
g19
I3
g20
tp72
a(g18
g19
I3
g20
tp73
a(g18
g19
I3
g20
tp74
a(g18
g19
I3
g20
tp75
a(g18
g19
I3
g20
tp76
a(g18
g19
I3
g20
tp77
a(g18
g19
I3
g20
tp78
a(g18
g19
I3
g20
tp79
a(g18
g19
I3
g20
tp80
a(g18
g19
I3
g20
tp81
asS'output_format'
p82
(lp83
(S'proband_id'
p84
c__builtin__
str
p85
tp86
a(S'test_name'
p87
g85
tp88
a(S'trialn'
p89
c__builtin__
int
p90
tp91
a(S'rsp'
p92
g85
tp93
asg84
g18
sS'filename'
p94
S'K106_verbal_fluency.data'
p95
sS'initialised'
p96
g8
(S'\x07\xdf\x02\x14\x08,\x12\x04\x97\xc8'
tRp97
sS'last_udated'
p98
g8
(S'\x07\xdf\x02\x14\x08,\x12\x04\x97\xc8'
tRp99
sg87
S'verbal_fluency'
p100
sS'directory'
p101
S'C:\\Users\\Jbarrett\\Charlie\\charlie\\data\\raw'
p102
sS'user_id'
p103
S''
sS'test_started'
p104
I01
sS'abs_filename'
p105
S'C:\\Users\\Jbarrett\\Charlie\\charlie\\data\\raw\\K106_verbal_fluency.data'
p106
sS'date_started'
p107
g8
(S'\x07\xdf\x02\x14\x08/\x1a\x0e\xd4\xe0'
tRp108
sS'log'
p109
(lp110
(S'2015-02-20 08:44:18.301000'
S'instance created'
p111
tp112
a(S'2015-02-20 08:47:26.980000'
S'instance updated'
p113
tp114
a(S'2015-02-20 08:47:26.986000'
S'pandas DataFrame of data created'
p115
tp116
a(S'2015-02-20 08:47:26.990000'
S'data saved as csv to C:\\Users\\Jbarrett\\Charlie\\charlie\\data\\csv\\K106_verbal_fluency.csv'
tp117
a(S'2015-02-20 08:47:32.196000'
g113
tp118
a(S'2015-02-20 08:47:32.201000'
g115
tp119
a(S'2015-02-20 08:47:32.205000'
S'data saved as csv to C:\\Users\\Jbarrett\\Charlie\\charlie\\data\\csv\\K106_verbal_fluency.csv'
tp120
a(S'2015-02-20 08:48:36.334000'
g113
tp121
a(S'2015-02-20 08:48:36.340000'
g115
tp122
a(S'2015-02-20 08:48:36.343000'
S'data saved as csv to C:\\Users\\Jbarrett\\Charlie\\charlie\\data\\csv\\K106_verbal_fluency.csv'
tp123
a(S'2015-02-20 08:48:39.782000'
g113
tp124
a(S'2015-02-20 08:48:39.788000'
g115
tp125
a(S'2015-02-20 08:48:39.791000'
S'data saved as csv to C:\\Users\\Jbarrett\\Charlie\\charlie\\data\\csv\\K106_verbal_fluency.csv'
tp126
a(S'2015-02-20 08:49:45.514000'
g113
tp127
a(S'2015-02-20 08:49:45.519000'
g115
tp128
a(S'2015-02-20 08:49:45.523000'
S'data saved as csv to C:\\Users\\Jbarrett\\Charlie\\charlie\\data\\csv\\K106_verbal_fluency.csv'
tp129
a(S'2015-02-20 08:49:59.522000'
g113
tp130
a(S'2015-02-20 08:49:59.527000'
g115
tp131
a(S'2015-02-20 08:49:59.531000'
S'data saved as csv to C:\\Users\\Jbarrett\\Charlie\\charlie\\data\\csv\\K106_verbal_fluency.csv'
tp132
a(S'2015-02-20 08:51:04.430000'
g113
tp133
a(S'2015-02-20 08:51:04.436000'
g115
tp134
a(S'2015-02-20 08:51:04.439000'
S'data saved as csv to C:\\Users\\Jbarrett\\Charlie\\charlie\\data\\csv\\K106_verbal_fluency.csv'
tp135
asb.