(icharlie.tools.data
Data
p1
(dp2
S'lang'
p3
S'EN'
p4
sS'control'
p5
(lp6
sS'last_updated'
p7
cdatetime
datetime
p8
(S'\x07\xdf\x02\x14\x08\x11\x18\x0f\x0fx'
tRp9
sS'last_opened'
p10
g8
(S'\x07\xdf\x02\x14\x08\x0e\x08\x00\x94p'
tRp11
sS'proj_id'
p12
S''
sS'date_done'
p13
NsS'test_done'
p14
I01
sS'data'
p15
(lp16
(S'K106'
p17
S'digit_symbol'
p18
S'practice'
p19
I0
I2
I2
S'Yes'
p20
S'C:\\Users\\Jbarrett\\Charlie\\charlie\\stimuli\\visual\\digit_symbol\\sym2.bmp'
g20
I7040
tp21
a(g17
g18
g19
I1
I6
I6
g20
S'C:\\Users\\Jbarrett\\Charlie\\charlie\\stimuli\\visual\\digit_symbol\\sym6.bmp'
g20
I3210
tp22
a(g17
g18
g19
I2
I8
I4
S'No'
p23
S'C:\\Users\\Jbarrett\\Charlie\\charlie\\stimuli\\visual\\digit_symbol\\sym4.bmp'
g23
I1780
tp24
a(g17
g18
g19
I3
I4
I4
g20
S'C:\\Users\\Jbarrett\\Charlie\\charlie\\stimuli\\visual\\digit_symbol\\sym4.bmp'
g20
I2621
tp25
a(g17
g18
g19
I4
I7
I7
g20
S'C:\\Users\\Jbarrett\\Charlie\\charlie\\stimuli\\visual\\digit_symbol\\sym7.bmp'
g23
I2330
tp26
a(g17
g18
g19
I5
I6
I5
g23
S'C:\\Users\\Jbarrett\\Charlie\\charlie\\stimuli\\visual\\digit_symbol\\sym5.bmp'
g23
I4080
tp27
a(g17
g18
g19
I6
I2
I8
g23
S'C:\\Users\\Jbarrett\\Charlie\\charlie\\stimuli\\visual\\digit_symbol\\sym8.bmp'
g23
I2160
tp28
a(g17
g18
g19
I7
I9
I2
g23
S'C:\\Users\\Jbarrett\\Charlie\\charlie\\stimuli\\visual\\digit_symbol\\sym2.bmp'
g23
I4100
tp29
a(g17
g18
g19
I8
I3
I7
g23
S'C:\\Users\\Jbarrett\\Charlie\\charlie\\stimuli\\visual\\digit_symbol\\sym7.bmp'
g23
I2490
tp30
a(g17
g18
g19
I9
I5
I6
g23
S'C:\\Users\\Jbarrett\\Charlie\\charlie\\stimuli\\visual\\digit_symbol\\sym6.bmp'
g23
I2160
tp31
a(g17
g18
S'test'
p32
I0
I8
I8
g20
S'C:\\Users\\Jbarrett\\Charlie\\charlie\\stimuli\\visual\\digit_symbol\\sym8.bmp'
g20
I2006
tp33
a(g17
g18
g32
I1
I1
I4
g23
S'C:\\Users\\Jbarrett\\Charlie\\charlie\\stimuli\\visual\\digit_symbol\\sym4.bmp'
g23
I1502
tp34
a(g17
g18
g32
I2
I2
I8
g23
S'C:\\Users\\Jbarrett\\Charlie\\charlie\\stimuli\\visual\\digit_symbol\\sym8.bmp'
g23
I1254
tp35
a(g17
g18
g32
I3
I6
I2
g23
S'C:\\Users\\Jbarrett\\Charlie\\charlie\\stimuli\\visual\\digit_symbol\\sym2.bmp'
g23
I1753
tp36
a(g17
g18
g32
I4
I4
I4
g20
S'C:\\Users\\Jbarrett\\Charlie\\charlie\\stimuli\\visual\\digit_symbol\\sym4.bmp'
g20
I1503
tp37
a(g17
g18
g32
I5
I9
I5
g23
S'C:\\Users\\Jbarrett\\Charlie\\charlie\\stimuli\\visual\\digit_symbol\\sym5.bmp'
g23
I2503
tp38
a(g17
g18
g32
I6
I5
I6
g23
S'C:\\Users\\Jbarrett\\Charlie\\charlie\\stimuli\\visual\\digit_symbol\\sym6.bmp'
g23
I1503
tp39
a(g17
g18
g32
I7
I3
I3
g20
S'C:\\Users\\Jbarrett\\Charlie\\charlie\\stimuli\\visual\\digit_symbol\\sym3.bmp'
g20
I1253
tp40
a(g17
g18
g32
I8
I4
I4
g20
S'C:\\Users\\Jbarrett\\Charlie\\charlie\\stimuli\\visual\\digit_symbol\\sym4.bmp'
g20
I1253
tp41
a(g17
g18
g32
I9
I9
I9
g20
S'C:\\Users\\Jbarrett\\Charlie\\charlie\\stimuli\\visual\\digit_symbol\\sym9.bmp'
g20
I2003
tp42
a(g17
g18
g32
I10
I6
I6
g20
S'C:\\Users\\Jbarrett\\Charlie\\charlie\\stimuli\\visual\\digit_symbol\\sym6.bmp'
g20
I1253
tp43
a(g17
g18
g32
I11
I1
I1
g20
S'C:\\Users\\Jbarrett\\Charlie\\charlie\\stimuli\\visual\\digit_symbol\\sym1.bmp'
g20
I1254
tp44
a(g17
g18
g32
I12
I2
I2
g20
S'C:\\Users\\Jbarrett\\Charlie\\charlie\\stimuli\\visual\\digit_symbol\\sym2.bmp'
g20
I1253
tp45
a(g17
g18
g32
I13
I7
I7
g20
S'C:\\Users\\Jbarrett\\Charlie\\charlie\\stimuli\\visual\\digit_symbol\\sym7.bmp'
g20
I1753
tp46
a(g17
g18
g32
I14
I3
I3
g20
S'C:\\Users\\Jbarrett\\Charlie\\charlie\\stimuli\\visual\\digit_symbol\\sym3.bmp'
g20
I1753
tp47
a(g17
g18
g32
I15
I8
I8
g20
S'C:\\Users\\Jbarrett\\Charlie\\charlie\\stimuli\\visual\\digit_symbol\\sym8.bmp'
g20
I1753
tp48
a(g17
g18
g32
I16
I7
I7
g20
S'C:\\Users\\Jbarrett\\Charlie\\charlie\\stimuli\\visual\\digit_symbol\\sym7.bmp'
g20
I1253
tp49
a(g17
g18
g32
I17
I5
I3
g23
S'C:\\Users\\Jbarrett\\Charlie\\charlie\\stimuli\\visual\\digit_symbol\\sym3.bmp'
g23
I2503
tp50
a(g17
g18
g32
I18
I1
I5
g23
S'C:\\Users\\Jbarrett\\Charlie\\charlie\\stimuli\\visual\\digit_symbol\\sym5.bmp'
g23
I1753
tp51
a(g17
g18
g32
I19
I4
I4
g20
S'C:\\Users\\Jbarrett\\Charlie\\charlie\\stimuli\\visual\\digit_symbol\\sym4.bmp'
g20
I1753
tp52
a(g17
g18
g32
I20
I7
I8
g23
S'C:\\Users\\Jbarrett\\Charlie\\charlie\\stimuli\\visual\\digit_symbol\\sym8.bmp'
g23
I2254
tp53
a(g17
g18
g32
I21
I4
I4
g20
S'C:\\Users\\Jbarrett\\Charlie\\charlie\\stimuli\\visual\\digit_symbol\\sym4.bmp'
g20
I1753
tp54
a(g17
g18
g32
I22
I8
I8
g20
S'C:\\Users\\Jbarrett\\Charlie\\charlie\\stimuli\\visual\\digit_symbol\\sym8.bmp'
g20
I2003
tp55
a(g17
g18
g32
I23
I3
I3
g20
S'C:\\Users\\Jbarrett\\Charlie\\charlie\\stimuli\\visual\\digit_symbol\\sym3.bmp'
g20
I1503
tp56
a(g17
g18
g32
I24
I5
I5
g20
S'C:\\Users\\Jbarrett\\Charlie\\charlie\\stimuli\\visual\\digit_symbol\\sym5.bmp'
g20
I1504
tp57
a(g17
g18
g32
I25
I3
I1
g23
S'C:\\Users\\Jbarrett\\Charlie\\charlie\\stimuli\\visual\\digit_symbol\\sym1.bmp'
g23
I1503
tp58
a(g17
g18
g32
I26
I6
I9
g23
S'C:\\Users\\Jbarrett\\Charlie\\charlie\\stimuli\\visual\\digit_symbol\\sym9.bmp'
g23
I2003
tp59
a(g17
g18
g32
I27
I2
I2
g20
S'C:\\Users\\Jbarrett\\Charlie\\charlie\\stimuli\\visual\\digit_symbol\\sym2.bmp'
g20
I1503
tp60
a(g17
g18
g32
I28
I8
I8
g20
S'C:\\Users\\Jbarrett\\Charlie\\charlie\\stimuli\\visual\\digit_symbol\\sym8.bmp'
g20
I1753
tp61
a(g17
g18
g32
I29
I9
I2
g23
S'C:\\Users\\Jbarrett\\Charlie\\charlie\\stimuli\\visual\\digit_symbol\\sym2.bmp'
g23
I2004
tp62
a(g17
g18
g32
I30
I1
I6
g23
S'C:\\Users\\Jbarrett\\Charlie\\charlie\\stimuli\\visual\\digit_symbol\\sym6.bmp'
g23
I2253
tp63
a(g17
g18
g32
I31
I5
I4
g23
S'C:\\Users\\Jbarrett\\Charlie\\charlie\\stimuli\\visual\\digit_symbol\\sym4.bmp'
g23
I1753
tp64
a(g17
g18
g32
I32
I6
I6
g20
S'C:\\Users\\Jbarrett\\Charlie\\charlie\\stimuli\\visual\\digit_symbol\\sym6.bmp'
g20
I1253
tp65
a(g17
g18
g32
I33
I2
I2
g20
S'C:\\Users\\Jbarrett\\Charlie\\charlie\\stimuli\\visual\\digit_symbol\\sym2.bmp'
g20
I1503
tp66
a(g17
g18
g32
I34
I9
I9
g20
S'C:\\Users\\Jbarrett\\Charlie\\charlie\\stimuli\\visual\\digit_symbol\\sym9.bmp'
g20
I3003
tp67
a(g17
g18
g32
I35
I7
I7
g20
S'C:\\Users\\Jbarrett\\Charlie\\charlie\\stimuli\\visual\\digit_symbol\\sym7.bmp'
g20
I2003
tp68
a(g17
g18
g32
I36
I3
I3
g20
S'C:\\Users\\Jbarrett\\Charlie\\charlie\\stimuli\\visual\\digit_symbol\\sym3.bmp'
g20
I1003
tp69
a(g17
g18
g32
I37
I1
I8
g23
S'C:\\Users\\Jbarrett\\Charlie\\charlie\\stimuli\\visual\\digit_symbol\\sym8.bmp'
g23
I1504
tp70
a(g17
g18
g32
I38
I6
I6
g20
S'C:\\Users\\Jbarrett\\Charlie\\charlie\\stimuli\\visual\\digit_symbol\\sym6.bmp'
g20
I1253
tp71
a(g17
g18
g32
I39
I7
I7
g20
S'C:\\Users\\Jbarrett\\Charlie\\charlie\\stimuli\\visual\\digit_symbol\\sym7.bmp'
g20
I1253
tp72
a(g17
g18
g32
I40
I9
I5
g23
S'C:\\Users\\Jbarrett\\Charlie\\charlie\\stimuli\\visual\\digit_symbol\\sym5.bmp'
g23
I1503
tp73
a(g17
g18
g32
I41
I7
I9
g23
S'C:\\Users\\Jbarrett\\Charlie\\charlie\\stimuli\\visual\\digit_symbol\\sym9.bmp'
g23
I1253
tp74
a(g17
g18
g32
I42
I5
I7
g23
S'C:\\Users\\Jbarrett\\Charlie\\charlie\\stimuli\\visual\\digit_symbol\\sym7.bmp'
g23
I2003
tp75
a(g17
g18
g32
I43
I2
I2
g20
S'C:\\Users\\Jbarrett\\Charlie\\charlie\\stimuli\\visual\\digit_symbol\\sym2.bmp'
g20
I1253
tp76
a(g17
g18
g32
I44
I1
I1
g20
S'C:\\Users\\Jbarrett\\Charlie\\charlie\\stimuli\\visual\\digit_symbol\\sym1.bmp'
g20
I1003
tp77
a(g17
g18
g32
I45
I6
I4
g23
S'C:\\Users\\Jbarrett\\Charlie\\charlie\\stimuli\\visual\\digit_symbol\\sym4.bmp'
g23
I1253
tp78
a(g17
g18
g32
I46
I8
I3
g23
S'C:\\Users\\Jbarrett\\Charlie\\charlie\\stimuli\\visual\\digit_symbol\\sym3.bmp'
g23
I2253
tp79
asS'output_format'
p80
(lp81
(S'proband_id'
p82
c__builtin__
str
p83
tp84
a(S'test_name'
p85
g83
tp86
a(S'phase'
p87
g83
tp88
a(S'trialn'
p89
c__builtin__
int
p90
tp91
a(S'digit'
p92
g90
tp93
a(S'symbol'
p94
g90
tp95
a(S'ans'
p96
g83
tp97
a(S'f'
g83
tp98
a(S'rsp'
p99
g83
tp100
a(S'rt'
p101
g90
tp102
asg82
g17
sS'filename'
p103
S'K106_digit_symbol.data'
p104
sS'initialised'
p105
g8
(S'\x07\xdf\x02\x14\x08\x0e\x08\x00\x94p'
tRp106
sS'last_udated'
p107
g8
(S'\x07\xdf\x02\x14\x08\x0e\x08\x00\x94p'
tRp108
sg85
S'digit_symbol'
p109
sS'directory'
p110
S'C:\\Users\\Jbarrett\\Charlie\\charlie\\data\\raw'
p111
sS'user_id'
p112
S''
sS'test_started'
p113
I01
sS'abs_filename'
p114
S'C:\\Users\\Jbarrett\\Charlie\\charlie\\data\\raw\\K106_digit_symbol.data'
p115
sS'date_started'
p116
g8
(S'\x07\xdf\x02\x14\x08\x0e9\x02\xfd\xa0'
tRp117
sS'log'
p118
(lp119
(S'2015-02-20 08:14:08.038000'
S'instance created'
p120
tp121
a(S'2015-02-20 08:14:57.204000'
S'instance updated'
p122
tp123
a(S'2015-02-20 08:14:57.216000'
S'pandas DataFrame of data created'
p124
tp125
a(S'2015-02-20 08:14:57.220000'
S'data saved as csv to C:\\Users\\Jbarrett\\Charlie\\charlie\\data\\csv\\K106_digit_symbol.csv'
tp126
a(S'2015-02-20 08:15:01.445000'
g122
tp127
a(S'2015-02-20 08:15:01.456000'
g124
tp128
a(S'2015-02-20 08:15:01.461000'
S'data saved as csv to C:\\Users\\Jbarrett\\Charlie\\charlie\\data\\csv\\K106_digit_symbol.csv'
tp129
a(S'2015-02-20 08:15:04.254000'
g122
tp130
a(S'2015-02-20 08:15:04.265000'
g124
tp131
a(S'2015-02-20 08:15:04.269000'
S'data saved as csv to C:\\Users\\Jbarrett\\Charlie\\charlie\\data\\csv\\K106_digit_symbol.csv'
tp132
a(S'2015-02-20 08:15:07.903000'
g122
tp133
a(S'2015-02-20 08:15:07.914000'
g124
tp134
a(S'2015-02-20 08:15:07.918000'
S'data saved as csv to C:\\Users\\Jbarrett\\Charlie\\charlie\\data\\csv\\K106_digit_symbol.csv'
tp135
a(S'2015-02-20 08:15:11.275000'
g122
tp136
a(S'2015-02-20 08:15:11.287000'
g124
tp137
a(S'2015-02-20 08:15:11.291000'
S'data saved as csv to C:\\Users\\Jbarrett\\Charlie\\charlie\\data\\csv\\K106_digit_symbol.csv'
tp138
a(S'2015-02-20 08:15:16.384000'
g122
tp139
a(S'2015-02-20 08:15:16.395000'
g124
tp140
a(S'2015-02-20 08:15:16.399000'
S'data saved as csv to C:\\Users\\Jbarrett\\Charlie\\charlie\\data\\csv\\K106_digit_symbol.csv'
tp141
a(S'2015-02-20 08:15:19.573000'
g122
tp142
a(S'2015-02-20 08:15:19.585000'
g124
tp143
a(S'2015-02-20 08:15:19.589000'
S'data saved as csv to C:\\Users\\Jbarrett\\Charlie\\charlie\\data\\csv\\K106_digit_symbol.csv'
tp144
a(S'2015-02-20 08:15:24.703000'
g122
tp145
a(S'2015-02-20 08:15:24.714000'
g124
tp146
a(S'2015-02-20 08:15:24.718000'
S'data saved as csv to C:\\Users\\Jbarrett\\Charlie\\charlie\\data\\csv\\K106_digit_symbol.csv'
tp147
a(S'2015-02-20 08:15:28.221000'
g122
tp148
a(S'2015-02-20 08:15:28.233000'
g124
tp149
a(S'2015-02-20 08:15:28.237000'
S'data saved as csv to C:\\Users\\Jbarrett\\Charlie\\charlie\\data\\csv\\K106_digit_symbol.csv'
tp150
a(S'2015-02-20 08:15:31.411000'
g122
tp151
a(S'2015-02-20 08:15:31.423000'
g124
tp152
a(S'2015-02-20 08:15:31.426000'
S'data saved as csv to C:\\Users\\Jbarrett\\Charlie\\charlie\\data\\csv\\K106_digit_symbol.csv'
tp153
a(S'2015-02-20 08:17:24.968000'
g122
tp154
a(S'2015-02-20 08:17:24.981000'
g124
tp155
a(S'2015-02-20 08:17:24.986000'
S'data saved as csv to C:\\Users\\Jbarrett\\Charlie\\charlie\\data\\csv\\K106_digit_symbol.csv'
tp156
asb.