(icharlie.tools.data
Data
p1
(dp2
S'lang'
p3
S'EN'
p4
sS'control'
p5
(lp6
sS'last_updated'
p7
cdatetime
datetime
p8
(S'\x07\xdf\x02\x14\n\x0f/\r\x84\xf0'
tRp9
sS'last_opened'
p10
g8
(S'\x07\xdf\x02\x14\n\x0b*\x00\xa7\xf8'
tRp11
sS'proj_id'
p12
S''
sS'date_done'
p13
NsS'test_done'
p14
I01
sS'data'
p15
(lp16
(S'K106'
p17
S'pcet'
p18
S'practice'
p19
I0
NI2
I2
I2
I2
S'C:\\Users\\Jbarrett\\Charlie\\charlie\\stimuli\\visual\\pcet\\000.png'
S'C:\\Users\\Jbarrett\\Charlie\\charlie\\stimuli\\visual\\pcet\\000.png'
S'C:\\Users\\Jbarrett\\Charlie\\charlie\\stimuli\\visual\\pcet\\111.png'
S'C:\\Users\\Jbarrett\\Charlie\\charlie\\stimuli\\visual\\pcet\\000.png'
I2
I3640
tp20
a(g17
g18
S'test'
p21
I0
S'thickness'
p22
I3
NNI1
S'C:\\Users\\Jbarrett\\Charlie\\charlie\\stimuli\\visual\\pcet\\010.png'
S'C:\\Users\\Jbarrett\\Charlie\\charlie\\stimuli\\visual\\pcet\\000.png'
S'C:\\Users\\Jbarrett\\Charlie\\charlie\\stimuli\\visual\\pcet\\001.png'
S'C:\\Users\\Jbarrett\\Charlie\\charlie\\stimuli\\visual\\pcet\\100.png'
I0
I2910
tp23
a(g17
g18
g21
I1
g22
I2
NNI0
S'C:\\Users\\Jbarrett\\Charlie\\charlie\\stimuli\\visual\\pcet\\110.png'
S'C:\\Users\\Jbarrett\\Charlie\\charlie\\stimuli\\visual\\pcet\\111.png'
S'C:\\Users\\Jbarrett\\Charlie\\charlie\\stimuli\\visual\\pcet\\010.png'
S'C:\\Users\\Jbarrett\\Charlie\\charlie\\stimuli\\visual\\pcet\\100.png'
I2
I2050
tp24
a(g17
g18
g21
I2
g22
I0
NNI3
S'C:\\Users\\Jbarrett\\Charlie\\charlie\\stimuli\\visual\\pcet\\010.png'
S'C:\\Users\\Jbarrett\\Charlie\\charlie\\stimuli\\visual\\pcet\\111.png'
S'C:\\Users\\Jbarrett\\Charlie\\charlie\\stimuli\\visual\\pcet\\100.png'
S'C:\\Users\\Jbarrett\\Charlie\\charlie\\stimuli\\visual\\pcet\\110.png'
I0
I1000
tp25
a(g17
g18
g21
I3
g22
I3
NNI1
S'C:\\Users\\Jbarrett\\Charlie\\charlie\\stimuli\\visual\\pcet\\000.png'
S'C:\\Users\\Jbarrett\\Charlie\\charlie\\stimuli\\visual\\pcet\\010.png'
S'C:\\Users\\Jbarrett\\Charlie\\charlie\\stimuli\\visual\\pcet\\011.png'
S'C:\\Users\\Jbarrett\\Charlie\\charlie\\stimuli\\visual\\pcet\\110.png'
I3
I1610
tp26
a(g17
g18
g21
I4
g22
I0
NNI3
S'C:\\Users\\Jbarrett\\Charlie\\charlie\\stimuli\\visual\\pcet\\011.png'
S'C:\\Users\\Jbarrett\\Charlie\\charlie\\stimuli\\visual\\pcet\\110.png'
S'C:\\Users\\Jbarrett\\Charlie\\charlie\\stimuli\\visual\\pcet\\101.png'
S'C:\\Users\\Jbarrett\\Charlie\\charlie\\stimuli\\visual\\pcet\\111.png'
I0
I1310
tp27
a(g17
g18
g21
I5
g22
I3
NNI1
S'C:\\Users\\Jbarrett\\Charlie\\charlie\\stimuli\\visual\\pcet\\100.png'
S'C:\\Users\\Jbarrett\\Charlie\\charlie\\stimuli\\visual\\pcet\\101.png'
S'C:\\Users\\Jbarrett\\Charlie\\charlie\\stimuli\\visual\\pcet\\111.png'
S'C:\\Users\\Jbarrett\\Charlie\\charlie\\stimuli\\visual\\pcet\\001.png'
I3
I1030
tp28
a(g17
g18
g21
I6
g22
I1
NNI3
S'C:\\Users\\Jbarrett\\Charlie\\charlie\\stimuli\\visual\\pcet\\010.png'
S'C:\\Users\\Jbarrett\\Charlie\\charlie\\stimuli\\visual\\pcet\\100.png'
S'C:\\Users\\Jbarrett\\Charlie\\charlie\\stimuli\\visual\\pcet\\001.png'
S'C:\\Users\\Jbarrett\\Charlie\\charlie\\stimuli\\visual\\pcet\\000.png'
I1
I1360
tp29
a(g17
g18
g21
I7
g22
I0
NNI1
S'C:\\Users\\Jbarrett\\Charlie\\charlie\\stimuli\\visual\\pcet\\101.png'
S'C:\\Users\\Jbarrett\\Charlie\\charlie\\stimuli\\visual\\pcet\\001.png'
S'C:\\Users\\Jbarrett\\Charlie\\charlie\\stimuli\\visual\\pcet\\000.png'
S'C:\\Users\\Jbarrett\\Charlie\\charlie\\stimuli\\visual\\pcet\\011.png'
I0
I1270
tp30
a(g17
g18
g21
I8
g22
I0
NNI1
S'C:\\Users\\Jbarrett\\Charlie\\charlie\\stimuli\\visual\\pcet\\010.png'
S'C:\\Users\\Jbarrett\\Charlie\\charlie\\stimuli\\visual\\pcet\\110.png'
S'C:\\Users\\Jbarrett\\Charlie\\charlie\\stimuli\\visual\\pcet\\111.png'
S'C:\\Users\\Jbarrett\\Charlie\\charlie\\stimuli\\visual\\pcet\\100.png'
I0
I1120
tp31
a(g17
g18
g21
I9
g22
I1
NNI3
S'C:\\Users\\Jbarrett\\Charlie\\charlie\\stimuli\\visual\\pcet\\100.png'
S'C:\\Users\\Jbarrett\\Charlie\\charlie\\stimuli\\visual\\pcet\\010.png'
S'C:\\Users\\Jbarrett\\Charlie\\charlie\\stimuli\\visual\\pcet\\111.png'
S'C:\\Users\\Jbarrett\\Charlie\\charlie\\stimuli\\visual\\pcet\\110.png'
I1
I1181
tp32
a(g17
g18
g21
I10
g22
I2
NNI0
S'C:\\Users\\Jbarrett\\Charlie\\charlie\\stimuli\\visual\\pcet\\111.png'
S'C:\\Users\\Jbarrett\\Charlie\\charlie\\stimuli\\visual\\pcet\\101.png'
S'C:\\Users\\Jbarrett\\Charlie\\charlie\\stimuli\\visual\\pcet\\011.png'
S'C:\\Users\\Jbarrett\\Charlie\\charlie\\stimuli\\visual\\pcet\\110.png'
I2
I1170
tp33
a(g17
g18
g21
I11
g22
I0
NNI1
S'C:\\Users\\Jbarrett\\Charlie\\charlie\\stimuli\\visual\\pcet\\011.png'
S'C:\\Users\\Jbarrett\\Charlie\\charlie\\stimuli\\visual\\pcet\\111.png'
S'C:\\Users\\Jbarrett\\Charlie\\charlie\\stimuli\\visual\\pcet\\101.png'
S'C:\\Users\\Jbarrett\\Charlie\\charlie\\stimuli\\visual\\pcet\\110.png'
I0
I840
tp34
a(g17
g18
g21
I12
S'shape'
p35
I0
I3
I2
I1
S'C:\\Users\\Jbarrett\\Charlie\\charlie\\stimuli\\visual\\pcet\\110.png'
S'C:\\Users\\Jbarrett\\Charlie\\charlie\\stimuli\\visual\\pcet\\100.png'
S'C:\\Users\\Jbarrett\\Charlie\\charlie\\stimuli\\visual\\pcet\\101.png'
S'C:\\Users\\Jbarrett\\Charlie\\charlie\\stimuli\\visual\\pcet\\000.png'
I3
I1050
tp36
a(g17
g18
g21
I13
S'shape'
p37
I3
I2
I1
I0
S'C:\\Users\\Jbarrett\\Charlie\\charlie\\stimuli\\visual\\pcet\\101.png'
S'C:\\Users\\Jbarrett\\Charlie\\charlie\\stimuli\\visual\\pcet\\100.png'
S'C:\\Users\\Jbarrett\\Charlie\\charlie\\stimuli\\visual\\pcet\\001.png'
S'C:\\Users\\Jbarrett\\Charlie\\charlie\\stimuli\\visual\\pcet\\111.png'
I2
I2260
tp38
a(g17
g18
g21
I14
S'shape'
p39
I3
I1
I0
I2
S'C:\\Users\\Jbarrett\\Charlie\\charlie\\stimuli\\visual\\pcet\\101.png'
S'C:\\Users\\Jbarrett\\Charlie\\charlie\\stimuli\\visual\\pcet\\000.png'
S'C:\\Users\\Jbarrett\\Charlie\\charlie\\stimuli\\visual\\pcet\\100.png'
S'C:\\Users\\Jbarrett\\Charlie\\charlie\\stimuli\\visual\\pcet\\110.png'
I3
I6460
tp40
a(g17
g18
g21
I15
S'shape'
p41
I1
I3
I0
I2
S'C:\\Users\\Jbarrett\\Charlie\\charlie\\stimuli\\visual\\pcet\\101.png'
S'C:\\Users\\Jbarrett\\Charlie\\charlie\\stimuli\\visual\\pcet\\110.png'
S'C:\\Users\\Jbarrett\\Charlie\\charlie\\stimuli\\visual\\pcet\\100.png'
S'C:\\Users\\Jbarrett\\Charlie\\charlie\\stimuli\\visual\\pcet\\000.png'
I3
I2230
tp42
a(g17
g18
g21
I16
S'shape'
p43
I1
I0
I3
I2
S'C:\\Users\\Jbarrett\\Charlie\\charlie\\stimuli\\visual\\pcet\\111.png'
S'C:\\Users\\Jbarrett\\Charlie\\charlie\\stimuli\\visual\\pcet\\001.png'
S'C:\\Users\\Jbarrett\\Charlie\\charlie\\stimuli\\visual\\pcet\\011.png'
S'C:\\Users\\Jbarrett\\Charlie\\charlie\\stimuli\\visual\\pcet\\010.png'
I1
I4220
tp44
a(g17
g18
g21
I17
S'shape'
p45
I2
I1
I3
I0
S'C:\\Users\\Jbarrett\\Charlie\\charlie\\stimuli\\visual\\pcet\\111.png'
S'C:\\Users\\Jbarrett\\Charlie\\charlie\\stimuli\\visual\\pcet\\011.png'
S'C:\\Users\\Jbarrett\\Charlie\\charlie\\stimuli\\visual\\pcet\\101.png'
S'C:\\Users\\Jbarrett\\Charlie\\charlie\\stimuli\\visual\\pcet\\110.png'
I2
I2670
tp46
a(g17
g18
g21
I18
S'shape'
p47
I3
I2
I1
I0
S'C:\\Users\\Jbarrett\\Charlie\\charlie\\stimuli\\visual\\pcet\\010.png'
S'C:\\Users\\Jbarrett\\Charlie\\charlie\\stimuli\\visual\\pcet\\011.png'
S'C:\\Users\\Jbarrett\\Charlie\\charlie\\stimuli\\visual\\pcet\\110.png'
S'C:\\Users\\Jbarrett\\Charlie\\charlie\\stimuli\\visual\\pcet\\000.png'
I3
I1460
tp48
a(g17
g18
g21
I19
S'shape'
p49
I1
I0
I2
I3
S'C:\\Users\\Jbarrett\\Charlie\\charlie\\stimuli\\visual\\pcet\\000.png'
S'C:\\Users\\Jbarrett\\Charlie\\charlie\\stimuli\\visual\\pcet\\110.png'
S'C:\\Users\\Jbarrett\\Charlie\\charlie\\stimuli\\visual\\pcet\\101.png'
S'C:\\Users\\Jbarrett\\Charlie\\charlie\\stimuli\\visual\\pcet\\100.png'
I1
I2631
tp50
a(g17
g18
g21
I20
S'shape'
p51
I3
I2
I1
I0
S'C:\\Users\\Jbarrett\\Charlie\\charlie\\stimuli\\visual\\pcet\\101.png'
S'C:\\Users\\Jbarrett\\Charlie\\charlie\\stimuli\\visual\\pcet\\100.png'
S'C:\\Users\\Jbarrett\\Charlie\\charlie\\stimuli\\visual\\pcet\\001.png'
S'C:\\Users\\Jbarrett\\Charlie\\charlie\\stimuli\\visual\\pcet\\111.png'
I3
I1530
tp52
a(g17
g18
g21
I21
S'shape'
p53
I1
I0
I3
I2
S'C:\\Users\\Jbarrett\\Charlie\\charlie\\stimuli\\visual\\pcet\\010.png'
S'C:\\Users\\Jbarrett\\Charlie\\charlie\\stimuli\\visual\\pcet\\100.png'
S'C:\\Users\\Jbarrett\\Charlie\\charlie\\stimuli\\visual\\pcet\\110.png'
S'C:\\Users\\Jbarrett\\Charlie\\charlie\\stimuli\\visual\\pcet\\111.png'
I1
I1310
tp54
a(g17
g18
g21
I22
S'shape'
p55
I2
I1
I0
I3
S'C:\\Users\\Jbarrett\\Charlie\\charlie\\stimuli\\visual\\pcet\\000.png'
S'C:\\Users\\Jbarrett\\Charlie\\charlie\\stimuli\\visual\\pcet\\101.png'
S'C:\\Users\\Jbarrett\\Charlie\\charlie\\stimuli\\visual\\pcet\\011.png'
S'C:\\Users\\Jbarrett\\Charlie\\charlie\\stimuli\\visual\\pcet\\001.png'
I2
I1770
tp56
a(g17
g18
g21
I23
S'shape'
p57
I1
I0
I2
I3
S'C:\\Users\\Jbarrett\\Charlie\\charlie\\stimuli\\visual\\pcet\\100.png'
S'C:\\Users\\Jbarrett\\Charlie\\charlie\\stimuli\\visual\\pcet\\010.png'
S'C:\\Users\\Jbarrett\\Charlie\\charlie\\stimuli\\visual\\pcet\\001.png'
S'C:\\Users\\Jbarrett\\Charlie\\charlie\\stimuli\\visual\\pcet\\000.png'
I1
I3070
tp58
a(g17
g18
g21
I24
S'size'
p59
I0
I2
I3
I1
S'C:\\Users\\Jbarrett\\Charlie\\charlie\\stimuli\\visual\\pcet\\101.png'
S'C:\\Users\\Jbarrett\\Charlie\\charlie\\stimuli\\visual\\pcet\\100.png'
S'C:\\Users\\Jbarrett\\Charlie\\charlie\\stimuli\\visual\\pcet\\110.png'
S'C:\\Users\\Jbarrett\\Charlie\\charlie\\stimuli\\visual\\pcet\\000.png'
I3
I1040
tp60
a(g17
g18
g21
I25
S'size'
p61
I3
I2
I0
I1
S'C:\\Users\\Jbarrett\\Charlie\\charlie\\stimuli\\visual\\pcet\\001.png'
S'C:\\Users\\Jbarrett\\Charlie\\charlie\\stimuli\\visual\\pcet\\101.png'
S'C:\\Users\\Jbarrett\\Charlie\\charlie\\stimuli\\visual\\pcet\\111.png'
S'C:\\Users\\Jbarrett\\Charlie\\charlie\\stimuli\\visual\\pcet\\100.png'
I2
I1430
tp62
a(g17
g18
g21
I26
S'size'
p63
I0
I3
I2
I1
S'C:\\Users\\Jbarrett\\Charlie\\charlie\\stimuli\\visual\\pcet\\000.png'
S'C:\\Users\\Jbarrett\\Charlie\\charlie\\stimuli\\visual\\pcet\\001.png'
S'C:\\Users\\Jbarrett\\Charlie\\charlie\\stimuli\\visual\\pcet\\101.png'
S'C:\\Users\\Jbarrett\\Charlie\\charlie\\stimuli\\visual\\pcet\\011.png'
I2
I2280
tp64
a(g17
g18
g21
I27
S'size'
p65
I1
I2
I3
I0
S'C:\\Users\\Jbarrett\\Charlie\\charlie\\stimuli\\visual\\pcet\\101.png'
S'C:\\Users\\Jbarrett\\Charlie\\charlie\\stimuli\\visual\\pcet\\100.png'
S'C:\\Users\\Jbarrett\\Charlie\\charlie\\stimuli\\visual\\pcet\\111.png'
S'C:\\Users\\Jbarrett\\Charlie\\charlie\\stimuli\\visual\\pcet\\001.png'
I2
I1900
tp66
a(g17
g18
g21
I28
S'size'
p67
I2
I3
I1
I0
S'C:\\Users\\Jbarrett\\Charlie\\charlie\\stimuli\\visual\\pcet\\110.png'
S'C:\\Users\\Jbarrett\\Charlie\\charlie\\stimuli\\visual\\pcet\\010.png'
S'C:\\Users\\Jbarrett\\Charlie\\charlie\\stimuli\\visual\\pcet\\111.png'
S'C:\\Users\\Jbarrett\\Charlie\\charlie\\stimuli\\visual\\pcet\\100.png'
I3
I3600
tp68
a(g17
g18
g21
I29
S'size'
p69
I1
I0
I2
I3
S'C:\\Users\\Jbarrett\\Charlie\\charlie\\stimuli\\visual\\pcet\\111.png'
S'C:\\Users\\Jbarrett\\Charlie\\charlie\\stimuli\\visual\\pcet\\100.png'
S'C:\\Users\\Jbarrett\\Charlie\\charlie\\stimuli\\visual\\pcet\\001.png'
S'C:\\Users\\Jbarrett\\Charlie\\charlie\\stimuli\\visual\\pcet\\101.png'
I2
I2930
tp70
a(g17
g18
g21
I30
S'size'
p71
I0
I1
I2
I3
S'C:\\Users\\Jbarrett\\Charlie\\charlie\\stimuli\\visual\\pcet\\011.png'
S'C:\\Users\\Jbarrett\\Charlie\\charlie\\stimuli\\visual\\pcet\\000.png'
S'C:\\Users\\Jbarrett\\Charlie\\charlie\\stimuli\\visual\\pcet\\110.png'
S'C:\\Users\\Jbarrett\\Charlie\\charlie\\stimuli\\visual\\pcet\\010.png'
I2
I3961
tp72
a(g17
g18
g21
I31
S'size'
p73
I3
I1
I0
I2
S'C:\\Users\\Jbarrett\\Charlie\\charlie\\stimuli\\visual\\pcet\\110.png'
S'C:\\Users\\Jbarrett\\Charlie\\charlie\\stimuli\\visual\\pcet\\000.png'
S'C:\\Users\\Jbarrett\\Charlie\\charlie\\stimuli\\visual\\pcet\\010.png'
S'C:\\Users\\Jbarrett\\Charlie\\charlie\\stimuli\\visual\\pcet\\011.png'
I1
I1490
tp74
a(g17
g18
g21
I32
S'size'
p75
I0
I2
I1
I3
S'C:\\Users\\Jbarrett\\Charlie\\charlie\\stimuli\\visual\\pcet\\000.png'
S'C:\\Users\\Jbarrett\\Charlie\\charlie\\stimuli\\visual\\pcet\\101.png'
S'C:\\Users\\Jbarrett\\Charlie\\charlie\\stimuli\\visual\\pcet\\011.png'
S'C:\\Users\\Jbarrett\\Charlie\\charlie\\stimuli\\visual\\pcet\\001.png'
I1
I2520
tp76
a(g17
g18
g21
I33
S'size'
p77
I3
I1
I2
I0
S'C:\\Users\\Jbarrett\\Charlie\\charlie\\stimuli\\visual\\pcet\\011.png'
S'C:\\Users\\Jbarrett\\Charlie\\charlie\\stimuli\\visual\\pcet\\001.png'
S'C:\\Users\\Jbarrett\\Charlie\\charlie\\stimuli\\visual\\pcet\\111.png'
S'C:\\Users\\Jbarrett\\Charlie\\charlie\\stimuli\\visual\\pcet\\010.png'
I1
I2460
tp78
a(g17
g18
g21
I34
S'size'
p79
I2
I3
I1
I0
S'C:\\Users\\Jbarrett\\Charlie\\charlie\\stimuli\\visual\\pcet\\011.png'
S'C:\\Users\\Jbarrett\\Charlie\\charlie\\stimuli\\visual\\pcet\\111.png'
S'C:\\Users\\Jbarrett\\Charlie\\charlie\\stimuli\\visual\\pcet\\010.png'
S'C:\\Users\\Jbarrett\\Charlie\\charlie\\stimuli\\visual\\pcet\\001.png'
I3
I2780
tp80
a(g17
g18
g21
I35
S'size'
p81
I2
I0
I1
I3
S'C:\\Users\\Jbarrett\\Charlie\\charlie\\stimuli\\visual\\pcet\\010.png'
S'C:\\Users\\Jbarrett\\Charlie\\charlie\\stimuli\\visual\\pcet\\100.png'
S'C:\\Users\\Jbarrett\\Charlie\\charlie\\stimuli\\visual\\pcet\\001.png'
S'C:\\Users\\Jbarrett\\Charlie\\charlie\\stimuli\\visual\\pcet\\000.png'
I1
I1171
tp82
a(g17
g18
g21
I36
g22
I2
I3
I1
I0
S'C:\\Users\\Jbarrett\\Charlie\\charlie\\stimuli\\visual\\pcet\\010.png'
S'C:\\Users\\Jbarrett\\Charlie\\charlie\\stimuli\\visual\\pcet\\000.png'
S'C:\\Users\\Jbarrett\\Charlie\\charlie\\stimuli\\visual\\pcet\\110.png'
S'C:\\Users\\Jbarrett\\Charlie\\charlie\\stimuli\\visual\\pcet\\011.png'
I2
I1510
tp83
a(g17
g18
g21
I37
g22
I3
I2
I1
I0
S'C:\\Users\\Jbarrett\\Charlie\\charlie\\stimuli\\visual\\pcet\\101.png'
S'C:\\Users\\Jbarrett\\Charlie\\charlie\\stimuli\\visual\\pcet\\111.png'
S'C:\\Users\\Jbarrett\\Charlie\\charlie\\stimuli\\visual\\pcet\\100.png'
S'C:\\Users\\Jbarrett\\Charlie\\charlie\\stimuli\\visual\\pcet\\001.png'
I1
I3340
tp84
a(g17
g18
g21
I38
g22
I0
I3
I1
I2
S'C:\\Users\\Jbarrett\\Charlie\\charlie\\stimuli\\visual\\pcet\\100.png'
S'C:\\Users\\Jbarrett\\Charlie\\charlie\\stimuli\\visual\\pcet\\010.png'
S'C:\\Users\\Jbarrett\\Charlie\\charlie\\stimuli\\visual\\pcet\\000.png'
S'C:\\Users\\Jbarrett\\Charlie\\charlie\\stimuli\\visual\\pcet\\001.png'
I0
I1000
tp85
a(g17
g18
g21
I39
g22
I0
I3
I2
I1
S'C:\\Users\\Jbarrett\\Charlie\\charlie\\stimuli\\visual\\pcet\\010.png'
S'C:\\Users\\Jbarrett\\Charlie\\charlie\\stimuli\\visual\\pcet\\110.png'
S'C:\\Users\\Jbarrett\\Charlie\\charlie\\stimuli\\visual\\pcet\\100.png'
S'C:\\Users\\Jbarrett\\Charlie\\charlie\\stimuli\\visual\\pcet\\111.png'
I0
I890
tp86
a(g17
g18
g21
I40
g22
I0
I1
I2
I3
S'C:\\Users\\Jbarrett\\Charlie\\charlie\\stimuli\\visual\\pcet\\001.png'
S'C:\\Users\\Jbarrett\\Charlie\\charlie\\stimuli\\visual\\pcet\\100.png'
S'C:\\Users\\Jbarrett\\Charlie\\charlie\\stimuli\\visual\\pcet\\111.png'
S'C:\\Users\\Jbarrett\\Charlie\\charlie\\stimuli\\visual\\pcet\\101.png'
I0
I1630
tp87
a(g17
g18
g21
I41
g22
I3
I0
I2
I1
S'C:\\Users\\Jbarrett\\Charlie\\charlie\\stimuli\\visual\\pcet\\111.png'
S'C:\\Users\\Jbarrett\\Charlie\\charlie\\stimuli\\visual\\pcet\\110.png'
S'C:\\Users\\Jbarrett\\Charlie\\charlie\\stimuli\\visual\\pcet\\100.png'
S'C:\\Users\\Jbarrett\\Charlie\\charlie\\stimuli\\visual\\pcet\\010.png'
I3
I1320
tp88
a(g17
g18
g21
I42
g22
I0
I3
I1
I2
S'C:\\Users\\Jbarrett\\Charlie\\charlie\\stimuli\\visual\\pcet\\110.png'
S'C:\\Users\\Jbarrett\\Charlie\\charlie\\stimuli\\visual\\pcet\\000.png'
S'C:\\Users\\Jbarrett\\Charlie\\charlie\\stimuli\\visual\\pcet\\010.png'
S'C:\\Users\\Jbarrett\\Charlie\\charlie\\stimuli\\visual\\pcet\\011.png'
I0
I1280
tp89
a(g17
g18
g21
I43
g22
I0
I3
I2
I1
S'C:\\Users\\Jbarrett\\Charlie\\charlie\\stimuli\\visual\\pcet\\000.png'
S'C:\\Users\\Jbarrett\\Charlie\\charlie\\stimuli\\visual\\pcet\\100.png'
S'C:\\Users\\Jbarrett\\Charlie\\charlie\\stimuli\\visual\\pcet\\110.png'
S'C:\\Users\\Jbarrett\\Charlie\\charlie\\stimuli\\visual\\pcet\\101.png'
I0
I2130
tp90
a(g17
g18
g21
I44
g22
I2
I1
I3
I0
S'C:\\Users\\Jbarrett\\Charlie\\charlie\\stimuli\\visual\\pcet\\010.png'
S'C:\\Users\\Jbarrett\\Charlie\\charlie\\stimuli\\visual\\pcet\\011.png'
S'C:\\Users\\Jbarrett\\Charlie\\charlie\\stimuli\\visual\\pcet\\110.png'
S'C:\\Users\\Jbarrett\\Charlie\\charlie\\stimuli\\visual\\pcet\\000.png'
I2
I2710
tp91
a(g17
g18
g21
I45
g22
I3
I0
I2
I1
S'C:\\Users\\Jbarrett\\Charlie\\charlie\\stimuli\\visual\\pcet\\011.png'
S'C:\\Users\\Jbarrett\\Charlie\\charlie\\stimuli\\visual\\pcet\\010.png'
S'C:\\Users\\Jbarrett\\Charlie\\charlie\\stimuli\\visual\\pcet\\000.png'
S'C:\\Users\\Jbarrett\\Charlie\\charlie\\stimuli\\visual\\pcet\\110.png'
I3
I1920
tp92
a(g17
g18
g21
I46
g22
I1
I3
I2
I0
S'C:\\Users\\Jbarrett\\Charlie\\charlie\\stimuli\\visual\\pcet\\101.png'
S'C:\\Users\\Jbarrett\\Charlie\\charlie\\stimuli\\visual\\pcet\\001.png'
S'C:\\Users\\Jbarrett\\Charlie\\charlie\\stimuli\\visual\\pcet\\111.png'
S'C:\\Users\\Jbarrett\\Charlie\\charlie\\stimuli\\visual\\pcet\\100.png'
I1
I1160
tp93
a(g17
g18
g21
I47
g22
I1
I3
I2
I0
S'C:\\Users\\Jbarrett\\Charlie\\charlie\\stimuli\\visual\\pcet\\010.png'
S'C:\\Users\\Jbarrett\\Charlie\\charlie\\stimuli\\visual\\pcet\\110.png'
S'C:\\Users\\Jbarrett\\Charlie\\charlie\\stimuli\\visual\\pcet\\000.png'
S'C:\\Users\\Jbarrett\\Charlie\\charlie\\stimuli\\visual\\pcet\\011.png'
I1
I1340
tp94
a(g17
g18
g21
I48
S'shape'
p95
I3
I2
I1
I0
S'C:\\Users\\Jbarrett\\Charlie\\charlie\\stimuli\\visual\\pcet\\110.png'
S'C:\\Users\\Jbarrett\\Charlie\\charlie\\stimuli\\visual\\pcet\\111.png'
S'C:\\Users\\Jbarrett\\Charlie\\charlie\\stimuli\\visual\\pcet\\010.png'
S'C:\\Users\\Jbarrett\\Charlie\\charlie\\stimuli\\visual\\pcet\\100.png'
I2
I861
tp96
a(g17
g18
g21
I49
S'shape'
p97
I1
I0
I3
I2
S'C:\\Users\\Jbarrett\\Charlie\\charlie\\stimuli\\visual\\pcet\\101.png'
S'C:\\Users\\Jbarrett\\Charlie\\charlie\\stimuli\\visual\\pcet\\011.png'
S'C:\\Users\\Jbarrett\\Charlie\\charlie\\stimuli\\visual\\pcet\\001.png'
S'C:\\Users\\Jbarrett\\Charlie\\charlie\\stimuli\\visual\\pcet\\000.png'
I1
I3800
tp98
a(g17
g18
g21
I50
S'shape'
p99
I2
I0
I3
I1
S'C:\\Users\\Jbarrett\\Charlie\\charlie\\stimuli\\visual\\pcet\\101.png'
S'C:\\Users\\Jbarrett\\Charlie\\charlie\\stimuli\\visual\\pcet\\001.png'
S'C:\\Users\\Jbarrett\\Charlie\\charlie\\stimuli\\visual\\pcet\\011.png'
S'C:\\Users\\Jbarrett\\Charlie\\charlie\\stimuli\\visual\\pcet\\000.png'
I2
I2230
tp100
a(g17
g18
g21
I51
S'shape'
p101
I1
I3
I0
I2
S'C:\\Users\\Jbarrett\\Charlie\\charlie\\stimuli\\visual\\pcet\\111.png'
S'C:\\Users\\Jbarrett\\Charlie\\charlie\\stimuli\\visual\\pcet\\100.png'
S'C:\\Users\\Jbarrett\\Charlie\\charlie\\stimuli\\visual\\pcet\\110.png'
S'C:\\Users\\Jbarrett\\Charlie\\charlie\\stimuli\\visual\\pcet\\010.png'
I1
I2840
tp102
a(g17
g18
g21
I52
S'shape'
p103
I1
I3
I2
I0
S'C:\\Users\\Jbarrett\\Charlie\\charlie\\stimuli\\visual\\pcet\\100.png'
S'C:\\Users\\Jbarrett\\Charlie\\charlie\\stimuli\\visual\\pcet\\110.png'
S'C:\\Users\\Jbarrett\\Charlie\\charlie\\stimuli\\visual\\pcet\\101.png'
S'C:\\Users\\Jbarrett\\Charlie\\charlie\\stimuli\\visual\\pcet\\000.png'
I1
I1360
tp104
a(g17
g18
g21
I53
S'shape'
p105
I1
I2
I0
I3
S'C:\\Users\\Jbarrett\\Charlie\\charlie\\stimuli\\visual\\pcet\\001.png'
S'C:\\Users\\Jbarrett\\Charlie\\charlie\\stimuli\\visual\\pcet\\010.png'
S'C:\\Users\\Jbarrett\\Charlie\\charlie\\stimuli\\visual\\pcet\\100.png'
S'C:\\Users\\Jbarrett\\Charlie\\charlie\\stimuli\\visual\\pcet\\000.png'
I1
I1501
tp106
a(g17
g18
g21
I54
S'shape'
p107
I3
I0
I1
I2
S'C:\\Users\\Jbarrett\\Charlie\\charlie\\stimuli\\visual\\pcet\\010.png'
S'C:\\Users\\Jbarrett\\Charlie\\charlie\\stimuli\\visual\\pcet\\111.png'
S'C:\\Users\\Jbarrett\\Charlie\\charlie\\stimuli\\visual\\pcet\\110.png'
S'C:\\Users\\Jbarrett\\Charlie\\charlie\\stimuli\\visual\\pcet\\100.png'
I3
I1850
tp108
a(g17
g18
g21
I55
S'shape'
p109
I3
I0
I2
I1
S'C:\\Users\\Jbarrett\\Charlie\\charlie\\stimuli\\visual\\pcet\\001.png'
S'C:\\Users\\Jbarrett\\Charlie\\charlie\\stimuli\\visual\\pcet\\101.png'
S'C:\\Users\\Jbarrett\\Charlie\\charlie\\stimuli\\visual\\pcet\\100.png'
S'C:\\Users\\Jbarrett\\Charlie\\charlie\\stimuli\\visual\\pcet\\111.png'
I3
I1670
tp110
a(g17
g18
g21
I56
S'shape'
p111
I2
I1
I3
I0
S'C:\\Users\\Jbarrett\\Charlie\\charlie\\stimuli\\visual\\pcet\\001.png'
S'C:\\Users\\Jbarrett\\Charlie\\charlie\\stimuli\\visual\\pcet\\101.png'
S'C:\\Users\\Jbarrett\\Charlie\\charlie\\stimuli\\visual\\pcet\\011.png'
S'C:\\Users\\Jbarrett\\Charlie\\charlie\\stimuli\\visual\\pcet\\000.png'
I2
I910
tp112
a(g17
g18
g21
I57
S'shape'
p113
I0
I2
I1
I3
S'C:\\Users\\Jbarrett\\Charlie\\charlie\\stimuli\\visual\\pcet\\100.png'
S'C:\\Users\\Jbarrett\\Charlie\\charlie\\stimuli\\visual\\pcet\\111.png'
S'C:\\Users\\Jbarrett\\Charlie\\charlie\\stimuli\\visual\\pcet\\010.png'
S'C:\\Users\\Jbarrett\\Charlie\\charlie\\stimuli\\visual\\pcet\\110.png'
I0
I1330
tp114
a(g17
g18
g21
I58
S'shape'
p115
I2
I3
I1
I0
S'C:\\Users\\Jbarrett\\Charlie\\charlie\\stimuli\\visual\\pcet\\001.png'
S'C:\\Users\\Jbarrett\\Charlie\\charlie\\stimuli\\visual\\pcet\\000.png'
S'C:\\Users\\Jbarrett\\Charlie\\charlie\\stimuli\\visual\\pcet\\011.png'
S'C:\\Users\\Jbarrett\\Charlie\\charlie\\stimuli\\visual\\pcet\\101.png'
I2
I1310
tp116
a(g17
g18
g21
I59
S'shape'
p117
I0
I1
I2
I3
S'C:\\Users\\Jbarrett\\Charlie\\charlie\\stimuli\\visual\\pcet\\111.png'
S'C:\\Users\\Jbarrett\\Charlie\\charlie\\stimuli\\visual\\pcet\\001.png'
S'C:\\Users\\Jbarrett\\Charlie\\charlie\\stimuli\\visual\\pcet\\100.png'
S'C:\\Users\\Jbarrett\\Charlie\\charlie\\stimuli\\visual\\pcet\\101.png'
I0
I1580
tp118
a(g17
g18
g21
I60
S'size'
p119
I0
I2
I1
I3
S'C:\\Users\\Jbarrett\\Charlie\\charlie\\stimuli\\visual\\pcet\\101.png'
S'C:\\Users\\Jbarrett\\Charlie\\charlie\\stimuli\\visual\\pcet\\000.png'
S'C:\\Users\\Jbarrett\\Charlie\\charlie\\stimuli\\visual\\pcet\\110.png'
S'C:\\Users\\Jbarrett\\Charlie\\charlie\\stimuli\\visual\\pcet\\100.png'
I2
I970
tp120
a(g17
g18
g21
I61
S'size'
p121
I2
I3
I0
I1
S'C:\\Users\\Jbarrett\\Charlie\\charlie\\stimuli\\visual\\pcet\\100.png'
S'C:\\Users\\Jbarrett\\Charlie\\charlie\\stimuli\\visual\\pcet\\000.png'
S'C:\\Users\\Jbarrett\\Charlie\\charlie\\stimuli\\visual\\pcet\\001.png'
S'C:\\Users\\Jbarrett\\Charlie\\charlie\\stimuli\\visual\\pcet\\010.png'
I0
I2290
tp122
a(g17
g18
g21
I62
S'size'
p123
I2
I0
I1
I3
S'C:\\Users\\Jbarrett\\Charlie\\charlie\\stimuli\\visual\\pcet\\111.png'
S'C:\\Users\\Jbarrett\\Charlie\\charlie\\stimuli\\visual\\pcet\\001.png'
S'C:\\Users\\Jbarrett\\Charlie\\charlie\\stimuli\\visual\\pcet\\100.png'
S'C:\\Users\\Jbarrett\\Charlie\\charlie\\stimuli\\visual\\pcet\\101.png'
I0
I1680
tp124
a(g17
g18
g21
I63
S'size'
p125
I1
I0
I3
I2
S'C:\\Users\\Jbarrett\\Charlie\\charlie\\stimuli\\visual\\pcet\\010.png'
S'C:\\Users\\Jbarrett\\Charlie\\charlie\\stimuli\\visual\\pcet\\001.png'
S'C:\\Users\\Jbarrett\\Charlie\\charlie\\stimuli\\visual\\pcet\\000.png'
S'C:\\Users\\Jbarrett\\Charlie\\charlie\\stimuli\\visual\\pcet\\100.png'
I3
I4300
tp126
a(g17
g18
g21
I64
S'size'
p127
I0
I2
I3
I1
S'C:\\Users\\Jbarrett\\Charlie\\charlie\\stimuli\\visual\\pcet\\110.png'
S'C:\\Users\\Jbarrett\\Charlie\\charlie\\stimuli\\visual\\pcet\\111.png'
S'C:\\Users\\Jbarrett\\Charlie\\charlie\\stimuli\\visual\\pcet\\101.png'
S'C:\\Users\\Jbarrett\\Charlie\\charlie\\stimuli\\visual\\pcet\\011.png'
I2
I2760
tp128
a(g17
g18
g21
I65
S'size'
p129
I3
I1
I0
I2
S'C:\\Users\\Jbarrett\\Charlie\\charlie\\stimuli\\visual\\pcet\\100.png'
S'C:\\Users\\Jbarrett\\Charlie\\charlie\\stimuli\\visual\\pcet\\010.png'
S'C:\\Users\\Jbarrett\\Charlie\\charlie\\stimuli\\visual\\pcet\\000.png'
S'C:\\Users\\Jbarrett\\Charlie\\charlie\\stimuli\\visual\\pcet\\001.png'
I1
I3492
tp130
a(g17
g18
g21
I66
S'size'
p131
I3
I1
I2
I0
S'C:\\Users\\Jbarrett\\Charlie\\charlie\\stimuli\\visual\\pcet\\011.png'
S'C:\\Users\\Jbarrett\\Charlie\\charlie\\stimuli\\visual\\pcet\\001.png'
S'C:\\Users\\Jbarrett\\Charlie\\charlie\\stimuli\\visual\\pcet\\111.png'
S'C:\\Users\\Jbarrett\\Charlie\\charlie\\stimuli\\visual\\pcet\\010.png'
I1
I2330
tp132
a(g17
g18
g21
I67
S'size'
p133
I1
I2
I3
I0
S'C:\\Users\\Jbarrett\\Charlie\\charlie\\stimuli\\visual\\pcet\\011.png'
S'C:\\Users\\Jbarrett\\Charlie\\charlie\\stimuli\\visual\\pcet\\010.png'
S'C:\\Users\\Jbarrett\\Charlie\\charlie\\stimuli\\visual\\pcet\\001.png'
S'C:\\Users\\Jbarrett\\Charlie\\charlie\\stimuli\\visual\\pcet\\111.png'
I3
I870
tp134
a(g17
g18
g21
I68
S'size'
p135
I0
I2
I3
I1
S'C:\\Users\\Jbarrett\\Charlie\\charlie\\stimuli\\visual\\pcet\\100.png'
S'C:\\Users\\Jbarrett\\Charlie\\charlie\\stimuli\\visual\\pcet\\101.png'
S'C:\\Users\\Jbarrett\\Charlie\\charlie\\stimuli\\visual\\pcet\\111.png'
S'C:\\Users\\Jbarrett\\Charlie\\charlie\\stimuli\\visual\\pcet\\001.png'
I3
I510
tp136
a(g17
g18
g21
I69
S'size'
p137
I0
I1
I2
I3
S'C:\\Users\\Jbarrett\\Charlie\\charlie\\stimuli\\visual\\pcet\\100.png'
S'C:\\Users\\Jbarrett\\Charlie\\charlie\\stimuli\\visual\\pcet\\111.png'
S'C:\\Users\\Jbarrett\\Charlie\\charlie\\stimuli\\visual\\pcet\\001.png'
S'C:\\Users\\Jbarrett\\Charlie\\charlie\\stimuli\\visual\\pcet\\101.png'
I1
I3050
tp138
a(g17
g18
g21
I70
S'size'
p139
I1
I0
I3
I2
S'C:\\Users\\Jbarrett\\Charlie\\charlie\\stimuli\\visual\\pcet\\111.png'
S'C:\\Users\\Jbarrett\\Charlie\\charlie\\stimuli\\visual\\pcet\\100.png'
S'C:\\Users\\Jbarrett\\Charlie\\charlie\\stimuli\\visual\\pcet\\101.png'
S'C:\\Users\\Jbarrett\\Charlie\\charlie\\stimuli\\visual\\pcet\\001.png'
I3
I1090
tp140
a(g17
g18
g21
I71
S'size'
p141
I1
I2
I3
I0
S'C:\\Users\\Jbarrett\\Charlie\\charlie\\stimuli\\visual\\pcet\\010.png'
p142
S'C:\\Users\\Jbarrett\\Charlie\\charlie\\stimuli\\visual\\pcet\\011.png'
p143
S'C:\\Users\\Jbarrett\\Charlie\\charlie\\stimuli\\visual\\pcet\\000.png'
p144
S'C:\\Users\\Jbarrett\\Charlie\\charlie\\stimuli\\visual\\pcet\\110.png'
p145
I2
I1470
tp146
asS'output_format'
p147
(lp148
(S'proband_id'
p149
c__builtin__
str
p150
tp151
a(S'test_name'
p152
g150
tp153
a(S'phase'
p154
g150
tp155
a(S'trialn'
p156
c__builtin__
int
p157
tp158
a(S'rule'
p159
g150
tp160
a(S'ans'
p161
g150
tp162
a(S'pers'
p163
g150
tp164
a(S'other'
p165
g150
tp166
a(S'lapse'
p167
g150
tp168
a(S'f1'
p169
g150
tp170
a(S'f2'
p171
g150
tp172
a(S'f3'
p173
g150
tp174
a(S'f4'
p175
g150
tp176
a(S'rsp'
p177
g150
tp178
a(S'rt'
p179
g157
tp180
asg149
g17
sS'filename'
p181
S'K106_pcet.data'
p182
sS'initialised'
p183
g8
(S'\x07\xdf\x02\x14\n\x0b*\x00\xa7\xf8'
tRp184
sS'last_udated'
p185
g8
(S'\x07\xdf\x02\x14\n\x0b*\x00\xa7\xf8'
tRp186
sg152
S'pcet'
p187
sS'directory'
p188
S'C:\\Users\\Jbarrett\\Charlie\\charlie\\data\\raw'
p189
sS'user_id'
p190
S''
sS'test_started'
p191
I01
sS'abs_filename'
p192
S'C:\\Users\\Jbarrett\\Charlie\\charlie\\data\\raw\\K106_pcet.data'
p193
sS'date_started'
p194
g8
(S'\x07\xdf\x02\x14\n\x0b9\x02\xea\x18'
tRp195
sS'log'
p196
(lp197
(S'2015-02-20 10:11:42.043000'
S'instance created'
p198
tp199
a(S'2015-02-20 10:11:57.204000'
S'instance updated'
p200
tp201
a(S'2015-02-20 10:11:57.216000'
S'pandas DataFrame of data created'
p202
tp203
a(S'2015-02-20 10:11:57.219000'
S'data saved as csv to C:\\Users\\Jbarrett\\Charlie\\charlie\\data\\csv\\K106_pcet.csv'
tp204
a(S'2015-02-20 10:12:11.813000'
g200
tp205
a(S'2015-02-20 10:12:11.826000'
g202
tp206
a(S'2015-02-20 10:12:11.827000'
S'data saved as csv to C:\\Users\\Jbarrett\\Charlie\\charlie\\data\\csv\\K106_pcet.csv'
tp207
a(S'2015-02-20 10:12:14.924000'
g200
tp208
a(S'2015-02-20 10:12:14.938000'
g202
tp209
a(S'2015-02-20 10:12:14.942000'
S'data saved as csv to C:\\Users\\Jbarrett\\Charlie\\charlie\\data\\csv\\K106_pcet.csv'
tp210
a(S'2015-02-20 10:12:16.990000'
g200
tp211
a(S'2015-02-20 10:12:17.004000'
g202
tp212
a(S'2015-02-20 10:12:17.008000'
S'data saved as csv to C:\\Users\\Jbarrett\\Charlie\\charlie\\data\\csv\\K106_pcet.csv'
tp213
a(S'2015-02-20 10:12:19.655000'
g200
tp214
a(S'2015-02-20 10:12:19.668000'
g202
tp215
a(S'2015-02-20 10:12:19.672000'
S'data saved as csv to C:\\Users\\Jbarrett\\Charlie\\charlie\\data\\csv\\K106_pcet.csv'
tp216
a(S'2015-02-20 10:12:22.043000'
g200
tp217
a(S'2015-02-20 10:12:22.056000'
g202
tp218
a(S'2015-02-20 10:12:22.057000'
S'data saved as csv to C:\\Users\\Jbarrett\\Charlie\\charlie\\data\\csv\\K106_pcet.csv'
tp219
a(S'2015-02-20 10:12:24.140000'
g200
tp220
a(S'2015-02-20 10:12:24.153000'
g202
tp221
a(S'2015-02-20 10:12:24.156000'
S'data saved as csv to C:\\Users\\Jbarrett\\Charlie\\charlie\\data\\csv\\K106_pcet.csv'
tp222
a(S'2015-02-20 10:12:26.557000'
g200
tp223
a(S'2015-02-20 10:12:26.572000'
g202
tp224
a(S'2015-02-20 10:12:26.576000'
S'data saved as csv to C:\\Users\\Jbarrett\\Charlie\\charlie\\data\\csv\\K106_pcet.csv'
tp225
a(S'2015-02-20 10:12:28.899000'
g200
tp226
a(S'2015-02-20 10:12:28.913000'
g202
tp227
a(S'2015-02-20 10:12:28.917000'
S'data saved as csv to C:\\Users\\Jbarrett\\Charlie\\charlie\\data\\csv\\K106_pcet.csv'
tp228
a(S'2015-02-20 10:12:31.088000'
g200
tp229
a(S'2015-02-20 10:12:31.102000'
g202
tp230
a(S'2015-02-20 10:12:31.106000'
S'data saved as csv to C:\\Users\\Jbarrett\\Charlie\\charlie\\data\\csv\\K106_pcet.csv'
tp231
a(S'2015-02-20 10:12:33.343000'
g200
tp232
a(S'2015-02-20 10:12:33.358000'
g202
tp233
a(S'2015-02-20 10:12:33.362000'
S'data saved as csv to C:\\Users\\Jbarrett\\Charlie\\charlie\\data\\csv\\K106_pcet.csv'
tp234
a(S'2015-02-20 10:12:35.586000'
g200
tp235
a(S'2015-02-20 10:12:35.600000'
g202
tp236
a(S'2015-02-20 10:12:35.604000'
S'data saved as csv to C:\\Users\\Jbarrett\\Charlie\\charlie\\data\\csv\\K106_pcet.csv'
tp237
a(S'2015-02-20 10:12:37.491000'
g200
tp238
a(S'2015-02-20 10:12:37.505000'
g202
tp239
a(S'2015-02-20 10:12:37.507000'
S'data saved as csv to C:\\Users\\Jbarrett\\Charlie\\charlie\\data\\csv\\K106_pcet.csv'
tp240
a(S'2015-02-20 10:12:39.601000'
g200
tp241
a(S'2015-02-20 10:12:39.617000'
g202
tp242
a(S'2015-02-20 10:12:39.621000'
S'data saved as csv to C:\\Users\\Jbarrett\\Charlie\\charlie\\data\\csv\\K106_pcet.csv'
tp243
a(S'2015-02-20 10:12:42.941000'
g200
tp244
a(S'2015-02-20 10:12:42.955000'
g202
tp245
a(S'2015-02-20 10:12:42.959000'
S'data saved as csv to C:\\Users\\Jbarrett\\Charlie\\charlie\\data\\csv\\K106_pcet.csv'
tp246
a(S'2015-02-20 10:12:50.466000'
g200
tp247
a(S'2015-02-20 10:12:50.480000'
g202
tp248
a(S'2015-02-20 10:12:50.484000'
S'data saved as csv to C:\\Users\\Jbarrett\\Charlie\\charlie\\data\\csv\\K106_pcet.csv'
tp249
a(S'2015-02-20 10:12:53.764000'
g200
tp250
a(S'2015-02-20 10:12:53.779000'
g202
tp251
a(S'2015-02-20 10:12:53.783000'
S'data saved as csv to C:\\Users\\Jbarrett\\Charlie\\charlie\\data\\csv\\K106_pcet.csv'
tp252
a(S'2015-02-20 10:12:59.065000'
g200
tp253
a(S'2015-02-20 10:12:59.078000'
g202
tp254
a(S'2015-02-20 10:12:59.081000'
S'data saved as csv to C:\\Users\\Jbarrett\\Charlie\\charlie\\data\\csv\\K106_pcet.csv'
tp255
a(S'2015-02-20 10:13:02.809000'
g200
tp256
a(S'2015-02-20 10:13:02.824000'
g202
tp257
a(S'2015-02-20 10:13:02.828000'
S'data saved as csv to C:\\Users\\Jbarrett\\Charlie\\charlie\\data\\csv\\K106_pcet.csv'
tp258
a(S'2015-02-20 10:13:05.332000'
g200
tp259
a(S'2015-02-20 10:13:05.347000'
g202
tp260
a(S'2015-02-20 10:13:05.350000'
S'data saved as csv to C:\\Users\\Jbarrett\\Charlie\\charlie\\data\\csv\\K106_pcet.csv'
tp261
a(S'2015-02-20 10:13:09.024000'
g200
tp262
a(S'2015-02-20 10:13:09.038000'
g202
tp263
a(S'2015-02-20 10:13:09.040000'
S'data saved as csv to C:\\Users\\Jbarrett\\Charlie\\charlie\\data\\csv\\K106_pcet.csv'
tp264
a(S'2015-02-20 10:13:11.622000'
g200
tp265
a(S'2015-02-20 10:13:11.637000'
g202
tp266
a(S'2015-02-20 10:13:11.641000'
S'data saved as csv to C:\\Users\\Jbarrett\\Charlie\\charlie\\data\\csv\\K106_pcet.csv'
tp267
a(S'2015-02-20 10:13:14.002000'
g200
tp268
a(S'2015-02-20 10:13:14.017000'
g202
tp269
a(S'2015-02-20 10:13:14.019000'
S'data saved as csv to C:\\Users\\Jbarrett\\Charlie\\charlie\\data\\csv\\K106_pcet.csv'
tp270
a(S'2015-02-20 10:13:16.838000'
g200
tp271
a(S'2015-02-20 10:13:16.853000'
g202
tp272
a(S'2015-02-20 10:13:16.857000'
S'data saved as csv to C:\\Users\\Jbarrett\\Charlie\\charlie\\data\\csv\\K106_pcet.csv'
tp273
a(S'2015-02-20 10:13:20.973000'
g200
tp274
a(S'2015-02-20 10:13:20.989000'
g202
tp275
a(S'2015-02-20 10:13:20.993000'
S'data saved as csv to C:\\Users\\Jbarrett\\Charlie\\charlie\\data\\csv\\K106_pcet.csv'
tp276
a(S'2015-02-20 10:13:23.084000'
g200
tp277
a(S'2015-02-20 10:13:23.100000'
g202
tp278
a(S'2015-02-20 10:13:23.104000'
S'data saved as csv to C:\\Users\\Jbarrett\\Charlie\\charlie\\data\\csv\\K106_pcet.csv'
tp279
a(S'2015-02-20 10:13:25.588000'
g200
tp280
a(S'2015-02-20 10:13:25.603000'
g202
tp281
a(S'2015-02-20 10:13:25.608000'
S'data saved as csv to C:\\Users\\Jbarrett\\Charlie\\charlie\\data\\csv\\K106_pcet.csv'
tp282
a(S'2015-02-20 10:13:28.947000'
g200
tp283
a(S'2015-02-20 10:13:28.960000'
g202
tp284
a(S'2015-02-20 10:13:28.962000'
S'data saved as csv to C:\\Users\\Jbarrett\\Charlie\\charlie\\data\\csv\\K106_pcet.csv'
tp285
a(S'2015-02-20 10:13:31.916000'
g200
tp286
a(S'2015-02-20 10:13:31.929000'
g202
tp287
a(S'2015-02-20 10:13:31.931000'
S'data saved as csv to C:\\Users\\Jbarrett\\Charlie\\charlie\\data\\csv\\K106_pcet.csv'
tp288
a(S'2015-02-20 10:13:36.578000'
g200
tp289
a(S'2015-02-20 10:13:36.593000'
g202
tp290
a(S'2015-02-20 10:13:36.597000'
S'data saved as csv to C:\\Users\\Jbarrett\\Charlie\\charlie\\data\\csv\\K106_pcet.csv'
tp291
a(S'2015-02-20 10:13:40.585000'
g200
tp292
a(S'2015-02-20 10:13:40.600000'
g202
tp293
a(S'2015-02-20 10:13:40.602000'
S'data saved as csv to C:\\Users\\Jbarrett\\Charlie\\charlie\\data\\csv\\K106_pcet.csv'
tp294
a(S'2015-02-20 10:13:45.607000'
g200
tp295
a(S'2015-02-20 10:13:45.622000'
g202
tp296
a(S'2015-02-20 10:13:45.626000'
S'data saved as csv to C:\\Users\\Jbarrett\\Charlie\\charlie\\data\\csv\\K106_pcet.csv'
tp297
a(S'2015-02-20 10:13:48.167000'
g200
tp298
a(S'2015-02-20 10:13:48.181000'
g202
tp299
a(S'2015-02-20 10:13:48.186000'
S'data saved as csv to C:\\Users\\Jbarrett\\Charlie\\charlie\\data\\csv\\K106_pcet.csv'
tp300
a(S'2015-02-20 10:13:51.756000'
g200
tp301
a(S'2015-02-20 10:13:51.772000'
g202
tp302
a(S'2015-02-20 10:13:51.778000'
S'data saved as csv to C:\\Users\\Jbarrett\\Charlie\\charlie\\data\\csv\\K106_pcet.csv'
tp303
a(S'2015-02-20 10:13:55.297000'
g200
tp304
a(S'2015-02-20 10:13:55.312000'
g202
tp305
a(S'2015-02-20 10:13:55.317000'
S'data saved as csv to C:\\Users\\Jbarrett\\Charlie\\charlie\\data\\csv\\K106_pcet.csv'
tp306
a(S'2015-02-20 10:13:59.156000'
g200
tp307
a(S'2015-02-20 10:13:59.170000'
g202
tp308
a(S'2015-02-20 10:13:59.173000'
S'data saved as csv to C:\\Users\\Jbarrett\\Charlie\\charlie\\data\\csv\\K106_pcet.csv'
tp309
a(S'2015-02-20 10:14:01.386000'
g200
tp310
a(S'2015-02-20 10:14:01.401000'
g202
tp311
a(S'2015-02-20 10:14:01.406000'
S'data saved as csv to C:\\Users\\Jbarrett\\Charlie\\charlie\\data\\csv\\K106_pcet.csv'
tp312
a(S'2015-02-20 10:14:03.968000'
g200
tp313
a(S'2015-02-20 10:14:03.983000'
g202
tp314
a(S'2015-02-20 10:14:03.988000'
S'data saved as csv to C:\\Users\\Jbarrett\\Charlie\\charlie\\data\\csv\\K106_pcet.csv'
tp315
a(S'2015-02-20 10:14:08.387000'
g200
tp316
a(S'2015-02-20 10:14:08.402000'
g202
tp317
a(S'2015-02-20 10:14:08.407000'
S'data saved as csv to C:\\Users\\Jbarrett\\Charlie\\charlie\\data\\csv\\K106_pcet.csv'
tp318
a(S'2015-02-20 10:14:10.451000'
g200
tp319
a(S'2015-02-20 10:14:10.466000'
g202
tp320
a(S'2015-02-20 10:14:10.471000'
S'data saved as csv to C:\\Users\\Jbarrett\\Charlie\\charlie\\data\\csv\\K106_pcet.csv'
tp321
a(S'2015-02-20 10:14:12.412000'
g200
tp322
a(S'2015-02-20 10:14:12.427000'
g202
tp323
a(S'2015-02-20 10:14:12.431000'
S'data saved as csv to C:\\Users\\Jbarrett\\Charlie\\charlie\\data\\csv\\K106_pcet.csv'
tp324
a(S'2015-02-20 10:14:15.113000'
g200
tp325
a(S'2015-02-20 10:14:15.127000'
g202
tp326
a(S'2015-02-20 10:14:15.136000'
S'data saved as csv to C:\\Users\\Jbarrett\\Charlie\\charlie\\data\\csv\\K106_pcet.csv'
tp327
a(S'2015-02-20 10:14:17.503000'
g200
tp328
a(S'2015-02-20 10:14:17.518000'
g202
tp329
a(S'2015-02-20 10:14:17.523000'
S'data saved as csv to C:\\Users\\Jbarrett\\Charlie\\charlie\\data\\csv\\K106_pcet.csv'
tp330
a(S'2015-02-20 10:14:19.841000'
g200
tp331
a(S'2015-02-20 10:14:19.856000'
g202
tp332
a(S'2015-02-20 10:14:19.861000'
S'data saved as csv to C:\\Users\\Jbarrett\\Charlie\\charlie\\data\\csv\\K106_pcet.csv'
tp333
a(S'2015-02-20 10:14:23.039000'
g200
tp334
a(S'2015-02-20 10:14:23.051000'
g202
tp335
a(S'2015-02-20 10:14:23.054000'
S'data saved as csv to C:\\Users\\Jbarrett\\Charlie\\charlie\\data\\csv\\K106_pcet.csv'
tp336
a(S'2015-02-20 10:14:26.809000'
g200
tp337
a(S'2015-02-20 10:14:26.823000'
g202
tp338
a(S'2015-02-20 10:14:26.828000'
S'data saved as csv to C:\\Users\\Jbarrett\\Charlie\\charlie\\data\\csv\\K106_pcet.csv'
tp339
a(S'2015-02-20 10:14:29.793000'
g200
tp340
a(S'2015-02-20 10:14:29.805000'
g202
tp341
a(S'2015-02-20 10:14:29.808000'
S'data saved as csv to C:\\Users\\Jbarrett\\Charlie\\charlie\\data\\csv\\K106_pcet.csv'
tp342
a(S'2015-02-20 10:14:32.021000'
g200
tp343
a(S'2015-02-20 10:14:32.038000'
g202
tp344
a(S'2015-02-20 10:14:32.043000'
S'data saved as csv to C:\\Users\\Jbarrett\\Charlie\\charlie\\data\\csv\\K106_pcet.csv'
tp345
a(S'2015-02-20 10:14:34.431000'
g200
tp346
a(S'2015-02-20 10:14:34.445000'
g202
tp347
a(S'2015-02-20 10:14:34.451000'
S'data saved as csv to C:\\Users\\Jbarrett\\Charlie\\charlie\\data\\csv\\K106_pcet.csv'
tp348
a(S'2015-02-20 10:14:36.356000'
g200
tp349
a(S'2015-02-20 10:14:36.371000'
g202
tp350
a(S'2015-02-20 10:14:36.373000'
S'data saved as csv to C:\\Users\\Jbarrett\\Charlie\\charlie\\data\\csv\\K106_pcet.csv'
tp351
a(S'2015-02-20 10:14:41.225000'
g200
tp352
a(S'2015-02-20 10:14:41.236000'
g202
tp353
a(S'2015-02-20 10:14:41.239000'
S'data saved as csv to C:\\Users\\Jbarrett\\Charlie\\charlie\\data\\csv\\K106_pcet.csv'
tp354
a(S'2015-02-20 10:14:44.521000'
g200
tp355
a(S'2015-02-20 10:14:44.536000'
g202
tp356
a(S'2015-02-20 10:14:44.541000'
S'data saved as csv to C:\\Users\\Jbarrett\\Charlie\\charlie\\data\\csv\\K106_pcet.csv'
tp357
a(S'2015-02-20 10:14:48.438000'
g200
tp358
a(S'2015-02-20 10:14:48.453000'
g202
tp359
a(S'2015-02-20 10:14:48.458000'
S'data saved as csv to C:\\Users\\Jbarrett\\Charlie\\charlie\\data\\csv\\K106_pcet.csv'
tp360
a(S'2015-02-20 10:14:50.864000'
g200
tp361
a(S'2015-02-20 10:14:50.880000'
g202
tp362
a(S'2015-02-20 10:14:50.886000'
S'data saved as csv to C:\\Users\\Jbarrett\\Charlie\\charlie\\data\\csv\\K106_pcet.csv'
tp363
a(S'2015-02-20 10:14:53.429000'
g200
tp364
a(S'2015-02-20 10:14:53.443000'
g202
tp365
a(S'2015-02-20 10:14:53.446000'
S'data saved as csv to C:\\Users\\Jbarrett\\Charlie\\charlie\\data\\csv\\K106_pcet.csv'
tp366
a(S'2015-02-20 10:14:56.345000'
g200
tp367
a(S'2015-02-20 10:14:56.359000'
g202
tp368
a(S'2015-02-20 10:14:56.365000'
S'data saved as csv to C:\\Users\\Jbarrett\\Charlie\\charlie\\data\\csv\\K106_pcet.csv'
tp369
a(S'2015-02-20 10:14:59.096000'
g200
tp370
a(S'2015-02-20 10:14:59.111000'
g202
tp371
a(S'2015-02-20 10:14:59.113000'
S'data saved as csv to C:\\Users\\Jbarrett\\Charlie\\charlie\\data\\csv\\K106_pcet.csv'
tp372
a(S'2015-02-20 10:15:01.073000'
g200
tp373
a(S'2015-02-20 10:15:01.088000'
g202
tp374
a(S'2015-02-20 10:15:01.093000'
S'data saved as csv to C:\\Users\\Jbarrett\\Charlie\\charlie\\data\\csv\\K106_pcet.csv'
tp375
a(S'2015-02-20 10:15:03.472000'
g200
tp376
a(S'2015-02-20 10:15:03.487000'
g202
tp377
a(S'2015-02-20 10:15:03.492000'
S'data saved as csv to C:\\Users\\Jbarrett\\Charlie\\charlie\\data\\csv\\K106_pcet.csv'
tp378
a(S'2015-02-20 10:15:05.852000'
g200
tp379
a(S'2015-02-20 10:15:05.867000'
g202
tp380
a(S'2015-02-20 10:15:05.873000'
S'data saved as csv to C:\\Users\\Jbarrett\\Charlie\\charlie\\data\\csv\\K106_pcet.csv'
tp381
a(S'2015-02-20 10:15:08.514000'
g200
tp382
a(S'2015-02-20 10:15:08.530000'
g202
tp383
a(S'2015-02-20 10:15:08.534000'
S'data saved as csv to C:\\Users\\Jbarrett\\Charlie\\charlie\\data\\csv\\K106_pcet.csv'
tp384
a(S'2015-02-20 10:15:10.550000'
g200
tp385
a(S'2015-02-20 10:15:10.565000'
g202
tp386
a(S'2015-02-20 10:15:10.570000'
S'data saved as csv to C:\\Users\\Jbarrett\\Charlie\\charlie\\data\\csv\\K106_pcet.csv'
tp387
a(S'2015-02-20 10:15:13.903000'
g200
tp388
a(S'2015-02-20 10:15:13.918000'
g202
tp389
a(S'2015-02-20 10:15:13.924000'
S'data saved as csv to C:\\Users\\Jbarrett\\Charlie\\charlie\\data\\csv\\K106_pcet.csv'
tp390
a(S'2015-02-20 10:15:16.661000'
g200
tp391
a(S'2015-02-20 10:15:16.670000'
g202
tp392
a(S'2015-02-20 10:15:16.673000'
S'data saved as csv to C:\\Users\\Jbarrett\\Charlie\\charlie\\data\\csv\\K106_pcet.csv'
tp393
a(S'2015-02-20 10:15:22.017000'
g200
tp394
a(S'2015-02-20 10:15:22.032000'
g202
tp395
a(S'2015-02-20 10:15:22.036000'
S'data saved as csv to C:\\Users\\Jbarrett\\Charlie\\charlie\\data\\csv\\K106_pcet.csv'
tp396
a(S'2015-02-20 10:15:25.854000'
g200
tp397
a(S'2015-02-20 10:15:25.869000'
g202
tp398
a(S'2015-02-20 10:15:25.873000'
S'data saved as csv to C:\\Users\\Jbarrett\\Charlie\\charlie\\data\\csv\\K106_pcet.csv'
tp399
a(S'2015-02-20 10:15:30.399000'
g200
tp400
a(S'2015-02-20 10:15:30.410000'
g202
tp401
a(S'2015-02-20 10:15:30.414000'
S'data saved as csv to C:\\Users\\Jbarrett\\Charlie\\charlie\\data\\csv\\K106_pcet.csv'
tp402
a(S'2015-02-20 10:15:33.802000'
g200
tp403
a(S'2015-02-20 10:15:33.818000'
g202
tp404
a(S'2015-02-20 10:15:33.823000'
S'data saved as csv to C:\\Users\\Jbarrett\\Charlie\\charlie\\data\\csv\\K106_pcet.csv'
tp405
a(S'2015-02-20 10:15:35.747000'
g200
tp406
a(S'2015-02-20 10:15:35.763000'
g202
tp407
a(S'2015-02-20 10:15:35.769000'
S'data saved as csv to C:\\Users\\Jbarrett\\Charlie\\charlie\\data\\csv\\K106_pcet.csv'
tp408
a(S'2015-02-20 10:15:39.047000'
g200
tp409
a(S'2015-02-20 10:15:39.063000'
g202
tp410
a(S'2015-02-20 10:15:39.069000'
S'data saved as csv to C:\\Users\\Jbarrett\\Charlie\\charlie\\data\\csv\\K106_pcet.csv'
tp411
a(S'2015-02-20 10:15:43.173000'
g200
tp412
a(S'2015-02-20 10:15:43.186000'
g202
tp413
a(S'2015-02-20 10:15:43.189000'
S'data saved as csv to C:\\Users\\Jbarrett\\Charlie\\charlie\\data\\csv\\K106_pcet.csv'
tp414
a(S'2015-02-20 10:15:45.332000'
g200
tp415
a(S'2015-02-20 10:15:45.346000'
g202
tp416
a(S'2015-02-20 10:15:45.349000'
S'data saved as csv to C:\\Users\\Jbarrett\\Charlie\\charlie\\data\\csv\\K106_pcet.csv'
tp417
a(S'2015-02-20 10:15:47.865000'
g200
tp418
a(S'2015-02-20 10:15:47.880000'
g202
tp419
a(S'2015-02-20 10:15:47.886000'
S'data saved as csv to C:\\Users\\Jbarrett\\Charlie\\charlie\\data\\csv\\K106_pcet.csv'
tp420
asb.