(icharlie.tools.data
Data
p1
(dp2
S'lang'
p3
S'EN'
p4
sS'control'
p5
(lp6
sS'last_updated'
p7
cdatetime
datetime
p8
(S'\x07\xdf\x02\x14\n\x17\x0f\x0b\xb00'
tRp9
sS'last_opened'
p10
g8
(S'\x07\xdf\x02\x14\n\x0f0\x06\x16\x98'
tRp11
sS'proj_id'
p12
S''
sS'date_done'
p13
NsS'test_done'
p14
I01
sS'data'
p15
(lp16
(S'K106'
p17
S'updating'
p18
S'prac'
p19
I0
I0
I4
I4
S'------------'
p20
S'4,4,4,4,4,4,4,4,4,4,4,4,4'
p21
I4
I1330
tp22
a(g17
g18
S'prac'
p23
I1
I1
I8
I12
S'-----------d'
p24
S'8,8,8,8,8,8,8,8,8,8,8,8,12'
p25
I12
I580
tp26
a(g17
g18
S'prac'
p27
I2
I2
I9
I6
S'-----u-----r'
p28
S'9,9,9,9,9,9,5,5,5,5,5,5,6'
p29
I6
I1930
tp30
a(g17
g18
S'test'
p31
I0
I0
I13
I13
S'------------'
p32
S'13,13,13,13,13,13,13,13,13,13,13,13,13'
p33
I13
I1380
tp34
a(g17
g18
S'test'
p35
I1
I0
I15
I15
S'------------'
p36
S'15,15,15,15,15,15,15,15,15,15,15,15,15'
p37
I15
I1290
tp38
a(g17
g18
S'test'
p39
I2
I0
I13
I13
S'------------'
p40
S'13,13,13,13,13,13,13,13,13,13,13,13,13'
p41
I13
I1950
tp42
a(g17
g18
S'test'
p43
I3
I1
I3
I2
S'-----------l'
p44
S'3,3,3,3,3,3,3,3,3,3,3,3,2'
p45
I2
I1350
tp46
a(g17
g18
S'test'
p47
I4
I1
I1
I2
S'-----------r'
p48
S'1,1,1,1,1,1,1,1,1,1,1,1,2'
p49
I2
I1680
tp50
a(g17
g18
S'test'
p51
I5
I1
I0
I4
S'-----------d'
p52
S'0,0,0,0,0,0,0,0,0,0,0,0,4'
p53
I4
I1430
tp54
a(g17
g18
S'test'
p55
I6
I2
I5
I2
S'-----u-----r'
p56
S'5,5,5,5,5,5,1,1,1,1,1,1,2'
p57
I2
I1150
tp58
a(g17
g18
S'test'
p59
I7
I2
I13
I8
S'-----l-----u'
p60
S'13,13,13,13,13,13,12,12,12,12,12,12,8'
p61
I8
I970
tp62
a(g17
g18
S'test'
p63
I8
I2
I7
I2
S'-----l-----u'
p64
S'7,7,7,7,7,7,6,6,6,6,6,6,2'
p65
I2
I1030
tp66
a(g17
g18
S'test'
p67
I9
I3
I6
I15
S'---d---d---r'
p68
S'6,6,6,6,10,10,10,10,14,14,14,14,15'
p69
I11
I2120
tp70
a(g17
g18
S'test'
p71
I10
I3
I15
I11
S'---l---r---u'
p72
S'15,15,15,15,14,14,14,14,15,15,15,15,11'
p73
I11
I810
tp74
a(g17
g18
S'test'
p75
I11
I3
I10
I6
S'---l---r---u'
p76
S'10,10,10,10,9,9,9,9,10,10,10,10,6'
p77
I10
I2951
tp78
a(g17
g18
S'test'
p79
I12
I4
I13
I15
S'--u--d--r--r'
p80
S'13,13,13,9,9,9,13,13,13,14,14,14,15'
p81
I11
I2010
tp82
a(g17
g18
S'test'
p83
I13
I4
I3
I6
S'--d--u--d--l'
p84
S'3,3,3,7,7,7,3,3,3,7,7,7,6'
p85
I6
I1910
tp86
a(g17
g18
S'test'
p87
I14
I4
I0
I5
S'--d--u--d--r'
p88
S'0,0,0,4,4,4,0,0,0,4,4,4,5'
p89
I6
I1350
tp90
a(g17
g18
S'test'
p91
I15
I6
I14
I11
S'-r-u-d-u-u-d'
p92
S'14,14,15,15,11,11,15,15,11,11,7,7,11'
p93
I7
I1690
tp94
a(g17
g18
S'test'
p95
I16
I6
I0
I10
S'-d-d-d-r-r-u'
p96
S'0,0,4,4,8,8,12,12,13,13,14,14,10'
p97
I1
I1790
tp98
a(g17
g18
S'test'
p99
I17
I6
I1
I9
S'-d-d-d-r-u-l'
p100
S'1,1,5,5,9,9,13,13,14,14,10,10,9'
p101
I10
I2110
tp102
asS'output_format'
p103
(lp104
(S'proband_id'
p105
c__builtin__
str
p106
tp107
a(S'test_name'
p108
g106
tp109
a(S'phase'
p110
g106
tp111
a(S'trialn'
p112
c__builtin__
int
p113
tp114
a(S'updates'
p115
g113
tp116
a(S'origin'
p117
g113
tp118
a(S'endpoint'
p119
g113
tp120
a(S'moves'
p121
g106
tp122
a(S'marginalpositions'
p123
g106
tp124
a(S'rsp'
p125
g113
tp126
a(S'rt'
p127
g113
tp128
asg105
g17
sS'filename'
p129
S'K106_updating.data'
p130
sS'initialised'
p131
g8
(S'\x07\xdf\x02\x14\n\x0f0\x06\x16\x98'
tRp132
sS'last_udated'
p133
g8
(S'\x07\xdf\x02\x14\n\x0f0\x06\x16\x98'
tRp134
sg108
S'updating'
p135
sS'directory'
p136
S'C:\\Users\\Jbarrett\\Charlie\\charlie\\data\\raw'
p137
sS'user_id'
p138
S''
sS'test_started'
p139
I01
sS'abs_filename'
p140
S'C:\\Users\\Jbarrett\\Charlie\\charlie\\data\\raw\\K106_updating.data'
p141
sS'date_started'
p142
g8
(S'\x07\xdf\x02\x14\n\x10,\x0c\xc1\xa0'
tRp143
sS'log'
p144
(lp145
(S'2015-02-20 10:15:48.399000'
S'instance created'
p146
tp147
a(S'2015-02-20 10:16:44.845000'
S'instance updated'
p148
tp149
a(S'2015-02-20 10:16:44.859000'
S'pandas DataFrame of data created'
p150
tp151
a(S'2015-02-20 10:16:44.863000'
S'data saved as csv to C:\\Users\\Jbarrett\\Charlie\\charlie\\data\\csv\\K106_updating.csv'
tp152
a(S'2015-02-20 10:16:44.871000'
g150
tp153
a(S'2015-02-20 10:17:03.700000'
g148
tp154
a(S'2015-02-20 10:17:03.713000'
g150
tp155
a(S'2015-02-20 10:17:03.717000'
S'data saved as csv to C:\\Users\\Jbarrett\\Charlie\\charlie\\data\\csv\\K106_updating.csv'
tp156
a(S'2015-02-20 10:17:03.731000'
g150
tp157
a(S'2015-02-20 10:17:23.908000'
g148
tp158
a(S'2015-02-20 10:17:23.920000'
g150
tp159
a(S'2015-02-20 10:17:23.924000'
S'data saved as csv to C:\\Users\\Jbarrett\\Charlie\\charlie\\data\\csv\\K106_updating.csv'
tp160
a(S'2015-02-20 10:17:23.933000'
g150
tp161
a(S'2015-02-20 10:17:50.302000'
g148
tp162
a(S'2015-02-20 10:17:50.315000'
g150
tp163
a(S'2015-02-20 10:17:50.319000'
S'data saved as csv to C:\\Users\\Jbarrett\\Charlie\\charlie\\data\\csv\\K106_updating.csv'
tp164
a(S'2015-02-20 10:17:50.332000'
g150
tp165
a(S'2015-02-20 10:18:09.117000'
g148
tp166
a(S'2015-02-20 10:18:09.129000'
g150
tp167
a(S'2015-02-20 10:18:09.133000'
S'data saved as csv to C:\\Users\\Jbarrett\\Charlie\\charlie\\data\\csv\\K106_updating.csv'
tp168
a(S'2015-02-20 10:18:09.143000'
g150
tp169
a(S'2015-02-20 10:18:28.584000'
g148
tp170
a(S'2015-02-20 10:18:28.598000'
g150
tp171
a(S'2015-02-20 10:18:28.602000'
S'data saved as csv to C:\\Users\\Jbarrett\\Charlie\\charlie\\data\\csv\\K106_updating.csv'
tp172
a(S'2015-02-20 10:18:28.612000'
g150
tp173
a(S'2015-02-20 10:18:47.450000'
g148
tp174
a(S'2015-02-20 10:18:47.462000'
g150
tp175
a(S'2015-02-20 10:18:47.467000'
S'data saved as csv to C:\\Users\\Jbarrett\\Charlie\\charlie\\data\\csv\\K106_updating.csv'
tp176
a(S'2015-02-20 10:18:47.479000'
g150
tp177
a(S'2015-02-20 10:19:06.643000'
g148
tp178
a(S'2015-02-20 10:19:06.656000'
g150
tp179
a(S'2015-02-20 10:19:06.660000'
S'data saved as csv to C:\\Users\\Jbarrett\\Charlie\\charlie\\data\\csv\\K106_updating.csv'
tp180
a(S'2015-02-20 10:19:06.673000'
g150
tp181
a(S'2015-02-20 10:19:25.589000'
g148
tp182
a(S'2015-02-20 10:19:25.601000'
g150
tp183
a(S'2015-02-20 10:19:25.605000'
S'data saved as csv to C:\\Users\\Jbarrett\\Charlie\\charlie\\data\\csv\\K106_updating.csv'
tp184
a(S'2015-02-20 10:19:25.619000'
g150
tp185
a(S'2015-02-20 10:19:44.264000'
g148
tp186
a(S'2015-02-20 10:19:44.277000'
g150
tp187
a(S'2015-02-20 10:19:44.281000'
S'data saved as csv to C:\\Users\\Jbarrett\\Charlie\\charlie\\data\\csv\\K106_updating.csv'
tp188
a(S'2015-02-20 10:19:44.295000'
g150
tp189
a(S'2015-02-20 10:20:02.759000'
g148
tp190
a(S'2015-02-20 10:20:02.772000'
g150
tp191
a(S'2015-02-20 10:20:02.776000'
S'data saved as csv to C:\\Users\\Jbarrett\\Charlie\\charlie\\data\\csv\\K106_updating.csv'
tp192
a(S'2015-02-20 10:20:02.789000'
g150
tp193
a(S'2015-02-20 10:20:21.309000'
g148
tp194
a(S'2015-02-20 10:20:21.322000'
g150
tp195
a(S'2015-02-20 10:20:21.327000'
S'data saved as csv to C:\\Users\\Jbarrett\\Charlie\\charlie\\data\\csv\\K106_updating.csv'
tp196
a(S'2015-02-20 10:20:21.336000'
g150
tp197
a(S'2015-02-20 10:20:40.947000'
g148
tp198
a(S'2015-02-20 10:20:40.960000'
g150
tp199
a(S'2015-02-20 10:20:40.964000'
S'data saved as csv to C:\\Users\\Jbarrett\\Charlie\\charlie\\data\\csv\\K106_updating.csv'
tp200
a(S'2015-02-20 10:20:40.977000'
g150
tp201
a(S'2015-02-20 10:20:59.275000'
g148
tp202
a(S'2015-02-20 10:20:59.287000'
g150
tp203
a(S'2015-02-20 10:20:59.291000'
S'data saved as csv to C:\\Users\\Jbarrett\\Charlie\\charlie\\data\\csv\\K106_updating.csv'
tp204
a(S'2015-02-20 10:20:59.305000'
g150
tp205
a(S'2015-02-20 10:21:19.745000'
g148
tp206
a(S'2015-02-20 10:21:19.758000'
g150
tp207
a(S'2015-02-20 10:21:19.762000'
S'data saved as csv to C:\\Users\\Jbarrett\\Charlie\\charlie\\data\\csv\\K106_updating.csv'
tp208
a(S'2015-02-20 10:21:19.768000'
g150
tp209
a(S'2015-02-20 10:21:39.270000'
g148
tp210
a(S'2015-02-20 10:21:39.283000'
g150
tp211
a(S'2015-02-20 10:21:39.287000'
S'data saved as csv to C:\\Users\\Jbarrett\\Charlie\\charlie\\data\\csv\\K106_updating.csv'
tp212
a(S'2015-02-20 10:21:39.294000'
g150
tp213
a(S'2015-02-20 10:21:58.695000'
g148
tp214
a(S'2015-02-20 10:21:58.708000'
g150
tp215
a(S'2015-02-20 10:21:58.712000'
S'data saved as csv to C:\\Users\\Jbarrett\\Charlie\\charlie\\data\\csv\\K106_updating.csv'
tp216
a(S'2015-02-20 10:21:58.725000'
g150
tp217
a(S'2015-02-20 10:22:17.567000'
g148
tp218
a(S'2015-02-20 10:22:17.580000'
g150
tp219
a(S'2015-02-20 10:22:17.585000'
S'data saved as csv to C:\\Users\\Jbarrett\\Charlie\\charlie\\data\\csv\\K106_updating.csv'
tp220
a(S'2015-02-20 10:22:17.597000'
g150
tp221
a(S'2015-02-20 10:22:36.782000'
g148
tp222
a(S'2015-02-20 10:22:36.795000'
g150
tp223
a(S'2015-02-20 10:22:36.799000'
S'data saved as csv to C:\\Users\\Jbarrett\\Charlie\\charlie\\data\\csv\\K106_updating.csv'
tp224
a(S'2015-02-20 10:22:36.812000'
g150
tp225
a(S'2015-02-20 10:22:56.099000'
g148
tp226
a(S'2015-02-20 10:22:56.113000'
g150
tp227
a(S'2015-02-20 10:22:56.117000'
S'data saved as csv to C:\\Users\\Jbarrett\\Charlie\\charlie\\data\\csv\\K106_updating.csv'
tp228
a(S'2015-02-20 10:22:56.131000'
g150
tp229
a(S'2015-02-20 10:23:15.737000'
g148
tp230
a(S'2015-02-20 10:23:15.750000'
g150
tp231
a(S'2015-02-20 10:23:15.754000'
S'data saved as csv to C:\\Users\\Jbarrett\\Charlie\\charlie\\data\\csv\\K106_updating.csv'
tp232
a(S'2015-02-20 10:23:15.761000'
g150
tp233
asb.