(icharlie.tools.data
Data
p1
(dp2
S'lang'
p3
S'EN'
p4
sS'control'
p5
(lp6
sS'last_updated'
p7
cdatetime
datetime
p8
(S'\x07\xdf\x02\x13\x0e\x1e1\x04\x1a\xc8'
tRp9
sS'last_opened'
p10
g8
(S'\x07\xdf\x02\x13\x0e\x1b\x12\n\xec\xe0'
tRp11
sS'proj_id'
p12
S''
sS'date_done'
p13
NsS'test_done'
p14
I01
sS'data'
p15
(lp16
(S'L105'
p17
S'ctrails'
p18
S'number'
p19
S'practice'
p20
I0
I1
S'Correct'
p21
I1941
I7958
tp22
a(g17
g18
g19
g20
I1
I2
g21
I1130
I7958
tp23
a(g17
g18
g19
g20
I2
I3
g21
I690
I7958
tp24
a(g17
g18
g19
g20
I3
I4
g21
I640
I7958
tp25
a(g17
g18
g19
g20
I4
I5
g21
I820
I7958
tp26
a(g17
g18
g19
g20
I5
I6
g21
I1110
I7958
tp27
a(g17
g18
g19
g20
I6
I7
g21
I790
I7958
tp28
a(g17
g18
g19
g20
I7
I8
g21
I790
I7958
tp29
a(g17
g18
g19
S'test'
p30
I0
I1
g21
I2190
I35509
tp31
a(g17
g18
g19
g30
I1
I2
g21
I2190
I35509
tp32
a(g17
g18
g19
g30
I2
I3
g21
I1240
I35509
tp33
a(g17
g18
g19
g30
I3
I4
g21
I2420
I35509
tp34
a(g17
g18
g19
g30
I4
I5
g21
I800
I35509
tp35
a(g17
g18
g19
g30
I5
I6
g21
I2230
I35509
tp36
a(g17
g18
g19
g30
I6
I7
g21
I860
I35509
tp37
a(g17
g18
g19
g30
I7
I8
g21
I551
I35509
tp38
a(g17
g18
g19
g30
I8
I9
g21
I1260
I35509
tp39
a(g17
g18
g19
g30
I9
I10
g21
I1630
I35509
tp40
a(g17
g18
g19
g30
I10
I11
g21
I1110
I35509
tp41
a(g17
g18
g19
g30
I11
I12
g21
I540
I35509
tp42
a(g17
g18
g19
g30
I12
I13
g21
I800
I35509
tp43
a(g17
g18
g19
g30
I13
I14
g21
I1240
I35509
tp44
a(g17
g18
g19
g30
I14
I15
g21
I830
I35509
tp45
a(g17
g18
g19
g30
I15
I16
g21
I1110
I35509
tp46
a(g17
g18
g19
g30
I16
I17
g21
I750
I35509
tp47
a(g17
g18
g19
g30
I17
I18
g21
I650
I35509
tp48
a(g17
g18
g19
g30
I18
I19
g21
I740
I35509
tp49
a(g17
g18
g19
g30
I19
I20
g21
I1020
I35509
tp50
a(g17
g18
g19
g30
I20
I21
g21
I670
I35509
tp51
a(g17
g18
g19
g30
I21
I22
g21
I770
I35509
tp52
a(g17
g18
g19
g30
I22
I22
S'Incorrect'
p53
I5431
I35509
tp54
a(g17
g18
g19
g30
I23
I23
g21
I1020
I35509
tp55
a(g17
g18
g19
g30
I24
I24
g21
I1230
I35509
tp56
a(g17
g18
g19
g30
I25
I25
g21
I940
I35509
tp57
a(g17
g18
g19
g30
I26
I26
g21
I1160
I35509
tp58
a(g17
g18
S'letter'
p59
g20
I0
S'a'
g21
I2000
I7068
tp60
a(g17
g18
g59
g20
I1
S'b'
g21
I600
I7068
tp61
a(g17
g18
g59
g20
I2
S'c'
g21
I710
I7068
tp62
a(g17
g18
g59
g20
I3
S'd'
g21
I701
I7068
tp63
a(g17
g18
g59
g20
I4
S'e'
g21
I670
I7068
tp64
a(g17
g18
g59
g20
I5
S'f'
g21
I690
I7068
tp65
a(g17
g18
g59
g20
I6
S'g'
g21
I710
I7068
tp66
a(g17
g18
g59
g20
I7
S'h'
g21
I940
I7068
tp67
a(g17
g18
g59
g30
I0
S'a'
g21
I2151
I25531
tp68
a(g17
g18
g59
g30
I1
S'b'
g21
I1050
I25531
tp69
a(g17
g18
g59
g30
I2
S'c'
g21
I990
I25531
tp70
a(g17
g18
g59
g30
I3
S'd'
g21
I940
I25531
tp71
a(g17
g18
g59
g30
I4
S'e'
g21
I670
I25531
tp72
a(g17
g18
g59
g30
I5
S'f'
g21
I860
I25531
tp73
a(g17
g18
g59
g30
I6
S'g'
g21
I930
I25531
tp74
a(g17
g18
g59
g30
I7
S'h'
g21
I1400
I25531
tp75
a(g17
g18
g59
g30
I8
S'i'
g21
I1120
I25531
tp76
a(g17
g18
g59
g30
I9
S'j'
g21
I840
I25531
tp77
a(g17
g18
g59
g30
I10
S'k'
g21
I1720
I25531
tp78
a(g17
g18
g59
g30
I11
S'l'
g21
I1280
I25531
tp79
a(g17
g18
g59
g30
I12
S'm'
g21
I900
I25531
tp80
a(g17
g18
g59
g30
I13
S'n'
g21
I1140
I25531
tp81
a(g17
g18
g59
g30
I14
S'o'
g21
I720
I25531
tp82
a(g17
g18
g59
g30
I15
S'p'
g21
I2110
I25531
tp83
a(g17
g18
g59
g30
I16
S'q'
g21
I871
I25531
tp84
a(g17
g18
g59
g30
I17
S'r'
g21
I480
I25531
tp85
a(g17
g18
g59
g30
I18
S's'
g21
I610
I25531
tp86
a(g17
g18
g59
g30
I19
S't'
g21
I660
I25531
tp87
a(g17
g18
g59
g30
I20
S'u'
g21
I600
I25531
tp88
a(g17
g18
g59
g30
I21
S'v'
g21
I600
I25531
tp89
a(g17
g18
g59
g30
I22
S'w'
g21
I700
I25531
tp90
a(g17
g18
g59
g30
I23
S'x'
g21
I770
I25531
tp91
a(g17
g18
g59
g30
I24
S'y'
g21
I640
I25531
tp92
a(g17
g18
g59
g30
I25
S'z'
g21
I660
I25531
tp93
a(g17
g18
S'number-letter'
p94
g20
I0
I1
g21
I1850
I7516
tp95
a(g17
g18
g94
g20
I1
S'a'
g21
I830
I7516
tp96
a(g17
g18
g94
g20
I2
I2
g21
I860
I7516
tp97
a(g17
g18
g94
g20
I3
S'b'
g21
I1010
I7516
tp98
a(g17
g18
g94
g20
I4
I3
g21
I830
I7516
tp99
a(g17
g18
g94
g20
I5
S'c'
g21
I680
I7516
tp100
a(g17
g18
g94
g20
I6
I4
g21
I780
I7516
tp101
a(g17
g18
g94
g20
I7
S'd'
g21
I630
I7516
tp102
a(g17
g18
g94
g30
I0
I1
g21
I2370
I45917
tp103
a(g17
g18
g94
g30
I1
S'a'
g21
I1060
I45917
tp104
a(g17
g18
g94
g30
I2
I2
g21
I1680
I45917
tp105
a(g17
g18
g94
g30
I3
S'b'
g21
I1690
I45917
tp106
a(g17
g18
g94
g30
I4
I3
g21
I2080
I45917
tp107
a(g17
g18
g94
g30
I5
S'c'
g21
I2250
I45917
tp108
a(g17
g18
g94
g30
I6
I4
g21
I3161
I45917
tp109
a(g17
g18
g94
g30
I7
S'd'
g21
I700
I45917
tp110
a(g17
g18
g94
g30
I8
I5
g21
I1270
I45917
tp111
a(g17
g18
g94
g30
I9
S'e'
g21
I580
I45917
tp112
a(g17
g18
g94
g30
I10
I6
g21
I3030
I45917
tp113
a(g17
g18
g94
g30
I11
S'f'
g21
I380
I45917
tp114
a(g17
g18
g94
g30
I12
I7
g21
I1470
I45917
tp115
a(g17
g18
g94
g30
I13
S'g'
g21
I1440
I45917
tp116
a(g17
g18
g94
g30
I14
I8
g21
I1400
I45917
tp117
a(g17
g18
g94
g30
I15
S'h'
g21
I780
I45917
tp118
a(g17
g18
g94
g30
I16
I9
g21
I2170
I45917
tp119
a(g17
g18
g94
g30
I17
S'i'
g21
I640
I45917
tp120
a(g17
g18
g94
g30
I18
I10
g21
I1341
I45917
tp121
a(g17
g18
g94
g30
I19
S'j'
g21
I1190
I45917
tp122
a(g17
g18
g94
g30
I20
I11
g21
I1660
I45917
tp123
a(g17
g18
g94
g30
I21
S'k'
g21
I700
I45917
tp124
a(g17
g18
g94
g30
I22
I13
g53
I1590
I45917
tp125
a(g17
g18
g94
g30
I23
I13
g53
I4540
I45917
tp126
a(g17
g18
g94
g30
I24
I12
g21
I1990
I45917
tp127
a(g17
g18
g94
g30
I25
S'l'
g21
I1560
I45917
tp128
a(g17
g18
g94
g30
I26
I13
g21
I1160
I45917
tp129
a(g17
g18
g94
g30
I27
S'm'
g21
I580
I45917
tp130
asS'output_format'
p131
(lp132
(S'proband_id'
p133
c__builtin__
str
p134
tp135
a(S'test_name'
p136
g134
tp137
a(S'phase'
p138
g134
tp139
a(S'trial_type'
p140
g134
tp141
a(S'n'
c__builtin__
int
p142
tp143
a(S'rsp'
p144
g134
tp145
a(S'corr'
p146
g134
tp147
a(S'rt'
p148
g142
tp149
a(S'total_time'
p150
g142
tp151
asg133
g17
sS'filename'
p152
S'L105_ctrails.data'
p153
sS'initialised'
p154
g8
(S'\x07\xdf\x02\x13\x0e\x1b\x12\n\xec\xe0'
tRp155
sS'last_udated'
p156
g8
(S'\x07\xdf\x02\x13\x0e\x1b\x12\n\xec\xe0'
tRp157
sg136
S'ctrails'
p158
sS'directory'
p159
S'C:\\Users\\Jbarrett\\Charlie\\charlie\\data\\raw'
p160
sS'user_id'
p161
S''
sS'test_started'
p162
I01
sS'abs_filename'
p163
S'C:\\Users\\Jbarrett\\Charlie\\charlie\\data\\raw\\L105_ctrails.data'
p164
sS'date_started'
p165
g8
(S'\x07\xdf\x02\x13\x0e\x1b,\x0c\xc5\x88'
tRp166
sS'log'
p167
(lp168
(S'2015-02-19 14:27:18.716000'
S'instance created'
p169
tp170
a(S'2015-02-19 14:27:44.847000'
S'instance updated'
p171
tp172
a(S'2015-02-19 14:27:44.857000'
S'pandas DataFrame of data created'
p173
tp174
a(S'2015-02-19 14:27:44.862000'
S'data saved as csv to C:\\Users\\Jbarrett\\Charlie\\charlie\\data\\csv\\L105_ctrails.csv'
tp175
a(S'2015-02-19 14:28:36.733000'
g171
tp176
a(S'2015-02-19 14:28:36.743000'
g173
tp177
a(S'2015-02-19 14:28:36.747000'
S'data saved as csv to C:\\Users\\Jbarrett\\Charlie\\charlie\\data\\csv\\L105_ctrails.csv'
tp178
a(S'2015-02-19 14:28:51.827000'
g171
tp179
a(S'2015-02-19 14:28:51.838000'
g173
tp180
a(S'2015-02-19 14:28:51.842000'
S'data saved as csv to C:\\Users\\Jbarrett\\Charlie\\charlie\\data\\csv\\L105_ctrails.csv'
tp181
a(S'2015-02-19 14:29:29.473000'
g171
tp182
a(S'2015-02-19 14:29:29.484000'
g173
tp183
a(S'2015-02-19 14:29:29.488000'
S'data saved as csv to C:\\Users\\Jbarrett\\Charlie\\charlie\\data\\csv\\L105_ctrails.csv'
tp184
a(S'2015-02-19 14:29:54.241000'
g171
tp185
a(S'2015-02-19 14:29:54.251000'
g173
tp186
a(S'2015-02-19 14:29:54.256000'
S'data saved as csv to C:\\Users\\Jbarrett\\Charlie\\charlie\\data\\csv\\L105_ctrails.csv'
tp187
a(S'2015-02-19 14:30:49.255000'
g171
tp188
a(S'2015-02-19 14:30:49.266000'
g173
tp189
a(S'2015-02-19 14:30:49.269000'
S'data saved as csv to C:\\Users\\Jbarrett\\Charlie\\charlie\\data\\csv\\L105_ctrails.csv'
tp190
asb.