(icharlie.tools.data
Data
p1
(dp2
S'lang'
p3
S'EN'
p4
sS'control'
p5
(lp6
sS'last_updated'
p7
cdatetime
datetime
p8
(S'\x07\xdf\x02\x13\x0e\r\x1e\x08`\x88'
tRp9
sS'last_opened'
p10
g8
(S'\x07\xdf\x02\x13\x0e\n\x1b\nL\xb8'
tRp11
sS'proj_id'
p12
S''
sS'date_done'
p13
NsS'test_done'
p14
I01
sS'data'
p15
(lp16
(S'L105'
p17
S'stroop'
p18
S'practice'
p19
I0
S'n/a'
p20
S'C:\\Users\\Jbarrett\\Charlie\\charlie\\stimuli\\visual\\stroop\\prac_1.png'
S'Right'
p21
g21
I1860
tp22
a(g17
g18
g19
I1
g20
S'C:\\Users\\Jbarrett\\Charlie\\charlie\\stimuli\\visual\\stroop\\prac_2.png'
S'Left'
p23
g23
I1180
tp24
a(g17
g18
g19
I2
g20
S'C:\\Users\\Jbarrett\\Charlie\\charlie\\stimuli\\visual\\stroop\\prac_3.png'
g21
g21
I830
tp25
a(g17
g18
g19
I3
g20
S'C:\\Users\\Jbarrett\\Charlie\\charlie\\stimuli\\visual\\stroop\\prac_4.png'
g21
g21
I990
tp26
a(g17
g18
S'test'
p27
I0
S'Incongruent'
p28
S'C:\\Users\\Jbarrett\\Charlie\\charlie\\stimuli\\visual\\stroop\\6-Incongruent.png'
g23
g23
I1350
tp29
a(g17
g18
g27
I1
S'Congruent'
p30
S'C:\\Users\\Jbarrett\\Charlie\\charlie\\stimuli\\visual\\stroop\\30-Congruent.png'
g23
g23
I1290
tp31
a(g17
g18
g27
I2
g30
S'C:\\Users\\Jbarrett\\Charlie\\charlie\\stimuli\\visual\\stroop\\3-Congruent.png'
g21
g21
I1030
tp32
a(g17
g18
g27
I3
g28
S'C:\\Users\\Jbarrett\\Charlie\\charlie\\stimuli\\visual\\stroop\\23-Incongruent.png'
g23
g23
I750
tp33
a(g17
g18
g27
I4
g30
S'C:\\Users\\Jbarrett\\Charlie\\charlie\\stimuli\\visual\\stroop\\39-Congruent.png'
g23
g23
I1320
tp34
a(g17
g18
g27
I5
g30
S'C:\\Users\\Jbarrett\\Charlie\\charlie\\stimuli\\visual\\stroop\\45-Congruent.png'
g23
g23
I770
tp35
a(g17
g18
g27
I6
g28
S'C:\\Users\\Jbarrett\\Charlie\\charlie\\stimuli\\visual\\stroop\\31-Incongruent.png'
g21
g21
I800
tp36
a(g17
g18
g27
I7
g28
S'C:\\Users\\Jbarrett\\Charlie\\charlie\\stimuli\\visual\\stroop\\28-Incongruent.png'
g23
g23
I700
tp37
a(g17
g18
g27
I8
g30
S'C:\\Users\\Jbarrett\\Charlie\\charlie\\stimuli\\visual\\stroop\\31-Congruent.png'
g23
g23
I570
tp38
a(g17
g18
g27
I9
g30
S'C:\\Users\\Jbarrett\\Charlie\\charlie\\stimuli\\visual\\stroop\\10-Congruent.png'
g21
g21
I580
tp39
a(g17
g18
g27
I10
g28
S'C:\\Users\\Jbarrett\\Charlie\\charlie\\stimuli\\visual\\stroop\\10-Incongruent.png'
g23
g23
I520
tp40
a(g17
g18
g27
I11
g28
S'C:\\Users\\Jbarrett\\Charlie\\charlie\\stimuli\\visual\\stroop\\24-Incongruent.png'
g23
g23
I780
tp41
a(g17
g18
g27
I12
g30
S'C:\\Users\\Jbarrett\\Charlie\\charlie\\stimuli\\visual\\stroop\\34-Congruent.png'
g23
g23
I570
tp42
a(g17
g18
g27
I13
g30
S'C:\\Users\\Jbarrett\\Charlie\\charlie\\stimuli\\visual\\stroop\\38-Congruent.png'
g23
g23
I610
tp43
a(g17
g18
g27
I14
g30
S'C:\\Users\\Jbarrett\\Charlie\\charlie\\stimuli\\visual\\stroop\\42-Congruent.png'
g23
g23
I580
tp44
a(g17
g18
g27
I15
g30
S'C:\\Users\\Jbarrett\\Charlie\\charlie\\stimuli\\visual\\stroop\\17-Congruent.png'
g21
g21
I630
tp45
a(g17
g18
g27
I16
g28
S'C:\\Users\\Jbarrett\\Charlie\\charlie\\stimuli\\visual\\stroop\\42-Incongruent.png'
g21
g21
I740
tp46
a(g17
g18
g27
I17
g28
S'C:\\Users\\Jbarrett\\Charlie\\charlie\\stimuli\\visual\\stroop\\36-Incongruent.png'
g21
g21
I710
tp47
a(g17
g18
g27
I18
g28
S'C:\\Users\\Jbarrett\\Charlie\\charlie\\stimuli\\visual\\stroop\\43-Incongruent.png'
g21
g21
I740
tp48
a(g17
g18
g27
I19
g30
S'C:\\Users\\Jbarrett\\Charlie\\charlie\\stimuli\\visual\\stroop\\49-Congruent.png'
g23
g23
I831
tp49
a(g17
g18
g27
I20
g30
S'C:\\Users\\Jbarrett\\Charlie\\charlie\\stimuli\\visual\\stroop\\43-Congruent.png'
g23
g23
I850
tp50
a(g17
g18
g27
I21
g28
S'C:\\Users\\Jbarrett\\Charlie\\charlie\\stimuli\\visual\\stroop\\15-Incongruent.png'
g23
g23
I880
tp51
a(g17
g18
g27
I22
g28
S'C:\\Users\\Jbarrett\\Charlie\\charlie\\stimuli\\visual\\stroop\\35-Incongruent.png'
g21
g21
I780
tp52
a(g17
g18
g27
I23
g28
S'C:\\Users\\Jbarrett\\Charlie\\charlie\\stimuli\\visual\\stroop\\44-Incongruent.png'
g21
g21
I860
tp53
a(g17
g18
g27
I24
g28
S'C:\\Users\\Jbarrett\\Charlie\\charlie\\stimuli\\visual\\stroop\\47-Incongruent.png'
g21
g21
I810
tp54
a(g17
g18
g27
I25
g28
S'C:\\Users\\Jbarrett\\Charlie\\charlie\\stimuli\\visual\\stroop\\40-Incongruent.png'
g21
g21
I690
tp55
a(g17
g18
g27
I26
g28
S'C:\\Users\\Jbarrett\\Charlie\\charlie\\stimuli\\visual\\stroop\\25-Incongruent.png'
g23
g23
I670
tp56
a(g17
g18
g27
I27
g28
S'C:\\Users\\Jbarrett\\Charlie\\charlie\\stimuli\\visual\\stroop\\27-Incongruent.png'
g23
g23
I1000
tp57
a(g17
g18
g27
I28
g28
S'C:\\Users\\Jbarrett\\Charlie\\charlie\\stimuli\\visual\\stroop\\56-Incongruent.png'
g21
g21
I590
tp58
a(g17
g18
g27
I29
g30
S'C:\\Users\\Jbarrett\\Charlie\\charlie\\stimuli\\visual\\stroop\\2-Congruent.png'
g21
g21
I960
tp59
a(g17
g18
g27
I30
g28
S'C:\\Users\\Jbarrett\\Charlie\\charlie\\stimuli\\visual\\stroop\\17-Incongruent.png'
g23
g23
I580
tp60
a(g17
g18
g27
I31
g30
S'C:\\Users\\Jbarrett\\Charlie\\charlie\\stimuli\\visual\\stroop\\12-Congruent.png'
g21
g21
I590
tp61
a(g17
g18
g27
I32
g28
S'C:\\Users\\Jbarrett\\Charlie\\charlie\\stimuli\\visual\\stroop\\12-Incongruent.png'
g23
g23
I630
tp62
a(g17
g18
g27
I33
g28
S'C:\\Users\\Jbarrett\\Charlie\\charlie\\stimuli\\visual\\stroop\\26-Incongruent.png'
g23
g23
I650
tp63
a(g17
g18
g27
I34
g30
S'C:\\Users\\Jbarrett\\Charlie\\charlie\\stimuli\\visual\\stroop\\19-Congruent.png'
g21
g21
I1640
tp64
a(g17
g18
g27
I35
g30
S'C:\\Users\\Jbarrett\\Charlie\\charlie\\stimuli\\visual\\stroop\\23-Congruent.png'
g21
g21
I680
tp65
a(g17
g18
g27
I36
g30
S'C:\\Users\\Jbarrett\\Charlie\\charlie\\stimuli\\visual\\stroop\\35-Congruent.png'
g23
g23
I480
tp66
a(g17
g18
g27
I37
g30
S'C:\\Users\\Jbarrett\\Charlie\\charlie\\stimuli\\visual\\stroop\\46-Congruent.png'
g23
g23
I620
tp67
a(g17
g18
g27
I38
g28
S'C:\\Users\\Jbarrett\\Charlie\\charlie\\stimuli\\visual\\stroop\\8-Incongruent.png'
g23
g23
I540
tp68
a(g17
g18
g27
I39
g30
S'C:\\Users\\Jbarrett\\Charlie\\charlie\\stimuli\\visual\\stroop\\29-Congruent.png'
g23
g23
I540
tp69
a(g17
g18
g27
I40
g30
S'C:\\Users\\Jbarrett\\Charlie\\charlie\\stimuli\\visual\\stroop\\14-Congruent.png'
g21
g21
I670
tp70
a(g17
g18
g27
I41
g30
S'C:\\Users\\Jbarrett\\Charlie\\charlie\\stimuli\\visual\\stroop\\33-Congruent.png'
g23
g23
I540
tp71
a(g17
g18
g27
I42
g28
S'C:\\Users\\Jbarrett\\Charlie\\charlie\\stimuli\\visual\\stroop\\13-Incongruent.png'
g23
g23
I640
tp72
a(g17
g18
g27
I43
g28
S'C:\\Users\\Jbarrett\\Charlie\\charlie\\stimuli\\visual\\stroop\\55-Incongruent.png'
g21
g21
I720
tp73
a(g17
g18
g27
I44
g30
S'C:\\Users\\Jbarrett\\Charlie\\charlie\\stimuli\\visual\\stroop\\54-Congruent.png'
g23
g23
I490
tp74
a(g17
g18
g27
I45
g30
S'C:\\Users\\Jbarrett\\Charlie\\charlie\\stimuli\\visual\\stroop\\8-Congruent.png'
g21
g21
I470
tp75
a(g17
g18
g27
I46
g30
S'C:\\Users\\Jbarrett\\Charlie\\charlie\\stimuli\\visual\\stroop\\13-Congruent.png'
g21
g21
I560
tp76
a(g17
g18
g27
I47
g30
S'C:\\Users\\Jbarrett\\Charlie\\charlie\\stimuli\\visual\\stroop\\40-Congruent.png'
g23
g23
I480
tp77
a(g17
g18
g27
I48
g28
S'C:\\Users\\Jbarrett\\Charlie\\charlie\\stimuli\\visual\\stroop\\9-Incongruent.png'
g23
g23
I800
tp78
a(g17
g18
g27
I49
g30
S'C:\\Users\\Jbarrett\\Charlie\\charlie\\stimuli\\visual\\stroop\\50-Congruent.png'
g23
g23
I700
tp79
a(g17
g18
g27
I50
g30
S'C:\\Users\\Jbarrett\\Charlie\\charlie\\stimuli\\visual\\stroop\\5-Congruent.png'
g21
g21
I470
tp80
a(g17
g18
g27
I51
g28
S'C:\\Users\\Jbarrett\\Charlie\\charlie\\stimuli\\visual\\stroop\\5-Incongruent.png'
g23
g23
I580
tp81
a(g17
g18
g27
I52
g28
S'C:\\Users\\Jbarrett\\Charlie\\charlie\\stimuli\\visual\\stroop\\53-Incongruent.png'
g21
g21
I900
tp82
a(g17
g18
g27
I53
g28
S'C:\\Users\\Jbarrett\\Charlie\\charlie\\stimuli\\visual\\stroop\\1-Incongruent.png'
g23
g23
I460
tp83
a(g17
g18
g27
I54
g30
S'C:\\Users\\Jbarrett\\Charlie\\charlie\\stimuli\\visual\\stroop\\28-Congruent.png'
g21
g21
I731
tp84
a(g17
g18
g27
I55
g28
S'C:\\Users\\Jbarrett\\Charlie\\charlie\\stimuli\\visual\\stroop\\34-Incongruent.png'
g21
g23
I560
tp85
a(g17
g18
g27
I56
g28
S'C:\\Users\\Jbarrett\\Charlie\\charlie\\stimuli\\visual\\stroop\\20-Incongruent.png'
g23
g23
I810
tp86
a(g17
g18
g27
I57
g28
S'C:\\Users\\Jbarrett\\Charlie\\charlie\\stimuli\\visual\\stroop\\38-Incongruent.png'
g21
g21
I800
tp87
a(g17
g18
g27
I58
g28
S'C:\\Users\\Jbarrett\\Charlie\\charlie\\stimuli\\visual\\stroop\\32-Incongruent.png'
g21
g21
I480
tp88
a(g17
g18
g27
I59
g30
S'C:\\Users\\Jbarrett\\Charlie\\charlie\\stimuli\\visual\\stroop\\9-Congruent.png'
g21
g21
I600
tp89
a(g17
g18
g27
I60
g30
S'C:\\Users\\Jbarrett\\Charlie\\charlie\\stimuli\\visual\\stroop\\55-Congruent.png'
g23
g23
I710
tp90
a(g17
g18
g27
I61
g28
S'C:\\Users\\Jbarrett\\Charlie\\charlie\\stimuli\\visual\\stroop\\33-Incongruent.png'
g21
g21
I1110
tp91
a(g17
g18
g27
I62
g28
S'C:\\Users\\Jbarrett\\Charlie\\charlie\\stimuli\\visual\\stroop\\49-Incongruent.png'
g21
g21
I730
tp92
a(g17
g18
g27
I63
g30
S'C:\\Users\\Jbarrett\\Charlie\\charlie\\stimuli\\visual\\stroop\\4-Congruent.png'
g21
g21
I1330
tp93
a(g17
g18
g27
I64
g30
S'C:\\Users\\Jbarrett\\Charlie\\charlie\\stimuli\\visual\\stroop\\6-Congruent.png'
g21
g23
I860
tp94
a(g17
g18
g27
I65
g30
S'C:\\Users\\Jbarrett\\Charlie\\charlie\\stimuli\\visual\\stroop\\48-Congruent.png'
g23
g23
I760
tp95
a(g17
g18
g27
I66
g30
S'C:\\Users\\Jbarrett\\Charlie\\charlie\\stimuli\\visual\\stroop\\52-Congruent.png'
g23
g23
I640
tp96
a(g17
g18
g27
I67
g30
S'C:\\Users\\Jbarrett\\Charlie\\charlie\\stimuli\\visual\\stroop\\51-Congruent.png'
g23
g23
I1790
tp97
a(g17
g18
g27
I68
g30
S'C:\\Users\\Jbarrett\\Charlie\\charlie\\stimuli\\visual\\stroop\\16-Congruent.png'
g21
g21
I1150
tp98
a(g17
g18
g27
I69
g30
S'C:\\Users\\Jbarrett\\Charlie\\charlie\\stimuli\\visual\\stroop\\24-Congruent.png'
g21
g21
I540
tp99
a(g17
g18
g27
I70
g28
S'C:\\Users\\Jbarrett\\Charlie\\charlie\\stimuli\\visual\\stroop\\41-Incongruent.png'
g21
g21
I670
tp100
a(g17
g18
g27
I71
g28
S'C:\\Users\\Jbarrett\\Charlie\\charlie\\stimuli\\visual\\stroop\\48-Incongruent.png'
g21
g21
I730
tp101
a(g17
g18
g27
I72
g28
S'C:\\Users\\Jbarrett\\Charlie\\charlie\\stimuli\\visual\\stroop\\4-Incongruent.png'
g23
g23
I720
tp102
a(g17
g18
g27
I73
g28
S'C:\\Users\\Jbarrett\\Charlie\\charlie\\stimuli\\visual\\stroop\\54-Incongruent.png'
g21
g21
I940
tp103
a(g17
g18
g27
I74
g28
S'C:\\Users\\Jbarrett\\Charlie\\charlie\\stimuli\\visual\\stroop\\39-Incongruent.png'
g21
g21
I610
tp104
a(g17
g18
g27
I75
g30
S'C:\\Users\\Jbarrett\\Charlie\\charlie\\stimuli\\visual\\stroop\\56-Congruent.png'
g23
g23
I930
tp105
a(g17
g18
g27
I76
g28
S'C:\\Users\\Jbarrett\\Charlie\\charlie\\stimuli\\visual\\stroop\\46-Incongruent.png'
g21
g21
I880
tp106
a(g17
g18
g27
I77
g30
S'C:\\Users\\Jbarrett\\Charlie\\charlie\\stimuli\\visual\\stroop\\22-Congruent.png'
g21
g21
I810
tp107
a(g17
g18
g27
I78
g28
S'C:\\Users\\Jbarrett\\Charlie\\charlie\\stimuli\\visual\\stroop\\21-Incongruent.png'
g23
g23
I770
tp108
a(g17
g18
g27
I79
g28
S'C:\\Users\\Jbarrett\\Charlie\\charlie\\stimuli\\visual\\stroop\\37-Incongruent.png'
g21
g21
I540
tp109
a(g17
g18
g27
I80
g28
S'C:\\Users\\Jbarrett\\Charlie\\charlie\\stimuli\\visual\\stroop\\2-Incongruent.png'
g23
g23
I650
tp110
a(g17
g18
g27
I81
g30
S'C:\\Users\\Jbarrett\\Charlie\\charlie\\stimuli\\visual\\stroop\\21-Congruent.png'
g21
g21
I540
tp111
a(g17
g18
g27
I82
g28
S'C:\\Users\\Jbarrett\\Charlie\\charlie\\stimuli\\visual\\stroop\\7-Incongruent.png'
g23
g23
I990
tp112
a(g17
g18
g27
I83
g30
S'C:\\Users\\Jbarrett\\Charlie\\charlie\\stimuli\\visual\\stroop\\20-Congruent.png'
g21
g21
I490
tp113
a(g17
g18
g27
I84
g30
S'C:\\Users\\Jbarrett\\Charlie\\charlie\\stimuli\\visual\\stroop\\15-Congruent.png'
g21
g21
I750
tp114
a(g17
g18
g27
I85
g30
S'C:\\Users\\Jbarrett\\Charlie\\charlie\\stimuli\\visual\\stroop\\26-Congruent.png'
g21
g21
I660
tp115
a(g17
g18
g27
I86
g28
S'C:\\Users\\Jbarrett\\Charlie\\charlie\\stimuli\\visual\\stroop\\16-Incongruent.png'
g23
g23
I700
tp116
a(g17
g18
g27
I87
g28
S'C:\\Users\\Jbarrett\\Charlie\\charlie\\stimuli\\visual\\stroop\\50-Incongruent.png'
g21
g21
I751
tp117
a(g17
g18
g27
I88
g30
S'C:\\Users\\Jbarrett\\Charlie\\charlie\\stimuli\\visual\\stroop\\41-Congruent.png'
g23
g23
I710
tp118
a(g17
g18
g27
I89
g30
S'C:\\Users\\Jbarrett\\Charlie\\charlie\\stimuli\\visual\\stroop\\25-Congruent.png'
g21
g21
I610
tp119
a(g17
g18
g27
I90
g30
S'C:\\Users\\Jbarrett\\Charlie\\charlie\\stimuli\\visual\\stroop\\27-Congruent.png'
g21
g21
I580
tp120
a(g17
g18
g27
I91
g28
S'C:\\Users\\Jbarrett\\Charlie\\charlie\\stimuli\\visual\\stroop\\18-Incongruent.png'
g23
g23
I530
tp121
a(g17
g18
g27
I92
g28
S'C:\\Users\\Jbarrett\\Charlie\\charlie\\stimuli\\visual\\stroop\\30-Incongruent.png'
g21
g21
I790
tp122
a(g17
g18
g27
I93
g30
S'C:\\Users\\Jbarrett\\Charlie\\charlie\\stimuli\\visual\\stroop\\44-Congruent.png'
g23
g23
I760
tp123
a(g17
g18
g27
I94
g30
S'C:\\Users\\Jbarrett\\Charlie\\charlie\\stimuli\\visual\\stroop\\37-Congruent.png'
g23
g23
I1020
tp124
a(g17
g18
g27
I95
g28
S'C:\\Users\\Jbarrett\\Charlie\\charlie\\stimuli\\visual\\stroop\\11-Incongruent.png'
g23
g23
I1010
tp125
a(g17
g18
g27
I96
g28
S'C:\\Users\\Jbarrett\\Charlie\\charlie\\stimuli\\visual\\stroop\\29-Incongruent.png'
g21
g21
I860
tp126
a(g17
g18
g27
I97
g28
S'C:\\Users\\Jbarrett\\Charlie\\charlie\\stimuli\\visual\\stroop\\3-Incongruent.png'
g23
g23
I720
tp127
a(g17
g18
g27
I98
g30
S'C:\\Users\\Jbarrett\\Charlie\\charlie\\stimuli\\visual\\stroop\\1-Congruent.png'
g21
g21
I1580
tp128
a(g17
g18
g27
I99
g28
S'C:\\Users\\Jbarrett\\Charlie\\charlie\\stimuli\\visual\\stroop\\52-Incongruent.png'
g21
g21
I610
tp129
a(g17
g18
g27
I100
g28
S'C:\\Users\\Jbarrett\\Charlie\\charlie\\stimuli\\visual\\stroop\\14-Incongruent.png'
g23
g23
I660
tp130
a(g17
g18
g27
I101
g30
S'C:\\Users\\Jbarrett\\Charlie\\charlie\\stimuli\\visual\\stroop\\47-Congruent.png'
g23
g23
I1860
tp131
a(g17
g18
g27
I102
g28
S'C:\\Users\\Jbarrett\\Charlie\\charlie\\stimuli\\visual\\stroop\\19-Incongruent.png'
g23
g23
I621
tp132
a(g17
g18
g27
I103
g30
S'C:\\Users\\Jbarrett\\Charlie\\charlie\\stimuli\\visual\\stroop\\11-Congruent.png'
g21
g21
I540
tp133
a(g17
g18
g27
I104
g28
S'C:\\Users\\Jbarrett\\Charlie\\charlie\\stimuli\\visual\\stroop\\22-Incongruent.png'
g23
g23
I850
tp134
a(g17
g18
g27
I105
g30
S'C:\\Users\\Jbarrett\\Charlie\\charlie\\stimuli\\visual\\stroop\\7-Congruent.png'
g21
g21
I780
tp135
a(g17
g18
g27
I106
g30
S'C:\\Users\\Jbarrett\\Charlie\\charlie\\stimuli\\visual\\stroop\\53-Congruent.png'
g23
g23
I760
tp136
a(g17
g18
g27
I107
g30
S'C:\\Users\\Jbarrett\\Charlie\\charlie\\stimuli\\visual\\stroop\\32-Congruent.png'
g23
g23
I520
tp137
a(g17
g18
g27
I108
g28
S'C:\\Users\\Jbarrett\\Charlie\\charlie\\stimuli\\visual\\stroop\\45-Incongruent.png'
g21
g21
I730
tp138
a(g17
g18
g27
I109
g30
S'C:\\Users\\Jbarrett\\Charlie\\charlie\\stimuli\\visual\\stroop\\36-Congruent.png'
g23
g23
I480
tp139
a(g17
g18
g27
I110
g28
S'C:\\Users\\Jbarrett\\Charlie\\charlie\\stimuli\\visual\\stroop\\51-Incongruent.png'
g21
g21
I570
tp140
a(g17
g18
g27
I111
g30
S'C:\\Users\\Jbarrett\\Charlie\\charlie\\stimuli\\visual\\stroop\\18-Congruent.png'
p141
g21
g23
I560
tp142
asS'output_format'
p143
(lp144
(S'proband_id'
p145
c__builtin__
str
p146
tp147
a(S'test_name'
p148
g146
tp149
a(S'phase'
p150
g146
tp151
a(S'trialn'
p152
c__builtin__
int
p153
tp154
a(S'cong'
p155
g146
tp156
a(S'f'
g146
tp157
a(S'ans'
p158
g146
tp159
a(S'rsp'
p160
g146
tp161
a(S'rt'
p162
g153
tp163
asg145
g17
sS'filename'
p164
S'L105_stroop.data'
p165
sS'initialised'
p166
g8
(S'\x07\xdf\x02\x13\x0e\n\x1b\nL\xb8'
tRp167
sS'last_udated'
p168
g8
(S'\x07\xdf\x02\x13\x0e\n\x1b\nL\xb8'
tRp169
sg148
S'stroop'
p170
sS'directory'
p171
S'C:\\Users\\Jbarrett\\Charlie\\charlie\\data\\raw'
p172
sS'user_id'
p173
S''
sS'test_started'
p174
I01
sS'abs_filename'
p175
S'C:\\Users\\Jbarrett\\Charlie\\charlie\\data\\raw\\L105_stroop.data'
p176
sS'date_started'
p177
g8
(S'\x07\xdf\x02\x13\x0e\n3\r\xe2\xb0'
tRp178
sS'log'
p179
(lp180
(S'2015-02-19 14:10:27.675000'
S'instance created'
p181
tp182
a(S'2015-02-19 14:10:51.921000'
S'instance updated'
p183
tp184
a(S'2015-02-19 14:10:51.930000'
S'pandas DataFrame of data created'
p185
tp186
a(S'2015-02-19 14:10:51.934000'
S'data saved as csv to C:\\Users\\Jbarrett\\Charlie\\charlie\\data\\csv\\L105_stroop.csv'
tp187
a(S'2015-02-19 14:10:54.130000'
g183
tp188
a(S'2015-02-19 14:10:54.139000'
g185
tp189
a(S'2015-02-19 14:10:54.142000'
S'data saved as csv to C:\\Users\\Jbarrett\\Charlie\\charlie\\data\\csv\\L105_stroop.csv'
tp190
a(S'2015-02-19 14:10:55.990000'
g183
tp191
a(S'2015-02-19 14:10:55.999000'
g185
tp192
a(S'2015-02-19 14:10:56.003000'
S'data saved as csv to C:\\Users\\Jbarrett\\Charlie\\charlie\\data\\csv\\L105_stroop.csv'
tp193
a(S'2015-02-19 14:10:58.011000'
g183
tp194
a(S'2015-02-19 14:10:58.021000'
g185
tp195
a(S'2015-02-19 14:10:58.024000'
S'data saved as csv to C:\\Users\\Jbarrett\\Charlie\\charlie\\data\\csv\\L105_stroop.csv'
tp196
a(S'2015-02-19 14:11:35.308000'
g183
tp197
a(S'2015-02-19 14:11:35.318000'
g185
tp198
a(S'2015-02-19 14:11:35.322000'
S'data saved as csv to C:\\Users\\Jbarrett\\Charlie\\charlie\\data\\csv\\L105_stroop.csv'
tp199
a(S'2015-02-19 14:11:36.882000'
g183
tp200
a(S'2015-02-19 14:11:36.892000'
g185
tp201
a(S'2015-02-19 14:11:36.895000'
S'data saved as csv to C:\\Users\\Jbarrett\\Charlie\\charlie\\data\\csv\\L105_stroop.csv'
tp202
a(S'2015-02-19 14:11:38.195000'
g183
tp203
a(S'2015-02-19 14:11:38.204000'
g185
tp204
a(S'2015-02-19 14:11:38.208000'
S'data saved as csv to C:\\Users\\Jbarrett\\Charlie\\charlie\\data\\csv\\L105_stroop.csv'
tp205
a(S'2015-02-19 14:11:39.228000'
g183
tp206
a(S'2015-02-19 14:11:39.238000'
g185
tp207
a(S'2015-02-19 14:11:39.242000'
S'data saved as csv to C:\\Users\\Jbarrett\\Charlie\\charlie\\data\\csv\\L105_stroop.csv'
tp208
a(S'2015-02-19 14:11:40.830000'
g183
tp209
a(S'2015-02-19 14:11:40.841000'
g185
tp210
a(S'2015-02-19 14:11:40.844000'
S'data saved as csv to C:\\Users\\Jbarrett\\Charlie\\charlie\\data\\csv\\L105_stroop.csv'
tp211
a(S'2015-02-19 14:11:41.884000'
g183
tp212
a(S'2015-02-19 14:11:41.894000'
g185
tp213
a(S'2015-02-19 14:11:41.898000'
S'data saved as csv to C:\\Users\\Jbarrett\\Charlie\\charlie\\data\\csv\\L105_stroop.csv'
tp214
a(S'2015-02-19 14:11:42.968000'
g183
tp215
a(S'2015-02-19 14:11:42.979000'
g185
tp216
a(S'2015-02-19 14:11:42.982000'
S'data saved as csv to C:\\Users\\Jbarrett\\Charlie\\charlie\\data\\csv\\L105_stroop.csv'
tp217
a(S'2015-02-19 14:11:43.952000'
g183
tp218
a(S'2015-02-19 14:11:43.962000'
g185
tp219
a(S'2015-02-19 14:11:43.966000'
S'data saved as csv to C:\\Users\\Jbarrett\\Charlie\\charlie\\data\\csv\\L105_stroop.csv'
tp220
a(S'2015-02-19 14:11:44.806000'
g183
tp221
a(S'2015-02-19 14:11:44.816000'
g185
tp222
a(S'2015-02-19 14:11:44.820000'
S'data saved as csv to C:\\Users\\Jbarrett\\Charlie\\charlie\\data\\csv\\L105_stroop.csv'
tp223
a(S'2015-02-19 14:11:45.670000'
g183
tp224
a(S'2015-02-19 14:11:45.681000'
g185
tp225
a(S'2015-02-19 14:11:45.685000'
S'data saved as csv to C:\\Users\\Jbarrett\\Charlie\\charlie\\data\\csv\\L105_stroop.csv'
tp226
a(S'2015-02-19 14:11:46.474000'
g183
tp227
a(S'2015-02-19 14:11:46.484000'
g185
tp228
a(S'2015-02-19 14:11:46.488000'
S'data saved as csv to C:\\Users\\Jbarrett\\Charlie\\charlie\\data\\csv\\L105_stroop.csv'
tp229
a(S'2015-02-19 14:11:47.538000'
g183
tp230
a(S'2015-02-19 14:11:47.548000'
g185
tp231
a(S'2015-02-19 14:11:47.552000'
S'data saved as csv to C:\\Users\\Jbarrett\\Charlie\\charlie\\data\\csv\\L105_stroop.csv'
tp232
a(S'2015-02-19 14:11:48.392000'
g183
tp233
a(S'2015-02-19 14:11:48.403000'
g185
tp234
a(S'2015-02-19 14:11:48.406000'
S'data saved as csv to C:\\Users\\Jbarrett\\Charlie\\charlie\\data\\csv\\L105_stroop.csv'
tp235
a(S'2015-02-19 14:11:49.286000'
g183
tp236
a(S'2015-02-19 14:11:49.297000'
g185
tp237
a(S'2015-02-19 14:11:49.300000'
S'data saved as csv to C:\\Users\\Jbarrett\\Charlie\\charlie\\data\\csv\\L105_stroop.csv'
tp238
a(S'2015-02-19 14:11:50.150000'
g183
tp239
a(S'2015-02-19 14:11:50.161000'
g185
tp240
a(S'2015-02-19 14:11:50.165000'
S'data saved as csv to C:\\Users\\Jbarrett\\Charlie\\charlie\\data\\csv\\L105_stroop.csv'
tp241
a(S'2015-02-19 14:11:51.066000'
g183
tp242
a(S'2015-02-19 14:11:51.075000'
g185
tp243
a(S'2015-02-19 14:11:51.079000'
S'data saved as csv to C:\\Users\\Jbarrett\\Charlie\\charlie\\data\\csv\\L105_stroop.csv'
tp244
a(S'2015-02-19 14:11:52.089000'
g183
tp245
a(S'2015-02-19 14:11:52.100000'
g185
tp246
a(S'2015-02-19 14:11:52.104000'
S'data saved as csv to C:\\Users\\Jbarrett\\Charlie\\charlie\\data\\csv\\L105_stroop.csv'
tp247
a(S'2015-02-19 14:11:53.083000'
g183
tp248
a(S'2015-02-19 14:11:53.094000'
g185
tp249
a(S'2015-02-19 14:11:53.097000'
S'data saved as csv to C:\\Users\\Jbarrett\\Charlie\\charlie\\data\\csv\\L105_stroop.csv'
tp250
a(S'2015-02-19 14:11:54.106000'
g183
tp251
a(S'2015-02-19 14:11:54.115000'
g185
tp252
a(S'2015-02-19 14:11:54.119000'
S'data saved as csv to C:\\Users\\Jbarrett\\Charlie\\charlie\\data\\csv\\L105_stroop.csv'
tp253
a(S'2015-02-19 14:11:55.217000'
g183
tp254
a(S'2015-02-19 14:11:55.228000'
g185
tp255
a(S'2015-02-19 14:11:55.232000'
S'data saved as csv to C:\\Users\\Jbarrett\\Charlie\\charlie\\data\\csv\\L105_stroop.csv'
tp256
a(S'2015-02-19 14:11:56.352000'
g183
tp257
a(S'2015-02-19 14:11:56.362000'
g185
tp258
a(S'2015-02-19 14:11:56.366000'
S'data saved as csv to C:\\Users\\Jbarrett\\Charlie\\charlie\\data\\csv\\L105_stroop.csv'
tp259
a(S'2015-02-19 14:11:57.515000'
g183
tp260
a(S'2015-02-19 14:11:57.526000'
g185
tp261
a(S'2015-02-19 14:11:57.530000'
S'data saved as csv to C:\\Users\\Jbarrett\\Charlie\\charlie\\data\\csv\\L105_stroop.csv'
tp262
a(S'2015-02-19 14:11:58.581000'
g183
tp263
a(S'2015-02-19 14:11:58.591000'
g185
tp264
a(S'2015-02-19 14:11:58.595000'
S'data saved as csv to C:\\Users\\Jbarrett\\Charlie\\charlie\\data\\csv\\L105_stroop.csv'
tp265
a(S'2015-02-19 14:11:59.726000'
g183
tp266
a(S'2015-02-19 14:11:59.736000'
g185
tp267
a(S'2015-02-19 14:11:59.740000'
S'data saved as csv to C:\\Users\\Jbarrett\\Charlie\\charlie\\data\\csv\\L105_stroop.csv'
tp268
a(S'2015-02-19 14:12:00.821000'
g183
tp269
a(S'2015-02-19 14:12:00.831000'
g185
tp270
a(S'2015-02-19 14:12:00.835000'
S'data saved as csv to C:\\Users\\Jbarrett\\Charlie\\charlie\\data\\csv\\L105_stroop.csv'
tp271
a(S'2015-02-19 14:12:01.795000'
g183
tp272
a(S'2015-02-19 14:12:01.805000'
g185
tp273
a(S'2015-02-19 14:12:01.809000'
S'data saved as csv to C:\\Users\\Jbarrett\\Charlie\\charlie\\data\\csv\\L105_stroop.csv'
tp274
a(S'2015-02-19 14:12:02.750000'
g183
tp275
a(S'2015-02-19 14:12:02.760000'
g185
tp276
a(S'2015-02-19 14:12:02.764000'
S'data saved as csv to C:\\Users\\Jbarrett\\Charlie\\charlie\\data\\csv\\L105_stroop.csv'
tp277
a(S'2015-02-19 14:12:04.035000'
g183
tp278
a(S'2015-02-19 14:12:04.045000'
g185
tp279
a(S'2015-02-19 14:12:04.049000'
S'data saved as csv to C:\\Users\\Jbarrett\\Charlie\\charlie\\data\\csv\\L105_stroop.csv'
tp280
a(S'2015-02-19 14:12:04.907000'
g183
tp281
a(S'2015-02-19 14:12:04.917000'
g185
tp282
a(S'2015-02-19 14:12:04.922000'
S'data saved as csv to C:\\Users\\Jbarrett\\Charlie\\charlie\\data\\csv\\L105_stroop.csv'
tp283
a(S'2015-02-19 14:12:06.153000'
g183
tp284
a(S'2015-02-19 14:12:06.163000'
g185
tp285
a(S'2015-02-19 14:12:06.168000'
S'data saved as csv to C:\\Users\\Jbarrett\\Charlie\\charlie\\data\\csv\\L105_stroop.csv'
tp286
a(S'2015-02-19 14:12:07.018000'
g183
tp287
a(S'2015-02-19 14:12:07.028000'
g185
tp288
a(S'2015-02-19 14:12:07.032000'
S'data saved as csv to C:\\Users\\Jbarrett\\Charlie\\charlie\\data\\csv\\L105_stroop.csv'
tp289
a(S'2015-02-19 14:12:07.893000'
g183
tp290
a(S'2015-02-19 14:12:07.903000'
g185
tp291
a(S'2015-02-19 14:12:07.907000'
S'data saved as csv to C:\\Users\\Jbarrett\\Charlie\\charlie\\data\\csv\\L105_stroop.csv'
tp292
a(S'2015-02-19 14:12:08.808000'
g183
tp293
a(S'2015-02-19 14:12:08.819000'
g185
tp294
a(S'2015-02-19 14:12:08.823000'
S'data saved as csv to C:\\Users\\Jbarrett\\Charlie\\charlie\\data\\csv\\L105_stroop.csv'
tp295
a(S'2015-02-19 14:12:09.744000'
g183
tp296
a(S'2015-02-19 14:12:09.754000'
g185
tp297
a(S'2015-02-19 14:12:09.758000'
S'data saved as csv to C:\\Users\\Jbarrett\\Charlie\\charlie\\data\\csv\\L105_stroop.csv'
tp298
a(S'2015-02-19 14:12:11.669000'
g183
tp299
a(S'2015-02-19 14:12:11.679000'
g185
tp300
a(S'2015-02-19 14:12:11.683000'
S'data saved as csv to C:\\Users\\Jbarrett\\Charlie\\charlie\\data\\csv\\L105_stroop.csv'
tp301
a(S'2015-02-19 14:12:12.634000'
g183
tp302
a(S'2015-02-19 14:12:12.644000'
g185
tp303
a(S'2015-02-19 14:12:12.648000'
S'data saved as csv to C:\\Users\\Jbarrett\\Charlie\\charlie\\data\\csv\\L105_stroop.csv'
tp304
a(S'2015-02-19 14:12:13.399000'
g183
tp305
a(S'2015-02-19 14:12:13.409000'
g185
tp306
a(S'2015-02-19 14:12:13.411000'
S'data saved as csv to C:\\Users\\Jbarrett\\Charlie\\charlie\\data\\csv\\L105_stroop.csv'
tp307
a(S'2015-02-19 14:12:14.300000'
g183
tp308
a(S'2015-02-19 14:12:14.310000'
g185
tp309
a(S'2015-02-19 14:12:14.314000'
S'data saved as csv to C:\\Users\\Jbarrett\\Charlie\\charlie\\data\\csv\\L105_stroop.csv'
tp310
a(S'2015-02-19 14:12:15.125000'
g183
tp311
a(S'2015-02-19 14:12:15.136000'
g185
tp312
a(S'2015-02-19 14:12:15.140000'
S'data saved as csv to C:\\Users\\Jbarrett\\Charlie\\charlie\\data\\csv\\L105_stroop.csv'
tp313
a(S'2015-02-19 14:12:15.951000'
g183
tp314
a(S'2015-02-19 14:12:15.962000'
g185
tp315
a(S'2015-02-19 14:12:15.966000'
S'data saved as csv to C:\\Users\\Jbarrett\\Charlie\\charlie\\data\\csv\\L105_stroop.csv'
tp316
a(S'2015-02-19 14:12:16.907000'
g183
tp317
a(S'2015-02-19 14:12:16.918000'
g185
tp318
a(S'2015-02-19 14:12:16.922000'
S'data saved as csv to C:\\Users\\Jbarrett\\Charlie\\charlie\\data\\csv\\L105_stroop.csv'
tp319
a(S'2015-02-19 14:12:17.733000'
g183
tp320
a(S'2015-02-19 14:12:17.743000'
g185
tp321
a(S'2015-02-19 14:12:17.747000'
S'data saved as csv to C:\\Users\\Jbarrett\\Charlie\\charlie\\data\\csv\\L105_stroop.csv'
tp322
a(S'2015-02-19 14:12:18.658000'
g183
tp323
a(S'2015-02-19 14:12:18.669000'
g185
tp324
a(S'2015-02-19 14:12:18.673000'
S'data saved as csv to C:\\Users\\Jbarrett\\Charlie\\charlie\\data\\csv\\L105_stroop.csv'
tp325
a(S'2015-02-19 14:12:19.664000'
g183
tp326
a(S'2015-02-19 14:12:19.674000'
g185
tp327
a(S'2015-02-19 14:12:19.679000'
S'data saved as csv to C:\\Users\\Jbarrett\\Charlie\\charlie\\data\\csv\\L105_stroop.csv'
tp328
a(S'2015-02-19 14:12:20.439000'
g183
tp329
a(S'2015-02-19 14:12:20.450000'
g185
tp330
a(S'2015-02-19 14:12:20.454000'
S'data saved as csv to C:\\Users\\Jbarrett\\Charlie\\charlie\\data\\csv\\L105_stroop.csv'
tp331
a(S'2015-02-19 14:12:21.194000'
g183
tp332
a(S'2015-02-19 14:12:21.204000'
g185
tp333
a(S'2015-02-19 14:12:21.208000'
S'data saved as csv to C:\\Users\\Jbarrett\\Charlie\\charlie\\data\\csv\\L105_stroop.csv'
tp334
a(S'2015-02-19 14:12:22.037000'
g183
tp335
a(S'2015-02-19 14:12:22.048000'
g185
tp336
a(S'2015-02-19 14:12:22.053000'
S'data saved as csv to C:\\Users\\Jbarrett\\Charlie\\charlie\\data\\csv\\L105_stroop.csv'
tp337
a(S'2015-02-19 14:12:22.803000'
g183
tp338
a(S'2015-02-19 14:12:22.814000'
g185
tp339
a(S'2015-02-19 14:12:22.818000'
S'data saved as csv to C:\\Users\\Jbarrett\\Charlie\\charlie\\data\\csv\\L105_stroop.csv'
tp340
a(S'2015-02-19 14:12:23.889000'
g183
tp341
a(S'2015-02-19 14:12:23.900000'
g185
tp342
a(S'2015-02-19 14:12:23.904000'
S'data saved as csv to C:\\Users\\Jbarrett\\Charlie\\charlie\\data\\csv\\L105_stroop.csv'
tp343
a(S'2015-02-19 14:12:24.873000'
g183
tp344
a(S'2015-02-19 14:12:24.884000'
g185
tp345
a(S'2015-02-19 14:12:24.889000'
S'data saved as csv to C:\\Users\\Jbarrett\\Charlie\\charlie\\data\\csv\\L105_stroop.csv'
tp346
a(S'2015-02-19 14:12:25.628000'
g183
tp347
a(S'2015-02-19 14:12:25.639000'
g185
tp348
a(S'2015-02-19 14:12:25.644000'
S'data saved as csv to C:\\Users\\Jbarrett\\Charlie\\charlie\\data\\csv\\L105_stroop.csv'
tp349
a(S'2015-02-19 14:12:26.493000'
g183
tp350
a(S'2015-02-19 14:12:26.504000'
g185
tp351
a(S'2015-02-19 14:12:26.508000'
S'data saved as csv to C:\\Users\\Jbarrett\\Charlie\\charlie\\data\\csv\\L105_stroop.csv'
tp352
a(S'2015-02-19 14:12:27.679000'
g183
tp353
a(S'2015-02-19 14:12:27.690000'
g185
tp354
a(S'2015-02-19 14:12:27.695000'
S'data saved as csv to C:\\Users\\Jbarrett\\Charlie\\charlie\\data\\csv\\L105_stroop.csv'
tp355
a(S'2015-02-19 14:12:28.426000'
g183
tp356
a(S'2015-02-19 14:12:28.437000'
g185
tp357
a(S'2015-02-19 14:12:28.442000'
S'data saved as csv to C:\\Users\\Jbarrett\\Charlie\\charlie\\data\\csv\\L105_stroop.csv'
tp358
a(S'2015-02-19 14:12:29.443000'
g183
tp359
a(S'2015-02-19 14:12:29.454000'
g185
tp360
a(S'2015-02-19 14:12:29.458000'
S'data saved as csv to C:\\Users\\Jbarrett\\Charlie\\charlie\\data\\csv\\L105_stroop.csv'
tp361
a(S'2015-02-19 14:12:30.286000'
g183
tp362
a(S'2015-02-19 14:12:30.298000'
g185
tp363
a(S'2015-02-19 14:12:30.302000'
S'data saved as csv to C:\\Users\\Jbarrett\\Charlie\\charlie\\data\\csv\\L105_stroop.csv'
tp364
a(S'2015-02-19 14:12:31.383000'
g183
tp365
a(S'2015-02-19 14:12:31.394000'
g185
tp366
a(S'2015-02-19 14:12:31.399000'
S'data saved as csv to C:\\Users\\Jbarrett\\Charlie\\charlie\\data\\csv\\L105_stroop.csv'
tp367
a(S'2015-02-19 14:12:32.471000'
g183
tp368
a(S'2015-02-19 14:12:32.482000'
g185
tp369
a(S'2015-02-19 14:12:32.486000'
S'data saved as csv to C:\\Users\\Jbarrett\\Charlie\\charlie\\data\\csv\\L105_stroop.csv'
tp370
a(S'2015-02-19 14:12:33.236000'
g183
tp371
a(S'2015-02-19 14:12:33.246000'
g185
tp372
a(S'2015-02-19 14:12:33.251000'
S'data saved as csv to C:\\Users\\Jbarrett\\Charlie\\charlie\\data\\csv\\L105_stroop.csv'
tp373
a(S'2015-02-19 14:12:34.123000'
g183
tp374
a(S'2015-02-19 14:12:34.133000'
g185
tp375
a(S'2015-02-19 14:12:34.138000'
S'data saved as csv to C:\\Users\\Jbarrett\\Charlie\\charlie\\data\\csv\\L105_stroop.csv'
tp376
a(S'2015-02-19 14:12:35.118000'
g183
tp377
a(S'2015-02-19 14:12:35.129000'
g185
tp378
a(S'2015-02-19 14:12:35.134000'
S'data saved as csv to C:\\Users\\Jbarrett\\Charlie\\charlie\\data\\csv\\L105_stroop.csv'
tp379
a(S'2015-02-19 14:12:36.515000'
g183
tp380
a(S'2015-02-19 14:12:36.527000'
g185
tp381
a(S'2015-02-19 14:12:36.531000'
S'data saved as csv to C:\\Users\\Jbarrett\\Charlie\\charlie\\data\\csv\\L105_stroop.csv'
tp382
a(S'2015-02-19 14:12:37.533000'
g183
tp383
a(S'2015-02-19 14:12:37.543000'
g185
tp384
a(S'2015-02-19 14:12:37.548000'
S'data saved as csv to C:\\Users\\Jbarrett\\Charlie\\charlie\\data\\csv\\L105_stroop.csv'
tp385
a(S'2015-02-19 14:12:39.149000'
g183
tp386
a(S'2015-02-19 14:12:39.161000'
g185
tp387
a(S'2015-02-19 14:12:39.165000'
S'data saved as csv to C:\\Users\\Jbarrett\\Charlie\\charlie\\data\\csv\\L105_stroop.csv'
tp388
a(S'2015-02-19 14:12:40.297000'
g183
tp389
a(S'2015-02-19 14:12:40.308000'
g185
tp390
a(S'2015-02-19 14:12:40.313000'
S'data saved as csv to C:\\Users\\Jbarrett\\Charlie\\charlie\\data\\csv\\L105_stroop.csv'
tp391
a(S'2015-02-19 14:12:41.343000'
g183
tp392
a(S'2015-02-19 14:12:41.354000'
g185
tp393
a(S'2015-02-19 14:12:41.359000'
S'data saved as csv to C:\\Users\\Jbarrett\\Charlie\\charlie\\data\\csv\\L105_stroop.csv'
tp394
a(S'2015-02-19 14:12:42.271000'
g183
tp395
a(S'2015-02-19 14:12:42.282000'
g185
tp396
a(S'2015-02-19 14:12:42.287000'
S'data saved as csv to C:\\Users\\Jbarrett\\Charlie\\charlie\\data\\csv\\L105_stroop.csv'
tp397
a(S'2015-02-19 14:12:44.349000'
g183
tp398
a(S'2015-02-19 14:12:44.360000'
g185
tp399
a(S'2015-02-19 14:12:44.365000'
S'data saved as csv to C:\\Users\\Jbarrett\\Charlie\\charlie\\data\\csv\\L105_stroop.csv'
tp400
a(S'2015-02-19 14:12:45.785000'
g183
tp401
a(S'2015-02-19 14:12:45.796000'
g185
tp402
a(S'2015-02-19 14:12:45.801000'
S'data saved as csv to C:\\Users\\Jbarrett\\Charlie\\charlie\\data\\csv\\L105_stroop.csv'
tp403
a(S'2015-02-19 14:12:46.612000'
g183
tp404
a(S'2015-02-19 14:12:46.623000'
g185
tp405
a(S'2015-02-19 14:12:46.628000'
S'data saved as csv to C:\\Users\\Jbarrett\\Charlie\\charlie\\data\\csv\\L105_stroop.csv'
tp406
a(S'2015-02-19 14:12:47.570000'
g183
tp407
a(S'2015-02-19 14:12:47.581000'
g185
tp408
a(S'2015-02-19 14:12:47.586000'
S'data saved as csv to C:\\Users\\Jbarrett\\Charlie\\charlie\\data\\csv\\L105_stroop.csv'
tp409
a(S'2015-02-19 14:12:48.588000'
g183
tp410
a(S'2015-02-19 14:12:48.599000'
g185
tp411
a(S'2015-02-19 14:12:48.604000'
S'data saved as csv to C:\\Users\\Jbarrett\\Charlie\\charlie\\data\\csv\\L105_stroop.csv'
tp412
a(S'2015-02-19 14:12:49.596000'
g183
tp413
a(S'2015-02-19 14:12:49.607000'
g185
tp414
a(S'2015-02-19 14:12:49.612000'
S'data saved as csv to C:\\Users\\Jbarrett\\Charlie\\charlie\\data\\csv\\L105_stroop.csv'
tp415
a(S'2015-02-19 14:12:50.823000'
g183
tp416
a(S'2015-02-19 14:12:50.834000'
g185
tp417
a(S'2015-02-19 14:12:50.839000'
S'data saved as csv to C:\\Users\\Jbarrett\\Charlie\\charlie\\data\\csv\\L105_stroop.csv'
tp418
a(S'2015-02-19 14:12:51.721000'
g183
tp419
a(S'2015-02-19 14:12:51.732000'
g185
tp420
a(S'2015-02-19 14:12:51.737000'
S'data saved as csv to C:\\Users\\Jbarrett\\Charlie\\charlie\\data\\csv\\L105_stroop.csv'
tp421
a(S'2015-02-19 14:12:52.939000'
g183
tp422
a(S'2015-02-19 14:12:52.950000'
g185
tp423
a(S'2015-02-19 14:12:52.955000'
S'data saved as csv to C:\\Users\\Jbarrett\\Charlie\\charlie\\data\\csv\\L105_stroop.csv'
tp424
a(S'2015-02-19 14:12:54.107000'
g183
tp425
a(S'2015-02-19 14:12:54.118000'
g185
tp426
a(S'2015-02-19 14:12:54.123000'
S'data saved as csv to C:\\Users\\Jbarrett\\Charlie\\charlie\\data\\csv\\L105_stroop.csv'
tp427
a(S'2015-02-19 14:12:55.205000'
g183
tp428
a(S'2015-02-19 14:12:55.217000'
g185
tp429
a(S'2015-02-19 14:12:55.221000'
S'data saved as csv to C:\\Users\\Jbarrett\\Charlie\\charlie\\data\\csv\\L105_stroop.csv'
tp430
a(S'2015-02-19 14:12:56.263000'
g183
tp431
a(S'2015-02-19 14:12:56.274000'
g185
tp432
a(S'2015-02-19 14:12:56.277000'
S'data saved as csv to C:\\Users\\Jbarrett\\Charlie\\charlie\\data\\csv\\L105_stroop.csv'
tp433
a(S'2015-02-19 14:12:57.087000'
g183
tp434
a(S'2015-02-19 14:12:57.098000'
g185
tp435
a(S'2015-02-19 14:12:57.103000'
S'data saved as csv to C:\\Users\\Jbarrett\\Charlie\\charlie\\data\\csv\\L105_stroop.csv'
tp436
a(S'2015-02-19 14:12:58.025000'
g183
tp437
a(S'2015-02-19 14:12:58.036000'
g185
tp438
a(S'2015-02-19 14:12:58.041000'
S'data saved as csv to C:\\Users\\Jbarrett\\Charlie\\charlie\\data\\csv\\L105_stroop.csv'
tp439
a(S'2015-02-19 14:12:58.852000'
g183
tp440
a(S'2015-02-19 14:12:58.863000'
g185
tp441
a(S'2015-02-19 14:12:58.868000'
S'data saved as csv to C:\\Users\\Jbarrett\\Charlie\\charlie\\data\\csv\\L105_stroop.csv'
tp442
a(S'2015-02-19 14:13:00.130000'
g183
tp443
a(S'2015-02-19 14:13:00.141000'
g185
tp444
a(S'2015-02-19 14:13:00.145000'
S'data saved as csv to C:\\Users\\Jbarrett\\Charlie\\charlie\\data\\csv\\L105_stroop.csv'
tp445
a(S'2015-02-19 14:13:00.900000'
g183
tp446
a(S'2015-02-19 14:13:00.906000'
g185
tp447
a(S'2015-02-19 14:13:00.909000'
S'data saved as csv to C:\\Users\\Jbarrett\\Charlie\\charlie\\data\\csv\\L105_stroop.csv'
tp448
a(S'2015-02-19 14:13:01.928000'
g183
tp449
a(S'2015-02-19 14:13:01.939000'
g185
tp450
a(S'2015-02-19 14:13:01.944000'
S'data saved as csv to C:\\Users\\Jbarrett\\Charlie\\charlie\\data\\csv\\L105_stroop.csv'
tp451
a(S'2015-02-19 14:13:02.873000'
g183
tp452
a(S'2015-02-19 14:13:02.884000'
g185
tp453
a(S'2015-02-19 14:13:02.890000'
S'data saved as csv to C:\\Users\\Jbarrett\\Charlie\\charlie\\data\\csv\\L105_stroop.csv'
tp454
a(S'2015-02-19 14:13:03.862000'
g183
tp455
a(S'2015-02-19 14:13:03.874000'
g185
tp456
a(S'2015-02-19 14:13:03.879000'
S'data saved as csv to C:\\Users\\Jbarrett\\Charlie\\charlie\\data\\csv\\L105_stroop.csv'
tp457
a(S'2015-02-19 14:13:04.901000'
g183
tp458
a(S'2015-02-19 14:13:04.913000'
g185
tp459
a(S'2015-02-19 14:13:04.916000'
S'data saved as csv to C:\\Users\\Jbarrett\\Charlie\\charlie\\data\\csv\\L105_stroop.csv'
tp460
a(S'2015-02-19 14:13:05.896000'
g183
tp461
a(S'2015-02-19 14:13:05.908000'
g185
tp462
a(S'2015-02-19 14:13:05.913000'
S'data saved as csv to C:\\Users\\Jbarrett\\Charlie\\charlie\\data\\csv\\L105_stroop.csv'
tp463
a(S'2015-02-19 14:13:06.795000'
g183
tp464
a(S'2015-02-19 14:13:06.807000'
g185
tp465
a(S'2015-02-19 14:13:06.812000'
S'data saved as csv to C:\\Users\\Jbarrett\\Charlie\\charlie\\data\\csv\\L105_stroop.csv'
tp466
a(S'2015-02-19 14:13:07.664000'
g183
tp467
a(S'2015-02-19 14:13:07.675000'
g185
tp468
a(S'2015-02-19 14:13:07.679000'
S'data saved as csv to C:\\Users\\Jbarrett\\Charlie\\charlie\\data\\csv\\L105_stroop.csv'
tp469
a(S'2015-02-19 14:13:08.479000'
g183
tp470
a(S'2015-02-19 14:13:08.491000'
g185
tp471
a(S'2015-02-19 14:13:08.496000'
S'data saved as csv to C:\\Users\\Jbarrett\\Charlie\\charlie\\data\\csv\\L105_stroop.csv'
tp472
a(S'2015-02-19 14:13:09.558000'
g183
tp473
a(S'2015-02-19 14:13:09.570000'
g185
tp474
a(S'2015-02-19 14:13:09.575000'
S'data saved as csv to C:\\Users\\Jbarrett\\Charlie\\charlie\\data\\csv\\L105_stroop.csv'
tp475
a(S'2015-02-19 14:13:10.608000'
g183
tp476
a(S'2015-02-19 14:13:10.619000'
g185
tp477
a(S'2015-02-19 14:13:10.624000'
S'data saved as csv to C:\\Users\\Jbarrett\\Charlie\\charlie\\data\\csv\\L105_stroop.csv'
tp478
a(S'2015-02-19 14:13:11.916000'
g183
tp479
a(S'2015-02-19 14:13:11.928000'
g185
tp480
a(S'2015-02-19 14:13:11.933000'
S'data saved as csv to C:\\Users\\Jbarrett\\Charlie\\charlie\\data\\csv\\L105_stroop.csv'
tp481
a(S'2015-02-19 14:13:13.214000'
g183
tp482
a(S'2015-02-19 14:13:13.225000'
g185
tp483
a(S'2015-02-19 14:13:13.228000'
S'data saved as csv to C:\\Users\\Jbarrett\\Charlie\\charlie\\data\\csv\\L105_stroop.csv'
tp484
a(S'2015-02-19 14:13:14.358000'
g183
tp485
a(S'2015-02-19 14:13:14.369000'
g185
tp486
a(S'2015-02-19 14:13:14.374000'
S'data saved as csv to C:\\Users\\Jbarrett\\Charlie\\charlie\\data\\csv\\L105_stroop.csv'
tp487
a(S'2015-02-19 14:13:15.366000'
g183
tp488
a(S'2015-02-19 14:13:15.378000'
g185
tp489
a(S'2015-02-19 14:13:15.383000'
S'data saved as csv to C:\\Users\\Jbarrett\\Charlie\\charlie\\data\\csv\\L105_stroop.csv'
tp490
a(S'2015-02-19 14:13:17.233000'
g183
tp491
a(S'2015-02-19 14:13:17.244000'
g185
tp492
a(S'2015-02-19 14:13:17.247000'
S'data saved as csv to C:\\Users\\Jbarrett\\Charlie\\charlie\\data\\csv\\L105_stroop.csv'
tp493
a(S'2015-02-19 14:13:18.126000'
g183
tp494
a(S'2015-02-19 14:13:18.138000'
g185
tp495
a(S'2015-02-19 14:13:18.143000'
S'data saved as csv to C:\\Users\\Jbarrett\\Charlie\\charlie\\data\\csv\\L105_stroop.csv'
tp496
a(S'2015-02-19 14:13:19.073000'
g183
tp497
a(S'2015-02-19 14:13:19.084000'
g185
tp498
a(S'2015-02-19 14:13:19.089000'
S'data saved as csv to C:\\Users\\Jbarrett\\Charlie\\charlie\\data\\csv\\L105_stroop.csv'
tp499
a(S'2015-02-19 14:13:21.223000'
g183
tp500
a(S'2015-02-19 14:13:21.234000'
g185
tp501
a(S'2015-02-19 14:13:21.237000'
S'data saved as csv to C:\\Users\\Jbarrett\\Charlie\\charlie\\data\\csv\\L105_stroop.csv'
tp502
a(S'2015-02-19 14:13:22.127000'
g183
tp503
a(S'2015-02-19 14:13:22.139000'
g185
tp504
a(S'2015-02-19 14:13:22.144000'
S'data saved as csv to C:\\Users\\Jbarrett\\Charlie\\charlie\\data\\csv\\L105_stroop.csv'
tp505
a(S'2015-02-19 14:13:22.957000'
g183
tp506
a(S'2015-02-19 14:13:22.969000'
g185
tp507
a(S'2015-02-19 14:13:22.974000'
S'data saved as csv to C:\\Users\\Jbarrett\\Charlie\\charlie\\data\\csv\\L105_stroop.csv'
tp508
a(S'2015-02-19 14:13:24.094000'
g183
tp509
a(S'2015-02-19 14:13:24.106000'
g185
tp510
a(S'2015-02-19 14:13:24.111000'
S'data saved as csv to C:\\Users\\Jbarrett\\Charlie\\charlie\\data\\csv\\L105_stroop.csv'
tp511
a(S'2015-02-19 14:13:25.162000'
g183
tp512
a(S'2015-02-19 14:13:25.174000'
g185
tp513
a(S'2015-02-19 14:13:25.179000'
S'data saved as csv to C:\\Users\\Jbarrett\\Charlie\\charlie\\data\\csv\\L105_stroop.csv'
tp514
a(S'2015-02-19 14:13:26.212000'
g183
tp515
a(S'2015-02-19 14:13:26.224000'
g185
tp516
a(S'2015-02-19 14:13:26.229000'
S'data saved as csv to C:\\Users\\Jbarrett\\Charlie\\charlie\\data\\csv\\L105_stroop.csv'
tp517
a(S'2015-02-19 14:13:27.022000'
g183
tp518
a(S'2015-02-19 14:13:27.030000'
g185
tp519
a(S'2015-02-19 14:13:27.034000'
S'data saved as csv to C:\\Users\\Jbarrett\\Charlie\\charlie\\data\\csv\\L105_stroop.csv'
tp520
a(S'2015-02-19 14:13:28.035000'
g183
tp521
a(S'2015-02-19 14:13:28.047000'
g185
tp522
a(S'2015-02-19 14:13:28.052000'
S'data saved as csv to C:\\Users\\Jbarrett\\Charlie\\charlie\\data\\csv\\L105_stroop.csv'
tp523
a(S'2015-02-19 14:13:28.803000'
g183
tp524
a(S'2015-02-19 14:13:28.815000'
g185
tp525
a(S'2015-02-19 14:13:28.820000'
S'data saved as csv to C:\\Users\\Jbarrett\\Charlie\\charlie\\data\\csv\\L105_stroop.csv'
tp526
a(S'2015-02-19 14:13:29.662000'
g183
tp527
a(S'2015-02-19 14:13:29.674000'
g185
tp528
a(S'2015-02-19 14:13:29.702000'
S'data saved as csv to C:\\Users\\Jbarrett\\Charlie\\charlie\\data\\csv\\L105_stroop.csv'
tp529
a(S'2015-02-19 14:13:30.532000'
g183
tp530
a(S'2015-02-19 14:13:30.543000'
g185
tp531
a(S'2015-02-19 14:13:30.549000'
S'data saved as csv to C:\\Users\\Jbarrett\\Charlie\\charlie\\data\\csv\\L105_stroop.csv'
tp532
asb.