(icharlie.tools.data
Data
p1
(dp2
S'lang'
p3
S'EN'
p4
sS'control'
p5
(lp6
sS'last_updated'
p7
cdatetime
datetime
p8
(S'\x07\xdf\x02\x0c\x0e\x14\x15\x08\xca\x00'
tRp9
sS'last_opened'
p10
g8
(S'\x07\xdf\x02\x0c\x0e\x11\x12\x00\x07\xd0'
tRp11
sS'proj_id'
p12
S''
sS'date_done'
p13
NsS'test_done'
p14
I01
sS'data'
p15
(lp16
(S'R101'
p17
S'ctrails'
p18
S'number'
p19
S'practice'
p20
I0
I1
S'Correct'
p21
I1740
I7731
tp22
a(g17
g18
g19
g20
I1
I2
g21
I1170
I7731
tp23
a(g17
g18
g19
g20
I2
I3
g21
I680
I7731
tp24
a(g17
g18
g19
g20
I3
I4
g21
I620
I7731
tp25
a(g17
g18
g19
g20
I4
I5
g21
I660
I7731
tp26
a(g17
g18
g19
g20
I5
I6
g21
I700
I7731
tp27
a(g17
g18
g19
g20
I6
I7
g21
I1347
I7731
tp28
a(g17
g18
g19
g20
I7
I8
g21
I770
I7731
tp29
a(g17
g18
g19
S'test'
p30
I0
I1
g21
I1311
I30991
tp31
a(g17
g18
g19
g30
I1
I2
g21
I750
I30991
tp32
a(g17
g18
g19
g30
I2
I3
g21
I880
I30991
tp33
a(g17
g18
g19
g30
I3
I4
g21
I870
I30991
tp34
a(g17
g18
g19
g30
I4
I5
g21
I860
I30991
tp35
a(g17
g18
g19
g30
I5
I6
g21
I2250
I30991
tp36
a(g17
g18
g19
g30
I6
I7
g21
I800
I30991
tp37
a(g17
g18
g19
g30
I7
I8
g21
I690
I30991
tp38
a(g17
g18
g19
g30
I8
I9
g21
I810
I30991
tp39
a(g17
g18
g19
g30
I9
I10
g21
I1330
I30991
tp40
a(g17
g18
g19
g30
I10
I11
g21
I1470
I30991
tp41
a(g17
g18
g19
g30
I11
I12
g21
I710
I30991
tp42
a(g17
g18
g19
g30
I12
I13
g21
I850
I30991
tp43
a(g17
g18
g19
g30
I13
I14
g21
I850
I30991
tp44
a(g17
g18
g19
g30
I14
I15
g21
I790
I30991
tp45
a(g17
g18
g19
g30
I15
I16
g21
I1310
I30991
tp46
a(g17
g18
g19
g30
I16
I17
g21
I870
I30991
tp47
a(g17
g18
g19
g30
I17
I18
g21
I1141
I30991
tp48
a(g17
g18
g19
g30
I18
I19
g21
I2250
I30991
tp49
a(g17
g18
g19
g30
I19
I20
g21
I4070
I30991
tp50
a(g17
g18
g19
g30
I20
I21
g21
I1350
I30991
tp51
a(g17
g18
g19
g30
I21
I22
g21
I940
I30991
tp52
a(g17
g18
g19
g30
I22
I23
g21
I900
I30991
tp53
a(g17
g18
g19
g30
I23
I24
g21
I860
I30991
tp54
a(g17
g18
g19
g30
I24
I25
g21
I1060
I30991
tp55
a(g17
g18
g19
g30
I25
I26
g21
I900
I30991
tp56
a(g17
g18
S'letter'
p57
g20
I0
S'a'
g21
I1530
I6876
tp58
a(g17
g18
g57
g20
I1
S'b'
g21
I760
I6876
tp59
a(g17
g18
g57
g20
I2
S'c'
g21
I770
I6876
tp60
a(g17
g18
g57
g20
I3
S'd'
g21
I800
I6876
tp61
a(g17
g18
g57
g20
I4
S'e'
g21
I750
I6876
tp62
a(g17
g18
g57
g20
I5
S'f'
g21
I680
I6876
tp63
a(g17
g18
g57
g20
I6
S'g'
g21
I800
I6876
tp64
a(g17
g18
g57
g20
I7
S'h'
g21
I740
I6876
tp65
a(g17
g18
g57
g30
I0
S'a'
g21
I2490
I31820
tp66
a(g17
g18
g57
g30
I1
S'b'
g21
I950
I31820
tp67
a(g17
g18
g57
g30
I2
S'c'
g21
I1320
I31820
tp68
a(g17
g18
g57
g30
I3
S'd'
g21
I2020
I31820
tp69
a(g17
g18
g57
g30
I4
S'e'
g21
I560
I31820
tp70
a(g17
g18
g57
g30
I5
S'f'
g21
I810
I31820
tp71
a(g17
g18
g57
g30
I6
S'g'
g21
I880
I31820
tp72
a(g17
g18
g57
g30
I7
S'h'
g21
I3110
I31820
tp73
a(g17
g18
g57
g30
I8
S'i'
g21
I1470
I31820
tp74
a(g17
g18
g57
g30
I9
S'j'
g21
I570
I31820
tp75
a(g17
g18
g57
g30
I10
S'k'
g21
I1180
I31820
tp76
a(g17
g18
g57
g30
I11
S'l'
g21
I1241
I31820
tp77
a(g17
g18
g57
g30
I12
S'm'
g21
I700
I31820
tp78
a(g17
g18
g57
g30
I13
S'n'
g21
I1570
I31820
tp79
a(g17
g18
g57
g30
I14
S'o'
g21
I550
I31820
tp80
a(g17
g18
g57
g30
I15
S'p'
g21
I990
I31820
tp81
a(g17
g18
g57
g30
I16
S'q'
g21
I4040
I31820
tp82
a(g17
g18
g57
g30
I17
S'r'
g21
I570
I31820
tp83
a(g17
g18
g57
g30
I18
S's'
g21
I490
I31820
tp84
a(g17
g18
g57
g30
I19
S't'
g21
I420
I31820
tp85
a(g17
g18
g57
g30
I20
S'u'
g21
I550
I31820
tp86
a(g17
g18
g57
g30
I21
S'v'
g21
I550
I31820
tp87
a(g17
g18
g57
g30
I22
S'w'
g21
I470
I31820
tp88
a(g17
g18
g57
g30
I23
S'x'
g21
I2960
I31820
tp89
a(g17
g18
g57
g30
I24
S'y'
g21
I560
I31820
tp90
a(g17
g18
g57
g30
I25
S'z'
g21
I680
I31820
tp91
a(g17
g18
S'number-letter'
p92
g20
I0
I1
g21
I1280
I6557
tp93
a(g17
g18
g92
g20
I1
S'a'
g21
I860
I6557
tp94
a(g17
g18
g92
g20
I2
I2
g21
I1080
I6557
tp95
a(g17
g18
g92
g20
I3
S'b'
g21
I830
I6557
tp96
a(g17
g18
g92
g20
I4
I3
g21
I741
I6557
tp97
a(g17
g18
g92
g20
I5
S'c'
g21
I500
I6557
tp98
a(g17
g18
g92
g20
I6
I4
g21
I600
I6557
tp99
a(g17
g18
g92
g20
I7
S'd'
g21
I620
I6557
tp100
a(g17
g18
g92
g30
I0
I1
g21
I1690
I31116
tp101
a(g17
g18
g92
g30
I1
S'a'
g21
I750
I31116
tp102
a(g17
g18
g92
g30
I2
I2
g21
I1170
I31116
tp103
a(g17
g18
g92
g30
I3
S'b'
g21
I1791
I31116
tp104
a(g17
g18
g92
g30
I4
I3
g21
I730
I31116
tp105
a(g17
g18
g92
g30
I5
S'c'
g21
I690
I31116
tp106
a(g17
g18
g92
g30
I6
I4
g21
I620
I31116
tp107
a(g17
g18
g92
g30
I7
S'd'
g21
I770
I31116
tp108
a(g17
g18
g92
g30
I8
I5
g21
I2100
I31116
tp109
a(g17
g18
g92
g30
I9
S'e'
g21
I690
I31116
tp110
a(g17
g18
g92
g30
I10
I6
g21
I2890
I31116
tp111
a(g17
g18
g92
g30
I11
S'f'
g21
I800
I31116
tp112
a(g17
g18
g92
g30
I12
I7
g21
I740
I31116
tp113
a(g17
g18
g92
g30
I13
S'g'
g21
I830
I31116
tp114
a(g17
g18
g92
g30
I14
I8
g21
I830
I31116
tp115
a(g17
g18
g92
g30
I15
S'h'
g21
I700
I31116
tp116
a(g17
g18
g92
g30
I16
I9
g21
I770
I31116
tp117
a(g17
g18
g92
g30
I17
S'i'
g21
I780
I31116
tp118
a(g17
g18
g92
g30
I18
I10
g21
I810
I31116
tp119
a(g17
g18
g92
g30
I19
S'j'
g21
I1460
I31116
tp120
a(g17
g18
g92
g30
I20
I11
g21
I1111
I31116
tp121
a(g17
g18
g92
g30
I21
S'k'
g21
I4320
I31116
tp122
a(g17
g18
g92
g30
I22
I12
g21
I1700
I31116
tp123
a(g17
g18
g92
g30
I23
S'l'
g21
I910
I31116
tp124
a(g17
g18
g92
g30
I24
I13
g21
I560
I31116
tp125
a(g17
g18
g92
g30
I25
S'm'
g21
I780
I31116
tp126
asS'output_format'
p127
(lp128
(S'proband_id'
p129
c__builtin__
str
p130
tp131
a(S'test_name'
p132
g130
tp133
a(S'phase'
p134
g130
tp135
a(S'trial_type'
p136
g130
tp137
a(S'n'
c__builtin__
int
p138
tp139
a(S'rsp'
p140
g130
tp141
a(S'corr'
p142
g130
tp143
a(S'rt'
p144
g138
tp145
a(S'total_time'
p146
g138
tp147
asg129
g17
sS'filename'
p148
S'R101_ctrails.data'
p149
sS'initialised'
p150
g8
(S'\x07\xdf\x02\x0c\x0e\x11\x12\x00\x07\xd0'
tRp151
sS'last_udated'
p152
g8
(S'\x07\xdf\x02\x0c\x0e\x11\x12\x00\x07\xd0'
tRp153
sg132
S'ctrails'
p154
sS'directory'
p155
S'C:\\Users\\Jbarrett\\Charlie\\charlie\\data\\raw'
p156
sS'user_id'
p157
S''
sS'test_started'
p158
I01
sS'abs_filename'
p159
S'C:\\Users\\Jbarrett\\Charlie\\charlie\\data\\raw\\R101_ctrails.data'
p160
sS'date_started'
p161
g8
(S'\x07\xdf\x02\x0c\x0e\x11*\x0e\x92x'
tRp162
sS'log'
p163
(lp164
(S'2015-02-12 14:17:18.002000'
S'instance created'
p165
tp166
a(S'2015-02-12 14:17:42.964000'
S'instance updated'
p167
tp168
a(S'2015-02-12 14:17:42.975000'
S'pandas DataFrame of data created'
p169
tp170
a(S'2015-02-12 14:17:42.979000'
S'data saved as csv to C:\\Users\\Jbarrett\\Charlie\\charlie\\data\\csv\\R101_ctrails.csv'
tp171
a(S'2015-02-12 14:18:23.388000'
g167
tp172
a(S'2015-02-12 14:18:23.399000'
g169
tp173
a(S'2015-02-12 14:18:23.402000'
S'data saved as csv to C:\\Users\\Jbarrett\\Charlie\\charlie\\data\\csv\\R101_ctrails.csv'
tp174
a(S'2015-02-12 14:18:37.307000'
g167
tp175
a(S'2015-02-12 14:18:37.320000'
g169
tp176
a(S'2015-02-12 14:18:37.322000'
S'data saved as csv to C:\\Users\\Jbarrett\\Charlie\\charlie\\data\\csv\\R101_ctrails.csv'
tp177
a(S'2015-02-12 14:19:18.770000'
g167
tp178
a(S'2015-02-12 14:19:18.781000'
g169
tp179
a(S'2015-02-12 14:19:18.786000'
S'data saved as csv to C:\\Users\\Jbarrett\\Charlie\\charlie\\data\\csv\\R101_ctrails.csv'
tp180
a(S'2015-02-12 14:19:39.765000'
g167
tp181
a(S'2015-02-12 14:19:39.776000'
g169
tp182
a(S'2015-02-12 14:19:39.780000'
S'data saved as csv to C:\\Users\\Jbarrett\\Charlie\\charlie\\data\\csv\\R101_ctrails.csv'
tp183
a(S'2015-02-12 14:20:21.559000'
g167
tp184
a(S'2015-02-12 14:20:21.570000'
g169
tp185
a(S'2015-02-12 14:20:21.575000'
S'data saved as csv to C:\\Users\\Jbarrett\\Charlie\\charlie\\data\\csv\\R101_ctrails.csv'
tp186
asb.