(icharlie.tools.data
Data
p1
(dp2
S'lang'
p3
S'EN'
p4
sS'control'
p5
(lp6
sS'last_updated'
p7
cdatetime
datetime
p8
(S'\x07\xdf\x06\n\n\x01!\x04\x1a\xc8'
tRp9
sS'last_opened'
p10
g8
(S'\x07\xdf\x06\n\t:*\x04\xed\xb8'
tRp11
sS'proj_id'
p12
S'connectivity'
p13
sS'date_done'
p14
NsS'test_done'
p15
I01
sS'data'
p16
(lp17
(S'4273'
p18
S'digit_symbol'
p19
S'practice'
p20
I0
I2
I2
S'Yes'
p21
S'C:\\Users\\Jbarrett\\Charlie\\charlie\\stimuli\\visual\\digit_symbol\\sym2.bmp'
g21
I9570
tp22
a(g18
g19
g20
I1
I6
I6
g21
S'C:\\Users\\Jbarrett\\Charlie\\charlie\\stimuli\\visual\\digit_symbol\\sym6.bmp'
g21
I2710
tp23
a(g18
g19
g20
I2
I8
I4
S'No'
p24
S'C:\\Users\\Jbarrett\\Charlie\\charlie\\stimuli\\visual\\digit_symbol\\sym4.bmp'
g21
I2080
tp25
a(g18
g19
g20
I3
I4
I4
g21
S'C:\\Users\\Jbarrett\\Charlie\\charlie\\stimuli\\visual\\digit_symbol\\sym4.bmp'
g21
I3330
tp26
a(g18
g19
g20
I4
I7
I7
g21
S'C:\\Users\\Jbarrett\\Charlie\\charlie\\stimuli\\visual\\digit_symbol\\sym7.bmp'
g21
I2020
tp27
a(g18
g19
g20
I5
I6
I5
g24
S'C:\\Users\\Jbarrett\\Charlie\\charlie\\stimuli\\visual\\digit_symbol\\sym5.bmp'
g21
I1590
tp28
a(g18
g19
g20
I6
I2
I8
g24
S'C:\\Users\\Jbarrett\\Charlie\\charlie\\stimuli\\visual\\digit_symbol\\sym8.bmp'
g21
I2991
tp29
a(g18
g19
g20
I7
I9
I2
g24
S'C:\\Users\\Jbarrett\\Charlie\\charlie\\stimuli\\visual\\digit_symbol\\sym2.bmp'
g21
I2990
tp30
a(g18
g19
g20
I8
I3
I7
g24
S'C:\\Users\\Jbarrett\\Charlie\\charlie\\stimuli\\visual\\digit_symbol\\sym7.bmp'
g24
I7100
tp31
a(g18
g19
g20
I9
I5
I6
g24
S'C:\\Users\\Jbarrett\\Charlie\\charlie\\stimuli\\visual\\digit_symbol\\sym6.bmp'
g24
I2851
tp32
a(g18
g19
S'test'
p33
I0
I8
I8
g21
S'C:\\Users\\Jbarrett\\Charlie\\charlie\\stimuli\\visual\\digit_symbol\\sym8.bmp'
g21
I3006
tp34
a(g18
g19
g33
I1
I1
I4
g24
S'C:\\Users\\Jbarrett\\Charlie\\charlie\\stimuli\\visual\\digit_symbol\\sym4.bmp'
g24
I5003
tp35
a(g18
g19
g33
I2
I2
I8
g24
S'C:\\Users\\Jbarrett\\Charlie\\charlie\\stimuli\\visual\\digit_symbol\\sym8.bmp'
g24
I2303
tp36
a(g18
g19
g33
I3
I6
I2
g24
S'C:\\Users\\Jbarrett\\Charlie\\charlie\\stimuli\\visual\\digit_symbol\\sym2.bmp'
g24
I1503
tp37
a(g18
g19
g33
I4
I4
I4
g21
S'C:\\Users\\Jbarrett\\Charlie\\charlie\\stimuli\\visual\\digit_symbol\\sym4.bmp'
g21
I1703
tp38
a(g18
g19
g33
I5
I9
I5
g24
S'C:\\Users\\Jbarrett\\Charlie\\charlie\\stimuli\\visual\\digit_symbol\\sym5.bmp'
g24
I2704
tp39
a(g18
g19
g33
I6
I5
I6
g24
S'C:\\Users\\Jbarrett\\Charlie\\charlie\\stimuli\\visual\\digit_symbol\\sym6.bmp'
g24
I3703
tp40
a(g18
g19
g33
I7
I3
I3
g21
S'C:\\Users\\Jbarrett\\Charlie\\charlie\\stimuli\\visual\\digit_symbol\\sym3.bmp'
g21
I2703
tp41
a(g18
g19
g33
I8
I4
I4
g21
S'C:\\Users\\Jbarrett\\Charlie\\charlie\\stimuli\\visual\\digit_symbol\\sym4.bmp'
g21
I2303
tp42
a(g18
g19
g33
I9
I9
I9
g21
S'C:\\Users\\Jbarrett\\Charlie\\charlie\\stimuli\\visual\\digit_symbol\\sym9.bmp'
g21
I1903
tp43
a(g18
g19
g33
I10
I6
I6
g21
S'C:\\Users\\Jbarrett\\Charlie\\charlie\\stimuli\\visual\\digit_symbol\\sym6.bmp'
g21
I2403
tp44
a(g18
g19
g33
I11
I1
I1
g21
S'C:\\Users\\Jbarrett\\Charlie\\charlie\\stimuli\\visual\\digit_symbol\\sym1.bmp'
g21
I3304
tp45
a(g18
g19
g33
I12
I2
I2
g21
S'C:\\Users\\Jbarrett\\Charlie\\charlie\\stimuli\\visual\\digit_symbol\\sym2.bmp'
g21
I2603
tp46
a(g18
g19
g33
I13
I7
I7
g21
S'C:\\Users\\Jbarrett\\Charlie\\charlie\\stimuli\\visual\\digit_symbol\\sym7.bmp'
g21
I3103
tp47
a(g18
g19
g33
I14
I3
I3
g21
S'C:\\Users\\Jbarrett\\Charlie\\charlie\\stimuli\\visual\\digit_symbol\\sym3.bmp'
g21
I2103
tp48
a(g18
g19
g33
I15
I8
I8
g21
S'C:\\Users\\Jbarrett\\Charlie\\charlie\\stimuli\\visual\\digit_symbol\\sym8.bmp'
g21
I6703
tp49
a(g18
g19
g33
I16
I7
I7
g21
S'C:\\Users\\Jbarrett\\Charlie\\charlie\\stimuli\\visual\\digit_symbol\\sym7.bmp'
g21
I7204
tp50
a(g18
g19
g33
I17
I5
I3
g24
S'C:\\Users\\Jbarrett\\Charlie\\charlie\\stimuli\\visual\\digit_symbol\\sym3.bmp'
g24
I3803
tp51
a(g18
g19
g33
I18
I1
I5
g24
S'C:\\Users\\Jbarrett\\Charlie\\charlie\\stimuli\\visual\\digit_symbol\\sym5.bmp'
g21
I3403
tp52
a(g18
g19
g33
I19
I4
I4
g21
S'C:\\Users\\Jbarrett\\Charlie\\charlie\\stimuli\\visual\\digit_symbol\\sym4.bmp'
g21
I2403
tp53
a(g18
g19
g33
I20
I7
I8
g24
S'C:\\Users\\Jbarrett\\Charlie\\charlie\\stimuli\\visual\\digit_symbol\\sym8.bmp'
g24
I2304
tp54
a(g18
g19
g33
I21
I4
I4
g21
S'C:\\Users\\Jbarrett\\Charlie\\charlie\\stimuli\\visual\\digit_symbol\\sym4.bmp'
g21
I1603
tp55
a(g18
g19
g33
I22
I8
I8
g21
S'C:\\Users\\Jbarrett\\Charlie\\charlie\\stimuli\\visual\\digit_symbol\\sym8.bmp'
g21
I3403
tp56
a(g18
g19
g33
I23
I3
I3
g21
S'C:\\Users\\Jbarrett\\Charlie\\charlie\\stimuli\\visual\\digit_symbol\\sym3.bmp'
g21
I1604
tp57
a(g18
g19
g33
I24
I5
I5
g21
S'C:\\Users\\Jbarrett\\Charlie\\charlie\\stimuli\\visual\\digit_symbol\\sym5.bmp'
g21
I1603
tp58
a(g18
g19
g33
I25
I3
I1
g24
S'C:\\Users\\Jbarrett\\Charlie\\charlie\\stimuli\\visual\\digit_symbol\\sym1.bmp'
g24
I2602
tp59
a(g18
g19
g33
I26
I6
I9
g24
S'C:\\Users\\Jbarrett\\Charlie\\charlie\\stimuli\\visual\\digit_symbol\\sym9.bmp'
g21
I1903
tp60
a(g18
g19
g33
I27
I2
I2
g21
S'C:\\Users\\Jbarrett\\Charlie\\charlie\\stimuli\\visual\\digit_symbol\\sym2.bmp'
g21
I3704
tp61
a(g18
g19
g33
I28
I8
I8
g21
S'C:\\Users\\Jbarrett\\Charlie\\charlie\\stimuli\\visual\\digit_symbol\\sym8.bmp'
g21
I2503
tp62
asS'output_format'
p63
(lp64
(S'proband_id'
p65
c__builtin__
str
p66
tp67
a(S'test_name'
p68
g66
tp69
a(S'phase'
p70
g66
tp71
a(S'trialn'
p72
c__builtin__
int
p73
tp74
a(S'digit'
p75
g73
tp76
a(S'symbol'
p77
g73
tp78
a(S'ans'
p79
g66
tp80
a(S'f'
g66
tp81
a(S'rsp'
p82
g66
tp83
a(S'rt'
p84
g73
tp85
asg65
g18
sS'filename'
p86
S'4273_digit_symbol.data'
p87
sS'initialised'
p88
g8
(S'\x07\xdf\x06\n\t:*\x04\xed\xb8'
tRp89
sS'last_udated'
p90
g8
(S'\x07\xdf\x06\n\t:*\x04\xed\xb8'
tRp91
sg68
S'digit_symbol'
p92
sS'directory'
p93
S'C:\\Users\\Jbarrett\\Charlie\\charlie\\data\\raw'
p94
sS'user_id'
p95
S'jbarrett'
p96
sS'test_started'
p97
I01
sS'abs_filename'
p98
S'C:\\Users\\Jbarrett\\Charlie\\charlie\\data\\raw\\4273_digit_symbol.data'
p99
sS'date_started'
p100
g8
(S'\x07\xdf\x06\n\t;\x08\x03k\x00'
tRp101
sS'log'
p102
(lp103
(S'2015-06-10 09:58:42.323000'
S'instance created'
p104
tp105
a(S'2015-06-10 09:59:08.229000'
S'instance updated'
p106
tp107
a(S'2015-06-10 09:59:08.235000'
S'pandas DataFrame of data created'
p108
tp109
a(S'2015-06-10 09:59:08.237000'
S'data saved as csv to C:\\Users\\Jbarrett\\Charlie\\charlie\\data\\csv\\4273_digit_symbol.csv'
tp110
a(S'2015-06-10 09:59:11.972000'
g106
tp111
a(S'2015-06-10 09:59:11.982000'
g108
tp112
a(S'2015-06-10 09:59:11.986000'
S'data saved as csv to C:\\Users\\Jbarrett\\Charlie\\charlie\\data\\csv\\4273_digit_symbol.csv'
tp113
a(S'2015-06-10 09:59:15.104000'
g106
tp114
a(S'2015-06-10 09:59:15.114000'
g108
tp115
a(S'2015-06-10 09:59:15.116000'
S'data saved as csv to C:\\Users\\Jbarrett\\Charlie\\charlie\\data\\csv\\4273_digit_symbol.csv'
tp116
a(S'2015-06-10 09:59:19.472000'
g106
tp117
a(S'2015-06-10 09:59:19.482000'
g108
tp118
a(S'2015-06-10 09:59:19.486000'
S'data saved as csv to C:\\Users\\Jbarrett\\Charlie\\charlie\\data\\csv\\4273_digit_symbol.csv'
tp119
a(S'2015-06-10 09:59:22.532000'
g106
tp120
a(S'2015-06-10 09:59:22.543000'
g108
tp121
a(S'2015-06-10 09:59:22.546000'
S'data saved as csv to C:\\Users\\Jbarrett\\Charlie\\charlie\\data\\csv\\4273_digit_symbol.csv'
tp122
a(S'2015-06-10 09:59:25.163000'
g106
tp123
a(S'2015-06-10 09:59:25.174000'
g108
tp124
a(S'2015-06-10 09:59:25.178000'
S'data saved as csv to C:\\Users\\Jbarrett\\Charlie\\charlie\\data\\csv\\4273_digit_symbol.csv'
tp125
a(S'2015-06-10 09:59:29.195000'
g106
tp126
a(S'2015-06-10 09:59:29.206000'
g108
tp127
a(S'2015-06-10 09:59:29.210000'
S'data saved as csv to C:\\Users\\Jbarrett\\Charlie\\charlie\\data\\csv\\4273_digit_symbol.csv'
tp128
a(S'2015-06-10 09:59:33.225000'
g106
tp129
a(S'2015-06-10 09:59:33.236000'
g108
tp130
a(S'2015-06-10 09:59:33.238000'
S'data saved as csv to C:\\Users\\Jbarrett\\Charlie\\charlie\\data\\csv\\4273_digit_symbol.csv'
tp131
a(S'2015-06-10 09:59:41.364000'
g106
tp132
a(S'2015-06-10 09:59:41.375000'
g108
tp133
a(S'2015-06-10 09:59:41.379000'
S'data saved as csv to C:\\Users\\Jbarrett\\Charlie\\charlie\\data\\csv\\4273_digit_symbol.csv'
tp134
a(S'2015-06-10 09:59:45.255000'
g106
tp135
a(S'2015-06-10 09:59:45.266000'
g108
tp136
a(S'2015-06-10 09:59:45.268000'
S'data saved as csv to C:\\Users\\Jbarrett\\Charlie\\charlie\\data\\csv\\4273_digit_symbol.csv'
tp137
a(S'2015-06-10 10:01:33.250000'
g106
tp138
a(S'2015-06-10 10:01:33.262000'
g108
tp139
a(S'2015-06-10 10:01:33.268000'
S'data saved as csv to C:\\Users\\Jbarrett\\Charlie\\charlie\\data\\csv\\4273_digit_symbol.csv'
tp140
asb.