(icharlie.tools.data
Data
p1
(dp2
S'lang'
p3
S'EN'
p4
sS'control'
p5
(lp6
sS'last_updated'
p7
cdatetime
datetime
p8
(S'\x07\xdf\x03\x1e\x0b;#\x0f6\x88'
tRp9
sS'last_opened'
p10
g8
(S'\x07\xdf\x03\x1e\x0b5\x1d\x05\xf3p'
tRp11
sS'proj_id'
p12
S'connectivity'
p13
sS'date_done'
p14
NsS'test_done'
p15
I01
sS'data'
p16
(lp17
(S'4365'
p18
S'scap'
p19
S'practice'
p20
I3
I0
S'Yes'
p21
S'c:\\Charlie\\charlie\\stimuli\\visual\\scap\\practice-1.BMP'
S'c:\\Charlie\\charlie\\stimuli\\visual\\scap\\practice-2.BMP'
g21
I1530
tp22
a(g18
g19
g20
I4
I1
S'No'
p23
S'c:\\Charlie\\charlie\\stimuli\\visual\\scap\\practice-3.BMP'
S'c:\\Charlie\\charlie\\stimuli\\visual\\scap\\practice-4.BMP'
g23
I700
tp24
a(g18
g19
g20
I5
I2
g21
S'c:\\Charlie\\charlie\\stimuli\\visual\\scap\\practice-5.BMP'
S'c:\\Charlie\\charlie\\stimuli\\visual\\scap\\practice-6.BMP'
g23
I870
tp25
a(g18
g19
S'test'
p26
I3
I0
g21
S'c:\\Charlie\\charlie\\stimuli\\visual\\scap\\load3-1.BMP'
S'c:\\Charlie\\charlie\\stimuli\\visual\\scap\\load3-2.BMP'
g21
I1320
tp27
a(g18
g19
g26
I3
I1
g23
S'c:\\Charlie\\charlie\\stimuli\\visual\\scap\\load3-3.BMP'
S'c:\\Charlie\\charlie\\stimuli\\visual\\scap\\load3-4.BMP'
g23
I730
tp28
a(g18
g19
g26
I3
I2
g21
S'c:\\Charlie\\charlie\\stimuli\\visual\\scap\\load3-5.BMP'
S'c:\\Charlie\\charlie\\stimuli\\visual\\scap\\load3-6.BMP'
g21
I700
tp29
a(g18
g19
g26
I3
I3
g21
S'c:\\Charlie\\charlie\\stimuli\\visual\\scap\\load3-7.BMP'
S'c:\\Charlie\\charlie\\stimuli\\visual\\scap\\load3-8.BMP'
g21
I1351
tp30
a(g18
g19
g26
I3
I4
g23
S'c:\\Charlie\\charlie\\stimuli\\visual\\scap\\load3-9.BMP'
S'c:\\Charlie\\charlie\\stimuli\\visual\\scap\\load3-10.BMP'
g23
I970
tp31
a(g18
g19
g26
I3
I5
g21
S'c:\\Charlie\\charlie\\stimuli\\visual\\scap\\load3-11.BMP'
S'c:\\Charlie\\charlie\\stimuli\\visual\\scap\\load3-12.BMP'
g21
I1120
tp32
a(g18
g19
g26
I3
I6
g23
S'c:\\Charlie\\charlie\\stimuli\\visual\\scap\\load3-13.BMP'
S'c:\\Charlie\\charlie\\stimuli\\visual\\scap\\load3-14.BMP'
g23
I720
tp33
a(g18
g19
g26
I3
I7
g23
S'c:\\Charlie\\charlie\\stimuli\\visual\\scap\\load3-15.BMP'
S'c:\\Charlie\\charlie\\stimuli\\visual\\scap\\load3-16.BMP'
g23
I810
tp34
a(g18
g19
g26
I3
I8
g21
S'c:\\Charlie\\charlie\\stimuli\\visual\\scap\\load3-17.BMP'
S'c:\\Charlie\\charlie\\stimuli\\visual\\scap\\load3-18.BMP'
g21
I940
tp35
a(g18
g19
g26
I3
I9
g23
S'c:\\Charlie\\charlie\\stimuli\\visual\\scap\\load3-19.BMP'
S'c:\\Charlie\\charlie\\stimuli\\visual\\scap\\load3-20.BMP'
g23
I820
tp36
a(g18
g19
g26
I3
I10
g21
S'c:\\Charlie\\charlie\\stimuli\\visual\\scap\\load3-21.BMP'
S'c:\\Charlie\\charlie\\stimuli\\visual\\scap\\load3-22.BMP'
g21
I1330
tp37
a(g18
g19
g26
I3
I11
g21
S'c:\\Charlie\\charlie\\stimuli\\visual\\scap\\load3-23.BMP'
S'c:\\Charlie\\charlie\\stimuli\\visual\\scap\\load3-24.BMP'
g21
I910
tp38
a(g18
g19
g26
I3
I12
g23
S'c:\\Charlie\\charlie\\stimuli\\visual\\scap\\load3-25.BMP'
S'c:\\Charlie\\charlie\\stimuli\\visual\\scap\\load3-26.BMP'
g23
I610
tp39
a(g18
g19
g26
I3
I13
g23
S'c:\\Charlie\\charlie\\stimuli\\visual\\scap\\load3-27.BMP'
S'c:\\Charlie\\charlie\\stimuli\\visual\\scap\\load3-28.BMP'
g23
I450
tp40
a(g18
g19
g26
I4
I0
g23
S'c:\\Charlie\\charlie\\stimuli\\visual\\scap\\load4-1.BMP'
S'c:\\Charlie\\charlie\\stimuli\\visual\\scap\\load4-2.BMP'
g23
I770
tp41
a(g18
g19
g26
I4
I1
g21
S'c:\\Charlie\\charlie\\stimuli\\visual\\scap\\load4-3.BMP'
S'c:\\Charlie\\charlie\\stimuli\\visual\\scap\\load4-4.BMP'
g21
I860
tp42
a(g18
g19
g26
I4
I2
g21
S'c:\\Charlie\\charlie\\stimuli\\visual\\scap\\load4-5.BMP'
S'c:\\Charlie\\charlie\\stimuli\\visual\\scap\\load4-6.BMP'
g21
I950
tp43
a(g18
g19
g26
I4
I3
g23
S'c:\\Charlie\\charlie\\stimuli\\visual\\scap\\load4-7.BMP'
S'c:\\Charlie\\charlie\\stimuli\\visual\\scap\\load4-8.BMP'
g23
I860
tp44
a(g18
g19
g26
I4
I4
g23
S'c:\\Charlie\\charlie\\stimuli\\visual\\scap\\load4-9.BMP'
S'c:\\Charlie\\charlie\\stimuli\\visual\\scap\\load4-10.BMP'
g21
I1030
tp45
a(g18
g19
g26
I4
I5
g21
S'c:\\Charlie\\charlie\\stimuli\\visual\\scap\\load4-11.BMP'
S'c:\\Charlie\\charlie\\stimuli\\visual\\scap\\load4-12.BMP'
g23
I890
tp46
a(g18
g19
g26
I4
I6
g23
S'c:\\Charlie\\charlie\\stimuli\\visual\\scap\\load4-13.BMP'
S'c:\\Charlie\\charlie\\stimuli\\visual\\scap\\load4-14.BMP'
g21
I900
tp47
a(g18
g19
g26
I4
I7
g21
S'c:\\Charlie\\charlie\\stimuli\\visual\\scap\\load4-15.BMP'
S'c:\\Charlie\\charlie\\stimuli\\visual\\scap\\load4-16.BMP'
g21
I960
tp48
a(g18
g19
g26
I4
I8
g23
S'c:\\Charlie\\charlie\\stimuli\\visual\\scap\\load4-17.BMP'
S'c:\\Charlie\\charlie\\stimuli\\visual\\scap\\load4-18.BMP'
g23
I850
tp49
a(g18
g19
g26
I4
I9
g21
S'c:\\Charlie\\charlie\\stimuli\\visual\\scap\\load4-19.BMP'
S'c:\\Charlie\\charlie\\stimuli\\visual\\scap\\load4-20.BMP'
g21
I390
tp50
a(g18
g19
g26
I4
I10
g21
S'c:\\Charlie\\charlie\\stimuli\\visual\\scap\\load4-21.BMP'
S'c:\\Charlie\\charlie\\stimuli\\visual\\scap\\load4-22.BMP'
g21
I1100
tp51
a(g18
g19
g26
I4
I11
g23
S'c:\\Charlie\\charlie\\stimuli\\visual\\scap\\load4-23.BMP'
S'c:\\Charlie\\charlie\\stimuli\\visual\\scap\\load4-24.BMP'
g23
I940
tp52
a(g18
g19
g26
I4
I12
g21
S'c:\\Charlie\\charlie\\stimuli\\visual\\scap\\load4-25.BMP'
S'c:\\Charlie\\charlie\\stimuli\\visual\\scap\\load4-26.BMP'
g21
I1630
tp53
a(g18
g19
g26
I4
I13
g23
S'c:\\Charlie\\charlie\\stimuli\\visual\\scap\\load4-27.BMP'
S'c:\\Charlie\\charlie\\stimuli\\visual\\scap\\load4-28.BMP'
g23
I1120
tp54
a(g18
g19
g26
I5
I0
g21
S'c:\\Charlie\\charlie\\stimuli\\visual\\scap\\load5-1.BMP'
S'c:\\Charlie\\charlie\\stimuli\\visual\\scap\\load5-2.BMP'
g21
I710
tp55
a(g18
g19
g26
I5
I1
g21
S'c:\\Charlie\\charlie\\stimuli\\visual\\scap\\load5-3.BMP'
S'c:\\Charlie\\charlie\\stimuli\\visual\\scap\\load5-4.BMP'
g21
I1480
tp56
a(g18
g19
g26
I5
I2
g21
S'c:\\Charlie\\charlie\\stimuli\\visual\\scap\\load5-5.BMP'
S'c:\\Charlie\\charlie\\stimuli\\visual\\scap\\load5-6.BMP'
g21
I1070
tp57
a(g18
g19
g26
I5
I3
g21
S'c:\\Charlie\\charlie\\stimuli\\visual\\scap\\load5-7.BMP'
S'c:\\Charlie\\charlie\\stimuli\\visual\\scap\\load5-8.BMP'
g21
I720
tp58
a(g18
g19
g26
I5
I4
g21
S'c:\\Charlie\\charlie\\stimuli\\visual\\scap\\load5-9.BMP'
S'c:\\Charlie\\charlie\\stimuli\\visual\\scap\\load5-10.BMP'
g21
I1300
tp59
a(g18
g19
g26
I5
I5
g21
S'c:\\Charlie\\charlie\\stimuli\\visual\\scap\\load5-11.BMP'
S'c:\\Charlie\\charlie\\stimuli\\visual\\scap\\load5-12.BMP'
g21
I1250
tp60
a(g18
g19
g26
I5
I6
g23
S'c:\\Charlie\\charlie\\stimuli\\visual\\scap\\load5-13.BMP'
S'c:\\Charlie\\charlie\\stimuli\\visual\\scap\\load5-14.BMP'
g23
I850
tp61
a(g18
g19
g26
I5
I7
g23
S'c:\\Charlie\\charlie\\stimuli\\visual\\scap\\load5-15.BMP'
S'c:\\Charlie\\charlie\\stimuli\\visual\\scap\\load5-16.BMP'
g23
I1101
tp62
a(g18
g19
g26
I5
I8
g23
S'c:\\Charlie\\charlie\\stimuli\\visual\\scap\\load5-17.BMP'
S'c:\\Charlie\\charlie\\stimuli\\visual\\scap\\load5-18.BMP'
g21
I380
tp63
a(g18
g19
g26
I5
I9
g23
S'c:\\Charlie\\charlie\\stimuli\\visual\\scap\\load5-19.BMP'
S'c:\\Charlie\\charlie\\stimuli\\visual\\scap\\load5-20.BMP'
g23
I870
tp64
a(g18
g19
g26
I5
I10
g23
S'c:\\Charlie\\charlie\\stimuli\\visual\\scap\\load5-21.BMP'
S'c:\\Charlie\\charlie\\stimuli\\visual\\scap\\load5-22.BMP'
g21
I1320
tp65
a(g18
g19
g26
I5
I11
g21
S'c:\\Charlie\\charlie\\stimuli\\visual\\scap\\load5-23.BMP'
S'c:\\Charlie\\charlie\\stimuli\\visual\\scap\\load5-24.BMP'
g21
I780
tp66
a(g18
g19
g26
I5
I12
g23
S'c:\\Charlie\\charlie\\stimuli\\visual\\scap\\load5-25.BMP'
S'c:\\Charlie\\charlie\\stimuli\\visual\\scap\\load5-26.BMP'
g21
I1220
tp67
a(g18
g19
g26
I5
I13
g23
S'c:\\Charlie\\charlie\\stimuli\\visual\\scap\\load5-27.BMP'
p68
S'c:\\Charlie\\charlie\\stimuli\\visual\\scap\\load5-28.BMP'
p69
g23
I760
tp70
asS'output_format'
p71
(lp72
(S'proband_id'
p73
c__builtin__
str
p74
tp75
a(S'test_name'
p76
g74
tp77
a(S'phase'
p78
g74
tp79
a(S'load'
p80
c__builtin__
int
p81
tp82
a(S'trialn'
p83
g81
tp84
a(S'ans'
p85
g74
tp86
a(S'array_f'
p87
g74
tp88
a(S'probe_f'
p89
g74
tp90
a(S'rsp'
p91
g74
tp92
a(S'rt'
p93
g81
tp94
asg73
g18
sS'filename'
p95
S'4365_scap.data'
p96
sS'initialised'
p97
g8
(S'\x07\xdf\x03\x1e\x0b5\x1d\x05\xf3p'
tRp98
sS'last_udated'
p99
g8
(S'\x07\xdf\x03\x1e\x0b5\x1d\x05\xf3p'
tRp100
sg76
S'scap'
p101
sS'directory'
p102
S'c:\\Charlie\\charlie\\data\\raw'
p103
sS'user_id'
p104
S'oleach'
p105
sS'test_started'
p106
I01
sS'abs_filename'
p107
S'c:\\Charlie\\charlie\\data\\raw\\4365_scap.data'
p108
sS'date_started'
p109
g8
(S'\x07\xdf\x03\x1e\x0b6\x07\x0b\x98\xc0'
tRp110
sS'log'
p111
(lp112
(S'2015-03-30 11:53:29.390000'
S'instance created'
p113
tp114
a(S'2015-03-30 11:54:07.771000'
S'instance updated'
p115
tp116
a(S'2015-03-30 11:54:07.782000'
S'pandas DataFrame of data created'
p117
tp118
a(S'2015-03-30 11:54:07.787000'
S'data saved as csv to c:\\Charlie\\charlie\\data\\csv\\4365_scap.csv'
tp119
a(S'2015-03-30 11:54:15.527000'
g115
tp120
a(S'2015-03-30 11:54:15.537000'
g117
tp121
a(S'2015-03-30 11:54:15.541000'
S'data saved as csv to c:\\Charlie\\charlie\\data\\csv\\4365_scap.csv'
tp122
a(S'2015-03-30 11:54:23.462000'
g115
tp123
a(S'2015-03-30 11:54:23.473000'
g117
tp124
a(S'2015-03-30 11:54:23.477000'
S'data saved as csv to c:\\Charlie\\charlie\\data\\csv\\4365_scap.csv'
tp125
a(S'2015-03-30 11:54:45.282000'
g115
tp126
a(S'2015-03-30 11:54:45.293000'
g117
tp127
a(S'2015-03-30 11:54:45.296000'
S'data saved as csv to c:\\Charlie\\charlie\\data\\csv\\4365_scap.csv'
tp128
a(S'2015-03-30 11:54:52.162000'
g115
tp129
a(S'2015-03-30 11:54:52.172000'
g117
tp130
a(S'2015-03-30 11:54:52.176000'
S'data saved as csv to c:\\Charlie\\charlie\\data\\csv\\4365_scap.csv'
tp131
a(S'2015-03-30 11:54:59.013000'
g115
tp132
a(S'2015-03-30 11:54:59.024000'
g117
tp133
a(S'2015-03-30 11:54:59.027000'
S'data saved as csv to c:\\Charlie\\charlie\\data\\csv\\4365_scap.csv'
tp134
a(S'2015-03-30 11:55:06.511000'
g115
tp135
a(S'2015-03-30 11:55:06.517000'
g117
tp136
a(S'2015-03-30 11:55:06.519000'
S'data saved as csv to c:\\Charlie\\charlie\\data\\csv\\4365_scap.csv'
tp137
a(S'2015-03-30 11:55:13.624000'
g115
tp138
a(S'2015-03-30 11:55:13.635000'
g117
tp139
a(S'2015-03-30 11:55:13.639000'
S'data saved as csv to c:\\Charlie\\charlie\\data\\csv\\4365_scap.csv'
tp140
a(S'2015-03-30 11:55:20.895000'
g115
tp141
a(S'2015-03-30 11:55:20.906000'
g117
tp142
a(S'2015-03-30 11:55:20.910000'
S'data saved as csv to c:\\Charlie\\charlie\\data\\csv\\4365_scap.csv'
tp143
a(S'2015-03-30 11:55:27.766000'
g115
tp144
a(S'2015-03-30 11:55:27.777000'
g117
tp145
a(S'2015-03-30 11:55:27.781000'
S'data saved as csv to c:\\Charlie\\charlie\\data\\csv\\4365_scap.csv'
tp146
a(S'2015-03-30 11:55:34.728000'
g115
tp147
a(S'2015-03-30 11:55:34.739000'
g117
tp148
a(S'2015-03-30 11:55:34.743000'
S'data saved as csv to c:\\Charlie\\charlie\\data\\csv\\4365_scap.csv'
tp149
a(S'2015-03-30 11:55:41.819000'
g115
tp150
a(S'2015-03-30 11:55:41.830000'
g117
tp151
a(S'2015-03-30 11:55:41.834000'
S'data saved as csv to c:\\Charlie\\charlie\\data\\csv\\4365_scap.csv'
tp152
a(S'2015-03-30 11:55:48.790000'
g115
tp153
a(S'2015-03-30 11:55:48.802000'
g117
tp154
a(S'2015-03-30 11:55:48.806000'
S'data saved as csv to c:\\Charlie\\charlie\\data\\csv\\4365_scap.csv'
tp155
a(S'2015-03-30 11:55:56.273000'
g115
tp156
a(S'2015-03-30 11:55:56.284000'
g117
tp157
a(S'2015-03-30 11:55:56.288000'
S'data saved as csv to c:\\Charlie\\charlie\\data\\csv\\4365_scap.csv'
tp158
a(S'2015-03-30 11:56:03.335000'
g115
tp159
a(S'2015-03-30 11:56:03.346000'
g117
tp160
a(S'2015-03-30 11:56:03.350000'
S'data saved as csv to c:\\Charlie\\charlie\\data\\csv\\4365_scap.csv'
tp161
a(S'2015-03-30 11:56:10.096000'
g115
tp162
a(S'2015-03-30 11:56:10.106000'
g117
tp163
a(S'2015-03-30 11:56:10.110000'
S'data saved as csv to c:\\Charlie\\charlie\\data\\csv\\4365_scap.csv'
tp164
a(S'2015-03-30 11:56:16.698000'
g115
tp165
a(S'2015-03-30 11:56:16.709000'
g117
tp166
a(S'2015-03-30 11:56:16.713000'
S'data saved as csv to c:\\Charlie\\charlie\\data\\csv\\4365_scap.csv'
tp167
a(S'2015-03-30 11:56:23.620000'
g115
tp168
a(S'2015-03-30 11:56:23.631000'
g117
tp169
a(S'2015-03-30 11:56:23.635000'
S'data saved as csv to c:\\Charlie\\charlie\\data\\csv\\4365_scap.csv'
tp170
a(S'2015-03-30 11:56:30.631000'
g115
tp171
a(S'2015-03-30 11:56:30.642000'
g117
tp172
a(S'2015-03-30 11:56:30.646000'
S'data saved as csv to c:\\Charlie\\charlie\\data\\csv\\4365_scap.csv'
tp173
a(S'2015-03-30 11:56:37.734000'
g115
tp174
a(S'2015-03-30 11:56:37.745000'
g117
tp175
a(S'2015-03-30 11:56:37.749000'
S'data saved as csv to c:\\Charlie\\charlie\\data\\csv\\4365_scap.csv'
tp176
a(S'2015-03-30 11:56:44.745000'
g115
tp177
a(S'2015-03-30 11:56:44.756000'
g117
tp178
a(S'2015-03-30 11:56:44.760000'
S'data saved as csv to c:\\Charlie\\charlie\\data\\csv\\4365_scap.csv'
tp179
a(S'2015-03-30 11:56:51.927000'
g115
tp180
a(S'2015-03-30 11:56:51.938000'
g117
tp181
a(S'2015-03-30 11:56:51.942000'
S'data saved as csv to c:\\Charlie\\charlie\\data\\csv\\4365_scap.csv'
tp182
a(S'2015-03-30 11:56:58.968000'
g115
tp183
a(S'2015-03-30 11:56:58.977000'
g117
tp184
a(S'2015-03-30 11:56:58.980000'
S'data saved as csv to c:\\Charlie\\charlie\\data\\csv\\4365_scap.csv'
tp185
a(S'2015-03-30 11:57:06.015000'
g115
tp186
a(S'2015-03-30 11:57:06.026000'
g117
tp187
a(S'2015-03-30 11:57:06.030000'
S'data saved as csv to c:\\Charlie\\charlie\\data\\csv\\4365_scap.csv'
tp188
a(S'2015-03-30 11:57:13.127000'
g115
tp189
a(S'2015-03-30 11:57:13.138000'
g117
tp190
a(S'2015-03-30 11:57:13.142000'
S'data saved as csv to c:\\Charlie\\charlie\\data\\csv\\4365_scap.csv'
tp191
a(S'2015-03-30 11:57:20.129000'
g115
tp192
a(S'2015-03-30 11:57:20.140000'
g117
tp193
a(S'2015-03-30 11:57:20.144000'
S'data saved as csv to c:\\Charlie\\charlie\\data\\csv\\4365_scap.csv'
tp194
a(S'2015-03-30 11:57:26.671000'
g115
tp195
a(S'2015-03-30 11:57:26.682000'
g117
tp196
a(S'2015-03-30 11:57:26.686000'
S'data saved as csv to c:\\Charlie\\charlie\\data\\csv\\4365_scap.csv'
tp197
a(S'2015-03-30 11:57:33.923000'
g115
tp198
a(S'2015-03-30 11:57:33.934000'
g117
tp199
a(S'2015-03-30 11:57:33.939000'
S'data saved as csv to c:\\Charlie\\charlie\\data\\csv\\4365_scap.csv'
tp200
a(S'2015-03-30 11:57:41.015000'
g115
tp201
a(S'2015-03-30 11:57:41.027000'
g117
tp202
a(S'2015-03-30 11:57:41.031000'
S'data saved as csv to c:\\Charlie\\charlie\\data\\csv\\4365_scap.csv'
tp203
a(S'2015-03-30 11:57:48.796000'
g115
tp204
a(S'2015-03-30 11:57:48.807000'
g117
tp205
a(S'2015-03-30 11:57:48.812000'
S'data saved as csv to c:\\Charlie\\charlie\\data\\csv\\4365_scap.csv'
tp206
a(S'2015-03-30 11:57:56.068000'
g115
tp207
a(S'2015-03-30 11:57:56.080000'
g117
tp208
a(S'2015-03-30 11:57:56.084000'
S'data saved as csv to c:\\Charlie\\charlie\\data\\csv\\4365_scap.csv'
tp209
a(S'2015-03-30 11:58:02.930000'
g115
tp210
a(S'2015-03-30 11:58:02.941000'
g117
tp211
a(S'2015-03-30 11:58:02.946000'
S'data saved as csv to c:\\Charlie\\charlie\\data\\csv\\4365_scap.csv'
tp212
a(S'2015-03-30 11:58:10.562000'
g115
tp213
a(S'2015-03-30 11:58:10.573000'
g117
tp214
a(S'2015-03-30 11:58:10.578000'
S'data saved as csv to c:\\Charlie\\charlie\\data\\csv\\4365_scap.csv'
tp215
a(S'2015-03-30 11:58:17.784000'
g115
tp216
a(S'2015-03-30 11:58:17.796000'
g117
tp217
a(S'2015-03-30 11:58:17.800000'
S'data saved as csv to c:\\Charlie\\charlie\\data\\csv\\4365_scap.csv'
tp218
a(S'2015-03-30 11:58:24.656000'
g115
tp219
a(S'2015-03-30 11:58:24.668000'
g117
tp220
a(S'2015-03-30 11:58:24.672000'
S'data saved as csv to c:\\Charlie\\charlie\\data\\csv\\4365_scap.csv'
tp221
a(S'2015-03-30 11:58:32.108000'
g115
tp222
a(S'2015-03-30 11:58:32.120000'
g117
tp223
a(S'2015-03-30 11:58:32.124000'
S'data saved as csv to c:\\Charlie\\charlie\\data\\csv\\4365_scap.csv'
tp224
a(S'2015-03-30 11:58:39.510000'
g115
tp225
a(S'2015-03-30 11:58:39.522000'
g117
tp226
a(S'2015-03-30 11:58:39.526000'
S'data saved as csv to c:\\Charlie\\charlie\\data\\csv\\4365_scap.csv'
tp227
a(S'2015-03-30 11:58:46.512000'
g115
tp228
a(S'2015-03-30 11:58:46.524000'
g117
tp229
a(S'2015-03-30 11:58:46.528000'
S'data saved as csv to c:\\Charlie\\charlie\\data\\csv\\4365_scap.csv'
tp230
a(S'2015-03-30 11:58:53.764000'
g115
tp231
a(S'2015-03-30 11:58:53.776000'
g117
tp232
a(S'2015-03-30 11:58:53.780000'
S'data saved as csv to c:\\Charlie\\charlie\\data\\csv\\4365_scap.csv'
tp233
a(S'2015-03-30 11:59:00.298000'
g115
tp234
a(S'2015-03-30 11:59:00.309000'
g117
tp235
a(S'2015-03-30 11:59:00.313000'
S'data saved as csv to c:\\Charlie\\charlie\\data\\csv\\4365_scap.csv'
tp236
a(S'2015-03-30 11:59:07.309000'
g115
tp237
a(S'2015-03-30 11:59:07.312000'
g117
tp238
a(S'2015-03-30 11:59:07.313000'
S'data saved as csv to c:\\Charlie\\charlie\\data\\csv\\4365_scap.csv'
tp239
a(S'2015-03-30 11:59:14.768000'
g115
tp240
a(S'2015-03-30 11:59:14.780000'
g117
tp241
a(S'2015-03-30 11:59:14.784000'
S'data saved as csv to c:\\Charlie\\charlie\\data\\csv\\4365_scap.csv'
tp242
a(S'2015-03-30 11:59:21.701000'
g115
tp243
a(S'2015-03-30 11:59:21.713000'
g117
tp244
a(S'2015-03-30 11:59:21.717000'
S'data saved as csv to c:\\Charlie\\charlie\\data\\csv\\4365_scap.csv'
tp245
a(S'2015-03-30 11:59:29.069000'
g115
tp246
a(S'2015-03-30 11:59:29.081000'
g117
tp247
a(S'2015-03-30 11:59:29.085000'
S'data saved as csv to c:\\Charlie\\charlie\\data\\csv\\4365_scap.csv'
tp248
a(S'2015-03-30 11:59:35.981000'
g115
tp249
a(S'2015-03-30 11:59:35.992000'
g117
tp250
a(S'2015-03-30 11:59:35.997000'
S'data saved as csv to c:\\Charlie\\charlie\\data\\csv\\4365_scap.csv'
tp251
asb.