(icharlie.tools.data
Data
p1
(dp2
S'lang'
p3
S'EN'
p4
sS'control'
p5
(lp6
sS'last_updated'
p7
cdatetime
datetime
p8
(S'\x07\xdf\x04\x01\r\x0f\x00\x0428'
tRp9
sS'last_opened'
p10
g8
(S"\x07\xdf\x04\x01\r\n'\r\xcb@"
tRp11
sS'proj_id'
p12
S'connectivity'
p13
sS'date_done'
p14
NsS'test_done'
p15
I01
sS'data'
p16
(lp17
(S'4367'
p18
S'stroop'
p19
S'practice'
p20
I0
S'n/a'
p21
S'c:\\Charlie\\charlie\\stimuli\\visual\\stroop\\prac_1.png'
S'Right'
p22
g22
I3110
tp23
a(g18
g19
g20
I1
g21
S'c:\\Charlie\\charlie\\stimuli\\visual\\stroop\\prac_2.png'
S'Left'
p24
g24
I4371
tp25
a(g18
g19
g20
I2
g21
S'c:\\Charlie\\charlie\\stimuli\\visual\\stroop\\prac_3.png'
g22
g22
I2260
tp26
a(g18
g19
g20
I3
g21
S'c:\\Charlie\\charlie\\stimuli\\visual\\stroop\\prac_4.png'
g22
g22
I1710
tp27
a(g18
g19
S'test'
p28
I0
S'Incongruent'
p29
S'c:\\Charlie\\charlie\\stimuli\\visual\\stroop\\6-Incongruent.png'
g24
g24
I2470
tp30
a(g18
g19
g28
I1
S'Congruent'
p31
S'c:\\Charlie\\charlie\\stimuli\\visual\\stroop\\30-Congruent.png'
g24
g24
I1270
tp32
a(g18
g19
g28
I2
g31
S'c:\\Charlie\\charlie\\stimuli\\visual\\stroop\\3-Congruent.png'
g22
g22
I1370
tp33
a(g18
g19
g28
I3
g29
S'c:\\Charlie\\charlie\\stimuli\\visual\\stroop\\23-Incongruent.png'
g24
g24
I1060
tp34
a(g18
g19
g28
I4
g31
S'c:\\Charlie\\charlie\\stimuli\\visual\\stroop\\39-Congruent.png'
g24
g24
I1150
tp35
a(g18
g19
g28
I5
g31
S'c:\\Charlie\\charlie\\stimuli\\visual\\stroop\\45-Congruent.png'
g24
g24
I1101
tp36
a(g18
g19
g28
I6
g29
S'c:\\Charlie\\charlie\\stimuli\\visual\\stroop\\31-Incongruent.png'
g22
g24
I1150
tp37
a(g18
g19
g28
I7
g29
S'c:\\Charlie\\charlie\\stimuli\\visual\\stroop\\28-Incongruent.png'
g24
g22
I1870
tp38
a(g18
g19
g28
I8
g31
S'c:\\Charlie\\charlie\\stimuli\\visual\\stroop\\31-Congruent.png'
g24
g24
I1200
tp39
a(g18
g19
g28
I9
g31
S'c:\\Charlie\\charlie\\stimuli\\visual\\stroop\\10-Congruent.png'
g22
g22
I1060
tp40
a(g18
g19
g28
I10
g29
S'c:\\Charlie\\charlie\\stimuli\\visual\\stroop\\10-Incongruent.png'
g24
g22
I1240
tp41
a(g18
g19
g28
I11
g29
S'c:\\Charlie\\charlie\\stimuli\\visual\\stroop\\24-Incongruent.png'
g24
g24
I2860
tp42
a(g18
g19
g28
I12
g31
S'c:\\Charlie\\charlie\\stimuli\\visual\\stroop\\34-Congruent.png'
g24
g24
I1390
tp43
a(g18
g19
g28
I13
g31
S'c:\\Charlie\\charlie\\stimuli\\visual\\stroop\\38-Congruent.png'
g24
g24
I1080
tp44
a(g18
g19
g28
I14
g31
S'c:\\Charlie\\charlie\\stimuli\\visual\\stroop\\42-Congruent.png'
g24
g24
I1060
tp45
a(g18
g19
g28
I15
g31
S'c:\\Charlie\\charlie\\stimuli\\visual\\stroop\\17-Congruent.png'
g22
g22
I1090
tp46
a(g18
g19
g28
I16
g29
S'c:\\Charlie\\charlie\\stimuli\\visual\\stroop\\42-Incongruent.png'
g22
g24
I1520
tp47
a(g18
g19
g28
I17
g29
S'c:\\Charlie\\charlie\\stimuli\\visual\\stroop\\36-Incongruent.png'
g22
g22
I1130
tp48
a(g18
g19
g28
I18
g29
S'c:\\Charlie\\charlie\\stimuli\\visual\\stroop\\43-Incongruent.png'
g22
g24
I1350
tp49
a(g18
g19
g28
I19
g31
S'c:\\Charlie\\charlie\\stimuli\\visual\\stroop\\49-Congruent.png'
g24
g24
I1180
tp50
a(g18
g19
g28
I20
g31
S'c:\\Charlie\\charlie\\stimuli\\visual\\stroop\\43-Congruent.png'
g24
g24
I1100
tp51
a(g18
g19
g28
I21
g29
S'c:\\Charlie\\charlie\\stimuli\\visual\\stroop\\15-Incongruent.png'
g24
g24
I3280
tp52
a(g18
g19
g28
I22
g29
S'c:\\Charlie\\charlie\\stimuli\\visual\\stroop\\35-Incongruent.png'
g22
g22
I4110
tp53
a(g18
g19
g28
I23
g29
S'c:\\Charlie\\charlie\\stimuli\\visual\\stroop\\44-Incongruent.png'
g22
g24
I2840
tp54
a(g18
g19
g28
I24
g29
S'c:\\Charlie\\charlie\\stimuli\\visual\\stroop\\47-Incongruent.png'
g22
g22
I2301
tp55
a(g18
g19
g28
I25
g29
S'c:\\Charlie\\charlie\\stimuli\\visual\\stroop\\40-Incongruent.png'
g22
g24
I1860
tp56
a(g18
g19
g28
I26
g29
S'c:\\Charlie\\charlie\\stimuli\\visual\\stroop\\25-Incongruent.png'
g24
g22
I1960
tp57
a(g18
g19
g28
I27
g29
S'c:\\Charlie\\charlie\\stimuli\\visual\\stroop\\27-Incongruent.png'
g24
g22
I1590
tp58
a(g18
g19
g28
I28
g29
S'c:\\Charlie\\charlie\\stimuli\\visual\\stroop\\56-Incongruent.png'
g22
g24
I2050
tp59
a(g18
g19
g28
I29
g31
S'c:\\Charlie\\charlie\\stimuli\\visual\\stroop\\2-Congruent.png'
g22
g22
I1440
tp60
a(g18
g19
g28
I30
g29
S'c:\\Charlie\\charlie\\stimuli\\visual\\stroop\\17-Incongruent.png'
g24
g24
I3280
tp61
a(g18
g19
g28
I31
g31
S'c:\\Charlie\\charlie\\stimuli\\visual\\stroop\\12-Congruent.png'
g22
g22
I1480
tp62
a(g18
g19
g28
I32
g29
S'c:\\Charlie\\charlie\\stimuli\\visual\\stroop\\12-Incongruent.png'
g24
g22
I1480
tp63
a(g18
g19
g28
I33
g29
S'c:\\Charlie\\charlie\\stimuli\\visual\\stroop\\26-Incongruent.png'
g24
g22
I1581
tp64
a(g18
g19
g28
I34
g31
S'c:\\Charlie\\charlie\\stimuli\\visual\\stroop\\19-Congruent.png'
g22
g22
I1610
tp65
a(g18
g19
g28
I35
g31
S'c:\\Charlie\\charlie\\stimuli\\visual\\stroop\\23-Congruent.png'
g22
g22
I1430
tp66
a(g18
g19
g28
I36
g31
S'c:\\Charlie\\charlie\\stimuli\\visual\\stroop\\35-Congruent.png'
g24
g24
I1250
tp67
a(g18
g19
g28
I37
g31
S'c:\\Charlie\\charlie\\stimuli\\visual\\stroop\\46-Congruent.png'
g24
g24
I1260
tp68
a(g18
g19
g28
I38
g29
S'c:\\Charlie\\charlie\\stimuli\\visual\\stroop\\8-Incongruent.png'
g24
g24
I1260
tp69
a(g18
g19
g28
I39
g31
S'c:\\Charlie\\charlie\\stimuli\\visual\\stroop\\29-Congruent.png'
g24
g24
I1330
tp70
a(g18
g19
g28
I40
g31
S'c:\\Charlie\\charlie\\stimuli\\visual\\stroop\\14-Congruent.png'
g22
g22
I1230
tp71
a(g18
g19
g28
I41
g31
S'c:\\Charlie\\charlie\\stimuli\\visual\\stroop\\33-Congruent.png'
g24
g24
I1220
tp72
a(g18
g19
g28
I42
g29
S'c:\\Charlie\\charlie\\stimuli\\visual\\stroop\\13-Incongruent.png'
g24
g24
I1270
tp73
a(g18
g19
g28
I43
g29
S'c:\\Charlie\\charlie\\stimuli\\visual\\stroop\\55-Incongruent.png'
g22
g24
I1510
tp74
a(g18
g19
g28
I44
g31
S'c:\\Charlie\\charlie\\stimuli\\visual\\stroop\\54-Congruent.png'
g24
g24
I1231
tp75
a(g18
g19
g28
I45
g31
S'c:\\Charlie\\charlie\\stimuli\\visual\\stroop\\8-Congruent.png'
g22
g22
I1850
tp76
a(g18
g19
g28
I46
g31
S'c:\\Charlie\\charlie\\stimuli\\visual\\stroop\\13-Congruent.png'
g22
g22
I1500
tp77
a(g18
g19
g28
I47
g31
S'c:\\Charlie\\charlie\\stimuli\\visual\\stroop\\40-Congruent.png'
g24
g24
I1390
tp78
a(g18
g19
g28
I48
g29
S'c:\\Charlie\\charlie\\stimuli\\visual\\stroop\\9-Incongruent.png'
g24
g24
I1360
tp79
a(g18
g19
g28
I49
g31
S'c:\\Charlie\\charlie\\stimuli\\visual\\stroop\\50-Congruent.png'
g24
g24
I1510
tp80
a(g18
g19
g28
I50
g31
S'c:\\Charlie\\charlie\\stimuli\\visual\\stroop\\5-Congruent.png'
g22
g22
I1480
tp81
a(g18
g19
g28
I51
g29
S'c:\\Charlie\\charlie\\stimuli\\visual\\stroop\\5-Incongruent.png'
g24
g22
I1600
tp82
a(g18
g19
g28
I52
g29
S'c:\\Charlie\\charlie\\stimuli\\visual\\stroop\\53-Incongruent.png'
g22
g24
I2390
tp83
a(g18
g19
g28
I53
g29
S'c:\\Charlie\\charlie\\stimuli\\visual\\stroop\\1-Incongruent.png'
g24
g22
I1620
tp84
a(g18
g19
g28
I54
g31
S'c:\\Charlie\\charlie\\stimuli\\visual\\stroop\\28-Congruent.png'
g22
g22
I1661
tp85
a(g18
g19
g28
I55
g29
S'c:\\Charlie\\charlie\\stimuli\\visual\\stroop\\34-Incongruent.png'
g22
g22
I5600
tp86
a(g18
g19
g28
I56
g29
S'c:\\Charlie\\charlie\\stimuli\\visual\\stroop\\20-Incongruent.png'
g24
g22
I2050
tp87
a(g18
g19
g28
I57
g29
S'c:\\Charlie\\charlie\\stimuli\\visual\\stroop\\38-Incongruent.png'
g22
g24
I2230
tp88
a(g18
g19
g28
I58
g29
S'c:\\Charlie\\charlie\\stimuli\\visual\\stroop\\32-Incongruent.png'
g22
g22
I2200
tp89
a(g18
g19
g28
I59
g31
S'c:\\Charlie\\charlie\\stimuli\\visual\\stroop\\9-Congruent.png'
g22
g22
I1950
tp90
a(g18
g19
g28
I60
g31
S'c:\\Charlie\\charlie\\stimuli\\visual\\stroop\\55-Congruent.png'
g24
g24
I1750
tp91
a(g18
g19
g28
I61
g29
S'c:\\Charlie\\charlie\\stimuli\\visual\\stroop\\33-Incongruent.png'
g22
g24
I1701
tp92
a(g18
g19
g28
I62
g29
S'c:\\Charlie\\charlie\\stimuli\\visual\\stroop\\49-Incongruent.png'
g22
g24
I1380
tp93
a(g18
g19
g28
I63
g31
S'c:\\Charlie\\charlie\\stimuli\\visual\\stroop\\4-Congruent.png'
g22
g22
I1340
tp94
a(g18
g19
g28
I64
g31
S'c:\\Charlie\\charlie\\stimuli\\visual\\stroop\\6-Congruent.png'
g22
g22
I1620
tp95
a(g18
g19
g28
I65
g31
S'c:\\Charlie\\charlie\\stimuli\\visual\\stroop\\48-Congruent.png'
g24
g24
I1630
tp96
a(g18
g19
g28
I66
g31
S'c:\\Charlie\\charlie\\stimuli\\visual\\stroop\\52-Congruent.png'
g24
g24
I1330
tp97
a(g18
g19
g28
I67
g31
S'c:\\Charlie\\charlie\\stimuli\\visual\\stroop\\51-Congruent.png'
g24
g24
I1360
tp98
a(g18
g19
g28
I68
g31
S'c:\\Charlie\\charlie\\stimuli\\visual\\stroop\\16-Congruent.png'
g22
g22
I1250
tp99
a(g18
g19
g28
I69
g31
S'c:\\Charlie\\charlie\\stimuli\\visual\\stroop\\24-Congruent.png'
g22
g22
I1530
tp100
a(g18
g19
g28
I70
g29
S'c:\\Charlie\\charlie\\stimuli\\visual\\stroop\\41-Incongruent.png'
g22
g24
I1420
tp101
a(g18
g19
g28
I71
g29
S'c:\\Charlie\\charlie\\stimuli\\visual\\stroop\\48-Incongruent.png'
g22
g24
I1671
tp102
a(g18
g19
g28
I72
g29
S'c:\\Charlie\\charlie\\stimuli\\visual\\stroop\\4-Incongruent.png'
g24
g22
I1340
tp103
a(g18
g19
g28
I73
g29
S'c:\\Charlie\\charlie\\stimuli\\visual\\stroop\\54-Incongruent.png'
g22
g24
I1530
tp104
a(g18
g19
g28
I74
g29
S'c:\\Charlie\\charlie\\stimuli\\visual\\stroop\\39-Incongruent.png'
g22
g24
I1530
tp105
a(g18
g19
g28
I75
g31
S'c:\\Charlie\\charlie\\stimuli\\visual\\stroop\\56-Congruent.png'
g24
g24
I1390
tp106
a(g18
g19
g28
I76
g29
S'c:\\Charlie\\charlie\\stimuli\\visual\\stroop\\46-Incongruent.png'
g22
g24
I1500
tp107
a(g18
g19
g28
I77
g31
S'c:\\Charlie\\charlie\\stimuli\\visual\\stroop\\22-Congruent.png'
g22
g22
I1380
tp108
a(g18
g19
g28
I78
g29
S'c:\\Charlie\\charlie\\stimuli\\visual\\stroop\\21-Incongruent.png'
g24
g22
I1470
tp109
a(g18
g19
g28
I79
g29
S'c:\\Charlie\\charlie\\stimuli\\visual\\stroop\\37-Incongruent.png'
g22
g24
I1500
tp110
a(g18
g19
g28
I80
g29
S'c:\\Charlie\\charlie\\stimuli\\visual\\stroop\\2-Incongruent.png'
g24
g22
I2500
tp111
a(g18
g19
g28
I81
g31
S'c:\\Charlie\\charlie\\stimuli\\visual\\stroop\\21-Congruent.png'
g22
g22
I1380
tp112
a(g18
g19
g28
I82
g29
S'c:\\Charlie\\charlie\\stimuli\\visual\\stroop\\7-Incongruent.png'
g24
g22
I1671
tp113
a(g18
g19
g28
I83
g31
S'c:\\Charlie\\charlie\\stimuli\\visual\\stroop\\20-Congruent.png'
g22
g22
I1470
tp114
a(g18
g19
g28
I84
g31
S'c:\\Charlie\\charlie\\stimuli\\visual\\stroop\\15-Congruent.png'
g22
g22
I1440
tp115
a(g18
g19
g28
I85
g31
S'c:\\Charlie\\charlie\\stimuli\\visual\\stroop\\26-Congruent.png'
g22
g22
I1400
tp116
a(g18
g19
g28
I86
g29
S'c:\\Charlie\\charlie\\stimuli\\visual\\stroop\\16-Incongruent.png'
g24
g22
I1610
tp117
a(g18
g19
g28
I87
g29
S'c:\\Charlie\\charlie\\stimuli\\visual\\stroop\\50-Incongruent.png'
g22
g24
I1390
tp118
a(g18
g19
g28
I88
g31
S'c:\\Charlie\\charlie\\stimuli\\visual\\stroop\\41-Congruent.png'
g24
g24
I1360
tp119
a(g18
g19
g28
I89
g31
S'c:\\Charlie\\charlie\\stimuli\\visual\\stroop\\25-Congruent.png'
g22
g22
I1240
tp120
a(g18
g19
g28
I90
g31
S'c:\\Charlie\\charlie\\stimuli\\visual\\stroop\\27-Congruent.png'
g22
g22
I1340
tp121
a(g18
g19
g28
I91
g29
S'c:\\Charlie\\charlie\\stimuli\\visual\\stroop\\18-Incongruent.png'
g24
g24
I2510
tp122
a(g18
g19
g28
I92
g29
S'c:\\Charlie\\charlie\\stimuli\\visual\\stroop\\30-Incongruent.png'
g22
g24
I1591
tp123
a(g18
g19
g28
I93
g31
S'c:\\Charlie\\charlie\\stimuli\\visual\\stroop\\44-Congruent.png'
g24
g24
I1450
tp124
a(g18
g19
g28
I94
g31
S'c:\\Charlie\\charlie\\stimuli\\visual\\stroop\\37-Congruent.png'
g24
g24
I1330
tp125
a(g18
g19
g28
I95
g29
S'c:\\Charlie\\charlie\\stimuli\\visual\\stroop\\11-Incongruent.png'
g24
g22
I2470
tp126
a(g18
g19
g28
I96
g29
S'c:\\Charlie\\charlie\\stimuli\\visual\\stroop\\29-Incongruent.png'
g22
g24
I1170
tp127
a(g18
g19
g28
I97
g29
S'c:\\Charlie\\charlie\\stimuli\\visual\\stroop\\3-Incongruent.png'
g24
g22
I1120
tp128
a(g18
g19
g28
I98
g31
S'c:\\Charlie\\charlie\\stimuli\\visual\\stroop\\1-Congruent.png'
g22
g22
I1360
tp129
a(g18
g19
g28
I99
g29
S'c:\\Charlie\\charlie\\stimuli\\visual\\stroop\\52-Incongruent.png'
g22
g24
I1800
tp130
a(g18
g19
g28
I100
g29
S'c:\\Charlie\\charlie\\stimuli\\visual\\stroop\\14-Incongruent.png'
g24
g22
I1250
tp131
a(g18
g19
g28
I101
g31
S'c:\\Charlie\\charlie\\stimuli\\visual\\stroop\\47-Congruent.png'
g24
g24
I1590
tp132
a(g18
g19
g28
I102
g29
S'c:\\Charlie\\charlie\\stimuli\\visual\\stroop\\19-Incongruent.png'
g24
g22
I1380
tp133
a(g18
g19
g28
I103
g31
S'c:\\Charlie\\charlie\\stimuli\\visual\\stroop\\11-Congruent.png'
g22
g22
I1501
tp134
a(g18
g19
g28
I104
g29
S'c:\\Charlie\\charlie\\stimuli\\visual\\stroop\\22-Incongruent.png'
g24
g22
I1650
tp135
a(g18
g19
g28
I105
g31
S'c:\\Charlie\\charlie\\stimuli\\visual\\stroop\\7-Congruent.png'
g22
g22
I1730
tp136
a(g18
g19
g28
I106
g31
S'c:\\Charlie\\charlie\\stimuli\\visual\\stroop\\53-Congruent.png'
g24
g24
I1590
tp137
a(g18
g19
g28
I107
g31
S'c:\\Charlie\\charlie\\stimuli\\visual\\stroop\\32-Congruent.png'
g24
g24
I1420
tp138
a(g18
g19
g28
I108
g29
S'c:\\Charlie\\charlie\\stimuli\\visual\\stroop\\45-Incongruent.png'
g22
g24
I1470
tp139
a(g18
g19
g28
I109
g31
S'c:\\Charlie\\charlie\\stimuli\\visual\\stroop\\36-Congruent.png'
g24
g24
I1500
tp140
a(g18
g19
g28
I110
g29
S'c:\\Charlie\\charlie\\stimuli\\visual\\stroop\\51-Incongruent.png'
g22
g24
I1530
tp141
a(g18
g19
g28
I111
g31
S'c:\\Charlie\\charlie\\stimuli\\visual\\stroop\\18-Congruent.png'
p142
g22
g22
I1340
tp143
asS'output_format'
p144
(lp145
(S'proband_id'
p146
c__builtin__
str
p147
tp148
a(S'test_name'
p149
g147
tp150
a(S'phase'
p151
g147
tp152
a(S'trialn'
p153
c__builtin__
int
p154
tp155
a(S'cong'
p156
g147
tp157
a(S'f'
g147
tp158
a(S'ans'
p159
g147
tp160
a(S'rsp'
p161
g147
tp162
a(S'rt'
p163
g154
tp164
asg146
g18
sS'filename'
p165
S'4367_stroop.data'
p166
sS'initialised'
p167
g8
(S"\x07\xdf\x04\x01\r\n'\r\xcb@"
tRp168
sS'last_udated'
p169
g8
(S"\x07\xdf\x04\x01\r\n'\r\xcb@"
tRp170
sg149
S'stroop'
p171
sS'directory'
p172
S'c:\\Charlie\\charlie\\data\\raw'
p173
sS'user_id'
p174
S'oleach'
p175
sS'test_started'
p176
I01
sS'abs_filename'
p177
S'c:\\Charlie\\charlie\\data\\raw\\4367_stroop.data'
p178
sS'date_started'
p179
g8
(S'\x07\xdf\x04\x01\r\x0b\x0c\t\xb0x'
tRp180
sS'log'
p181
(lp182
(S'2015-04-01 13:10:39.904000'
S'instance created'
p183
tp184
a(S'2015-04-01 13:11:12.647000'
S'instance updated'
p185
tp186
a(S'2015-04-01 13:11:12.656000'
S'pandas DataFrame of data created'
p187
tp188
a(S'2015-04-01 13:11:12.663000'
S'data saved as csv to c:\\Charlie\\charlie\\data\\csv\\4367_stroop.csv'
tp189
a(S'2015-04-01 13:11:18.063000'
g185
tp190
a(S'2015-04-01 13:11:18.072000'
g187
tp191
a(S'2015-04-01 13:11:18.075000'
S'data saved as csv to c:\\Charlie\\charlie\\data\\csv\\4367_stroop.csv'
tp192
a(S'2015-04-01 13:11:21.361000'
g185
tp193
a(S'2015-04-01 13:11:21.370000'
g187
tp194
a(S'2015-04-01 13:11:21.372000'
S'data saved as csv to c:\\Charlie\\charlie\\data\\csv\\4367_stroop.csv'
tp195
a(S'2015-04-01 13:11:24.109000'
g185
tp196
a(S'2015-04-01 13:11:24.119000'
g187
tp197
a(S'2015-04-01 13:11:24.123000'
S'data saved as csv to c:\\Charlie\\charlie\\data\\csv\\4367_stroop.csv'
tp198
a(S'2015-04-01 13:11:44.501000'
g185
tp199
a(S'2015-04-01 13:11:44.510000'
g187
tp200
a(S'2015-04-01 13:11:44.514000'
S'data saved as csv to c:\\Charlie\\charlie\\data\\csv\\4367_stroop.csv'
tp201
a(S'2015-04-01 13:11:45.915000'
g185
tp202
a(S'2015-04-01 13:11:45.924000'
g187
tp203
a(S'2015-04-01 13:11:45.928000'
S'data saved as csv to c:\\Charlie\\charlie\\data\\csv\\4367_stroop.csv'
tp204
a(S'2015-04-01 13:11:47.428000'
g185
tp205
a(S'2015-04-01 13:11:47.437000'
g187
tp206
a(S'2015-04-01 13:11:47.441000'
S'data saved as csv to c:\\Charlie\\charlie\\data\\csv\\4367_stroop.csv'
tp207
a(S'2015-04-01 13:11:48.631000'
g185
tp208
a(S'2015-04-01 13:11:48.641000'
g187
tp209
a(S'2015-04-01 13:11:48.643000'
S'data saved as csv to c:\\Charlie\\charlie\\data\\csv\\4367_stroop.csv'
tp210
a(S'2015-04-01 13:11:49.921000'
g185
tp211
a(S'2015-04-01 13:11:49.930000'
g187
tp212
a(S'2015-04-01 13:11:49.933000'
S'data saved as csv to c:\\Charlie\\charlie\\data\\csv\\4367_stroop.csv'
tp213
a(S'2015-04-01 13:11:51.161000'
g185
tp214
a(S'2015-04-01 13:11:51.170000'
g187
tp215
a(S'2015-04-01 13:11:51.174000'
S'data saved as csv to c:\\Charlie\\charlie\\data\\csv\\4367_stroop.csv'
tp216
a(S'2015-04-01 13:11:52.454000'
g185
tp217
a(S'2015-04-01 13:11:52.464000'
g187
tp218
a(S'2015-04-01 13:11:52.468000'
S'data saved as csv to c:\\Charlie\\charlie\\data\\csv\\4367_stroop.csv'
tp219
a(S'2015-04-01 13:11:54.469000'
g185
tp220
a(S'2015-04-01 13:11:54.479000'
g187
tp221
a(S'2015-04-01 13:11:54.483000'
S'data saved as csv to c:\\Charlie\\charlie\\data\\csv\\4367_stroop.csv'
tp222
a(S'2015-04-01 13:11:55.814000'
g185
tp223
a(S'2015-04-01 13:11:55.824000'
g187
tp224
a(S'2015-04-01 13:11:55.827000'
S'data saved as csv to c:\\Charlie\\charlie\\data\\csv\\4367_stroop.csv'
tp225
a(S'2015-04-01 13:11:57.018000'
g185
tp226
a(S'2015-04-01 13:11:57.027000'
g187
tp227
a(S'2015-04-01 13:11:57.031000'
S'data saved as csv to c:\\Charlie\\charlie\\data\\csv\\4367_stroop.csv'
tp228
a(S'2015-04-01 13:11:58.402000'
g185
tp229
a(S'2015-04-01 13:11:58.412000'
g187
tp230
a(S'2015-04-01 13:11:58.417000'
S'data saved as csv to c:\\Charlie\\charlie\\data\\csv\\4367_stroop.csv'
tp231
a(S'2015-04-01 13:12:01.408000'
g185
tp232
a(S'2015-04-01 13:12:01.418000'
g187
tp233
a(S'2015-04-01 13:12:01.422000'
S'data saved as csv to c:\\Charlie\\charlie\\data\\csv\\4367_stroop.csv'
tp234
a(S'2015-04-01 13:12:02.940000'
g185
tp235
a(S'2015-04-01 13:12:02.950000'
g187
tp236
a(S'2015-04-01 13:12:02.953000'
S'data saved as csv to c:\\Charlie\\charlie\\data\\csv\\4367_stroop.csv'
tp237
a(S'2015-04-01 13:12:04.161000'
g185
tp238
a(S'2015-04-01 13:12:04.171000'
g187
tp239
a(S'2015-04-01 13:12:04.175000'
S'data saved as csv to c:\\Charlie\\charlie\\data\\csv\\4367_stroop.csv'
tp240
a(S'2015-04-01 13:12:05.365000'
g185
tp241
a(S'2015-04-01 13:12:05.375000'
g187
tp242
a(S'2015-04-01 13:12:05.378000'
S'data saved as csv to c:\\Charlie\\charlie\\data\\csv\\4367_stroop.csv'
tp243
a(S'2015-04-01 13:12:06.599000'
g185
tp244
a(S'2015-04-01 13:12:06.609000'
g187
tp245
a(S'2015-04-01 13:12:06.612000'
S'data saved as csv to c:\\Charlie\\charlie\\data\\csv\\4367_stroop.csv'
tp246
a(S'2015-04-01 13:12:08.261000'
g185
tp247
a(S'2015-04-01 13:12:08.272000'
g187
tp248
a(S'2015-04-01 13:12:08.275000'
S'data saved as csv to c:\\Charlie\\charlie\\data\\csv\\4367_stroop.csv'
tp249
a(S'2015-04-01 13:12:09.537000'
g185
tp250
a(S'2015-04-01 13:12:09.547000'
g187
tp251
a(S'2015-04-01 13:12:09.551000'
S'data saved as csv to c:\\Charlie\\charlie\\data\\csv\\4367_stroop.csv'
tp252
a(S'2015-04-01 13:12:11.030000'
g185
tp253
a(S'2015-04-01 13:12:11.040000'
g187
tp254
a(S'2015-04-01 13:12:11.043000'
S'data saved as csv to c:\\Charlie\\charlie\\data\\csv\\4367_stroop.csv'
tp255
a(S'2015-04-01 13:12:12.354000'
g185
tp256
a(S'2015-04-01 13:12:12.364000'
g187
tp257
a(S'2015-04-01 13:12:12.368000'
S'data saved as csv to c:\\Charlie\\charlie\\data\\csv\\4367_stroop.csv'
tp258
a(S'2015-04-01 13:12:13.598000'
g185
tp259
a(S'2015-04-01 13:12:13.608000'
g187
tp260
a(S'2015-04-01 13:12:13.612000'
S'data saved as csv to c:\\Charlie\\charlie\\data\\csv\\4367_stroop.csv'
tp261
a(S'2015-04-01 13:12:17.025000'
g185
tp262
a(S'2015-04-01 13:12:17.030000'
g187
tp263
a(S'2015-04-01 13:12:17.033000'
S'data saved as csv to c:\\Charlie\\charlie\\data\\csv\\4367_stroop.csv'
tp264
a(S'2015-04-01 13:12:21.273000'
g185
tp265
a(S'2015-04-01 13:12:21.283000'
g187
tp266
a(S'2015-04-01 13:12:21.285000'
S'data saved as csv to c:\\Charlie\\charlie\\data\\csv\\4367_stroop.csv'
tp267
a(S'2015-04-01 13:12:24.255000'
g185
tp268
a(S'2015-04-01 13:12:24.265000'
g187
tp269
a(S'2015-04-01 13:12:24.269000'
S'data saved as csv to c:\\Charlie\\charlie\\data\\csv\\4367_stroop.csv'
tp270
a(S'2015-04-01 13:12:26.703000'
g185
tp271
a(S'2015-04-01 13:12:26.713000'
g187
tp272
a(S'2015-04-01 13:12:26.715000'
S'data saved as csv to c:\\Charlie\\charlie\\data\\csv\\4367_stroop.csv'
tp273
a(S'2015-04-01 13:12:28.705000'
g185
tp274
a(S'2015-04-01 13:12:28.715000'
g187
tp275
a(S'2015-04-01 13:12:28.719000'
S'data saved as csv to c:\\Charlie\\charlie\\data\\csv\\4367_stroop.csv'
tp276
a(S'2015-04-01 13:12:30.811000'
g185
tp277
a(S'2015-04-01 13:12:30.821000'
g187
tp278
a(S'2015-04-01 13:12:30.824000'
S'data saved as csv to c:\\Charlie\\charlie\\data\\csv\\4367_stroop.csv'
tp279
a(S'2015-04-01 13:12:32.543000'
g185
tp280
a(S'2015-04-01 13:12:32.553000'
g187
tp281
a(S'2015-04-01 13:12:32.557000'
S'data saved as csv to c:\\Charlie\\charlie\\data\\csv\\4367_stroop.csv'
tp282
a(S'2015-04-01 13:12:34.740000'
g185
tp283
a(S'2015-04-01 13:12:34.750000'
g187
tp284
a(S'2015-04-01 13:12:34.754000'
S'data saved as csv to c:\\Charlie\\charlie\\data\\csv\\4367_stroop.csv'
tp285
a(S'2015-04-01 13:12:36.324000'
g185
tp286
a(S'2015-04-01 13:12:36.334000'
g187
tp287
a(S'2015-04-01 13:12:36.338000'
S'data saved as csv to c:\\Charlie\\charlie\\data\\csv\\4367_stroop.csv'
tp288
a(S'2015-04-01 13:12:39.749000'
g185
tp289
a(S'2015-04-01 13:12:39.760000'
g187
tp290
a(S'2015-04-01 13:12:39.764000'
S'data saved as csv to c:\\Charlie\\charlie\\data\\csv\\4367_stroop.csv'
tp291
a(S'2015-04-01 13:12:41.373000'
g185
tp292
a(S'2015-04-01 13:12:41.383000'
g187
tp293
a(S'2015-04-01 13:12:41.385000'
S'data saved as csv to c:\\Charlie\\charlie\\data\\csv\\4367_stroop.csv'
tp294
a(S'2015-04-01 13:12:42.995000'
g185
tp295
a(S'2015-04-01 13:12:43.005000'
g187
tp296
a(S'2015-04-01 13:12:43.007000'
S'data saved as csv to c:\\Charlie\\charlie\\data\\csv\\4367_stroop.csv'
tp297
a(S'2015-04-01 13:12:44.716000'
g185
tp298
a(S'2015-04-01 13:12:44.726000'
g187
tp299
a(S'2015-04-01 13:12:44.730000'
S'data saved as csv to c:\\Charlie\\charlie\\data\\csv\\4367_stroop.csv'
tp300
a(S'2015-04-01 13:12:46.473000'
g185
tp301
a(S'2015-04-01 13:12:46.483000'
g187
tp302
a(S'2015-04-01 13:12:46.486000'
S'data saved as csv to c:\\Charlie\\charlie\\data\\csv\\4367_stroop.csv'
tp303
a(S'2015-04-01 13:12:48.045000'
g185
tp304
a(S'2015-04-01 13:12:48.055000'
g187
tp305
a(S'2015-04-01 13:12:48.059000'
S'data saved as csv to c:\\Charlie\\charlie\\data\\csv\\4367_stroop.csv'
tp306
a(S'2015-04-01 13:12:49.441000'
g185
tp307
a(S'2015-04-01 13:12:49.451000'
g187
tp308
a(S'2015-04-01 13:12:49.455000'
S'data saved as csv to c:\\Charlie\\charlie\\data\\csv\\4367_stroop.csv'
tp309
a(S'2015-04-01 13:12:50.844000'
g185
tp310
a(S'2015-04-01 13:12:50.854000'
g187
tp311
a(S'2015-04-01 13:12:50.858000'
S'data saved as csv to c:\\Charlie\\charlie\\data\\csv\\4367_stroop.csv'
tp312
a(S'2015-04-01 13:12:52.250000'
g185
tp313
a(S'2015-04-01 13:12:52.260000'
g187
tp314
a(S'2015-04-01 13:12:52.264000'
S'data saved as csv to c:\\Charlie\\charlie\\data\\csv\\4367_stroop.csv'
tp315
a(S'2015-04-01 13:12:53.726000'
g185
tp316
a(S'2015-04-01 13:12:53.736000'
g187
tp317
a(S'2015-04-01 13:12:53.740000'
S'data saved as csv to c:\\Charlie\\charlie\\data\\csv\\4367_stroop.csv'
tp318
a(S'2015-04-01 13:12:55.101000'
g185
tp319
a(S'2015-04-01 13:12:55.111000'
g187
tp320
a(S'2015-04-01 13:12:55.115000'
S'data saved as csv to c:\\Charlie\\charlie\\data\\csv\\4367_stroop.csv'
tp321
a(S'2015-04-01 13:12:56.468000'
g185
tp322
a(S'2015-04-01 13:12:56.477000'
g187
tp323
a(S'2015-04-01 13:12:56.480000'
S'data saved as csv to c:\\Charlie\\charlie\\data\\csv\\4367_stroop.csv'
tp324
a(S'2015-04-01 13:12:57.879000'
g185
tp325
a(S'2015-04-01 13:12:57.889000'
g187
tp326
a(S'2015-04-01 13:12:57.894000'
S'data saved as csv to c:\\Charlie\\charlie\\data\\csv\\4367_stroop.csv'
tp327
a(S'2015-04-01 13:12:59.535000'
g185
tp328
a(S'2015-04-01 13:12:59.546000'
g187
tp329
a(S'2015-04-01 13:12:59.550000'
S'data saved as csv to c:\\Charlie\\charlie\\data\\csv\\4367_stroop.csv'
tp330
a(S'2015-04-01 13:13:00.911000'
g185
tp331
a(S'2015-04-01 13:13:00.921000'
g187
tp332
a(S'2015-04-01 13:13:00.926000'
S'data saved as csv to c:\\Charlie\\charlie\\data\\csv\\4367_stroop.csv'
tp333
a(S'2015-04-01 13:13:02.907000'
g185
tp334
a(S'2015-04-01 13:13:02.917000'
g187
tp335
a(S'2015-04-01 13:13:02.921000'
S'data saved as csv to c:\\Charlie\\charlie\\data\\csv\\4367_stroop.csv'
tp336
a(S'2015-04-01 13:13:04.552000'
g185
tp337
a(S'2015-04-01 13:13:04.563000'
g187
tp338
a(S'2015-04-01 13:13:04.567000'
S'data saved as csv to c:\\Charlie\\charlie\\data\\csv\\4367_stroop.csv'
tp339
a(S'2015-04-01 13:13:06.090000'
g185
tp340
a(S'2015-04-01 13:13:06.101000'
g187
tp341
a(S'2015-04-01 13:13:06.105000'
S'data saved as csv to c:\\Charlie\\charlie\\data\\csv\\4367_stroop.csv'
tp342
a(S'2015-04-01 13:13:07.594000'
g185
tp343
a(S'2015-04-01 13:13:07.605000'
g187
tp344
a(S'2015-04-01 13:13:07.608000'
S'data saved as csv to c:\\Charlie\\charlie\\data\\csv\\4367_stroop.csv'
tp345
a(S'2015-04-01 13:13:09.248000'
g185
tp346
a(S'2015-04-01 13:13:09.257000'
g187
tp347
a(S'2015-04-01 13:13:09.259000'
S'data saved as csv to c:\\Charlie\\charlie\\data\\csv\\4367_stroop.csv'
tp348
a(S'2015-04-01 13:13:10.868000'
g185
tp349
a(S'2015-04-01 13:13:10.877000'
g187
tp350
a(S'2015-04-01 13:13:10.880000'
S'data saved as csv to c:\\Charlie\\charlie\\data\\csv\\4367_stroop.csv'
tp351
a(S'2015-04-01 13:13:12.609000'
g185
tp352
a(S'2015-04-01 13:13:12.620000'
g187
tp353
a(S'2015-04-01 13:13:12.624000'
S'data saved as csv to c:\\Charlie\\charlie\\data\\csv\\4367_stroop.csv'
tp354
a(S'2015-04-01 13:13:15.147000'
g185
tp355
a(S'2015-04-01 13:13:15.158000'
g187
tp356
a(S'2015-04-01 13:13:15.162000'
S'data saved as csv to c:\\Charlie\\charlie\\data\\csv\\4367_stroop.csv'
tp357
a(S'2015-04-01 13:13:16.915000'
g185
tp358
a(S'2015-04-01 13:13:16.926000'
g187
tp359
a(S'2015-04-01 13:13:16.930000'
S'data saved as csv to c:\\Charlie\\charlie\\data\\csv\\4367_stroop.csv'
tp360
a(S'2015-04-01 13:13:18.722000'
g185
tp361
a(S'2015-04-01 13:13:18.733000'
g187
tp362
a(S'2015-04-01 13:13:18.736000'
S'data saved as csv to c:\\Charlie\\charlie\\data\\csv\\4367_stroop.csv'
tp363
a(S'2015-04-01 13:13:24.466000'
g185
tp364
a(S'2015-04-01 13:13:24.474000'
g187
tp365
a(S'2015-04-01 13:13:24.477000'
S'data saved as csv to c:\\Charlie\\charlie\\data\\csv\\4367_stroop.csv'
tp366
a(S'2015-04-01 13:13:26.659000'
g185
tp367
a(S'2015-04-01 13:13:26.670000'
g187
tp368
a(S'2015-04-01 13:13:26.674000'
S'data saved as csv to c:\\Charlie\\charlie\\data\\csv\\4367_stroop.csv'
tp369
a(S'2015-04-01 13:13:29.037000'
g185
tp370
a(S'2015-04-01 13:13:29.048000'
g187
tp371
a(S'2015-04-01 13:13:29.052000'
S'data saved as csv to c:\\Charlie\\charlie\\data\\csv\\4367_stroop.csv'
tp372
a(S'2015-04-01 13:13:31.385000'
g185
tp373
a(S'2015-04-01 13:13:31.396000'
g187
tp374
a(S'2015-04-01 13:13:31.399000'
S'data saved as csv to c:\\Charlie\\charlie\\data\\csv\\4367_stroop.csv'
tp375
a(S'2015-04-01 13:13:33.479000'
g185
tp376
a(S'2015-04-01 13:13:33.490000'
g187
tp377
a(S'2015-04-01 13:13:33.494000'
S'data saved as csv to c:\\Charlie\\charlie\\data\\csv\\4367_stroop.csv'
tp378
a(S'2015-04-01 13:13:35.374000'
g185
tp379
a(S'2015-04-01 13:13:35.385000'
g187
tp380
a(S'2015-04-01 13:13:35.388000'
S'data saved as csv to c:\\Charlie\\charlie\\data\\csv\\4367_stroop.csv'
tp381
a(S'2015-04-01 13:13:37.220000'
g185
tp382
a(S'2015-04-01 13:13:37.231000'
g187
tp383
a(S'2015-04-01 13:13:37.235000'
S'data saved as csv to c:\\Charlie\\charlie\\data\\csv\\4367_stroop.csv'
tp384
a(S'2015-04-01 13:13:38.748000'
g185
tp385
a(S'2015-04-01 13:13:38.758000'
g187
tp386
a(S'2015-04-01 13:13:38.763000'
S'data saved as csv to c:\\Charlie\\charlie\\data\\csv\\4367_stroop.csv'
tp387
a(S'2015-04-01 13:13:40.234000'
g185
tp388
a(S'2015-04-01 13:13:40.245000'
g187
tp389
a(S'2015-04-01 13:13:40.248000'
S'data saved as csv to c:\\Charlie\\charlie\\data\\csv\\4367_stroop.csv'
tp390
a(S'2015-04-01 13:13:41.997000'
g185
tp391
a(S'2015-04-01 13:13:42.007000'
g187
tp392
a(S'2015-04-01 13:13:42.012000'
S'data saved as csv to c:\\Charlie\\charlie\\data\\csv\\4367_stroop.csv'
tp393
a(S'2015-04-01 13:13:43.773000'
g185
tp394
a(S'2015-04-01 13:13:43.784000'
g187
tp395
a(S'2015-04-01 13:13:43.788000'
S'data saved as csv to c:\\Charlie\\charlie\\data\\csv\\4367_stroop.csv'
tp396
a(S'2015-04-01 13:13:45.247000'
g185
tp397
a(S'2015-04-01 13:13:45.257000'
g187
tp398
a(S'2015-04-01 13:13:45.260000'
S'data saved as csv to c:\\Charlie\\charlie\\data\\csv\\4367_stroop.csv'
tp399
a(S'2015-04-01 13:13:46.750000'
g185
tp400
a(S'2015-04-01 13:13:46.760000'
g187
tp401
a(S'2015-04-01 13:13:46.765000'
S'data saved as csv to c:\\Charlie\\charlie\\data\\csv\\4367_stroop.csv'
tp402
a(S'2015-04-01 13:13:48.148000'
g185
tp403
a(S'2015-04-01 13:13:48.159000'
g187
tp404
a(S'2015-04-01 13:13:48.163000'
S'data saved as csv to c:\\Charlie\\charlie\\data\\csv\\4367_stroop.csv'
tp405
a(S'2015-04-01 13:13:49.825000'
g185
tp406
a(S'2015-04-01 13:13:49.836000'
g187
tp407
a(S'2015-04-01 13:13:49.840000'
S'data saved as csv to c:\\Charlie\\charlie\\data\\csv\\4367_stroop.csv'
tp408
a(S'2015-04-01 13:13:51.393000'
g185
tp409
a(S'2015-04-01 13:13:51.404000'
g187
tp410
a(S'2015-04-01 13:13:51.407000'
S'data saved as csv to c:\\Charlie\\charlie\\data\\csv\\4367_stroop.csv'
tp411
a(S'2015-04-01 13:13:53.207000'
g185
tp412
a(S'2015-04-01 13:13:53.218000'
g187
tp413
a(S'2015-04-01 13:13:53.222000'
S'data saved as csv to c:\\Charlie\\charlie\\data\\csv\\4367_stroop.csv'
tp414
a(S'2015-04-01 13:13:54.695000'
g185
tp415
a(S'2015-04-01 13:13:54.706000'
g187
tp416
a(S'2015-04-01 13:13:54.709000'
S'data saved as csv to c:\\Charlie\\charlie\\data\\csv\\4367_stroop.csv'
tp417
a(S'2015-04-01 13:13:56.371000'
g185
tp418
a(S'2015-04-01 13:13:56.382000'
g187
tp419
a(S'2015-04-01 13:13:56.387000'
S'data saved as csv to c:\\Charlie\\charlie\\data\\csv\\4367_stroop.csv'
tp420
a(S'2015-04-01 13:13:58.047000'
g185
tp421
a(S'2015-04-01 13:13:58.058000'
g187
tp422
a(S'2015-04-01 13:13:58.063000'
S'data saved as csv to c:\\Charlie\\charlie\\data\\csv\\4367_stroop.csv'
tp423
a(S'2015-04-01 13:13:59.584000'
g185
tp424
a(S'2015-04-01 13:13:59.595000'
g187
tp425
a(S'2015-04-01 13:13:59.599000'
S'data saved as csv to c:\\Charlie\\charlie\\data\\csv\\4367_stroop.csv'
tp426
a(S'2015-04-01 13:14:01.229000'
g185
tp427
a(S'2015-04-01 13:14:01.240000'
g187
tp428
a(S'2015-04-01 13:14:01.245000'
S'data saved as csv to c:\\Charlie\\charlie\\data\\csv\\4367_stroop.csv'
tp429
a(S'2015-04-01 13:14:02.756000'
g185
tp430
a(S'2015-04-01 13:14:02.767000'
g187
tp431
a(S'2015-04-01 13:14:02.772000'
S'data saved as csv to c:\\Charlie\\charlie\\data\\csv\\4367_stroop.csv'
tp432
a(S'2015-04-01 13:14:04.374000'
g185
tp433
a(S'2015-04-01 13:14:04.385000'
g187
tp434
a(S'2015-04-01 13:14:04.390000'
S'data saved as csv to c:\\Charlie\\charlie\\data\\csv\\4367_stroop.csv'
tp435
a(S'2015-04-01 13:14:06.024000'
g185
tp436
a(S'2015-04-01 13:14:06.035000'
g187
tp437
a(S'2015-04-01 13:14:06.040000'
S'data saved as csv to c:\\Charlie\\charlie\\data\\csv\\4367_stroop.csv'
tp438
a(S'2015-04-01 13:14:08.661000'
g185
tp439
a(S'2015-04-01 13:14:08.666000'
g187
tp440
a(S'2015-04-01 13:14:08.668000'
S'data saved as csv to c:\\Charlie\\charlie\\data\\csv\\4367_stroop.csv'
tp441
a(S'2015-04-01 13:14:10.158000'
g185
tp442
a(S'2015-04-01 13:14:10.161000'
g187
tp443
a(S'2015-04-01 13:14:10.163000'
S'data saved as csv to c:\\Charlie\\charlie\\data\\csv\\4367_stroop.csv'
tp444
a(S'2015-04-01 13:14:11.961000'
g185
tp445
a(S'2015-04-01 13:14:11.972000'
g187
tp446
a(S'2015-04-01 13:14:11.977000'
S'data saved as csv to c:\\Charlie\\charlie\\data\\csv\\4367_stroop.csv'
tp447
a(S'2015-04-01 13:14:13.579000'
g185
tp448
a(S'2015-04-01 13:14:13.590000'
g187
tp449
a(S'2015-04-01 13:14:13.595000'
S'data saved as csv to c:\\Charlie\\charlie\\data\\csv\\4367_stroop.csv'
tp450
a(S'2015-04-01 13:14:15.167000'
g185
tp451
a(S'2015-04-01 13:14:15.175000'
g187
tp452
a(S'2015-04-01 13:14:15.178000'
S'data saved as csv to c:\\Charlie\\charlie\\data\\csv\\4367_stroop.csv'
tp453
a(S'2015-04-01 13:14:16.710000'
g185
tp454
a(S'2015-04-01 13:14:16.721000'
g187
tp455
a(S'2015-04-01 13:14:16.726000'
S'data saved as csv to c:\\Charlie\\charlie\\data\\csv\\4367_stroop.csv'
tp456
a(S'2015-04-01 13:14:18.467000'
g185
tp457
a(S'2015-04-01 13:14:18.478000'
g187
tp458
a(S'2015-04-01 13:14:18.483000'
S'data saved as csv to c:\\Charlie\\charlie\\data\\csv\\4367_stroop.csv'
tp459
a(S'2015-04-01 13:14:20.006000'
g185
tp460
a(S'2015-04-01 13:14:20.017000'
g187
tp461
a(S'2015-04-01 13:14:20.022000'
S'data saved as csv to c:\\Charlie\\charlie\\data\\csv\\4367_stroop.csv'
tp462
a(S'2015-04-01 13:14:21.515000'
g185
tp463
a(S'2015-04-01 13:14:21.526000'
g187
tp464
a(S'2015-04-01 13:14:21.530000'
S'data saved as csv to c:\\Charlie\\charlie\\data\\csv\\4367_stroop.csv'
tp465
a(S'2015-04-01 13:14:22.900000'
g185
tp466
a(S'2015-04-01 13:14:22.911000'
g187
tp467
a(S'2015-04-01 13:14:22.916000'
S'data saved as csv to c:\\Charlie\\charlie\\data\\csv\\4367_stroop.csv'
tp468
a(S'2015-04-01 13:14:24.389000'
g185
tp469
a(S'2015-04-01 13:14:24.400000'
g187
tp470
a(S'2015-04-01 13:14:24.405000'
S'data saved as csv to c:\\Charlie\\charlie\\data\\csv\\4367_stroop.csv'
tp471
a(S'2015-04-01 13:14:27.048000'
g185
tp472
a(S'2015-04-01 13:14:27.060000'
g187
tp473
a(S'2015-04-01 13:14:27.064000'
S'data saved as csv to c:\\Charlie\\charlie\\data\\csv\\4367_stroop.csv'
tp474
a(S'2015-04-01 13:14:28.788000'
g185
tp475
a(S'2015-04-01 13:14:28.799000'
g187
tp476
a(S'2015-04-01 13:14:28.804000'
S'data saved as csv to c:\\Charlie\\charlie\\data\\csv\\4367_stroop.csv'
tp477
a(S'2015-04-01 13:14:30.386000'
g185
tp478
a(S'2015-04-01 13:14:30.397000'
g187
tp479
a(S'2015-04-01 13:14:30.402000'
S'data saved as csv to c:\\Charlie\\charlie\\data\\csv\\4367_stroop.csv'
tp480
a(S'2015-04-01 13:14:31.865000'
g185
tp481
a(S'2015-04-01 13:14:31.876000'
g187
tp482
a(S'2015-04-01 13:14:31.880000'
S'data saved as csv to c:\\Charlie\\charlie\\data\\csv\\4367_stroop.csv'
tp483
a(S'2015-04-01 13:14:34.482000'
g185
tp484
a(S'2015-04-01 13:14:34.493000'
g187
tp485
a(S'2015-04-01 13:14:34.498000'
S'data saved as csv to c:\\Charlie\\charlie\\data\\csv\\4367_stroop.csv'
tp486
a(S'2015-04-01 13:14:35.803000'
g185
tp487
a(S'2015-04-01 13:14:35.814000'
g187
tp488
a(S'2015-04-01 13:14:35.819000'
S'data saved as csv to c:\\Charlie\\charlie\\data\\csv\\4367_stroop.csv'
tp489
a(S'2015-04-01 13:14:37.073000'
g185
tp490
a(S'2015-04-01 13:14:37.084000'
g187
tp491
a(S'2015-04-01 13:14:37.089000'
S'data saved as csv to c:\\Charlie\\charlie\\data\\csv\\4367_stroop.csv'
tp492
a(S'2015-04-01 13:14:38.582000'
g185
tp493
a(S'2015-04-01 13:14:38.593000'
g187
tp494
a(S'2015-04-01 13:14:38.598000'
S'data saved as csv to c:\\Charlie\\charlie\\data\\csv\\4367_stroop.csv'
tp495
a(S'2015-04-01 13:14:40.529000'
g185
tp496
a(S'2015-04-01 13:14:40.540000'
g187
tp497
a(S'2015-04-01 13:14:40.545000'
S'data saved as csv to c:\\Charlie\\charlie\\data\\csv\\4367_stroop.csv'
tp498
a(S'2015-04-01 13:14:41.928000'
g185
tp499
a(S'2015-04-01 13:14:41.935000'
g187
tp500
a(S'2015-04-01 13:14:41.938000'
S'data saved as csv to c:\\Charlie\\charlie\\data\\csv\\4367_stroop.csv'
tp501
a(S'2015-04-01 13:14:43.658000'
g185
tp502
a(S'2015-04-01 13:14:43.669000'
g187
tp503
a(S'2015-04-01 13:14:43.672000'
S'data saved as csv to c:\\Charlie\\charlie\\data\\csv\\4367_stroop.csv'
tp504
a(S'2015-04-01 13:14:45.183000'
g185
tp505
a(S'2015-04-01 13:14:45.194000'
g187
tp506
a(S'2015-04-01 13:14:45.199000'
S'data saved as csv to c:\\Charlie\\charlie\\data\\csv\\4367_stroop.csv'
tp507
a(S'2015-04-01 13:14:46.831000'
g185
tp508
a(S'2015-04-01 13:14:46.842000'
g187
tp509
a(S'2015-04-01 13:14:46.847000'
S'data saved as csv to c:\\Charlie\\charlie\\data\\csv\\4367_stroop.csv'
tp510
a(S'2015-04-01 13:14:48.629000'
g185
tp511
a(S'2015-04-01 13:14:48.640000'
g187
tp512
a(S'2015-04-01 13:14:48.646000'
S'data saved as csv to c:\\Charlie\\charlie\\data\\csv\\4367_stroop.csv'
tp513
a(S'2015-04-01 13:14:50.508000'
g185
tp514
a(S'2015-04-01 13:14:50.519000'
g187
tp515
a(S'2015-04-01 13:14:50.524000'
S'data saved as csv to c:\\Charlie\\charlie\\data\\csv\\4367_stroop.csv'
tp516
a(S'2015-04-01 13:14:52.248000'
g185
tp517
a(S'2015-04-01 13:14:52.259000'
g187
tp518
a(S'2015-04-01 13:14:52.264000'
S'data saved as csv to c:\\Charlie\\charlie\\data\\csv\\4367_stroop.csv'
tp519
a(S'2015-04-01 13:14:53.817000'
g185
tp520
a(S'2015-04-01 13:14:53.829000'
g187
tp521
a(S'2015-04-01 13:14:53.834000'
S'data saved as csv to c:\\Charlie\\charlie\\data\\csv\\4367_stroop.csv'
tp522
a(S'2015-04-01 13:14:55.437000'
g185
tp523
a(S'2015-04-01 13:14:55.448000'
g187
tp524
a(S'2015-04-01 13:14:55.454000'
S'data saved as csv to c:\\Charlie\\charlie\\data\\csv\\4367_stroop.csv'
tp525
a(S'2015-04-01 13:14:57.088000'
g185
tp526
a(S'2015-04-01 13:14:57.099000'
g187
tp527
a(S'2015-04-01 13:14:57.104000'
S'data saved as csv to c:\\Charlie\\charlie\\data\\csv\\4367_stroop.csv'
tp528
a(S'2015-04-01 13:14:58.768000'
g185
tp529
a(S'2015-04-01 13:14:58.780000'
g187
tp530
a(S'2015-04-01 13:14:58.785000'
S'data saved as csv to c:\\Charlie\\charlie\\data\\csv\\4367_stroop.csv'
tp531
a(S'2015-04-01 13:15:00.258000'
g185
tp532
a(S'2015-04-01 13:15:00.269000'
g187
tp533
a(S'2015-04-01 13:15:00.275000'
S'data saved as csv to c:\\Charlie\\charlie\\data\\csv\\4367_stroop.csv'
tp534
asb.