(icharlie.tools.data
Data
p1
(dp2
S'lang'
p3
S'EN'
p4
sS'control'
p5
(lp6
sS'last_updated'
p7
cdatetime
datetime
p8
(S'\x07\xdf\x04\x0f\x0f\x14\n\n\xdd@'
tRp9
sS'last_opened'
p10
g8
(S'\x07\xdf\x04\x0f\x0f\x0e\x02\t\xcf\xb8'
tRp11
sS'proj_id'
p12
S'connecitivty'
p13
sS'date_done'
p14
NsS'test_done'
p15
I01
sS'data'
p16
(lp17
(S'4372'
p18
S'scap'
p19
S'practice'
p20
I3
I0
S'Yes'
p21
S'c:\\Charlie\\charlie\\stimuli\\visual\\scap\\practice-1.BMP'
S'c:\\Charlie\\charlie\\stimuli\\visual\\scap\\practice-2.BMP'
g21
I1170
tp22
a(g18
g19
g20
I4
I1
S'No'
p23
S'c:\\Charlie\\charlie\\stimuli\\visual\\scap\\practice-3.BMP'
S'c:\\Charlie\\charlie\\stimuli\\visual\\scap\\practice-4.BMP'
g23
I600
tp24
a(g18
g19
g20
I5
I2
g21
S'c:\\Charlie\\charlie\\stimuli\\visual\\scap\\practice-5.BMP'
S'c:\\Charlie\\charlie\\stimuli\\visual\\scap\\practice-6.BMP'
g21
I1200
tp25
a(g18
g19
S'test'
p26
I3
I0
g21
S'c:\\Charlie\\charlie\\stimuli\\visual\\scap\\load3-1.BMP'
S'c:\\Charlie\\charlie\\stimuli\\visual\\scap\\load3-2.BMP'
g21
I650
tp27
a(g18
g19
g26
I3
I1
g23
S'c:\\Charlie\\charlie\\stimuli\\visual\\scap\\load3-3.BMP'
S'c:\\Charlie\\charlie\\stimuli\\visual\\scap\\load3-4.BMP'
g23
I980
tp28
a(g18
g19
g26
I3
I2
g21
S'c:\\Charlie\\charlie\\stimuli\\visual\\scap\\load3-5.BMP'
S'c:\\Charlie\\charlie\\stimuli\\visual\\scap\\load3-6.BMP'
g21
I880
tp29
a(g18
g19
g26
I3
I3
g21
S'c:\\Charlie\\charlie\\stimuli\\visual\\scap\\load3-7.BMP'
S'c:\\Charlie\\charlie\\stimuli\\visual\\scap\\load3-8.BMP'
g21
I840
tp30
a(g18
g19
g26
I3
I4
g23
S'c:\\Charlie\\charlie\\stimuli\\visual\\scap\\load3-9.BMP'
S'c:\\Charlie\\charlie\\stimuli\\visual\\scap\\load3-10.BMP'
g23
I1000
tp31
a(g18
g19
g26
I3
I5
g21
S'c:\\Charlie\\charlie\\stimuli\\visual\\scap\\load3-11.BMP'
S'c:\\Charlie\\charlie\\stimuli\\visual\\scap\\load3-12.BMP'
g21
I1160
tp32
a(g18
g19
g26
I3
I6
g23
S'c:\\Charlie\\charlie\\stimuli\\visual\\scap\\load3-13.BMP'
S'c:\\Charlie\\charlie\\stimuli\\visual\\scap\\load3-14.BMP'
g23
I640
tp33
a(g18
g19
g26
I3
I7
g23
S'c:\\Charlie\\charlie\\stimuli\\visual\\scap\\load3-15.BMP'
S'c:\\Charlie\\charlie\\stimuli\\visual\\scap\\load3-16.BMP'
g23
I930
tp34
a(g18
g19
g26
I3
I8
g21
S'c:\\Charlie\\charlie\\stimuli\\visual\\scap\\load3-17.BMP'
S'c:\\Charlie\\charlie\\stimuli\\visual\\scap\\load3-18.BMP'
g21
I840
tp35
a(g18
g19
g26
I3
I9
g23
S'c:\\Charlie\\charlie\\stimuli\\visual\\scap\\load3-19.BMP'
S'c:\\Charlie\\charlie\\stimuli\\visual\\scap\\load3-20.BMP'
g23
I810
tp36
a(g18
g19
g26
I3
I10
g21
S'c:\\Charlie\\charlie\\stimuli\\visual\\scap\\load3-21.BMP'
S'c:\\Charlie\\charlie\\stimuli\\visual\\scap\\load3-22.BMP'
g21
I820
tp37
a(g18
g19
g26
I3
I11
g21
S'c:\\Charlie\\charlie\\stimuli\\visual\\scap\\load3-23.BMP'
S'c:\\Charlie\\charlie\\stimuli\\visual\\scap\\load3-24.BMP'
g21
I760
tp38
a(g18
g19
g26
I3
I12
g23
S'c:\\Charlie\\charlie\\stimuli\\visual\\scap\\load3-25.BMP'
S'c:\\Charlie\\charlie\\stimuli\\visual\\scap\\load3-26.BMP'
g23
I940
tp39
a(g18
g19
g26
I3
I13
g23
S'c:\\Charlie\\charlie\\stimuli\\visual\\scap\\load3-27.BMP'
S'c:\\Charlie\\charlie\\stimuli\\visual\\scap\\load3-28.BMP'
g23
I840
tp40
a(g18
g19
g26
I4
I0
g23
S'c:\\Charlie\\charlie\\stimuli\\visual\\scap\\load4-1.BMP'
S'c:\\Charlie\\charlie\\stimuli\\visual\\scap\\load4-2.BMP'
g23
I850
tp41
a(g18
g19
g26
I4
I1
g21
S'c:\\Charlie\\charlie\\stimuli\\visual\\scap\\load4-3.BMP'
S'c:\\Charlie\\charlie\\stimuli\\visual\\scap\\load4-4.BMP'
g21
I960
tp42
a(g18
g19
g26
I4
I2
g21
S'c:\\Charlie\\charlie\\stimuli\\visual\\scap\\load4-5.BMP'
S'c:\\Charlie\\charlie\\stimuli\\visual\\scap\\load4-6.BMP'
g21
I750
tp43
a(g18
g19
g26
I4
I3
g23
S'c:\\Charlie\\charlie\\stimuli\\visual\\scap\\load4-7.BMP'
S'c:\\Charlie\\charlie\\stimuli\\visual\\scap\\load4-8.BMP'
g23
I710
tp44
a(g18
g19
g26
I4
I4
g23
S'c:\\Charlie\\charlie\\stimuli\\visual\\scap\\load4-9.BMP'
S'c:\\Charlie\\charlie\\stimuli\\visual\\scap\\load4-10.BMP'
g23
I990
tp45
a(g18
g19
g26
I4
I5
g21
S'c:\\Charlie\\charlie\\stimuli\\visual\\scap\\load4-11.BMP'
S'c:\\Charlie\\charlie\\stimuli\\visual\\scap\\load4-12.BMP'
g21
I930
tp46
a(g18
g19
g26
I4
I6
g23
S'c:\\Charlie\\charlie\\stimuli\\visual\\scap\\load4-13.BMP'
S'c:\\Charlie\\charlie\\stimuli\\visual\\scap\\load4-14.BMP'
g23
I830
tp47
a(g18
g19
g26
I4
I7
g21
S'c:\\Charlie\\charlie\\stimuli\\visual\\scap\\load4-15.BMP'
S'c:\\Charlie\\charlie\\stimuli\\visual\\scap\\load4-16.BMP'
g21
I1010
tp48
a(g18
g19
g26
I4
I8
g23
S'c:\\Charlie\\charlie\\stimuli\\visual\\scap\\load4-17.BMP'
S'c:\\Charlie\\charlie\\stimuli\\visual\\scap\\load4-18.BMP'
g23
I930
tp49
a(g18
g19
g26
I4
I9
g21
S'c:\\Charlie\\charlie\\stimuli\\visual\\scap\\load4-19.BMP'
S'c:\\Charlie\\charlie\\stimuli\\visual\\scap\\load4-20.BMP'
g21
I910
tp50
a(g18
g19
g26
I4
I10
g21
S'c:\\Charlie\\charlie\\stimuli\\visual\\scap\\load4-21.BMP'
S'c:\\Charlie\\charlie\\stimuli\\visual\\scap\\load4-22.BMP'
g21
I920
tp51
a(g18
g19
g26
I4
I11
g23
S'c:\\Charlie\\charlie\\stimuli\\visual\\scap\\load4-23.BMP'
S'c:\\Charlie\\charlie\\stimuli\\visual\\scap\\load4-24.BMP'
g21
I1430
tp52
a(g18
g19
g26
I4
I12
g21
S'c:\\Charlie\\charlie\\stimuli\\visual\\scap\\load4-25.BMP'
S'c:\\Charlie\\charlie\\stimuli\\visual\\scap\\load4-26.BMP'
g21
I791
tp53
a(g18
g19
g26
I4
I13
g23
S'c:\\Charlie\\charlie\\stimuli\\visual\\scap\\load4-27.BMP'
S'c:\\Charlie\\charlie\\stimuli\\visual\\scap\\load4-28.BMP'
g23
I920
tp54
a(g18
g19
g26
I5
I0
g21
S'c:\\Charlie\\charlie\\stimuli\\visual\\scap\\load5-1.BMP'
S'c:\\Charlie\\charlie\\stimuli\\visual\\scap\\load5-2.BMP'
g21
I960
tp55
a(g18
g19
g26
I5
I1
g21
S'c:\\Charlie\\charlie\\stimuli\\visual\\scap\\load5-3.BMP'
S'c:\\Charlie\\charlie\\stimuli\\visual\\scap\\load5-4.BMP'
g21
I1190
tp56
a(g18
g19
g26
I5
I2
g21
S'c:\\Charlie\\charlie\\stimuli\\visual\\scap\\load5-5.BMP'
S'c:\\Charlie\\charlie\\stimuli\\visual\\scap\\load5-6.BMP'
g21
I850
tp57
a(g18
g19
g26
I5
I3
g21
S'c:\\Charlie\\charlie\\stimuli\\visual\\scap\\load5-7.BMP'
S'c:\\Charlie\\charlie\\stimuli\\visual\\scap\\load5-8.BMP'
g21
I900
tp58
a(g18
g19
g26
I5
I4
g21
S'c:\\Charlie\\charlie\\stimuli\\visual\\scap\\load5-9.BMP'
S'c:\\Charlie\\charlie\\stimuli\\visual\\scap\\load5-10.BMP'
g21
I1130
tp59
a(g18
g19
g26
I5
I5
g21
S'c:\\Charlie\\charlie\\stimuli\\visual\\scap\\load5-11.BMP'
S'c:\\Charlie\\charlie\\stimuli\\visual\\scap\\load5-12.BMP'
g21
I990
tp60
a(g18
g19
g26
I5
I6
g23
S'c:\\Charlie\\charlie\\stimuli\\visual\\scap\\load5-13.BMP'
S'c:\\Charlie\\charlie\\stimuli\\visual\\scap\\load5-14.BMP'
g23
I850
tp61
a(g18
g19
g26
I5
I7
g23
S'c:\\Charlie\\charlie\\stimuli\\visual\\scap\\load5-15.BMP'
S'c:\\Charlie\\charlie\\stimuli\\visual\\scap\\load5-16.BMP'
g23
I1170
tp62
a(g18
g19
g26
I5
I8
g23
S'c:\\Charlie\\charlie\\stimuli\\visual\\scap\\load5-17.BMP'
S'c:\\Charlie\\charlie\\stimuli\\visual\\scap\\load5-18.BMP'
g21
I3500
tp63
a(g18
g19
g26
I5
I9
g23
S'c:\\Charlie\\charlie\\stimuli\\visual\\scap\\load5-19.BMP'
S'c:\\Charlie\\charlie\\stimuli\\visual\\scap\\load5-20.BMP'
g23
I1130
tp64
a(g18
g19
g26
I5
I10
g23
S'c:\\Charlie\\charlie\\stimuli\\visual\\scap\\load5-21.BMP'
S'c:\\Charlie\\charlie\\stimuli\\visual\\scap\\load5-22.BMP'
g23
I2700
tp65
a(g18
g19
g26
I5
I11
g21
S'c:\\Charlie\\charlie\\stimuli\\visual\\scap\\load5-23.BMP'
S'c:\\Charlie\\charlie\\stimuli\\visual\\scap\\load5-24.BMP'
g21
I920
tp66
a(g18
g19
g26
I5
I12
g23
S'c:\\Charlie\\charlie\\stimuli\\visual\\scap\\load5-25.BMP'
S'c:\\Charlie\\charlie\\stimuli\\visual\\scap\\load5-26.BMP'
g21
I3241
tp67
a(g18
g19
g26
I5
I13
g23
S'c:\\Charlie\\charlie\\stimuli\\visual\\scap\\load5-27.BMP'
p68
S'c:\\Charlie\\charlie\\stimuli\\visual\\scap\\load5-28.BMP'
p69
g23
I2100
tp70
asS'output_format'
p71
(lp72
(S'proband_id'
p73
c__builtin__
str
p74
tp75
a(S'test_name'
p76
g74
tp77
a(S'phase'
p78
g74
tp79
a(S'load'
p80
c__builtin__
int
p81
tp82
a(S'trialn'
p83
g81
tp84
a(S'ans'
p85
g74
tp86
a(S'array_f'
p87
g74
tp88
a(S'probe_f'
p89
g74
tp90
a(S'rsp'
p91
g74
tp92
a(S'rt'
p93
g81
tp94
asg73
g18
sS'filename'
p95
S'4372_scap.data'
p96
sS'initialised'
p97
g8
(S'\x07\xdf\x04\x0f\x0f\x0e\x02\t\xcf\xb8'
tRp98
sS'last_udated'
p99
g8
(S'\x07\xdf\x04\x0f\x0f\x0e\x02\t\xcf\xb8'
tRp100
sg76
S'scap'
p101
sS'directory'
p102
S'c:\\Charlie\\charlie\\data\\raw'
p103
sS'user_id'
p104
S'oleach'
p105
sS'test_started'
p106
I01
sS'abs_filename'
p107
S'c:\\Charlie\\charlie\\data\\raw\\4372_scap.data'
p108
sS'date_started'
p109
g8
(S'\x07\xdf\x04\x0f\x0f\x0e)\x08\x1a8'
tRp110
sS'log'
p111
(lp112
(S'2015-04-15 15:14:02.643000'
S'instance created'
p113
tp114
a(S'2015-04-15 15:14:41.542000'
S'instance updated'
p115
tp116
a(S'2015-04-15 15:14:41.552000'
S'pandas DataFrame of data created'
p117
tp118
a(S'2015-04-15 15:14:41.557000'
S'data saved as csv to c:\\Charlie\\charlie\\data\\csv\\4372_scap.csv'
tp119
a(S'2015-04-15 15:14:49.195000'
g115
tp120
a(S'2015-04-15 15:14:49.206000'
g117
tp121
a(S'2015-04-15 15:14:49.208000'
S'data saved as csv to c:\\Charlie\\charlie\\data\\csv\\4372_scap.csv'
tp122
a(S'2015-04-15 15:14:57.445000'
g115
tp123
a(S'2015-04-15 15:14:57.455000'
g117
tp124
a(S'2015-04-15 15:14:57.458000'
S'data saved as csv to c:\\Charlie\\charlie\\data\\csv\\4372_scap.csv'
tp125
a(S'2015-04-15 15:15:12.573000'
g115
tp126
a(S'2015-04-15 15:15:12.584000'
g117
tp127
a(S'2015-04-15 15:15:12.588000'
S'data saved as csv to c:\\Charlie\\charlie\\data\\csv\\4372_scap.csv'
tp128
a(S'2015-04-15 15:15:19.704000'
g115
tp129
a(S'2015-04-15 15:15:19.715000'
g117
tp130
a(S'2015-04-15 15:15:19.717000'
S'data saved as csv to c:\\Charlie\\charlie\\data\\csv\\4372_scap.csv'
tp131
a(S'2015-04-15 15:15:26.732000'
g115
tp132
a(S'2015-04-15 15:15:26.743000'
g117
tp133
a(S'2015-04-15 15:15:26.747000'
S'data saved as csv to c:\\Charlie\\charlie\\data\\csv\\4372_scap.csv'
tp134
a(S'2015-04-15 15:15:33.723000'
g115
tp135
a(S'2015-04-15 15:15:33.734000'
g117
tp136
a(S'2015-04-15 15:15:33.737000'
S'data saved as csv to c:\\Charlie\\charlie\\data\\csv\\4372_scap.csv'
tp137
a(S'2015-04-15 15:15:40.874000'
g115
tp138
a(S'2015-04-15 15:15:40.885000'
g117
tp139
a(S'2015-04-15 15:15:40.889000'
S'data saved as csv to c:\\Charlie\\charlie\\data\\csv\\4372_scap.csv'
tp140
a(S'2015-04-15 15:15:48.186000'
g115
tp141
a(S'2015-04-15 15:15:48.196000'
g117
tp142
a(S'2015-04-15 15:15:48.200000'
S'data saved as csv to c:\\Charlie\\charlie\\data\\csv\\4372_scap.csv'
tp143
a(S'2015-04-15 15:15:54.976000'
g115
tp144
a(S'2015-04-15 15:15:54.986000'
g117
tp145
a(S'2015-04-15 15:15:54.990000'
S'data saved as csv to c:\\Charlie\\charlie\\data\\csv\\4372_scap.csv'
tp146
a(S'2015-04-15 15:16:02.056000'
g115
tp147
a(S'2015-04-15 15:16:02.067000'
g117
tp148
a(S'2015-04-15 15:16:02.071000'
S'data saved as csv to c:\\Charlie\\charlie\\data\\csv\\4372_scap.csv'
tp149
a(S'2015-04-15 15:16:09.046000'
g115
tp150
a(S'2015-04-15 15:16:09.057000'
g117
tp151
a(S'2015-04-15 15:16:09.061000'
S'data saved as csv to c:\\Charlie\\charlie\\data\\csv\\4372_scap.csv'
tp152
a(S'2015-04-15 15:16:16.006000'
g115
tp153
a(S'2015-04-15 15:16:16.017000'
g117
tp154
a(S'2015-04-15 15:16:16.020000'
S'data saved as csv to c:\\Charlie\\charlie\\data\\csv\\4372_scap.csv'
tp155
a(S'2015-04-15 15:16:22.976000'
g115
tp156
a(S'2015-04-15 15:16:22.987000'
g117
tp157
a(S'2015-04-15 15:16:22.991000'
S'data saved as csv to c:\\Charlie\\charlie\\data\\csv\\4372_scap.csv'
tp158
a(S'2015-04-15 15:16:29.887000'
g115
tp159
a(S'2015-04-15 15:16:29.898000'
g117
tp160
a(S'2015-04-15 15:16:29.902000'
S'data saved as csv to c:\\Charlie\\charlie\\data\\csv\\4372_scap.csv'
tp161
a(S'2015-04-15 15:16:36.979000'
g115
tp162
a(S'2015-04-15 15:16:36.989000'
g117
tp163
a(S'2015-04-15 15:16:36.992000'
S'data saved as csv to c:\\Charlie\\charlie\\data\\csv\\4372_scap.csv'
tp164
a(S'2015-04-15 15:16:43.965000'
g115
tp165
a(S'2015-04-15 15:16:43.976000'
g117
tp166
a(S'2015-04-15 15:16:43.980000'
S'data saved as csv to c:\\Charlie\\charlie\\data\\csv\\4372_scap.csv'
tp167
a(S'2015-04-15 15:16:50.965000'
g115
tp168
a(S'2015-04-15 15:16:50.976000'
g117
tp169
a(S'2015-04-15 15:16:50.980000'
S'data saved as csv to c:\\Charlie\\charlie\\data\\csv\\4372_scap.csv'
tp170
a(S'2015-04-15 15:16:58.077000'
g115
tp171
a(S'2015-04-15 15:16:58.088000'
g117
tp172
a(S'2015-04-15 15:16:58.092000'
S'data saved as csv to c:\\Charlie\\charlie\\data\\csv\\4372_scap.csv'
tp173
a(S'2015-04-15 15:17:04.981000'
g115
tp174
a(S'2015-04-15 15:17:04.992000'
g117
tp175
a(S'2015-04-15 15:17:04.996000'
S'data saved as csv to c:\\Charlie\\charlie\\data\\csv\\4372_scap.csv'
tp176
a(S'2015-04-15 15:17:11.843000'
g115
tp177
a(S'2015-04-15 15:17:11.854000'
g117
tp178
a(S'2015-04-15 15:17:11.858000'
S'data saved as csv to c:\\Charlie\\charlie\\data\\csv\\4372_scap.csv'
tp179
a(S'2015-04-15 15:17:18.985000'
g115
tp180
a(S'2015-04-15 15:17:18.996000'
g117
tp181
a(S'2015-04-15 15:17:19'
S'data saved as csv to c:\\Charlie\\charlie\\data\\csv\\4372_scap.csv'
tp182
a(S'2015-04-15 15:17:26.066000'
g115
tp183
a(S'2015-04-15 15:17:26.077000'
g117
tp184
a(S'2015-04-15 15:17:26.081000'
S'data saved as csv to c:\\Charlie\\charlie\\data\\csv\\4372_scap.csv'
tp185
a(S'2015-04-15 15:17:33.047000'
g115
tp186
a(S'2015-04-15 15:17:33.058000'
g117
tp187
a(S'2015-04-15 15:17:33.062000'
S'data saved as csv to c:\\Charlie\\charlie\\data\\csv\\4372_scap.csv'
tp188
a(S'2015-04-15 15:17:40.208000'
g115
tp189
a(S'2015-04-15 15:17:40.219000'
g117
tp190
a(S'2015-04-15 15:17:40.224000'
S'data saved as csv to c:\\Charlie\\charlie\\data\\csv\\4372_scap.csv'
tp191
a(S'2015-04-15 15:17:47.291000'
g115
tp192
a(S'2015-04-15 15:17:47.302000'
g117
tp193
a(S'2015-04-15 15:17:47.306000'
S'data saved as csv to c:\\Charlie\\charlie\\data\\csv\\4372_scap.csv'
tp194
a(S'2015-04-15 15:17:54.352000'
g115
tp195
a(S'2015-04-15 15:17:54.363000'
g117
tp196
a(S'2015-04-15 15:17:54.367000'
S'data saved as csv to c:\\Charlie\\charlie\\data\\csv\\4372_scap.csv'
tp197
a(S'2015-04-15 15:18:01.425000'
g115
tp198
a(S'2015-04-15 15:18:01.436000'
g117
tp199
a(S'2015-04-15 15:18:01.440000'
S'data saved as csv to c:\\Charlie\\charlie\\data\\csv\\4372_scap.csv'
tp200
a(S'2015-04-15 15:18:09'
g115
tp201
a(S'2015-04-15 15:18:09.007000'
g117
tp202
a(S'2015-04-15 15:18:09.009000'
S'data saved as csv to c:\\Charlie\\charlie\\data\\csv\\4372_scap.csv'
tp203
a(S'2015-04-15 15:18:15.935000'
g115
tp204
a(S'2015-04-15 15:18:15.946000'
g117
tp205
a(S'2015-04-15 15:18:15.950000'
S'data saved as csv to c:\\Charlie\\charlie\\data\\csv\\4372_scap.csv'
tp206
a(S'2015-04-15 15:18:23.008000'
g115
tp207
a(S'2015-04-15 15:18:23.019000'
g117
tp208
a(S'2015-04-15 15:18:23.023000'
S'data saved as csv to c:\\Charlie\\charlie\\data\\csv\\4372_scap.csv'
tp209
a(S'2015-04-15 15:18:30.121000'
g115
tp210
a(S'2015-04-15 15:18:30.132000'
g117
tp211
a(S'2015-04-15 15:18:30.136000'
S'data saved as csv to c:\\Charlie\\charlie\\data\\csv\\4372_scap.csv'
tp212
a(S'2015-04-15 15:18:37.462000'
g115
tp213
a(S'2015-04-15 15:18:37.473000'
g117
tp214
a(S'2015-04-15 15:18:37.478000'
S'data saved as csv to c:\\Charlie\\charlie\\data\\csv\\4372_scap.csv'
tp215
a(S'2015-04-15 15:18:44.465000'
g115
tp216
a(S'2015-04-15 15:18:44.476000'
g117
tp217
a(S'2015-04-15 15:18:44.480000'
S'data saved as csv to c:\\Charlie\\charlie\\data\\csv\\4372_scap.csv'
tp218
a(S'2015-04-15 15:18:51.517000'
g115
tp219
a(S'2015-04-15 15:18:51.528000'
g117
tp220
a(S'2015-04-15 15:18:51.532000'
S'data saved as csv to c:\\Charlie\\charlie\\data\\csv\\4372_scap.csv'
tp221
a(S'2015-04-15 15:18:58.798000'
g115
tp222
a(S'2015-04-15 15:18:58.809000'
g117
tp223
a(S'2015-04-15 15:18:58.813000'
S'data saved as csv to c:\\Charlie\\charlie\\data\\csv\\4372_scap.csv'
tp224
a(S'2015-04-15 15:19:05.941000'
g115
tp225
a(S'2015-04-15 15:19:05.952000'
g117
tp226
a(S'2015-04-15 15:19:05.956000'
S'data saved as csv to c:\\Charlie\\charlie\\data\\csv\\4372_scap.csv'
tp227
a(S'2015-04-15 15:19:12.944000'
g115
tp228
a(S'2015-04-15 15:19:12.955000'
g117
tp229
a(S'2015-04-15 15:19:12.959000'
S'data saved as csv to c:\\Charlie\\charlie\\data\\csv\\4372_scap.csv'
tp230
a(S'2015-04-15 15:19:20.267000'
g115
tp231
a(S'2015-04-15 15:19:20.278000'
g117
tp232
a(S'2015-04-15 15:19:20.283000'
S'data saved as csv to c:\\Charlie\\charlie\\data\\csv\\4372_scap.csv'
tp233
a(S'2015-04-15 15:19:29.920000'
g115
tp234
a(S'2015-04-15 15:19:29.931000'
g117
tp235
a(S'2015-04-15 15:19:29.933000'
S'data saved as csv to c:\\Charlie\\charlie\\data\\csv\\4372_scap.csv'
tp236
a(S'2015-04-15 15:19:37.199000'
g115
tp237
a(S'2015-04-15 15:19:37.210000'
g117
tp238
a(S'2015-04-15 15:19:37.215000'
S'data saved as csv to c:\\Charlie\\charlie\\data\\csv\\4372_scap.csv'
tp239
a(S'2015-04-15 15:19:46.052000'
g115
tp240
a(S'2015-04-15 15:19:46.063000'
g117
tp241
a(S'2015-04-15 15:19:46.067000'
S'data saved as csv to c:\\Charlie\\charlie\\data\\csv\\4372_scap.csv'
tp242
a(S'2015-04-15 15:19:53.101000'
g115
tp243
a(S'2015-04-15 15:19:53.104000'
g117
tp244
a(S'2015-04-15 15:19:53.106000'
S'data saved as csv to c:\\Charlie\\charlie\\data\\csv\\4372_scap.csv'
tp245
a(S'2015-04-15 15:20:02.460000'
g115
tp246
a(S'2015-04-15 15:20:02.463000'
g117
tp247
a(S'2015-04-15 15:20:02.464000'
S'data saved as csv to c:\\Charlie\\charlie\\data\\csv\\4372_scap.csv'
tp248
a(S'2015-04-15 15:20:10.698000'
g115
tp249
a(S'2015-04-15 15:20:10.708000'
g117
tp250
a(S'2015-04-15 15:20:10.712000'
S'data saved as csv to c:\\Charlie\\charlie\\data\\csv\\4372_scap.csv'
tp251
asb.