(icharlie.tools.data
Data
p1
(dp2
S'lang'
p3
S'EN'
p4
sS'control'
p5
(lp6
sS'last_updated'
p7
cdatetime
datetime
p8
(S'\x07\xdf\x04\x11\x0e7\x0b\t\x10P'
tRp9
sS'last_opened'
p10
g8
(S'\x07\xdf\x04\x11\x0e02\x0f2\xa0'
tRp11
sS'proj_id'
p12
S'connectivity'
p13
sS'date_done'
p14
g8
(S'\x07\xdf\x04\x11\x0e7\x0b\x08\x16P'
tRp15
sS'test_done'
p16
I01
sS'data'
p17
(lp18
(S'4374'
p19
S'cvlt2'
p20
I0
csip
_unpickle_type
p21
(S'PyQt4.QtCore'
p22
S'QString'
(Vtruck
p23
ttRp24
tp25
a(g19
g20
I0
g21
(g22
S'QString'
(Vcabbage
p26
ttRp27
tp28
a(g19
g20
I0
g21
(g22
S'QString'
(Vboat
p29
ttRp30
tp31
a(g19
g20
I0
g21
(g22
S'QString'
(Vsquirrel
p32
ttRp33
tp34
a(g19
g20
I1
g21
(g22
S'QString'
(Vtruck
p35
ttRp36
tp37
a(g19
g20
I1
g21
(g22
S'QString'
(Vboat
p38
ttRp39
tp40
a(g19
g20
I1
g21
(g22
S'QString'
(Vcabbage
p41
ttRp42
tp43
a(g19
g20
I1
g21
(g22
S'QString'
(Vsubway
p44
ttRp45
tp46
a(g19
g20
I1
g21
(g22
S'QString'
(Vdesk
p47
ttRp48
tp49
a(g19
g20
I2
g21
(g22
S'QString'
(Vboat
p50
ttRp51
tp52
a(g19
g20
I2
g21
(g22
S'QString'
(Vsquirrel
p53
ttRp54
tp55
a(g19
g20
I2
g21
(g22
S'QString'
(Vcabbage
p56
ttRp57
tp58
a(g19
g20
I2
g21
(g22
S'QString'
(Vsubway
p59
ttRp60
tp61
a(g19
g20
I2
g21
(g22
S'QString'
(Vlamp
p62
ttRp63
tp64
a(g19
g20
I2
g21
(g22
S'QString'
(Vspinach
p65
ttRp66
tp67
a(g19
g20
I3
g21
(g22
S'QString'
(Vcabbage
p68
ttRp69
tp70
a(g19
g20
I3
g21
(g22
S'QString'
(Vboat
p71
ttRp72
tp73
a(g19
g20
I3
g21
(g22
S'QString'
(Vlamp
p74
ttRp75
tp76
a(g19
g20
I3
g21
(g22
S'QString'
(Vsubway
p77
ttRp78
tp79
a(g19
g20
I3
g21
(g22
S'QString'
(Vonion
p80
ttRp81
tp82
a(g19
g20
I3
g21
(g22
S'QString'
(Vdesk
p83
ttRp84
tp85
a(g19
g20
I3
g21
(g22
S'QString'
(Vtruck
p86
ttRp87
tp88
a(g19
g20
I4
g21
(g22
S'QString'
(Vcabbage
p89
ttRp90
tp91
a(g19
g20
I4
g21
(g22
S'QString'
(Vdesk
p92
ttRp93
tp94
a(g19
g20
I4
g21
(g22
S'QString'
(Vlamp
p95
ttRp96
tp97
a(g19
g20
I4
g21
(g22
S'QString'
(Vsubway
p98
ttRp99
tp100
a(g19
g20
I4
g21
(g22
S'QString'
(Vcow
p101
ttRp102
tp103
a(g19
g20
I4
g21
(g22
S'QString'
(Vspinach
p104
ttRp105
tp106
a(g19
g20
I4
g21
(g22
S'QString'
(Vboat
p107
ttRp108
tp109
a(g19
g20
I4
g21
(g22
S'QString'
(Vlamp
p110
ttRp111
tp112
asS'output_format'
p113
(lp114
(S'proband_id'
p115
c__builtin__
str
p116
tp117
a(S'test_name'
p118
g116
tp119
a(S'trialn'
p120
c__builtin__
int
p121
tp122
a(S'rsp'
p123
g116
tp124
asg115
g19
sS'filename'
p125
S'4374_cvlt2.data'
p126
sS'initialised'
p127
g8
(S'\x07\xdf\x04\x11\x0e02\x0f2\xa0'
tRp128
sS'last_udated'
p129
g8
(S'\x07\xdf\x04\x11\x0e02\x0f2\xa0'
tRp130
sg118
S'cvlt2'
p131
sS'directory'
p132
S'c:\\Charlie\\charlie\\data\\raw'
p133
sS'user_id'
p134
S'oleach'
p135
sS'test_started'
p136
I01
sS'abs_filename'
p137
S'c:\\Charlie\\charlie\\data\\raw\\4374_cvlt2.data'
p138
sS'date_started'
p139
g8
(S'\x07\xdf\x04\x11\x0e2\x14\x08%\xf0'
tRp140
sS'log'
p141
(lp142
(S'2015-04-17 14:48:50.996000'
S'instance created'
p143
tp144
a(S'2015-04-17 14:50:20.544000'
S'instance updated'
p145
tp146
a(S'2015-04-17 14:50:20.570000'
S'pandas DataFrame of data created'
p147
tp148
a(S'2015-04-17 14:50:20.576000'
S'data saved as csv to c:\\Charlie\\charlie\\data\\csv\\4374_cvlt2.csv'
tp149
a(S'2015-04-17 14:51:10.990000'
g145
tp150
a(S'2015-04-17 14:51:11.003000'
g147
tp151
a(S'2015-04-17 14:51:11.007000'
S'data saved as csv to c:\\Charlie\\charlie\\data\\csv\\4374_cvlt2.csv'
tp152
a(S'2015-04-17 14:51:33.113000'
g145
tp153
a(S'2015-04-17 14:51:33.133000'
g147
tp154
a(S'2015-04-17 14:51:33.135000'
S'data saved as csv to c:\\Charlie\\charlie\\data\\csv\\4374_cvlt2.csv'
tp155
a(S'2015-04-17 14:52:14.426000'
g145
tp156
a(S'2015-04-17 14:52:14.446000'
g147
tp157
a(S'2015-04-17 14:52:14.448000'
S'data saved as csv to c:\\Charlie\\charlie\\data\\csv\\4374_cvlt2.csv'
tp158
a(S'2015-04-17 14:52:46.076000'
g145
tp159
a(S'2015-04-17 14:52:46.102000'
g147
tp160
a(S'2015-04-17 14:52:46.104000'
S'data saved as csv to c:\\Charlie\\charlie\\data\\csv\\4374_cvlt2.csv'
tp161
a(S'2015-04-17 14:53:23.734000'
g145
tp162
a(S'2015-04-17 14:53:23.767000'
g147
tp163
a(S'2015-04-17 14:53:23.770000'
S'data saved as csv to c:\\Charlie\\charlie\\data\\csv\\4374_cvlt2.csv'
tp164
a(S'2015-04-17 14:53:56.919000'
g145
tp165
a(S'2015-04-17 14:53:56.959000'
g147
tp166
a(S'2015-04-17 14:53:56.961000'
S'data saved as csv to c:\\Charlie\\charlie\\data\\csv\\4374_cvlt2.csv'
tp167
a(S'2015-04-17 14:54:34.129000'
g145
tp168
a(S'2015-04-17 14:54:34.165000'
g147
tp169
a(S'2015-04-17 14:54:34.166000'
S'data saved as csv to c:\\Charlie\\charlie\\data\\csv\\4374_cvlt2.csv'
tp170
a(S'2015-04-17 14:55:11.530000'
g145
tp171
a(S'2015-04-17 14:55:11.590000'
g147
tp172
a(S'2015-04-17 14:55:11.593000'
S'data saved as csv to c:\\Charlie\\charlie\\data\\csv\\4374_cvlt2.csv'
tp173
asb.