(icharlie.tools.data
Data
p1
(dp2
S'lang'
p3
S'EN'
p4
sS'control'
p5
(lp6
sS'last_updated'
p7
cdatetime
datetime
p8
(S'\x07\xdf\x04\x14\x0f\x0c9\x05\x86\x10'
tRp9
sS'last_opened'
p10
g8
(S'\x07\xdf\x04\x14\x0f\x08"\x0bF\xb8'
tRp11
sS'proj_id'
p12
S'connectivity'
p13
sS'date_done'
p14
NsS'test_done'
p15
I01
sS'data'
p16
(lp17
(S'4375'
p18
S'ctrails'
p19
S'number'
p20
S'practice'
p21
I0
I1
S'Correct'
p22
I2020
I9096
tp23
a(g18
g19
g20
g21
I1
I2
g22
I1300
I9096
tp24
a(g18
g19
g20
g21
I2
I3
g22
I720
I9096
tp25
a(g18
g19
g20
g21
I3
I4
g22
I950
I9096
tp26
a(g18
g19
g20
g21
I4
I5
g22
I760
I9096
tp27
a(g18
g19
g20
g21
I5
I6
g22
I1420
I9096
tp28
a(g18
g19
g20
g21
I6
I7
g22
I940
I9096
tp29
a(g18
g19
g20
g21
I7
I8
g22
I940
I9096
tp30
a(g18
g19
g20
S'test'
p31
I0
I1
g22
I2410
I38419
tp32
a(g18
g19
g20
g31
I1
I2
g22
I1250
I38419
tp33
a(g18
g19
g20
g31
I2
I3
g22
I1700
I38419
tp34
a(g18
g19
g20
g31
I3
I4
g22
I1930
I38419
tp35
a(g18
g19
g20
g31
I4
I5
g22
I4320
I38419
tp36
a(g18
g19
g20
g31
I5
I6
g22
I2270
I38419
tp37
a(g18
g19
g20
g31
I6
I7
g22
I1151
I38419
tp38
a(g18
g19
g20
g31
I7
I8
g22
I950
I38419
tp39
a(g18
g19
g20
g31
I8
I9
g22
I870
I38419
tp40
a(g18
g19
g20
g31
I9
I10
g22
I890
I38419
tp41
a(g18
g19
g20
g31
I10
I11
g22
I1200
I38419
tp42
a(g18
g19
g20
g31
I11
I12
g22
I820
I38419
tp43
a(g18
g19
g20
g31
I12
I13
g22
I2030
I38419
tp44
a(g18
g19
g20
g31
I13
I14
g22
I1490
I38419
tp45
a(g18
g19
g20
g31
I14
I15
g22
I480
I38419
tp46
a(g18
g19
g20
g31
I15
I16
g22
I1090
I38419
tp47
a(g18
g19
g20
g31
I16
I17
g22
I1080
I38419
tp48
a(g18
g19
g20
g31
I17
I18
g22
I1040
I38419
tp49
a(g18
g19
g20
g31
I18
I19
g22
I2480
I38419
tp50
a(g18
g19
g20
g31
I19
I20
g22
I1010
I38419
tp51
a(g18
g19
g20
g31
I20
I21
g22
I1871
I38419
tp52
a(g18
g19
g20
g31
I21
I22
g22
I1760
I38419
tp53
a(g18
g19
g20
g31
I22
I23
g22
I860
I38419
tp54
a(g18
g19
g20
g31
I23
I24
g22
I1540
I38419
tp55
a(g18
g19
g20
g31
I24
I25
g22
I780
I38419
tp56
a(g18
g19
S'letter'
p57
g21
I0
S'a'
g22
I1340
I10097
tp58
a(g18
g19
g57
g21
I1
S'b'
g22
I1480
I10097
tp59
a(g18
g19
g57
g21
I2
S'c'
g22
I1130
I10097
tp60
a(g18
g19
g57
g21
I3
S'd'
g22
I1780
I10097
tp61
a(g18
g19
g57
g21
I4
S'e'
g22
I1311
I10097
tp62
a(g18
g19
g57
g21
I5
S'f'
g22
I1170
I10097
tp63
a(g18
g19
g57
g21
I6
S'g'
g22
I790
I10097
tp64
a(g18
g19
g57
g21
I7
S'h'
g22
I1050
I10097
tp65
a(g18
g19
g57
g31
I0
S'a'
g22
I5440
I47061
tp66
a(g18
g19
g57
g31
I1
S'b'
g22
I1761
I47061
tp67
a(g18
g19
g57
g31
I2
S'c'
g22
I1790
I47061
tp68
a(g18
g19
g57
g31
I3
S'd'
g22
I2250
I47061
tp69
a(g18
g19
g57
g31
I4
S'e'
g22
I1890
I47061
tp70
a(g18
g19
g57
g31
I5
S'f'
g22
I810
I47061
tp71
a(g18
g19
g57
g31
I6
S'g'
g22
I760
I47061
tp72
a(g18
g19
g57
g31
I7
S'h'
g22
I6410
I47061
tp73
a(g18
g19
g57
g31
I8
S'i'
g22
I1700
I47061
tp74
a(g18
g19
g57
g31
I9
S'j'
g22
I760
I47061
tp75
a(g18
g19
g57
g31
I10
S'k'
g22
I2331
I47061
tp76
a(g18
g19
g57
g31
I11
S'l'
g22
I1420
I47061
tp77
a(g18
g19
g57
g31
I12
S'm'
g22
I640
I47061
tp78
a(g18
g19
g57
g31
I13
S'n'
g22
I2210
I47061
tp79
a(g18
g19
g57
g31
I14
S'o'
g22
I640
I47061
tp80
a(g18
g19
g57
g31
I15
S'p'
g22
I1180
I47061
tp81
a(g18
g19
g57
g31
I16
S'q'
g22
I2380
I47061
tp82
a(g18
g19
g57
g31
I17
S'r'
g22
I880
I47061
tp83
a(g18
g19
g57
g31
I18
S's'
g22
I730
I47061
tp84
a(g18
g19
g57
g31
I19
S't'
g22
I1980
I47061
tp85
a(g18
g19
g57
g31
I20
S'u'
g22
I1440
I47061
tp86
a(g18
g19
g57
g31
I21
S'v'
g22
I771
I47061
tp87
a(g18
g19
g57
g31
I22
S'w'
g22
I2820
I47061
tp88
a(g18
g19
g57
g31
I23
S'x'
g22
I1050
I47061
tp89
a(g18
g19
g57
g31
I24
S'y'
g22
I1280
I47061
tp90
a(g18
g19
S'number-letter'
p91
g21
I0
S'a'
S'Incorrect'
p92
I1580
I17471
tp93
a(g18
g19
g91
g21
I1
I1
g22
I1970
I17471
tp94
a(g18
g19
g91
g21
I2
S'a'
g22
I1110
I17471
tp95
a(g18
g19
g91
g21
I3
I2
g22
I1940
I17471
tp96
a(g18
g19
g91
g21
I4
S'b'
g22
I1371
I17471
tp97
a(g18
g19
g91
g21
I5
I3
g22
I2970
I17471
tp98
a(g18
g19
g91
g21
I6
S'c'
g22
I1750
I17471
tp99
a(g18
g19
g91
g21
I7
S'd'
g92
I820
I17471
tp100
a(g18
g19
g91
g21
I8
I4
g22
I2800
I17471
tp101
a(g18
g19
g91
g21
I9
S'd'
g22
I1100
I17471
tp102
a(g18
g19
g91
g31
I0
I1
g22
I2550
I65365
tp103
a(g18
g19
g91
g31
I1
S'a'
g22
I1930
I65365
tp104
a(g18
g19
g91
g31
I2
I2
g22
I2150
I65365
tp105
a(g18
g19
g91
g31
I3
S'b'
g22
I3570
I65365
tp106
a(g18
g19
g91
g31
I4
I3
g22
I3090
I65365
tp107
a(g18
g19
g91
g31
I5
S'c'
g22
I2551
I65365
tp108
a(g18
g19
g91
g31
I6
I4
g22
I2420
I65365
tp109
a(g18
g19
g91
g31
I7
S'd'
g22
I1500
I65365
tp110
a(g18
g19
g91
g31
I8
I5
g22
I2390
I65365
tp111
a(g18
g19
g91
g31
I9
S'e'
g22
I4950
I65365
tp112
a(g18
g19
g91
g31
I10
I6
g22
I2660
I65365
tp113
a(g18
g19
g91
g31
I11
S'f'
g22
I1640
I65365
tp114
a(g18
g19
g91
g31
I12
I7
g22
I3991
I65365
tp115
a(g18
g19
g91
g31
I13
S'g'
g22
I1910
I65365
tp116
a(g18
g19
g91
g31
I14
I8
g22
I3330
I65365
tp117
a(g18
g19
g91
g31
I15
S'h'
g22
I2570
I65365
tp118
a(g18
g19
g91
g31
I16
I9
g22
I2690
I65365
tp119
a(g18
g19
g91
g31
I17
S'i'
g22
I2370
I65365
tp120
a(g18
g19
g91
g31
I18
I10
g22
I2681
I65365
tp121
a(g18
g19
g91
g31
I19
S'j'
g22
I990
I65365
tp122
a(g18
g19
g91
g31
I20
I11
g22
I2820
I65365
tp123
a(g18
g19
g91
g31
I21
S'k'
g22
I2500
I65365
tp124
a(g18
g19
g91
g31
I22
I12
g22
I5210
I65365
tp125
a(g18
g19
g91
g31
I23
S'l'
g22
I1080
I65365
tp126
a(g18
g19
g91
g31
I24
I13
g22
I1670
I65365
tp127
asS'output_format'
p128
(lp129
(S'proband_id'
p130
c__builtin__
str
p131
tp132
a(S'test_name'
p133
g131
tp134
a(S'phase'
p135
g131
tp136
a(S'trial_type'
p137
g131
tp138
a(S'n'
c__builtin__
int
p139
tp140
a(S'rsp'
p141
g131
tp142
a(S'corr'
p143
g131
tp144
a(S'rt'
p145
g139
tp146
a(S'total_time'
p147
g139
tp148
asg130
g18
sS'filename'
p149
S'4375_ctrails.data'
p150
sS'initialised'
p151
g8
(S'\x07\xdf\x04\x14\x0f\x08"\x0bF\xb8'
tRp152
sS'last_udated'
p153
g8
(S'\x07\xdf\x04\x14\x0f\x08"\x0bF\xb8'
tRp154
sg133
S'ctrails'
p155
sS'directory'
p156
S'c:\\Charlie\\charlie\\data\\raw'
p157
sS'user_id'
p158
S'oleach'
p159
sS'test_started'
p160
I01
sS'abs_filename'
p161
S'c:\\Charlie\\charlie\\data\\raw\\4375_ctrails.data'
p162
sS'date_started'
p163
g8
(S'\x07\xdf\x04\x14\x0f\t\x05\x07$ '
tRp164
sS'log'
p165
(lp166
(S'2015-04-20 15:08:34.739000'
S'instance created'
p167
tp168
a(S'2015-04-20 15:09:05.479000'
S'instance updated'
p169
tp170
a(S'2015-04-20 15:09:05.489000'
S'pandas DataFrame of data created'
p171
tp172
a(S'2015-04-20 15:09:05.495000'
S'data saved as csv to c:\\Charlie\\charlie\\data\\csv\\4375_ctrails.csv'
tp173
a(S'2015-04-20 15:09:52.106000'
g169
tp174
a(S'2015-04-20 15:09:52.116000'
g171
tp175
a(S'2015-04-20 15:09:52.120000'
S'data saved as csv to c:\\Charlie\\charlie\\data\\csv\\4375_ctrails.csv'
tp176
a(S'2015-04-20 15:10:07.493000'
g169
tp177
a(S'2015-04-20 15:10:07.503000'
g171
tp178
a(S'2015-04-20 15:10:07.508000'
S'data saved as csv to c:\\Charlie\\charlie\\data\\csv\\4375_ctrails.csv'
tp179
a(S'2015-04-20 15:11:02.558000'
g169
tp180
a(S'2015-04-20 15:11:02.569000'
g171
tp181
a(S'2015-04-20 15:11:02.574000'
S'data saved as csv to c:\\Charlie\\charlie\\data\\csv\\4375_ctrails.csv'
tp182
a(S'2015-04-20 15:11:42.210000'
g169
tp183
a(S'2015-04-20 15:11:42.221000'
g171
tp184
a(S'2015-04-20 15:11:42.223000'
S'data saved as csv to c:\\Charlie\\charlie\\data\\csv\\4375_ctrails.csv'
tp185
a(S'2015-04-20 15:12:57.345000'
g169
tp186
a(S'2015-04-20 15:12:57.356000'
g171
tp187
a(S'2015-04-20 15:12:57.361000'
S'data saved as csv to c:\\Charlie\\charlie\\data\\csv\\4375_ctrails.csv'
tp188
asb.