(icharlie.tools.data
Data
p1
(dp2
S'lang'
p3
S'EN'
p4
sS'control'
p5
(lp6
sS'last_updated'
p7
cdatetime
datetime
p8
(S'\x07\xdf\x04\x14\x0f\x02\x12\x02\xee\x00'
tRp9
sS'last_opened'
p10
g8
(S'\x07\xdf\x04\x14\x0f\x01\x0e\r\xf2P'
tRp11
sS'proj_id'
p12
S'connectivity'
p13
sS'date_done'
p14
NsS'test_done'
p15
I01
sS'data'
p16
(lp17
(S'4375'
p18
S'face_memory_delay'
p19
S'test'
p20
I0
S'c:\\Charlie\\charlie\\stimuli\\visual\\face_memory_delay\\ddis10.bmp'
S'No'
p21
g21
I1170
tp22
a(g18
g19
g20
I1
S'c:\\Charlie\\charlie\\stimuli\\visual\\face_memory_delay\\ddis04.bmp'
g21
S'Yes'
p23
I990
tp24
a(g18
g19
g20
I2
S'c:\\Charlie\\charlie\\stimuli\\visual\\face_memory_delay\\tar07.bmp'
g23
g23
I720
tp25
a(g18
g19
g20
I3
S'c:\\Charlie\\charlie\\stimuli\\visual\\face_memory_delay\\tar18.bmp'
g23
g23
I750
tp26
a(g18
g19
g20
I4
S'c:\\Charlie\\charlie\\stimuli\\visual\\face_memory_delay\\ddis14.bmp'
g21
g21
I1120
tp27
a(g18
g19
g20
I5
S'c:\\Charlie\\charlie\\stimuli\\visual\\face_memory_delay\\tar19.bmp'
g23
g23
I830
tp28
a(g18
g19
g20
I6
S'c:\\Charlie\\charlie\\stimuli\\visual\\face_memory_delay\\ddis13.bmp'
g21
g21
I901
tp29
a(g18
g19
g20
I7
S'c:\\Charlie\\charlie\\stimuli\\visual\\face_memory_delay\\tar15.bmp'
g23
g23
I650
tp30
a(g18
g19
g20
I8
S'c:\\Charlie\\charlie\\stimuli\\visual\\face_memory_delay\\tar11.bmp'
g23
g23
I1230
tp31
a(g18
g19
g20
I9
S'c:\\Charlie\\charlie\\stimuli\\visual\\face_memory_delay\\ddis05.bmp'
g21
g21
I1020
tp32
a(g18
g19
g20
I10
S'c:\\Charlie\\charlie\\stimuli\\visual\\face_memory_delay\\ddis01.bmp'
g21
g21
I900
tp33
a(g18
g19
g20
I11
S'c:\\Charlie\\charlie\\stimuli\\visual\\face_memory_delay\\ddis16.bmp'
g21
g21
I1020
tp34
a(g18
g19
g20
I12
S'c:\\Charlie\\charlie\\stimuli\\visual\\face_memory_delay\\tar02.bmp'
g23
g23
I770
tp35
a(g18
g19
g20
I13
S'c:\\Charlie\\charlie\\stimuli\\visual\\face_memory_delay\\tar08.bmp'
g23
g23
I720
tp36
a(g18
g19
g20
I14
S'c:\\Charlie\\charlie\\stimuli\\visual\\face_memory_delay\\tar13.bmp'
g23
g23
I620
tp37
a(g18
g19
g20
I15
S'c:\\Charlie\\charlie\\stimuli\\visual\\face_memory_delay\\tar20.bmp'
g23
g23
I950
tp38
a(g18
g19
g20
I16
S'c:\\Charlie\\charlie\\stimuli\\visual\\face_memory_delay\\ddis18.bmp'
g21
g21
I680
tp39
a(g18
g19
g20
I17
S'c:\\Charlie\\charlie\\stimuli\\visual\\face_memory_delay\\tar06.bmp'
g23
g23
I980
tp40
a(g18
g19
g20
I18
S'c:\\Charlie\\charlie\\stimuli\\visual\\face_memory_delay\\ddis07.bmp'
g21
g21
I1160
tp41
a(g18
g19
g20
I19
S'c:\\Charlie\\charlie\\stimuli\\visual\\face_memory_delay\\ddis08.bmp'
g21
g23
I2840
tp42
a(g18
g19
g20
I20
S'c:\\Charlie\\charlie\\stimuli\\visual\\face_memory_delay\\tar12.bmp'
g23
g23
I1681
tp43
a(g18
g19
g20
I21
S'c:\\Charlie\\charlie\\stimuli\\visual\\face_memory_delay\\ddis17.bmp'
g21
g21
I1211
tp44
a(g18
g19
g20
I22
S'c:\\Charlie\\charlie\\stimuli\\visual\\face_memory_delay\\tar05.bmp'
g23
g23
I640
tp45
a(g18
g19
g20
I23
S'c:\\Charlie\\charlie\\stimuli\\visual\\face_memory_delay\\tar10.bmp'
g23
g23
I660
tp46
a(g18
g19
g20
I24
S'c:\\Charlie\\charlie\\stimuli\\visual\\face_memory_delay\\ddis02.bmp'
g21
g21
I950
tp47
a(g18
g19
g20
I25
S'c:\\Charlie\\charlie\\stimuli\\visual\\face_memory_delay\\ddis20.bmp'
g21
g21
I1210
tp48
a(g18
g19
g20
I26
S'c:\\Charlie\\charlie\\stimuli\\visual\\face_memory_delay\\tar17.bmp'
g23
g23
I730
tp49
a(g18
g19
g20
I27
S'c:\\Charlie\\charlie\\stimuli\\visual\\face_memory_delay\\ddis15.bmp'
g21
g21
I1020
tp50
a(g18
g19
g20
I28
S'c:\\Charlie\\charlie\\stimuli\\visual\\face_memory_delay\\tar03.bmp'
g23
g23
I650
tp51
a(g18
g19
g20
I29
S'c:\\Charlie\\charlie\\stimuli\\visual\\face_memory_delay\\ddis19.bmp'
g21
g23
I670
tp52
a(g18
g19
g20
I30
S'c:\\Charlie\\charlie\\stimuli\\visual\\face_memory_delay\\ddis12.bmp'
g21
g21
I1340
tp53
a(g18
g19
g20
I31
S'c:\\Charlie\\charlie\\stimuli\\visual\\face_memory_delay\\tar16.bmp'
g23
g23
I640
tp54
a(g18
g19
g20
I32
S'c:\\Charlie\\charlie\\stimuli\\visual\\face_memory_delay\\tar09.bmp'
g23
g23
I1090
tp55
a(g18
g19
g20
I33
S'c:\\Charlie\\charlie\\stimuli\\visual\\face_memory_delay\\ddis09.bmp'
g21
g23
I3020
tp56
a(g18
g19
g20
I34
S'c:\\Charlie\\charlie\\stimuli\\visual\\face_memory_delay\\tar01.bmp'
g23
g23
I1010
tp57
a(g18
g19
g20
I35
S'c:\\Charlie\\charlie\\stimuli\\visual\\face_memory_delay\\ddis11.bmp'
g21
g23
I1141
tp58
a(g18
g19
g20
I36
S'c:\\Charlie\\charlie\\stimuli\\visual\\face_memory_delay\\ddis03.bmp'
g21
g23
I690
tp59
a(g18
g19
g20
I37
S'c:\\Charlie\\charlie\\stimuli\\visual\\face_memory_delay\\tar04.bmp'
g23
g23
I720
tp60
a(g18
g19
g20
I38
S'c:\\Charlie\\charlie\\stimuli\\visual\\face_memory_delay\\tar14.bmp'
g23
g23
I2250
tp61
a(g18
g19
g20
I39
S'c:\\Charlie\\charlie\\stimuli\\visual\\face_memory_delay\\ddis06.bmp'
p62
g21
g21
I760
tp63
asS'output_format'
p64
(lp65
(S'proband_id'
p66
c__builtin__
str
p67
tp68
a(S'test_name'
p69
g67
tp70
a(S'phase'
p71
g67
tp72
a(S'trialn'
p73
c__builtin__
int
p74
tp75
a(S'f'
g67
tp76
a(S'ans'
p77
g67
tp78
a(S'rsp'
p79
g67
tp80
a(S'rt'
p81
g74
tp82
asg66
g18
sS'filename'
p83
S'4375_face_memory_delay.data'
p84
sS'initialised'
p85
g8
(S'\x07\xdf\x04\x14\x0f\x01\x0e\r\xf2P'
tRp86
sS'last_udated'
p87
g8
(S'\x07\xdf\x04\x14\x0f\x01\x0e\r\xf2P'
tRp88
sg69
S'face_memory_delay'
p89
sS'directory'
p90
S'c:\\Charlie\\charlie\\data\\raw'
p91
sS'user_id'
p92
S'oleach'
p93
sS'test_started'
p94
I01
sS'abs_filename'
p95
S'c:\\Charlie\\charlie\\data\\raw\\4375_face_memory_delay.data'
p96
sS'date_started'
p97
g8
(S'\x07\xdf\x04\x14\x0f\x01\x1f\x0c\x15\xc0'
tRp98
sS'log'
p99
(lp100
(S'2015-04-20 15:01:14.914000'
S'instance created'
p101
tp102
a(S'2015-04-20 15:01:31.804000'
S'instance updated'
p103
tp104
a(S'2015-04-20 15:01:31.813000'
S'pandas DataFrame of data created'
p105
tp106
a(S'2015-04-20 15:01:31.819000'
S'data saved as csv to c:\\Charlie\\charlie\\data\\csv\\4375_face_memory_delay.csv'
tp107
a(S'2015-04-20 15:01:32.937000'
g103
tp108
a(S'2015-04-20 15:01:32.946000'
g105
tp109
a(S'2015-04-20 15:01:32.950000'
S'data saved as csv to c:\\Charlie\\charlie\\data\\csv\\4375_face_memory_delay.csv'
tp110
a(S'2015-04-20 15:01:33.797000'
g103
tp111
a(S'2015-04-20 15:01:33.806000'
g105
tp112
a(S'2015-04-20 15:01:33.810000'
S'data saved as csv to c:\\Charlie\\charlie\\data\\csv\\4375_face_memory_delay.csv'
tp113
a(S'2015-04-20 15:01:34.688000'
g103
tp114
a(S'2015-04-20 15:01:34.696000'
g105
tp115
a(S'2015-04-20 15:01:34.700000'
S'data saved as csv to c:\\Charlie\\charlie\\data\\csv\\4375_face_memory_delay.csv'
tp116
a(S'2015-04-20 15:01:35.948000'
g103
tp117
a(S'2015-04-20 15:01:35.956000'
g105
tp118
a(S'2015-04-20 15:01:35.960000'
S'data saved as csv to c:\\Charlie\\charlie\\data\\csv\\4375_face_memory_delay.csv'
tp119
a(S'2015-04-20 15:01:36.918000'
g103
tp120
a(S'2015-04-20 15:01:36.926000'
g105
tp121
a(S'2015-04-20 15:01:36.930000'
S'data saved as csv to c:\\Charlie\\charlie\\data\\csv\\4375_face_memory_delay.csv'
tp122
a(S'2015-04-20 15:01:37.957000'
g103
tp123
a(S'2015-04-20 15:01:37.966000'
g105
tp124
a(S'2015-04-20 15:01:37.970000'
S'data saved as csv to c:\\Charlie\\charlie\\data\\csv\\4375_face_memory_delay.csv'
tp125
a(S'2015-04-20 15:01:38.748000'
g103
tp126
a(S'2015-04-20 15:01:38.756000'
g105
tp127
a(S'2015-04-20 15:01:38.760000'
S'data saved as csv to c:\\Charlie\\charlie\\data\\csv\\4375_face_memory_delay.csv'
tp128
a(S'2015-04-20 15:01:40.118000'
g103
tp129
a(S'2015-04-20 15:01:40.126000'
g105
tp130
a(S'2015-04-20 15:01:40.130000'
S'data saved as csv to c:\\Charlie\\charlie\\data\\csv\\4375_face_memory_delay.csv'
tp131
a(S'2015-04-20 15:01:41.278000'
g103
tp132
a(S'2015-04-20 15:01:41.286000'
g105
tp133
a(S'2015-04-20 15:01:41.290000'
S'data saved as csv to c:\\Charlie\\charlie\\data\\csv\\4375_face_memory_delay.csv'
tp134
a(S'2015-04-20 15:01:42.318000'
g103
tp135
a(S'2015-04-20 15:01:42.327000'
g105
tp136
a(S'2015-04-20 15:01:42.330000'
S'data saved as csv to c:\\Charlie\\charlie\\data\\csv\\4375_face_memory_delay.csv'
tp137
a(S'2015-04-20 15:01:43.478000'
g103
tp138
a(S'2015-04-20 15:01:43.486000'
g105
tp139
a(S'2015-04-20 15:01:43.490000'
S'data saved as csv to c:\\Charlie\\charlie\\data\\csv\\4375_face_memory_delay.csv'
tp140
a(S'2015-04-20 15:01:44.388000'
g103
tp141
a(S'2015-04-20 15:01:44.396000'
g105
tp142
a(S'2015-04-20 15:01:44.400000'
S'data saved as csv to c:\\Charlie\\charlie\\data\\csv\\4375_face_memory_delay.csv'
tp143
a(S'2015-04-20 15:01:45.248000'
g103
tp144
a(S'2015-04-20 15:01:45.257000'
g105
tp145
a(S'2015-04-20 15:01:45.261000'
S'data saved as csv to c:\\Charlie\\charlie\\data\\csv\\4375_face_memory_delay.csv'
tp146
a(S'2015-04-20 15:01:46.009000'
g103
tp147
a(S'2015-04-20 15:01:46.017000'
g105
tp148
a(S'2015-04-20 15:01:46.021000'
S'data saved as csv to c:\\Charlie\\charlie\\data\\csv\\4375_face_memory_delay.csv'
tp149
a(S'2015-04-20 15:01:47.084000'
g103
tp150
a(S'2015-04-20 15:01:47.086000'
g105
tp151
a(S'2015-04-20 15:01:47.087000'
S'data saved as csv to c:\\Charlie\\charlie\\data\\csv\\4375_face_memory_delay.csv'
tp152
a(S'2015-04-20 15:01:47.893000'
g103
tp153
a(S'2015-04-20 15:01:47.901000'
g105
tp154
a(S'2015-04-20 15:01:47.905000'
S'data saved as csv to c:\\Charlie\\charlie\\data\\csv\\4375_face_memory_delay.csv'
tp155
a(S'2015-04-20 15:01:49.013000'
g103
tp156
a(S'2015-04-20 15:01:49.021000'
g105
tp157
a(S'2015-04-20 15:01:49.025000'
S'data saved as csv to c:\\Charlie\\charlie\\data\\csv\\4375_face_memory_delay.csv'
tp158
a(S'2015-04-20 15:01:50.313000'
g103
tp159
a(S'2015-04-20 15:01:50.322000'
g105
tp160
a(S'2015-04-20 15:01:50.326000'
S'data saved as csv to c:\\Charlie\\charlie\\data\\csv\\4375_face_memory_delay.csv'
tp161
a(S'2015-04-20 15:01:53.295000'
g103
tp162
a(S'2015-04-20 15:01:53.304000'
g105
tp163
a(S'2015-04-20 15:01:53.308000'
S'data saved as csv to c:\\Charlie\\charlie\\data\\csv\\4375_face_memory_delay.csv'
tp164
a(S'2015-04-20 15:01:55.116000'
g103
tp165
a(S'2015-04-20 15:01:55.124000'
g105
tp166
a(S'2015-04-20 15:01:55.127000'
S'data saved as csv to c:\\Charlie\\charlie\\data\\csv\\4375_face_memory_delay.csv'
tp167
a(S'2015-04-20 15:01:56.464000'
g103
tp168
a(S'2015-04-20 15:01:56.473000'
g105
tp169
a(S'2015-04-20 15:01:56.475000'
S'data saved as csv to c:\\Charlie\\charlie\\data\\csv\\4375_face_memory_delay.csv'
tp170
a(S'2015-04-20 15:01:57.240000'
g103
tp171
a(S'2015-04-20 15:01:57.250000'
g105
tp172
a(S'2015-04-20 15:01:57.254000'
S'data saved as csv to c:\\Charlie\\charlie\\data\\csv\\4375_face_memory_delay.csv'
tp173
a(S'2015-04-20 15:01:58.042000'
g103
tp174
a(S'2015-04-20 15:01:58.051000'
g105
tp175
a(S'2015-04-20 15:01:58.055000'
S'data saved as csv to c:\\Charlie\\charlie\\data\\csv\\4375_face_memory_delay.csv'
tp176
a(S'2015-04-20 15:01:59.133000'
g103
tp177
a(S'2015-04-20 15:01:59.142000'
g105
tp178
a(S'2015-04-20 15:01:59.145000'
S'data saved as csv to c:\\Charlie\\charlie\\data\\csv\\4375_face_memory_delay.csv'
tp179
a(S'2015-04-20 15:02:00.481000'
g103
tp180
a(S'2015-04-20 15:02:00.490000'
g105
tp181
a(S'2015-04-20 15:02:00.493000'
S'data saved as csv to c:\\Charlie\\charlie\\data\\csv\\4375_face_memory_delay.csv'
tp182
a(S'2015-04-20 15:02:01.350000'
g103
tp183
a(S'2015-04-20 15:02:01.359000'
g105
tp184
a(S'2015-04-20 15:02:01.363000'
S'data saved as csv to c:\\Charlie\\charlie\\data\\csv\\4375_face_memory_delay.csv'
tp185
a(S'2015-04-20 15:02:02.509000'
g103
tp186
a(S'2015-04-20 15:02:02.518000'
g105
tp187
a(S'2015-04-20 15:02:02.522000'
S'data saved as csv to c:\\Charlie\\charlie\\data\\csv\\4375_face_memory_delay.csv'
tp188
a(S'2015-04-20 15:02:03.300000'
g103
tp189
a(S'2015-04-20 15:02:03.309000'
g105
tp190
a(S'2015-04-20 15:02:03.313000'
S'data saved as csv to c:\\Charlie\\charlie\\data\\csv\\4375_face_memory_delay.csv'
tp191
a(S'2015-04-20 15:02:04.109000'
g103
tp192
a(S'2015-04-20 15:02:04.118000'
g105
tp193
a(S'2015-04-20 15:02:04.122000'
S'data saved as csv to c:\\Charlie\\charlie\\data\\csv\\4375_face_memory_delay.csv'
tp194
a(S'2015-04-20 15:02:05.589000'
g103
tp195
a(S'2015-04-20 15:02:05.597000'
g105
tp196
a(S'2015-04-20 15:02:05.601000'
S'data saved as csv to c:\\Charlie\\charlie\\data\\csv\\4375_face_memory_delay.csv'
tp197
a(S'2015-04-20 15:02:06.369000'
g103
tp198
a(S'2015-04-20 15:02:06.378000'
g105
tp199
a(S'2015-04-20 15:02:06.382000'
S'data saved as csv to c:\\Charlie\\charlie\\data\\csv\\4375_face_memory_delay.csv'
tp200
a(S'2015-04-20 15:02:07.600000'
g103
tp201
a(S'2015-04-20 15:02:07.609000'
g105
tp202
a(S'2015-04-20 15:02:07.613000'
S'data saved as csv to c:\\Charlie\\charlie\\data\\csv\\4375_face_memory_delay.csv'
tp203
a(S'2015-04-20 15:02:10.762000'
g103
tp204
a(S'2015-04-20 15:02:10.771000'
g105
tp205
a(S'2015-04-20 15:02:10.775000'
S'data saved as csv to c:\\Charlie\\charlie\\data\\csv\\4375_face_memory_delay.csv'
tp206
a(S'2015-04-20 15:02:11.913000'
g103
tp207
a(S'2015-04-20 15:02:11.922000'
g105
tp208
a(S'2015-04-20 15:02:11.925000'
S'data saved as csv to c:\\Charlie\\charlie\\data\\csv\\4375_face_memory_delay.csv'
tp209
a(S'2015-04-20 15:02:13.191000'
g103
tp210
a(S'2015-04-20 15:02:13.200000'
g105
tp211
a(S'2015-04-20 15:02:13.204000'
S'data saved as csv to c:\\Charlie\\charlie\\data\\csv\\4375_face_memory_delay.csv'
tp212
a(S'2015-04-20 15:02:14.023000'
g103
tp213
a(S'2015-04-20 15:02:14.031000'
g105
tp214
a(S'2015-04-20 15:02:14.036000'
S'data saved as csv to c:\\Charlie\\charlie\\data\\csv\\4375_face_memory_delay.csv'
tp215
a(S'2015-04-20 15:02:14.884000'
g103
tp216
a(S'2015-04-20 15:02:14.893000'
g105
tp217
a(S'2015-04-20 15:02:14.897000'
S'data saved as csv to c:\\Charlie\\charlie\\data\\csv\\4375_face_memory_delay.csv'
tp218
a(S'2015-04-20 15:02:17.276000'
g103
tp219
a(S'2015-04-20 15:02:17.286000'
g105
tp220
a(S'2015-04-20 15:02:17.290000'
S'data saved as csv to c:\\Charlie\\charlie\\data\\csv\\4375_face_memory_delay.csv'
tp221
a(S'2015-04-20 15:02:18.178000'
g103
tp222
a(S'2015-04-20 15:02:18.187000'
g105
tp223
a(S'2015-04-20 15:02:18.191000'
S'data saved as csv to c:\\Charlie\\charlie\\data\\csv\\4375_face_memory_delay.csv'
tp224
asb.