(icharlie.tools.data
Data
p1
(dp2
S'lang'
p3
S'EN'
p4
sS'control'
p5
(lp6
sS'last_updated'
p7
cdatetime
datetime
p8
(S'\x07\xdf\x04\x15\x0c%\x10\x06\xfd\x10'
tRp9
sS'last_opened'
p10
g8
(S'\x07\xdf\x04\x15\x0c\x1d\x00\x0b\xd3X'
tRp11
sS'proj_id'
p12
S'connectivity'
p13
sS'date_done'
p14
g8
(S'\x07\xdf\x04\x15\x0c%\x10\x05\xdf\xe8'
tRp15
sS'test_done'
p16
I01
sS'data'
p17
(lp18
(S'4376'
p19
S'cvlt2'
p20
I0
csip
_unpickle_type
p21
(S'PyQt4.QtCore'
p22
S'QString'
(Vtruck
p23
ttRp24
tp25
a(g19
g20
I0
g21
(g22
S'QString'
(Vspinach
p26
ttRp27
tp28
a(g19
g20
I0
g21
(g22
S'QString'
(Vcabbage
p29
ttRp30
tp31
a(g19
g20
I0
g21
(g22
S'QString'
(Vintrusion
p32
ttRp33
tp34
a(g19
g20
I1
g21
(g22
S'QString'
(Vtruck
p35
ttRp36
tp37
a(g19
g20
I1
g21
(g22
S'QString'
(Vspinach
p38
ttRp39
tp40
a(g19
g20
I1
g21
(g22
S'QString'
(Vcabbage
p41
ttRp42
tp43
a(g19
g20
I1
g21
(g22
S'QString'
(Vcow
p44
ttRp45
tp46
a(g19
g20
I1
g21
(g22
S'QString'
(Vintrusion
p47
ttRp48
tp49
a(g19
g20
I1
g21
(g22
S'QString'
(Vspinach
p50
ttRp51
tp52
a(g19
g20
I1
g21
(g22
S'QString'
(Vsquirrel
p53
ttRp54
tp55
a(g19
g20
I1
g21
(g22
S'QString'
(Vgiraffe
p56
ttRp57
tp58
a(g19
g20
I2
g21
(g22
S'QString'
(Vtruck
p59
ttRp60
tp61
a(g19
g20
I2
g21
(g22
S'QString'
(Vcabbage
p62
ttRp63
tp64
a(g19
g20
I2
g21
(g22
S'QString'
(Vspinach
p65
ttRp66
tp67
a(g19
g20
I2
g21
(g22
S'QString'
(Vbookcase
p68
ttRp69
tp70
a(g19
g20
I2
g21
(g22
S'QString'
(Vzebra
p71
ttRp72
tp73
a(g19
g20
I2
g21
(g22
S'QString'
(Vgiraffe
p74
ttRp75
tp76
a(g19
g20
I2
g21
(g22
S'QString'
(Vsquirrel
p77
ttRp78
tp79
a(g19
g20
I2
g21
(g22
S'QString'
(Vmotorcycle
p80
ttRp81
tp82
a(g19
g20
I2
g21
(g22
S'QString'
(Vbookcase
p83
ttRp84
tp85
a(g19
g20
I3
g21
(g22
S'QString'
(Vcabbage
p86
ttRp87
tp88
a(g19
g20
I3
g21
(g22
S'QString'
(Vtruck
p89
ttRp90
tp91
a(g19
g20
I3
g21
(g22
S'QString'
(Vzebra
p92
ttRp93
tp94
a(g19
g20
I3
g21
(g22
S'QString'
(Vsquirrel
p95
ttRp96
tp97
a(g19
g20
I3
g21
(g22
S'QString'
(Vgiraffe
p98
ttRp99
tp100
a(g19
g20
I3
g21
(g22
S'QString'
(Vbookcase
p101
ttRp102
tp103
a(g19
g20
I3
g21
(g22
S'QString'
(Vmotorcycle
p104
ttRp105
tp106
a(g19
g20
I3
g21
(g22
S'QString'
(Vcabbage
p107
ttRp108
tp109
a(g19
g20
I3
g21
(g22
S'QString'
(Vcow
p110
ttRp111
tp112
a(g19
g20
I4
g21
(g22
S'QString'
(Vtruck
p113
ttRp114
tp115
a(g19
g20
I4
g21
(g22
S'QString'
(Vzebra
p116
ttRp117
tp118
a(g19
g20
I4
g21
(g22
S'QString'
(Vcow
p119
ttRp120
tp121
a(g19
g20
I4
g21
(g22
S'QString'
(Vsquirrel
p122
ttRp123
tp124
a(g19
g20
I4
g21
(g22
S'QString'
(Vspinach
p125
ttRp126
tp127
a(g19
g20
I4
g21
(g22
S'QString'
(Vsubway
p128
ttRp129
tp130
a(g19
g20
I4
g21
(g22
S'QString'
(Vonion
p131
ttRp132
tp133
a(g19
g20
I4
g21
(g22
S'QString'
(Vintrusion
p134
ttRp135
tp136
asS'output_format'
p137
(lp138
(S'proband_id'
p139
c__builtin__
str
p140
tp141
a(S'test_name'
p142
g140
tp143
a(S'trialn'
p144
c__builtin__
int
p145
tp146
a(S'rsp'
p147
g140
tp148
asg139
g19
sS'filename'
p149
S'4376_cvlt2.data'
p150
sS'initialised'
p151
g8
(S'\x07\xdf\x04\x15\x0c\x1d\x00\x0b\xd3X'
tRp152
sS'last_udated'
p153
g8
(S'\x07\xdf\x04\x15\x0c\x1d\x00\x0b\xd3X'
tRp154
sg142
S'cvlt2'
p155
sS'directory'
p156
S'c:\\Charlie\\charlie\\data\\raw'
p157
sS'user_id'
p158
S'sbuccheri'
p159
sS'test_started'
p160
I01
sS'abs_filename'
p161
S'c:\\Charlie\\charlie\\data\\raw\\4376_cvlt2.data'
p162
sS'date_started'
p163
g8
(S'\x07\xdf\x04\x15\x0c\x1f \x06\xae\xf0'
tRp164
sS'log'
p165
(lp166
(S'2015-04-21 12:29:00.775000'
S'instance created'
p167
tp168
a(S'2015-04-21 12:31:32.449000'
S'instance updated'
p169
tp170
a(S'2015-04-21 12:31:32.480000'
S'pandas DataFrame of data created'
p171
tp172
a(S'2015-04-21 12:31:32.486000'
S'data saved as csv to c:\\Charlie\\charlie\\data\\csv\\4376_cvlt2.csv'
tp173
a(S'2015-04-21 12:32:19.133000'
g169
tp174
a(S'2015-04-21 12:32:19.147000'
g171
tp175
a(S'2015-04-21 12:32:19.151000'
S'data saved as csv to c:\\Charlie\\charlie\\data\\csv\\4376_cvlt2.csv'
tp176
a(S'2015-04-21 12:33:03.882000'
g169
tp177
a(S'2015-04-21 12:33:03.913000'
g171
tp178
a(S'2015-04-21 12:33:03.917000'
S'data saved as csv to c:\\Charlie\\charlie\\data\\csv\\4376_cvlt2.csv'
tp179
a(S'2015-04-21 12:33:55.406000'
g169
tp180
a(S'2015-04-21 12:33:55.431000'
g171
tp181
a(S'2015-04-21 12:33:55.433000'
S'data saved as csv to c:\\Charlie\\charlie\\data\\csv\\4376_cvlt2.csv'
tp182
a(S'2015-04-21 12:34:38.172000'
g169
tp183
a(S'2015-04-21 12:34:38.211000'
g171
tp184
a(S'2015-04-21 12:34:38.212000'
S'data saved as csv to c:\\Charlie\\charlie\\data\\csv\\4376_cvlt2.csv'
tp185
a(S'2015-04-21 12:35:23.665000'
g169
tp186
a(S'2015-04-21 12:35:23.701000'
g171
tp187
a(S'2015-04-21 12:35:23.703000'
S'data saved as csv to c:\\Charlie\\charlie\\data\\csv\\4376_cvlt2.csv'
tp188
a(S'2015-04-21 12:36:10.817000'
g169
tp189
a(S'2015-04-21 12:36:10.845000'
g171
tp190
a(S'2015-04-21 12:36:10.846000'
S'data saved as csv to c:\\Charlie\\charlie\\data\\csv\\4376_cvlt2.csv'
tp191
a(S'2015-04-21 12:36:51.739000'
g169
tp192
a(S'2015-04-21 12:36:51.795000'
g171
tp193
a(S'2015-04-21 12:36:51.797000'
S'data saved as csv to c:\\Charlie\\charlie\\data\\csv\\4376_cvlt2.csv'
tp194
a(S'2015-04-21 12:37:16.385000'
g169
tp195
a(S'2015-04-21 12:37:16.457000'
g171
tp196
a(S'2015-04-21 12:37:16.458000'
S'data saved as csv to c:\\Charlie\\charlie\\data\\csv\\4376_cvlt2.csv'
tp197
asb.