(icharlie.tools.data
Data
p1
(dp2
S'lang'
p3
S'EN'
p4
sS'control'
p5
(lp6
sS'last_updated'
p7
cdatetime
datetime
p8
(S'\x07\xdf\x04\x16\x0b \x1d\x07C`'
tRp9
sS'last_opened'
p10
g8
(S'\x07\xdf\x04\x16\x0b\x1d\x0c\x06\n\xe0'
tRp11
sS'proj_id'
p12
S'connectivity'
p13
sS'date_done'
p14
NsS'test_done'
p15
I01
sS'data'
p16
(lp17
(S'4378'
p18
S'stroop'
p19
S'practice'
p20
I0
S'n/a'
p21
S'c:\\Charlie\\charlie\\stimuli\\visual\\stroop\\prac_1.png'
S'Right'
p22
g22
I1721
tp23
a(g18
g19
g20
I1
g21
S'c:\\Charlie\\charlie\\stimuli\\visual\\stroop\\prac_2.png'
S'Left'
p24
g24
I1600
tp25
a(g18
g19
g20
I2
g21
S'c:\\Charlie\\charlie\\stimuli\\visual\\stroop\\prac_3.png'
g22
g22
I670
tp26
a(g18
g19
g20
I3
g21
S'c:\\Charlie\\charlie\\stimuli\\visual\\stroop\\prac_4.png'
g22
g22
I660
tp27
a(g18
g19
S'test'
p28
I0
S'Incongruent'
p29
S'c:\\Charlie\\charlie\\stimuli\\visual\\stroop\\6-Incongruent.png'
g24
g24
I1200
tp30
a(g18
g19
g28
I1
S'Congruent'
p31
S'c:\\Charlie\\charlie\\stimuli\\visual\\stroop\\30-Congruent.png'
g24
g24
I880
tp32
a(g18
g19
g28
I2
g31
S'c:\\Charlie\\charlie\\stimuli\\visual\\stroop\\3-Congruent.png'
g22
g22
I991
tp33
a(g18
g19
g28
I3
g29
S'c:\\Charlie\\charlie\\stimuli\\visual\\stroop\\23-Incongruent.png'
g24
g24
I930
tp34
a(g18
g19
g28
I4
g31
S'c:\\Charlie\\charlie\\stimuli\\visual\\stroop\\39-Congruent.png'
g24
g24
I1550
tp35
a(g18
g19
g28
I5
g31
S'c:\\Charlie\\charlie\\stimuli\\visual\\stroop\\45-Congruent.png'
g24
g24
I740
tp36
a(g18
g19
g28
I6
g29
S'c:\\Charlie\\charlie\\stimuli\\visual\\stroop\\31-Incongruent.png'
g22
g24
I1190
tp37
a(g18
g19
g28
I7
g29
S'c:\\Charlie\\charlie\\stimuli\\visual\\stroop\\28-Incongruent.png'
g24
g22
I1120
tp38
a(g18
g19
g28
I8
g31
S'c:\\Charlie\\charlie\\stimuli\\visual\\stroop\\31-Congruent.png'
g24
g24
I860
tp39
a(g18
g19
g28
I9
g31
S'c:\\Charlie\\charlie\\stimuli\\visual\\stroop\\10-Congruent.png'
g22
g22
I920
tp40
a(g18
g19
g28
I10
g29
S'c:\\Charlie\\charlie\\stimuli\\visual\\stroop\\10-Incongruent.png'
g24
g22
I1630
tp41
a(g18
g19
g28
I11
g29
S'c:\\Charlie\\charlie\\stimuli\\visual\\stroop\\24-Incongruent.png'
g24
g22
I1370
tp42
a(g18
g19
g28
I12
g31
S'c:\\Charlie\\charlie\\stimuli\\visual\\stroop\\34-Congruent.png'
g24
g24
I820
tp43
a(g18
g19
g28
I13
g31
S'c:\\Charlie\\charlie\\stimuli\\visual\\stroop\\38-Congruent.png'
g24
g24
I1130
tp44
a(g18
g19
g28
I14
g31
S'c:\\Charlie\\charlie\\stimuli\\visual\\stroop\\42-Congruent.png'
g24
g24
I1080
tp45
a(g18
g19
g28
I15
g31
S'c:\\Charlie\\charlie\\stimuli\\visual\\stroop\\17-Congruent.png'
g22
g22
I870
tp46
a(g18
g19
g28
I16
g29
S'c:\\Charlie\\charlie\\stimuli\\visual\\stroop\\42-Incongruent.png'
g22
g24
I1081
tp47
a(g18
g19
g28
I17
g29
S'c:\\Charlie\\charlie\\stimuli\\visual\\stroop\\36-Incongruent.png'
g22
g24
I1020
tp48
a(g18
g19
g28
I18
g29
S'c:\\Charlie\\charlie\\stimuli\\visual\\stroop\\43-Incongruent.png'
g22
g22
I1350
tp49
a(g18
g19
g28
I19
g31
S'c:\\Charlie\\charlie\\stimuli\\visual\\stroop\\49-Congruent.png'
g24
g24
I800
tp50
a(g18
g19
g28
I20
g31
S'c:\\Charlie\\charlie\\stimuli\\visual\\stroop\\43-Congruent.png'
g24
g24
I1080
tp51
a(g18
g19
g28
I21
g29
S'c:\\Charlie\\charlie\\stimuli\\visual\\stroop\\15-Incongruent.png'
g24
g22
I1270
tp52
a(g18
g19
g28
I22
g29
S'c:\\Charlie\\charlie\\stimuli\\visual\\stroop\\35-Incongruent.png'
g22
g24
I1040
tp53
a(g18
g19
g28
I23
g29
S'c:\\Charlie\\charlie\\stimuli\\visual\\stroop\\44-Incongruent.png'
g22
g24
I1310
tp54
a(g18
g19
g28
I24
g29
S'c:\\Charlie\\charlie\\stimuli\\visual\\stroop\\47-Incongruent.png'
g22
g22
I1080
tp55
a(g18
g19
g28
I25
g29
S'c:\\Charlie\\charlie\\stimuli\\visual\\stroop\\40-Incongruent.png'
g22
g24
I2010
tp56
a(g18
g19
g28
I26
g29
S'c:\\Charlie\\charlie\\stimuli\\visual\\stroop\\25-Incongruent.png'
g24
g22
I1760
tp57
a(g18
g19
g28
I27
g29
S'c:\\Charlie\\charlie\\stimuli\\visual\\stroop\\27-Incongruent.png'
g24
g24
I2020
tp58
a(g18
g19
g28
I28
g29
S'c:\\Charlie\\charlie\\stimuli\\visual\\stroop\\56-Incongruent.png'
g22
g24
I1511
tp59
a(g18
g19
g28
I29
g31
S'c:\\Charlie\\charlie\\stimuli\\visual\\stroop\\2-Congruent.png'
g22
g22
I910
tp60
a(g18
g19
g28
I30
g29
S'c:\\Charlie\\charlie\\stimuli\\visual\\stroop\\17-Incongruent.png'
g24
g22
I1470
tp61
a(g18
g19
g28
I31
g31
S'c:\\Charlie\\charlie\\stimuli\\visual\\stroop\\12-Congruent.png'
g22
g22
I1180
tp62
a(g18
g19
g28
I32
g29
S'c:\\Charlie\\charlie\\stimuli\\visual\\stroop\\12-Incongruent.png'
g24
g22
I890
tp63
a(g18
g19
g28
I33
g29
S'c:\\Charlie\\charlie\\stimuli\\visual\\stroop\\26-Incongruent.png'
g24
g22
I1140
tp64
a(g18
g19
g28
I34
g31
S'c:\\Charlie\\charlie\\stimuli\\visual\\stroop\\19-Congruent.png'
g22
g22
I1190
tp65
a(g18
g19
g28
I35
g31
S'c:\\Charlie\\charlie\\stimuli\\visual\\stroop\\23-Congruent.png'
g22
g22
I1740
tp66
a(g18
g19
g28
I36
g31
S'c:\\Charlie\\charlie\\stimuli\\visual\\stroop\\35-Congruent.png'
g24
g24
I1660
tp67
a(g18
g19
g28
I37
g31
S'c:\\Charlie\\charlie\\stimuli\\visual\\stroop\\46-Congruent.png'
g24
g24
I850
tp68
a(g18
g19
g28
I38
g29
S'c:\\Charlie\\charlie\\stimuli\\visual\\stroop\\8-Incongruent.png'
g24
g22
I1730
tp69
a(g18
g19
g28
I39
g31
S'c:\\Charlie\\charlie\\stimuli\\visual\\stroop\\29-Congruent.png'
g24
g24
I1300
tp70
a(g18
g19
g28
I40
g31
S'c:\\Charlie\\charlie\\stimuli\\visual\\stroop\\14-Congruent.png'
g22
g24
I1631
tp71
a(g18
g19
g28
I41
g31
S'c:\\Charlie\\charlie\\stimuli\\visual\\stroop\\33-Congruent.png'
g24
g24
I1690
tp72
a(g18
g19
g28
I42
g29
S'c:\\Charlie\\charlie\\stimuli\\visual\\stroop\\13-Incongruent.png'
g24
g22
I870
tp73
a(g18
g19
g28
I43
g29
S'c:\\Charlie\\charlie\\stimuli\\visual\\stroop\\55-Incongruent.png'
g22
g24
I940
tp74
a(g18
g19
g28
I44
g31
S'c:\\Charlie\\charlie\\stimuli\\visual\\stroop\\54-Congruent.png'
g24
g22
I1530
tp75
a(g18
g19
g28
I45
g31
S'c:\\Charlie\\charlie\\stimuli\\visual\\stroop\\8-Congruent.png'
g22
g24
I2310
tp76
a(g18
g19
g28
I46
g31
S'c:\\Charlie\\charlie\\stimuli\\visual\\stroop\\13-Congruent.png'
g22
g22
I860
tp77
a(g18
g19
g28
I47
g31
S'c:\\Charlie\\charlie\\stimuli\\visual\\stroop\\40-Congruent.png'
g24
g24
I740
tp78
a(g18
g19
g28
I48
g29
S'c:\\Charlie\\charlie\\stimuli\\visual\\stroop\\9-Incongruent.png'
g24
g22
I880
tp79
a(g18
g19
g28
I49
g31
S'c:\\Charlie\\charlie\\stimuli\\visual\\stroop\\50-Congruent.png'
g24
g24
I2040
tp80
a(g18
g19
g28
I50
g31
S'c:\\Charlie\\charlie\\stimuli\\visual\\stroop\\5-Congruent.png'
g22
g22
I1020
tp81
a(g18
g19
g28
I51
g29
S'c:\\Charlie\\charlie\\stimuli\\visual\\stroop\\5-Incongruent.png'
g24
g22
I1130
tp82
a(g18
g19
g28
I52
g29
S'c:\\Charlie\\charlie\\stimuli\\visual\\stroop\\53-Incongruent.png'
g22
g24
I1070
tp83
a(g18
g19
g28
I53
g29
S'c:\\Charlie\\charlie\\stimuli\\visual\\stroop\\1-Incongruent.png'
g24
g22
I1341
tp84
a(g18
g19
g28
I54
g31
S'c:\\Charlie\\charlie\\stimuli\\visual\\stroop\\28-Congruent.png'
g22
g24
I2440
tp85
a(g18
g19
g28
I55
g29
S'c:\\Charlie\\charlie\\stimuli\\visual\\stroop\\34-Incongruent.png'
g22
g24
I1770
tp86
a(g18
g19
g28
I56
g29
S'c:\\Charlie\\charlie\\stimuli\\visual\\stroop\\20-Incongruent.png'
g24
g22
I920
tp87
a(g18
g19
g28
I57
g29
S'c:\\Charlie\\charlie\\stimuli\\visual\\stroop\\38-Incongruent.png'
g22
g24
I880
tp88
a(g18
g19
g28
I58
g29
S'c:\\Charlie\\charlie\\stimuli\\visual\\stroop\\32-Incongruent.png'
g22
g24
I910
tp89
a(g18
g19
g28
I59
g31
S'c:\\Charlie\\charlie\\stimuli\\visual\\stroop\\9-Congruent.png'
g22
g22
I910
tp90
a(g18
g19
g28
I60
g31
S'c:\\Charlie\\charlie\\stimuli\\visual\\stroop\\55-Congruent.png'
g24
g24
I1030
tp91
a(g18
g19
g28
I61
g29
S'c:\\Charlie\\charlie\\stimuli\\visual\\stroop\\33-Incongruent.png'
g22
g24
I910
tp92
a(g18
g19
g28
I62
g29
S'c:\\Charlie\\charlie\\stimuli\\visual\\stroop\\49-Incongruent.png'
g22
g24
I920
tp93
a(g18
g19
g28
I63
g31
S'c:\\Charlie\\charlie\\stimuli\\visual\\stroop\\4-Congruent.png'
g22
g22
I1030
tp94
a(g18
g19
g28
I64
g31
S'c:\\Charlie\\charlie\\stimuli\\visual\\stroop\\6-Congruent.png'
g22
g22
I1380
tp95
a(g18
g19
g28
I65
g31
S'c:\\Charlie\\charlie\\stimuli\\visual\\stroop\\48-Congruent.png'
g24
g24
I1120
tp96
a(g18
g19
g28
I66
g31
S'c:\\Charlie\\charlie\\stimuli\\visual\\stroop\\52-Congruent.png'
g24
g24
I1441
tp97
a(g18
g19
g28
I67
g31
S'c:\\Charlie\\charlie\\stimuli\\visual\\stroop\\51-Congruent.png'
g24
g24
I2540
tp98
a(g18
g19
g28
I68
g31
S'c:\\Charlie\\charlie\\stimuli\\visual\\stroop\\16-Congruent.png'
g22
g22
I770
tp99
a(g18
g19
g28
I69
g31
S'c:\\Charlie\\charlie\\stimuli\\visual\\stroop\\24-Congruent.png'
g22
g22
I830
tp100
a(g18
g19
g28
I70
g29
S'c:\\Charlie\\charlie\\stimuli\\visual\\stroop\\41-Incongruent.png'
g22
g24
I750
tp101
a(g18
g19
g28
I71
g29
S'c:\\Charlie\\charlie\\stimuli\\visual\\stroop\\48-Incongruent.png'
g22
g24
I1080
tp102
a(g18
g19
g28
I72
g29
S'c:\\Charlie\\charlie\\stimuli\\visual\\stroop\\4-Incongruent.png'
g24
g22
I920
tp103
a(g18
g19
g28
I73
g29
S'c:\\Charlie\\charlie\\stimuli\\visual\\stroop\\54-Incongruent.png'
g22
g24
I940
tp104
a(g18
g19
g28
I74
g29
S'c:\\Charlie\\charlie\\stimuli\\visual\\stroop\\39-Incongruent.png'
g22
g24
I1010
tp105
a(g18
g19
g28
I75
g31
S'c:\\Charlie\\charlie\\stimuli\\visual\\stroop\\56-Congruent.png'
g24
g24
I770
tp106
a(g18
g19
g28
I76
g29
S'c:\\Charlie\\charlie\\stimuli\\visual\\stroop\\46-Incongruent.png'
g22
g24
I980
tp107
a(g18
g19
g28
I77
g31
S'c:\\Charlie\\charlie\\stimuli\\visual\\stroop\\22-Congruent.png'
g22
g22
I810
tp108
a(g18
g19
g28
I78
g29
S'c:\\Charlie\\charlie\\stimuli\\visual\\stroop\\21-Incongruent.png'
g24
g22
I950
tp109
a(g18
g19
g28
I79
g29
S'c:\\Charlie\\charlie\\stimuli\\visual\\stroop\\37-Incongruent.png'
g22
g24
I1080
tp110
a(g18
g19
g28
I80
g29
S'c:\\Charlie\\charlie\\stimuli\\visual\\stroop\\2-Incongruent.png'
g24
g22
I801
tp111
a(g18
g19
g28
I81
g31
S'c:\\Charlie\\charlie\\stimuli\\visual\\stroop\\21-Congruent.png'
g22
g24
I1370
tp112
a(g18
g19
g28
I82
g29
S'c:\\Charlie\\charlie\\stimuli\\visual\\stroop\\7-Incongruent.png'
g24
g22
I1280
tp113
a(g18
g19
g28
I83
g31
S'c:\\Charlie\\charlie\\stimuli\\visual\\stroop\\20-Congruent.png'
g22
g22
I860
tp114
a(g18
g19
g28
I84
g31
S'c:\\Charlie\\charlie\\stimuli\\visual\\stroop\\15-Congruent.png'
g22
g22
I950
tp115
a(g18
g19
g28
I85
g31
S'c:\\Charlie\\charlie\\stimuli\\visual\\stroop\\26-Congruent.png'
g22
g22
I820
tp116
a(g18
g19
g28
I86
g29
S'c:\\Charlie\\charlie\\stimuli\\visual\\stroop\\16-Incongruent.png'
g24
g22
I810
tp117
a(g18
g19
g28
I87
g29
S'c:\\Charlie\\charlie\\stimuli\\visual\\stroop\\50-Incongruent.png'
g22
g24
I890
tp118
a(g18
g19
g28
I88
g31
S'c:\\Charlie\\charlie\\stimuli\\visual\\stroop\\41-Congruent.png'
g24
g24
I800
tp119
a(g18
g19
g28
I89
g31
S'c:\\Charlie\\charlie\\stimuli\\visual\\stroop\\25-Congruent.png'
g22
g22
I770
tp120
a(g18
g19
g28
I90
g31
S'c:\\Charlie\\charlie\\stimuli\\visual\\stroop\\27-Congruent.png'
g22
g22
I730
tp121
a(g18
g19
g28
I91
g29
S'c:\\Charlie\\charlie\\stimuli\\visual\\stroop\\18-Incongruent.png'
g24
g22
I950
tp122
a(g18
g19
g28
I92
g29
S'c:\\Charlie\\charlie\\stimuli\\visual\\stroop\\30-Incongruent.png'
g22
g24
I800
tp123
a(g18
g19
g28
I93
g31
S'c:\\Charlie\\charlie\\stimuli\\visual\\stroop\\44-Congruent.png'
g24
g24
I1130
tp124
a(g18
g19
g28
I94
g31
S'c:\\Charlie\\charlie\\stimuli\\visual\\stroop\\37-Congruent.png'
g24
g24
I970
tp125
a(g18
g19
g28
I95
g29
S'c:\\Charlie\\charlie\\stimuli\\visual\\stroop\\11-Incongruent.png'
g24
g22
I1050
tp126
a(g18
g19
g28
I96
g29
S'c:\\Charlie\\charlie\\stimuli\\visual\\stroop\\29-Incongruent.png'
g22
g24
I1471
tp127
a(g18
g19
g28
I97
g29
S'c:\\Charlie\\charlie\\stimuli\\visual\\stroop\\3-Incongruent.png'
g24
g22
I830
tp128
a(g18
g19
g28
I98
g31
S'c:\\Charlie\\charlie\\stimuli\\visual\\stroop\\1-Congruent.png'
g22
g22
I920
tp129
a(g18
g19
g28
I99
g29
S'c:\\Charlie\\charlie\\stimuli\\visual\\stroop\\52-Incongruent.png'
g22
g24
I1470
tp130
a(g18
g19
g28
I100
g29
S'c:\\Charlie\\charlie\\stimuli\\visual\\stroop\\14-Incongruent.png'
g24
g22
I840
tp131
a(g18
g19
g28
I101
g31
S'c:\\Charlie\\charlie\\stimuli\\visual\\stroop\\47-Congruent.png'
g24
g24
I980
tp132
a(g18
g19
g28
I102
g29
S'c:\\Charlie\\charlie\\stimuli\\visual\\stroop\\19-Incongruent.png'
g24
g22
I1780
tp133
a(g18
g19
g28
I103
g31
S'c:\\Charlie\\charlie\\stimuli\\visual\\stroop\\11-Congruent.png'
g22
g22
I910
tp134
a(g18
g19
g28
I104
g29
S'c:\\Charlie\\charlie\\stimuli\\visual\\stroop\\22-Incongruent.png'
g24
g22
I950
tp135
a(g18
g19
g28
I105
g31
S'c:\\Charlie\\charlie\\stimuli\\visual\\stroop\\7-Congruent.png'
g22
g22
I810
tp136
a(g18
g19
g28
I106
g31
S'c:\\Charlie\\charlie\\stimuli\\visual\\stroop\\53-Congruent.png'
g24
g22
I110
tp137
a(g18
g19
g28
I107
g31
S'c:\\Charlie\\charlie\\stimuli\\visual\\stroop\\32-Congruent.png'
g24
g24
I1000
tp138
a(g18
g19
g28
I108
g29
S'c:\\Charlie\\charlie\\stimuli\\visual\\stroop\\45-Incongruent.png'
g22
g24
I780
tp139
a(g18
g19
g28
I109
g31
S'c:\\Charlie\\charlie\\stimuli\\visual\\stroop\\36-Congruent.png'
g24
g24
I790
tp140
a(g18
g19
g28
I110
g29
S'c:\\Charlie\\charlie\\stimuli\\visual\\stroop\\51-Incongruent.png'
g22
g22
I1050
tp141
a(g18
g19
g28
I111
g31
S'c:\\Charlie\\charlie\\stimuli\\visual\\stroop\\18-Congruent.png'
p142
g22
g22
I1010
tp143
asS'output_format'
p144
(lp145
(S'proband_id'
p146
c__builtin__
str
p147
tp148
a(S'test_name'
p149
g147
tp150
a(S'phase'
p151
g147
tp152
a(S'trialn'
p153
c__builtin__
int
p154
tp155
a(S'cong'
p156
g147
tp157
a(S'f'
g147
tp158
a(S'ans'
p159
g147
tp160
a(S'rsp'
p161
g147
tp162
a(S'rt'
p163
g154
tp164
asg146
g18
sS'filename'
p165
S'4378_stroop.data'
p166
sS'initialised'
p167
g8
(S'\x07\xdf\x04\x16\x0b\x1d\x0c\x06\n\xe0'
tRp168
sS'last_udated'
p169
g8
(S'\x07\xdf\x04\x16\x0b\x1d\x0c\x06\n\xe0'
tRp170
sg149
S'stroop'
p171
sS'directory'
p172
S'c:\\Charlie\\charlie\\data\\raw'
p173
sS'user_id'
p174
S'oleach'
p175
sS'test_started'
p176
I01
sS'abs_filename'
p177
S'c:\\Charlie\\charlie\\data\\raw\\4378_stroop.data'
p178
sS'date_started'
p179
g8
(S'\x07\xdf\x04\x16\x0b\x1d$\x0b\x088'
tRp180
sS'log'
p181
(lp182
(S'2015-04-22 11:29:12.396000'
S'instance created'
p183
tp184
a(S'2015-04-22 11:29:36.735000'
S'instance updated'
p185
tp186
a(S'2015-04-22 11:29:36.745000'
S'pandas DataFrame of data created'
p187
tp188
a(S'2015-04-22 11:29:36.751000'
S'data saved as csv to c:\\Charlie\\charlie\\data\\csv\\4378_stroop.csv'
tp189
a(S'2015-04-22 11:29:39.381000'
g185
tp190
a(S'2015-04-22 11:29:39.391000'
g187
tp191
a(S'2015-04-22 11:29:39.395000'
S'data saved as csv to c:\\Charlie\\charlie\\data\\csv\\4378_stroop.csv'
tp192
a(S'2015-04-22 11:29:41.092000'
g185
tp193
a(S'2015-04-22 11:29:41.101000'
g187
tp194
a(S'2015-04-22 11:29:41.105000'
S'data saved as csv to c:\\Charlie\\charlie\\data\\csv\\4378_stroop.csv'
tp195
a(S'2015-04-22 11:29:42.791000'
g185
tp196
a(S'2015-04-22 11:29:42.801000'
g187
tp197
a(S'2015-04-22 11:29:42.805000'
S'data saved as csv to c:\\Charlie\\charlie\\data\\csv\\4378_stroop.csv'
tp198
a(S'2015-04-22 11:30:07.968000'
g185
tp199
a(S'2015-04-22 11:30:07.977000'
g187
tp200
a(S'2015-04-22 11:30:07.981000'
S'data saved as csv to c:\\Charlie\\charlie\\data\\csv\\4378_stroop.csv'
tp201
a(S'2015-04-22 11:30:08.992000'
g185
tp202
a(S'2015-04-22 11:30:09.002000'
g187
tp203
a(S'2015-04-22 11:30:09.005000'
S'data saved as csv to c:\\Charlie\\charlie\\data\\csv\\4378_stroop.csv'
tp204
a(S'2015-04-22 11:30:10.124000'
g185
tp205
a(S'2015-04-22 11:30:10.134000'
g187
tp206
a(S'2015-04-22 11:30:10.138000'
S'data saved as csv to c:\\Charlie\\charlie\\data\\csv\\4378_stroop.csv'
tp207
a(S'2015-04-22 11:30:11.198000'
g185
tp208
a(S'2015-04-22 11:30:11.208000'
g187
tp209
a(S'2015-04-22 11:30:11.212000'
S'data saved as csv to c:\\Charlie\\charlie\\data\\csv\\4378_stroop.csv'
tp210
a(S'2015-04-22 11:30:12.892000'
g185
tp211
a(S'2015-04-22 11:30:12.902000'
g187
tp212
a(S'2015-04-22 11:30:12.906000'
S'data saved as csv to c:\\Charlie\\charlie\\data\\csv\\4378_stroop.csv'
tp213
a(S'2015-04-22 11:30:13.774000'
g185
tp214
a(S'2015-04-22 11:30:13.784000'
g187
tp215
a(S'2015-04-22 11:30:13.787000'
S'data saved as csv to c:\\Charlie\\charlie\\data\\csv\\4378_stroop.csv'
tp216
a(S'2015-04-22 11:30:15.108000'
g185
tp217
a(S'2015-04-22 11:30:15.119000'
g187
tp218
a(S'2015-04-22 11:30:15.122000'
S'data saved as csv to c:\\Charlie\\charlie\\data\\csv\\4378_stroop.csv'
tp219
a(S'2015-04-22 11:30:16.373000'
g185
tp220
a(S'2015-04-22 11:30:16.383000'
g187
tp221
a(S'2015-04-22 11:30:16.387000'
S'data saved as csv to c:\\Charlie\\charlie\\data\\csv\\4378_stroop.csv'
tp222
a(S'2015-04-22 11:30:17.375000'
g185
tp223
a(S'2015-04-22 11:30:17.385000'
g187
tp224
a(S'2015-04-22 11:30:17.389000'
S'data saved as csv to c:\\Charlie\\charlie\\data\\csv\\4378_stroop.csv'
tp225
a(S'2015-04-22 11:30:18.440000'
g185
tp226
a(S'2015-04-22 11:30:18.450000'
g187
tp227
a(S'2015-04-22 11:30:18.454000'
S'data saved as csv to c:\\Charlie\\charlie\\data\\csv\\4378_stroop.csv'
tp228
a(S'2015-04-22 11:30:20.214000'
g185
tp229
a(S'2015-04-22 11:30:20.224000'
g187
tp230
a(S'2015-04-22 11:30:20.227000'
S'data saved as csv to c:\\Charlie\\charlie\\data\\csv\\4378_stroop.csv'
tp231
a(S'2015-04-22 11:30:21.726000'
g185
tp232
a(S'2015-04-22 11:30:21.735000'
g187
tp233
a(S'2015-04-22 11:30:21.739000'
S'data saved as csv to c:\\Charlie\\charlie\\data\\csv\\4378_stroop.csv'
tp234
a(S'2015-04-22 11:30:22.690000'
g185
tp235
a(S'2015-04-22 11:30:22.700000'
g187
tp236
a(S'2015-04-22 11:30:22.704000'
S'data saved as csv to c:\\Charlie\\charlie\\data\\csv\\4378_stroop.csv'
tp237
a(S'2015-04-22 11:30:23.965000'
g185
tp238
a(S'2015-04-22 11:30:23.975000'
g187
tp239
a(S'2015-04-22 11:30:23.978000'
S'data saved as csv to c:\\Charlie\\charlie\\data\\csv\\4378_stroop.csv'
tp240
a(S'2015-04-22 11:30:25.186000'
g185
tp241
a(S'2015-04-22 11:30:25.196000'
g187
tp242
a(S'2015-04-22 11:30:25.200000'
S'data saved as csv to c:\\Charlie\\charlie\\data\\csv\\4378_stroop.csv'
tp243
a(S'2015-04-22 11:30:26.201000'
g185
tp244
a(S'2015-04-22 11:30:26.211000'
g187
tp245
a(S'2015-04-22 11:30:26.216000'
S'data saved as csv to c:\\Charlie\\charlie\\data\\csv\\4378_stroop.csv'
tp246
a(S'2015-04-22 11:30:27.427000'
g185
tp247
a(S'2015-04-22 11:30:27.437000'
g187
tp248
a(S'2015-04-22 11:30:27.441000'
S'data saved as csv to c:\\Charlie\\charlie\\data\\csv\\4378_stroop.csv'
tp249
a(S'2015-04-22 11:30:28.593000'
g185
tp250
a(S'2015-04-22 11:30:28.603000'
g187
tp251
a(S'2015-04-22 11:30:28.607000'
S'data saved as csv to c:\\Charlie\\charlie\\data\\csv\\4378_stroop.csv'
tp252
a(S'2015-04-22 11:30:30.089000'
g185
tp253
a(S'2015-04-22 11:30:30.099000'
g187
tp254
a(S'2015-04-22 11:30:30.103000'
S'data saved as csv to c:\\Charlie\\charlie\\data\\csv\\4378_stroop.csv'
tp255
a(S'2015-04-22 11:30:31.035000'
g185
tp256
a(S'2015-04-22 11:30:31.044000'
g187
tp257
a(S'2015-04-22 11:30:31.048000'
S'data saved as csv to c:\\Charlie\\charlie\\data\\csv\\4378_stroop.csv'
tp258
a(S'2015-04-22 11:30:32.259000'
g185
tp259
a(S'2015-04-22 11:30:32.270000'
g187
tp260
a(S'2015-04-22 11:30:32.273000'
S'data saved as csv to c:\\Charlie\\charlie\\data\\csv\\4378_stroop.csv'
tp261
a(S'2015-04-22 11:30:33.675000'
g185
tp262
a(S'2015-04-22 11:30:33.685000'
g187
tp263
a(S'2015-04-22 11:30:33.689000'
S'data saved as csv to c:\\Charlie\\charlie\\data\\csv\\4378_stroop.csv'
tp264
a(S'2015-04-22 11:30:34.860000'
g185
tp265
a(S'2015-04-22 11:30:34.870000'
g187
tp266
a(S'2015-04-22 11:30:34.874000'
S'data saved as csv to c:\\Charlie\\charlie\\data\\csv\\4378_stroop.csv'
tp267
a(S'2015-04-22 11:30:36.316000'
g185
tp268
a(S'2015-04-22 11:30:36.326000'
g187
tp269
a(S'2015-04-22 11:30:36.330000'
S'data saved as csv to c:\\Charlie\\charlie\\data\\csv\\4378_stroop.csv'
tp270
a(S'2015-04-22 11:30:37.541000'
g185
tp271
a(S'2015-04-22 11:30:37.551000'
g187
tp272
a(S'2015-04-22 11:30:37.556000'
S'data saved as csv to c:\\Charlie\\charlie\\data\\csv\\4378_stroop.csv'
tp273
a(S'2015-04-22 11:30:39.698000'
g185
tp274
a(S'2015-04-22 11:30:39.708000'
g187
tp275
a(S'2015-04-22 11:30:39.712000'
S'data saved as csv to c:\\Charlie\\charlie\\data\\csv\\4378_stroop.csv'
tp276
a(S'2015-04-22 11:30:41.604000'
g185
tp277
a(S'2015-04-22 11:30:41.615000'
g187
tp278
a(S'2015-04-22 11:30:41.619000'
S'data saved as csv to c:\\Charlie\\charlie\\data\\csv\\4378_stroop.csv'
tp279
a(S'2015-04-22 11:30:43.771000'
g185
tp280
a(S'2015-04-22 11:30:43.781000'
g187
tp281
a(S'2015-04-22 11:30:43.785000'
S'data saved as csv to c:\\Charlie\\charlie\\data\\csv\\4378_stroop.csv'
tp282
a(S'2015-04-22 11:30:45.427000'
g185
tp283
a(S'2015-04-22 11:30:45.438000'
g187
tp284
a(S'2015-04-22 11:30:45.442000'
S'data saved as csv to c:\\Charlie\\charlie\\data\\csv\\4378_stroop.csv'
tp285
a(S'2015-04-22 11:30:46.483000'
g185
tp286
a(S'2015-04-22 11:30:46.493000'
g187
tp287
a(S'2015-04-22 11:30:46.497000'
S'data saved as csv to c:\\Charlie\\charlie\\data\\csv\\4378_stroop.csv'
tp288
a(S'2015-04-22 11:30:48.099000'
g185
tp289
a(S'2015-04-22 11:30:48.110000'
g187
tp290
a(S'2015-04-22 11:30:48.114000'
S'data saved as csv to c:\\Charlie\\charlie\\data\\csv\\4378_stroop.csv'
tp291
a(S'2015-04-22 11:30:49.425000'
g185
tp292
a(S'2015-04-22 11:30:49.435000'
g187
tp293
a(S'2015-04-22 11:30:49.439000'
S'data saved as csv to c:\\Charlie\\charlie\\data\\csv\\4378_stroop.csv'
tp294
a(S'2015-04-22 11:30:50.461000'
g185
tp295
a(S'2015-04-22 11:30:50.471000'
g187
tp296
a(S'2015-04-22 11:30:50.475000'
S'data saved as csv to c:\\Charlie\\charlie\\data\\csv\\4378_stroop.csv'
tp297
a(S'2015-04-22 11:30:51.747000'
g185
tp298
a(S'2015-04-22 11:30:51.756000'
g187
tp299
a(S'2015-04-22 11:30:51.759000'
S'data saved as csv to c:\\Charlie\\charlie\\data\\csv\\4378_stroop.csv'
tp300
a(S'2015-04-22 11:30:53.078000'
g185
tp301
a(S'2015-04-22 11:30:53.088000'
g187
tp302
a(S'2015-04-22 11:30:53.092000'
S'data saved as csv to c:\\Charlie\\charlie\\data\\csv\\4378_stroop.csv'
tp303
a(S'2015-04-22 11:30:54.964000'
g185
tp304
a(S'2015-04-22 11:30:54.974000'
g187
tp305
a(S'2015-04-22 11:30:54.978000'
S'data saved as csv to c:\\Charlie\\charlie\\data\\csv\\4378_stroop.csv'
tp306
a(S'2015-04-22 11:30:56.769000'
g185
tp307
a(S'2015-04-22 11:30:56.774000'
g187
tp308
a(S'2015-04-22 11:30:56.777000'
S'data saved as csv to c:\\Charlie\\charlie\\data\\csv\\4378_stroop.csv'
tp309
a(S'2015-04-22 11:30:57.756000'
g185
tp310
a(S'2015-04-22 11:30:57.767000'
g187
tp311
a(S'2015-04-22 11:30:57.771000'
S'data saved as csv to c:\\Charlie\\charlie\\data\\csv\\4378_stroop.csv'
tp312
a(S'2015-04-22 11:30:59.633000'
g185
tp313
a(S'2015-04-22 11:30:59.644000'
g187
tp314
a(S'2015-04-22 11:30:59.647000'
S'data saved as csv to c:\\Charlie\\charlie\\data\\csv\\4378_stroop.csv'
tp315
a(S'2015-04-22 11:31:01.075000'
g185
tp316
a(S'2015-04-22 11:31:01.085000'
g187
tp317
a(S'2015-04-22 11:31:01.087000'
S'data saved as csv to c:\\Charlie\\charlie\\data\\csv\\4378_stroop.csv'
tp318
a(S'2015-04-22 11:31:02.846000'
g185
tp319
a(S'2015-04-22 11:31:02.857000'
g187
tp320
a(S'2015-04-22 11:31:02.861000'
S'data saved as csv to c:\\Charlie\\charlie\\data\\csv\\4378_stroop.csv'
tp321
a(S'2015-04-22 11:31:04.683000'
g185
tp322
a(S'2015-04-22 11:31:04.693000'
g187
tp323
a(S'2015-04-22 11:31:04.698000'
S'data saved as csv to c:\\Charlie\\charlie\\data\\csv\\4378_stroop.csv'
tp324
a(S'2015-04-22 11:31:05.700000'
g185
tp325
a(S'2015-04-22 11:31:05.710000'
g187
tp326
a(S'2015-04-22 11:31:05.715000'
S'data saved as csv to c:\\Charlie\\charlie\\data\\csv\\4378_stroop.csv'
tp327
a(S'2015-04-22 11:31:06.786000'
g185
tp328
a(S'2015-04-22 11:31:06.797000'
g187
tp329
a(S'2015-04-22 11:31:06.801000'
S'data saved as csv to c:\\Charlie\\charlie\\data\\csv\\4378_stroop.csv'
tp330
a(S'2015-04-22 11:31:08.463000'
g185
tp331
a(S'2015-04-22 11:31:08.473000'
g187
tp332
a(S'2015-04-22 11:31:08.478000'
S'data saved as csv to c:\\Charlie\\charlie\\data\\csv\\4378_stroop.csv'
tp333
a(S'2015-04-22 11:31:10.920000'
g185
tp334
a(S'2015-04-22 11:31:10.930000'
g187
tp335
a(S'2015-04-22 11:31:10.935000'
S'data saved as csv to c:\\Charlie\\charlie\\data\\csv\\4378_stroop.csv'
tp336
a(S'2015-04-22 11:31:11.926000'
g185
tp337
a(S'2015-04-22 11:31:11.937000'
g187
tp338
a(S'2015-04-22 11:31:11.941000'
S'data saved as csv to c:\\Charlie\\charlie\\data\\csv\\4378_stroop.csv'
tp339
a(S'2015-04-22 11:31:12.811000'
g185
tp340
a(S'2015-04-22 11:31:12.822000'
g187
tp341
a(S'2015-04-22 11:31:12.826000'
S'data saved as csv to c:\\Charlie\\charlie\\data\\csv\\4378_stroop.csv'
tp342
a(S'2015-04-22 11:31:13.839000'
g185
tp343
a(S'2015-04-22 11:31:13.849000'
g187
tp344
a(S'2015-04-22 11:31:13.854000'
S'data saved as csv to c:\\Charlie\\charlie\\data\\csv\\4378_stroop.csv'
tp345
a(S'2015-04-22 11:31:16.026000'
g185
tp346
a(S'2015-04-22 11:31:16.037000'
g187
tp347
a(S'2015-04-22 11:31:16.041000'
S'data saved as csv to c:\\Charlie\\charlie\\data\\csv\\4378_stroop.csv'
tp348
a(S'2015-04-22 11:31:17.194000'
g185
tp349
a(S'2015-04-22 11:31:17.205000'
g187
tp350
a(S'2015-04-22 11:31:17.209000'
S'data saved as csv to c:\\Charlie\\charlie\\data\\csv\\4378_stroop.csv'
tp351
a(S'2015-04-22 11:31:18.472000'
g185
tp352
a(S'2015-04-22 11:31:18.482000'
g187
tp353
a(S'2015-04-22 11:31:18.485000'
S'data saved as csv to c:\\Charlie\\charlie\\data\\csv\\4378_stroop.csv'
tp354
a(S'2015-04-22 11:31:19.685000'
g185
tp355
a(S'2015-04-22 11:31:19.695000'
g187
tp356
a(S'2015-04-22 11:31:19.699000'
S'data saved as csv to c:\\Charlie\\charlie\\data\\csv\\4378_stroop.csv'
tp357
a(S'2015-04-22 11:31:21.173000'
g185
tp358
a(S'2015-04-22 11:31:21.183000'
g187
tp359
a(S'2015-04-22 11:31:21.186000'
S'data saved as csv to c:\\Charlie\\charlie\\data\\csv\\4378_stroop.csv'
tp360
a(S'2015-04-22 11:31:23.755000'
g185
tp361
a(S'2015-04-22 11:31:23.765000'
g187
tp362
a(S'2015-04-22 11:31:23.767000'
S'data saved as csv to c:\\Charlie\\charlie\\data\\csv\\4378_stroop.csv'
tp363
a(S'2015-04-22 11:31:25.667000'
g185
tp364
a(S'2015-04-22 11:31:25.678000'
g187
tp365
a(S'2015-04-22 11:31:25.682000'
S'data saved as csv to c:\\Charlie\\charlie\\data\\csv\\4378_stroop.csv'
tp366
a(S'2015-04-22 11:31:26.732000'
g185
tp367
a(S'2015-04-22 11:31:26.742000'
g187
tp368
a(S'2015-04-22 11:31:26.747000'
S'data saved as csv to c:\\Charlie\\charlie\\data\\csv\\4378_stroop.csv'
tp369
a(S'2015-04-22 11:31:27.760000'
g185
tp370
a(S'2015-04-22 11:31:27.771000'
g187
tp371
a(S'2015-04-22 11:31:27.775000'
S'data saved as csv to c:\\Charlie\\charlie\\data\\csv\\4378_stroop.csv'
tp372
a(S'2015-04-22 11:31:28.818000'
g185
tp373
a(S'2015-04-22 11:31:28.829000'
g187
tp374
a(S'2015-04-22 11:31:28.833000'
S'data saved as csv to c:\\Charlie\\charlie\\data\\csv\\4378_stroop.csv'
tp375
a(S'2015-04-22 11:31:29.873000'
g185
tp376
a(S'2015-04-22 11:31:29.883000'
g187
tp377
a(S'2015-04-22 11:31:29.886000'
S'data saved as csv to c:\\Charlie\\charlie\\data\\csv\\4378_stroop.csv'
tp378
a(S'2015-04-22 11:31:31.046000'
g185
tp379
a(S'2015-04-22 11:31:31.055000'
g187
tp380
a(S'2015-04-22 11:31:31.057000'
S'data saved as csv to c:\\Charlie\\charlie\\data\\csv\\4378_stroop.csv'
tp381
a(S'2015-04-22 11:31:32.097000'
g185
tp382
a(S'2015-04-22 11:31:32.106000'
g187
tp383
a(S'2015-04-22 11:31:32.109000'
S'data saved as csv to c:\\Charlie\\charlie\\data\\csv\\4378_stroop.csv'
tp384
a(S'2015-04-22 11:31:33.162000'
g185
tp385
a(S'2015-04-22 11:31:33.173000'
g187
tp386
a(S'2015-04-22 11:31:33.178000'
S'data saved as csv to c:\\Charlie\\charlie\\data\\csv\\4378_stroop.csv'
tp387
a(S'2015-04-22 11:31:34.340000'
g185
tp388
a(S'2015-04-22 11:31:34.351000'
g187
tp389
a(S'2015-04-22 11:31:34.355000'
S'data saved as csv to c:\\Charlie\\charlie\\data\\csv\\4378_stroop.csv'
tp390
a(S'2015-04-22 11:31:35.867000'
g185
tp391
a(S'2015-04-22 11:31:35.878000'
g187
tp392
a(S'2015-04-22 11:31:35.882000'
S'data saved as csv to c:\\Charlie\\charlie\\data\\csv\\4378_stroop.csv'
tp393
a(S'2015-04-22 11:31:37.132000'
g185
tp394
a(S'2015-04-22 11:31:37.142000'
g187
tp395
a(S'2015-04-22 11:31:37.145000'
S'data saved as csv to c:\\Charlie\\charlie\\data\\csv\\4378_stroop.csv'
tp396
a(S'2015-04-22 11:31:38.715000'
g185
tp397
a(S'2015-04-22 11:31:38.726000'
g187
tp398
a(S'2015-04-22 11:31:38.730000'
S'data saved as csv to c:\\Charlie\\charlie\\data\\csv\\4378_stroop.csv'
tp399
a(S'2015-04-22 11:31:41.402000'
g185
tp400
a(S'2015-04-22 11:31:41.414000'
g187
tp401
a(S'2015-04-22 11:31:41.432000'
S'data saved as csv to c:\\Charlie\\charlie\\data\\csv\\4378_stroop.csv'
tp402
a(S'2015-04-22 11:31:42.331000'
g185
tp403
a(S'2015-04-22 11:31:42.342000'
g187
tp404
a(S'2015-04-22 11:31:42.347000'
S'data saved as csv to c:\\Charlie\\charlie\\data\\csv\\4378_stroop.csv'
tp405
a(S'2015-04-22 11:31:43.309000'
g185
tp406
a(S'2015-04-22 11:31:43.320000'
g187
tp407
a(S'2015-04-22 11:31:43.323000'
S'data saved as csv to c:\\Charlie\\charlie\\data\\csv\\4378_stroop.csv'
tp408
a(S'2015-04-22 11:31:44.204000'
g185
tp409
a(S'2015-04-22 11:31:44.215000'
g187
tp410
a(S'2015-04-22 11:31:44.219000'
S'data saved as csv to c:\\Charlie\\charlie\\data\\csv\\4378_stroop.csv'
tp411
a(S'2015-04-22 11:31:45.431000'
g185
tp412
a(S'2015-04-22 11:31:45.441000'
g187
tp413
a(S'2015-04-22 11:31:45.446000'
S'data saved as csv to c:\\Charlie\\charlie\\data\\csv\\4378_stroop.csv'
tp414
a(S'2015-04-22 11:31:46.498000'
g185
tp415
a(S'2015-04-22 11:31:46.509000'
g187
tp416
a(S'2015-04-22 11:31:46.514000'
S'data saved as csv to c:\\Charlie\\charlie\\data\\csv\\4378_stroop.csv'
tp417
a(S'2015-04-22 11:31:47.586000'
g185
tp418
a(S'2015-04-22 11:31:47.598000'
g187
tp419
a(S'2015-04-22 11:31:47.602000'
S'data saved as csv to c:\\Charlie\\charlie\\data\\csv\\4378_stroop.csv'
tp420
a(S'2015-04-22 11:31:48.746000'
g185
tp421
a(S'2015-04-22 11:31:48.754000'
g187
tp422
a(S'2015-04-22 11:31:48.757000'
S'data saved as csv to c:\\Charlie\\charlie\\data\\csv\\4378_stroop.csv'
tp423
a(S'2015-04-22 11:31:49.657000'
g185
tp424
a(S'2015-04-22 11:31:49.668000'
g187
tp425
a(S'2015-04-22 11:31:49.673000'
S'data saved as csv to c:\\Charlie\\charlie\\data\\csv\\4378_stroop.csv'
tp426
a(S'2015-04-22 11:31:50.786000'
g185
tp427
a(S'2015-04-22 11:31:50.794000'
g187
tp428
a(S'2015-04-22 11:31:50.797000'
S'data saved as csv to c:\\Charlie\\charlie\\data\\csv\\4378_stroop.csv'
tp429
a(S'2015-04-22 11:31:51.737000'
g185
tp430
a(S'2015-04-22 11:31:51.748000'
g187
tp431
a(S'2015-04-22 11:31:51.752000'
S'data saved as csv to c:\\Charlie\\charlie\\data\\csv\\4378_stroop.csv'
tp432
a(S'2015-04-22 11:31:52.831000'
g185
tp433
a(S'2015-04-22 11:31:52.842000'
g187
tp434
a(S'2015-04-22 11:31:52.847000'
S'data saved as csv to c:\\Charlie\\charlie\\data\\csv\\4378_stroop.csv'
tp435
a(S'2015-04-22 11:31:54.060000'
g185
tp436
a(S'2015-04-22 11:31:54.071000'
g187
tp437
a(S'2015-04-22 11:31:54.076000'
S'data saved as csv to c:\\Charlie\\charlie\\data\\csv\\4378_stroop.csv'
tp438
a(S'2015-04-22 11:31:55.008000'
g185
tp439
a(S'2015-04-22 11:31:55.020000'
g187
tp440
a(S'2015-04-22 11:31:55.023000'
S'data saved as csv to c:\\Charlie\\charlie\\data\\csv\\4378_stroop.csv'
tp441
a(S'2015-04-22 11:31:56.522000'
g185
tp442
a(S'2015-04-22 11:31:56.533000'
g187
tp443
a(S'2015-04-22 11:31:56.538000'
S'data saved as csv to c:\\Charlie\\charlie\\data\\csv\\4378_stroop.csv'
tp444
a(S'2015-04-22 11:31:57.952000'
g185
tp445
a(S'2015-04-22 11:31:57.962000'
g187
tp446
a(S'2015-04-22 11:31:57.964000'
S'data saved as csv to c:\\Charlie\\charlie\\data\\csv\\4378_stroop.csv'
tp447
a(S'2015-04-22 11:31:58.956000'
g185
tp448
a(S'2015-04-22 11:31:58.967000'
g187
tp449
a(S'2015-04-22 11:31:58.972000'
S'data saved as csv to c:\\Charlie\\charlie\\data\\csv\\4378_stroop.csv'
tp450
a(S'2015-04-22 11:32:00.054000'
g185
tp451
a(S'2015-04-22 11:32:00.063000'
g187
tp452
a(S'2015-04-22 11:32:00.066000'
S'data saved as csv to c:\\Charlie\\charlie\\data\\csv\\4378_stroop.csv'
tp453
a(S'2015-04-22 11:32:01.016000'
g185
tp454
a(S'2015-04-22 11:32:01.028000'
g187
tp455
a(S'2015-04-22 11:32:01.033000'
S'data saved as csv to c:\\Charlie\\charlie\\data\\csv\\4378_stroop.csv'
tp456
a(S'2015-04-22 11:32:01.975000'
g185
tp457
a(S'2015-04-22 11:32:01.984000'
g187
tp458
a(S'2015-04-22 11:32:01.987000'
S'data saved as csv to c:\\Charlie\\charlie\\data\\csv\\4378_stroop.csv'
tp459
a(S'2015-04-22 11:32:03.008000'
g185
tp460
a(S'2015-04-22 11:32:03.019000'
g187
tp461
a(S'2015-04-22 11:32:03.024000'
S'data saved as csv to c:\\Charlie\\charlie\\data\\csv\\4378_stroop.csv'
tp462
a(S'2015-04-22 11:32:03.957000'
g185
tp463
a(S'2015-04-22 11:32:03.969000'
g187
tp464
a(S'2015-04-22 11:32:03.973000'
S'data saved as csv to c:\\Charlie\\charlie\\data\\csv\\4378_stroop.csv'
tp465
a(S'2015-04-22 11:32:04.876000'
g185
tp466
a(S'2015-04-22 11:32:04.888000'
g187
tp467
a(S'2015-04-22 11:32:04.892000'
S'data saved as csv to c:\\Charlie\\charlie\\data\\csv\\4378_stroop.csv'
tp468
a(S'2015-04-22 11:32:05.752000'
g185
tp469
a(S'2015-04-22 11:32:05.762000'
g187
tp470
a(S'2015-04-22 11:32:05.765000'
S'data saved as csv to c:\\Charlie\\charlie\\data\\csv\\4378_stroop.csv'
tp471
a(S'2015-04-22 11:32:06.846000'
g185
tp472
a(S'2015-04-22 11:32:06.857000'
g187
tp473
a(S'2015-04-22 11:32:06.862000'
S'data saved as csv to c:\\Charlie\\charlie\\data\\csv\\4378_stroop.csv'
tp474
a(S'2015-04-22 11:32:07.796000'
g185
tp475
a(S'2015-04-22 11:32:07.804000'
g187
tp476
a(S'2015-04-22 11:32:07.807000'
S'data saved as csv to c:\\Charlie\\charlie\\data\\csv\\4378_stroop.csv'
tp477
a(S'2015-04-22 11:32:09.067000'
g185
tp478
a(S'2015-04-22 11:32:09.079000'
g187
tp479
a(S'2015-04-22 11:32:09.084000'
S'data saved as csv to c:\\Charlie\\charlie\\data\\csv\\4378_stroop.csv'
tp480
a(S'2015-04-22 11:32:10.186000'
g185
tp481
a(S'2015-04-22 11:32:10.198000'
g187
tp482
a(S'2015-04-22 11:32:10.202000'
S'data saved as csv to c:\\Charlie\\charlie\\data\\csv\\4378_stroop.csv'
tp483
a(S'2015-04-22 11:32:11.382000'
g185
tp484
a(S'2015-04-22 11:32:11.393000'
g187
tp485
a(S'2015-04-22 11:32:11.398000'
S'data saved as csv to c:\\Charlie\\charlie\\data\\csv\\4378_stroop.csv'
tp486
a(S'2015-04-22 11:32:13'
g185
tp487
a(S'2015-04-22 11:32:13.011000'
g187
tp488
a(S'2015-04-22 11:32:13.017000'
S'data saved as csv to c:\\Charlie\\charlie\\data\\csv\\4378_stroop.csv'
tp489
a(S'2015-04-22 11:32:13.980000'
g185
tp490
a(S'2015-04-22 11:32:13.991000'
g187
tp491
a(S'2015-04-22 11:32:13.996000'
S'data saved as csv to c:\\Charlie\\charlie\\data\\csv\\4378_stroop.csv'
tp492
a(S'2015-04-22 11:32:15.049000'
g185
tp493
a(S'2015-04-22 11:32:15.060000'
g187
tp494
a(S'2015-04-22 11:32:15.062000'
S'data saved as csv to c:\\Charlie\\charlie\\data\\csv\\4378_stroop.csv'
tp495
a(S'2015-04-22 11:32:16.663000'
g185
tp496
a(S'2015-04-22 11:32:16.674000'
g187
tp497
a(S'2015-04-22 11:32:16.679000'
S'data saved as csv to c:\\Charlie\\charlie\\data\\csv\\4378_stroop.csv'
tp498
a(S'2015-04-22 11:32:17.651000'
g185
tp499
a(S'2015-04-22 11:32:17.662000'
g187
tp500
a(S'2015-04-22 11:32:17.667000'
S'data saved as csv to c:\\Charlie\\charlie\\data\\csv\\4378_stroop.csv'
tp501
a(S'2015-04-22 11:32:18.779000'
g185
tp502
a(S'2015-04-22 11:32:18.791000'
g187
tp503
a(S'2015-04-22 11:32:18.796000'
S'data saved as csv to c:\\Charlie\\charlie\\data\\csv\\4378_stroop.csv'
tp504
a(S'2015-04-22 11:32:20.709000'
g185
tp505
a(S'2015-04-22 11:32:20.721000'
g187
tp506
a(S'2015-04-22 11:32:20.726000'
S'data saved as csv to c:\\Charlie\\charlie\\data\\csv\\4378_stroop.csv'
tp507
a(S'2015-04-22 11:32:21.768000'
g185
tp508
a(S'2015-04-22 11:32:21.780000'
g187
tp509
a(S'2015-04-22 11:32:21.782000'
S'data saved as csv to c:\\Charlie\\charlie\\data\\csv\\4378_stroop.csv'
tp510
a(S'2015-04-22 11:32:22.863000'
g185
tp511
a(S'2015-04-22 11:32:22.875000'
g187
tp512
a(S'2015-04-22 11:32:22.880000'
S'data saved as csv to c:\\Charlie\\charlie\\data\\csv\\4378_stroop.csv'
tp513
a(S'2015-04-22 11:32:23.824000'
g185
tp514
a(S'2015-04-22 11:32:23.836000'
g187
tp515
a(S'2015-04-22 11:32:23.841000'
S'data saved as csv to c:\\Charlie\\charlie\\data\\csv\\4378_stroop.csv'
tp516
a(S'2015-04-22 11:32:24.084000'
g185
tp517
a(S'2015-04-22 11:32:24.093000'
g187
tp518
a(S'2015-04-22 11:32:24.096000'
S'data saved as csv to c:\\Charlie\\charlie\\data\\csv\\4378_stroop.csv'
tp519
a(S'2015-04-22 11:32:25.227000'
g185
tp520
a(S'2015-04-22 11:32:25.238000'
g187
tp521
a(S'2015-04-22 11:32:25.244000'
S'data saved as csv to c:\\Charlie\\charlie\\data\\csv\\4378_stroop.csv'
tp522
a(S'2015-04-22 11:32:26.157000'
g185
tp523
a(S'2015-04-22 11:32:26.168000'
g187
tp524
a(S'2015-04-22 11:32:26.173000'
S'data saved as csv to c:\\Charlie\\charlie\\data\\csv\\4378_stroop.csv'
tp525
a(S'2015-04-22 11:32:27.097000'
g185
tp526
a(S'2015-04-22 11:32:27.108000'
g187
tp527
a(S'2015-04-22 11:32:27.113000'
S'data saved as csv to c:\\Charlie\\charlie\\data\\csv\\4378_stroop.csv'
tp528
a(S'2015-04-22 11:32:28.298000'
g185
tp529
a(S'2015-04-22 11:32:28.309000'
g187
tp530
a(S'2015-04-22 11:32:28.314000'
S'data saved as csv to c:\\Charlie\\charlie\\data\\csv\\4378_stroop.csv'
tp531
a(S'2015-04-22 11:32:29.458000'
g185
tp532
a(S'2015-04-22 11:32:29.470000'
g187
tp533
a(S'2015-04-22 11:32:29.475000'
S'data saved as csv to c:\\Charlie\\charlie\\data\\csv\\4378_stroop.csv'
tp534
asb.