(icharlie.tools.data
Data
p1
(dp2
S'lang'
p3
S'EN'
p4
sS'control'
p5
(lp6
sS'last_updated'
p7
cdatetime
datetime
p8
(S'\x07\xdf\x04\x16\x0b(\n\x0ekh'
tRp9
sS'last_opened'
p10
g8
(S'\x07\xdf\x04\x16\x0b&8\n\xa6\x90'
tRp11
sS'proj_id'
p12
S'connectivity'
p13
sS'date_done'
p14
NsS'test_done'
p15
I01
sS'data'
p16
(lp17
(S'4378'
p18
S'face_memory_delay'
p19
S'test'
p20
I0
S'c:\\Charlie\\charlie\\stimuli\\visual\\face_memory_delay\\ddis10.bmp'
S'No'
p21
g21
I1320
tp22
a(g18
g19
g20
I1
S'c:\\Charlie\\charlie\\stimuli\\visual\\face_memory_delay\\ddis04.bmp'
g21
S'Yes'
p23
I950
tp24
a(g18
g19
g20
I2
S'c:\\Charlie\\charlie\\stimuli\\visual\\face_memory_delay\\tar07.bmp'
g23
g21
I1160
tp25
a(g18
g19
g20
I3
S'c:\\Charlie\\charlie\\stimuli\\visual\\face_memory_delay\\tar18.bmp'
g23
g23
I1090
tp26
a(g18
g19
g20
I4
S'c:\\Charlie\\charlie\\stimuli\\visual\\face_memory_delay\\ddis14.bmp'
g21
g23
I1260
tp27
a(g18
g19
g20
I5
S'c:\\Charlie\\charlie\\stimuli\\visual\\face_memory_delay\\tar19.bmp'
g23
g23
I1380
tp28
a(g18
g19
g20
I6
S'c:\\Charlie\\charlie\\stimuli\\visual\\face_memory_delay\\ddis13.bmp'
g21
g21
I910
tp29
a(g18
g19
g20
I7
S'c:\\Charlie\\charlie\\stimuli\\visual\\face_memory_delay\\tar15.bmp'
g23
g23
I2431
tp30
a(g18
g19
g20
I8
S'c:\\Charlie\\charlie\\stimuli\\visual\\face_memory_delay\\tar11.bmp'
g23
g21
I1410
tp31
a(g18
g19
g20
I9
S'c:\\Charlie\\charlie\\stimuli\\visual\\face_memory_delay\\ddis05.bmp'
g21
g21
I1010
tp32
a(g18
g19
g20
I10
S'c:\\Charlie\\charlie\\stimuli\\visual\\face_memory_delay\\ddis01.bmp'
g21
g21
I840
tp33
a(g18
g19
g20
I11
S'c:\\Charlie\\charlie\\stimuli\\visual\\face_memory_delay\\ddis16.bmp'
g21
g21
I920
tp34
a(g18
g19
g20
I12
S'c:\\Charlie\\charlie\\stimuli\\visual\\face_memory_delay\\tar02.bmp'
g23
g21
I1160
tp35
a(g18
g19
g20
I13
S'c:\\Charlie\\charlie\\stimuli\\visual\\face_memory_delay\\tar08.bmp'
g23
g23
I920
tp36
a(g18
g19
g20
I14
S'c:\\Charlie\\charlie\\stimuli\\visual\\face_memory_delay\\tar13.bmp'
g23
g23
I900
tp37
a(g18
g19
g20
I15
S'c:\\Charlie\\charlie\\stimuli\\visual\\face_memory_delay\\tar20.bmp'
g23
g23
I870
tp38
a(g18
g19
g20
I16
S'c:\\Charlie\\charlie\\stimuli\\visual\\face_memory_delay\\ddis18.bmp'
g21
g21
I1030
tp39
a(g18
g19
g20
I17
S'c:\\Charlie\\charlie\\stimuli\\visual\\face_memory_delay\\tar06.bmp'
g23
g23
I1030
tp40
a(g18
g19
g20
I18
S'c:\\Charlie\\charlie\\stimuli\\visual\\face_memory_delay\\ddis07.bmp'
g21
g21
I1130
tp41
a(g18
g19
g20
I19
S'c:\\Charlie\\charlie\\stimuli\\visual\\face_memory_delay\\ddis08.bmp'
g21
g21
I1320
tp42
a(g18
g19
g20
I20
S'c:\\Charlie\\charlie\\stimuli\\visual\\face_memory_delay\\tar12.bmp'
g23
g23
I1000
tp43
a(g18
g19
g20
I21
S'c:\\Charlie\\charlie\\stimuli\\visual\\face_memory_delay\\ddis17.bmp'
g21
g21
I1071
tp44
a(g18
g19
g20
I22
S'c:\\Charlie\\charlie\\stimuli\\visual\\face_memory_delay\\tar05.bmp'
g23
g23
I1200
tp45
a(g18
g19
g20
I23
S'c:\\Charlie\\charlie\\stimuli\\visual\\face_memory_delay\\tar10.bmp'
g23
g23
I1080
tp46
a(g18
g19
g20
I24
S'c:\\Charlie\\charlie\\stimuli\\visual\\face_memory_delay\\ddis02.bmp'
g21
g21
I1000
tp47
a(g18
g19
g20
I25
S'c:\\Charlie\\charlie\\stimuli\\visual\\face_memory_delay\\ddis20.bmp'
g21
g21
I1060
tp48
a(g18
g19
g20
I26
S'c:\\Charlie\\charlie\\stimuli\\visual\\face_memory_delay\\tar17.bmp'
g23
g23
I1110
tp49
a(g18
g19
g20
I27
S'c:\\Charlie\\charlie\\stimuli\\visual\\face_memory_delay\\ddis15.bmp'
g21
g23
I1010
tp50
a(g18
g19
g20
I28
S'c:\\Charlie\\charlie\\stimuli\\visual\\face_memory_delay\\tar03.bmp'
g23
g21
I1561
tp51
a(g18
g19
g20
I29
S'c:\\Charlie\\charlie\\stimuli\\visual\\face_memory_delay\\ddis19.bmp'
g21
g23
I1330
tp52
a(g18
g19
g20
I30
S'c:\\Charlie\\charlie\\stimuli\\visual\\face_memory_delay\\ddis12.bmp'
g21
g23
I1080
tp53
a(g18
g19
g20
I31
S'c:\\Charlie\\charlie\\stimuli\\visual\\face_memory_delay\\tar16.bmp'
g23
g23
I1140
tp54
a(g18
g19
g20
I32
S'c:\\Charlie\\charlie\\stimuli\\visual\\face_memory_delay\\tar09.bmp'
g23
g23
I910
tp55
a(g18
g19
g20
I33
S'c:\\Charlie\\charlie\\stimuli\\visual\\face_memory_delay\\ddis09.bmp'
g21
g23
I1060
tp56
a(g18
g19
g20
I34
S'c:\\Charlie\\charlie\\stimuli\\visual\\face_memory_delay\\tar01.bmp'
g23
g21
I860
tp57
a(g18
g19
g20
I35
S'c:\\Charlie\\charlie\\stimuli\\visual\\face_memory_delay\\ddis11.bmp'
g21
g23
I1061
tp58
a(g18
g19
g20
I36
S'c:\\Charlie\\charlie\\stimuli\\visual\\face_memory_delay\\ddis03.bmp'
g21
g21
I1480
tp59
a(g18
g19
g20
I37
S'c:\\Charlie\\charlie\\stimuli\\visual\\face_memory_delay\\tar04.bmp'
g23
g21
I1880
tp60
a(g18
g19
g20
I38
S'c:\\Charlie\\charlie\\stimuli\\visual\\face_memory_delay\\tar14.bmp'
g23
g23
I860
tp61
a(g18
g19
g20
I39
S'c:\\Charlie\\charlie\\stimuli\\visual\\face_memory_delay\\ddis06.bmp'
p62
g21
g23
I1400
tp63
asS'output_format'
p64
(lp65
(S'proband_id'
p66
c__builtin__
str
p67
tp68
a(S'test_name'
p69
g67
tp70
a(S'phase'
p71
g67
tp72
a(S'trialn'
p73
c__builtin__
int
p74
tp75
a(S'f'
g67
tp76
a(S'ans'
p77
g67
tp78
a(S'rsp'
p79
g67
tp80
a(S'rt'
p81
g74
tp82
asg66
g18
sS'filename'
p83
S'4378_face_memory_delay.data'
p84
sS'initialised'
p85
g8
(S'\x07\xdf\x04\x16\x0b&8\n\xa6\x90'
tRp86
sS'last_udated'
p87
g8
(S'\x07\xdf\x04\x16\x0b&8\n\xa6\x90'
tRp88
sg69
S'face_memory_delay'
p89
sS'directory'
p90
S'c:\\Charlie\\charlie\\data\\raw'
p91
sS'user_id'
p92
S'oleach'
p93
sS'test_started'
p94
I01
sS'abs_filename'
p95
S'c:\\Charlie\\charlie\\data\\raw\\4378_face_memory_delay.data'
p96
sS'date_started'
p97
g8
(S"\x07\xdf\x04\x16\x0b'\x14\x08\xc6\x18"
tRp98
sS'log'
p99
(lp100
(S'2015-04-22 11:38:56.698000'
S'instance created'
p101
tp102
a(S'2015-04-22 11:39:20.588000'
S'instance updated'
p103
tp104
a(S'2015-04-22 11:39:20.597000'
S'pandas DataFrame of data created'
p105
tp106
a(S'2015-04-22 11:39:20.615000'
S'data saved as csv to c:\\Charlie\\charlie\\data\\csv\\4378_face_memory_delay.csv'
tp107
a(S'2015-04-22 11:39:21.693000'
g103
tp108
a(S'2015-04-22 11:39:21.702000'
g105
tp109
a(S'2015-04-22 11:39:21.706000'
S'data saved as csv to c:\\Charlie\\charlie\\data\\csv\\4378_face_memory_delay.csv'
tp110
a(S'2015-04-22 11:39:22.993000'
g103
tp111
a(S'2015-04-22 11:39:23.003000'
g105
tp112
a(S'2015-04-22 11:39:23.006000'
S'data saved as csv to c:\\Charlie\\charlie\\data\\csv\\4378_face_memory_delay.csv'
tp113
a(S'2015-04-22 11:39:24.223000'
g103
tp114
a(S'2015-04-22 11:39:24.233000'
g105
tp115
a(S'2015-04-22 11:39:24.236000'
S'data saved as csv to c:\\Charlie\\charlie\\data\\csv\\4378_face_memory_delay.csv'
tp116
a(S'2015-04-22 11:39:25.624000'
g103
tp117
a(S'2015-04-22 11:39:25.633000'
g105
tp118
a(S'2015-04-22 11:39:25.636000'
S'data saved as csv to c:\\Charlie\\charlie\\data\\csv\\4378_face_memory_delay.csv'
tp119
a(S'2015-04-22 11:39:27.144000'
g103
tp120
a(S'2015-04-22 11:39:27.153000'
g105
tp121
a(S'2015-04-22 11:39:27.156000'
S'data saved as csv to c:\\Charlie\\charlie\\data\\csv\\4378_face_memory_delay.csv'
tp122
a(S'2015-04-22 11:39:28.192000'
g103
tp123
a(S'2015-04-22 11:39:28.201000'
g105
tp124
a(S'2015-04-22 11:39:28.205000'
S'data saved as csv to c:\\Charlie\\charlie\\data\\csv\\4378_face_memory_delay.csv'
tp125
a(S'2015-04-22 11:39:30.762000'
g103
tp126
a(S'2015-04-22 11:39:30.771000'
g105
tp127
a(S'2015-04-22 11:39:30.774000'
S'data saved as csv to c:\\Charlie\\charlie\\data\\csv\\4378_face_memory_delay.csv'
tp128
a(S'2015-04-22 11:39:32.312000'
g103
tp129
a(S'2015-04-22 11:39:32.321000'
g105
tp130
a(S'2015-04-22 11:39:32.325000'
S'data saved as csv to c:\\Charlie\\charlie\\data\\csv\\4378_face_memory_delay.csv'
tp131
a(S'2015-04-22 11:39:33.463000'
g103
tp132
a(S'2015-04-22 11:39:33.471000'
g105
tp133
a(S'2015-04-22 11:39:33.475000'
S'data saved as csv to c:\\Charlie\\charlie\\data\\csv\\4378_face_memory_delay.csv'
tp134
a(S'2015-04-22 11:39:34.443000'
g103
tp135
a(S'2015-04-22 11:39:34.451000'
g105
tp136
a(S'2015-04-22 11:39:34.455000'
S'data saved as csv to c:\\Charlie\\charlie\\data\\csv\\4378_face_memory_delay.csv'
tp137
a(S'2015-04-22 11:39:35.504000'
g103
tp138
a(S'2015-04-22 11:39:35.513000'
g105
tp139
a(S'2015-04-22 11:39:35.517000'
S'data saved as csv to c:\\Charlie\\charlie\\data\\csv\\4378_face_memory_delay.csv'
tp140
a(S'2015-04-22 11:39:36.805000'
g103
tp141
a(S'2015-04-22 11:39:36.814000'
g105
tp142
a(S'2015-04-22 11:39:36.816000'
S'data saved as csv to c:\\Charlie\\charlie\\data\\csv\\4378_face_memory_delay.csv'
tp143
a(S'2015-04-22 11:39:37.863000'
g103
tp144
a(S'2015-04-22 11:39:37.872000'
g105
tp145
a(S'2015-04-22 11:39:37.875000'
S'data saved as csv to c:\\Charlie\\charlie\\data\\csv\\4378_face_memory_delay.csv'
tp146
a(S'2015-04-22 11:39:38.904000'
g103
tp147
a(S'2015-04-22 11:39:38.913000'
g105
tp148
a(S'2015-04-22 11:39:38.916000'
S'data saved as csv to c:\\Charlie\\charlie\\data\\csv\\4378_face_memory_delay.csv'
tp149
a(S'2015-04-22 11:39:39.912000'
g103
tp150
a(S'2015-04-22 11:39:39.921000'
g105
tp151
a(S'2015-04-22 11:39:39.925000'
S'data saved as csv to c:\\Charlie\\charlie\\data\\csv\\4378_face_memory_delay.csv'
tp152
a(S'2015-04-22 11:39:41.083000'
g103
tp153
a(S'2015-04-22 11:39:41.092000'
g105
tp154
a(S'2015-04-22 11:39:41.096000'
S'data saved as csv to c:\\Charlie\\charlie\\data\\csv\\4378_face_memory_delay.csv'
tp155
a(S'2015-04-22 11:39:42.238000'
g103
tp156
a(S'2015-04-22 11:39:42.240000'
g105
tp157
a(S'2015-04-22 11:39:42.241000'
S'data saved as csv to c:\\Charlie\\charlie\\data\\csv\\4378_face_memory_delay.csv'
tp158
a(S'2015-04-22 11:39:43.497000'
g103
tp159
a(S'2015-04-22 11:39:43.506000'
g105
tp160
a(S'2015-04-22 11:39:43.510000'
S'data saved as csv to c:\\Charlie\\charlie\\data\\csv\\4378_face_memory_delay.csv'
tp161
a(S'2015-04-22 11:39:44.958000'
g103
tp162
a(S'2015-04-22 11:39:44.967000'
g105
tp163
a(S'2015-04-22 11:39:44.971000'
S'data saved as csv to c:\\Charlie\\charlie\\data\\csv\\4378_face_memory_delay.csv'
tp164
a(S'2015-04-22 11:39:46.099000'
g103
tp165
a(S'2015-04-22 11:39:46.108000'
g105
tp166
a(S'2015-04-22 11:39:46.112000'
S'data saved as csv to c:\\Charlie\\charlie\\data\\csv\\4378_face_memory_delay.csv'
tp167
a(S'2015-04-22 11:39:47.309000'
g103
tp168
a(S'2015-04-22 11:39:47.318000'
g105
tp169
a(S'2015-04-22 11:39:47.322000'
S'data saved as csv to c:\\Charlie\\charlie\\data\\csv\\4378_face_memory_delay.csv'
tp170
a(S'2015-04-22 11:39:48.650000'
g103
tp171
a(S'2015-04-22 11:39:48.659000'
g105
tp172
a(S'2015-04-22 11:39:48.663000'
S'data saved as csv to c:\\Charlie\\charlie\\data\\csv\\4378_face_memory_delay.csv'
tp173
a(S'2015-04-22 11:39:49.869000'
g103
tp174
a(S'2015-04-22 11:39:49.878000'
g105
tp175
a(S'2015-04-22 11:39:49.882000'
S'data saved as csv to c:\\Charlie\\charlie\\data\\csv\\4378_face_memory_delay.csv'
tp176
a(S'2015-04-22 11:39:51.010000'
g103
tp177
a(S'2015-04-22 11:39:51.019000'
g105
tp178
a(S'2015-04-22 11:39:51.023000'
S'data saved as csv to c:\\Charlie\\charlie\\data\\csv\\4378_face_memory_delay.csv'
tp179
a(S'2015-04-22 11:39:52.212000'
g103
tp180
a(S'2015-04-22 11:39:52.221000'
g105
tp181
a(S'2015-04-22 11:39:52.225000'
S'data saved as csv to c:\\Charlie\\charlie\\data\\csv\\4378_face_memory_delay.csv'
tp182
a(S'2015-04-22 11:39:53.464000'
g103
tp183
a(S'2015-04-22 11:39:53.473000'
g105
tp184
a(S'2015-04-22 11:39:53.477000'
S'data saved as csv to c:\\Charlie\\charlie\\data\\csv\\4378_face_memory_delay.csv'
tp185
a(S'2015-04-22 11:39:54.615000'
g103
tp186
a(S'2015-04-22 11:39:54.624000'
g105
tp187
a(S'2015-04-22 11:39:54.628000'
S'data saved as csv to c:\\Charlie\\charlie\\data\\csv\\4378_face_memory_delay.csv'
tp188
a(S'2015-04-22 11:39:56.317000'
g103
tp189
a(S'2015-04-22 11:39:56.326000'
g105
tp190
a(S'2015-04-22 11:39:56.330000'
S'data saved as csv to c:\\Charlie\\charlie\\data\\csv\\4378_face_memory_delay.csv'
tp191
a(S'2015-04-22 11:39:57.788000'
g103
tp192
a(S'2015-04-22 11:39:57.798000'
g105
tp193
a(S'2015-04-22 11:39:57.802000'
S'data saved as csv to c:\\Charlie\\charlie\\data\\csv\\4378_face_memory_delay.csv'
tp194
a(S'2015-04-22 11:39:59.010000'
g103
tp195
a(S'2015-04-22 11:39:59.020000'
g105
tp196
a(S'2015-04-22 11:39:59.024000'
S'data saved as csv to c:\\Charlie\\charlie\\data\\csv\\4378_face_memory_delay.csv'
tp197
a(S'2015-04-22 11:40:00.292000'
g103
tp198
a(S'2015-04-22 11:40:00.302000'
g105
tp199
a(S'2015-04-22 11:40:00.305000'
S'data saved as csv to c:\\Charlie\\charlie\\data\\csv\\4378_face_memory_delay.csv'
tp200
a(S'2015-04-22 11:40:01.341000'
g103
tp201
a(S'2015-04-22 11:40:01.350000'
g105
tp202
a(S'2015-04-22 11:40:01.354000'
S'data saved as csv to c:\\Charlie\\charlie\\data\\csv\\4378_face_memory_delay.csv'
tp203
a(S'2015-04-22 11:40:02.540000'
g103
tp204
a(S'2015-04-22 11:40:02.550000'
g105
tp205
a(S'2015-04-22 11:40:02.554000'
S'data saved as csv to c:\\Charlie\\charlie\\data\\csv\\4378_face_memory_delay.csv'
tp206
a(S'2015-04-22 11:40:03.540000'
g103
tp207
a(S'2015-04-22 11:40:03.549000'
g105
tp208
a(S'2015-04-22 11:40:03.553000'
S'data saved as csv to c:\\Charlie\\charlie\\data\\csv\\4378_face_memory_delay.csv'
tp209
a(S'2015-04-22 11:40:04.742000'
g103
tp210
a(S'2015-04-22 11:40:04.752000'
g105
tp211
a(S'2015-04-22 11:40:04.756000'
S'data saved as csv to c:\\Charlie\\charlie\\data\\csv\\4378_face_memory_delay.csv'
tp212
a(S'2015-04-22 11:40:06.364000'
g103
tp213
a(S'2015-04-22 11:40:06.374000'
g105
tp214
a(S'2015-04-22 11:40:06.378000'
S'data saved as csv to c:\\Charlie\\charlie\\data\\csv\\4378_face_memory_delay.csv'
tp215
a(S'2015-04-22 11:40:08.387000'
g103
tp216
a(S'2015-04-22 11:40:08.397000'
g105
tp217
a(S'2015-04-22 11:40:08.401000'
S'data saved as csv to c:\\Charlie\\charlie\\data\\csv\\4378_face_memory_delay.csv'
tp218
a(S'2015-04-22 11:40:09.388000'
g103
tp219
a(S'2015-04-22 11:40:09.398000'
g105
tp220
a(S'2015-04-22 11:40:09.402000'
S'data saved as csv to c:\\Charlie\\charlie\\data\\csv\\4378_face_memory_delay.csv'
tp221
a(S'2015-04-22 11:40:10.931000'
g103
tp222
a(S'2015-04-22 11:40:10.940000'
g105
tp223
a(S'2015-04-22 11:40:10.944000'
S'data saved as csv to c:\\Charlie\\charlie\\data\\csv\\4378_face_memory_delay.csv'
tp224
asb.