(icharlie.tools.data
Data
p1
(dp2
S'lang'
p3
S'EN'
p4
sS'control'
p5
(lp6
sS'last_updated'
p7
cdatetime
datetime
p8
(S'\x07\xdf\x05\x01\x0c\x1c#\n-x'
tRp9
sS'last_opened'
p10
g8
(S'\x07\xdf\x05\x01\x0c\x15-\r\x9c`'
tRp11
sS'proj_id'
p12
S'connectivity'
p13
sS'date_done'
p14
NsS'test_done'
p15
I01
sS'data'
p16
(lp17
(S'4380'
p18
S'scap'
p19
S'practice'
p20
I3
I0
S'Yes'
p21
S'C:\\Users\\Jbarrett\\Charlie\\charlie\\stimuli\\visual\\scap\\practice-1.BMP'
S'C:\\Users\\Jbarrett\\Charlie\\charlie\\stimuli\\visual\\scap\\practice-2.BMP'
S'No'
p22
I9271
tp23
a(g18
g19
g20
I4
I1
g22
S'C:\\Users\\Jbarrett\\Charlie\\charlie\\stimuli\\visual\\scap\\practice-3.BMP'
S'C:\\Users\\Jbarrett\\Charlie\\charlie\\stimuli\\visual\\scap\\practice-4.BMP'
g21
I2810
tp24
a(g18
g19
g20
I5
I2
g21
S'C:\\Users\\Jbarrett\\Charlie\\charlie\\stimuli\\visual\\scap\\practice-5.BMP'
S'C:\\Users\\Jbarrett\\Charlie\\charlie\\stimuli\\visual\\scap\\practice-6.BMP'
g21
I2320
tp25
a(g18
g19
S'test'
p26
I3
I0
g21
S'C:\\Users\\Jbarrett\\Charlie\\charlie\\stimuli\\visual\\scap\\load3-1.BMP'
S'C:\\Users\\Jbarrett\\Charlie\\charlie\\stimuli\\visual\\scap\\load3-2.BMP'
g21
I1420
tp27
a(g18
g19
g26
I3
I1
g22
S'C:\\Users\\Jbarrett\\Charlie\\charlie\\stimuli\\visual\\scap\\load3-3.BMP'
S'C:\\Users\\Jbarrett\\Charlie\\charlie\\stimuli\\visual\\scap\\load3-4.BMP'
g21
I1370
tp28
a(g18
g19
g26
I3
I2
g21
S'C:\\Users\\Jbarrett\\Charlie\\charlie\\stimuli\\visual\\scap\\load3-5.BMP'
S'C:\\Users\\Jbarrett\\Charlie\\charlie\\stimuli\\visual\\scap\\load3-6.BMP'
g22
I1670
tp29
a(g18
g19
g26
I3
I3
g21
S'C:\\Users\\Jbarrett\\Charlie\\charlie\\stimuli\\visual\\scap\\load3-7.BMP'
S'C:\\Users\\Jbarrett\\Charlie\\charlie\\stimuli\\visual\\scap\\load3-8.BMP'
g21
I1310
tp30
a(g18
g19
g26
I3
I4
g22
S'C:\\Users\\Jbarrett\\Charlie\\charlie\\stimuli\\visual\\scap\\load3-9.BMP'
S'C:\\Users\\Jbarrett\\Charlie\\charlie\\stimuli\\visual\\scap\\load3-10.BMP'
g22
I1210
tp31
a(g18
g19
g26
I3
I5
g21
S'C:\\Users\\Jbarrett\\Charlie\\charlie\\stimuli\\visual\\scap\\load3-11.BMP'
S'C:\\Users\\Jbarrett\\Charlie\\charlie\\stimuli\\visual\\scap\\load3-12.BMP'
g21
I1110
tp32
a(g18
g19
g26
I3
I6
g22
S'C:\\Users\\Jbarrett\\Charlie\\charlie\\stimuli\\visual\\scap\\load3-13.BMP'
S'C:\\Users\\Jbarrett\\Charlie\\charlie\\stimuli\\visual\\scap\\load3-14.BMP'
g22
I1210
tp33
a(g18
g19
g26
I3
I7
g22
S'C:\\Users\\Jbarrett\\Charlie\\charlie\\stimuli\\visual\\scap\\load3-15.BMP'
S'C:\\Users\\Jbarrett\\Charlie\\charlie\\stimuli\\visual\\scap\\load3-16.BMP'
g22
I1300
tp34
a(g18
g19
g26
I3
I8
g21
S'C:\\Users\\Jbarrett\\Charlie\\charlie\\stimuli\\visual\\scap\\load3-17.BMP'
S'C:\\Users\\Jbarrett\\Charlie\\charlie\\stimuli\\visual\\scap\\load3-18.BMP'
g22
I1250
tp35
a(g18
g19
g26
I3
I9
g22
S'C:\\Users\\Jbarrett\\Charlie\\charlie\\stimuli\\visual\\scap\\load3-19.BMP'
S'C:\\Users\\Jbarrett\\Charlie\\charlie\\stimuli\\visual\\scap\\load3-20.BMP'
g22
I930
tp36
a(g18
g19
g26
I3
I10
g21
S'C:\\Users\\Jbarrett\\Charlie\\charlie\\stimuli\\visual\\scap\\load3-21.BMP'
S'C:\\Users\\Jbarrett\\Charlie\\charlie\\stimuli\\visual\\scap\\load3-22.BMP'
g22
I1920
tp37
a(g18
g19
g26
I3
I11
g21
S'C:\\Users\\Jbarrett\\Charlie\\charlie\\stimuli\\visual\\scap\\load3-23.BMP'
S'C:\\Users\\Jbarrett\\Charlie\\charlie\\stimuli\\visual\\scap\\load3-24.BMP'
g21
I1142
tp38
a(g18
g19
g26
I3
I12
g22
S'C:\\Users\\Jbarrett\\Charlie\\charlie\\stimuli\\visual\\scap\\load3-25.BMP'
S'C:\\Users\\Jbarrett\\Charlie\\charlie\\stimuli\\visual\\scap\\load3-26.BMP'
g22
I1120
tp39
a(g18
g19
g26
I3
I13
g22
S'C:\\Users\\Jbarrett\\Charlie\\charlie\\stimuli\\visual\\scap\\load3-27.BMP'
S'C:\\Users\\Jbarrett\\Charlie\\charlie\\stimuli\\visual\\scap\\load3-28.BMP'
g22
I2070
tp40
a(g18
g19
g26
I4
I0
g22
S'C:\\Users\\Jbarrett\\Charlie\\charlie\\stimuli\\visual\\scap\\load4-1.BMP'
S'C:\\Users\\Jbarrett\\Charlie\\charlie\\stimuli\\visual\\scap\\load4-2.BMP'
g22
I1270
tp41
a(g18
g19
g26
I4
I1
g21
S'C:\\Users\\Jbarrett\\Charlie\\charlie\\stimuli\\visual\\scap\\load4-3.BMP'
S'C:\\Users\\Jbarrett\\Charlie\\charlie\\stimuli\\visual\\scap\\load4-4.BMP'
g21
I2040
tp42
a(g18
g19
g26
I4
I2
g21
S'C:\\Users\\Jbarrett\\Charlie\\charlie\\stimuli\\visual\\scap\\load4-5.BMP'
S'C:\\Users\\Jbarrett\\Charlie\\charlie\\stimuli\\visual\\scap\\load4-6.BMP'
g22
I2850
tp43
a(g18
g19
g26
I4
I3
g22
S'C:\\Users\\Jbarrett\\Charlie\\charlie\\stimuli\\visual\\scap\\load4-7.BMP'
S'C:\\Users\\Jbarrett\\Charlie\\charlie\\stimuli\\visual\\scap\\load4-8.BMP'
g22
I1020
tp44
a(g18
g19
g26
I4
I4
g22
S'C:\\Users\\Jbarrett\\Charlie\\charlie\\stimuli\\visual\\scap\\load4-9.BMP'
S'C:\\Users\\Jbarrett\\Charlie\\charlie\\stimuli\\visual\\scap\\load4-10.BMP'
g21
I2300
tp45
a(g18
g19
g26
I4
I5
g21
S'C:\\Users\\Jbarrett\\Charlie\\charlie\\stimuli\\visual\\scap\\load4-11.BMP'
S'C:\\Users\\Jbarrett\\Charlie\\charlie\\stimuli\\visual\\scap\\load4-12.BMP'
g21
I1330
tp46
a(g18
g19
g26
I4
I6
g22
S'C:\\Users\\Jbarrett\\Charlie\\charlie\\stimuli\\visual\\scap\\load4-13.BMP'
S'C:\\Users\\Jbarrett\\Charlie\\charlie\\stimuli\\visual\\scap\\load4-14.BMP'
g22
I1670
tp47
a(g18
g19
g26
I4
I7
g21
S'C:\\Users\\Jbarrett\\Charlie\\charlie\\stimuli\\visual\\scap\\load4-15.BMP'
S'C:\\Users\\Jbarrett\\Charlie\\charlie\\stimuli\\visual\\scap\\load4-16.BMP'
g22
I2020
tp48
a(g18
g19
g26
I4
I8
g22
S'C:\\Users\\Jbarrett\\Charlie\\charlie\\stimuli\\visual\\scap\\load4-17.BMP'
S'C:\\Users\\Jbarrett\\Charlie\\charlie\\stimuli\\visual\\scap\\load4-18.BMP'
g22
I1671
tp49
a(g18
g19
g26
I4
I9
g21
S'C:\\Users\\Jbarrett\\Charlie\\charlie\\stimuli\\visual\\scap\\load4-19.BMP'
S'C:\\Users\\Jbarrett\\Charlie\\charlie\\stimuli\\visual\\scap\\load4-20.BMP'
g21
I2170
tp50
a(g18
g19
g26
I4
I10
g21
S'C:\\Users\\Jbarrett\\Charlie\\charlie\\stimuli\\visual\\scap\\load4-21.BMP'
S'C:\\Users\\Jbarrett\\Charlie\\charlie\\stimuli\\visual\\scap\\load4-22.BMP'
g21
I1360
tp51
a(g18
g19
g26
I4
I11
g22
S'C:\\Users\\Jbarrett\\Charlie\\charlie\\stimuli\\visual\\scap\\load4-23.BMP'
S'C:\\Users\\Jbarrett\\Charlie\\charlie\\stimuli\\visual\\scap\\load4-24.BMP'
g21
I1160
tp52
a(g18
g19
g26
I4
I12
g21
S'C:\\Users\\Jbarrett\\Charlie\\charlie\\stimuli\\visual\\scap\\load4-25.BMP'
S'C:\\Users\\Jbarrett\\Charlie\\charlie\\stimuli\\visual\\scap\\load4-26.BMP'
g21
I1310
tp53
a(g18
g19
g26
I4
I13
g22
S'C:\\Users\\Jbarrett\\Charlie\\charlie\\stimuli\\visual\\scap\\load4-27.BMP'
S'C:\\Users\\Jbarrett\\Charlie\\charlie\\stimuli\\visual\\scap\\load4-28.BMP'
g21
I1250
tp54
a(g18
g19
g26
I5
I0
g21
S'C:\\Users\\Jbarrett\\Charlie\\charlie\\stimuli\\visual\\scap\\load5-1.BMP'
S'C:\\Users\\Jbarrett\\Charlie\\charlie\\stimuli\\visual\\scap\\load5-2.BMP'
g21
I1510
tp55
a(g18
g19
g26
I5
I1
g21
S'C:\\Users\\Jbarrett\\Charlie\\charlie\\stimuli\\visual\\scap\\load5-3.BMP'
S'C:\\Users\\Jbarrett\\Charlie\\charlie\\stimuli\\visual\\scap\\load5-4.BMP'
g22
I2031
tp56
a(g18
g19
g26
I5
I2
g21
S'C:\\Users\\Jbarrett\\Charlie\\charlie\\stimuli\\visual\\scap\\load5-5.BMP'
S'C:\\Users\\Jbarrett\\Charlie\\charlie\\stimuli\\visual\\scap\\load5-6.BMP'
g22
I1540
tp57
a(g18
g19
g26
I5
I3
g21
S'C:\\Users\\Jbarrett\\Charlie\\charlie\\stimuli\\visual\\scap\\load5-7.BMP'
S'C:\\Users\\Jbarrett\\Charlie\\charlie\\stimuli\\visual\\scap\\load5-8.BMP'
g21
I1210
tp58
a(g18
g19
g26
I5
I4
g21
S'C:\\Users\\Jbarrett\\Charlie\\charlie\\stimuli\\visual\\scap\\load5-9.BMP'
S'C:\\Users\\Jbarrett\\Charlie\\charlie\\stimuli\\visual\\scap\\load5-10.BMP'
g21
I1260
tp59
a(g18
g19
g26
I5
I5
g21
S'C:\\Users\\Jbarrett\\Charlie\\charlie\\stimuli\\visual\\scap\\load5-11.BMP'
S'C:\\Users\\Jbarrett\\Charlie\\charlie\\stimuli\\visual\\scap\\load5-12.BMP'
g21
I1270
tp60
a(g18
g19
g26
I5
I6
g22
S'C:\\Users\\Jbarrett\\Charlie\\charlie\\stimuli\\visual\\scap\\load5-13.BMP'
S'C:\\Users\\Jbarrett\\Charlie\\charlie\\stimuli\\visual\\scap\\load5-14.BMP'
g22
I1370
tp61
a(g18
g19
g26
I5
I7
g22
S'C:\\Users\\Jbarrett\\Charlie\\charlie\\stimuli\\visual\\scap\\load5-15.BMP'
S'C:\\Users\\Jbarrett\\Charlie\\charlie\\stimuli\\visual\\scap\\load5-16.BMP'
g21
I1850
tp62
a(g18
g19
g26
I5
I8
g22
S'C:\\Users\\Jbarrett\\Charlie\\charlie\\stimuli\\visual\\scap\\load5-17.BMP'
S'C:\\Users\\Jbarrett\\Charlie\\charlie\\stimuli\\visual\\scap\\load5-18.BMP'
g22
I1330
tp63
a(g18
g19
g26
I5
I9
g22
S'C:\\Users\\Jbarrett\\Charlie\\charlie\\stimuli\\visual\\scap\\load5-19.BMP'
S'C:\\Users\\Jbarrett\\Charlie\\charlie\\stimuli\\visual\\scap\\load5-20.BMP'
g22
I1270
tp64
a(g18
g19
g26
I5
I10
g22
S'C:\\Users\\Jbarrett\\Charlie\\charlie\\stimuli\\visual\\scap\\load5-21.BMP'
S'C:\\Users\\Jbarrett\\Charlie\\charlie\\stimuli\\visual\\scap\\load5-22.BMP'
g21
I2061
tp65
a(g18
g19
g26
I5
I11
g21
S'C:\\Users\\Jbarrett\\Charlie\\charlie\\stimuli\\visual\\scap\\load5-23.BMP'
S'C:\\Users\\Jbarrett\\Charlie\\charlie\\stimuli\\visual\\scap\\load5-24.BMP'
g21
I2820
tp66
a(g18
g19
g26
I5
I12
g22
S'C:\\Users\\Jbarrett\\Charlie\\charlie\\stimuli\\visual\\scap\\load5-25.BMP'
S'C:\\Users\\Jbarrett\\Charlie\\charlie\\stimuli\\visual\\scap\\load5-26.BMP'
g21
I1751
tp67
a(g18
g19
g26
I5
I13
g22
S'C:\\Users\\Jbarrett\\Charlie\\charlie\\stimuli\\visual\\scap\\load5-27.BMP'
p68
S'C:\\Users\\Jbarrett\\Charlie\\charlie\\stimuli\\visual\\scap\\load5-28.BMP'
p69
g21
I2640
tp70
asS'output_format'
p71
(lp72
(S'proband_id'
p73
c__builtin__
str
p74
tp75
a(S'test_name'
p76
g74
tp77
a(S'phase'
p78
g74
tp79
a(S'load'
p80
c__builtin__
int
p81
tp82
a(S'trialn'
p83
g81
tp84
a(S'ans'
p85
g74
tp86
a(S'array_f'
p87
g74
tp88
a(S'probe_f'
p89
g74
tp90
a(S'rsp'
p91
g74
tp92
a(S'rt'
p93
g81
tp94
asg73
g18
sS'filename'
p95
S'4380_scap.data'
p96
sS'initialised'
p97
g8
(S'\x07\xdf\x05\x01\x0c\x15-\r\x9c`'
tRp98
sS'last_udated'
p99
g8
(S'\x07\xdf\x05\x01\x0c\x15-\r\x9c`'
tRp100
sg76
S'scap'
p101
sS'directory'
p102
S'C:\\Users\\Jbarrett\\Charlie\\charlie\\data\\raw'
p103
sS'user_id'
p104
S'barrett'
p105
sS'test_started'
p106
I01
sS'abs_filename'
p107
S'C:\\Users\\Jbarrett\\Charlie\\charlie\\data\\raw\\4380_scap.data'
p108
sS'date_started'
p109
g8
(S'\x07\xdf\x05\x01\x0c\x16\x17\n\x96\xf0'
tRp110
sS'log'
p111
(lp112
(S'2015-05-01 12:21:45.892000'
S'instance created'
p113
tp114
a(S'2015-05-01 12:22:23.703000'
S'instance updated'
p115
tp116
a(S'2015-05-01 12:22:23.713000'
S'pandas DataFrame of data created'
p117
tp118
a(S'2015-05-01 12:22:23.718000'
S'data saved as csv to C:\\Users\\Jbarrett\\Charlie\\charlie\\data\\csv\\4380_scap.csv'
tp119
a(S'2015-05-01 12:22:35.399000'
g115
tp120
a(S'2015-05-01 12:22:35.410000'
g117
tp121
a(S'2015-05-01 12:22:35.413000'
S'data saved as csv to C:\\Users\\Jbarrett\\Charlie\\charlie\\data\\csv\\4380_scap.csv'
tp122
a(S'2015-05-01 12:22:44.785000'
g115
tp123
a(S'2015-05-01 12:22:44.795000'
g117
tp124
a(S'2015-05-01 12:22:44.799000'
S'data saved as csv to C:\\Users\\Jbarrett\\Charlie\\charlie\\data\\csv\\4380_scap.csv'
tp125
a(S'2015-05-01 12:23:18.424000'
g115
tp126
a(S'2015-05-01 12:23:18.435000'
g117
tp127
a(S'2015-05-01 12:23:18.439000'
S'data saved as csv to C:\\Users\\Jbarrett\\Charlie\\charlie\\data\\csv\\4380_scap.csv'
tp128
a(S'2015-05-01 12:23:25.946000'
g115
tp129
a(S'2015-05-01 12:23:25.957000'
g117
tp130
a(S'2015-05-01 12:23:25.961000'
S'data saved as csv to C:\\Users\\Jbarrett\\Charlie\\charlie\\data\\csv\\4380_scap.csv'
tp131
a(S'2015-05-01 12:23:33.770000'
g115
tp132
a(S'2015-05-01 12:23:33.781000'
g117
tp133
a(S'2015-05-01 12:23:33.784000'
S'data saved as csv to C:\\Users\\Jbarrett\\Charlie\\charlie\\data\\csv\\4380_scap.csv'
tp134
a(S'2015-05-01 12:23:41.234000'
g115
tp135
a(S'2015-05-01 12:23:41.245000'
g117
tp136
a(S'2015-05-01 12:23:41.249000'
S'data saved as csv to C:\\Users\\Jbarrett\\Charlie\\charlie\\data\\csv\\4380_scap.csv'
tp137
a(S'2015-05-01 12:23:48.598000'
g115
tp138
a(S'2015-05-01 12:23:48.608000'
g117
tp139
a(S'2015-05-01 12:23:48.612000'
S'data saved as csv to C:\\Users\\Jbarrett\\Charlie\\charlie\\data\\csv\\4380_scap.csv'
tp140
a(S'2015-05-01 12:23:55.861000'
g115
tp141
a(S'2015-05-01 12:23:55.872000'
g117
tp142
a(S'2015-05-01 12:23:55.876000'
S'data saved as csv to C:\\Users\\Jbarrett\\Charlie\\charlie\\data\\csv\\4380_scap.csv'
tp143
a(S'2015-05-01 12:24:03.225000'
g115
tp144
a(S'2015-05-01 12:24:03.236000'
g117
tp145
a(S'2015-05-01 12:24:03.240000'
S'data saved as csv to C:\\Users\\Jbarrett\\Charlie\\charlie\\data\\csv\\4380_scap.csv'
tp146
a(S'2015-05-01 12:24:10.678000'
g115
tp147
a(S'2015-05-01 12:24:10.683000'
g117
tp148
a(S'2015-05-01 12:24:10.685000'
S'data saved as csv to C:\\Users\\Jbarrett\\Charlie\\charlie\\data\\csv\\4380_scap.csv'
tp149
a(S'2015-05-01 12:24:18.072000'
g115
tp150
a(S'2015-05-01 12:24:18.083000'
g117
tp151
a(S'2015-05-01 12:24:18.087000'
S'data saved as csv to C:\\Users\\Jbarrett\\Charlie\\charlie\\data\\csv\\4380_scap.csv'
tp152
a(S'2015-05-01 12:24:25.153000'
g115
tp153
a(S'2015-05-01 12:24:25.163000'
g117
tp154
a(S'2015-05-01 12:24:25.167000'
S'data saved as csv to C:\\Users\\Jbarrett\\Charlie\\charlie\\data\\csv\\4380_scap.csv'
tp155
a(S'2015-05-01 12:24:33.224000'
g115
tp156
a(S'2015-05-01 12:24:33.235000'
g117
tp157
a(S'2015-05-01 12:24:33.238000'
S'data saved as csv to C:\\Users\\Jbarrett\\Charlie\\charlie\\data\\csv\\4380_scap.csv'
tp158
a(S'2015-05-01 12:24:40.518000'
g115
tp159
a(S'2015-05-01 12:24:40.528000'
g117
tp160
a(S'2015-05-01 12:24:40.530000'
S'data saved as csv to C:\\Users\\Jbarrett\\Charlie\\charlie\\data\\csv\\4380_scap.csv'
tp161
a(S'2015-05-01 12:24:47.789000'
g115
tp162
a(S'2015-05-01 12:24:47.799000'
g117
tp163
a(S'2015-05-01 12:24:47.803000'
S'data saved as csv to C:\\Users\\Jbarrett\\Charlie\\charlie\\data\\csv\\4380_scap.csv'
tp164
a(S'2015-05-01 12:24:56.012000'
g115
tp165
a(S'2015-05-01 12:24:56.024000'
g117
tp166
a(S'2015-05-01 12:24:56.027000'
S'data saved as csv to C:\\Users\\Jbarrett\\Charlie\\charlie\\data\\csv\\4380_scap.csv'
tp167
a(S'2015-05-01 12:25:03.437000'
g115
tp168
a(S'2015-05-01 12:25:03.448000'
g117
tp169
a(S'2015-05-01 12:25:03.451000'
S'data saved as csv to C:\\Users\\Jbarrett\\Charlie\\charlie\\data\\csv\\4380_scap.csv'
tp170
a(S'2015-05-01 12:25:11.629000'
g115
tp171
a(S'2015-05-01 12:25:11.640000'
g117
tp172
a(S'2015-05-01 12:25:11.644000'
S'data saved as csv to C:\\Users\\Jbarrett\\Charlie\\charlie\\data\\csv\\4380_scap.csv'
tp173
a(S'2015-05-01 12:25:20.634000'
g115
tp174
a(S'2015-05-01 12:25:20.645000'
g117
tp175
a(S'2015-05-01 12:25:20.649000'
S'data saved as csv to C:\\Users\\Jbarrett\\Charlie\\charlie\\data\\csv\\4380_scap.csv'
tp176
a(S'2015-05-01 12:25:27.808000'
g115
tp177
a(S'2015-05-01 12:25:27.819000'
g117
tp178
a(S'2015-05-01 12:25:27.823000'
S'data saved as csv to C:\\Users\\Jbarrett\\Charlie\\charlie\\data\\csv\\4380_scap.csv'
tp179
a(S'2015-05-01 12:25:36.262000'
g115
tp180
a(S'2015-05-01 12:25:36.273000'
g117
tp181
a(S'2015-05-01 12:25:36.277000'
S'data saved as csv to C:\\Users\\Jbarrett\\Charlie\\charlie\\data\\csv\\4380_scap.csv'
tp182
a(S'2015-05-01 12:25:43.748000'
g115
tp183
a(S'2015-05-01 12:25:43.759000'
g117
tp184
a(S'2015-05-01 12:25:43.763000'
S'data saved as csv to C:\\Users\\Jbarrett\\Charlie\\charlie\\data\\csv\\4380_scap.csv'
tp185
a(S'2015-05-01 12:25:51.572000'
g115
tp186
a(S'2015-05-01 12:25:51.583000'
g117
tp187
a(S'2015-05-01 12:25:51.587000'
S'data saved as csv to C:\\Users\\Jbarrett\\Charlie\\charlie\\data\\csv\\4380_scap.csv'
tp188
a(S'2015-05-01 12:25:59.748000'
g115
tp189
a(S'2015-05-01 12:25:59.759000'
g117
tp190
a(S'2015-05-01 12:25:59.763000'
S'data saved as csv to C:\\Users\\Jbarrett\\Charlie\\charlie\\data\\csv\\4380_scap.csv'
tp191
a(S'2015-05-01 12:26:07.557000'
g115
tp192
a(S'2015-05-01 12:26:07.561000'
g117
tp193
a(S'2015-05-01 12:26:07.562000'
S'data saved as csv to C:\\Users\\Jbarrett\\Charlie\\charlie\\data\\csv\\4380_scap.csv'
tp194
a(S'2015-05-01 12:26:15.869000'
g115
tp195
a(S'2015-05-01 12:26:15.880000'
g117
tp196
a(S'2015-05-01 12:26:15.884000'
S'data saved as csv to C:\\Users\\Jbarrett\\Charlie\\charlie\\data\\csv\\4380_scap.csv'
tp197
a(S'2015-05-01 12:26:23.384000'
g115
tp198
a(S'2015-05-01 12:26:23.395000'
g117
tp199
a(S'2015-05-01 12:26:23.399000'
S'data saved as csv to C:\\Users\\Jbarrett\\Charlie\\charlie\\data\\csv\\4380_scap.csv'
tp200
a(S'2015-05-01 12:26:30.698000'
g115
tp201
a(S'2015-05-01 12:26:30.709000'
g117
tp202
a(S'2015-05-01 12:26:30.713000'
S'data saved as csv to C:\\Users\\Jbarrett\\Charlie\\charlie\\data\\csv\\4380_scap.csv'
tp203
a(S'2015-05-01 12:26:38.163000'
g115
tp204
a(S'2015-05-01 12:26:38.173000'
g117
tp205
a(S'2015-05-01 12:26:38.178000'
S'data saved as csv to C:\\Users\\Jbarrett\\Charlie\\charlie\\data\\csv\\4380_scap.csv'
tp206
a(S'2015-05-01 12:26:45.566000'
g115
tp207
a(S'2015-05-01 12:26:45.577000'
g117
tp208
a(S'2015-05-01 12:26:45.582000'
S'data saved as csv to C:\\Users\\Jbarrett\\Charlie\\charlie\\data\\csv\\4380_scap.csv'
tp209
a(S'2015-05-01 12:26:53.232000'
g115
tp210
a(S'2015-05-01 12:26:53.243000'
g117
tp211
a(S'2015-05-01 12:26:53.247000'
S'data saved as csv to C:\\Users\\Jbarrett\\Charlie\\charlie\\data\\csv\\4380_scap.csv'
tp212
a(S'2015-05-01 12:27:01.418000'
g115
tp213
a(S'2015-05-01 12:27:01.429000'
g117
tp214
a(S'2015-05-01 12:27:01.434000'
S'data saved as csv to C:\\Users\\Jbarrett\\Charlie\\charlie\\data\\csv\\4380_scap.csv'
tp215
a(S'2015-05-01 12:27:09.114000'
g115
tp216
a(S'2015-05-01 12:27:09.125000'
g117
tp217
a(S'2015-05-01 12:27:09.127000'
S'data saved as csv to C:\\Users\\Jbarrett\\Charlie\\charlie\\data\\csv\\4380_scap.csv'
tp218
a(S'2015-05-01 12:27:16.475000'
g115
tp219
a(S'2015-05-01 12:27:16.486000'
g117
tp220
a(S'2015-05-01 12:27:16.490000'
S'data saved as csv to C:\\Users\\Jbarrett\\Charlie\\charlie\\data\\csv\\4380_scap.csv'
tp221
a(S'2015-05-01 12:27:23.891000'
g115
tp222
a(S'2015-05-01 12:27:23.902000'
g117
tp223
a(S'2015-05-01 12:27:23.906000'
S'data saved as csv to C:\\Users\\Jbarrett\\Charlie\\charlie\\data\\csv\\4380_scap.csv'
tp224
a(S'2015-05-01 12:27:31.318000'
g115
tp225
a(S'2015-05-01 12:27:31.330000'
g117
tp226
a(S'2015-05-01 12:27:31.334000'
S'data saved as csv to C:\\Users\\Jbarrett\\Charlie\\charlie\\data\\csv\\4380_scap.csv'
tp227
a(S'2015-05-01 12:27:38.844000'
g115
tp228
a(S'2015-05-01 12:27:38.855000'
g117
tp229
a(S'2015-05-01 12:27:38.858000'
S'data saved as csv to C:\\Users\\Jbarrett\\Charlie\\charlie\\data\\csv\\4380_scap.csv'
tp230
a(S'2015-05-01 12:27:46.846000'
g115
tp231
a(S'2015-05-01 12:27:46.858000'
g117
tp232
a(S'2015-05-01 12:27:46.862000'
S'data saved as csv to C:\\Users\\Jbarrett\\Charlie\\charlie\\data\\csv\\4380_scap.csv'
tp233
a(S'2015-05-01 12:27:54.331000'
g115
tp234
a(S'2015-05-01 12:27:54.343000'
g117
tp235
a(S'2015-05-01 12:27:54.347000'
S'data saved as csv to C:\\Users\\Jbarrett\\Charlie\\charlie\\data\\csv\\4380_scap.csv'
tp236
a(S'2015-05-01 12:28:01.757000'
g115
tp237
a(S'2015-05-01 12:28:01.769000'
g117
tp238
a(S'2015-05-01 12:28:01.773000'
S'data saved as csv to C:\\Users\\Jbarrett\\Charlie\\charlie\\data\\csv\\4380_scap.csv'
tp239
a(S'2015-05-01 12:28:09.973000'
g115
tp240
a(S'2015-05-01 12:28:09.984000'
g117
tp241
a(S'2015-05-01 12:28:09.989000'
S'data saved as csv to C:\\Users\\Jbarrett\\Charlie\\charlie\\data\\csv\\4380_scap.csv'
tp242
a(S'2015-05-01 12:28:18.949000'
g115
tp243
a(S'2015-05-01 12:28:18.961000'
g117
tp244
a(S'2015-05-01 12:28:18.966000'
S'data saved as csv to C:\\Users\\Jbarrett\\Charlie\\charlie\\data\\csv\\4380_scap.csv'
tp245
a(S'2015-05-01 12:28:26.855000'
g115
tp246
a(S'2015-05-01 12:28:26.867000'
g117
tp247
a(S'2015-05-01 12:28:26.871000'
S'data saved as csv to C:\\Users\\Jbarrett\\Charlie\\charlie\\data\\csv\\4380_scap.csv'
tp248
a(S'2015-05-01 12:28:35.651000'
g115
tp249
a(S'2015-05-01 12:28:35.662000'
g117
tp250
a(S'2015-05-01 12:28:35.667000'
S'data saved as csv to C:\\Users\\Jbarrett\\Charlie\\charlie\\data\\csv\\4380_scap.csv'
tp251
asb.