(icharlie.tools.data
Data
p1
(dp2
S'lang'
p3
S'EN'
p4
sS'control'
p5
(lp6
sS'last_updated'
p7
cdatetime
datetime
p8
(S'\x07\xdf\x04\x1e\r\x1e%\t\x85\x80'
tRp9
sS'last_opened'
p10
g8
(S'\x07\xdf\x04\x1e\r\x15\x18\x01$\xf8'
tRp11
sS'proj_id'
p12
S'connectivity'
p13
sS'date_done'
p14
g8
(S'\x07\xdf\x04\x1e\r\x1e%\tbX'
tRp15
sS'test_done'
p16
I01
sS'data'
p17
(lp18
(S'4380'
p19
S'verbal_fluency'
p20
I0
S'True'
p21
tp22
a(g19
g20
I0
g21
tp23
a(g19
g20
I0
g21
tp24
a(g19
g20
I0
g21
tp25
a(g19
g20
I0
g21
tp26
a(g19
g20
I0
g21
tp27
a(g19
g20
I0
g21
tp28
a(g19
g20
I0
g21
tp29
a(g19
g20
I0
g21
tp30
a(g19
g20
I0
S'False'
p31
tp32
a(g19
g20
I0
g21
tp33
a(g19
g20
I0
g31
tp34
a(g19
g20
I0
g31
tp35
a(g19
g20
I0
g31
tp36
a(g19
g20
I0
g21
tp37
a(g19
g20
I0
g31
tp38
a(g19
g20
I0
g21
tp39
a(g19
g20
I1
g21
tp40
a(g19
g20
I1
g21
tp41
a(g19
g20
I1
g21
tp42
a(g19
g20
I1
g21
tp43
a(g19
g20
I1
g21
tp44
a(g19
g20
I1
g31
tp45
a(g19
g20
I1
g21
tp46
a(g19
g20
I1
g21
tp47
a(g19
g20
I1
g21
tp48
a(g19
g20
I1
g31
tp49
a(g19
g20
I1
g21
tp50
a(g19
g20
I1
g21
tp51
a(g19
g20
I1
g21
tp52
a(g19
g20
I1
g21
tp53
a(g19
g20
I2
g21
tp54
a(g19
g20
I2
g21
tp55
a(g19
g20
I2
g21
tp56
a(g19
g20
I2
g21
tp57
a(g19
g20
I2
g21
tp58
a(g19
g20
I2
g31
tp59
a(g19
g20
I2
g21
tp60
a(g19
g20
I2
g31
tp61
a(g19
g20
I2
g21
tp62
a(g19
g20
I2
g21
tp63
a(g19
g20
I2
g21
tp64
a(g19
g20
I2
g21
tp65
a(g19
g20
I2
g21
tp66
a(g19
g20
I2
g21
tp67
a(g19
g20
I2
g21
tp68
a(g19
g20
I2
g21
tp69
a(g19
g20
I3
g21
tp70
a(g19
g20
I3
g21
tp71
a(g19
g20
I3
g21
tp72
a(g19
g20
I3
g21
tp73
a(g19
g20
I3
g21
tp74
a(g19
g20
I3
g21
tp75
a(g19
g20
I3
g31
tp76
a(g19
g20
I3
g31
tp77
a(g19
g20
I3
g31
tp78
a(g19
g20
I3
g21
tp79
a(g19
g20
I3
g21
tp80
a(g19
g20
I3
g21
tp81
a(g19
g20
I3
g21
tp82
a(g19
g20
I3
g21
tp83
a(g19
g20
I3
g21
tp84
a(g19
g20
I3
g21
tp85
a(g19
g20
I3
g31
tp86
a(g19
g20
I3
g21
tp87
a(g19
g20
I3
g31
tp88
a(g19
g20
I3
g21
tp89
a(g19
g20
I3
g21
tp90
a(g19
g20
I3
g21
tp91
a(g19
g20
I3
g21
tp92
a(g19
g20
I3
g31
tp93
a(g19
g20
I3
g31
tp94
a(g19
g20
I3
g21
tp95
asS'output_format'
p96
(lp97
(S'proband_id'
p98
c__builtin__
str
p99
tp100
a(S'test_name'
p101
g99
tp102
a(S'trialn'
p103
c__builtin__
int
p104
tp105
a(S'rsp'
p106
g99
tp107
asg98
g19
sS'filename'
p108
S'4380_verbal_fluency.data'
p109
sS'initialised'
p110
g8
(S'\x07\xdf\x04\x1e\r\x15\x18\x01$\xf8'
tRp111
sS'last_udated'
p112
g8
(S'\x07\xdf\x04\x1e\r\x15\x18\x01$\xf8'
tRp113
sg101
S'verbal_fluency'
p114
sS'directory'
p115
S'C:\\Users\\Jbarrett\\Charlie\\charlie\\data\\raw'
p116
sS'user_id'
p117
S'barrett'
p118
sS'test_started'
p119
I01
sS'abs_filename'
p120
S'C:\\Users\\Jbarrett\\Charlie\\charlie\\data\\raw\\4380_verbal_fluency.data'
p121
sS'date_started'
p122
g8
(S'\x07\xdf\x04\x1e\r\x1b\x07\x05\xef\x88'
tRp123
sS'log'
p124
(lp125
(S'2015-04-30 13:21:24.075000'
S'instance created'
p126
tp127
a(S'2015-04-30 13:27:07.397000'
S'instance updated'
p128
tp129
a(S'2015-04-30 13:27:07.403000'
S'pandas DataFrame of data created'
p130
tp131
a(S'2015-04-30 13:27:07.407000'
S'data saved as csv to C:\\Users\\Jbarrett\\Charlie\\charlie\\data\\csv\\4380_verbal_fluency.csv'
tp132
a(S'2015-04-30 13:27:10.723000'
g128
tp133
a(S'2015-04-30 13:27:10.729000'
g130
tp134
a(S'2015-04-30 13:27:10.732000'
S'data saved as csv to C:\\Users\\Jbarrett\\Charlie\\charlie\\data\\csv\\4380_verbal_fluency.csv'
tp135
a(S'2015-04-30 13:28:13.999000'
g128
tp136
a(S'2015-04-30 13:28:14.005000'
g130
tp137
a(S'2015-04-30 13:28:14.008000'
S'data saved as csv to C:\\Users\\Jbarrett\\Charlie\\charlie\\data\\csv\\4380_verbal_fluency.csv'
tp138
a(S'2015-04-30 13:28:17.375000'
g128
tp139
a(S'2015-04-30 13:28:17.380000'
g130
tp140
a(S'2015-04-30 13:28:17.384000'
S'data saved as csv to C:\\Users\\Jbarrett\\Charlie\\charlie\\data\\csv\\4380_verbal_fluency.csv'
tp141
a(S'2015-04-30 13:29:20.995000'
g128
tp142
a(S'2015-04-30 13:29:21'
g130
tp143
a(S'2015-04-30 13:29:21.004000'
S'data saved as csv to C:\\Users\\Jbarrett\\Charlie\\charlie\\data\\csv\\4380_verbal_fluency.csv'
tp144
a(S'2015-04-30 13:29:31.578000'
g128
tp145
a(S'2015-04-30 13:29:31.583000'
g130
tp146
a(S'2015-04-30 13:29:31.587000'
S'data saved as csv to C:\\Users\\Jbarrett\\Charlie\\charlie\\data\\csv\\4380_verbal_fluency.csv'
tp147
a(S'2015-04-30 13:30:37.615000'
g128
tp148
a(S'2015-04-30 13:30:37.620000'
g130
tp149
a(S'2015-04-30 13:30:37.624000'
S'data saved as csv to C:\\Users\\Jbarrett\\Charlie\\charlie\\data\\csv\\4380_verbal_fluency.csv'
tp150
asb.