(icharlie.tools.data
Data
p1
(dp2
S'lang'
p3
S'EN'
p4
sS'control'
p5
(lp6
sS'last_updated'
p7
cdatetime
datetime
p8
(S'\x07\xdf\x05\x14\x0b\x13"\x03\xfb\x88'
tRp9
sS'last_opened'
p10
g8
(S'\x07\xdf\x05\x14\x0b\x0b:\x01\x1d('
tRp11
sS'proj_id'
p12
S'connectivity'
p13
sS'date_done'
p14
g8
(S'\x07\xdf\x05\x14\x0b\x13"\x034P'
tRp15
sS'test_done'
p16
I01
sS'data'
p17
(lp18
(S'4382'
p19
S'cvlt2'
p20
I0
csip
_unpickle_type
p21
(S'PyQt4.QtCore'
p22
S'QString'
(Vcelery
p23
ttRp24
tp25
a(g19
g20
I0
g21
(g22
S'QString'
(Vzebra
p26
ttRp27
tp28
a(g19
g20
I0
g21
(g22
S'QString'
(Vcow
p29
ttRp30
tp31
a(g19
g20
I0
g21
(g22
S'QString'
(Vintrusion
p32
ttRp33
tp34
a(g19
g20
I0
g21
(g22
S'QString'
(Vtruck
p35
ttRp36
tp37
a(g19
g20
I0
g21
(g22
S'QString'
(Vcelery
p38
ttRp39
tp40
a(g19
g20
I0
g21
(g22
S'QString'
(Vzebra
p41
ttRp42
tp43
a(g19
g20
I0
g21
(g22
S'QString'
(Vcow
p44
ttRp45
tp46
a(g19
g20
I0
g21
(g22
S'QString'
(Vtruck
p47
ttRp48
tp49
a(g19
g20
I0
g21
(g22
S'QString'
(Vbookcase
p50
ttRp51
tp52
a(g19
g20
I0
g21
(g22
S'QString'
(Vsquirrel
p53
ttRp54
tp55
a(g19
g20
I1
g21
(g22
S'QString'
(Vcelery
p56
ttRp57
tp58
a(g19
g20
I1
g21
(g22
S'QString'
(Vboat
p59
ttRp60
tp61
a(g19
g20
I1
g21
(g22
S'QString'
(Vcow
p62
ttRp63
tp64
a(g19
g20
I1
g21
(g22
S'QString'
(Vspinach
p65
ttRp66
tp67
a(g19
g20
I1
g21
(g22
S'QString'
(Vdesk
p68
ttRp69
tp70
a(g19
g20
I1
g21
(g22
S'QString'
(Vlamp
p71
ttRp72
tp73
a(g19
g20
I1
g21
(g22
S'QString'
(Vzebra
p74
ttRp75
tp76
a(g19
g20
I1
g21
(g22
S'QString'
(Vgiraffe
p77
ttRp78
tp79
a(g19
g20
I1
g21
(g22
S'QString'
(Vtruck
p80
ttRp81
tp82
a(g19
g20
I2
g21
(g22
S'QString'
(Vtruck
p83
ttRp84
tp85
a(g19
g20
I2
g21
(g22
S'QString'
(Vspinach
p86
ttRp87
tp88
a(g19
g20
I2
g21
(g22
S'QString'
(Vcow
p89
ttRp90
tp91
a(g19
g20
I2
g21
(g22
S'QString'
(Vcelery
p92
ttRp93
tp94
a(g19
g20
I2
g21
(g22
S'QString'
(Vzebra
p95
ttRp96
tp97
a(g19
g20
I2
g21
(g22
S'QString'
(Vlamp
p98
ttRp99
tp100
a(g19
g20
I2
g21
(g22
S'QString'
(Vboat
p101
ttRp102
tp103
a(g19
g20
I2
g21
(g22
S'QString'
(Vsquirrel
p104
ttRp105
tp106
a(g19
g20
I2
g21
(g22
S'QString'
(Vcow
p107
ttRp108
tp109
a(g19
g20
I2
g21
(g22
S'QString'
(Vcelery
p110
ttRp111
tp112
a(g19
g20
I3
g21
(g22
S'QString'
(Vsubway
p113
ttRp114
tp115
a(g19
g20
I3
g21
(g22
S'QString'
(Vboat
p116
ttRp117
tp118
a(g19
g20
I3
g21
(g22
S'QString'
(Vlamp
p119
ttRp120
tp121
a(g19
g20
I3
g21
(g22
S'QString'
(Vdesk
p122
ttRp123
tp124
a(g19
g20
I3
g21
(g22
S'QString'
(Vcow
p125
ttRp126
tp127
a(g19
g20
I3
g21
(g22
S'QString'
(Vtruck
p128
ttRp129
tp130
a(g19
g20
I3
g21
(g22
S'QString'
(Vzebra
p131
ttRp132
tp133
a(g19
g20
I3
g21
(g22
S'QString'
(Vdesk
p134
ttRp135
tp136
a(g19
g20
I3
g21
(g22
S'QString'
(Vbookcase
p137
ttRp138
tp139
a(g19
g20
I4
g21
(g22
S'QString'
(Vdesk
p140
ttRp141
tp142
a(g19
g20
I4
g21
(g22
S'QString'
(Vlamp
p143
ttRp144
tp145
a(g19
g20
I4
g21
(g22
S'QString'
(Vboat
p146
ttRp147
tp148
a(g19
g20
I4
g21
(g22
S'QString'
(Vcabbage
p149
ttRp150
tp151
a(g19
g20
I4
g21
(g22
S'QString'
(Vspinach
p152
ttRp153
tp154
a(g19
g20
I4
g21
(g22
S'QString'
(Vcelery
p155
ttRp156
tp157
a(g19
g20
I4
g21
(g22
S'QString'
(Vcabinet
p158
ttRp159
tp160
a(g19
g20
I4
g21
(g22
S'QString'
(Vtruck
p161
ttRp162
tp163
a(g19
g20
I4
g21
(g22
S'QString'
(Vsubway
p164
ttRp165
tp166
a(g19
g20
I4
g21
(g22
S'QString'
(Vbookcase
p167
ttRp168
tp169
a(g19
g20
I4
g21
(g22
S'QString'
(Vzebra
p170
ttRp171
tp172
a(g19
g20
I4
g21
(g22
S'QString'
(Vcow
p173
ttRp174
tp175
asS'output_format'
p176
(lp177
(S'proband_id'
p178
c__builtin__
str
p179
tp180
a(S'test_name'
p181
g179
tp182
a(S'trialn'
p183
c__builtin__
int
p184
tp185
a(S'rsp'
p186
g179
tp187
asg178
g19
sS'filename'
p188
S'4382_cvlt2.data'
p189
sS'initialised'
p190
g8
(S'\x07\xdf\x05\x14\x0b\x0b:\x01\x1d('
tRp191
sS'last_udated'
p192
g8
(S'\x07\xdf\x05\x14\x0b\x0b:\x01\x1d('
tRp193
sg181
S'cvlt2'
p194
sS'directory'
p195
S'C:\\Users\\Jbarrett\\Charlie\\charlie\\data\\raw'
p196
sS'user_id'
p197
S'jbarrett'
p198
sS'test_started'
p199
I01
sS'abs_filename'
p200
S'C:\\Users\\Jbarrett\\Charlie\\charlie\\data\\raw\\4382_cvlt2.data'
p201
sS'date_started'
p202
g8
(S'\x07\xdf\x05\x14\x0b\x0e\x16\x06\n\xe0'
tRp203
sS'log'
p204
(lp205
(S'2015-05-20 11:11:58.073000'
S'instance created'
p206
tp207
a(S'2015-05-20 11:14:22.405000'
S'instance updated'
p208
tp209
a(S'2015-05-20 11:14:22.427000'
S'pandas DataFrame of data created'
p210
tp211
a(S'2015-05-20 11:14:22.429000'
S'data saved as csv to C:\\Users\\Jbarrett\\Charlie\\charlie\\data\\csv\\4382_cvlt2.csv'
tp212
a(S'2015-05-20 11:15:07.138000'
g208
tp213
a(S'2015-05-20 11:15:07.163000'
g210
tp214
a(S'2015-05-20 11:15:07.166000'
S'data saved as csv to C:\\Users\\Jbarrett\\Charlie\\charlie\\data\\csv\\4382_cvlt2.csv'
tp215
a(S'2015-05-20 11:15:33.728000'
g208
tp216
a(S'2015-05-20 11:15:33.761000'
g210
tp217
a(S'2015-05-20 11:15:33.763000'
S'data saved as csv to C:\\Users\\Jbarrett\\Charlie\\charlie\\data\\csv\\4382_cvlt2.csv'
tp218
a(S'2015-05-20 11:16:12.078000'
g208
tp219
a(S'2015-05-20 11:16:12.108000'
g210
tp220
a(S'2015-05-20 11:16:12.110000'
S'data saved as csv to C:\\Users\\Jbarrett\\Charlie\\charlie\\data\\csv\\4382_cvlt2.csv'
tp221
a(S'2015-05-20 11:16:53.291000'
g208
tp222
a(S'2015-05-20 11:16:53.337000'
g210
tp223
a(S'2015-05-20 11:16:53.339000'
S'data saved as csv to C:\\Users\\Jbarrett\\Charlie\\charlie\\data\\csv\\4382_cvlt2.csv'
tp224
a(S'2015-05-20 11:17:34.233000'
g208
tp225
a(S'2015-05-20 11:17:34.271000'
g210
tp226
a(S'2015-05-20 11:17:34.273000'
S'data saved as csv to C:\\Users\\Jbarrett\\Charlie\\charlie\\data\\csv\\4382_cvlt2.csv'
tp227
a(S'2015-05-20 11:18:12.978000'
g208
tp228
a(S'2015-05-20 11:18:13.012000'
g210
tp229
a(S'2015-05-20 11:18:13.013000'
S'data saved as csv to C:\\Users\\Jbarrett\\Charlie\\charlie\\data\\csv\\4382_cvlt2.csv'
tp230
a(S'2015-05-20 11:19:01.668000'
g208
tp231
a(S'2015-05-20 11:19:01.718000'
g210
tp232
a(S'2015-05-20 11:19:01.720000'
S'data saved as csv to C:\\Users\\Jbarrett\\Charlie\\charlie\\data\\csv\\4382_cvlt2.csv'
tp233
a(S'2015-05-20 11:19:34.210000'
g208
tp234
a(S'2015-05-20 11:19:34.260000'
g210
tp235
a(S'2015-05-20 11:19:34.261000'
S'data saved as csv to C:\\Users\\Jbarrett\\Charlie\\charlie\\data\\csv\\4382_cvlt2.csv'
tp236
asb.