(icharlie.tools.data
Data
p1
(dp2
S'lang'
p3
S'EN'
p4
sS'control'
p5
(lp6
sS'last_updated'
p7
cdatetime
datetime
p8
(S'\x07\xdf\x05\x0b\n"\x1d\x03\xe00'
tRp9
sS'last_opened'
p10
g8
(S'\x07\xdf\x05\x0b\n\x1c(\n\x06h'
tRp11
sS'proj_id'
p12
S'connectivity'
p13
sS'date_done'
p14
g8
(S'\x07\xdf\x05\x0b\n"\x1d\x03c0'
tRp15
sS'test_done'
p16
I01
sS'data'
p17
(lp18
(S'4384'
p19
S'cvlt2'
p20
I0
csip
_unpickle_type
p21
(S'PyQt4.QtCore'
p22
S'QString'
(Vboat
p23
ttRp24
tp25
a(g19
g20
I0
g21
(g22
S'QString'
(Vcabbage
p26
ttRp27
tp28
a(g19
g20
I0
g21
(g22
S'QString'
(Vsquirrel
p29
ttRp30
tp31
a(g19
g20
I0
g21
(g22
S'QString'
(Vspinach
p32
ttRp33
tp34
a(g19
g20
I1
g21
(g22
S'QString'
(Vboat
p35
ttRp36
tp37
a(g19
g20
I1
g21
(g22
S'QString'
(Vsquirrel
p38
ttRp39
tp40
a(g19
g20
I1
g21
(g22
S'QString'
(Vcabbage
p41
ttRp42
tp43
a(g19
g20
I1
g21
(g22
S'QString'
(Vbookcase
p44
ttRp45
tp46
a(g19
g20
I1
g21
(g22
S'QString'
(Vintrusion
p47
ttRp48
tp49
a(g19
g20
I1
g21
(g22
S'QString'
(Vcow
p50
ttRp51
tp52
a(g19
g20
I1
g21
(g22
S'QString'
(Vgiraffe
p53
ttRp54
tp55
a(g19
g20
I1
g21
(g22
S'QString'
(Vspinach
p56
ttRp57
tp58
a(g19
g20
I1
g21
(g22
S'QString'
(Vmotorcycle
p59
ttRp60
tp61
a(g19
g20
I1
g21
(g22
S'QString'
(Vtruck
p62
ttRp63
tp64
a(g19
g20
I2
g21
(g22
S'QString'
(Vboat
p65
ttRp66
tp67
a(g19
g20
I2
g21
(g22
S'QString'
(Vdesk
p68
ttRp69
tp70
a(g19
g20
I2
g21
(g22
S'QString'
(Vsquirrel
p71
ttRp72
tp73
a(g19
g20
I2
g21
(g22
S'QString'
(Vcabbage
p74
ttRp75
tp76
a(g19
g20
I2
g21
(g22
S'QString'
(Vspinach
p77
ttRp78
tp79
a(g19
g20
I2
g21
(g22
S'QString'
(Vcow
p80
ttRp81
tp82
a(g19
g20
I2
g21
(g22
S'QString'
(Vgiraffe
p83
ttRp84
tp85
a(g19
g20
I2
g21
(g22
S'QString'
(Vbookcase
p86
ttRp87
tp88
a(g19
g20
I2
g21
(g22
S'QString'
(Vsubway
p89
ttRp90
tp91
a(g19
g20
I2
g21
(g22
S'QString'
(Vlamp
p92
ttRp93
tp94
a(g19
g20
I2
g21
(g22
S'QString'
(Vmotorcycle
p95
ttRp96
tp97
a(g19
g20
I2
g21
(g22
S'QString'
(Vtruck
p98
ttRp99
tp100
a(g19
g20
I2
g21
(g22
S'QString'
(Vintrusion
p101
ttRp102
tp103
a(g19
g20
I2
g21
(g22
S'QString'
(Vspinach
p104
ttRp105
tp106
a(g19
g20
I2
g21
(g22
S'QString'
(Vcow
p107
ttRp108
tp109
a(g19
g20
I2
g21
(g22
S'QString'
(Vlamp
p110
ttRp111
tp112
a(g19
g20
I2
g21
(g22
S'QString'
(Vintrusion
p113
ttRp114
tp115
a(g19
g20
I2
g21
(g22
S'QString'
(Vbookcase
p116
ttRp117
tp118
a(g19
g20
I3
g21
(g22
S'QString'
(Vsquirrel
p119
ttRp120
tp121
a(g19
g20
I3
g21
(g22
S'QString'
(Vdesk
p122
ttRp123
tp124
a(g19
g20
I3
g21
(g22
S'QString'
(Vboat
p125
ttRp126
tp127
a(g19
g20
I3
g21
(g22
S'QString'
(Vcabinet
p128
ttRp129
tp130
a(g19
g20
I3
g21
(g22
S'QString'
(Vsubway
p131
ttRp132
tp133
a(g19
g20
I3
g21
(g22
S'QString'
(Vmotorcycle
p134
ttRp135
tp136
a(g19
g20
I3
g21
(g22
S'QString'
(Vtruck
p137
ttRp138
tp139
a(g19
g20
I3
g21
(g22
S'QString'
(Vonion
p140
ttRp141
tp142
a(g19
g20
I3
g21
(g22
S'QString'
(Vintrusion
p143
ttRp144
tp145
a(g19
g20
I3
g21
(g22
S'QString'
(Vcow
p146
ttRp147
tp148
a(g19
g20
I3
g21
(g22
S'QString'
(Vgiraffe
p149
ttRp150
tp151
a(g19
g20
I3
g21
(g22
S'QString'
(Vsquirrel
p152
ttRp153
tp154
a(g19
g20
I4
g21
(g22
S'QString'
(Vboat
p155
ttRp156
tp157
a(g19
g20
I4
g21
(g22
S'QString'
(Vlamp
p158
ttRp159
tp160
a(g19
g20
I4
g21
(g22
S'QString'
(Vsquirrel
p161
ttRp162
tp163
a(g19
g20
I4
g21
(g22
S'QString'
(Vgiraffe
p164
ttRp165
tp166
a(g19
g20
I4
g21
(g22
S'QString'
(Vcabbage
p167
ttRp168
tp169
a(g19
g20
I4
g21
(g22
S'QString'
(Vtruck
p170
ttRp171
tp172
a(g19
g20
I4
g21
(g22
S'QString'
(Vmotorcycle
p173
ttRp174
tp175
a(g19
g20
I4
g21
(g22
S'QString'
(Vonion
p176
ttRp177
tp178
a(g19
g20
I4
g21
(g22
S'QString'
(Vintrusion
p179
ttRp180
tp181
a(g19
g20
I4
g21
(g22
S'QString'
(Vspinach
p182
ttRp183
tp184
a(g19
g20
I4
g21
(g22
S'QString'
(Vcow
p185
ttRp186
tp187
a(g19
g20
I4
g21
(g22
S'QString'
(Vgiraffe
p188
ttRp189
tp190
asS'output_format'
p191
(lp192
(S'proband_id'
p193
c__builtin__
str
p194
tp195
a(S'test_name'
p196
g194
tp197
a(S'trialn'
p198
c__builtin__
int
p199
tp200
a(S'rsp'
p201
g194
tp202
asg193
g19
sS'filename'
p203
S'4384_cvlt2.data'
p204
sS'initialised'
p205
g8
(S'\x07\xdf\x05\x0b\n\x1c(\n\x06h'
tRp206
sS'last_udated'
p207
g8
(S'\x07\xdf\x05\x0b\n\x1c(\n\x06h'
tRp208
sg196
S'cvlt2'
p209
sS'directory'
p210
S'c:\\Charlie\\charlie\\data\\raw'
p211
sS'user_id'
p212
S'oleach'
p213
sS'test_started'
p214
I01
sS'abs_filename'
p215
S'c:\\Charlie\\charlie\\data\\raw\\4384_cvlt2.data'
p216
sS'date_started'
p217
g8
(S'\x07\xdf\x05\x0b\n\x1e\x03\t7`'
tRp218
sS'log'
p219
(lp220
(S'2015-05-11 10:28:40.657000'
S'instance created'
p221
tp222
a(S'2015-05-11 10:30:03.616000'
S'instance updated'
p223
tp224
a(S'2015-05-11 10:30:03.630000'
S'pandas DataFrame of data created'
p225
tp226
a(S'2015-05-11 10:30:03.637000'
S'data saved as csv to c:\\Charlie\\charlie\\data\\csv\\4384_cvlt2.csv'
tp227
a(S'2015-05-11 10:30:44.586000'
g223
tp228
a(S'2015-05-11 10:30:44.600000'
g225
tp229
a(S'2015-05-11 10:30:44.604000'
S'data saved as csv to c:\\Charlie\\charlie\\data\\csv\\4384_cvlt2.csv'
tp230
a(S'2015-05-11 10:30:58.705000'
g223
tp231
a(S'2015-05-11 10:30:58.733000'
g225
tp232
a(S'2015-05-11 10:30:58.735000'
S'data saved as csv to c:\\Charlie\\charlie\\data\\csv\\4384_cvlt2.csv'
tp233
a(S'2015-05-11 10:31:35.703000'
g223
tp234
a(S'2015-05-11 10:31:35.738000'
g225
tp235
a(S'2015-05-11 10:31:35.742000'
S'data saved as csv to c:\\Charlie\\charlie\\data\\csv\\4384_cvlt2.csv'
tp236
a(S'2015-05-11 10:32:23.125000'
g223
tp237
a(S'2015-05-11 10:32:23.171000'
g225
tp238
a(S'2015-05-11 10:32:23.172000'
S'data saved as csv to c:\\Charlie\\charlie\\data\\csv\\4384_cvlt2.csv'
tp239
a(S'2015-05-11 10:33:01.874000'
g223
tp240
a(S'2015-05-11 10:33:01.919000'
g225
tp241
a(S'2015-05-11 10:33:01.921000'
S'data saved as csv to c:\\Charlie\\charlie\\data\\csv\\4384_cvlt2.csv'
tp242
a(S'2015-05-11 10:33:34.696000'
g223
tp243
a(S'2015-05-11 10:33:34.749000'
g225
tp244
a(S'2015-05-11 10:33:34.750000'
S'data saved as csv to c:\\Charlie\\charlie\\data\\csv\\4384_cvlt2.csv'
tp245
a(S'2015-05-11 10:34:11.518000'
g223
tp246
a(S'2015-05-11 10:34:11.577000'
g225
tp247
a(S'2015-05-11 10:34:11.579000'
S'data saved as csv to c:\\Charlie\\charlie\\data\\csv\\4384_cvlt2.csv'
tp248
a(S'2015-05-11 10:34:29.222000'
g223
tp249
a(S'2015-05-11 10:34:29.252000'
g225
tp250
a(S'2015-05-11 10:34:29.254000'
S'data saved as csv to c:\\Charlie\\charlie\\data\\csv\\4384_cvlt2.csv'
tp251
asb.