(icharlie.tools.data
Data
p1
(dp2
S'lang'
p3
S'EN'
p4
sS'control'
p5
(lp6
sS'last_updated'
p7
cdatetime
datetime
p8
(S'\x07\xdf\x05\x08\x0b5\r\n-x'
tRp9
sS'last_opened'
p10
g8
(S'\x07\xdf\x05\x08\x0b/\x0f\x0b\xc3\xb8'
tRp11
sS'proj_id'
p12
S'connectivity'
p13
sS'date_done'
p14
NsS'test_done'
p15
I01
sS'data'
p16
(lp17
(S'4386'
p18
S'ctrails'
p19
S'number'
p20
S'practice'
p21
I0
I1
S'Correct'
p22
I1910
I9954
tp23
a(g18
g19
g20
g21
I1
I2
g22
I1191
I9954
tp24
a(g18
g19
g20
g21
I2
I3
g22
I1210
I9954
tp25
a(g18
g19
g20
g21
I3
I4
g22
I1440
I9954
tp26
a(g18
g19
g20
g21
I4
I5
g22
I1040
I9954
tp27
a(g18
g19
g20
g21
I5
I6
g22
I1090
I9954
tp28
a(g18
g19
g20
g21
I6
I7
g22
I1130
I9954
tp29
a(g18
g19
g20
g21
I7
I8
g22
I900
I9954
tp30
a(g18
g19
g20
S'test'
p31
I0
I1
g22
I1690
I31037
tp32
a(g18
g19
g20
g31
I1
I2
g22
I1520
I31037
tp33
a(g18
g19
g20
g31
I2
I3
g22
I1060
I31037
tp34
a(g18
g19
g20
g31
I3
I4
g22
I2640
I31037
tp35
a(g18
g19
g20
g31
I4
I5
g22
I1270
I31037
tp36
a(g18
g19
g20
g31
I5
I6
g22
I1500
I31037
tp37
a(g18
g19
g20
g31
I6
I7
g22
I1000
I31037
tp38
a(g18
g19
g20
g31
I7
I8
g22
I650
I31037
tp39
a(g18
g19
g20
g31
I8
I9
g22
I1051
I31037
tp40
a(g18
g19
g20
g31
I9
I10
g22
I1150
I31037
tp41
a(g18
g19
g20
g31
I10
I11
g22
I1220
I31037
tp42
a(g18
g19
g20
g31
I11
I12
g22
I860
I31037
tp43
a(g18
g19
g20
g31
I12
I13
g22
I1430
I31037
tp44
a(g18
g19
g20
g31
I13
I14
g22
I1680
I31037
tp45
a(g18
g19
g20
g31
I14
I15
g22
I560
I31037
tp46
a(g18
g19
g20
g31
I15
I16
g22
I1130
I31037
tp47
a(g18
g19
g20
g31
I16
I17
g22
I1900
I31037
tp48
a(g18
g19
g20
g31
I17
I18
g22
I650
I31037
tp49
a(g18
g19
g20
g31
I18
I19
g22
I1120
I31037
tp50
a(g18
g19
g20
g31
I19
I20
g22
I1180
I31037
tp51
a(g18
g19
g20
g31
I20
I21
g22
I1330
I31037
tp52
a(g18
g19
g20
g31
I21
I22
g22
I1620
I31037
tp53
a(g18
g19
g20
g31
I22
I23
g22
I1130
I31037
tp54
a(g18
g19
g20
g31
I23
I24
g22
I951
I31037
tp55
a(g18
g19
g20
g31
I24
I25
g22
I620
I31037
tp56
a(g18
g19
S'letter'
p57
g21
I0
S'a'
g22
I1430
I9096
tp58
a(g18
g19
g57
g21
I1
S'b'
g22
I1330
I9096
tp59
a(g18
g19
g57
g21
I2
S'c'
g22
I1590
I9096
tp60
a(g18
g19
g57
g21
I3
S'd'
g22
I790
I9096
tp61
a(g18
g19
g57
g21
I4
S'e'
g22
I911
I9096
tp62
a(g18
g19
g57
g21
I5
S'f'
g22
I1120
I9096
tp63
a(g18
g19
g57
g21
I6
S'g'
g22
I800
I9096
tp64
a(g18
g19
g57
g21
I7
S'h'
g22
I1080
I9096
tp65
a(g18
g19
g57
g31
I0
S'a'
g22
I2390
I75438
tp66
a(g18
g19
g57
g31
I1
S'b'
g22
I1430
I75438
tp67
a(g18
g19
g57
g31
I2
S'c'
g22
I2100
I75438
tp68
a(g18
g19
g57
g31
I3
S'd'
g22
I1210
I75438
tp69
a(g18
g19
g57
g31
I4
S'e'
g22
I680
I75438
tp70
a(g18
g19
g57
g31
I5
S'f'
g22
I470
I75438
tp71
a(g18
g19
g57
g31
I6
S'g'
g22
I1310
I75438
tp72
a(g18
g19
g57
g31
I7
S'h'
g22
I3730
I75438
tp73
a(g18
g19
g57
g31
I8
S'l'
S'Incorrect'
p74
I1530
I75438
tp75
a(g18
g19
g57
g31
I9
S'i'
g22
I2931
I75438
tp76
a(g18
g19
g57
g31
I10
S'j'
g22
I9620
I75438
tp77
a(g18
g19
g57
g31
I11
S'k'
g22
I1580
I75438
tp78
a(g18
g19
g57
g31
I12
S'l'
g22
I2210
I75438
tp79
a(g18
g19
g57
g31
I13
S'm'
g22
I7761
I75438
tp80
a(g18
g19
g57
g31
I14
S'n'
g22
I2300
I75438
tp81
a(g18
g19
g57
g31
I15
S'o'
g22
I1010
I75438
tp82
a(g18
g19
g57
g31
I16
S'p'
g22
I1020
I75438
tp83
a(g18
g19
g57
g31
I17
S'q'
g22
I990
I75438
tp84
a(g18
g19
g57
g31
I18
S'r'
g22
I1310
I75438
tp85
a(g18
g19
g57
g31
I19
S's'
g22
I510
I75438
tp86
a(g18
g19
g57
g31
I20
S't'
g22
I1370
I75438
tp87
a(g18
g19
g57
g31
I21
S'w'
g74
I3170
I75438
tp88
a(g18
g19
g57
g31
I22
S'u'
g22
I3721
I75438
tp89
a(g18
g19
g57
g31
I23
S'w'
g74
I3530
I75438
tp90
a(g18
g19
g57
g31
I24
S'v'
g22
I3750
I75438
tp91
a(g18
g19
g57
g31
I25
S'w'
g22
I3420
I75438
tp92
a(g18
g19
g57
g31
I26
S'y'
g74
I1310
I75438
tp93
a(g18
g19
g57
g31
I27
S'x'
g22
I7951
I75438
tp94
a(g18
g19
g57
g31
I28
S'y'
g22
I980
I75438
tp95
a(g18
g19
S'number-letter'
p96
g21
I0
I1
g22
I2260
I11965
tp97
a(g18
g19
g96
g21
I1
S'a'
g22
I1180
I11965
tp98
a(g18
g19
g96
g21
I2
I2
g22
I1420
I11965
tp99
a(g18
g19
g96
g21
I3
S'b'
g22
I1730
I11965
tp100
a(g18
g19
g96
g21
I4
I3
g22
I2630
I11965
tp101
a(g18
g19
g96
g21
I5
S'c'
g22
I860
I11965
tp102
a(g18
g19
g96
g21
I6
I4
g22
I900
I11965
tp103
a(g18
g19
g96
g21
I7
S'd'
g22
I940
I11965
tp104
a(g18
g19
g96
g31
I0
I1
g22
I3250
I87501
tp105
a(g18
g19
g96
g31
I1
S'a'
g22
I771
I87501
tp106
a(g18
g19
g96
g31
I2
I2
g22
I1390
I87501
tp107
a(g18
g19
g96
g31
I3
S'b'
g22
I8251
I87501
tp108
a(g18
g19
g96
g31
I4
I3
g22
I2080
I87501
tp109
a(g18
g19
g96
g31
I5
S'c'
g22
I1180
I87501
tp110
a(g18
g19
g96
g31
I6
I4
g22
I1150
I87501
tp111
a(g18
g19
g96
g31
I7
S'd'
g22
I850
I87501
tp112
a(g18
g19
g96
g31
I8
I5
g22
I1240
I87501
tp113
a(g18
g19
g96
g31
I9
S'e'
g22
I900
I87501
tp114
a(g18
g19
g96
g31
I10
I6
g22
I4610
I87501
tp115
a(g18
g19
g96
g31
I11
S'f'
g22
I1560
I87501
tp116
a(g18
g19
g96
g31
I12
I7
g22
I3321
I87501
tp117
a(g18
g19
g96
g31
I13
S'h'
g74
I5060
I87501
tp118
a(g18
g19
g96
g31
I14
S'i'
g74
I7230
I87501
tp119
a(g18
g19
g96
g31
I15
S'g'
g22
I9161
I87501
tp120
a(g18
g19
g96
g31
I16
I8
g22
I5060
I87501
tp121
a(g18
g19
g96
g31
I17
S'h'
g22
I740
I87501
tp122
a(g18
g19
g96
g31
I18
I9
g22
I2990
I87501
tp123
a(g18
g19
g96
g31
I19
S'i'
g22
I1070
I87501
tp124
a(g18
g19
g96
g31
I20
I10
g22
I2201
I87501
tp125
a(g18
g19
g96
g31
I21
S'j'
g22
I8020
I87501
tp126
a(g18
g19
g96
g31
I22
I11
g22
I1200
I87501
tp127
a(g18
g19
g96
g31
I23
S'k'
g22
I1320
I87501
tp128
a(g18
g19
g96
g31
I24
I12
g22
I5400
I87501
tp129
a(g18
g19
g96
g31
I25
S'l'
g22
I2621
I87501
tp130
a(g18
g19
g96
g31
I26
I13
g22
I4750
I87501
tp131
asS'output_format'
p132
(lp133
(S'proband_id'
p134
c__builtin__
str
p135
tp136
a(S'test_name'
p137
g135
tp138
a(S'phase'
p139
g135
tp140
a(S'trial_type'
p141
g135
tp142
a(S'n'
c__builtin__
int
p143
tp144
a(S'rsp'
p145
g135
tp146
a(S'corr'
p147
g135
tp148
a(S'rt'
p149
g143
tp150
a(S'total_time'
p151
g143
tp152
asg134
g18
sS'filename'
p153
S'4386_ctrails.data'
p154
sS'initialised'
p155
g8
(S'\x07\xdf\x05\x08\x0b/\x0f\x0b\xc3\xb8'
tRp156
sS'last_udated'
p157
g8
(S'\x07\xdf\x05\x08\x0b/\x0f\x0b\xc3\xb8'
tRp158
sg137
S'ctrails'
p159
sS'directory'
p160
S'c:\\Charlie\\charlie\\data\\raw'
p161
sS'user_id'
p162
S'sbuccheri'
p163
sS'test_started'
p164
I01
sS'abs_filename'
p165
S'c:\\Charlie\\charlie\\data\\raw\\4386_ctrails.data'
p166
sS'date_started'
p167
g8
(S'\x07\xdf\x05\x08\x0b0\x11\x01\xd4\xc0'
tRp168
sS'log'
p169
(lp170
(S'2015-05-08 11:47:15.771000'
S'instance created'
p171
tp172
a(S'2015-05-08 11:48:17.133000'
S'instance updated'
p173
tp174
a(S'2015-05-08 11:48:17.143000'
S'pandas DataFrame of data created'
p175
tp176
a(S'2015-05-08 11:48:17.151000'
S'data saved as csv to c:\\Charlie\\charlie\\data\\csv\\4386_ctrails.csv'
tp177
a(S'2015-05-08 11:49:03.159000'
g173
tp178
a(S'2015-05-08 11:49:03.169000'
g175
tp179
a(S'2015-05-08 11:49:03.173000'
S'data saved as csv to c:\\Charlie\\charlie\\data\\csv\\4386_ctrails.csv'
tp180
a(S'2015-05-08 11:49:22.597000'
g173
tp181
a(S'2015-05-08 11:49:22.607000'
g175
tp182
a(S'2015-05-08 11:49:22.611000'
S'data saved as csv to c:\\Charlie\\charlie\\data\\csv\\4386_ctrails.csv'
tp183
a(S'2015-05-08 11:50:52.569000'
g173
tp184
a(S'2015-05-08 11:50:52.579000'
g175
tp185
a(S'2015-05-08 11:50:52.583000'
S'data saved as csv to c:\\Charlie\\charlie\\data\\csv\\4386_ctrails.csv'
tp186
a(S'2015-05-08 11:51:34.911000'
g173
tp187
a(S'2015-05-08 11:51:34.922000'
g175
tp188
a(S'2015-05-08 11:51:34.926000'
S'data saved as csv to c:\\Charlie\\charlie\\data\\csv\\4386_ctrails.csv'
tp189
a(S'2015-05-08 11:53:13.651000'
g173
tp190
a(S'2015-05-08 11:53:13.662000'
g175
tp191
a(S'2015-05-08 11:53:13.666000'
S'data saved as csv to c:\\Charlie\\charlie\\data\\csv\\4386_ctrails.csv'
tp192
asb.