(icharlie.tools.data
Data
p1
(dp2
S'lang'
p3
S'EN'
p4
sS'control'
p5
(lp6
sS'last_updated'
p7
cdatetime
datetime
p8
(S'\x07\xdf\x05\x12\n\x15$\x03\xef\xd0'
tRp9
sS'last_opened'
p10
g8
(S'\x07\xdf\x05\x12\n\x0e-\x05Kx'
tRp11
sS'proj_id'
p12
S'connectivity'
p13
sS'date_done'
p14
g8
(S'\x07\xdf\x05\x12\n\x15$\x03\xcc\xa8'
tRp15
sS'test_done'
p16
I01
sS'data'
p17
(lp18
(S'4387'
p19
S'verbal_fluency'
p20
I0
S'True'
p21
tp22
a(g19
g20
I0
g21
tp23
a(g19
g20
I0
g21
tp24
a(g19
g20
I0
g21
tp25
a(g19
g20
I0
g21
tp26
a(g19
g20
I0
g21
tp27
a(g19
g20
I0
S'False'
p28
tp29
a(g19
g20
I0
g21
tp30
a(g19
g20
I1
g21
tp31
a(g19
g20
I1
g21
tp32
a(g19
g20
I1
g21
tp33
a(g19
g20
I1
g21
tp34
a(g19
g20
I1
g21
tp35
a(g19
g20
I1
g21
tp36
a(g19
g20
I1
g21
tp37
a(g19
g20
I2
g21
tp38
a(g19
g20
I2
g21
tp39
a(g19
g20
I2
g21
tp40
a(g19
g20
I2
g21
tp41
a(g19
g20
I2
g21
tp42
a(g19
g20
I2
g21
tp43
a(g19
g20
I2
g21
tp44
a(g19
g20
I2
g21
tp45
a(g19
g20
I2
g21
tp46
a(g19
g20
I2
g21
tp47
a(g19
g20
I2
g21
tp48
a(g19
g20
I2
g21
tp49
a(g19
g20
I2
g21
tp50
a(g19
g20
I2
g21
tp51
a(g19
g20
I2
g21
tp52
a(g19
g20
I2
g28
tp53
a(g19
g20
I3
g21
tp54
a(g19
g20
I3
g21
tp55
a(g19
g20
I3
g21
tp56
a(g19
g20
I3
g21
tp57
a(g19
g20
I3
g21
tp58
a(g19
g20
I3
g21
tp59
a(g19
g20
I3
g21
tp60
a(g19
g20
I3
g21
tp61
a(g19
g20
I3
g21
tp62
a(g19
g20
I3
g21
tp63
a(g19
g20
I3
g21
tp64
a(g19
g20
I3
g21
tp65
a(g19
g20
I3
g21
tp66
a(g19
g20
I3
g21
tp67
a(g19
g20
I3
g21
tp68
a(g19
g20
I3
g21
tp69
a(g19
g20
I3
g21
tp70
a(g19
g20
I3
g21
tp71
asS'output_format'
p72
(lp73
(S'proband_id'
p74
c__builtin__
str
p75
tp76
a(S'test_name'
p77
g75
tp78
a(S'trialn'
p79
c__builtin__
int
p80
tp81
a(S'rsp'
p82
g75
tp83
asg74
g19
sS'filename'
p84
S'4387_verbal_fluency.data'
p85
sS'initialised'
p86
g8
(S'\x07\xdf\x05\x12\n\x0e-\x05Kx'
tRp87
sS'last_udated'
p88
g8
(S'\x07\xdf\x05\x12\n\x0e-\x05Kx'
tRp89
sg77
S'verbal_fluency'
p90
sS'directory'
p91
S'c:\\Charlie\\charlie\\data\\raw'
p92
sS'user_id'
p93
S'sbuccheri'
p94
sS'test_started'
p95
I01
sS'abs_filename'
p96
S'c:\\Charlie\\charlie\\data\\raw\\4387_verbal_fluency.data'
p97
sS'date_started'
p98
g8
(S'\x07\xdf\x05\x12\n\x11(\x0e!0'
tRp99
sS'log'
p100
(lp101
(S'2015-05-18 10:14:45.347000'
S'instance created'
p102
tp103
a(S'2015-05-18 10:17:40.939000'
S'instance updated'
p104
tp105
a(S'2015-05-18 10:17:40.944000'
S'pandas DataFrame of data created'
p106
tp107
a(S'2015-05-18 10:17:40.952000'
S'data saved as csv to c:\\Charlie\\charlie\\data\\csv\\4387_verbal_fluency.csv'
tp108
a(S'2015-05-18 10:17:45.614000'
g104
tp109
a(S'2015-05-18 10:17:45.620000'
g106
tp110
a(S'2015-05-18 10:17:45.624000'
S'data saved as csv to c:\\Charlie\\charlie\\data\\csv\\4387_verbal_fluency.csv'
tp111
a(S'2015-05-18 10:18:50.786000'
g104
tp112
a(S'2015-05-18 10:18:50.791000'
g106
tp113
a(S'2015-05-18 10:18:50.795000'
S'data saved as csv to c:\\Charlie\\charlie\\data\\csv\\4387_verbal_fluency.csv'
tp114
a(S'2015-05-18 10:18:58.497000'
g104
tp115
a(S'2015-05-18 10:18:58.502000'
g106
tp116
a(S'2015-05-18 10:18:58.506000'
S'data saved as csv to c:\\Charlie\\charlie\\data\\csv\\4387_verbal_fluency.csv'
tp117
a(S'2015-05-18 10:20:04.142000'
g104
tp118
a(S'2015-05-18 10:20:04.148000'
g106
tp119
a(S'2015-05-18 10:20:04.151000'
S'data saved as csv to c:\\Charlie\\charlie\\data\\csv\\4387_verbal_fluency.csv'
tp120
a(S'2015-05-18 10:20:30.964000'
g104
tp121
a(S'2015-05-18 10:20:30.970000'
g106
tp122
a(S'2015-05-18 10:20:30.973000'
S'data saved as csv to c:\\Charlie\\charlie\\data\\csv\\4387_verbal_fluency.csv'
tp123
a(S'2015-05-18 10:21:36.249000'
g104
tp124
a(S'2015-05-18 10:21:36.254000'
g106
tp125
a(S'2015-05-18 10:21:36.258000'
S'data saved as csv to c:\\Charlie\\charlie\\data\\csv\\4387_verbal_fluency.csv'
tp126
asb.