(icharlie.tools.data
Data
p1
(dp2
S'lang'
p3
S'EN'
p4
sS'control'
p5
(lp6
sS'last_updated'
p7
cdatetime
datetime
p8
(S"\x07\xdf\x05\x0c\x0f\x17'\x08\xb2\x90"
tRp9
sS'last_opened'
p10
g8
(S'\x07\xdf\x05\x0c\x0f\x103\x0bRp'
tRp11
sS'proj_id'
p12
S'connectivity'
p13
sS'date_done'
p14
NsS'test_done'
p15
I01
sS'data'
p16
(lp17
(S'4389'
p18
S'switching'
p19
S'practice'
p20
I0
S'Position'
p21
S'Left'
p22
S'Right'
p23
S'n/a'
p24
S'Incongruent'
p25
S'c:\\Charlie\\charlie\\stimuli\\visual\\switching\\arrow_blue_right.png'
g22
S'Right'
p26
I3340
tp27
a(g18
g19
g20
I1
g21
g22
g23
S'Non-switch'
p28
g25
S'c:\\Charlie\\charlie\\stimuli\\visual\\switching\\arrow_blue_right.png'
g22
S'Left'
p29
I24562
tp30
a(g18
g19
g20
I2
S'Direction'
p31
g22
g23
S'Switch'
p32
g25
S'c:\\Charlie\\charlie\\stimuli\\visual\\switching\\arrow_red_right.png'
g23
g26
I1680
tp33
a(g18
g19
g20
I3
g31
g23
g22
g28
g25
S'c:\\Charlie\\charlie\\stimuli\\visual\\switching\\arrow_red_left.png'
g22
g29
I1810
tp34
a(g18
g19
g20
I4
g21
g23
g23
g32
S'Congruent'
p35
S'c:\\Charlie\\charlie\\stimuli\\visual\\switching\\arrow_blue_right.png'
g23
g26
I1690
tp36
a(g18
g19
g20
I5
g21
g23
g22
g28
g25
S'c:\\Charlie\\charlie\\stimuli\\visual\\switching\\arrow_blue_left.png'
g23
g26
I1940
tp37
a(g18
g19
g20
I6
g31
g22
g22
g32
g35
S'c:\\Charlie\\charlie\\stimuli\\visual\\switching\\arrow_red_left.png'
g22
g29
I2611
tp38
a(g18
g19
g20
I7
g31
g23
g22
g28
g25
S'c:\\Charlie\\charlie\\stimuli\\visual\\switching\\arrow_red_left.png'
g22
g29
I1220
tp39
a(g18
g19
g20
I8
g21
g22
g22
g32
g35
S'c:\\Charlie\\charlie\\stimuli\\visual\\switching\\arrow_blue_left.png'
g22
g29
I1350
tp40
a(g18
g19
S'predictable'
p41
I0
g21
g22
g22
g24
g35
S'c:\\Charlie\\charlie\\stimuli\\visual\\switching\\arrow_blue_left.png'
g22
g29
I1080
tp42
a(g18
g19
g41
I1
g21
g22
g22
g28
g35
S'c:\\Charlie\\charlie\\stimuli\\visual\\switching\\arrow_blue_left.png'
g22
g29
I3421
tp43
a(g18
g19
g41
I2
g31
g22
g22
g32
g35
S'c:\\Charlie\\charlie\\stimuli\\visual\\switching\\arrow_red_left.png'
g22
g29
I1600
tp44
a(g18
g19
g41
I3
g31
g23
g23
g28
g35
S'c:\\Charlie\\charlie\\stimuli\\visual\\switching\\arrow_red_right.png'
g23
g26
I1040
tp45
a(g18
g19
g41
I4
g21
g22
g23
g32
g25
S'c:\\Charlie\\charlie\\stimuli\\visual\\switching\\arrow_blue_right.png'
g22
g29
I1540
tp46
a(g18
g19
g41
I5
g21
g22
g23
g28
g25
S'c:\\Charlie\\charlie\\stimuli\\visual\\switching\\arrow_blue_right.png'
g22
g29
I1000
tp47
a(g18
g19
g41
I6
g31
g23
g23
g32
g35
S'c:\\Charlie\\charlie\\stimuli\\visual\\switching\\arrow_red_right.png'
g23
g26
I1340
tp48
a(g18
g19
g41
I7
g31
g22
g23
g28
g25
S'c:\\Charlie\\charlie\\stimuli\\visual\\switching\\arrow_red_right.png'
g23
g26
I1410
tp49
a(g18
g19
g41
I8
g21
g23
g23
g32
g35
S'c:\\Charlie\\charlie\\stimuli\\visual\\switching\\arrow_blue_right.png'
g23
g26
I1430
tp50
a(g18
g19
g41
I9
g21
g23
g23
g28
g35
S'c:\\Charlie\\charlie\\stimuli\\visual\\switching\\arrow_blue_right.png'
g23
g26
I810
tp51
a(g18
g19
g41
I10
g31
g22
g23
g32
g25
S'c:\\Charlie\\charlie\\stimuli\\visual\\switching\\arrow_red_right.png'
g23
g26
I980
tp52
a(g18
g19
g41
I11
g31
g22
g22
g28
g35
S'c:\\Charlie\\charlie\\stimuli\\visual\\switching\\arrow_red_left.png'
g22
g29
I790
tp53
a(g18
g19
g41
I12
g21
g23
g23
g32
g35
S'c:\\Charlie\\charlie\\stimuli\\visual\\switching\\arrow_blue_right.png'
g23
g26
I1831
tp54
a(g18
g19
g41
I13
g21
g22
g22
g28
g35
S'c:\\Charlie\\charlie\\stimuli\\visual\\switching\\arrow_blue_left.png'
g22
g29
I860
tp55
a(g18
g19
g41
I14
g31
g23
g23
g32
g35
S'c:\\Charlie\\charlie\\stimuli\\visual\\switching\\arrow_red_right.png'
g23
g26
I1490
tp56
a(g18
g19
g41
I15
g31
g22
g23
g28
g25
S'c:\\Charlie\\charlie\\stimuli\\visual\\switching\\arrow_red_right.png'
g23
g26
I660
tp57
a(g18
g19
g41
I16
g21
g23
g23
g32
g35
S'c:\\Charlie\\charlie\\stimuli\\visual\\switching\\arrow_blue_right.png'
g23
g26
I1560
tp58
a(g18
g19
g41
I17
g21
g22
g23
g28
g25
S'c:\\Charlie\\charlie\\stimuli\\visual\\switching\\arrow_blue_right.png'
g22
g29
I970
tp59
a(g18
g19
g41
I18
g31
g22
g22
g32
g35
S'c:\\Charlie\\charlie\\stimuli\\visual\\switching\\arrow_red_left.png'
g22
g29
I1260
tp60
a(g18
g19
g41
I19
g31
g22
g22
g28
g35
S'c:\\Charlie\\charlie\\stimuli\\visual\\switching\\arrow_red_left.png'
g22
g29
I620
tp61
a(g18
g19
g41
I20
g21
g22
g23
g32
g25
S'c:\\Charlie\\charlie\\stimuli\\visual\\switching\\arrow_blue_right.png'
g22
g29
I1770
tp62
a(g18
g19
g41
I21
g21
g22
g23
g28
g25
S'c:\\Charlie\\charlie\\stimuli\\visual\\switching\\arrow_blue_right.png'
g22
g29
I730
tp63
a(g18
g19
g41
I22
g31
g23
g23
g32
g35
S'c:\\Charlie\\charlie\\stimuli\\visual\\switching\\arrow_red_right.png'
g23
g26
I1660
tp64
a(g18
g19
g41
I23
g31
g23
g22
g28
g25
S'c:\\Charlie\\charlie\\stimuli\\visual\\switching\\arrow_red_left.png'
g22
g29
I1210
tp65
a(g18
g19
g41
I24
g21
g23
g22
g32
g25
S'c:\\Charlie\\charlie\\stimuli\\visual\\switching\\arrow_blue_left.png'
g23
g26
I1840
tp66
a(g18
g19
g41
I25
g21
g22
g22
g28
g35
S'c:\\Charlie\\charlie\\stimuli\\visual\\switching\\arrow_blue_left.png'
g22
g29
I1041
tp67
a(g18
g19
g41
I26
g31
g22
g22
g32
g35
S'c:\\Charlie\\charlie\\stimuli\\visual\\switching\\arrow_red_left.png'
g22
g29
I1170
tp68
a(g18
g19
g41
I27
g31
g22
g22
g28
g35
S'c:\\Charlie\\charlie\\stimuli\\visual\\switching\\arrow_red_left.png'
g22
g29
I820
tp69
a(g18
g19
g41
I28
g21
g22
g23
g32
g25
S'c:\\Charlie\\charlie\\stimuli\\visual\\switching\\arrow_blue_right.png'
g22
g29
I1300
tp70
a(g18
g19
g41
I29
g21
g23
g22
g28
g25
S'c:\\Charlie\\charlie\\stimuli\\visual\\switching\\arrow_blue_left.png'
g23
g26
I1090
tp71
a(g18
g19
g41
I30
g31
g22
g22
g32
g35
S'c:\\Charlie\\charlie\\stimuli\\visual\\switching\\arrow_red_left.png'
g22
g29
I2960
tp72
a(g18
g19
g41
I31
g31
g22
g22
g28
g35
S'c:\\Charlie\\charlie\\stimuli\\visual\\switching\\arrow_red_left.png'
g22
g29
I760
tp73
a(g18
g19
g41
I32
g21
g23
g23
g32
g35
S'c:\\Charlie\\charlie\\stimuli\\visual\\switching\\arrow_blue_right.png'
g23
g26
I1130
tp74
a(g18
g19
g41
I33
g21
g23
g23
g28
g35
S'c:\\Charlie\\charlie\\stimuli\\visual\\switching\\arrow_blue_right.png'
g23
g26
I900
tp75
a(g18
g19
g41
I34
g31
g23
g22
g32
g25
S'c:\\Charlie\\charlie\\stimuli\\visual\\switching\\arrow_red_left.png'
g22
g29
I1320
tp76
a(g18
g19
g41
I35
g31
g23
g23
g28
g35
S'c:\\Charlie\\charlie\\stimuli\\visual\\switching\\arrow_red_right.png'
g23
g26
I980
tp77
a(g18
g19
g41
I36
g21
g22
g23
g32
g25
S'c:\\Charlie\\charlie\\stimuli\\visual\\switching\\arrow_blue_right.png'
g22
g29
I1030
tp78
a(g18
g19
g41
I37
g21
g23
g23
g28
g35
S'c:\\Charlie\\charlie\\stimuli\\visual\\switching\\arrow_blue_right.png'
g23
g26
I2271
tp79
a(g18
g19
g41
I38
g31
g22
g23
g32
g25
S'c:\\Charlie\\charlie\\stimuli\\visual\\switching\\arrow_red_right.png'
g23
g26
I1100
tp80
a(g18
g19
g41
I39
g31
g23
g22
g28
g25
S'c:\\Charlie\\charlie\\stimuli\\visual\\switching\\arrow_red_left.png'
g22
g29
I810
tp81
a(g18
g19
g41
I40
g21
g23
g23
g32
g35
S'c:\\Charlie\\charlie\\stimuli\\visual\\switching\\arrow_blue_right.png'
g23
g26
I1150
tp82
a(g18
g19
g41
I41
g21
g23
g22
g28
g25
S'c:\\Charlie\\charlie\\stimuli\\visual\\switching\\arrow_blue_left.png'
g23
g26
I1200
tp83
a(g18
g19
g41
I42
g31
g22
g22
g32
g35
S'c:\\Charlie\\charlie\\stimuli\\visual\\switching\\arrow_red_left.png'
g22
g29
I1080
tp84
a(g18
g19
g41
I43
g31
g22
g22
g28
g35
S'c:\\Charlie\\charlie\\stimuli\\visual\\switching\\arrow_red_left.png'
g22
g29
I720
tp85
a(g18
g19
g41
I44
g21
g23
g22
g32
g25
S'c:\\Charlie\\charlie\\stimuli\\visual\\switching\\arrow_blue_left.png'
g23
g26
I860
tp86
a(g18
g19
g41
I45
g21
g23
g22
g28
g25
S'c:\\Charlie\\charlie\\stimuli\\visual\\switching\\arrow_blue_left.png'
g23
g26
I800
tp87
a(g18
g19
g41
I46
g31
g23
g22
g32
g25
S'c:\\Charlie\\charlie\\stimuli\\visual\\switching\\arrow_red_left.png'
g22
g29
I1220
tp88
a(g18
g19
g41
I47
g31
g22
g22
g28
g35
S'c:\\Charlie\\charlie\\stimuli\\visual\\switching\\arrow_red_left.png'
g22
g29
I710
tp89
a(g18
g19
g41
I48
g21
g23
g22
g32
g25
S'c:\\Charlie\\charlie\\stimuli\\visual\\switching\\arrow_blue_left.png'
g23
g26
I1190
tp90
a(g18
g19
g41
I49
g21
g22
g23
g28
g25
S'c:\\Charlie\\charlie\\stimuli\\visual\\switching\\arrow_blue_right.png'
g22
g29
I1050
tp91
a(g18
g19
g41
I50
g31
g23
g22
g32
g25
S'c:\\Charlie\\charlie\\stimuli\\visual\\switching\\arrow_red_left.png'
g22
g29
I1470
tp92
a(g18
g19
g41
I51
g31
g22
g22
g28
g35
S'c:\\Charlie\\charlie\\stimuli\\visual\\switching\\arrow_red_left.png'
g22
g29
I990
tp93
a(g18
g19
g41
I52
g21
g23
g22
g32
g25
S'c:\\Charlie\\charlie\\stimuli\\visual\\switching\\arrow_blue_left.png'
g23
g26
I1961
tp94
a(g18
g19
g41
I53
g21
g23
g22
g28
g25
S'c:\\Charlie\\charlie\\stimuli\\visual\\switching\\arrow_blue_left.png'
g23
g26
I650
tp95
a(g18
g19
g41
I54
g31
g23
g22
g32
g25
S'c:\\Charlie\\charlie\\stimuli\\visual\\switching\\arrow_red_left.png'
g22
g29
I1110
tp96
a(g18
g19
g41
I55
g31
g23
g23
g28
g35
S'c:\\Charlie\\charlie\\stimuli\\visual\\switching\\arrow_red_right.png'
g23
g26
I780
tp97
a(g18
g19
g41
I56
g21
g22
g23
g32
g25
S'c:\\Charlie\\charlie\\stimuli\\visual\\switching\\arrow_blue_right.png'
g22
g29
I1540
tp98
a(g18
g19
g41
I57
g21
g22
g23
g28
g25
S'c:\\Charlie\\charlie\\stimuli\\visual\\switching\\arrow_blue_right.png'
g22
g29
I610
tp99
a(g18
g19
g41
I58
g31
g23
g23
g32
g35
S'c:\\Charlie\\charlie\\stimuli\\visual\\switching\\arrow_red_right.png'
g23
g26
I1020
tp100
a(g18
g19
g41
I59
g31
g22
g22
g28
g35
S'c:\\Charlie\\charlie\\stimuli\\visual\\switching\\arrow_red_left.png'
g22
g29
I1010
tp101
a(g18
g19
g41
I60
g21
g22
g22
g32
g35
S'c:\\Charlie\\charlie\\stimuli\\visual\\switching\\arrow_blue_left.png'
g22
g29
I1550
tp102
a(g18
g19
g41
I61
g21
g22
g22
g28
g35
S'c:\\Charlie\\charlie\\stimuli\\visual\\switching\\arrow_blue_left.png'
g22
g29
I670
tp103
a(g18
g19
g41
I62
g31
g23
g23
g32
g35
S'c:\\Charlie\\charlie\\stimuli\\visual\\switching\\arrow_red_right.png'
g23
g26
I1740
tp104
a(g18
g19
g41
I63
g31
g23
g23
g28
g35
S'c:\\Charlie\\charlie\\stimuli\\visual\\switching\\arrow_red_right.png'
g23
g26
I720
tp105
a(g18
g19
g41
I64
g21
g23
g23
g32
g35
S'c:\\Charlie\\charlie\\stimuli\\visual\\switching\\arrow_blue_right.png'
g23
g26
I1820
tp106
a(g18
g19
g41
I65
g21
g22
g23
g28
g25
S'c:\\Charlie\\charlie\\stimuli\\visual\\switching\\arrow_blue_right.png'
g22
g29
I981
tp107
a(g18
g19
g41
I66
g31
g23
g23
g32
g35
S'c:\\Charlie\\charlie\\stimuli\\visual\\switching\\arrow_red_right.png'
g23
g26
I1060
tp108
a(g18
g19
g41
I67
g31
g22
g23
g28
g25
S'c:\\Charlie\\charlie\\stimuli\\visual\\switching\\arrow_red_right.png'
g23
g26
I1390
tp109
a(g18
g19
g41
I68
g21
g22
g22
g32
g35
S'c:\\Charlie\\charlie\\stimuli\\visual\\switching\\arrow_blue_left.png'
g22
g29
I1050
tp110
a(g18
g19
g41
I69
g21
g23
g22
g28
g25
S'c:\\Charlie\\charlie\\stimuli\\visual\\switching\\arrow_blue_left.png'
g23
g26
I1380
tp111
a(g18
g19
g41
I70
g31
g23
g22
g32
g25
S'c:\\Charlie\\charlie\\stimuli\\visual\\switching\\arrow_red_left.png'
g22
g29
I1400
tp112
a(g18
g19
g41
I71
g31
g23
g22
g28
g25
S'c:\\Charlie\\charlie\\stimuli\\visual\\switching\\arrow_red_left.png'
g22
g29
I860
tp113
a(g18
g19
g41
I72
g21
g23
g22
g32
g25
S'c:\\Charlie\\charlie\\stimuli\\visual\\switching\\arrow_blue_left.png'
g23
g26
I1200
tp114
a(g18
g19
g41
I73
g21
g22
g23
g28
g25
S'c:\\Charlie\\charlie\\stimuli\\visual\\switching\\arrow_blue_right.png'
g22
g29
I1610
tp115
a(g18
g19
g41
I74
g31
g23
g23
g32
g35
S'c:\\Charlie\\charlie\\stimuli\\visual\\switching\\arrow_red_right.png'
g23
g26
I1730
tp116
a(g18
g19
g41
I75
g31
g23
g23
g28
g35
S'c:\\Charlie\\charlie\\stimuli\\visual\\switching\\arrow_red_right.png'
g23
g26
I590
tp117
a(g18
g19
g41
I76
g21
g23
g23
g32
g35
S'c:\\Charlie\\charlie\\stimuli\\visual\\switching\\arrow_blue_right.png'
g23
g26
I1400
tp118
a(g18
g19
g41
I77
g21
g22
g23
g28
g25
S'c:\\Charlie\\charlie\\stimuli\\visual\\switching\\arrow_blue_right.png'
g22
g29
I930
tp119
a(g18
g19
g41
I78
g31
g22
g22
g32
g35
S'c:\\Charlie\\charlie\\stimuli\\visual\\switching\\arrow_red_left.png'
g22
g29
I1061
tp120
a(g18
g19
g41
I79
g31
g22
g23
g28
g25
S'c:\\Charlie\\charlie\\stimuli\\visual\\switching\\arrow_red_right.png'
g23
g26
I980
tp121
a(g18
g19
g41
I80
g21
g23
g22
g32
g25
S'c:\\Charlie\\charlie\\stimuli\\visual\\switching\\arrow_blue_left.png'
g23
g26
I1180
tp122
a(g18
g19
g41
I81
g21
g22
g22
g28
g35
S'c:\\Charlie\\charlie\\stimuli\\visual\\switching\\arrow_blue_left.png'
g22
g26
I950
tp123
a(g18
g19
g41
I82
g31
g22
g22
g32
g35
S'c:\\Charlie\\charlie\\stimuli\\visual\\switching\\arrow_red_left.png'
g22
g29
I3520
tp124
a(g18
g19
g41
I83
g31
g23
g23
g28
g35
S'c:\\Charlie\\charlie\\stimuli\\visual\\switching\\arrow_red_right.png'
g23
g26
I2480
tp125
a(g18
g19
g41
I84
g21
g23
g22
g32
g25
S'c:\\Charlie\\charlie\\stimuli\\visual\\switching\\arrow_blue_left.png'
g23
g26
I1210
tp126
a(g18
g19
g41
I85
g21
g23
g22
g28
g25
S'c:\\Charlie\\charlie\\stimuli\\visual\\switching\\arrow_blue_left.png'
g23
g26
I560
tp127
a(g18
g19
g41
I86
g31
g23
g23
g32
g35
S'c:\\Charlie\\charlie\\stimuli\\visual\\switching\\arrow_red_right.png'
g23
g26
I1060
tp128
a(g18
g19
g41
I87
g31
g23
g23
g28
g35
S'c:\\Charlie\\charlie\\stimuli\\visual\\switching\\arrow_red_right.png'
g23
g26
I1920
tp129
a(g18
g19
g41
I88
g21
g23
g23
g32
g35
S'c:\\Charlie\\charlie\\stimuli\\visual\\switching\\arrow_blue_right.png'
g23
g26
I1070
tp130
a(g18
g19
g41
I89
g21
g22
g23
g28
g25
S'c:\\Charlie\\charlie\\stimuli\\visual\\switching\\arrow_blue_right.png'
g22
g29
I941
tp131
a(g18
g19
g41
I90
g31
g23
g23
g32
g35
S'c:\\Charlie\\charlie\\stimuli\\visual\\switching\\arrow_red_right.png'
g23
g26
I1420
tp132
a(g18
g19
g41
I91
g31
g22
g22
g28
g35
S'c:\\Charlie\\charlie\\stimuli\\visual\\switching\\arrow_red_left.png'
g22
g29
I1040
tp133
a(g18
g19
g41
I92
g21
g22
g22
g32
g35
S'c:\\Charlie\\charlie\\stimuli\\visual\\switching\\arrow_blue_left.png'
g22
g29
I1090
tp134
a(g18
g19
g41
I93
g21
g23
g23
g28
g35
S'c:\\Charlie\\charlie\\stimuli\\visual\\switching\\arrow_blue_right.png'
g23
g26
I850
tp135
a(g18
g19
g41
I94
g31
g22
g22
g32
g35
S'c:\\Charlie\\charlie\\stimuli\\visual\\switching\\arrow_red_left.png'
g22
g29
I1280
tp136
a(g18
g19
g41
I95
g31
g22
g22
g28
g35
S'c:\\Charlie\\charlie\\stimuli\\visual\\switching\\arrow_red_left.png'
g22
g29
I690
tp137
a(g18
g19
g41
I96
g21
g22
g22
g32
g35
S'c:\\Charlie\\charlie\\stimuli\\visual\\switching\\arrow_blue_left.png'
g22
g29
I1470
tp138
a(g18
g19
g41
I97
g21
g23
g23
g28
g35
S'c:\\Charlie\\charlie\\stimuli\\visual\\switching\\arrow_blue_right.png'
g23
g26
I1090
tp139
a(g18
g19
g41
I98
g31
g22
g22
g32
g35
S'c:\\Charlie\\charlie\\stimuli\\visual\\switching\\arrow_red_left.png'
g22
g29
I980
tp140
a(g18
g19
g41
I99
g31
g22
g23
g28
g25
S'c:\\Charlie\\charlie\\stimuli\\visual\\switching\\arrow_red_right.png'
g23
g26
I780
tp141
a(g18
g19
g41
I100
g21
g22
g22
g32
g35
S'c:\\Charlie\\charlie\\stimuli\\visual\\switching\\arrow_blue_left.png'
g22
g29
I1380
tp142
a(g18
g19
S'random'
p143
I0
g21
g23
g23
g24
g35
S'c:\\Charlie\\charlie\\stimuli\\visual\\switching\\arrow_blue_right.png'
g23
g26
I1250
tp144
a(g18
g19
g143
I1
g21
g22
g22
g28
g35
S'c:\\Charlie\\charlie\\stimuli\\visual\\switching\\arrow_blue_left.png'
g22
g29
I2261
tp145
a(g18
g19
g143
I2
g21
g23
g23
g28
g35
S'c:\\Charlie\\charlie\\stimuli\\visual\\switching\\arrow_blue_right.png'
g23
g26
I930
tp146
a(g18
g19
g143
I3
g31
g22
g22
g32
g35
S'c:\\Charlie\\charlie\\stimuli\\visual\\switching\\arrow_red_left.png'
g22
g29
I1190
tp147
a(g18
g19
g143
I4
g21
g23
g22
g32
g25
S'c:\\Charlie\\charlie\\stimuli\\visual\\switching\\arrow_blue_left.png'
g23
g26
I1020
tp148
a(g18
g19
g143
I5
g21
g23
g22
g28
g25
S'c:\\Charlie\\charlie\\stimuli\\visual\\switching\\arrow_blue_left.png'
g23
g26
I750
tp149
a(g18
g19
g143
I6
g21
g22
g23
g28
g25
S'c:\\Charlie\\charlie\\stimuli\\visual\\switching\\arrow_blue_right.png'
g22
g29
I2010
tp150
a(g18
g19
g143
I7
g31
g22
g23
g32
g25
S'c:\\Charlie\\charlie\\stimuli\\visual\\switching\\arrow_red_right.png'
g23
g26
I920
tp151
a(g18
g19
g143
I8
g31
g22
g22
g28
g35
S'c:\\Charlie\\charlie\\stimuli\\visual\\switching\\arrow_red_left.png'
g22
g26
I770
tp152
a(g18
g19
g143
I9
g31
g23
g23
g28
g35
S'c:\\Charlie\\charlie\\stimuli\\visual\\switching\\arrow_red_right.png'
g23
g26
I1640
tp153
a(g18
g19
g143
I10
g21
g23
g23
g32
g35
S'c:\\Charlie\\charlie\\stimuli\\visual\\switching\\arrow_blue_right.png'
g23
g26
I1600
tp154
a(g18
g19
g143
I11
g21
g23
g22
g28
g25
S'c:\\Charlie\\charlie\\stimuli\\visual\\switching\\arrow_blue_left.png'
g23
g26
I1200
tp155
a(g18
g19
g143
I12
g21
g22
g23
g28
g25
S'c:\\Charlie\\charlie\\stimuli\\visual\\switching\\arrow_blue_right.png'
g22
g29
I1640
tp156
a(g18
g19
g143
I13
g21
g22
g22
g28
g35
S'c:\\Charlie\\charlie\\stimuli\\visual\\switching\\arrow_blue_left.png'
g22
g29
I890
tp157
a(g18
g19
g143
I14
g31
g23
g22
g32
g25
S'c:\\Charlie\\charlie\\stimuli\\visual\\switching\\arrow_red_left.png'
g22
g29
I1251
tp158
a(g18
g19
g143
I15
g31
g22
g23
g28
g25
S'c:\\Charlie\\charlie\\stimuli\\visual\\switching\\arrow_red_right.png'
g23
g26
I860
tp159
a(g18
g19
g143
I16
g31
g23
g23
g28
g35
S'c:\\Charlie\\charlie\\stimuli\\visual\\switching\\arrow_red_right.png'
g23
g26
I910
tp160
a(g18
g19
g143
I17
g21
g23
g22
g32
g25
S'c:\\Charlie\\charlie\\stimuli\\visual\\switching\\arrow_blue_left.png'
g23
g26
I1020
tp161
a(g18
g19
g143
I18
g31
g23
g22
g32
g25
S'c:\\Charlie\\charlie\\stimuli\\visual\\switching\\arrow_red_left.png'
g22
g29
I980
tp162
a(g18
g19
g143
I19
g31
g22
g23
g28
g25
S'c:\\Charlie\\charlie\\stimuli\\visual\\switching\\arrow_red_right.png'
g23
g26
I810
tp163
a(g18
g19
g143
I20
g31
g22
g22
g28
g35
S'c:\\Charlie\\charlie\\stimuli\\visual\\switching\\arrow_red_left.png'
g22
g29
I760
tp164
a(g18
g19
g143
I21
g21
g22
g23
g32
g25
S'c:\\Charlie\\charlie\\stimuli\\visual\\switching\\arrow_blue_right.png'
g22
g29
I2180
tp165
a(g18
g19
g143
I22
g21
g23
g23
g28
g35
S'c:\\Charlie\\charlie\\stimuli\\visual\\switching\\arrow_blue_right.png'
g23
g26
I1070
tp166
a(g18
g19
g143
I23
g31
g23
g22
g32
g25
S'c:\\Charlie\\charlie\\stimuli\\visual\\switching\\arrow_red_left.png'
g22
g29
I1170
tp167
a(g18
g19
g143
I24
g21
g22
g22
g32
g35
S'c:\\Charlie\\charlie\\stimuli\\visual\\switching\\arrow_blue_left.png'
g22
g29
I990
tp168
a(g18
g19
g143
I25
g31
g23
g23
g32
g35
S'c:\\Charlie\\charlie\\stimuli\\visual\\switching\\arrow_red_right.png'
g23
g26
I1390
tp169
a(g18
g19
g143
I26
g31
g23
g22
g28
g25
S'c:\\Charlie\\charlie\\stimuli\\visual\\switching\\arrow_red_left.png'
g22
g29
I1450
tp170
a(g18
g19
g143
I27
g31
g23
g23
g28
g35
S'c:\\Charlie\\charlie\\stimuli\\visual\\switching\\arrow_red_right.png'
g23
g26
I830
tp171
a(g18
g19
g143
I28
g21
g23
g23
g32
g35
S'c:\\Charlie\\charlie\\stimuli\\visual\\switching\\arrow_blue_right.png'
g23
g26
I971
tp172
a(g18
g19
g143
I29
g31
g22
g23
g32
g25
S'c:\\Charlie\\charlie\\stimuli\\visual\\switching\\arrow_red_right.png'
g23
g26
I1080
tp173
a(g18
g19
g143
I30
g31
g23
g23
g28
g35
S'c:\\Charlie\\charlie\\stimuli\\visual\\switching\\arrow_red_right.png'
g23
g26
I1390
tp174
a(g18
g19
g143
I31
g31
g23
g23
g28
g35
S'c:\\Charlie\\charlie\\stimuli\\visual\\switching\\arrow_red_right.png'
g23
g26
I1450
tp175
a(g18
g19
g143
I32
g31
g22
g22
g28
g35
S'c:\\Charlie\\charlie\\stimuli\\visual\\switching\\arrow_red_left.png'
g22
g29
I890
tp176
a(g18
g19
g143
I33
g31
g23
g22
g28
g25
S'c:\\Charlie\\charlie\\stimuli\\visual\\switching\\arrow_red_left.png'
g22
g29
I850
tp177
a(g18
g19
g143
I34
g21
g23
g23
g32
g35
S'c:\\Charlie\\charlie\\stimuli\\visual\\switching\\arrow_blue_right.png'
g23
g26
I1110
tp178
a(g18
g19
g143
I35
g31
g22
g23
g32
g25
S'c:\\Charlie\\charlie\\stimuli\\visual\\switching\\arrow_red_right.png'
g23
g26
I1300
tp179
a(g18
g19
g143
I36
g21
g23
g22
g32
g25
S'c:\\Charlie\\charlie\\stimuli\\visual\\switching\\arrow_blue_left.png'
g23
g26
I1500
tp180
a(g18
g19
g143
I37
g21
g23
g23
g28
g35
S'c:\\Charlie\\charlie\\stimuli\\visual\\switching\\arrow_blue_right.png'
g23
g26
I920
tp181
a(g18
g19
g143
I38
g21
g23
g23
g28
g35
S'c:\\Charlie\\charlie\\stimuli\\visual\\switching\\arrow_blue_right.png'
g23
g26
I810
tp182
a(g18
g19
g143
I39
g21
g22
g22
g28
g35
S'c:\\Charlie\\charlie\\stimuli\\visual\\switching\\arrow_blue_left.png'
g22
g29
I790
tp183
a(g18
g19
g143
I40
g31
g22
g22
g32
g35
S'c:\\Charlie\\charlie\\stimuli\\visual\\switching\\arrow_red_left.png'
g22
g29
I2160
tp184
a(g18
g19
g143
I41
g21
g23
g23
g32
g35
S'c:\\Charlie\\charlie\\stimuli\\visual\\switching\\arrow_blue_right.png'
g23
g26
I1371
tp185
a(g18
g19
g143
I42
g31
g22
g23
g32
g25
S'c:\\Charlie\\charlie\\stimuli\\visual\\switching\\arrow_red_right.png'
g23
g26
I1940
tp186
a(g18
g19
g143
I43
g21
g22
g23
g32
g25
S'c:\\Charlie\\charlie\\stimuli\\visual\\switching\\arrow_blue_right.png'
g22
g29
I1620
tp187
a(g18
g19
g143
I44
g31
g22
g23
g32
g25
S'c:\\Charlie\\charlie\\stimuli\\visual\\switching\\arrow_red_right.png'
g23
g26
I2310
tp188
a(g18
g19
g143
I45
g21
g23
g22
g32
g25
S'c:\\Charlie\\charlie\\stimuli\\visual\\switching\\arrow_blue_left.png'
g23
g26
I2210
tp189
a(g18
g19
g143
I46
g21
g22
g22
g28
g35
S'c:\\Charlie\\charlie\\stimuli\\visual\\switching\\arrow_blue_left.png'
g22
g29
I1400
tp190
a(g18
g19
g143
I47
g21
g22
g22
g28
g35
S'c:\\Charlie\\charlie\\stimuli\\visual\\switching\\arrow_blue_left.png'
g22
g29
I1150
tp191
a(g18
g19
g143
I48
g31
g22
g22
g32
g35
S'c:\\Charlie\\charlie\\stimuli\\visual\\switching\\arrow_red_left.png'
g22
g29
I1161
tp192
a(g18
g19
g143
I49
g31
g22
g22
g28
g35
S'c:\\Charlie\\charlie\\stimuli\\visual\\switching\\arrow_red_left.png'
g22
g29
I710
tp193
a(g18
g19
g143
I50
g31
g23
g23
g28
g35
S'c:\\Charlie\\charlie\\stimuli\\visual\\switching\\arrow_red_right.png'
g23
g26
I750
tp194
a(g18
g19
g143
I51
g31
g23
g22
g28
g25
S'c:\\Charlie\\charlie\\stimuli\\visual\\switching\\arrow_red_left.png'
g22
g29
I930
tp195
a(g18
g19
g143
I52
g31
g22
g23
g28
g25
S'c:\\Charlie\\charlie\\stimuli\\visual\\switching\\arrow_red_right.png'
g23
g26
I921
tp196
a(g18
g19
g143
I53
g31
g23
g23
g28
g35
S'c:\\Charlie\\charlie\\stimuli\\visual\\switching\\arrow_red_right.png'
g23
g26
I800
tp197
a(g18
g19
g143
I54
g21
g23
g22
g32
g25
S'c:\\Charlie\\charlie\\stimuli\\visual\\switching\\arrow_blue_left.png'
g23
g26
I1010
tp198
a(g18
g19
g143
I55
g21
g22
g22
g28
g35
S'c:\\Charlie\\charlie\\stimuli\\visual\\switching\\arrow_blue_left.png'
g22
g29
I890
tp199
a(g18
g19
g143
I56
g31
g22
g22
g32
g35
S'c:\\Charlie\\charlie\\stimuli\\visual\\switching\\arrow_red_left.png'
g22
g29
I2120
tp200
a(g18
g19
g143
I57
g21
g22
g22
g32
g35
S'c:\\Charlie\\charlie\\stimuli\\visual\\switching\\arrow_blue_left.png'
g22
g29
I1260
tp201
a(g18
g19
g143
I58
g21
g22
g23
g28
g25
S'c:\\Charlie\\charlie\\stimuli\\visual\\switching\\arrow_blue_right.png'
g22
g26
I700
tp202
a(g18
g19
g143
I59
g31
g22
g22
g32
g35
S'c:\\Charlie\\charlie\\stimuli\\visual\\switching\\arrow_red_left.png'
g22
g29
I740
tp203
a(g18
g19
g143
I60
g21
g22
g23
g32
g25
S'c:\\Charlie\\charlie\\stimuli\\visual\\switching\\arrow_blue_right.png'
g22
g26
I2160
tp204
a(g18
g19
g143
I61
g21
g23
g23
g28
g35
S'c:\\Charlie\\charlie\\stimuli\\visual\\switching\\arrow_blue_right.png'
g23
g26
I3230
tp205
a(g18
g19
g143
I62
g31
g23
g22
g32
g25
S'c:\\Charlie\\charlie\\stimuli\\visual\\switching\\arrow_red_left.png'
g22
g29
I1710
tp206
a(g18
g19
g143
I63
g21
g23
g23
g32
g35
S'c:\\Charlie\\charlie\\stimuli\\visual\\switching\\arrow_blue_right.png'
g23
g26
I1441
tp207
a(g18
g19
g143
I64
g31
g22
g22
g32
g35
S'c:\\Charlie\\charlie\\stimuli\\visual\\switching\\arrow_red_left.png'
g22
g29
I1050
tp208
a(g18
g19
g143
I65
g31
g23
g22
g28
g25
S'c:\\Charlie\\charlie\\stimuli\\visual\\switching\\arrow_red_left.png'
g22
g29
I880
tp209
a(g18
g19
g143
I66
g21
g22
g23
g32
g25
S'c:\\Charlie\\charlie\\stimuli\\visual\\switching\\arrow_blue_right.png'
g22
g29
I1120
tp210
a(g18
g19
g143
I67
g21
g22
g23
g28
g25
S'c:\\Charlie\\charlie\\stimuli\\visual\\switching\\arrow_blue_right.png'
g22
g29
I3010
tp211
a(g18
g19
g143
I68
g31
g22
g22
g32
g35
S'c:\\Charlie\\charlie\\stimuli\\visual\\switching\\arrow_red_left.png'
g22
g29
I2270
tp212
a(g18
g19
g143
I69
g31
g23
g22
g28
g25
S'c:\\Charlie\\charlie\\stimuli\\visual\\switching\\arrow_red_left.png'
g22
g29
I880
tp213
a(g18
g19
g143
I70
g31
g23
g22
g28
g25
S'c:\\Charlie\\charlie\\stimuli\\visual\\switching\\arrow_red_left.png'
g22
g29
I800
tp214
a(g18
g19
g143
I71
g31
g23
g23
g28
g35
S'c:\\Charlie\\charlie\\stimuli\\visual\\switching\\arrow_red_right.png'
g23
g26
I550
tp215
a(g18
g19
g143
I72
g21
g22
g22
g32
g35
S'c:\\Charlie\\charlie\\stimuli\\visual\\switching\\arrow_blue_left.png'
g22
g29
I960
tp216
a(g18
g19
g143
I73
g21
g22
g23
g28
g25
S'c:\\Charlie\\charlie\\stimuli\\visual\\switching\\arrow_blue_right.png'
g22
g29
I1110
tp217
a(g18
g19
g143
I74
g31
g22
g23
g32
g25
S'c:\\Charlie\\charlie\\stimuli\\visual\\switching\\arrow_red_right.png'
g23
g26
I1350
tp218
a(g18
g19
g143
I75
g21
g22
g22
g32
g35
S'c:\\Charlie\\charlie\\stimuli\\visual\\switching\\arrow_blue_left.png'
g22
g29
I981
tp219
a(g18
g19
g143
I76
g31
g22
g22
g32
g35
S'c:\\Charlie\\charlie\\stimuli\\visual\\switching\\arrow_red_left.png'
g22
g29
I1280
tp220
a(g18
g19
g143
I77
g21
g22
g23
g32
g25
S'c:\\Charlie\\charlie\\stimuli\\visual\\switching\\arrow_blue_right.png'
g22
g29
I1450
tp221
a(g18
g19
g143
I78
g21
g22
g23
g28
g25
S'c:\\Charlie\\charlie\\stimuli\\visual\\switching\\arrow_blue_right.png'
g22
g29
I940
tp222
a(g18
g19
g143
I79
g31
g22
g22
g32
g35
S'c:\\Charlie\\charlie\\stimuli\\visual\\switching\\arrow_red_left.png'
g22
g29
I1390
tp223
a(g18
g19
g143
I80
g21
g23
g22
g32
g25
S'c:\\Charlie\\charlie\\stimuli\\visual\\switching\\arrow_blue_left.png'
g23
g26
I1770
tp224
a(g18
g19
g143
I81
g31
g23
g22
g32
g25
S'c:\\Charlie\\charlie\\stimuli\\visual\\switching\\arrow_red_left.png'
g22
g29
I2670
tp225
a(g18
g19
g143
I82
g31
g23
g22
g28
g25
S'c:\\Charlie\\charlie\\stimuli\\visual\\switching\\arrow_red_left.png'
g22
g29
I910
tp226
a(g18
g19
g143
I83
g21
g23
g23
g32
g35
S'c:\\Charlie\\charlie\\stimuli\\visual\\switching\\arrow_blue_right.png'
g23
g26
I890
tp227
a(g18
g19
g143
I84
g31
g23
g22
g32
g25
S'c:\\Charlie\\charlie\\stimuli\\visual\\switching\\arrow_red_left.png'
g22
g29
I780
tp228
a(g18
g19
g143
I85
g31
g22
g23
g28
g25
S'c:\\Charlie\\charlie\\stimuli\\visual\\switching\\arrow_red_right.png'
g23
g26
I1840
tp229
a(g18
g19
g143
I86
g21
g22
g23
g32
g25
S'c:\\Charlie\\charlie\\stimuli\\visual\\switching\\arrow_blue_right.png'
g22
g29
I1170
tp230
a(g18
g19
g143
I87
g31
g23
g23
g32
g35
S'c:\\Charlie\\charlie\\stimuli\\visual\\switching\\arrow_red_right.png'
g23
g26
I1131
tp231
a(g18
g19
g143
I88
g31
g23
g23
g28
g35
S'c:\\Charlie\\charlie\\stimuli\\visual\\switching\\arrow_red_right.png'
g23
g26
I790
tp232
a(g18
g19
g143
I89
g21
g23
g22
g32
g25
S'c:\\Charlie\\charlie\\stimuli\\visual\\switching\\arrow_blue_left.png'
g23
g26
I1840
tp233
a(g18
g19
g143
I90
g21
g22
g23
g28
g25
S'c:\\Charlie\\charlie\\stimuli\\visual\\switching\\arrow_blue_right.png'
g22
g29
I840
tp234
a(g18
g19
g143
I91
g21
g23
g22
g28
g25
S'c:\\Charlie\\charlie\\stimuli\\visual\\switching\\arrow_blue_left.png'
g23
g26
I880
tp235
a(g18
g19
g143
I92
g31
g22
g22
g32
g35
S'c:\\Charlie\\charlie\\stimuli\\visual\\switching\\arrow_red_left.png'
g22
g29
I1790
tp236
a(g18
g19
g143
I93
g21
g23
g23
g32
g35
S'c:\\Charlie\\charlie\\stimuli\\visual\\switching\\arrow_blue_right.png'
g23
g26
I1370
tp237
a(g18
g19
g143
I94
g31
g23
g23
g32
g35
S'c:\\Charlie\\charlie\\stimuli\\visual\\switching\\arrow_red_right.png'
g23
g26
I1890
tp238
a(g18
g19
g143
I95
g31
g22
g22
g28
g35
S'c:\\Charlie\\charlie\\stimuli\\visual\\switching\\arrow_red_left.png'
g22
g29
I1300
tp239
a(g18
g19
g143
I96
g21
g23
g23
g32
g35
S'c:\\Charlie\\charlie\\stimuli\\visual\\switching\\arrow_blue_right.png'
g23
g26
I1620
tp240
a(g18
g19
g143
I97
g21
g22
g22
g28
g35
S'c:\\Charlie\\charlie\\stimuli\\visual\\switching\\arrow_blue_left.png'
g22
g29
I690
tp241
a(g18
g19
g143
I98
g21
g23
g23
g28
g35
S'c:\\Charlie\\charlie\\stimuli\\visual\\switching\\arrow_blue_right.png'
g23
g26
I890
tp242
a(g18
g19
g143
I99
g21
g22
g22
g28
g35
S'c:\\Charlie\\charlie\\stimuli\\visual\\switching\\arrow_blue_left.png'
g22
g29
I720
tp243
a(g18
g19
g143
I100
g21
g23
g23
g28
g35
S'c:\\Charlie\\charlie\\stimuli\\visual\\switching\\arrow_blue_right.png'
p244
g23
g26
I1301
tp245
asS'output_format'
p246
(lp247
(S'proband_id'
p248
c__builtin__
str
p249
tp250
a(S'test_name'
p251
g249
tp252
a(S'phase'
p253
g249
tp254
a(S'trialn'
p255
c__builtin__
int
p256
tp257
a(S'task'
p258
g249
tp259
a(S'pos'
p260
g249
tp261
a(S'dir'
p262
g249
tp263
a(S'switch'
p264
g249
tp265
a(S'cong'
p266
g249
tp267
a(S'f'
g249
tp268
a(S'ans'
p269
g249
tp270
a(S'rsp'
p271
g249
tp272
a(S'rt'
p273
g256
tp274
asg248
g18
sS'filename'
p275
S'4389_switching.data'
p276
sS'initialised'
p277
g8
(S'\x07\xdf\x05\x0c\x0f\x103\x0bRp'
tRp278
sS'last_udated'
p279
g8
(S'\x07\xdf\x05\x0c\x0f\x103\x0bRp'
tRp280
sg251
S'switching'
p281
sS'directory'
p282
S'c:\\Charlie\\charlie\\data\\raw'
p283
sS'user_id'
p284
S'sbuccheri'
p285
sS'test_started'
p286
I01
sS'abs_filename'
p287
S'c:\\Charlie\\charlie\\data\\raw\\4389_switching.data'
p288
sS'date_started'
p289
g8
(S'\x07\xdf\x05\x0c\x0f\x11.\x00\xd2\xf0'
tRp290
sS'log'
p291
(lp292
(S'2015-05-12 15:16:51.742000'
S'instance created'
p293
tp294
a(S'2015-05-12 15:17:46.071000'
S'instance updated'
p295
tp296
a(S'2015-05-12 15:17:46.083000'
S'pandas DataFrame of data created'
p297
tp298
a(S'2015-05-12 15:17:46.089000'
S'data saved as csv to c:\\Charlie\\charlie\\data\\csv\\4389_switching.csv'
tp299
a(S'2015-05-12 15:18:11.684000'
g295
tp300
a(S'2015-05-12 15:18:11.696000'
g297
tp301
a(S'2015-05-12 15:18:11.700000'
S'data saved as csv to c:\\Charlie\\charlie\\data\\csv\\4389_switching.csv'
tp302
a(S'2015-05-12 15:18:14.414000'
g295
tp303
a(S'2015-05-12 15:18:14.426000'
g297
tp304
a(S'2015-05-12 15:18:14.430000'
S'data saved as csv to c:\\Charlie\\charlie\\data\\csv\\4389_switching.csv'
tp305
a(S'2015-05-12 15:18:17.273000'
g295
tp306
a(S'2015-05-12 15:18:17.285000'
g297
tp307
a(S'2015-05-12 15:18:17.289000'
S'data saved as csv to c:\\Charlie\\charlie\\data\\csv\\4389_switching.csv'
tp308
a(S'2015-05-12 15:18:20.013000'
g295
tp309
a(S'2015-05-12 15:18:20.022000'
g297
tp310
a(S'2015-05-12 15:18:20.025000'
S'data saved as csv to c:\\Charlie\\charlie\\data\\csv\\4389_switching.csv'
tp311
a(S'2015-05-12 15:18:22.997000'
g295
tp312
a(S'2015-05-12 15:18:23.009000'
g297
tp313
a(S'2015-05-12 15:18:23.013000'
S'data saved as csv to c:\\Charlie\\charlie\\data\\csv\\4389_switching.csv'
tp314
a(S'2015-05-12 15:18:26.656000'
g295
tp315
a(S'2015-05-12 15:18:26.668000'
g297
tp316
a(S'2015-05-12 15:18:26.672000'
S'data saved as csv to c:\\Charlie\\charlie\\data\\csv\\4389_switching.csv'
tp317
a(S'2015-05-12 15:18:28.927000'
g295
tp318
a(S'2015-05-12 15:18:28.939000'
g297
tp319
a(S'2015-05-12 15:18:28.942000'
S'data saved as csv to c:\\Charlie\\charlie\\data\\csv\\4389_switching.csv'
tp320
a(S'2015-05-12 15:18:31.326000'
g295
tp321
a(S'2015-05-12 15:18:31.334000'
g297
tp322
a(S'2015-05-12 15:18:31.337000'
S'data saved as csv to c:\\Charlie\\charlie\\data\\csv\\4389_switching.csv'
tp323
a(S'2015-05-12 15:18:39.837000'
g295
tp324
a(S'2015-05-12 15:18:39.849000'
g297
tp325
a(S'2015-05-12 15:18:39.852000'
S'data saved as csv to c:\\Charlie\\charlie\\data\\csv\\4389_switching.csv'
tp326
a(S'2015-05-12 15:18:43.406000'
g295
tp327
a(S'2015-05-12 15:18:43.418000'
g297
tp328
a(S'2015-05-12 15:18:43.421000'
S'data saved as csv to c:\\Charlie\\charlie\\data\\csv\\4389_switching.csv'
tp329
a(S'2015-05-12 15:18:45.154000'
g295
tp330
a(S'2015-05-12 15:18:45.167000'
g297
tp331
a(S'2015-05-12 15:18:45.171000'
S'data saved as csv to c:\\Charlie\\charlie\\data\\csv\\4389_switching.csv'
tp332
a(S'2015-05-12 15:18:46.346000'
g295
tp333
a(S'2015-05-12 15:18:46.358000'
g297
tp334
a(S'2015-05-12 15:18:46.361000'
S'data saved as csv to c:\\Charlie\\charlie\\data\\csv\\4389_switching.csv'
tp335
a(S'2015-05-12 15:18:48.035000'
g295
tp336
a(S'2015-05-12 15:18:48.047000'
g297
tp337
a(S'2015-05-12 15:18:48.051000'
S'data saved as csv to c:\\Charlie\\charlie\\data\\csv\\4389_switching.csv'
tp338
a(S'2015-05-12 15:18:49.187000'
g295
tp339
a(S'2015-05-12 15:18:49.199000'
g297
tp340
a(S'2015-05-12 15:18:49.203000'
S'data saved as csv to c:\\Charlie\\charlie\\data\\csv\\4389_switching.csv'
tp341
a(S'2015-05-12 15:18:50.678000'
g295
tp342
a(S'2015-05-12 15:18:50.690000'
g297
tp343
a(S'2015-05-12 15:18:50.694000'
S'data saved as csv to c:\\Charlie\\charlie\\data\\csv\\4389_switching.csv'
tp344
a(S'2015-05-12 15:18:52.239000'
g295
tp345
a(S'2015-05-12 15:18:52.252000'
g297
tp346
a(S'2015-05-12 15:18:52.256000'
S'data saved as csv to c:\\Charlie\\charlie\\data\\csv\\4389_switching.csv'
tp347
a(S'2015-05-12 15:18:53.821000'
g295
tp348
a(S'2015-05-12 15:18:53.834000'
g297
tp349
a(S'2015-05-12 15:18:53.838000'
S'data saved as csv to c:\\Charlie\\charlie\\data\\csv\\4389_switching.csv'
tp350
a(S'2015-05-12 15:18:54.783000'
g295
tp351
a(S'2015-05-12 15:18:54.796000'
g297
tp352
a(S'2015-05-12 15:18:54.800000'
S'data saved as csv to c:\\Charlie\\charlie\\data\\csv\\4389_switching.csv'
tp353
a(S'2015-05-12 15:18:55.915000'
g295
tp354
a(S'2015-05-12 15:18:55.927000'
g297
tp355
a(S'2015-05-12 15:18:55.931000'
S'data saved as csv to c:\\Charlie\\charlie\\data\\csv\\4389_switching.csv'
tp356
a(S'2015-05-12 15:18:56.854000'
g295
tp357
a(S'2015-05-12 15:18:56.866000'
g297
tp358
a(S'2015-05-12 15:18:56.870000'
S'data saved as csv to c:\\Charlie\\charlie\\data\\csv\\4389_switching.csv'
tp359
a(S'2015-05-12 15:18:58.837000'
g295
tp360
a(S'2015-05-12 15:18:58.846000'
g297
tp361
a(S'2015-05-12 15:18:58.848000'
S'data saved as csv to c:\\Charlie\\charlie\\data\\csv\\4389_switching.csv'
tp362
a(S'2015-05-12 15:18:59.842000'
g295
tp363
a(S'2015-05-12 15:18:59.854000'
g297
tp364
a(S'2015-05-12 15:18:59.858000'
S'data saved as csv to c:\\Charlie\\charlie\\data\\csv\\4389_switching.csv'
tp365
a(S'2015-05-12 15:19:01.483000'
g295
tp366
a(S'2015-05-12 15:19:01.496000'
g297
tp367
a(S'2015-05-12 15:19:01.500000'
S'data saved as csv to c:\\Charlie\\charlie\\data\\csv\\4389_switching.csv'
tp368
a(S'2015-05-12 15:19:02.293000'
g295
tp369
a(S'2015-05-12 15:19:02.298000'
g297
tp370
a(S'2015-05-12 15:19:02.299000'
S'data saved as csv to c:\\Charlie\\charlie\\data\\csv\\4389_switching.csv'
tp371
a(S'2015-05-12 15:19:03.993000'
g295
tp372
a(S'2015-05-12 15:19:04.004000'
g297
tp373
a(S'2015-05-12 15:19:04.006000'
S'data saved as csv to c:\\Charlie\\charlie\\data\\csv\\4389_switching.csv'
tp374
a(S'2015-05-12 15:19:05.111000'
g295
tp375
a(S'2015-05-12 15:19:05.123000'
g297
tp376
a(S'2015-05-12 15:19:05.127000'
S'data saved as csv to c:\\Charlie\\charlie\\data\\csv\\4389_switching.csv'
tp377
a(S'2015-05-12 15:19:06.522000'
g295
tp378
a(S'2015-05-12 15:19:06.535000'
g297
tp379
a(S'2015-05-12 15:19:06.539000'
S'data saved as csv to c:\\Charlie\\charlie\\data\\csv\\4389_switching.csv'
tp380
a(S'2015-05-12 15:19:07.294000'
g295
tp381
a(S'2015-05-12 15:19:07.304000'
g297
tp382
a(S'2015-05-12 15:19:07.307000'
S'data saved as csv to c:\\Charlie\\charlie\\data\\csv\\4389_switching.csv'
tp383
a(S'2015-05-12 15:19:09.212000'
g295
tp384
a(S'2015-05-12 15:19:09.225000'
g297
tp385
a(S'2015-05-12 15:19:09.230000'
S'data saved as csv to c:\\Charlie\\charlie\\data\\csv\\4389_switching.csv'
tp386
a(S'2015-05-12 15:19:10.096000'
g295
tp387
a(S'2015-05-12 15:19:10.108000'
g297
tp388
a(S'2015-05-12 15:19:10.113000'
S'data saved as csv to c:\\Charlie\\charlie\\data\\csv\\4389_switching.csv'
tp389
a(S'2015-05-12 15:19:11.908000'
g295
tp390
a(S'2015-05-12 15:19:11.921000'
g297
tp391
a(S'2015-05-12 15:19:11.924000'
S'data saved as csv to c:\\Charlie\\charlie\\data\\csv\\4389_switching.csv'
tp392
a(S'2015-05-12 15:19:13.268000'
g295
tp393
a(S'2015-05-12 15:19:13.280000'
g297
tp394
a(S'2015-05-12 15:19:13.285000'
S'data saved as csv to c:\\Charlie\\charlie\\data\\csv\\4389_switching.csv'
tp395
a(S'2015-05-12 15:19:15.260000'
g295
tp396
a(S'2015-05-12 15:19:15.273000'
g297
tp397
a(S'2015-05-12 15:19:15.277000'
S'data saved as csv to c:\\Charlie\\charlie\\data\\csv\\4389_switching.csv'
tp398
a(S'2015-05-12 15:19:16.453000'
g295
tp399
a(S'2015-05-12 15:19:16.465000'
g297
tp400
a(S'2015-05-12 15:19:16.470000'
S'data saved as csv to c:\\Charlie\\charlie\\data\\csv\\4389_switching.csv'
tp401
a(S'2015-05-12 15:19:17.756000'
g295
tp402
a(S'2015-05-12 15:19:17.760000'
g297
tp403
a(S'2015-05-12 15:19:17.761000'
S'data saved as csv to c:\\Charlie\\charlie\\data\\csv\\4389_switching.csv'
tp404
a(S'2015-05-12 15:19:18.716000'
g295
tp405
a(S'2015-05-12 15:19:18.729000'
g297
tp406
a(S'2015-05-12 15:19:18.733000'
S'data saved as csv to c:\\Charlie\\charlie\\data\\csv\\4389_switching.csv'
tp407
a(S'2015-05-12 15:19:20.168000'
g295
tp408
a(S'2015-05-12 15:19:20.177000'
g297
tp409
a(S'2015-05-12 15:19:20.179000'
S'data saved as csv to c:\\Charlie\\charlie\\data\\csv\\4389_switching.csv'
tp410
a(S'2015-05-12 15:19:21.404000'
g295
tp411
a(S'2015-05-12 15:19:21.417000'
g297
tp412
a(S'2015-05-12 15:19:21.421000'
S'data saved as csv to c:\\Charlie\\charlie\\data\\csv\\4389_switching.csv'
tp413
a(S'2015-05-12 15:19:24.517000'
g295
tp414
a(S'2015-05-12 15:19:24.527000'
g297
tp415
a(S'2015-05-12 15:19:24.530000'
S'data saved as csv to c:\\Charlie\\charlie\\data\\csv\\4389_switching.csv'
tp416
a(S'2015-05-12 15:19:25.425000'
g295
tp417
a(S'2015-05-12 15:19:25.437000'
g297
tp418
a(S'2015-05-12 15:19:25.442000'
S'data saved as csv to c:\\Charlie\\charlie\\data\\csv\\4389_switching.csv'
tp419
a(S'2015-05-12 15:19:26.707000'
g295
tp420
a(S'2015-05-12 15:19:26.717000'
g297
tp421
a(S'2015-05-12 15:19:26.719000'
S'data saved as csv to c:\\Charlie\\charlie\\data\\csv\\4389_switching.csv'
tp422
a(S'2015-05-12 15:19:27.754000'
g295
tp423
a(S'2015-05-12 15:19:27.768000'
g297
tp424
a(S'2015-05-12 15:19:27.772000'
S'data saved as csv to c:\\Charlie\\charlie\\data\\csv\\4389_switching.csv'
tp425
a(S'2015-05-12 15:19:29.233000'
g295
tp426
a(S'2015-05-12 15:19:29.245000'
g297
tp427
a(S'2015-05-12 15:19:29.250000'
S'data saved as csv to c:\\Charlie\\charlie\\data\\csv\\4389_switching.csv'
tp428
a(S'2015-05-12 15:19:30.366000'
g295
tp429
a(S'2015-05-12 15:19:30.379000'
g297
tp430
a(S'2015-05-12 15:19:30.384000'
S'data saved as csv to c:\\Charlie\\charlie\\data\\csv\\4389_switching.csv'
tp431
a(S'2015-05-12 15:19:31.550000'
g295
tp432
a(S'2015-05-12 15:19:31.562000'
g297
tp433
a(S'2015-05-12 15:19:31.567000'
S'data saved as csv to c:\\Charlie\\charlie\\data\\csv\\4389_switching.csv'
tp434
a(S'2015-05-12 15:19:33.974000'
g295
tp435
a(S'2015-05-12 15:19:33.988000'
g297
tp436
a(S'2015-05-12 15:19:33.992000'
S'data saved as csv to c:\\Charlie\\charlie\\data\\csv\\4389_switching.csv'
tp437
a(S'2015-05-12 15:19:35.229000'
g295
tp438
a(S'2015-05-12 15:19:35.238000'
g297
tp439
a(S'2015-05-12 15:19:35.241000'
S'data saved as csv to c:\\Charlie\\charlie\\data\\csv\\4389_switching.csv'
tp440
a(S'2015-05-12 15:19:36.185000'
g295
tp441
a(S'2015-05-12 15:19:36.198000'
g297
tp442
a(S'2015-05-12 15:19:36.203000'
S'data saved as csv to c:\\Charlie\\charlie\\data\\csv\\4389_switching.csv'
tp443
a(S'2015-05-12 15:19:37.489000'
g295
tp444
a(S'2015-05-12 15:19:37.502000'
g297
tp445
a(S'2015-05-12 15:19:37.506000'
S'data saved as csv to c:\\Charlie\\charlie\\data\\csv\\4389_switching.csv'
tp446
a(S'2015-05-12 15:19:38.844000'
g295
tp447
a(S'2015-05-12 15:19:38.857000'
g297
tp448
a(S'2015-05-12 15:19:38.862000'
S'data saved as csv to c:\\Charlie\\charlie\\data\\csv\\4389_switching.csv'
tp449
a(S'2015-05-12 15:19:40.076000'
g295
tp450
a(S'2015-05-12 15:19:40.089000'
g297
tp451
a(S'2015-05-12 15:19:40.093000'
S'data saved as csv to c:\\Charlie\\charlie\\data\\csv\\4389_switching.csv'
tp452
a(S'2015-05-12 15:19:40.947000'
g295
tp453
a(S'2015-05-12 15:19:40.960000'
g297
tp454
a(S'2015-05-12 15:19:40.964000'
S'data saved as csv to c:\\Charlie\\charlie\\data\\csv\\4389_switching.csv'
tp455
a(S'2015-05-12 15:19:41.958000'
g295
tp456
a(S'2015-05-12 15:19:41.971000'
g297
tp457
a(S'2015-05-12 15:19:41.975000'
S'data saved as csv to c:\\Charlie\\charlie\\data\\csv\\4389_switching.csv'
tp458
a(S'2015-05-12 15:19:42.912000'
g295
tp459
a(S'2015-05-12 15:19:42.926000'
g297
tp460
a(S'2015-05-12 15:19:42.931000'
S'data saved as csv to c:\\Charlie\\charlie\\data\\csv\\4389_switching.csv'
tp461
a(S'2015-05-12 15:19:44.287000'
g295
tp462
a(S'2015-05-12 15:19:44.300000'
g297
tp463
a(S'2015-05-12 15:19:44.305000'
S'data saved as csv to c:\\Charlie\\charlie\\data\\csv\\4389_switching.csv'
tp464
a(S'2015-05-12 15:19:45.151000'
g295
tp465
a(S'2015-05-12 15:19:45.163000'
g297
tp466
a(S'2015-05-12 15:19:45.166000'
S'data saved as csv to c:\\Charlie\\charlie\\data\\csv\\4389_switching.csv'
tp467
a(S'2015-05-12 15:19:46.491000'
g295
tp468
a(S'2015-05-12 15:19:46.504000'
g297
tp469
a(S'2015-05-12 15:19:46.509000'
S'data saved as csv to c:\\Charlie\\charlie\\data\\csv\\4389_switching.csv'
tp470
a(S'2015-05-12 15:19:47.696000'
g295
tp471
a(S'2015-05-12 15:19:47.709000'
g297
tp472
a(S'2015-05-12 15:19:47.712000'
S'data saved as csv to c:\\Charlie\\charlie\\data\\csv\\4389_switching.csv'
tp473
a(S'2015-05-12 15:19:49.318000'
g295
tp474
a(S'2015-05-12 15:19:49.331000'
g297
tp475
a(S'2015-05-12 15:19:49.334000'
S'data saved as csv to c:\\Charlie\\charlie\\data\\csv\\4389_switching.csv'
tp476
a(S'2015-05-12 15:19:50.459000'
g295
tp477
a(S'2015-05-12 15:19:50.472000'
g297
tp478
a(S'2015-05-12 15:19:50.475000'
S'data saved as csv to c:\\Charlie\\charlie\\data\\csv\\4389_switching.csv'
tp479
a(S'2015-05-12 15:19:52.570000'
g295
tp480
a(S'2015-05-12 15:19:52.583000'
g297
tp481
a(S'2015-05-12 15:19:52.588000'
S'data saved as csv to c:\\Charlie\\charlie\\data\\csv\\4389_switching.csv'
tp482
a(S'2015-05-12 15:19:53.375000'
g295
tp483
a(S'2015-05-12 15:19:53.388000'
g297
tp484
a(S'2015-05-12 15:19:53.393000'
S'data saved as csv to c:\\Charlie\\charlie\\data\\csv\\4389_switching.csv'
tp485
a(S'2015-05-12 15:19:54.639000'
g295
tp486
a(S'2015-05-12 15:19:54.648000'
g297
tp487
a(S'2015-05-12 15:19:54.651000'
S'data saved as csv to c:\\Charlie\\charlie\\data\\csv\\4389_switching.csv'
tp488
a(S'2015-05-12 15:19:55.567000'
g295
tp489
a(S'2015-05-12 15:19:55.581000'
g297
tp490
a(S'2015-05-12 15:19:55.586000'
S'data saved as csv to c:\\Charlie\\charlie\\data\\csv\\4389_switching.csv'
tp491
a(S'2015-05-12 15:19:57.262000'
g295
tp492
a(S'2015-05-12 15:19:57.275000'
g297
tp493
a(S'2015-05-12 15:19:57.281000'
S'data saved as csv to c:\\Charlie\\charlie\\data\\csv\\4389_switching.csv'
tp494
a(S'2015-05-12 15:19:58.028000'
g295
tp495
a(S'2015-05-12 15:19:58.041000'
g297
tp496
a(S'2015-05-12 15:19:58.046000'
S'data saved as csv to c:\\Charlie\\charlie\\data\\csv\\4389_switching.csv'
tp497
a(S'2015-05-12 15:19:59.203000'
g295
tp498
a(S'2015-05-12 15:19:59.216000'
g297
tp499
a(S'2015-05-12 15:19:59.221000'
S'data saved as csv to c:\\Charlie\\charlie\\data\\csv\\4389_switching.csv'
tp500
a(S'2015-05-12 15:20:00.367000'
g295
tp501
a(S'2015-05-12 15:20:00.381000'
g297
tp502
a(S'2015-05-12 15:20:00.386000'
S'data saved as csv to c:\\Charlie\\charlie\\data\\csv\\4389_switching.csv'
tp503
a(S'2015-05-12 15:20:02.073000'
g295
tp504
a(S'2015-05-12 15:20:02.085000'
g297
tp505
a(S'2015-05-12 15:20:02.088000'
S'data saved as csv to c:\\Charlie\\charlie\\data\\csv\\4389_switching.csv'
tp506
a(S'2015-05-12 15:20:02.893000'
g295
tp507
a(S'2015-05-12 15:20:02.907000'
g297
tp508
a(S'2015-05-12 15:20:02.912000'
S'data saved as csv to c:\\Charlie\\charlie\\data\\csv\\4389_switching.csv'
tp509
a(S'2015-05-12 15:20:04.789000'
g295
tp510
a(S'2015-05-12 15:20:04.803000'
g297
tp511
a(S'2015-05-12 15:20:04.808000'
S'data saved as csv to c:\\Charlie\\charlie\\data\\csv\\4389_switching.csv'
tp512
a(S'2015-05-12 15:20:05.665000'
g295
tp513
a(S'2015-05-12 15:20:05.678000'
g297
tp514
a(S'2015-05-12 15:20:05.683000'
S'data saved as csv to c:\\Charlie\\charlie\\data\\csv\\4389_switching.csv'
tp515
a(S'2015-05-12 15:20:07.638000'
g295
tp516
a(S'2015-05-12 15:20:07.651000'
g297
tp517
a(S'2015-05-12 15:20:07.656000'
S'data saved as csv to c:\\Charlie\\charlie\\data\\csv\\4389_switching.csv'
tp518
a(S'2015-05-12 15:20:08.774000'
g295
tp519
a(S'2015-05-12 15:20:08.787000'
g297
tp520
a(S'2015-05-12 15:20:08.792000'
S'data saved as csv to c:\\Charlie\\charlie\\data\\csv\\4389_switching.csv'
tp521
a(S'2015-05-12 15:20:09.988000'
g295
tp522
a(S'2015-05-12 15:20:10.002000'
g297
tp523
a(S'2015-05-12 15:20:10.005000'
S'data saved as csv to c:\\Charlie\\charlie\\data\\csv\\4389_switching.csv'
tp524
a(S'2015-05-12 15:20:11.530000'
g295
tp525
a(S'2015-05-12 15:20:11.539000'
g297
tp526
a(S'2015-05-12 15:20:11.542000'
S'data saved as csv to c:\\Charlie\\charlie\\data\\csv\\4389_switching.csv'
tp527
a(S'2015-05-12 15:20:12.727000'
g295
tp528
a(S'2015-05-12 15:20:12.740000'
g297
tp529
a(S'2015-05-12 15:20:12.746000'
S'data saved as csv to c:\\Charlie\\charlie\\data\\csv\\4389_switching.csv'
tp530
a(S'2015-05-12 15:20:14.263000'
g295
tp531
a(S'2015-05-12 15:20:14.277000'
g297
tp532
a(S'2015-05-12 15:20:14.282000'
S'data saved as csv to c:\\Charlie\\charlie\\data\\csv\\4389_switching.csv'
tp533
a(S'2015-05-12 15:20:15.819000'
g295
tp534
a(S'2015-05-12 15:20:15.833000'
g297
tp535
a(S'2015-05-12 15:20:15.838000'
S'data saved as csv to c:\\Charlie\\charlie\\data\\csv\\4389_switching.csv'
tp536
a(S'2015-05-12 15:20:16.835000'
g295
tp537
a(S'2015-05-12 15:20:16.846000'
g297
tp538
a(S'2015-05-12 15:20:16.848000'
S'data saved as csv to c:\\Charlie\\charlie\\data\\csv\\4389_switching.csv'
tp539
a(S'2015-05-12 15:20:18.184000'
g295
tp540
a(S'2015-05-12 15:20:18.196000'
g297
tp541
a(S'2015-05-12 15:20:18.199000'
S'data saved as csv to c:\\Charlie\\charlie\\data\\csv\\4389_switching.csv'
tp542
a(S'2015-05-12 15:20:19.944000'
g295
tp543
a(S'2015-05-12 15:20:19.957000'
g297
tp544
a(S'2015-05-12 15:20:19.963000'
S'data saved as csv to c:\\Charlie\\charlie\\data\\csv\\4389_switching.csv'
tp545
a(S'2015-05-12 15:20:21.829000'
g295
tp546
a(S'2015-05-12 15:20:21.843000'
g297
tp547
a(S'2015-05-12 15:20:21.849000'
S'data saved as csv to c:\\Charlie\\charlie\\data\\csv\\4389_switching.csv'
tp548
a(S'2015-05-12 15:20:22.576000'
g295
tp549
a(S'2015-05-12 15:20:22.589000'
g297
tp550
a(S'2015-05-12 15:20:22.595000'
S'data saved as csv to c:\\Charlie\\charlie\\data\\csv\\4389_switching.csv'
tp551
a(S'2015-05-12 15:20:24.132000'
g295
tp552
a(S'2015-05-12 15:20:24.145000'
g297
tp553
a(S'2015-05-12 15:20:24.151000'
S'data saved as csv to c:\\Charlie\\charlie\\data\\csv\\4389_switching.csv'
tp554
a(S'2015-05-12 15:20:25.218000'
g295
tp555
a(S'2015-05-12 15:20:25.232000'
g297
tp556
a(S'2015-05-12 15:20:25.238000'
S'data saved as csv to c:\\Charlie\\charlie\\data\\csv\\4389_switching.csv'
tp557
a(S'2015-05-12 15:20:26.434000'
g295
tp558
a(S'2015-05-12 15:20:26.448000'
g297
tp559
a(S'2015-05-12 15:20:26.453000'
S'data saved as csv to c:\\Charlie\\charlie\\data\\csv\\4389_switching.csv'
tp560
a(S'2015-05-12 15:20:27.571000'
g295
tp561
a(S'2015-05-12 15:20:27.584000'
g297
tp562
a(S'2015-05-12 15:20:27.587000'
S'data saved as csv to c:\\Charlie\\charlie\\data\\csv\\4389_switching.csv'
tp563
a(S'2015-05-12 15:20:28.903000'
g295
tp564
a(S'2015-05-12 15:20:28.911000'
g297
tp565
a(S'2015-05-12 15:20:28.914000'
S'data saved as csv to c:\\Charlie\\charlie\\data\\csv\\4389_switching.csv'
tp566
a(S'2015-05-12 15:20:30'
g295
tp567
a(S'2015-05-12 15:20:30.013000'
g297
tp568
a(S'2015-05-12 15:20:30.017000'
S'data saved as csv to c:\\Charlie\\charlie\\data\\csv\\4389_switching.csv'
tp569
a(S'2015-05-12 15:20:33.673000'
g295
tp570
a(S'2015-05-12 15:20:33.686000'
g297
tp571
a(S'2015-05-12 15:20:33.692000'
S'data saved as csv to c:\\Charlie\\charlie\\data\\csv\\4389_switching.csv'
tp572
a(S'2015-05-12 15:20:36.311000'
g295
tp573
a(S'2015-05-12 15:20:36.325000'
g297
tp574
a(S'2015-05-12 15:20:36.330000'
S'data saved as csv to c:\\Charlie\\charlie\\data\\csv\\4389_switching.csv'
tp575
a(S'2015-05-12 15:20:37.678000'
g295
tp576
a(S'2015-05-12 15:20:37.692000'
g297
tp577
a(S'2015-05-12 15:20:37.696000'
S'data saved as csv to c:\\Charlie\\charlie\\data\\csv\\4389_switching.csv'
tp578
a(S'2015-05-12 15:20:38.392000'
g295
tp579
a(S'2015-05-12 15:20:38.406000'
g297
tp580
a(S'2015-05-12 15:20:38.411000'
S'data saved as csv to c:\\Charlie\\charlie\\data\\csv\\4389_switching.csv'
tp581
a(S'2015-05-12 15:20:39.608000'
g295
tp582
a(S'2015-05-12 15:20:39.622000'
g297
tp583
a(S'2015-05-12 15:20:39.628000'
S'data saved as csv to c:\\Charlie\\charlie\\data\\csv\\4389_switching.csv'
tp584
a(S'2015-05-12 15:20:41.687000'
g295
tp585
a(S'2015-05-12 15:20:41.700000'
g297
tp586
a(S'2015-05-12 15:20:41.706000'
S'data saved as csv to c:\\Charlie\\charlie\\data\\csv\\4389_switching.csv'
tp587
a(S'2015-05-12 15:20:42.913000'
g295
tp588
a(S'2015-05-12 15:20:42.927000'
g297
tp589
a(S'2015-05-12 15:20:42.932000'
S'data saved as csv to c:\\Charlie\\charlie\\data\\csv\\4389_switching.csv'
tp590
a(S'2015-05-12 15:20:44.009000'
g295
tp591
a(S'2015-05-12 15:20:44.023000'
g297
tp592
a(S'2015-05-12 15:20:44.027000'
S'data saved as csv to c:\\Charlie\\charlie\\data\\csv\\4389_switching.csv'
tp593
a(S'2015-05-12 15:20:45.582000'
g295
tp594
a(S'2015-05-12 15:20:45.591000'
g297
tp595
a(S'2015-05-12 15:20:45.594000'
S'data saved as csv to c:\\Charlie\\charlie\\data\\csv\\4389_switching.csv'
tp596
a(S'2015-05-12 15:20:46.770000'
g295
tp597
a(S'2015-05-12 15:20:46.784000'
g297
tp598
a(S'2015-05-12 15:20:46.787000'
S'data saved as csv to c:\\Charlie\\charlie\\data\\csv\\4389_switching.csv'
tp599
a(S'2015-05-12 15:20:48.014000'
g295
tp600
a(S'2015-05-12 15:20:48.022000'
g297
tp601
a(S'2015-05-12 15:20:48.025000'
S'data saved as csv to c:\\Charlie\\charlie\\data\\csv\\4389_switching.csv'
tp602
a(S'2015-05-12 15:20:49.012000'
g295
tp603
a(S'2015-05-12 15:20:49.025000'
g297
tp604
a(S'2015-05-12 15:20:49.031000'
S'data saved as csv to c:\\Charlie\\charlie\\data\\csv\\4389_switching.csv'
tp605
a(S'2015-05-12 15:20:50.448000'
g295
tp606
a(S'2015-05-12 15:20:50.462000'
g297
tp607
a(S'2015-05-12 15:20:50.467000'
S'data saved as csv to c:\\Charlie\\charlie\\data\\csv\\4389_switching.csv'
tp608
a(S'2015-05-12 15:20:51.294000'
g295
tp609
a(S'2015-05-12 15:20:51.308000'
g297
tp610
a(S'2015-05-12 15:20:51.314000'
S'data saved as csv to c:\\Charlie\\charlie\\data\\csv\\4389_switching.csv'
tp611
a(S'2015-05-12 15:20:52.920000'
g295
tp612
a(S'2015-05-12 15:20:52.934000'
g297
tp613
a(S'2015-05-12 15:20:52.937000'
S'data saved as csv to c:\\Charlie\\charlie\\data\\csv\\4389_switching.csv'
tp614
a(S'2015-05-12 15:20:54.164000'
g295
tp615
a(S'2015-05-12 15:20:54.178000'
g297
tp616
a(S'2015-05-12 15:20:54.183000'
S'data saved as csv to c:\\Charlie\\charlie\\data\\csv\\4389_switching.csv'
tp617
a(S'2015-05-12 15:20:55.301000'
g295
tp618
a(S'2015-05-12 15:20:55.315000'
g297
tp619
a(S'2015-05-12 15:20:55.320000'
S'data saved as csv to c:\\Charlie\\charlie\\data\\csv\\4389_switching.csv'
tp620
a(S'2015-05-12 15:20:56.238000'
g295
tp621
a(S'2015-05-12 15:20:56.252000'
g297
tp622
a(S'2015-05-12 15:20:56.258000'
S'data saved as csv to c:\\Charlie\\charlie\\data\\csv\\4389_switching.csv'
tp623
a(S'2015-05-12 15:20:57.775000'
g295
tp624
a(S'2015-05-12 15:20:57.790000'
g297
tp625
a(S'2015-05-12 15:20:57.795000'
S'data saved as csv to c:\\Charlie\\charlie\\data\\csv\\4389_switching.csv'
tp626
a(S'2015-05-12 15:21:16.624000'
g295
tp627
a(S'2015-05-12 15:21:16.637000'
g297
tp628
a(S'2015-05-12 15:21:16.640000'
S'data saved as csv to c:\\Charlie\\charlie\\data\\csv\\4389_switching.csv'
tp629
a(S'2015-05-12 15:21:19.038000'
g295
tp630
a(S'2015-05-12 15:21:19.052000'
g297
tp631
a(S'2015-05-12 15:21:19.059000'
S'data saved as csv to c:\\Charlie\\charlie\\data\\csv\\4389_switching.csv'
tp632
a(S'2015-05-12 15:21:20.127000'
g295
tp633
a(S'2015-05-12 15:21:20.141000'
g297
tp634
a(S'2015-05-12 15:21:20.146000'
S'data saved as csv to c:\\Charlie\\charlie\\data\\csv\\4389_switching.csv'
tp635
a(S'2015-05-12 15:21:21.472000'
g295
tp636
a(S'2015-05-12 15:21:21.487000'
g297
tp637
a(S'2015-05-12 15:21:21.492000'
S'data saved as csv to c:\\Charlie\\charlie\\data\\csv\\4389_switching.csv'
tp638
a(S'2015-05-12 15:21:22.650000'
g295
tp639
a(S'2015-05-12 15:21:22.664000'
g297
tp640
a(S'2015-05-12 15:21:22.668000'
S'data saved as csv to c:\\Charlie\\charlie\\data\\csv\\4389_switching.csv'
tp641
a(S'2015-05-12 15:21:23.553000'
g295
tp642
a(S'2015-05-12 15:21:23.567000'
g297
tp643
a(S'2015-05-12 15:21:23.570000'
S'data saved as csv to c:\\Charlie\\charlie\\data\\csv\\4389_switching.csv'
tp644
a(S'2015-05-12 15:21:25.717000'
g295
tp645
a(S'2015-05-12 15:21:25.729000'
g297
tp646
a(S'2015-05-12 15:21:25.732000'
S'data saved as csv to c:\\Charlie\\charlie\\data\\csv\\4389_switching.csv'
tp647
a(S'2015-05-12 15:21:26.789000'
g295
tp648
a(S'2015-05-12 15:21:26.803000'
g297
tp649
a(S'2015-05-12 15:21:26.807000'
S'data saved as csv to c:\\Charlie\\charlie\\data\\csv\\4389_switching.csv'
tp650
a(S'2015-05-12 15:21:27.713000'
g295
tp651
a(S'2015-05-12 15:21:27.727000'
g297
tp652
a(S'2015-05-12 15:21:27.733000'
S'data saved as csv to c:\\Charlie\\charlie\\data\\csv\\4389_switching.csv'
tp653
a(S'2015-05-12 15:21:29.512000'
g295
tp654
a(S'2015-05-12 15:21:29.526000'
g297
tp655
a(S'2015-05-12 15:21:29.532000'
S'data saved as csv to c:\\Charlie\\charlie\\data\\csv\\4389_switching.csv'
tp656
a(S'2015-05-12 15:21:31.270000'
g295
tp657
a(S'2015-05-12 15:21:31.284000'
g297
tp658
a(S'2015-05-12 15:21:31.290000'
S'data saved as csv to c:\\Charlie\\charlie\\data\\csv\\4389_switching.csv'
tp659
a(S'2015-05-12 15:21:32.628000'
g295
tp660
a(S'2015-05-12 15:21:32.642000'
g297
tp661
a(S'2015-05-12 15:21:32.648000'
S'data saved as csv to c:\\Charlie\\charlie\\data\\csv\\4389_switching.csv'
tp662
a(S'2015-05-12 15:21:34.425000'
g295
tp663
a(S'2015-05-12 15:21:34.440000'
g297
tp664
a(S'2015-05-12 15:21:34.446000'
S'data saved as csv to c:\\Charlie\\charlie\\data\\csv\\4389_switching.csv'
tp665
a(S'2015-05-12 15:21:35.473000'
g295
tp666
a(S'2015-05-12 15:21:35.487000'
g297
tp667
a(S'2015-05-12 15:21:35.493000'
S'data saved as csv to c:\\Charlie\\charlie\\data\\csv\\4389_switching.csv'
tp668
a(S'2015-05-12 15:21:36.881000'
g295
tp669
a(S'2015-05-12 15:21:36.896000'
g297
tp670
a(S'2015-05-12 15:21:36.902000'
S'data saved as csv to c:\\Charlie\\charlie\\data\\csv\\4389_switching.csv'
tp671
a(S'2015-05-12 15:21:37.901000'
g295
tp672
a(S'2015-05-12 15:21:37.912000'
g297
tp673
a(S'2015-05-12 15:21:37.915000'
S'data saved as csv to c:\\Charlie\\charlie\\data\\csv\\4389_switching.csv'
tp674
a(S'2015-05-12 15:21:38.962000'
g295
tp675
a(S'2015-05-12 15:21:38.976000'
g297
tp676
a(S'2015-05-12 15:21:38.982000'
S'data saved as csv to c:\\Charlie\\charlie\\data\\csv\\4389_switching.csv'
tp677
a(S'2015-05-12 15:21:40.139000'
g295
tp678
a(S'2015-05-12 15:21:40.154000'
g297
tp679
a(S'2015-05-12 15:21:40.158000'
S'data saved as csv to c:\\Charlie\\charlie\\data\\csv\\4389_switching.csv'
tp680
a(S'2015-05-12 15:21:41.274000'
g295
tp681
a(S'2015-05-12 15:21:41.288000'
g297
tp682
a(S'2015-05-12 15:21:41.294000'
S'data saved as csv to c:\\Charlie\\charlie\\data\\csv\\4389_switching.csv'
tp683
a(S'2015-05-12 15:21:42.242000'
g295
tp684
a(S'2015-05-12 15:21:42.258000'
g297
tp685
a(S'2015-05-12 15:21:42.260000'
S'data saved as csv to c:\\Charlie\\charlie\\data\\csv\\4389_switching.csv'
tp686
a(S'2015-05-12 15:21:43.156000'
g295
tp687
a(S'2015-05-12 15:21:43.171000'
g297
tp688
a(S'2015-05-12 15:21:43.177000'
S'data saved as csv to c:\\Charlie\\charlie\\data\\csv\\4389_switching.csv'
tp689
a(S'2015-05-12 15:21:45.495000'
g295
tp690
a(S'2015-05-12 15:21:45.505000'
g297
tp691
a(S'2015-05-12 15:21:45.508000'
S'data saved as csv to c:\\Charlie\\charlie\\data\\csv\\4389_switching.csv'
tp692
a(S'2015-05-12 15:21:46.715000'
g295
tp693
a(S'2015-05-12 15:21:46.729000'
g297
tp694
a(S'2015-05-12 15:21:46.732000'
S'data saved as csv to c:\\Charlie\\charlie\\data\\csv\\4389_switching.csv'
tp695
a(S'2015-05-12 15:21:48.039000'
g295
tp696
a(S'2015-05-12 15:21:48.051000'
g297
tp697
a(S'2015-05-12 15:21:48.054000'
S'data saved as csv to c:\\Charlie\\charlie\\data\\csv\\4389_switching.csv'
tp698
a(S'2015-05-12 15:21:49.179000'
g295
tp699
a(S'2015-05-12 15:21:49.192000'
g297
tp700
a(S'2015-05-12 15:21:49.196000'
S'data saved as csv to c:\\Charlie\\charlie\\data\\csv\\4389_switching.csv'
tp701
a(S'2015-05-12 15:21:50.723000'
g295
tp702
a(S'2015-05-12 15:21:50.738000'
g297
tp703
a(S'2015-05-12 15:21:50.744000'
S'data saved as csv to c:\\Charlie\\charlie\\data\\csv\\4389_switching.csv'
tp704
a(S'2015-05-12 15:21:52.332000'
g295
tp705
a(S'2015-05-12 15:21:52.342000'
g297
tp706
a(S'2015-05-12 15:21:52.346000'
S'data saved as csv to c:\\Charlie\\charlie\\data\\csv\\4389_switching.csv'
tp707
a(S'2015-05-12 15:21:53.313000'
g295
tp708
a(S'2015-05-12 15:21:53.327000'
g297
tp709
a(S'2015-05-12 15:21:53.331000'
S'data saved as csv to c:\\Charlie\\charlie\\data\\csv\\4389_switching.csv'
tp710
a(S'2015-05-12 15:21:54.437000'
g295
tp711
a(S'2015-05-12 15:21:54.451000'
g297
tp712
a(S'2015-05-12 15:21:54.457000'
S'data saved as csv to c:\\Charlie\\charlie\\data\\csv\\4389_switching.csv'
tp713
a(S'2015-05-12 15:21:55.676000'
g295
tp714
a(S'2015-05-12 15:21:55.690000'
g297
tp715
a(S'2015-05-12 15:21:55.696000'
S'data saved as csv to c:\\Charlie\\charlie\\data\\csv\\4389_switching.csv'
tp716
a(S'2015-05-12 15:21:57.223000'
g295
tp717
a(S'2015-05-12 15:21:57.238000'
g297
tp718
a(S'2015-05-12 15:21:57.244000'
S'data saved as csv to c:\\Charlie\\charlie\\data\\csv\\4389_switching.csv'
tp719
a(S'2015-05-12 15:21:58.834000'
g295
tp720
a(S'2015-05-12 15:21:58.848000'
g297
tp721
a(S'2015-05-12 15:21:58.852000'
S'data saved as csv to c:\\Charlie\\charlie\\data\\csv\\4389_switching.csv'
tp722
a(S'2015-05-12 15:21:59.878000'
g295
tp723
a(S'2015-05-12 15:21:59.892000'
g297
tp724
a(S'2015-05-12 15:21:59.898000'
S'data saved as csv to c:\\Charlie\\charlie\\data\\csv\\4389_switching.csv'
tp725
a(S'2015-05-12 15:22:00.874000'
g295
tp726
a(S'2015-05-12 15:22:00.883000'
g297
tp727
a(S'2015-05-12 15:22:00.886000'
S'data saved as csv to c:\\Charlie\\charlie\\data\\csv\\4389_switching.csv'
tp728
a(S'2015-05-12 15:22:02.133000'
g295
tp729
a(S'2015-05-12 15:22:02.148000'
g297
tp730
a(S'2015-05-12 15:22:02.151000'
S'data saved as csv to c:\\Charlie\\charlie\\data\\csv\\4389_switching.csv'
tp731
a(S'2015-05-12 15:22:03.588000'
g295
tp732
a(S'2015-05-12 15:22:03.603000'
g297
tp733
a(S'2015-05-12 15:22:03.609000'
S'data saved as csv to c:\\Charlie\\charlie\\data\\csv\\4389_switching.csv'
tp734
a(S'2015-05-12 15:22:05.248000'
g295
tp735
a(S'2015-05-12 15:22:05.262000'
g297
tp736
a(S'2015-05-12 15:22:05.269000'
S'data saved as csv to c:\\Charlie\\charlie\\data\\csv\\4389_switching.csv'
tp737
a(S'2015-05-12 15:22:06.325000'
g295
tp738
a(S'2015-05-12 15:22:06.340000'
g297
tp739
a(S'2015-05-12 15:22:06.346000'
S'data saved as csv to c:\\Charlie\\charlie\\data\\csv\\4389_switching.csv'
tp740
a(S'2015-05-12 15:22:07.293000'
g295
tp741
a(S'2015-05-12 15:22:07.308000'
g297
tp742
a(S'2015-05-12 15:22:07.311000'
S'data saved as csv to c:\\Charlie\\charlie\\data\\csv\\4389_switching.csv'
tp743
a(S'2015-05-12 15:22:08.238000'
g295
tp744
a(S'2015-05-12 15:22:08.247000'
g297
tp745
a(S'2015-05-12 15:22:08.250000'
S'data saved as csv to c:\\Charlie\\charlie\\data\\csv\\4389_switching.csv'
tp746
a(S'2015-05-12 15:22:10.548000'
g295
tp747
a(S'2015-05-12 15:22:10.562000'
g297
tp748
a(S'2015-05-12 15:22:10.569000'
S'data saved as csv to c:\\Charlie\\charlie\\data\\csv\\4389_switching.csv'
tp749
a(S'2015-05-12 15:22:12.077000'
g295
tp750
a(S'2015-05-12 15:22:12.092000'
g297
tp751
a(S'2015-05-12 15:22:12.099000'
S'data saved as csv to c:\\Charlie\\charlie\\data\\csv\\4389_switching.csv'
tp752
a(S'2015-05-12 15:22:14.178000'
g295
tp753
a(S'2015-05-12 15:22:14.193000'
g297
tp754
a(S'2015-05-12 15:22:14.200000'
S'data saved as csv to c:\\Charlie\\charlie\\data\\csv\\4389_switching.csv'
tp755
a(S'2015-05-12 15:22:15.958000'
g295
tp756
a(S'2015-05-12 15:22:15.973000'
g297
tp757
a(S'2015-05-12 15:22:15.979000'
S'data saved as csv to c:\\Charlie\\charlie\\data\\csv\\4389_switching.csv'
tp758
a(S'2015-05-12 15:22:18.412000'
g295
tp759
a(S'2015-05-12 15:22:18.417000'
g297
tp760
a(S'2015-05-12 15:22:18.419000'
S'data saved as csv to c:\\Charlie\\charlie\\data\\csv\\4389_switching.csv'
tp761
a(S'2015-05-12 15:22:20.766000'
g295
tp762
a(S'2015-05-12 15:22:20.781000'
g297
tp763
a(S'2015-05-12 15:22:20.784000'
S'data saved as csv to c:\\Charlie\\charlie\\data\\csv\\4389_switching.csv'
tp764
a(S'2015-05-12 15:22:22.320000'
g295
tp765
a(S'2015-05-12 15:22:22.336000'
g297
tp766
a(S'2015-05-12 15:22:22.341000'
S'data saved as csv to c:\\Charlie\\charlie\\data\\csv\\4389_switching.csv'
tp767
a(S'2015-05-12 15:22:23.627000'
g295
tp768
a(S'2015-05-12 15:22:23.636000'
g297
tp769
a(S'2015-05-12 15:22:23.640000'
S'data saved as csv to c:\\Charlie\\charlie\\data\\csv\\4389_switching.csv'
tp770
a(S'2015-05-12 15:22:24.937000'
g295
tp771
a(S'2015-05-12 15:22:24.950000'
g297
tp772
a(S'2015-05-12 15:22:24.954000'
S'data saved as csv to c:\\Charlie\\charlie\\data\\csv\\4389_switching.csv'
tp773
a(S'2015-05-12 15:22:25.800000'
g295
tp774
a(S'2015-05-12 15:22:25.815000'
g297
tp775
a(S'2015-05-12 15:22:25.820000'
S'data saved as csv to c:\\Charlie\\charlie\\data\\csv\\4389_switching.csv'
tp776
a(S'2015-05-12 15:22:26.707000'
g295
tp777
a(S'2015-05-12 15:22:26.720000'
g297
tp778
a(S'2015-05-12 15:22:26.723000'
S'data saved as csv to c:\\Charlie\\charlie\\data\\csv\\4389_switching.csv'
tp779
a(S'2015-05-12 15:22:27.789000'
g295
tp780
a(S'2015-05-12 15:22:27.801000'
g297
tp781
a(S'2015-05-12 15:22:27.804000'
S'data saved as csv to c:\\Charlie\\charlie\\data\\csv\\4389_switching.csv'
tp782
a(S'2015-05-12 15:22:28.863000'
g295
tp783
a(S'2015-05-12 15:22:28.878000'
g297
tp784
a(S'2015-05-12 15:22:28.882000'
S'data saved as csv to c:\\Charlie\\charlie\\data\\csv\\4389_switching.csv'
tp785
a(S'2015-05-12 15:22:29.819000'
g295
tp786
a(S'2015-05-12 15:22:29.834000'
g297
tp787
a(S'2015-05-12 15:22:29.840000'
S'data saved as csv to c:\\Charlie\\charlie\\data\\csv\\4389_switching.csv'
tp788
a(S'2015-05-12 15:22:30.986000'
g295
tp789
a(S'2015-05-12 15:22:31.001000'
g297
tp790
a(S'2015-05-12 15:22:31.008000'
S'data saved as csv to c:\\Charlie\\charlie\\data\\csv\\4389_switching.csv'
tp791
a(S'2015-05-12 15:22:32.035000'
g295
tp792
a(S'2015-05-12 15:22:32.050000'
g297
tp793
a(S'2015-05-12 15:22:32.057000'
S'data saved as csv to c:\\Charlie\\charlie\\data\\csv\\4389_switching.csv'
tp794
a(S'2015-05-12 15:22:34.316000'
g295
tp795
a(S'2015-05-12 15:22:34.331000'
g297
tp796
a(S'2015-05-12 15:22:34.338000'
S'data saved as csv to c:\\Charlie\\charlie\\data\\csv\\4389_switching.csv'
tp797
a(S'2015-05-12 15:22:35.735000'
g295
tp798
a(S'2015-05-12 15:22:35.750000'
g297
tp799
a(S'2015-05-12 15:22:35.753000'
S'data saved as csv to c:\\Charlie\\charlie\\data\\csv\\4389_switching.csv'
tp800
a(S'2015-05-12 15:22:36.588000'
g295
tp801
a(S'2015-05-12 15:22:36.595000'
g297
tp802
a(S'2015-05-12 15:22:36.598000'
S'data saved as csv to c:\\Charlie\\charlie\\data\\csv\\4389_switching.csv'
tp803
a(S'2015-05-12 15:22:37.475000'
g295
tp804
a(S'2015-05-12 15:22:37.490000'
g297
tp805
a(S'2015-05-12 15:22:37.493000'
S'data saved as csv to c:\\Charlie\\charlie\\data\\csv\\4389_switching.csv'
tp806
a(S'2015-05-12 15:22:39.791000'
g295
tp807
a(S'2015-05-12 15:22:39.803000'
g297
tp808
a(S'2015-05-12 15:22:39.807000'
S'data saved as csv to c:\\Charlie\\charlie\\data\\csv\\4389_switching.csv'
tp809
a(S'2015-05-12 15:22:43.175000'
g295
tp810
a(S'2015-05-12 15:22:43.190000'
g297
tp811
a(S'2015-05-12 15:22:43.193000'
S'data saved as csv to c:\\Charlie\\charlie\\data\\csv\\4389_switching.csv'
tp812
a(S'2015-05-12 15:22:45.039000'
g295
tp813
a(S'2015-05-12 15:22:45.053000'
g297
tp814
a(S'2015-05-12 15:22:45.057000'
S'data saved as csv to c:\\Charlie\\charlie\\data\\csv\\4389_switching.csv'
tp815
a(S'2015-05-12 15:22:46.634000'
g295
tp816
a(S'2015-05-12 15:22:46.649000'
g297
tp817
a(S'2015-05-12 15:22:46.656000'
S'data saved as csv to c:\\Charlie\\charlie\\data\\csv\\4389_switching.csv'
tp818
a(S'2015-05-12 15:22:47.844000'
g295
tp819
a(S'2015-05-12 15:22:47.861000'
g297
tp820
a(S'2015-05-12 15:22:47.867000'
S'data saved as csv to c:\\Charlie\\charlie\\data\\csv\\4389_switching.csv'
tp821
a(S'2015-05-12 15:22:48.887000'
g295
tp822
a(S'2015-05-12 15:22:48.902000'
g297
tp823
a(S'2015-05-12 15:22:48.909000'
S'data saved as csv to c:\\Charlie\\charlie\\data\\csv\\4389_switching.csv'
tp824
a(S'2015-05-12 15:22:50.168000'
g295
tp825
a(S'2015-05-12 15:22:50.183000'
g297
tp826
a(S'2015-05-12 15:22:50.186000'
S'data saved as csv to c:\\Charlie\\charlie\\data\\csv\\4389_switching.csv'
tp827
a(S'2015-05-12 15:22:53.335000'
g295
tp828
a(S'2015-05-12 15:22:53.351000'
g297
tp829
a(S'2015-05-12 15:22:53.358000'
S'data saved as csv to c:\\Charlie\\charlie\\data\\csv\\4389_switching.csv'
tp830
a(S'2015-05-12 15:22:55.767000'
g295
tp831
a(S'2015-05-12 15:22:55.782000'
g297
tp832
a(S'2015-05-12 15:22:55.789000'
S'data saved as csv to c:\\Charlie\\charlie\\data\\csv\\4389_switching.csv'
tp833
a(S'2015-05-12 15:22:56.807000'
g295
tp834
a(S'2015-05-12 15:22:56.822000'
g297
tp835
a(S'2015-05-12 15:22:56.829000'
S'data saved as csv to c:\\Charlie\\charlie\\data\\csv\\4389_switching.csv'
tp836
a(S'2015-05-12 15:22:57.768000'
g295
tp837
a(S'2015-05-12 15:22:57.784000'
g297
tp838
a(S'2015-05-12 15:22:57.790000'
S'data saved as csv to c:\\Charlie\\charlie\\data\\csv\\4389_switching.csv'
tp839
a(S'2015-05-12 15:22:58.481000'
g295
tp840
a(S'2015-05-12 15:22:58.493000'
g297
tp841
a(S'2015-05-12 15:22:58.497000'
S'data saved as csv to c:\\Charlie\\charlie\\data\\csv\\4389_switching.csv'
tp842
a(S'2015-05-12 15:22:59.593000'
g295
tp843
a(S'2015-05-12 15:22:59.605000'
g297
tp844
a(S'2015-05-12 15:22:59.609000'
S'data saved as csv to c:\\Charlie\\charlie\\data\\csv\\4389_switching.csv'
tp845
a(S'2015-05-12 15:23:00.857000'
g295
tp846
a(S'2015-05-12 15:23:00.873000'
g297
tp847
a(S'2015-05-12 15:23:00.880000'
S'data saved as csv to c:\\Charlie\\charlie\\data\\csv\\4389_switching.csv'
tp848
a(S'2015-05-12 15:23:02.346000'
g295
tp849
a(S'2015-05-12 15:23:02.350000'
g297
tp850
a(S'2015-05-12 15:23:02.352000'
S'data saved as csv to c:\\Charlie\\charlie\\data\\csv\\4389_switching.csv'
tp851
a(S'2015-05-12 15:23:03.468000'
g295
tp852
a(S'2015-05-12 15:23:03.478000'
g297
tp853
a(S'2015-05-12 15:23:03.482000'
S'data saved as csv to c:\\Charlie\\charlie\\data\\csv\\4389_switching.csv'
tp854
a(S'2015-05-12 15:23:04.899000'
g295
tp855
a(S'2015-05-12 15:23:04.912000'
g297
tp856
a(S'2015-05-12 15:23:04.916000'
S'data saved as csv to c:\\Charlie\\charlie\\data\\csv\\4389_switching.csv'
tp857
a(S'2015-05-12 15:23:06.503000'
g295
tp858
a(S'2015-05-12 15:23:06.518000'
g297
tp859
a(S'2015-05-12 15:23:06.526000'
S'data saved as csv to c:\\Charlie\\charlie\\data\\csv\\4389_switching.csv'
tp860
a(S'2015-05-12 15:23:07.605000'
g295
tp861
a(S'2015-05-12 15:23:07.616000'
g297
tp862
a(S'2015-05-12 15:23:07.619000'
S'data saved as csv to c:\\Charlie\\charlie\\data\\csv\\4389_switching.csv'
tp863
a(S'2015-05-12 15:23:09.148000'
g295
tp864
a(S'2015-05-12 15:23:09.163000'
g297
tp865
a(S'2015-05-12 15:23:09.170000'
S'data saved as csv to c:\\Charlie\\charlie\\data\\csv\\4389_switching.csv'
tp866
a(S'2015-05-12 15:23:11.079000'
g295
tp867
a(S'2015-05-12 15:23:11.093000'
g297
tp868
a(S'2015-05-12 15:23:11.096000'
S'data saved as csv to c:\\Charlie\\charlie\\data\\csv\\4389_switching.csv'
tp869
a(S'2015-05-12 15:23:13.905000'
g295
tp870
a(S'2015-05-12 15:23:13.917000'
g297
tp871
a(S'2015-05-12 15:23:13.921000'
S'data saved as csv to c:\\Charlie\\charlie\\data\\csv\\4389_switching.csv'
tp872
a(S'2015-05-12 15:23:14.968000'
g295
tp873
a(S'2015-05-12 15:23:14.983000'
g297
tp874
a(S'2015-05-12 15:23:14.990000'
S'data saved as csv to c:\\Charlie\\charlie\\data\\csv\\4389_switching.csv'
tp875
a(S'2015-05-12 15:23:16.018000'
g295
tp876
a(S'2015-05-12 15:23:16.033000'
g297
tp877
a(S'2015-05-12 15:23:16.040000'
S'data saved as csv to c:\\Charlie\\charlie\\data\\csv\\4389_switching.csv'
tp878
a(S'2015-05-12 15:23:16.958000'
g295
tp879
a(S'2015-05-12 15:23:16.972000'
g297
tp880
a(S'2015-05-12 15:23:16.975000'
S'data saved as csv to c:\\Charlie\\charlie\\data\\csv\\4389_switching.csv'
tp881
a(S'2015-05-12 15:23:18.953000'
g295
tp882
a(S'2015-05-12 15:23:18.969000'
g297
tp883
a(S'2015-05-12 15:23:18.976000'
S'data saved as csv to c:\\Charlie\\charlie\\data\\csv\\4389_switching.csv'
tp884
a(S'2015-05-12 15:23:20.286000'
g295
tp885
a(S'2015-05-12 15:23:20.302000'
g297
tp886
a(S'2015-05-12 15:23:20.305000'
S'data saved as csv to c:\\Charlie\\charlie\\data\\csv\\4389_switching.csv'
tp887
a(S'2015-05-12 15:23:21.573000'
g295
tp888
a(S'2015-05-12 15:23:21.588000'
g297
tp889
a(S'2015-05-12 15:23:21.593000'
S'data saved as csv to c:\\Charlie\\charlie\\data\\csv\\4389_switching.csv'
tp890
a(S'2015-05-12 15:23:22.520000'
g295
tp891
a(S'2015-05-12 15:23:22.529000'
g297
tp892
a(S'2015-05-12 15:23:22.533000'
S'data saved as csv to c:\\Charlie\\charlie\\data\\csv\\4389_switching.csv'
tp893
a(S'2015-05-12 15:23:24.511000'
g295
tp894
a(S'2015-05-12 15:23:24.527000'
g297
tp895
a(S'2015-05-12 15:23:24.533000'
S'data saved as csv to c:\\Charlie\\charlie\\data\\csv\\4389_switching.csv'
tp896
a(S'2015-05-12 15:23:25.511000'
g295
tp897
a(S'2015-05-12 15:23:25.524000'
g297
tp898
a(S'2015-05-12 15:23:25.527000'
S'data saved as csv to c:\\Charlie\\charlie\\data\\csv\\4389_switching.csv'
tp899
a(S'2015-05-12 15:23:26.546000'
g295
tp900
a(S'2015-05-12 15:23:26.561000'
g297
tp901
a(S'2015-05-12 15:23:26.568000'
S'data saved as csv to c:\\Charlie\\charlie\\data\\csv\\4389_switching.csv'
tp902
a(S'2015-05-12 15:23:28.498000'
g295
tp903
a(S'2015-05-12 15:23:28.514000'
g297
tp904
a(S'2015-05-12 15:23:28.522000'
S'data saved as csv to c:\\Charlie\\charlie\\data\\csv\\4389_switching.csv'
tp905
a(S'2015-05-12 15:23:30.030000'
g295
tp906
a(S'2015-05-12 15:23:30.046000'
g297
tp907
a(S'2015-05-12 15:23:30.053000'
S'data saved as csv to c:\\Charlie\\charlie\\data\\csv\\4389_switching.csv'
tp908
a(S'2015-05-12 15:23:32.082000'
g295
tp909
a(S'2015-05-12 15:23:32.095000'
g297
tp910
a(S'2015-05-12 15:23:32.099000'
S'data saved as csv to c:\\Charlie\\charlie\\data\\csv\\4389_switching.csv'
tp911
a(S'2015-05-12 15:23:33.537000'
g295
tp912
a(S'2015-05-12 15:23:33.552000'
g297
tp913
a(S'2015-05-12 15:23:33.560000'
S'data saved as csv to c:\\Charlie\\charlie\\data\\csv\\4389_switching.csv'
tp914
a(S'2015-05-12 15:23:35.318000'
g295
tp915
a(S'2015-05-12 15:23:35.333000'
g297
tp916
a(S'2015-05-12 15:23:35.336000'
S'data saved as csv to c:\\Charlie\\charlie\\data\\csv\\4389_switching.csv'
tp917
a(S'2015-05-12 15:23:36.162000'
g295
tp918
a(S'2015-05-12 15:23:36.177000'
g297
tp919
a(S'2015-05-12 15:23:36.183000'
S'data saved as csv to c:\\Charlie\\charlie\\data\\csv\\4389_switching.csv'
tp920
a(S'2015-05-12 15:23:37.213000'
g295
tp921
a(S'2015-05-12 15:23:37.226000'
g297
tp922
a(S'2015-05-12 15:23:37.230000'
S'data saved as csv to c:\\Charlie\\charlie\\data\\csv\\4389_switching.csv'
tp923
a(S'2015-05-12 15:23:38.090000'
g295
tp924
a(S'2015-05-12 15:23:38.105000'
g297
tp925
a(S'2015-05-12 15:23:38.112000'
S'data saved as csv to c:\\Charlie\\charlie\\data\\csv\\4389_switching.csv'
tp926
a(S'2015-05-12 15:23:39.553000'
g295
tp927
a(S'2015-05-12 15:23:39.566000'
g297
tp928
a(S'2015-05-12 15:23:39.569000'
S'data saved as csv to c:\\Charlie\\charlie\\data\\csv\\4389_switching.csv'
tp929
asb.