(icharlie.tools.data
Data
p1
(dp2
S'lang'
p3
S'EN'
p4
sS'control'
p5
(lp6
sS'last_updated'
p7
cdatetime
datetime
p8
(S'\x07\xdf\x06\t\r\x11\t\x08M\x00'
tRp9
sS'last_opened'
p10
g8
(S'\x07\xdf\x06\t\r\x0e\x02\t\xcf\xb8'
tRp11
sS'proj_id'
p12
S'connectivity'
p13
sS'date_done'
p14
NsS'test_done'
p15
I01
sS'data'
p16
(lp17
(S'4390'
p18
S'digit_symbol'
p19
S'practice'
p20
I0
I2
I2
S'Yes'
p21
S'C:\\Users\\Jbarrett\\Charlie\\charlie\\stimuli\\visual\\digit_symbol\\sym2.bmp'
g21
I4930
tp22
a(g18
g19
g20
I1
I6
I6
g21
S'C:\\Users\\Jbarrett\\Charlie\\charlie\\stimuli\\visual\\digit_symbol\\sym6.bmp'
g21
I5371
tp23
a(g18
g19
g20
I2
I8
I4
S'No'
p24
S'C:\\Users\\Jbarrett\\Charlie\\charlie\\stimuli\\visual\\digit_symbol\\sym4.bmp'
g24
I2990
tp25
a(g18
g19
g20
I3
I4
I4
g21
S'C:\\Users\\Jbarrett\\Charlie\\charlie\\stimuli\\visual\\digit_symbol\\sym4.bmp'
g21
I5770
tp26
a(g18
g19
g20
I4
I7
I7
g21
S'C:\\Users\\Jbarrett\\Charlie\\charlie\\stimuli\\visual\\digit_symbol\\sym7.bmp'
g21
I2180
tp27
a(g18
g19
g20
I5
I6
I5
g24
S'C:\\Users\\Jbarrett\\Charlie\\charlie\\stimuli\\visual\\digit_symbol\\sym5.bmp'
g24
I2011
tp28
a(g18
g19
g20
I6
I2
I8
g24
S'C:\\Users\\Jbarrett\\Charlie\\charlie\\stimuli\\visual\\digit_symbol\\sym8.bmp'
g24
I2010
tp29
a(g18
g19
g20
I7
I9
I2
g24
S'C:\\Users\\Jbarrett\\Charlie\\charlie\\stimuli\\visual\\digit_symbol\\sym2.bmp'
g24
I2230
tp30
a(g18
g19
g20
I8
I3
I7
g24
S'C:\\Users\\Jbarrett\\Charlie\\charlie\\stimuli\\visual\\digit_symbol\\sym7.bmp'
g24
I1980
tp31
a(g18
g19
g20
I9
I5
I6
g24
S'C:\\Users\\Jbarrett\\Charlie\\charlie\\stimuli\\visual\\digit_symbol\\sym6.bmp'
g24
I2100
tp32
a(g18
g19
S'test'
p33
I0
I8
I8
g21
S'C:\\Users\\Jbarrett\\Charlie\\charlie\\stimuli\\visual\\digit_symbol\\sym8.bmp'
g21
I2806
tp34
a(g18
g19
g33
I1
I1
I4
g24
S'C:\\Users\\Jbarrett\\Charlie\\charlie\\stimuli\\visual\\digit_symbol\\sym4.bmp'
g24
I2103
tp35
a(g18
g19
g33
I2
I2
I8
g24
S'C:\\Users\\Jbarrett\\Charlie\\charlie\\stimuli\\visual\\digit_symbol\\sym8.bmp'
g24
I1603
tp36
a(g18
g19
g33
I3
I6
I2
g24
S'C:\\Users\\Jbarrett\\Charlie\\charlie\\stimuli\\visual\\digit_symbol\\sym2.bmp'
g24
I2003
tp37
a(g18
g19
g33
I4
I4
I4
g21
S'C:\\Users\\Jbarrett\\Charlie\\charlie\\stimuli\\visual\\digit_symbol\\sym4.bmp'
g21
I1803
tp38
a(g18
g19
g33
I5
I9
I5
g24
S'C:\\Users\\Jbarrett\\Charlie\\charlie\\stimuli\\visual\\digit_symbol\\sym5.bmp'
g24
I3403
tp39
a(g18
g19
g33
I6
I5
I6
g24
S'C:\\Users\\Jbarrett\\Charlie\\charlie\\stimuli\\visual\\digit_symbol\\sym6.bmp'
g24
I1703
tp40
a(g18
g19
g33
I7
I3
I3
g21
S'C:\\Users\\Jbarrett\\Charlie\\charlie\\stimuli\\visual\\digit_symbol\\sym3.bmp'
g21
I1803
tp41
a(g18
g19
g33
I8
I4
I4
g21
S'C:\\Users\\Jbarrett\\Charlie\\charlie\\stimuli\\visual\\digit_symbol\\sym4.bmp'
g21
I1903
tp42
a(g18
g19
g33
I9
I9
I9
g21
S'C:\\Users\\Jbarrett\\Charlie\\charlie\\stimuli\\visual\\digit_symbol\\sym9.bmp'
g21
I2903
tp43
a(g18
g19
g33
I10
I6
I6
g21
S'C:\\Users\\Jbarrett\\Charlie\\charlie\\stimuli\\visual\\digit_symbol\\sym6.bmp'
g21
I1904
tp44
a(g18
g19
g33
I11
I1
I1
g21
S'C:\\Users\\Jbarrett\\Charlie\\charlie\\stimuli\\visual\\digit_symbol\\sym1.bmp'
g21
I1604
tp45
a(g18
g19
g33
I12
I2
I2
g21
S'C:\\Users\\Jbarrett\\Charlie\\charlie\\stimuli\\visual\\digit_symbol\\sym2.bmp'
g21
I1403
tp46
a(g18
g19
g33
I13
I7
I7
g21
S'C:\\Users\\Jbarrett\\Charlie\\charlie\\stimuli\\visual\\digit_symbol\\sym7.bmp'
g21
I2004
tp47
a(g18
g19
g33
I14
I3
I3
g21
S'C:\\Users\\Jbarrett\\Charlie\\charlie\\stimuli\\visual\\digit_symbol\\sym3.bmp'
g21
I1903
tp48
a(g18
g19
g33
I15
I8
I8
g21
S'C:\\Users\\Jbarrett\\Charlie\\charlie\\stimuli\\visual\\digit_symbol\\sym8.bmp'
g21
I2303
tp49
a(g18
g19
g33
I16
I7
I7
g21
S'C:\\Users\\Jbarrett\\Charlie\\charlie\\stimuli\\visual\\digit_symbol\\sym7.bmp'
g21
I1803
tp50
a(g18
g19
g33
I17
I5
I3
g24
S'C:\\Users\\Jbarrett\\Charlie\\charlie\\stimuli\\visual\\digit_symbol\\sym3.bmp'
g24
I2003
tp51
a(g18
g19
g33
I18
I1
I5
g24
S'C:\\Users\\Jbarrett\\Charlie\\charlie\\stimuli\\visual\\digit_symbol\\sym5.bmp'
g21
I1603
tp52
a(g18
g19
g33
I19
I4
I4
g21
S'C:\\Users\\Jbarrett\\Charlie\\charlie\\stimuli\\visual\\digit_symbol\\sym4.bmp'
g21
I3104
tp53
a(g18
g19
g33
I20
I7
I8
g24
S'C:\\Users\\Jbarrett\\Charlie\\charlie\\stimuli\\visual\\digit_symbol\\sym8.bmp'
g24
I2803
tp54
a(g18
g19
g33
I21
I4
I4
g21
S'C:\\Users\\Jbarrett\\Charlie\\charlie\\stimuli\\visual\\digit_symbol\\sym4.bmp'
g21
I2304
tp55
a(g18
g19
g33
I22
I8
I8
g21
S'C:\\Users\\Jbarrett\\Charlie\\charlie\\stimuli\\visual\\digit_symbol\\sym8.bmp'
g21
I2303
tp56
a(g18
g19
g33
I23
I3
I3
g21
S'C:\\Users\\Jbarrett\\Charlie\\charlie\\stimuli\\visual\\digit_symbol\\sym3.bmp'
g21
I1603
tp57
a(g18
g19
g33
I24
I5
I5
g21
S'C:\\Users\\Jbarrett\\Charlie\\charlie\\stimuli\\visual\\digit_symbol\\sym5.bmp'
g21
I2703
tp58
a(g18
g19
g33
I25
I3
I1
g24
S'C:\\Users\\Jbarrett\\Charlie\\charlie\\stimuli\\visual\\digit_symbol\\sym1.bmp'
g24
I1903
tp59
a(g18
g19
g33
I26
I6
I9
g24
S'C:\\Users\\Jbarrett\\Charlie\\charlie\\stimuli\\visual\\digit_symbol\\sym9.bmp'
g24
I2304
tp60
a(g18
g19
g33
I27
I2
I2
g21
S'C:\\Users\\Jbarrett\\Charlie\\charlie\\stimuli\\visual\\digit_symbol\\sym2.bmp'
g21
I1603
tp61
a(g18
g19
g33
I28
I8
I8
g21
S'C:\\Users\\Jbarrett\\Charlie\\charlie\\stimuli\\visual\\digit_symbol\\sym8.bmp'
g21
I2303
tp62
a(g18
g19
g33
I29
I9
I2
g24
S'C:\\Users\\Jbarrett\\Charlie\\charlie\\stimuli\\visual\\digit_symbol\\sym2.bmp'
g24
I1804
tp63
a(g18
g19
g33
I30
I1
I6
g24
S'C:\\Users\\Jbarrett\\Charlie\\charlie\\stimuli\\visual\\digit_symbol\\sym6.bmp'
g24
I1803
tp64
a(g18
g19
g33
I31
I5
I4
g24
S'C:\\Users\\Jbarrett\\Charlie\\charlie\\stimuli\\visual\\digit_symbol\\sym4.bmp'
g24
I2103
tp65
a(g18
g19
g33
I32
I6
I6
g21
S'C:\\Users\\Jbarrett\\Charlie\\charlie\\stimuli\\visual\\digit_symbol\\sym6.bmp'
g21
I2403
tp66
a(g18
g19
g33
I33
I2
I2
g21
S'C:\\Users\\Jbarrett\\Charlie\\charlie\\stimuli\\visual\\digit_symbol\\sym2.bmp'
g21
I2203
tp67
a(g18
g19
g33
I34
I9
I9
g21
S'C:\\Users\\Jbarrett\\Charlie\\charlie\\stimuli\\visual\\digit_symbol\\sym9.bmp'
g21
I2804
tp68
a(g18
g19
g33
I35
I7
I7
g21
S'C:\\Users\\Jbarrett\\Charlie\\charlie\\stimuli\\visual\\digit_symbol\\sym7.bmp'
g21
I2303
tp69
a(g18
g19
g33
I36
I3
I3
g21
S'C:\\Users\\Jbarrett\\Charlie\\charlie\\stimuli\\visual\\digit_symbol\\sym3.bmp'
g21
I2103
tp70
a(g18
g19
g33
I37
I1
I8
g24
S'C:\\Users\\Jbarrett\\Charlie\\charlie\\stimuli\\visual\\digit_symbol\\sym8.bmp'
g24
I1601
tp71
a(g18
g19
g33
I38
I6
I6
g21
S'C:\\Users\\Jbarrett\\Charlie\\charlie\\stimuli\\visual\\digit_symbol\\sym6.bmp'
g21
I2303
tp72
a(g18
g19
g33
I39
I7
I7
g21
S'C:\\Users\\Jbarrett\\Charlie\\charlie\\stimuli\\visual\\digit_symbol\\sym7.bmp'
g21
I2302
tp73
asS'output_format'
p74
(lp75
(S'proband_id'
p76
c__builtin__
str
p77
tp78
a(S'test_name'
p79
g77
tp80
a(S'phase'
p81
g77
tp82
a(S'trialn'
p83
c__builtin__
int
p84
tp85
a(S'digit'
p86
g84
tp87
a(S'symbol'
p88
g84
tp89
a(S'ans'
p90
g77
tp91
a(S'f'
g77
tp92
a(S'rsp'
p93
g77
tp94
a(S'rt'
p95
g84
tp96
asg76
g18
sS'filename'
p97
S'4390_digit_symbol.data'
p98
sS'initialised'
p99
g8
(S'\x07\xdf\x06\t\r\x0e\x02\t\xcf\xb8'
tRp100
sS'last_udated'
p101
g8
(S'\x07\xdf\x06\t\r\x0e\x02\t\xcf\xb8'
tRp102
sg79
S'digit_symbol'
p103
sS'directory'
p104
S'C:\\Users\\Jbarrett\\Charlie\\charlie\\data\\raw'
p105
sS'user_id'
p106
S'oleach'
p107
sS'test_started'
p108
I01
sS'abs_filename'
p109
S'C:\\Users\\Jbarrett\\Charlie\\charlie\\data\\raw\\4390_digit_symbol.data'
p110
sS'date_started'
p111
g8
(S'\x07\xdf\x06\t\r\x0e1\x0e\xdc\xb0'
tRp112
sS'log'
p113
(lp114
(S'2015-06-09 13:14:02.643000'
S'instance created'
p115
tp116
a(S'2015-06-09 13:14:49.983000'
S'instance updated'
p117
tp118
a(S'2015-06-09 13:14:49.994000'
S'pandas DataFrame of data created'
p119
tp120
a(S'2015-06-09 13:14:49.998000'
S'data saved as csv to C:\\Users\\Jbarrett\\Charlie\\charlie\\data\\csv\\4390_digit_symbol.csv'
tp121
a(S'2015-06-09 13:14:56.396000'
g117
tp122
a(S'2015-06-09 13:14:56.406000'
g119
tp123
a(S'2015-06-09 13:14:56.410000'
S'data saved as csv to C:\\Users\\Jbarrett\\Charlie\\charlie\\data\\csv\\4390_digit_symbol.csv'
tp124
a(S'2015-06-09 13:15:00.427000'
g117
tp125
a(S'2015-06-09 13:15:00.439000'
g119
tp126
a(S'2015-06-09 13:15:00.443000'
S'data saved as csv to C:\\Users\\Jbarrett\\Charlie\\charlie\\data\\csv\\4390_digit_symbol.csv'
tp127
a(S'2015-06-09 13:15:07.238000'
g117
tp128
a(S'2015-06-09 13:15:07.248000'
g119
tp129
a(S'2015-06-09 13:15:07.252000'
S'data saved as csv to C:\\Users\\Jbarrett\\Charlie\\charlie\\data\\csv\\4390_digit_symbol.csv'
tp130
a(S'2015-06-09 13:15:10.458000'
g117
tp131
a(S'2015-06-09 13:15:10.468000'
g119
tp132
a(S'2015-06-09 13:15:10.472000'
S'data saved as csv to C:\\Users\\Jbarrett\\Charlie\\charlie\\data\\csv\\4390_digit_symbol.csv'
tp133
a(S'2015-06-09 13:15:13.510000'
g117
tp134
a(S'2015-06-09 13:15:13.521000'
g119
tp135
a(S'2015-06-09 13:15:13.524000'
S'data saved as csv to C:\\Users\\Jbarrett\\Charlie\\charlie\\data\\csv\\4390_digit_symbol.csv'
tp136
a(S'2015-06-09 13:15:16.558000'
g117
tp137
a(S'2015-06-09 13:15:16.569000'
g119
tp138
a(S'2015-06-09 13:15:16.573000'
S'data saved as csv to C:\\Users\\Jbarrett\\Charlie\\charlie\\data\\csv\\4390_digit_symbol.csv'
tp139
a(S'2015-06-09 13:15:19.828000'
g117
tp140
a(S'2015-06-09 13:15:19.839000'
g119
tp141
a(S'2015-06-09 13:15:19.843000'
S'data saved as csv to C:\\Users\\Jbarrett\\Charlie\\charlie\\data\\csv\\4390_digit_symbol.csv'
tp142
a(S'2015-06-09 13:15:22.850000'
g117
tp143
a(S'2015-06-09 13:15:22.861000'
g119
tp144
a(S'2015-06-09 13:15:22.865000'
S'data saved as csv to C:\\Users\\Jbarrett\\Charlie\\charlie\\data\\csv\\4390_digit_symbol.csv'
tp145
a(S'2015-06-09 13:15:25.991000'
g117
tp146
a(S'2015-06-09 13:15:26.002000'
g119
tp147
a(S'2015-06-09 13:15:26.005000'
S'data saved as csv to C:\\Users\\Jbarrett\\Charlie\\charlie\\data\\csv\\4390_digit_symbol.csv'
tp148
a(S'2015-06-09 13:17:09.539000'
g117
tp149
a(S'2015-06-09 13:17:09.542000'
g119
tp150
a(S'2015-06-09 13:17:09.544000'
S'data saved as csv to C:\\Users\\Jbarrett\\Charlie\\charlie\\data\\csv\\4390_digit_symbol.csv'
tp151
asb.