(icharlie.tools.data
Data
p1
(dp2
S'lang'
p3
S'EN'
p4
sS'control'
p5
(lp6
sS'last_updated'
p7
cdatetime
datetime
p8
(S'\x07\xdf\x06\t\x0e*4\x00}\x00'
tRp9
sS'last_opened'
p10
g8
(S'\x07\xdf\x06\t\x0e%8\tC\x18'
tRp11
sS'proj_id'
p12
S'connectivity'
p13
sS'date_done'
p14
NsS'test_done'
p15
I01
sS'data'
p16
(lp17
(S'4390'
p18
S'updating'
p19
S'prac'
p20
I0
I0
I4
I4
S'------------'
p21
S'4,4,4,4,4,4,4,4,4,4,4,4,4'
p22
I4
I5551
tp23
a(g18
g19
S'prac'
p24
I1
I1
I8
I12
S'-----------d'
p25
S'8,8,8,8,8,8,8,8,8,8,8,8,12'
p26
I12
I1330
tp27
a(g18
g19
S'prac'
p28
I2
I2
I9
I6
S'-----u-----r'
p29
S'9,9,9,9,9,9,5,5,5,5,5,5,6'
p30
I6
I2110
tp31
a(g18
g19
S'test'
p32
I0
I0
I13
I13
S'------------'
p33
S'13,13,13,13,13,13,13,13,13,13,13,13,13'
p34
I13
I1730
tp35
a(g18
g19
S'test'
p36
I1
I0
I15
I15
S'------------'
p37
S'15,15,15,15,15,15,15,15,15,15,15,15,15'
p38
I15
I1740
tp39
a(g18
g19
S'test'
p40
I2
I0
I13
I13
S'------------'
p41
S'13,13,13,13,13,13,13,13,13,13,13,13,13'
p42
I13
I1600
tp43
a(g18
g19
S'test'
p44
I3
I1
I3
I2
S'-----------l'
p45
S'3,3,3,3,3,3,3,3,3,3,3,3,2'
p46
I2
I1640
tp47
a(g18
g19
S'test'
p48
I4
I1
I1
I2
S'-----------r'
p49
S'1,1,1,1,1,1,1,1,1,1,1,1,2'
p50
I2
I1250
tp51
a(g18
g19
S'test'
p52
I5
I1
I0
I4
S'-----------d'
p53
S'0,0,0,0,0,0,0,0,0,0,0,0,4'
p54
I4
I1390
tp55
a(g18
g19
S'test'
p56
I6
I2
I5
I2
S'-----u-----r'
p57
S'5,5,5,5,5,5,1,1,1,1,1,1,2'
p58
I2
I1590
tp59
a(g18
g19
S'test'
p60
I7
I2
I13
I8
S'-----l-----u'
p61
S'13,13,13,13,13,13,12,12,12,12,12,12,8'
p62
I8
I1130
tp63
a(g18
g19
S'test'
p64
I8
I2
I7
I2
S'-----l-----u'
p65
S'7,7,7,7,7,7,6,6,6,6,6,6,2'
p66
I2
I1000
tp67
a(g18
g19
S'test'
p68
I9
I3
I6
I15
S'---d---d---r'
p69
S'6,6,6,6,10,10,10,10,14,14,14,14,15'
p70
I15
I1460
tp71
a(g18
g19
S'test'
p72
I10
I3
I15
I11
S'---l---r---u'
p73
S'15,15,15,15,14,14,14,14,15,15,15,15,11'
p74
I11
I1320
tp75
a(g18
g19
S'test'
p76
I11
I3
I10
I6
S'---l---r---u'
p77
S'10,10,10,10,9,9,9,9,10,10,10,10,6'
p78
I6
I970
tp79
a(g18
g19
S'test'
p80
I12
I4
I13
I15
S'--u--d--r--r'
p81
S'13,13,13,9,9,9,13,13,13,14,14,14,15'
p82
I15
I1210
tp83
a(g18
g19
S'test'
p84
I13
I4
I3
I6
S'--d--u--d--l'
p85
S'3,3,3,7,7,7,3,3,3,7,7,7,6'
p86
I6
I1050
tp87
a(g18
g19
S'test'
p88
I14
I4
I0
I5
S'--d--u--d--r'
p89
S'0,0,0,4,4,4,0,0,0,4,4,4,5'
p90
I5
I1040
tp91
a(g18
g19
S'test'
p92
I15
I6
I14
I11
S'-r-u-d-u-u-d'
p93
S'14,14,15,15,11,11,15,15,11,11,7,7,11'
p94
I14
I1500
tp95
a(g18
g19
S'test'
p96
I16
I6
I0
I10
S'-d-d-d-r-r-u'
p97
S'0,0,4,4,8,8,12,12,13,13,14,14,10'
p98
I10
I1020
tp99
a(g18
g19
S'test'
p100
I17
I6
I1
I9
S'-d-d-d-r-u-l'
p101
S'1,1,5,5,9,9,13,13,14,14,10,10,9'
p102
I5
I1270
tp103
a(g18
g19
S'test'
p104
I18
I8
I10
I7
S'-lu-lu-rr-dr'
p105
S'10,10,9,5,5,4,0,0,1,2,2,6,7'
p106
I14
I1940
tp107
a(g18
g19
S'test'
p108
I19
I8
I14
I9
S'-rl-rl-ul-lr'
p109
S'14,14,15,14,14,15,14,14,10,9,9,8,9'
p110
I5
I880
tp111
a(g18
g19
S'test'
p112
I20
I8
I3
I1
S'-ld-rd-uu-ll'
p113
S'3,3,2,6,6,7,11,11,7,3,3,2,1'
p114
I2
I1341
tp115
asS'output_format'
p116
(lp117
(S'proband_id'
p118
c__builtin__
str
p119
tp120
a(S'test_name'
p121
g119
tp122
a(S'phase'
p123
g119
tp124
a(S'trialn'
p125
c__builtin__
int
p126
tp127
a(S'updates'
p128
g126
tp129
a(S'origin'
p130
g126
tp131
a(S'endpoint'
p132
g126
tp133
a(S'moves'
p134
g119
tp135
a(S'marginalpositions'
p136
g119
tp137
a(S'rsp'
p138
g126
tp139
a(S'rt'
p140
g126
tp141
asg118
g18
sS'filename'
p142
S'4390_updating.data'
p143
sS'initialised'
p144
g8
(S'\x07\xdf\x06\t\x0e%8\tC\x18'
tRp145
sS'last_udated'
p146
g8
(S'\x07\xdf\x06\t\x0e%8\tC\x18'
tRp147
sg121
S'updating'
p148
sS'directory'
p149
S'C:\\Users\\Jbarrett\\Charlie\\charlie\\data\\raw'
p150
sS'user_id'
p151
S'oleach'
p152
sS'test_started'
p153
I01
sS'abs_filename'
p154
S'C:\\Users\\Jbarrett\\Charlie\\charlie\\data\\raw\\4390_updating.data'
p155
sS'date_started'
p156
g8
(S'\x07\xdf\x06\t\x0e&3\r\xc7X'
tRp157
sS'log'
p158
(lp159
(S'2015-06-09 14:37:56.607000'
S'instance created'
p160
tp161
a(S'2015-06-09 14:38:51.913000'
S'instance updated'
p162
tp163
a(S'2015-06-09 14:38:51.925000'
S'pandas DataFrame of data created'
p164
tp165
a(S'2015-06-09 14:38:51.929000'
S'data saved as csv to C:\\Users\\Jbarrett\\Charlie\\charlie\\data\\csv\\4390_updating.csv'
tp166
a(S'2015-06-09 14:38:51.935000'
g164
tp167
a(S'2015-06-09 14:39:03.023000'
g162
tp168
a(S'2015-06-09 14:39:03.030000'
g164
tp169
a(S'2015-06-09 14:39:03.032000'
S'data saved as csv to C:\\Users\\Jbarrett\\Charlie\\charlie\\data\\csv\\4390_updating.csv'
tp170
a(S'2015-06-09 14:39:03.039000'
g164
tp171
a(S'2015-06-09 14:39:14.905000'
g162
tp172
a(S'2015-06-09 14:39:14.917000'
g164
tp173
a(S'2015-06-09 14:39:14.921000'
S'data saved as csv to C:\\Users\\Jbarrett\\Charlie\\charlie\\data\\csv\\4390_updating.csv'
tp174
a(S'2015-06-09 14:39:14.932000'
g164
tp175
a(S'2015-06-09 14:39:27.914000'
g162
tp176
a(S'2015-06-09 14:39:27.925000'
g164
tp177
a(S'2015-06-09 14:39:27.929000'
S'data saved as csv to C:\\Users\\Jbarrett\\Charlie\\charlie\\data\\csv\\4390_updating.csv'
tp178
a(S'2015-06-09 14:39:27.936000'
g164
tp179
a(S'2015-06-09 14:39:38.532000'
g162
tp180
a(S'2015-06-09 14:39:38.544000'
g164
tp181
a(S'2015-06-09 14:39:38.548000'
S'data saved as csv to C:\\Users\\Jbarrett\\Charlie\\charlie\\data\\csv\\4390_updating.csv'
tp182
a(S'2015-06-09 14:39:38.554000'
g164
tp183
a(S'2015-06-09 14:39:49.003000'
g162
tp184
a(S'2015-06-09 14:39:49.015000'
g164
tp185
a(S'2015-06-09 14:39:49.019000'
S'data saved as csv to C:\\Users\\Jbarrett\\Charlie\\charlie\\data\\csv\\4390_updating.csv'
tp186
a(S'2015-06-09 14:39:49.026000'
g164
tp187
a(S'2015-06-09 14:39:59.526000'
g162
tp188
a(S'2015-06-09 14:39:59.539000'
g164
tp189
a(S'2015-06-09 14:39:59.543000'
S'data saved as csv to C:\\Users\\Jbarrett\\Charlie\\charlie\\data\\csv\\4390_updating.csv'
tp190
a(S'2015-06-09 14:39:59.552000'
g164
tp191
a(S'2015-06-09 14:40:09.655000'
g162
tp192
a(S'2015-06-09 14:40:09.667000'
g164
tp193
a(S'2015-06-09 14:40:09.671000'
S'data saved as csv to C:\\Users\\Jbarrett\\Charlie\\charlie\\data\\csv\\4390_updating.csv'
tp194
a(S'2015-06-09 14:40:09.684000'
g164
tp195
a(S'2015-06-09 14:40:19.935000'
g162
tp196
a(S'2015-06-09 14:40:19.948000'
g164
tp197
a(S'2015-06-09 14:40:19.951000'
S'data saved as csv to C:\\Users\\Jbarrett\\Charlie\\charlie\\data\\csv\\4390_updating.csv'
tp198
a(S'2015-06-09 14:40:19.957000'
g164
tp199
a(S'2015-06-09 14:40:30.409000'
g162
tp200
a(S'2015-06-09 14:40:30.421000'
g164
tp201
a(S'2015-06-09 14:40:30.423000'
S'data saved as csv to C:\\Users\\Jbarrett\\Charlie\\charlie\\data\\csv\\4390_updating.csv'
tp202
a(S'2015-06-09 14:40:30.430000'
g164
tp203
a(S'2015-06-09 14:40:40.421000'
g162
tp204
a(S'2015-06-09 14:40:40.432000'
g164
tp205
a(S'2015-06-09 14:40:40.437000'
S'data saved as csv to C:\\Users\\Jbarrett\\Charlie\\charlie\\data\\csv\\4390_updating.csv'
tp206
a(S'2015-06-09 14:40:40.445000'
g164
tp207
a(S'2015-06-09 14:40:50.297000'
g162
tp208
a(S'2015-06-09 14:40:50.309000'
g164
tp209
a(S'2015-06-09 14:40:50.313000'
S'data saved as csv to C:\\Users\\Jbarrett\\Charlie\\charlie\\data\\csv\\4390_updating.csv'
tp210
a(S'2015-06-09 14:40:50.319000'
g164
tp211
a(S'2015-06-09 14:41:00.646000'
g162
tp212
a(S'2015-06-09 14:41:00.658000'
g164
tp213
a(S'2015-06-09 14:41:00.663000'
S'data saved as csv to C:\\Users\\Jbarrett\\Charlie\\charlie\\data\\csv\\4390_updating.csv'
tp214
a(S'2015-06-09 14:41:00.669000'
g164
tp215
a(S'2015-06-09 14:41:10.857000'
g162
tp216
a(S'2015-06-09 14:41:10.869000'
g164
tp217
a(S'2015-06-09 14:41:10.873000'
S'data saved as csv to C:\\Users\\Jbarrett\\Charlie\\charlie\\data\\csv\\4390_updating.csv'
tp218
a(S'2015-06-09 14:41:10.885000'
g164
tp219
a(S'2015-06-09 14:41:20.722000'
g162
tp220
a(S'2015-06-09 14:41:20.734000'
g164
tp221
a(S'2015-06-09 14:41:20.736000'
S'data saved as csv to C:\\Users\\Jbarrett\\Charlie\\charlie\\data\\csv\\4390_updating.csv'
tp222
a(S'2015-06-09 14:41:20.743000'
g164
tp223
a(S'2015-06-09 14:41:30.819000'
g162
tp224
a(S'2015-06-09 14:41:30.831000'
g164
tp225
a(S'2015-06-09 14:41:30.835000'
S'data saved as csv to C:\\Users\\Jbarrett\\Charlie\\charlie\\data\\csv\\4390_updating.csv'
tp226
a(S'2015-06-09 14:41:30.845000'
g164
tp227
a(S'2015-06-09 14:41:40.759000'
g162
tp228
a(S'2015-06-09 14:41:40.772000'
g164
tp229
a(S'2015-06-09 14:41:40.775000'
S'data saved as csv to C:\\Users\\Jbarrett\\Charlie\\charlie\\data\\csv\\4390_updating.csv'
tp230
a(S'2015-06-09 14:41:40.782000'
g164
tp231
a(S'2015-06-09 14:41:50.687000'
g162
tp232
a(S'2015-06-09 14:41:50.699000'
g164
tp233
a(S'2015-06-09 14:41:50.703000'
S'data saved as csv to C:\\Users\\Jbarrett\\Charlie\\charlie\\data\\csv\\4390_updating.csv'
tp234
a(S'2015-06-09 14:41:50.711000'
g164
tp235
a(S'2015-06-09 14:42:01.081000'
g162
tp236
a(S'2015-06-09 14:42:01.089000'
g164
tp237
a(S'2015-06-09 14:42:01.092000'
S'data saved as csv to C:\\Users\\Jbarrett\\Charlie\\charlie\\data\\csv\\4390_updating.csv'
tp238
a(S'2015-06-09 14:42:01.098000'
g164
tp239
a(S'2015-06-09 14:42:10.986000'
g162
tp240
a(S'2015-06-09 14:42:10.998000'
g164
tp241
a(S'2015-06-09 14:42:11.003000'
S'data saved as csv to C:\\Users\\Jbarrett\\Charlie\\charlie\\data\\csv\\4390_updating.csv'
tp242
a(S'2015-06-09 14:42:11.015000'
g164
tp243
a(S'2015-06-09 14:42:21.148000'
g162
tp244
a(S'2015-06-09 14:42:21.161000'
g164
tp245
a(S'2015-06-09 14:42:21.165000'
S'data saved as csv to C:\\Users\\Jbarrett\\Charlie\\charlie\\data\\csv\\4390_updating.csv'
tp246
a(S'2015-06-09 14:42:21.177000'
g164
tp247
a(S'2015-06-09 14:42:31.990000'
g162
tp248
a(S'2015-06-09 14:42:32.003000'
g164
tp249
a(S'2015-06-09 14:42:32.007000'
S'data saved as csv to C:\\Users\\Jbarrett\\Charlie\\charlie\\data\\csv\\4390_updating.csv'
tp250
a(S'2015-06-09 14:42:32.018000'
g164
tp251
a(S'2015-06-09 14:42:41.765000'
g162
tp252
a(S'2015-06-09 14:42:41.777000'
g164
tp253
a(S'2015-06-09 14:42:41.781000'
S'data saved as csv to C:\\Users\\Jbarrett\\Charlie\\charlie\\data\\csv\\4390_updating.csv'
tp254
a(S'2015-06-09 14:42:41.794000'
g164
tp255
a(S'2015-06-09 14:42:52'
g162
tp256
a(S'2015-06-09 14:42:52.013000'
g164
tp257
a(S'2015-06-09 14:42:52.017000'
S'data saved as csv to C:\\Users\\Jbarrett\\Charlie\\charlie\\data\\csv\\4390_updating.csv'
tp258
a(S'2015-06-09 14:42:52.028000'
g164
tp259
asb.