(icharlie.tools.data
Data
p1
(dp2
S'lang'
p3
S'EN'
p4
sS'control'
p5
(lp6
sS'last_updated'
p7
cdatetime
datetime
p8
(S'\x07\xdf\x05\x0e\r5#\x0cPX'
tRp9
sS'last_opened'
p10
g8
(S'\x07\xdf\x05\x0e\r0\x15\x02\x17('
tRp11
sS'proj_id'
p12
S'connectivity'
p13
sS'date_done'
p14
NsS'test_done'
p15
I01
sS'data'
p16
(lp17
(S'4391'
p18
S'ctrails'
p19
S'number'
p20
S'practice'
p21
I0
I1
S'Correct'
p22
I3240
I8416
tp23
a(g18
g19
g20
g21
I1
I2
g22
I680
I8416
tp24
a(g18
g19
g20
g21
I2
I3
g22
I930
I8416
tp25
a(g18
g19
g20
g21
I3
I4
g22
I790
I8416
tp26
a(g18
g19
g20
g21
I4
I5
g22
I530
I8416
tp27
a(g18
g19
g20
g21
I5
I6
g22
I810
I8416
tp28
a(g18
g19
g20
g21
I6
I7
g22
I690
I8416
tp29
a(g18
g19
g20
g21
I7
I8
g22
I700
I8416
tp30
a(g18
g19
g20
S'test'
p31
I0
I1
g22
I1770
I42220
tp32
a(g18
g19
g20
g31
I1
I2
g22
I2810
I42220
tp33
a(g18
g19
g20
g31
I2
I3
g22
I680
I42220
tp34
a(g18
g19
g20
g31
I3
I4
g22
I1140
I42220
tp35
a(g18
g19
g20
g31
I4
I5
g22
I1390
I42220
tp36
a(g18
g19
g20
g31
I5
I6
g22
I2652
I42220
tp37
a(g18
g19
g20
g31
I6
I7
g22
I690
I42220
tp38
a(g18
g19
g20
g31
I7
I8
g22
I840
I42220
tp39
a(g18
g19
g20
g31
I8
I9
g22
I940
I42220
tp40
a(g18
g19
g20
g31
I9
I10
g22
I4450
I42220
tp41
a(g18
g19
g20
g31
I10
I11
g22
I581
I42220
tp42
a(g18
g19
g20
g31
I11
I12
g22
I1000
I42220
tp43
a(g18
g19
g20
g31
I12
I13
g22
I941
I42220
tp44
a(g18
g19
g20
g31
I13
I14
g22
I660
I42220
tp45
a(g18
g19
g20
g31
I14
I15
g22
I670
I42220
tp46
a(g18
g19
g20
g31
I15
I16
g22
I700
I42220
tp47
a(g18
g19
g20
g31
I16
I17
g22
I2020
I42220
tp48
a(g18
g19
g20
g31
I17
I18
g22
I3621
I42220
tp49
a(g18
g19
g20
g31
I18
I19
g22
I890
I42220
tp50
a(g18
g19
g20
g31
I19
I20
g22
I3530
I42220
tp51
a(g18
g19
g20
g31
I20
I21
g22
I580
I42220
tp52
a(g18
g19
g20
g31
I21
I22
g22
I5450
I42220
tp53
a(g18
g19
g20
g31
I22
I23
g22
I780
I42220
tp54
a(g18
g19
g20
g31
I23
I24
g22
I750
I42220
tp55
a(g18
g19
g20
g31
I24
I25
g22
I670
I42220
tp56
a(g18
g19
S'letter'
p57
g21
I0
S'a'
g22
I1520
I7346
tp58
a(g18
g19
g57
g21
I1
S'b'
g22
I570
I7346
tp59
a(g18
g19
g57
g21
I2
S'c'
g22
I780
I7346
tp60
a(g18
g19
g57
g21
I3
S'd'
g22
I770
I7346
tp61
a(g18
g19
g57
g21
I4
S'e'
g22
I670
I7346
tp62
a(g18
g19
g57
g21
I5
S'f'
g22
I990
I7346
tp63
a(g18
g19
g57
g21
I6
S'g'
g22
I1150
I7346
tp64
a(g18
g19
g57
g21
I7
S'h'
g22
I850
I7346
tp65
a(g18
g19
g57
g31
I0
S'a'
g22
I2710
I29449
tp66
a(g18
g19
g57
g31
I1
S'b'
g22
I2520
I29449
tp67
a(g18
g19
g57
g31
I2
S'c'
g22
I1200
I29449
tp68
a(g18
g19
g57
g31
I3
S'd'
g22
I960
I29449
tp69
a(g18
g19
g57
g31
I4
S'e'
g22
I990
I29449
tp70
a(g18
g19
g57
g31
I5
S'f'
g22
I800
I29449
tp71
a(g18
g19
g57
g31
I6
S'g'
g22
I1210
I29449
tp72
a(g18
g19
g57
g31
I7
S'h'
g22
I1420
I29449
tp73
a(g18
g19
g57
g31
I8
S'i'
g22
I1040
I29449
tp74
a(g18
g19
g57
g31
I9
S'j'
g22
I611
I29449
tp75
a(g18
g19
g57
g31
I10
S'k'
g22
I1630
I29449
tp76
a(g18
g19
g57
g31
I11
S'l'
g22
I1180
I29449
tp77
a(g18
g19
g57
g31
I12
S'm'
g22
I710
I29449
tp78
a(g18
g19
g57
g31
I13
S'n'
g22
I1160
I29449
tp79
a(g18
g19
g57
g31
I14
S'o'
g22
I770
I29449
tp80
a(g18
g19
g57
g31
I15
S'p'
g22
I3700
I29449
tp81
a(g18
g19
g57
g31
I16
S'q'
g22
I810
I29449
tp82
a(g18
g19
g57
g31
I17
S'r'
g22
I720
I29449
tp83
a(g18
g19
g57
g31
I18
S's'
g22
I860
I29449
tp84
a(g18
g19
g57
g31
I19
S't'
g22
I670
I29449
tp85
a(g18
g19
g57
g31
I20
S'u'
g22
I600
I29449
tp86
a(g18
g19
g57
g31
I21
S'v'
g22
I750
I29449
tp87
a(g18
g19
g57
g31
I22
S'w'
g22
I600
I29449
tp88
a(g18
g19
g57
g31
I23
S'x'
g22
I840
I29449
tp89
a(g18
g19
g57
g31
I24
S'y'
g22
I860
I29449
tp90
a(g18
g19
S'number-letter'
p91
g21
I0
I1
g22
I2090
I8886
tp92
a(g18
g19
g91
g21
I1
S'a'
g22
I950
I8886
tp93
a(g18
g19
g91
g21
I2
I2
g22
I990
I8886
tp94
a(g18
g19
g91
g21
I3
S'b'
g22
I1020
I8886
tp95
a(g18
g19
g91
g21
I4
I3
g22
I1540
I8886
tp96
a(g18
g19
g91
g21
I5
S'c'
g22
I860
I8886
tp97
a(g18
g19
g91
g21
I6
I4
g22
I710
I8886
tp98
a(g18
g19
g91
g21
I7
S'd'
g22
I680
I8886
tp99
a(g18
g19
g91
g31
I0
I1
g22
I2710
I55930
tp100
a(g18
g19
g91
g31
I1
S'a'
g22
I720
I55930
tp101
a(g18
g19
g91
g31
I2
I2
g22
I1220
I55930
tp102
a(g18
g19
g91
g31
I3
S'b'
g22
I3050
I55930
tp103
a(g18
g19
g91
g31
I4
I3
g22
I1130
I55930
tp104
a(g18
g19
g91
g31
I5
S'c'
g22
I1920
I55930
tp105
a(g18
g19
g91
g31
I6
I4
g22
I830
I55930
tp106
a(g18
g19
g91
g31
I7
S'd'
g22
I950
I55930
tp107
a(g18
g19
g91
g31
I8
I5
g22
I1961
I55930
tp108
a(g18
g19
g91
g31
I9
S'e'
g22
I2280
I55930
tp109
a(g18
g19
g91
g31
I10
I6
g22
I2450
I55930
tp110
a(g18
g19
g91
g31
I11
S'f'
g22
I860
I55930
tp111
a(g18
g19
g91
g31
I12
I7
g22
I2300
I55930
tp112
a(g18
g19
g91
g31
I13
S'g'
g22
I2150
I55930
tp113
a(g18
g19
g91
g31
I14
I8
g22
I3030
I55930
tp114
a(g18
g19
g91
g31
I15
S'h'
g22
I2270
I55930
tp115
a(g18
g19
g91
g31
I16
I9
g22
I4981
I55930
tp116
a(g18
g19
g91
g31
I17
S'i'
g22
I3610
I55930
tp117
a(g18
g19
g91
g31
I18
I10
g22
I1670
I55930
tp118
a(g18
g19
g91
g31
I19
S'j'
g22
I640
I55930
tp119
a(g18
g19
g91
g31
I20
I11
g22
I1130
I55930
tp120
a(g18
g19
g91
g31
I21
S'k'
g22
I4040
I55930
tp121
a(g18
g19
g91
g31
I22
I12
g22
I2351
I55930
tp122
a(g18
g19
g91
g31
I23
S'l'
g22
I3420
I55930
tp123
a(g18
g19
g91
g31
I24
I13
g22
I4130
I55930
tp124
asS'output_format'
p125
(lp126
(S'proband_id'
p127
c__builtin__
str
p128
tp129
a(S'test_name'
p130
g128
tp131
a(S'phase'
p132
g128
tp133
a(S'trial_type'
p134
g128
tp135
a(S'n'
c__builtin__
int
p136
tp137
a(S'rsp'
p138
g128
tp139
a(S'corr'
p140
g128
tp141
a(S'rt'
p142
g136
tp143
a(S'total_time'
p144
g136
tp145
asg127
g18
sS'filename'
p146
S'4391_ctrails.data'
p147
sS'initialised'
p148
g8
(S'\x07\xdf\x05\x0e\r0\x15\x02\x17('
tRp149
sS'last_udated'
p150
g8
(S'\x07\xdf\x05\x0e\r0\x15\x02\x17('
tRp151
sg130
S'ctrails'
p152
sS'directory'
p153
S'c:\\Charlie\\charlie\\data\\raw'
p154
sS'user_id'
p155
S'oleach'
p156
sS'test_started'
p157
I01
sS'abs_filename'
p158
S'c:\\Charlie\\charlie\\data\\raw\\4391_ctrails.data'
p159
sS'date_started'
p160
g8
(S'\x07\xdf\x05\x0e\r2\x0b\x0b+`'
tRp161
sS'log'
p162
(lp163
(S'2015-05-14 13:48:21.137000'
S'instance created'
p164
tp165
a(S'2015-05-14 13:50:11.745000'
S'instance updated'
p166
tp167
a(S'2015-05-14 13:50:11.755000'
S'pandas DataFrame of data created'
p168
tp169
a(S'2015-05-14 13:50:11.763000'
S'data saved as csv to c:\\Charlie\\charlie\\data\\csv\\4391_ctrails.csv'
tp170
a(S'2015-05-14 13:51:04.706000'
g166
tp171
a(S'2015-05-14 13:51:04.716000'
g168
tp172
a(S'2015-05-14 13:51:04.721000'
S'data saved as csv to c:\\Charlie\\charlie\\data\\csv\\4391_ctrails.csv'
tp173
a(S'2015-05-14 13:51:20.943000'
g166
tp174
a(S'2015-05-14 13:51:20.952000'
g168
tp175
a(S'2015-05-14 13:51:20.955000'
S'data saved as csv to c:\\Charlie\\charlie\\data\\csv\\4391_ctrails.csv'
tp176
a(S'2015-05-14 13:51:59.014000'
g166
tp177
a(S'2015-05-14 13:51:59.025000'
g168
tp178
a(S'2015-05-14 13:51:59.029000'
S'data saved as csv to c:\\Charlie\\charlie\\data\\csv\\4391_ctrails.csv'
tp179
a(S'2015-05-14 13:52:30.160000'
g166
tp180
a(S'2015-05-14 13:52:30.170000'
g168
tp181
a(S'2015-05-14 13:52:30.175000'
S'data saved as csv to c:\\Charlie\\charlie\\data\\csv\\4391_ctrails.csv'
tp182
a(S'2015-05-14 13:53:35.791000'
g166
tp183
a(S'2015-05-14 13:53:35.801000'
g168
tp184
a(S'2015-05-14 13:53:35.806000'
S'data saved as csv to c:\\Charlie\\charlie\\data\\csv\\4391_ctrails.csv'
tp185
asb.