(icharlie.tools.data
Data
p1
(dp2
S'lang'
p3
S'EN'
p4
sS'control'
p5
(lp6
sS'last_updated'
p7
cdatetime
datetime
p8
(S'\x07\xdf\x05\x13\x0c\x053\x08\x9b '
tRp9
sS'last_opened'
p10
g8
(S'\x07\xdf\x05\x13\x0b9\x0c\r\xc3p'
tRp11
sS'proj_id'
p12
S'connectivity'
p13
sS'date_done'
p14
NsS'test_done'
p15
I01
sS'data'
p16
(lp17
(S'4392'
p18
S'matrix_reasoning'
p19
S'practice'
p20
I0
S'C:\\Users\\Jbarrett\\Charlie\\charlie\\stimuli\\visual\\matrix_reasoning\\prac_MA.png'
S'C:\\Users\\Jbarrett\\Charlie\\charlie\\stimuli\\visual\\matrix_reasoning\\prac_MAa.png'
I1
I1
I7582
tp21
a(g18
g19
S'test'
p22
I0
S'C:\\Users\\Jbarrett\\Charlie\\charlie\\stimuli\\visual\\matrix_reasoning\\M001.png'
S'C:\\Users\\Jbarrett\\Charlie\\charlie\\stimuli\\visual\\matrix_reasoning\\M001a.png'
I1
I1
I8068
tp23
a(g18
g19
g22
I1
S'C:\\Users\\Jbarrett\\Charlie\\charlie\\stimuli\\visual\\matrix_reasoning\\M002.png'
S'C:\\Users\\Jbarrett\\Charlie\\charlie\\stimuli\\visual\\matrix_reasoning\\M002a.png'
I3
I3
I5259
tp24
a(g18
g19
g22
I2
S'C:\\Users\\Jbarrett\\Charlie\\charlie\\stimuli\\visual\\matrix_reasoning\\M003.png'
S'C:\\Users\\Jbarrett\\Charlie\\charlie\\stimuli\\visual\\matrix_reasoning\\M003a.png'
I1
I1
I4351
tp25
a(g18
g19
g22
I3
S'C:\\Users\\Jbarrett\\Charlie\\charlie\\stimuli\\visual\\matrix_reasoning\\M004.png'
S'C:\\Users\\Jbarrett\\Charlie\\charlie\\stimuli\\visual\\matrix_reasoning\\M004a.png'
I3
I3
I3391
tp26
a(g18
g19
g22
I4
S'C:\\Users\\Jbarrett\\Charlie\\charlie\\stimuli\\visual\\matrix_reasoning\\M005.png'
S'C:\\Users\\Jbarrett\\Charlie\\charlie\\stimuli\\visual\\matrix_reasoning\\M005a.png'
I2
I2
I3988
tp27
a(g18
g19
g22
I5
S'C:\\Users\\Jbarrett\\Charlie\\charlie\\stimuli\\visual\\matrix_reasoning\\M006.png'
S'C:\\Users\\Jbarrett\\Charlie\\charlie\\stimuli\\visual\\matrix_reasoning\\M006a.png'
I0
I0
I4943
tp28
a(g18
g19
g22
I6
S'C:\\Users\\Jbarrett\\Charlie\\charlie\\stimuli\\visual\\matrix_reasoning\\M007.png'
S'C:\\Users\\Jbarrett\\Charlie\\charlie\\stimuli\\visual\\matrix_reasoning\\M007a.png'
I0
I0
I5273
tp29
a(g18
g19
g22
I7
S'C:\\Users\\Jbarrett\\Charlie\\charlie\\stimuli\\visual\\matrix_reasoning\\M008.png'
S'C:\\Users\\Jbarrett\\Charlie\\charlie\\stimuli\\visual\\matrix_reasoning\\M008a.png'
I2
I2
I6153
tp30
a(g18
g19
g22
I8
S'C:\\Users\\Jbarrett\\Charlie\\charlie\\stimuli\\visual\\matrix_reasoning\\M009.png'
S'C:\\Users\\Jbarrett\\Charlie\\charlie\\stimuli\\visual\\matrix_reasoning\\M009a.png'
I4
I4
I5543
tp31
a(g18
g19
g22
I9
S'C:\\Users\\Jbarrett\\Charlie\\charlie\\stimuli\\visual\\matrix_reasoning\\M010.png'
S'C:\\Users\\Jbarrett\\Charlie\\charlie\\stimuli\\visual\\matrix_reasoning\\M010a.png'
I4
I4
I13024
tp32
a(g18
g19
g22
I10
S'C:\\Users\\Jbarrett\\Charlie\\charlie\\stimuli\\visual\\matrix_reasoning\\M011.png'
S'C:\\Users\\Jbarrett\\Charlie\\charlie\\stimuli\\visual\\matrix_reasoning\\M011a.png'
I4
I4
I5544
tp33
a(g18
g19
g22
I11
S'C:\\Users\\Jbarrett\\Charlie\\charlie\\stimuli\\visual\\matrix_reasoning\\M012.png'
S'C:\\Users\\Jbarrett\\Charlie\\charlie\\stimuli\\visual\\matrix_reasoning\\M012a.png'
I1
I1
I4737
tp34
a(g18
g19
g22
I12
S'C:\\Users\\Jbarrett\\Charlie\\charlie\\stimuli\\visual\\matrix_reasoning\\M013.png'
S'C:\\Users\\Jbarrett\\Charlie\\charlie\\stimuli\\visual\\matrix_reasoning\\M013a.png'
I2
I2
I9896
tp35
a(g18
g19
g22
I13
S'C:\\Users\\Jbarrett\\Charlie\\charlie\\stimuli\\visual\\matrix_reasoning\\M014.png'
S'C:\\Users\\Jbarrett\\Charlie\\charlie\\stimuli\\visual\\matrix_reasoning\\M014a.png'
I0
I0
I5687
tp36
a(g18
g19
g22
I14
S'C:\\Users\\Jbarrett\\Charlie\\charlie\\stimuli\\visual\\matrix_reasoning\\M015.png'
S'C:\\Users\\Jbarrett\\Charlie\\charlie\\stimuli\\visual\\matrix_reasoning\\M015a.png'
I1
I1
I6888
tp37
a(g18
g19
g22
I15
S'C:\\Users\\Jbarrett\\Charlie\\charlie\\stimuli\\visual\\matrix_reasoning\\M016.png'
S'C:\\Users\\Jbarrett\\Charlie\\charlie\\stimuli\\visual\\matrix_reasoning\\M016a.png'
I3
I3
I10167
tp38
a(g18
g19
g22
I16
S'C:\\Users\\Jbarrett\\Charlie\\charlie\\stimuli\\visual\\matrix_reasoning\\M017.png'
S'C:\\Users\\Jbarrett\\Charlie\\charlie\\stimuli\\visual\\matrix_reasoning\\M017a.png'
I2
I2
I7220
tp39
a(g18
g19
g22
I17
S'C:\\Users\\Jbarrett\\Charlie\\charlie\\stimuli\\visual\\matrix_reasoning\\M018.png'
S'C:\\Users\\Jbarrett\\Charlie\\charlie\\stimuli\\visual\\matrix_reasoning\\M018a.png'
I0
I0
I7665
tp40
a(g18
g19
g22
I18
S'C:\\Users\\Jbarrett\\Charlie\\charlie\\stimuli\\visual\\matrix_reasoning\\M019.png'
S'C:\\Users\\Jbarrett\\Charlie\\charlie\\stimuli\\visual\\matrix_reasoning\\M019a.png'
I0
I0
I14271
tp41
a(g18
g19
g22
I19
S'C:\\Users\\Jbarrett\\Charlie\\charlie\\stimuli\\visual\\matrix_reasoning\\M020.png'
S'C:\\Users\\Jbarrett\\Charlie\\charlie\\stimuli\\visual\\matrix_reasoning\\M020a.png'
I3
I3
I15523
tp42
a(g18
g19
g22
I20
S'C:\\Users\\Jbarrett\\Charlie\\charlie\\stimuli\\visual\\matrix_reasoning\\M021.png'
S'C:\\Users\\Jbarrett\\Charlie\\charlie\\stimuli\\visual\\matrix_reasoning\\M021a.png'
I4
I4
I35258
tp43
a(g18
g19
g22
I21
S'C:\\Users\\Jbarrett\\Charlie\\charlie\\stimuli\\visual\\matrix_reasoning\\M022.png'
S'C:\\Users\\Jbarrett\\Charlie\\charlie\\stimuli\\visual\\matrix_reasoning\\M022a.png'
I4
I4
I8429
tp44
a(g18
g19
g22
I22
S'C:\\Users\\Jbarrett\\Charlie\\charlie\\stimuli\\visual\\matrix_reasoning\\M023.png'
S'C:\\Users\\Jbarrett\\Charlie\\charlie\\stimuli\\visual\\matrix_reasoning\\M023a.png'
I1
I1
I16050
tp45
a(g18
g19
g22
I23
S'C:\\Users\\Jbarrett\\Charlie\\charlie\\stimuli\\visual\\matrix_reasoning\\M024.png'
S'C:\\Users\\Jbarrett\\Charlie\\charlie\\stimuli\\visual\\matrix_reasoning\\M024a.png'
I1
I1
I21553
tp46
a(g18
g19
g22
I24
S'C:\\Users\\Jbarrett\\Charlie\\charlie\\stimuli\\visual\\matrix_reasoning\\M025.png'
S'C:\\Users\\Jbarrett\\Charlie\\charlie\\stimuli\\visual\\matrix_reasoning\\M025a.png'
I0
I0
I15116
tp47
a(g18
g19
g22
I25
S'C:\\Users\\Jbarrett\\Charlie\\charlie\\stimuli\\visual\\matrix_reasoning\\M026.png'
S'C:\\Users\\Jbarrett\\Charlie\\charlie\\stimuli\\visual\\matrix_reasoning\\M026a.png'
I4
I4
I28062
tp48
a(g18
g19
g22
I26
S'C:\\Users\\Jbarrett\\Charlie\\charlie\\stimuli\\visual\\matrix_reasoning\\M027.png'
S'C:\\Users\\Jbarrett\\Charlie\\charlie\\stimuli\\visual\\matrix_reasoning\\M027a.png'
I3
I3
I48126
tp49
a(g18
g19
g22
I27
S'C:\\Users\\Jbarrett\\Charlie\\charlie\\stimuli\\visual\\matrix_reasoning\\M028.png'
S'C:\\Users\\Jbarrett\\Charlie\\charlie\\stimuli\\visual\\matrix_reasoning\\M028a.png'
I2
I0
I25146
tp50
a(g18
g19
g22
I28
S'C:\\Users\\Jbarrett\\Charlie\\charlie\\stimuli\\visual\\matrix_reasoning\\M029.png'
S'C:\\Users\\Jbarrett\\Charlie\\charlie\\stimuli\\visual\\matrix_reasoning\\M029a.png'
I2
I0
I27684
tp51
a(g18
g19
g22
I29
S'C:\\Users\\Jbarrett\\Charlie\\charlie\\stimuli\\visual\\matrix_reasoning\\M030.png'
S'C:\\Users\\Jbarrett\\Charlie\\charlie\\stimuli\\visual\\matrix_reasoning\\M030a.png'
I3
I2
I50414
tp52
a(g18
g19
g22
I30
S'C:\\Users\\Jbarrett\\Charlie\\charlie\\stimuli\\visual\\matrix_reasoning\\M031.png'
p53
S'C:\\Users\\Jbarrett\\Charlie\\charlie\\stimuli\\visual\\matrix_reasoning\\M031a.png'
p54
I0
I4
I61320
tp55
asS'output_format'
p56
(lp57
(S'proband_id'
p58
c__builtin__
str
p59
tp60
a(S'test_name'
p61
g59
tp62
a(S'phase'
p63
g59
tp64
a(S'trialn'
p65
c__builtin__
int
p66
tp67
a(S'matrix'
p68
g59
tp69
a(S'array'
p70
g59
tp71
a(S'ans'
p72
g66
tp73
a(S'rsp'
p74
g66
tp75
a(S'rt'
p76
g66
tp77
asg58
g18
sS'filename'
p78
S'4392_matrix_reasoning.data'
p79
sS'initialised'
p80
g8
(S'\x07\xdf\x05\x13\x0b9\x0c\r\xc3p'
tRp81
sS'last_udated'
p82
g8
(S'\x07\xdf\x05\x13\x0b9\x0c\r\xc3p'
tRp83
sg61
S'matrix_reasoning'
p84
sS'directory'
p85
S'C:\\Users\\Jbarrett\\Charlie\\charlie\\data\\raw'
p86
sS'user_id'
p87
S'jbarrett'
p88
sS'test_started'
p89
I01
sS'abs_filename'
p90
S'C:\\Users\\Jbarrett\\Charlie\\charlie\\data\\raw\\4392_matrix_reasoning.data'
p91
sS'date_started'
p92
g8
(S"\x07\xdf\x05\x13\x0b9'\x05\xff("
tRp93
sS'log'
p94
(lp95
(S'2015-05-19 11:57:12.902000'
S'instance created'
p96
tp97
a(S'2015-05-19 11:57:39.398000'
S'instance updated'
p98
tp99
a(S'2015-05-19 11:57:39.403000'
S'pandas DataFrame of data created'
p100
tp101
a(S'2015-05-19 11:57:39.405000'
S'data saved as csv to C:\\Users\\Jbarrett\\Charlie\\charlie\\data\\csv\\4392_matrix_reasoning.csv'
tp102
a(S'2015-05-19 11:57:39.410000'
g100
tp103
a(S'2015-05-19 11:57:50.574000'
g98
tp104
a(S'2015-05-19 11:57:50.584000'
g100
tp105
a(S'2015-05-19 11:57:50.587000'
S'data saved as csv to C:\\Users\\Jbarrett\\Charlie\\charlie\\data\\csv\\4392_matrix_reasoning.csv'
tp106
a(S'2015-05-19 11:57:50.593000'
g100
tp107
a(S'2015-05-19 11:57:55.989000'
g98
tp108
a(S'2015-05-19 11:57:55.997000'
g100
tp109
a(S'2015-05-19 11:57:56.001000'
S'data saved as csv to C:\\Users\\Jbarrett\\Charlie\\charlie\\data\\csv\\4392_matrix_reasoning.csv'
tp110
a(S'2015-05-19 11:57:56.010000'
g100
tp111
a(S'2015-05-19 11:58:00.482000'
g98
tp112
a(S'2015-05-19 11:58:00.485000'
g100
tp113
a(S'2015-05-19 11:58:00.486000'
S'data saved as csv to C:\\Users\\Jbarrett\\Charlie\\charlie\\data\\csv\\4392_matrix_reasoning.csv'
tp114
a(S'2015-05-19 11:58:00.489000'
g100
tp115
a(S'2015-05-19 11:58:04.016000'
g98
tp116
a(S'2015-05-19 11:58:04.026000'
g100
tp117
a(S'2015-05-19 11:58:04.028000'
S'data saved as csv to C:\\Users\\Jbarrett\\Charlie\\charlie\\data\\csv\\4392_matrix_reasoning.csv'
tp118
a(S'2015-05-19 11:58:04.034000'
g100
tp119
a(S'2015-05-19 11:58:08.159000'
g98
tp120
a(S'2015-05-19 11:58:08.170000'
g100
tp121
a(S'2015-05-19 11:58:08.173000'
S'data saved as csv to C:\\Users\\Jbarrett\\Charlie\\charlie\\data\\csv\\4392_matrix_reasoning.csv'
tp122
a(S'2015-05-19 11:58:08.183000'
g100
tp123
a(S'2015-05-19 11:58:13.250000'
g98
tp124
a(S'2015-05-19 11:58:13.252000'
g100
tp125
a(S'2015-05-19 11:58:13.253000'
S'data saved as csv to C:\\Users\\Jbarrett\\Charlie\\charlie\\data\\csv\\4392_matrix_reasoning.csv'
tp126
a(S'2015-05-19 11:58:13.256000'
g100
tp127
a(S'2015-05-19 11:58:18.643000'
g98
tp128
a(S'2015-05-19 11:58:18.645000'
g100
tp129
a(S'2015-05-19 11:58:18.646000'
S'data saved as csv to C:\\Users\\Jbarrett\\Charlie\\charlie\\data\\csv\\4392_matrix_reasoning.csv'
tp130
a(S'2015-05-19 11:58:18.649000'
g100
tp131
a(S'2015-05-19 11:58:24.915000'
g98
tp132
a(S'2015-05-19 11:58:24.917000'
g100
tp133
a(S'2015-05-19 11:58:24.918000'
S'data saved as csv to C:\\Users\\Jbarrett\\Charlie\\charlie\\data\\csv\\4392_matrix_reasoning.csv'
tp134
a(S'2015-05-19 11:58:24.921000'
g100
tp135
a(S'2015-05-19 11:58:30.579000'
g98
tp136
a(S'2015-05-19 11:58:30.581000'
g100
tp137
a(S'2015-05-19 11:58:30.583000'
S'data saved as csv to C:\\Users\\Jbarrett\\Charlie\\charlie\\data\\csv\\4392_matrix_reasoning.csv'
tp138
a(S'2015-05-19 11:58:30.585000'
g100
tp139
a(S'2015-05-19 11:58:43.724000'
g98
tp140
a(S'2015-05-19 11:58:43.726000'
g100
tp141
a(S'2015-05-19 11:58:43.727000'
S'data saved as csv to C:\\Users\\Jbarrett\\Charlie\\charlie\\data\\csv\\4392_matrix_reasoning.csv'
tp142
a(S'2015-05-19 11:58:43.730000'
g100
tp143
a(S'2015-05-19 11:58:49.387000'
g98
tp144
a(S'2015-05-19 11:58:49.390000'
g100
tp145
a(S'2015-05-19 11:58:49.391000'
S'data saved as csv to C:\\Users\\Jbarrett\\Charlie\\charlie\\data\\csv\\4392_matrix_reasoning.csv'
tp146
a(S'2015-05-19 11:58:49.394000'
g100
tp147
a(S'2015-05-19 11:58:54.244000'
g98
tp148
a(S'2015-05-19 11:58:54.246000'
g100
tp149
a(S'2015-05-19 11:58:54.247000'
S'data saved as csv to C:\\Users\\Jbarrett\\Charlie\\charlie\\data\\csv\\4392_matrix_reasoning.csv'
tp150
a(S'2015-05-19 11:58:54.250000'
g100
tp151
a(S'2015-05-19 11:59:04.261000'
g98
tp152
a(S'2015-05-19 11:59:04.263000'
g100
tp153
a(S'2015-05-19 11:59:04.264000'
S'data saved as csv to C:\\Users\\Jbarrett\\Charlie\\charlie\\data\\csv\\4392_matrix_reasoning.csv'
tp154
a(S'2015-05-19 11:59:04.267000'
g100
tp155
a(S'2015-05-19 11:59:10.069000'
g98
tp156
a(S'2015-05-19 11:59:10.071000'
g100
tp157
a(S'2015-05-19 11:59:10.073000'
S'data saved as csv to C:\\Users\\Jbarrett\\Charlie\\charlie\\data\\csv\\4392_matrix_reasoning.csv'
tp158
a(S'2015-05-19 11:59:10.075000'
g100
tp159
a(S'2015-05-19 11:59:17.077000'
g98
tp160
a(S'2015-05-19 11:59:17.079000'
g100
tp161
a(S'2015-05-19 11:59:17.080000'
S'data saved as csv to C:\\Users\\Jbarrett\\Charlie\\charlie\\data\\csv\\4392_matrix_reasoning.csv'
tp162
a(S'2015-05-19 11:59:17.083000'
g100
tp163
a(S'2015-05-19 11:59:27.385000'
g98
tp164
a(S'2015-05-19 11:59:27.396000'
g100
tp165
a(S'2015-05-19 11:59:27.400000'
S'data saved as csv to C:\\Users\\Jbarrett\\Charlie\\charlie\\data\\csv\\4392_matrix_reasoning.csv'
tp166
a(S'2015-05-19 11:59:27.405000'
g100
tp167
a(S'2015-05-19 11:59:34.762000'
g98
tp168
a(S'2015-05-19 11:59:34.772000'
g100
tp169
a(S'2015-05-19 11:59:34.776000'
S'data saved as csv to C:\\Users\\Jbarrett\\Charlie\\charlie\\data\\csv\\4392_matrix_reasoning.csv'
tp170
a(S'2015-05-19 11:59:34.783000'
g100
tp171
a(S'2015-05-19 11:59:42.586000'
g98
tp172
a(S'2015-05-19 11:59:42.596000'
g100
tp173
a(S'2015-05-19 11:59:42.601000'
S'data saved as csv to C:\\Users\\Jbarrett\\Charlie\\charlie\\data\\csv\\4392_matrix_reasoning.csv'
tp174
a(S'2015-05-19 11:59:42.610000'
g100
tp175
a(S'2015-05-19 11:59:57.019000'
g98
tp176
a(S'2015-05-19 11:59:57.026000'
g100
tp177
a(S'2015-05-19 11:59:57.029000'
S'data saved as csv to C:\\Users\\Jbarrett\\Charlie\\charlie\\data\\csv\\4392_matrix_reasoning.csv'
tp178
a(S'2015-05-19 11:59:57.037000'
g100
tp179
a(S'2015-05-19 12:00:12.700000'
g98
tp180
a(S'2015-05-19 12:00:12.711000'
g100
tp181
a(S'2015-05-19 12:00:12.715000'
S'data saved as csv to C:\\Users\\Jbarrett\\Charlie\\charlie\\data\\csv\\4392_matrix_reasoning.csv'
tp182
a(S'2015-05-19 12:00:12.725000'
g100
tp183
a(S'2015-05-19 12:00:48.128000'
g98
tp184
a(S'2015-05-19 12:00:48.138000'
g100
tp185
a(S'2015-05-19 12:00:48.142000'
S'data saved as csv to C:\\Users\\Jbarrett\\Charlie\\charlie\\data\\csv\\4392_matrix_reasoning.csv'
tp186
a(S'2015-05-19 12:00:48.153000'
g100
tp187
a(S'2015-05-19 12:00:56.726000'
g98
tp188
a(S'2015-05-19 12:00:56.736000'
g100
tp189
a(S'2015-05-19 12:00:56.741000'
S'data saved as csv to C:\\Users\\Jbarrett\\Charlie\\charlie\\data\\csv\\4392_matrix_reasoning.csv'
tp190
a(S'2015-05-19 12:00:56.747000'
g100
tp191
a(S'2015-05-19 12:01:12.935000'
g98
tp192
a(S'2015-05-19 12:01:12.945000'
g100
tp193
a(S'2015-05-19 12:01:12.948000'
S'data saved as csv to C:\\Users\\Jbarrett\\Charlie\\charlie\\data\\csv\\4392_matrix_reasoning.csv'
tp194
a(S'2015-05-19 12:01:12.954000'
g100
tp195
a(S'2015-05-19 12:01:34.648000'
g98
tp196
a(S'2015-05-19 12:01:34.659000'
g100
tp197
a(S'2015-05-19 12:01:34.664000'
S'data saved as csv to C:\\Users\\Jbarrett\\Charlie\\charlie\\data\\csv\\4392_matrix_reasoning.csv'
tp198
a(S'2015-05-19 12:01:34.671000'
g100
tp199
a(S'2015-05-19 12:01:49.929000'
g98
tp200
a(S'2015-05-19 12:01:49.939000'
g100
tp201
a(S'2015-05-19 12:01:49.941000'
S'data saved as csv to C:\\Users\\Jbarrett\\Charlie\\charlie\\data\\csv\\4392_matrix_reasoning.csv'
tp202
a(S'2015-05-19 12:01:49.948000'
g100
tp203
a(S'2015-05-19 12:02:18.135000'
g98
tp204
a(S'2015-05-19 12:02:18.137000'
g100
tp205
a(S'2015-05-19 12:02:18.138000'
S'data saved as csv to C:\\Users\\Jbarrett\\Charlie\\charlie\\data\\csv\\4392_matrix_reasoning.csv'
tp206
a(S'2015-05-19 12:02:18.141000'
g100
tp207
a(S'2015-05-19 12:03:06.389000'
g98
tp208
a(S'2015-05-19 12:03:06.393000'
g100
tp209
a(S'2015-05-19 12:03:06.395000'
S'data saved as csv to C:\\Users\\Jbarrett\\Charlie\\charlie\\data\\csv\\4392_matrix_reasoning.csv'
tp210
a(S'2015-05-19 12:03:06.399000'
g100
tp211
a(S'2015-05-19 12:03:31.669000'
g98
tp212
a(S'2015-05-19 12:03:31.673000'
g100
tp213
a(S'2015-05-19 12:03:31.675000'
S'data saved as csv to C:\\Users\\Jbarrett\\Charlie\\charlie\\data\\csv\\4392_matrix_reasoning.csv'
tp214
a(S'2015-05-19 12:03:31.680000'
g100
tp215
a(S'2015-05-19 12:03:59.482000'
g98
tp216
a(S'2015-05-19 12:03:59.485000'
g100
tp217
a(S'2015-05-19 12:03:59.486000'
S'data saved as csv to C:\\Users\\Jbarrett\\Charlie\\charlie\\data\\csv\\4392_matrix_reasoning.csv'
tp218
a(S'2015-05-19 12:03:59.489000'
g100
tp219
a(S'2015-05-19 12:04:50.043000'
g98
tp220
a(S'2015-05-19 12:04:50.054000'
g100
tp221
a(S'2015-05-19 12:04:50.058000'
S'data saved as csv to C:\\Users\\Jbarrett\\Charlie\\charlie\\data\\csv\\4392_matrix_reasoning.csv'
tp222
a(S'2015-05-19 12:04:50.067000'
g100
tp223
a(S'2015-05-19 12:05:51.532000'
g98
tp224
a(S'2015-05-19 12:05:51.543000'
g100
tp225
a(S'2015-05-19 12:05:51.547000'
S'data saved as csv to C:\\Users\\Jbarrett\\Charlie\\charlie\\data\\csv\\4392_matrix_reasoning.csv'
tp226
a(S'2015-05-19 12:05:51.558000'
g100
tp227
asb.