(icharlie.tools.data
Data
p1
(dp2
S'lang'
p3
S'EN'
p4
sS'control'
p5
(lp6
sS'last_updated'
p7
cdatetime
datetime
p8
(S'\x07\xdf\x05\x1a\x0b\x05\x1e\x0c\xb2\x00'
tRp9
sS'last_opened'
p10
g8
(S'\x07\xdf\x05\x1a\n;\x05\x07\xb4\xa8'
tRp11
sS'proj_id'
p12
S'connectivity'
p13
sS'date_done'
p14
NsS'test_done'
p15
I01
sS'data'
p16
(lp17
(S'4395'
p18
S'scap'
p19
S'practice'
p20
I3
I0
S'Yes'
p21
S'c:\\Charlie\\charlie\\stimuli\\visual\\scap\\practice-1.BMP'
S'c:\\Charlie\\charlie\\stimuli\\visual\\scap\\practice-2.BMP'
g21
I2230
tp22
a(g18
g19
g20
I4
I1
S'No'
p23
S'c:\\Charlie\\charlie\\stimuli\\visual\\scap\\practice-3.BMP'
S'c:\\Charlie\\charlie\\stimuli\\visual\\scap\\practice-4.BMP'
g21
I2230
tp24
a(g18
g19
g20
I5
I2
g21
S'c:\\Charlie\\charlie\\stimuli\\visual\\scap\\practice-5.BMP'
S'c:\\Charlie\\charlie\\stimuli\\visual\\scap\\practice-6.BMP'
g23
I5040
tp25
a(g18
g19
S'test'
p26
I3
I0
g21
S'c:\\Charlie\\charlie\\stimuli\\visual\\scap\\load3-1.BMP'
S'c:\\Charlie\\charlie\\stimuli\\visual\\scap\\load3-2.BMP'
g21
I3150
tp27
a(g18
g19
g26
I3
I1
g23
S'c:\\Charlie\\charlie\\stimuli\\visual\\scap\\load3-3.BMP'
S'c:\\Charlie\\charlie\\stimuli\\visual\\scap\\load3-4.BMP'
g21
I1460
tp28
a(g18
g19
g26
I3
I2
g21
S'c:\\Charlie\\charlie\\stimuli\\visual\\scap\\load3-5.BMP'
S'c:\\Charlie\\charlie\\stimuli\\visual\\scap\\load3-6.BMP'
g23
I950
tp29
a(g18
g19
g26
I3
I3
g21
S'c:\\Charlie\\charlie\\stimuli\\visual\\scap\\load3-7.BMP'
S'c:\\Charlie\\charlie\\stimuli\\visual\\scap\\load3-8.BMP'
g21
I2530
tp30
a(g18
g19
g26
I3
I4
g23
S'c:\\Charlie\\charlie\\stimuli\\visual\\scap\\load3-9.BMP'
S'c:\\Charlie\\charlie\\stimuli\\visual\\scap\\load3-10.BMP'
g23
I1070
tp31
a(g18
g19
g26
I3
I5
g21
S'c:\\Charlie\\charlie\\stimuli\\visual\\scap\\load3-11.BMP'
S'c:\\Charlie\\charlie\\stimuli\\visual\\scap\\load3-12.BMP'
g21
I2190
tp32
a(g18
g19
g26
I3
I6
g23
S'c:\\Charlie\\charlie\\stimuli\\visual\\scap\\load3-13.BMP'
S'c:\\Charlie\\charlie\\stimuli\\visual\\scap\\load3-14.BMP'
g23
I1230
tp33
a(g18
g19
g26
I3
I7
g23
S'c:\\Charlie\\charlie\\stimuli\\visual\\scap\\load3-15.BMP'
S'c:\\Charlie\\charlie\\stimuli\\visual\\scap\\load3-16.BMP'
g23
I1301
tp34
a(g18
g19
g26
I3
I8
g21
S'c:\\Charlie\\charlie\\stimuli\\visual\\scap\\load3-17.BMP'
S'c:\\Charlie\\charlie\\stimuli\\visual\\scap\\load3-18.BMP'
g23
I1100
tp35
a(g18
g19
g26
I3
I9
g23
S'c:\\Charlie\\charlie\\stimuli\\visual\\scap\\load3-19.BMP'
S'c:\\Charlie\\charlie\\stimuli\\visual\\scap\\load3-20.BMP'
g23
I1040
tp36
a(g18
g19
g26
I3
I10
g21
S'c:\\Charlie\\charlie\\stimuli\\visual\\scap\\load3-21.BMP'
S'c:\\Charlie\\charlie\\stimuli\\visual\\scap\\load3-22.BMP'
g23
I1350
tp37
a(g18
g19
g26
I3
I11
g21
S'c:\\Charlie\\charlie\\stimuli\\visual\\scap\\load3-23.BMP'
S'c:\\Charlie\\charlie\\stimuli\\visual\\scap\\load3-24.BMP'
g23
I1490
tp38
a(g18
g19
g26
I3
I12
g23
S'c:\\Charlie\\charlie\\stimuli\\visual\\scap\\load3-25.BMP'
S'c:\\Charlie\\charlie\\stimuli\\visual\\scap\\load3-26.BMP'
g23
I1370
tp39
a(g18
g19
g26
I3
I13
g23
S'c:\\Charlie\\charlie\\stimuli\\visual\\scap\\load3-27.BMP'
S'c:\\Charlie\\charlie\\stimuli\\visual\\scap\\load3-28.BMP'
g23
I840
tp40
a(g18
g19
g26
I4
I0
g23
S'c:\\Charlie\\charlie\\stimuli\\visual\\scap\\load4-1.BMP'
S'c:\\Charlie\\charlie\\stimuli\\visual\\scap\\load4-2.BMP'
g23
I970
tp41
a(g18
g19
g26
I4
I1
g21
S'c:\\Charlie\\charlie\\stimuli\\visual\\scap\\load4-3.BMP'
S'c:\\Charlie\\charlie\\stimuli\\visual\\scap\\load4-4.BMP'
g21
I960
tp42
a(g18
g19
g26
I4
I2
g21
S'c:\\Charlie\\charlie\\stimuli\\visual\\scap\\load4-5.BMP'
S'c:\\Charlie\\charlie\\stimuli\\visual\\scap\\load4-6.BMP'
g23
I800
tp43
a(g18
g19
g26
I4
I3
g23
S'c:\\Charlie\\charlie\\stimuli\\visual\\scap\\load4-7.BMP'
S'c:\\Charlie\\charlie\\stimuli\\visual\\scap\\load4-8.BMP'
g23
I840
tp44
a(g18
g19
g26
I4
I4
g23
S'c:\\Charlie\\charlie\\stimuli\\visual\\scap\\load4-9.BMP'
S'c:\\Charlie\\charlie\\stimuli\\visual\\scap\\load4-10.BMP'
g21
I2680
tp45
a(g18
g19
g26
I4
I5
g21
S'c:\\Charlie\\charlie\\stimuli\\visual\\scap\\load4-11.BMP'
S'c:\\Charlie\\charlie\\stimuli\\visual\\scap\\load4-12.BMP'
g21
I1910
tp46
a(g18
g19
g26
I4
I6
g23
S'c:\\Charlie\\charlie\\stimuli\\visual\\scap\\load4-13.BMP'
S'c:\\Charlie\\charlie\\stimuli\\visual\\scap\\load4-14.BMP'
g23
I1400
tp47
a(g18
g19
g26
I4
I7
g21
S'c:\\Charlie\\charlie\\stimuli\\visual\\scap\\load4-15.BMP'
S'c:\\Charlie\\charlie\\stimuli\\visual\\scap\\load4-16.BMP'
g23
I2111
tp48
a(g18
g19
g26
I4
I8
g23
S'c:\\Charlie\\charlie\\stimuli\\visual\\scap\\load4-17.BMP'
S'c:\\Charlie\\charlie\\stimuli\\visual\\scap\\load4-18.BMP'
g23
I1720
tp49
a(g18
g19
g26
I4
I9
g21
S'c:\\Charlie\\charlie\\stimuli\\visual\\scap\\load4-19.BMP'
S'c:\\Charlie\\charlie\\stimuli\\visual\\scap\\load4-20.BMP'
g21
I1230
tp50
a(g18
g19
g26
I4
I10
g21
S'c:\\Charlie\\charlie\\stimuli\\visual\\scap\\load4-21.BMP'
S'c:\\Charlie\\charlie\\stimuli\\visual\\scap\\load4-22.BMP'
g23
I2830
tp51
a(g18
g19
g26
I4
I11
g23
S'c:\\Charlie\\charlie\\stimuli\\visual\\scap\\load4-23.BMP'
S'c:\\Charlie\\charlie\\stimuli\\visual\\scap\\load4-24.BMP'
g21
I1040
tp52
a(g18
g19
g26
I4
I12
g21
S'c:\\Charlie\\charlie\\stimuli\\visual\\scap\\load4-25.BMP'
S'c:\\Charlie\\charlie\\stimuli\\visual\\scap\\load4-26.BMP'
g21
I940
tp53
a(g18
g19
g26
I4
I13
g23
S'c:\\Charlie\\charlie\\stimuli\\visual\\scap\\load4-27.BMP'
S'c:\\Charlie\\charlie\\stimuli\\visual\\scap\\load4-28.BMP'
g21
I1000
tp54
a(g18
g19
g26
I5
I0
g21
S'c:\\Charlie\\charlie\\stimuli\\visual\\scap\\load5-1.BMP'
S'c:\\Charlie\\charlie\\stimuli\\visual\\scap\\load5-2.BMP'
g21
I811
tp55
a(g18
g19
g26
I5
I1
g21
S'c:\\Charlie\\charlie\\stimuli\\visual\\scap\\load5-3.BMP'
S'c:\\Charlie\\charlie\\stimuli\\visual\\scap\\load5-4.BMP'
g23
I910
tp56
a(g18
g19
g26
I5
I2
g21
S'c:\\Charlie\\charlie\\stimuli\\visual\\scap\\load5-5.BMP'
S'c:\\Charlie\\charlie\\stimuli\\visual\\scap\\load5-6.BMP'
g23
I2190
tp57
a(g18
g19
g26
I5
I3
g21
S'c:\\Charlie\\charlie\\stimuli\\visual\\scap\\load5-7.BMP'
S'c:\\Charlie\\charlie\\stimuli\\visual\\scap\\load5-8.BMP'
g21
I1360
tp58
a(g18
g19
g26
I5
I4
g21
S'c:\\Charlie\\charlie\\stimuli\\visual\\scap\\load5-9.BMP'
S'c:\\Charlie\\charlie\\stimuli\\visual\\scap\\load5-10.BMP'
g21
I1370
tp59
a(g18
g19
g26
I5
I5
g21
S'c:\\Charlie\\charlie\\stimuli\\visual\\scap\\load5-11.BMP'
S'c:\\Charlie\\charlie\\stimuli\\visual\\scap\\load5-12.BMP'
g23
I1180
tp60
a(g18
g19
g26
I5
I6
g23
S'c:\\Charlie\\charlie\\stimuli\\visual\\scap\\load5-13.BMP'
S'c:\\Charlie\\charlie\\stimuli\\visual\\scap\\load5-14.BMP'
g23
I2040
tp61
a(g18
g19
g26
I5
I7
g23
S'c:\\Charlie\\charlie\\stimuli\\visual\\scap\\load5-15.BMP'
S'c:\\Charlie\\charlie\\stimuli\\visual\\scap\\load5-16.BMP'
g23
I2570
tp62
a(g18
g19
g26
I5
I8
g23
S'c:\\Charlie\\charlie\\stimuli\\visual\\scap\\load5-17.BMP'
S'c:\\Charlie\\charlie\\stimuli\\visual\\scap\\load5-18.BMP'
g23
I1390
tp63
a(g18
g19
g26
I5
I9
g23
S'c:\\Charlie\\charlie\\stimuli\\visual\\scap\\load5-19.BMP'
S'c:\\Charlie\\charlie\\stimuli\\visual\\scap\\load5-20.BMP'
g23
I1551
tp64
a(g18
g19
g26
I5
I10
g23
S'c:\\Charlie\\charlie\\stimuli\\visual\\scap\\load5-21.BMP'
S'c:\\Charlie\\charlie\\stimuli\\visual\\scap\\load5-22.BMP'
g23
I1370
tp65
a(g18
g19
g26
I5
I11
g21
S'c:\\Charlie\\charlie\\stimuli\\visual\\scap\\load5-23.BMP'
S'c:\\Charlie\\charlie\\stimuli\\visual\\scap\\load5-24.BMP'
g21
I1600
tp66
a(g18
g19
g26
I5
I12
g23
S'c:\\Charlie\\charlie\\stimuli\\visual\\scap\\load5-25.BMP'
S'c:\\Charlie\\charlie\\stimuli\\visual\\scap\\load5-26.BMP'
g23
I1020
tp67
a(g18
g19
g26
I5
I13
g23
S'c:\\Charlie\\charlie\\stimuli\\visual\\scap\\load5-27.BMP'
p68
S'c:\\Charlie\\charlie\\stimuli\\visual\\scap\\load5-28.BMP'
p69
g21
I860
tp70
asS'output_format'
p71
(lp72
(S'proband_id'
p73
c__builtin__
str
p74
tp75
a(S'test_name'
p76
g74
tp77
a(S'phase'
p78
g74
tp79
a(S'load'
p80
c__builtin__
int
p81
tp82
a(S'trialn'
p83
g81
tp84
a(S'ans'
p85
g74
tp86
a(S'array_f'
p87
g74
tp88
a(S'probe_f'
p89
g74
tp90
a(S'rsp'
p91
g74
tp92
a(S'rt'
p93
g81
tp94
asg73
g18
sS'filename'
p95
S'4395_scap.data'
p96
sS'initialised'
p97
g8
(S'\x07\xdf\x05\x1a\n;\x05\x07\xb4\xa8'
tRp98
sS'last_udated'
p99
g8
(S'\x07\xdf\x05\x1a\n;\x05\x07\xb4\xa8'
tRp100
sg76
S'scap'
p101
sS'directory'
p102
S'c:\\Charlie\\charlie\\data\\raw'
p103
sS'user_id'
p104
S'sbuccheri'
p105
sS'test_started'
p106
I01
sS'abs_filename'
p107
S'c:\\Charlie\\charlie\\data\\raw\\4395_scap.data'
p108
sS'date_started'
p109
g8
(S'\x07\xdf\x05\x1a\n; \x01\xb9h'
tRp110
sS'log'
p111
(lp112
(S'2015-05-26 10:59:05.505000'
S'instance created'
p113
tp114
a(S'2015-05-26 10:59:32.127000'
S'instance updated'
p115
tp116
a(S'2015-05-26 10:59:32.137000'
S'pandas DataFrame of data created'
p117
tp118
a(S'2015-05-26 10:59:32.146000'
S'data saved as csv to c:\\Charlie\\charlie\\data\\csv\\4395_scap.csv'
tp119
a(S'2015-05-26 10:59:41.432000'
g115
tp120
a(S'2015-05-26 10:59:41.443000'
g117
tp121
a(S'2015-05-26 10:59:41.447000'
S'data saved as csv to c:\\Charlie\\charlie\\data\\csv\\4395_scap.csv'
tp122
a(S'2015-05-26 10:59:53.524000'
g115
tp123
a(S'2015-05-26 10:59:53.534000'
g117
tp124
a(S'2015-05-26 10:59:53.536000'
S'data saved as csv to c:\\Charlie\\charlie\\data\\csv\\4395_scap.csv'
tp125
a(S'2015-05-26 11:00:20.091000'
g115
tp126
a(S'2015-05-26 11:00:20.101000'
g117
tp127
a(S'2015-05-26 11:00:20.105000'
S'data saved as csv to c:\\Charlie\\charlie\\data\\csv\\4395_scap.csv'
tp128
a(S'2015-05-26 11:00:27.702000'
g115
tp129
a(S'2015-05-26 11:00:27.712000'
g117
tp130
a(S'2015-05-26 11:00:27.716000'
S'data saved as csv to c:\\Charlie\\charlie\\data\\csv\\4395_scap.csv'
tp131
a(S'2015-05-26 11:00:34.802000'
g115
tp132
a(S'2015-05-26 11:00:34.813000'
g117
tp133
a(S'2015-05-26 11:00:34.815000'
S'data saved as csv to c:\\Charlie\\charlie\\data\\csv\\4395_scap.csv'
tp134
a(S'2015-05-26 11:00:43.480000'
g115
tp135
a(S'2015-05-26 11:00:43.491000'
g117
tp136
a(S'2015-05-26 11:00:43.494000'
S'data saved as csv to c:\\Charlie\\charlie\\data\\csv\\4395_scap.csv'
tp137
a(S'2015-05-26 11:00:50.701000'
g115
tp138
a(S'2015-05-26 11:00:50.711000'
g117
tp139
a(S'2015-05-26 11:00:50.714000'
S'data saved as csv to c:\\Charlie\\charlie\\data\\csv\\4395_scap.csv'
tp140
a(S'2015-05-26 11:00:59.038000'
g115
tp141
a(S'2015-05-26 11:00:59.049000'
g117
tp142
a(S'2015-05-26 11:00:59.053000'
S'data saved as csv to c:\\Charlie\\charlie\\data\\csv\\4395_scap.csv'
tp143
a(S'2015-05-26 11:01:06.420000'
g115
tp144
a(S'2015-05-26 11:01:06.431000'
g117
tp145
a(S'2015-05-26 11:01:06.433000'
S'data saved as csv to c:\\Charlie\\charlie\\data\\csv\\4395_scap.csv'
tp146
a(S'2015-05-26 11:01:13.868000'
g115
tp147
a(S'2015-05-26 11:01:13.878000'
g117
tp148
a(S'2015-05-26 11:01:13.882000'
S'data saved as csv to c:\\Charlie\\charlie\\data\\csv\\4395_scap.csv'
tp149
a(S'2015-05-26 11:01:21.119000'
g115
tp150
a(S'2015-05-26 11:01:21.130000'
g117
tp151
a(S'2015-05-26 11:01:21.132000'
S'data saved as csv to c:\\Charlie\\charlie\\data\\csv\\4395_scap.csv'
tp152
a(S'2015-05-26 11:01:28.307000'
g115
tp153
a(S'2015-05-26 11:01:28.318000'
g117
tp154
a(S'2015-05-26 11:01:28.322000'
S'data saved as csv to c:\\Charlie\\charlie\\data\\csv\\4395_scap.csv'
tp155
a(S'2015-05-26 11:01:35.809000'
g115
tp156
a(S'2015-05-26 11:01:35.820000'
g117
tp157
a(S'2015-05-26 11:01:35.824000'
S'data saved as csv to c:\\Charlie\\charlie\\data\\csv\\4395_scap.csv'
tp158
a(S'2015-05-26 11:01:43.451000'
g115
tp159
a(S'2015-05-26 11:01:43.462000'
g117
tp160
a(S'2015-05-26 11:01:43.466000'
S'data saved as csv to c:\\Charlie\\charlie\\data\\csv\\4395_scap.csv'
tp161
a(S'2015-05-26 11:01:50.972000'
g115
tp162
a(S'2015-05-26 11:01:50.980000'
g117
tp163
a(S'2015-05-26 11:01:50.983000'
S'data saved as csv to c:\\Charlie\\charlie\\data\\csv\\4395_scap.csv'
tp164
a(S'2015-05-26 11:01:57.958000'
g115
tp165
a(S'2015-05-26 11:01:57.969000'
g117
tp166
a(S'2015-05-26 11:01:57.971000'
S'data saved as csv to c:\\Charlie\\charlie\\data\\csv\\4395_scap.csv'
tp167
a(S'2015-05-26 11:02:05.076000'
g115
tp168
a(S'2015-05-26 11:02:05.087000'
g117
tp169
a(S'2015-05-26 11:02:05.091000'
S'data saved as csv to c:\\Charlie\\charlie\\data\\csv\\4395_scap.csv'
tp170
a(S'2015-05-26 11:02:12.187000'
g115
tp171
a(S'2015-05-26 11:02:12.198000'
g117
tp172
a(S'2015-05-26 11:02:12.202000'
S'data saved as csv to c:\\Charlie\\charlie\\data\\csv\\4395_scap.csv'
tp173
a(S'2015-05-26 11:02:19.140000'
g115
tp174
a(S'2015-05-26 11:02:19.151000'
g117
tp175
a(S'2015-05-26 11:02:19.155000'
S'data saved as csv to c:\\Charlie\\charlie\\data\\csv\\4395_scap.csv'
tp176
a(S'2015-05-26 11:02:26.132000'
g115
tp177
a(S'2015-05-26 11:02:26.143000'
g117
tp178
a(S'2015-05-26 11:02:26.147000'
S'data saved as csv to c:\\Charlie\\charlie\\data\\csv\\4395_scap.csv'
tp179
a(S'2015-05-26 11:02:34.963000'
g115
tp180
a(S'2015-05-26 11:02:34.975000'
g117
tp181
a(S'2015-05-26 11:02:34.979000'
S'data saved as csv to c:\\Charlie\\charlie\\data\\csv\\4395_scap.csv'
tp182
a(S'2015-05-26 11:02:43.026000'
g115
tp183
a(S'2015-05-26 11:02:43.036000'
g117
tp184
a(S'2015-05-26 11:02:43.041000'
S'data saved as csv to c:\\Charlie\\charlie\\data\\csv\\4395_scap.csv'
tp185
a(S'2015-05-26 11:02:50.577000'
g115
tp186
a(S'2015-05-26 11:02:50.587000'
g117
tp187
a(S'2015-05-26 11:02:50.589000'
S'data saved as csv to c:\\Charlie\\charlie\\data\\csv\\4395_scap.csv'
tp188
a(S'2015-05-26 11:02:58.835000'
g115
tp189
a(S'2015-05-26 11:02:58.845000'
g117
tp190
a(S'2015-05-26 11:02:58.849000'
S'data saved as csv to c:\\Charlie\\charlie\\data\\csv\\4395_scap.csv'
tp191
a(S'2015-05-26 11:03:06.706000'
g115
tp192
a(S'2015-05-26 11:03:06.717000'
g117
tp193
a(S'2015-05-26 11:03:06.721000'
S'data saved as csv to c:\\Charlie\\charlie\\data\\csv\\4395_scap.csv'
tp194
a(S'2015-05-26 11:03:14.088000'
g115
tp195
a(S'2015-05-26 11:03:14.099000'
g117
tp196
a(S'2015-05-26 11:03:14.103000'
S'data saved as csv to c:\\Charlie\\charlie\\data\\csv\\4395_scap.csv'
tp197
a(S'2015-05-26 11:03:23.071000'
g115
tp198
a(S'2015-05-26 11:03:23.082000'
g117
tp199
a(S'2015-05-26 11:03:23.086000'
S'data saved as csv to c:\\Charlie\\charlie\\data\\csv\\4395_scap.csv'
tp200
a(S'2015-05-26 11:03:30.263000'
g115
tp201
a(S'2015-05-26 11:03:30.273000'
g117
tp202
a(S'2015-05-26 11:03:30.276000'
S'data saved as csv to c:\\Charlie\\charlie\\data\\csv\\4395_scap.csv'
tp203
a(S'2015-05-26 11:03:37.352000'
g115
tp204
a(S'2015-05-26 11:03:37.363000'
g117
tp205
a(S'2015-05-26 11:03:37.367000'
S'data saved as csv to c:\\Charlie\\charlie\\data\\csv\\4395_scap.csv'
tp206
a(S'2015-05-26 11:03:44.504000'
g115
tp207
a(S'2015-05-26 11:03:44.515000'
g117
tp208
a(S'2015-05-26 11:03:44.519000'
S'data saved as csv to c:\\Charlie\\charlie\\data\\csv\\4395_scap.csv'
tp209
a(S'2015-05-26 11:03:51.465000'
g115
tp210
a(S'2015-05-26 11:03:51.476000'
g117
tp211
a(S'2015-05-26 11:03:51.481000'
S'data saved as csv to c:\\Charlie\\charlie\\data\\csv\\4395_scap.csv'
tp212
a(S'2015-05-26 11:03:58.525000'
g115
tp213
a(S'2015-05-26 11:03:58.534000'
g117
tp214
a(S'2015-05-26 11:03:58.536000'
S'data saved as csv to c:\\Charlie\\charlie\\data\\csv\\4395_scap.csv'
tp215
a(S'2015-05-26 11:04:06.861000'
g115
tp216
a(S'2015-05-26 11:04:06.871000'
g117
tp217
a(S'2015-05-26 11:04:06.874000'
S'data saved as csv to c:\\Charlie\\charlie\\data\\csv\\4395_scap.csv'
tp218
a(S'2015-05-26 11:04:14.359000'
g115
tp219
a(S'2015-05-26 11:04:14.366000'
g117
tp220
a(S'2015-05-26 11:04:14.368000'
S'data saved as csv to c:\\Charlie\\charlie\\data\\csv\\4395_scap.csv'
tp221
a(S'2015-05-26 11:04:21.874000'
g115
tp222
a(S'2015-05-26 11:04:21.885000'
g117
tp223
a(S'2015-05-26 11:04:21.889000'
S'data saved as csv to c:\\Charlie\\charlie\\data\\csv\\4395_scap.csv'
tp224
a(S'2015-05-26 11:04:29.206000'
g115
tp225
a(S'2015-05-26 11:04:29.217000'
g117
tp226
a(S'2015-05-26 11:04:29.220000'
S'data saved as csv to c:\\Charlie\\charlie\\data\\csv\\4395_scap.csv'
tp227
a(S'2015-05-26 11:04:37.395000'
g115
tp228
a(S'2015-05-26 11:04:37.406000'
g117
tp229
a(S'2015-05-26 11:04:37.409000'
S'data saved as csv to c:\\Charlie\\charlie\\data\\csv\\4395_scap.csv'
tp230
a(S'2015-05-26 11:04:46.115000'
g115
tp231
a(S'2015-05-26 11:04:46.126000'
g117
tp232
a(S'2015-05-26 11:04:46.130000'
S'data saved as csv to c:\\Charlie\\charlie\\data\\csv\\4395_scap.csv'
tp233
a(S'2015-05-26 11:04:53.657000'
g115
tp234
a(S'2015-05-26 11:04:53.668000'
g117
tp235
a(S'2015-05-26 11:04:53.670000'
S'data saved as csv to c:\\Charlie\\charlie\\data\\csv\\4395_scap.csv'
tp236
a(S'2015-05-26 11:05:01.356000'
g115
tp237
a(S'2015-05-26 11:05:01.367000'
g117
tp238
a(S'2015-05-26 11:05:01.371000'
S'data saved as csv to c:\\Charlie\\charlie\\data\\csv\\4395_scap.csv'
tp239
a(S'2015-05-26 11:05:08.879000'
g115
tp240
a(S'2015-05-26 11:05:08.890000'
g117
tp241
a(S'2015-05-26 11:05:08.894000'
S'data saved as csv to c:\\Charlie\\charlie\\data\\csv\\4395_scap.csv'
tp242
a(S'2015-05-26 11:05:16.633000'
g115
tp243
a(S'2015-05-26 11:05:16.644000'
g117
tp244
a(S'2015-05-26 11:05:16.647000'
S'data saved as csv to c:\\Charlie\\charlie\\data\\csv\\4395_scap.csv'
tp245
a(S'2015-05-26 11:05:23.802000'
g115
tp246
a(S'2015-05-26 11:05:23.813000'
g117
tp247
a(S'2015-05-26 11:05:23.818000'
S'data saved as csv to c:\\Charlie\\charlie\\data\\csv\\4395_scap.csv'
tp248
a(S'2015-05-26 11:05:30.815000'
g115
tp249
a(S'2015-05-26 11:05:30.826000'
g117
tp250
a(S'2015-05-26 11:05:30.831000'
S'data saved as csv to c:\\Charlie\\charlie\\data\\csv\\4395_scap.csv'
tp251
asb.