(icharlie.tools.data
Data
p1
(dp2
S'lang'
p3
S'EN'
p4
sS'control'
p5
(lp6
sS'last_updated'
p7
cdatetime
datetime
p8
(S'\x07\xdf\x05\x1a\x0b\t\x17\r\xaf\xe8'
tRp9
sS'last_opened'
p10
g8
(S'\x07\xdf\x05\x1a\x0b\x05\x1f\x04\xe2\x00'
tRp11
sS'proj_id'
p12
S'connectivity'
p13
sS'date_done'
p14
NsS'test_done'
p15
I01
sS'data'
p16
(lp17
(S'4395'
p18
S'ctrails'
p19
S'number'
p20
S'practice'
p21
I0
I1
S'Correct'
p22
I1510
I8968
tp23
a(g18
g19
g20
g21
I1
I2
g22
I1191
I8968
tp24
a(g18
g19
g20
g21
I2
I3
g22
I1120
I8968
tp25
a(g18
g19
g20
g21
I3
I4
g22
I840
I8968
tp26
a(g18
g19
g20
g21
I4
I5
g22
I930
I8968
tp27
a(g18
g19
g20
g21
I5
I6
g22
I1340
I8968
tp28
a(g18
g19
g20
g21
I6
I7
g22
I870
I8968
tp29
a(g18
g19
g20
g21
I7
I8
g22
I960
I8968
tp30
a(g18
g19
g20
S'test'
p31
I0
I1
g22
I2011
I29432
tp32
a(g18
g19
g20
g31
I1
I2
g22
I1270
I29432
tp33
a(g18
g19
g20
g31
I2
I3
g22
I1230
I29432
tp34
a(g18
g19
g20
g31
I3
I4
g22
I1040
I29432
tp35
a(g18
g19
g20
g31
I4
I5
g22
I1980
I29432
tp36
a(g18
g19
g20
g31
I5
I6
g22
I1190
I29432
tp37
a(g18
g19
g20
g31
I6
I7
g22
I780
I29432
tp38
a(g18
g19
g20
g31
I7
I8
g22
I800
I29432
tp39
a(g18
g19
g20
g31
I8
I9
g22
I1060
I29432
tp40
a(g18
g19
g20
g31
I9
I10
g22
I810
I29432
tp41
a(g18
g19
g20
g31
I10
I11
g22
I900
I29432
tp42
a(g18
g19
g20
g31
I11
I12
g22
I870
I29432
tp43
a(g18
g19
g20
g31
I12
I13
g22
I1450
I29432
tp44
a(g18
g19
g20
g31
I13
I14
g22
I810
I29432
tp45
a(g18
g19
g20
g31
I14
I15
g22
I950
I29432
tp46
a(g18
g19
g20
g31
I15
I16
g22
I1050
I29432
tp47
a(g18
g19
g20
g31
I16
I17
g22
I790
I29432
tp48
a(g18
g19
g20
g31
I17
I18
g22
I1171
I29432
tp49
a(g18
g19
g20
g31
I18
I19
g22
I3610
I29432
tp50
a(g18
g19
g20
g31
I19
I20
g22
I800
I29432
tp51
a(g18
g19
g20
g31
I20
I21
g22
I890
I29432
tp52
a(g18
g19
g20
g31
I21
I22
g22
I1290
I29432
tp53
a(g18
g19
g20
g31
I22
I23
g22
I810
I29432
tp54
a(g18
g19
g20
g31
I23
I24
g22
I990
I29432
tp55
a(g18
g19
g20
g31
I24
I25
g22
I750
I29432
tp56
a(g18
g19
S'letter'
p57
g21
I0
S'a'
g22
I1610
I8096
tp58
a(g18
g19
g57
g21
I1
S'b'
g22
I860
I8096
tp59
a(g18
g19
g57
g21
I2
S'c'
g22
I900
I8096
tp60
a(g18
g19
g57
g21
I3
S'd'
g22
I900
I8096
tp61
a(g18
g19
g57
g21
I4
S'e'
g22
I800
I8096
tp62
a(g18
g19
g57
g21
I5
S'f'
g22
I870
I8096
tp63
a(g18
g19
g57
g21
I6
S'g'
g22
I1160
I8096
tp64
a(g18
g19
g57
g21
I7
S'h'
g22
I950
I8096
tp65
a(g18
g19
g57
g31
I0
S'a'
g22
I3341
I39976
tp66
a(g18
g19
g57
g31
I1
S'b'
g22
I890
I39976
tp67
a(g18
g19
g57
g31
I2
S'c'
g22
I2980
I39976
tp68
a(g18
g19
g57
g31
I3
S'd'
g22
I3750
I39976
tp69
a(g18
g19
g57
g31
I4
S'e'
g22
I800
I39976
tp70
a(g18
g19
g57
g31
I5
S'f'
g22
I730
I39976
tp71
a(g18
g19
g57
g31
I6
S'g'
g22
I970
I39976
tp72
a(g18
g19
g57
g31
I7
S'h'
g22
I1540
I39976
tp73
a(g18
g19
g57
g31
I8
S'i'
g22
I990
I39976
tp74
a(g18
g19
g57
g31
I9
S'j'
g22
I1140
I39976
tp75
a(g18
g19
g57
g31
I10
S'k'
g22
I1691
I39976
tp76
a(g18
g19
g57
g31
I11
S'l'
g22
I2300
I39976
tp77
a(g18
g19
g57
g31
I12
S'm'
g22
I1100
I39976
tp78
a(g18
g19
g57
g31
I13
S'n'
g22
I1610
I39976
tp79
a(g18
g19
g57
g31
I14
S'o'
g22
I900
I39976
tp80
a(g18
g19
g57
g31
I15
S'p'
g22
I2590
I39976
tp81
a(g18
g19
g57
g31
I16
S'q'
g22
I740
I39976
tp82
a(g18
g19
g57
g31
I17
S'r'
g22
I840
I39976
tp83
a(g18
g19
g57
g31
I18
S's'
g22
I830
I39976
tp84
a(g18
g19
g57
g31
I19
S't'
g22
I700
I39976
tp85
a(g18
g19
g57
g31
I20
S'u'
g22
I750
I39976
tp86
a(g18
g19
g57
g31
I21
S'v'
g22
I850
I39976
tp87
a(g18
g19
g57
g31
I22
S'w'
g22
I4581
I39976
tp88
a(g18
g19
g57
g31
I23
S'x'
g22
I2140
I39976
tp89
a(g18
g19
g57
g31
I24
S'y'
g22
I1100
I39976
tp90
a(g18
g19
S'number-letter'
p91
g21
I0
I1
g22
I2630
I11693
tp92
a(g18
g19
g91
g21
I1
S'a'
g22
I1310
I11693
tp93
a(g18
g19
g91
g21
I2
I2
g22
I1390
I11693
tp94
a(g18
g19
g91
g21
I3
S'b'
g22
I1420
I11693
tp95
a(g18
g19
g91
g21
I4
I3
g22
I1350
I11693
tp96
a(g18
g19
g91
g21
I5
S'c'
g22
I1130
I11693
tp97
a(g18
g19
g91
g21
I6
I4
g22
I1350
I11693
tp98
a(g18
g19
g91
g21
I7
S'd'
g22
I1070
I11693
tp99
a(g18
g19
g91
g31
I0
S'a'
S'Incorrect'
p100
I5280
I64725
tp101
a(g18
g19
g91
g31
I1
I1
g22
I1980
I64725
tp102
a(g18
g19
g91
g31
I2
S'a'
g22
I1870
I64725
tp103
a(g18
g19
g91
g31
I3
I2
g22
I1850
I64725
tp104
a(g18
g19
g91
g31
I4
S'b'
g22
I1931
I64725
tp105
a(g18
g19
g91
g31
I5
I3
g22
I1220
I64725
tp106
a(g18
g19
g91
g31
I6
S'c'
g22
I1500
I64725
tp107
a(g18
g19
g91
g31
I7
I4
g22
I1570
I64725
tp108
a(g18
g19
g91
g31
I8
S'd'
g22
I3610
I64725
tp109
a(g18
g19
g91
g31
I9
I5
g22
I2400
I64725
tp110
a(g18
g19
g91
g31
I10
S'e'
g22
I940
I64725
tp111
a(g18
g19
g91
g31
I11
I6
g22
I2990
I64725
tp112
a(g18
g19
g91
g31
I12
S'f'
g22
I1570
I64725
tp113
a(g18
g19
g91
g31
I13
I7
g22
I3351
I64725
tp114
a(g18
g19
g91
g31
I14
S'g'
g22
I2280
I64725
tp115
a(g18
g19
g91
g31
I15
I8
g22
I1830
I64725
tp116
a(g18
g19
g91
g31
I16
S'h'
g22
I1000
I64725
tp117
a(g18
g19
g91
g31
I17
I9
g22
I2160
I64725
tp118
a(g18
g19
g91
g31
I18
S'i'
g22
I1870
I64725
tp119
a(g18
g19
g91
g31
I19
I10
g22
I4220
I64725
tp120
a(g18
g19
g91
g31
I20
S'j'
g22
I1691
I64725
tp121
a(g18
g19
g91
g31
I21
I11
g22
I2720
I64725
tp122
a(g18
g19
g91
g31
I22
S'k'
g22
I6080
I64725
tp123
a(g18
g19
g91
g31
I23
I12
g22
I2060
I64725
tp124
a(g18
g19
g91
g31
I24
S'l'
g22
I4640
I64725
tp125
a(g18
g19
g91
g31
I25
I13
g22
I1991
I64725
tp126
asS'output_format'
p127
(lp128
(S'proband_id'
p129
c__builtin__
str
p130
tp131
a(S'test_name'
p132
g130
tp133
a(S'phase'
p134
g130
tp135
a(S'trial_type'
p136
g130
tp137
a(S'n'
c__builtin__
int
p138
tp139
a(S'rsp'
p140
g130
tp141
a(S'corr'
p142
g130
tp143
a(S'rt'
p144
g138
tp145
a(S'total_time'
p146
g138
tp147
asg129
g18
sS'filename'
p148
S'4395_ctrails.data'
p149
sS'initialised'
p150
g8
(S'\x07\xdf\x05\x1a\x0b\x05\x1f\x04\xe2\x00'
tRp151
sS'last_udated'
p152
g8
(S'\x07\xdf\x05\x1a\x0b\x05\x1f\x04\xe2\x00'
tRp153
sg132
S'ctrails'
p154
sS'directory'
p155
S'c:\\Charlie\\charlie\\data\\raw'
p156
sS'user_id'
p157
S'sbuccheri'
p158
sS'test_started'
p159
I01
sS'abs_filename'
p160
S'c:\\Charlie\\charlie\\data\\raw\\4395_ctrails.data'
p161
sS'date_started'
p162
g8
(S'\x07\xdf\x05\x1a\x0b\x05;\x08\xcd\xe8'
tRp163
sS'log'
p164
(lp165
(S'2015-05-26 11:05:31.320000'
S'instance created'
p166
tp167
a(S'2015-05-26 11:05:59.603000'
S'instance updated'
p168
tp169
a(S'2015-05-26 11:05:59.612000'
S'pandas DataFrame of data created'
p170
tp171
a(S'2015-05-26 11:05:59.622000'
S'data saved as csv to c:\\Charlie\\charlie\\data\\csv\\4395_ctrails.csv'
tp172
a(S'2015-05-26 11:06:38.269000'
g168
tp173
a(S'2015-05-26 11:06:38.279000'
g170
tp174
a(S'2015-05-26 11:06:38.283000'
S'data saved as csv to c:\\Charlie\\charlie\\data\\csv\\4395_ctrails.csv'
tp175
a(S'2015-05-26 11:06:54.369000'
g168
tp176
a(S'2015-05-26 11:06:54.379000'
g170
tp177
a(S'2015-05-26 11:06:54.382000'
S'data saved as csv to c:\\Charlie\\charlie\\data\\csv\\4395_ctrails.csv'
tp178
a(S'2015-05-26 11:07:42.668000'
g168
tp179
a(S'2015-05-26 11:07:42.678000'
g170
tp180
a(S'2015-05-26 11:07:42.680000'
S'data saved as csv to c:\\Charlie\\charlie\\data\\csv\\4395_ctrails.csv'
tp181
a(S'2015-05-26 11:08:09.684000'
g168
tp182
a(S'2015-05-26 11:08:09.694000'
g170
tp183
a(S'2015-05-26 11:08:09.699000'
S'data saved as csv to c:\\Charlie\\charlie\\data\\csv\\4395_ctrails.csv'
tp184
a(S'2015-05-26 11:09:23.885000'
g168
tp185
a(S'2015-05-26 11:09:23.894000'
g170
tp186
a(S'2015-05-26 11:09:23.897000'
S'data saved as csv to c:\\Charlie\\charlie\\data\\csv\\4395_ctrails.csv'
tp187
asb.