(icharlie.tools.data
Data
p1
(dp2
S'lang'
p3
S'EN'
p4
sS'control'
p5
(lp6
sS'last_updated'
p7
cdatetime
datetime
p8
(S'\x07\xdf\x06\x03\x0f#\x0f\x08)\xd8'
tRp9
sS'last_opened'
p10
g8
(S'\x07\xdf\x06\x03\x0f &\x05Kx'
tRp11
sS'proj_id'
p12
S'connectivity'
p13
sS'date_done'
p14
NsS'test_done'
p15
I01
sS'data'
p16
(lp17
(S'4397'
p18
S'stroop'
p19
S'practice'
p20
I0
S'n/a'
p21
S'c:\\Charlie\\charlie\\stimuli\\visual\\stroop\\prac_1.png'
S'Right'
p22
g22
I1650
tp23
a(g18
g19
g20
I1
g21
S'c:\\Charlie\\charlie\\stimuli\\visual\\stroop\\prac_2.png'
S'Left'
p24
g24
I950
tp25
a(g18
g19
g20
I2
g21
S'c:\\Charlie\\charlie\\stimuli\\visual\\stroop\\prac_3.png'
g22
g22
I760
tp26
a(g18
g19
g20
I3
g21
S'c:\\Charlie\\charlie\\stimuli\\visual\\stroop\\prac_4.png'
g22
g22
I690
tp27
a(g18
g19
S'test'
p28
I0
S'Incongruent'
p29
S'c:\\Charlie\\charlie\\stimuli\\visual\\stroop\\6-Incongruent.png'
g24
g24
I550
tp30
a(g18
g19
g28
I1
S'Congruent'
p31
S'c:\\Charlie\\charlie\\stimuli\\visual\\stroop\\30-Congruent.png'
g24
g24
I690
tp32
a(g18
g19
g28
I2
g31
S'c:\\Charlie\\charlie\\stimuli\\visual\\stroop\\3-Congruent.png'
g22
g22
I690
tp33
a(g18
g19
g28
I3
g29
S'c:\\Charlie\\charlie\\stimuli\\visual\\stroop\\23-Incongruent.png'
g24
g24
I750
tp34
a(g18
g19
g28
I4
g31
S'c:\\Charlie\\charlie\\stimuli\\visual\\stroop\\39-Congruent.png'
g24
g24
I720
tp35
a(g18
g19
g28
I5
g31
S'c:\\Charlie\\charlie\\stimuli\\visual\\stroop\\45-Congruent.png'
g24
g24
I770
tp36
a(g18
g19
g28
I6
g29
S'c:\\Charlie\\charlie\\stimuli\\visual\\stroop\\31-Incongruent.png'
g22
g24
I1070
tp37
a(g18
g19
g28
I7
g29
S'c:\\Charlie\\charlie\\stimuli\\visual\\stroop\\28-Incongruent.png'
g24
g24
I750
tp38
a(g18
g19
g28
I8
g31
S'c:\\Charlie\\charlie\\stimuli\\visual\\stroop\\31-Congruent.png'
g24
g24
I780
tp39
a(g18
g19
g28
I9
g31
S'c:\\Charlie\\charlie\\stimuli\\visual\\stroop\\10-Congruent.png'
g22
g22
I660
tp40
a(g18
g19
g28
I10
g29
S'c:\\Charlie\\charlie\\stimuli\\visual\\stroop\\10-Incongruent.png'
g24
g24
I740
tp41
a(g18
g19
g28
I11
g29
S'c:\\Charlie\\charlie\\stimuli\\visual\\stroop\\24-Incongruent.png'
g24
g24
I820
tp42
a(g18
g19
g28
I12
g31
S'c:\\Charlie\\charlie\\stimuli\\visual\\stroop\\34-Congruent.png'
g24
g24
I690
tp43
a(g18
g19
g28
I13
g31
S'c:\\Charlie\\charlie\\stimuli\\visual\\stroop\\38-Congruent.png'
g24
g24
I690
tp44
a(g18
g19
g28
I14
g31
S'c:\\Charlie\\charlie\\stimuli\\visual\\stroop\\42-Congruent.png'
g24
g24
I721
tp45
a(g18
g19
g28
I15
g31
S'c:\\Charlie\\charlie\\stimuli\\visual\\stroop\\17-Congruent.png'
g22
g22
I690
tp46
a(g18
g19
g28
I16
g29
S'c:\\Charlie\\charlie\\stimuli\\visual\\stroop\\42-Incongruent.png'
g22
g22
I790
tp47
a(g18
g19
g28
I17
g29
S'c:\\Charlie\\charlie\\stimuli\\visual\\stroop\\36-Incongruent.png'
g22
g22
I830
tp48
a(g18
g19
g28
I18
g29
S'c:\\Charlie\\charlie\\stimuli\\visual\\stroop\\43-Incongruent.png'
g22
g22
I1280
tp49
a(g18
g19
g28
I19
g31
S'c:\\Charlie\\charlie\\stimuli\\visual\\stroop\\49-Congruent.png'
g24
g24
I870
tp50
a(g18
g19
g28
I20
g31
S'c:\\Charlie\\charlie\\stimuli\\visual\\stroop\\43-Congruent.png'
g24
g24
I1340
tp51
a(g18
g19
g28
I21
g29
S'c:\\Charlie\\charlie\\stimuli\\visual\\stroop\\15-Incongruent.png'
g24
g24
I980
tp52
a(g18
g19
g28
I22
g29
S'c:\\Charlie\\charlie\\stimuli\\visual\\stroop\\35-Incongruent.png'
g22
g22
I1030
tp53
a(g18
g19
g28
I23
g29
S'c:\\Charlie\\charlie\\stimuli\\visual\\stroop\\44-Incongruent.png'
g22
g22
I850
tp54
a(g18
g19
g28
I24
g29
S'c:\\Charlie\\charlie\\stimuli\\visual\\stroop\\47-Incongruent.png'
g22
g22
I800
tp55
a(g18
g19
g28
I25
g29
S'c:\\Charlie\\charlie\\stimuli\\visual\\stroop\\40-Incongruent.png'
g22
g22
I800
tp56
a(g18
g19
g28
I26
g29
S'c:\\Charlie\\charlie\\stimuli\\visual\\stroop\\25-Incongruent.png'
g24
g24
I760
tp57
a(g18
g19
g28
I27
g29
S'c:\\Charlie\\charlie\\stimuli\\visual\\stroop\\27-Incongruent.png'
g24
g24
I710
tp58
a(g18
g19
g28
I28
g29
S'c:\\Charlie\\charlie\\stimuli\\visual\\stroop\\56-Incongruent.png'
g22
g22
I780
tp59
a(g18
g19
g28
I29
g31
S'c:\\Charlie\\charlie\\stimuli\\visual\\stroop\\2-Congruent.png'
g22
g22
I760
tp60
a(g18
g19
g28
I30
g29
S'c:\\Charlie\\charlie\\stimuli\\visual\\stroop\\17-Incongruent.png'
g24
g24
I700
tp61
a(g18
g19
g28
I31
g31
S'c:\\Charlie\\charlie\\stimuli\\visual\\stroop\\12-Congruent.png'
g22
g22
I1081
tp62
a(g18
g19
g28
I32
g29
S'c:\\Charlie\\charlie\\stimuli\\visual\\stroop\\12-Incongruent.png'
g24
g24
I850
tp63
a(g18
g19
g28
I33
g29
S'c:\\Charlie\\charlie\\stimuli\\visual\\stroop\\26-Incongruent.png'
g24
g24
I790
tp64
a(g18
g19
g28
I34
g31
S'c:\\Charlie\\charlie\\stimuli\\visual\\stroop\\19-Congruent.png'
g22
g22
I680
tp65
a(g18
g19
g28
I35
g31
S'c:\\Charlie\\charlie\\stimuli\\visual\\stroop\\23-Congruent.png'
g22
g22
I1200
tp66
a(g18
g19
g28
I36
g31
S'c:\\Charlie\\charlie\\stimuli\\visual\\stroop\\35-Congruent.png'
g24
g24
I980
tp67
a(g18
g19
g28
I37
g31
S'c:\\Charlie\\charlie\\stimuli\\visual\\stroop\\46-Congruent.png'
g24
g24
I730
tp68
a(g18
g19
g28
I38
g29
S'c:\\Charlie\\charlie\\stimuli\\visual\\stroop\\8-Incongruent.png'
g24
g24
I850
tp69
a(g18
g19
g28
I39
g31
S'c:\\Charlie\\charlie\\stimuli\\visual\\stroop\\29-Congruent.png'
g24
g24
I780
tp70
a(g18
g19
g28
I40
g31
S'c:\\Charlie\\charlie\\stimuli\\visual\\stroop\\14-Congruent.png'
g22
g22
I780
tp71
a(g18
g19
g28
I41
g31
S'c:\\Charlie\\charlie\\stimuli\\visual\\stroop\\33-Congruent.png'
g24
g24
I730
tp72
a(g18
g19
g28
I42
g29
S'c:\\Charlie\\charlie\\stimuli\\visual\\stroop\\13-Incongruent.png'
g24
g24
I800
tp73
a(g18
g19
g28
I43
g29
S'c:\\Charlie\\charlie\\stimuli\\visual\\stroop\\55-Incongruent.png'
g22
g22
I1480
tp74
a(g18
g19
g28
I44
g31
S'c:\\Charlie\\charlie\\stimuli\\visual\\stroop\\54-Congruent.png'
g24
g24
I740
tp75
a(g18
g19
g28
I45
g31
S'c:\\Charlie\\charlie\\stimuli\\visual\\stroop\\8-Congruent.png'
g22
g22
I850
tp76
a(g18
g19
g28
I46
g31
S'c:\\Charlie\\charlie\\stimuli\\visual\\stroop\\13-Congruent.png'
g22
g22
I840
tp77
a(g18
g19
g28
I47
g31
S'c:\\Charlie\\charlie\\stimuli\\visual\\stroop\\40-Congruent.png'
g24
g24
I1090
tp78
a(g18
g19
g28
I48
g29
S'c:\\Charlie\\charlie\\stimuli\\visual\\stroop\\9-Incongruent.png'
g24
g24
I921
tp79
a(g18
g19
g28
I49
g31
S'c:\\Charlie\\charlie\\stimuli\\visual\\stroop\\50-Congruent.png'
g24
g24
I880
tp80
a(g18
g19
g28
I50
g31
S'c:\\Charlie\\charlie\\stimuli\\visual\\stroop\\5-Congruent.png'
g22
g22
I1510
tp81
a(g18
g19
g28
I51
g29
S'c:\\Charlie\\charlie\\stimuli\\visual\\stroop\\5-Incongruent.png'
g24
g24
I830
tp82
a(g18
g19
g28
I52
g29
S'c:\\Charlie\\charlie\\stimuli\\visual\\stroop\\53-Incongruent.png'
g22
g22
I1160
tp83
a(g18
g19
g28
I53
g29
S'c:\\Charlie\\charlie\\stimuli\\visual\\stroop\\1-Incongruent.png'
g24
g24
I690
tp84
a(g18
g19
g28
I54
g31
S'c:\\Charlie\\charlie\\stimuli\\visual\\stroop\\28-Congruent.png'
g22
g22
I1210
tp85
a(g18
g19
g28
I55
g29
S'c:\\Charlie\\charlie\\stimuli\\visual\\stroop\\34-Incongruent.png'
g22
g22
I850
tp86
a(g18
g19
g28
I56
g29
S'c:\\Charlie\\charlie\\stimuli\\visual\\stroop\\20-Incongruent.png'
g24
g24
I810
tp87
a(g18
g19
g28
I57
g29
S'c:\\Charlie\\charlie\\stimuli\\visual\\stroop\\38-Incongruent.png'
g22
g22
I880
tp88
a(g18
g19
g28
I58
g29
S'c:\\Charlie\\charlie\\stimuli\\visual\\stroop\\32-Incongruent.png'
g22
g22
I780
tp89
a(g18
g19
g28
I59
g31
S'c:\\Charlie\\charlie\\stimuli\\visual\\stroop\\9-Congruent.png'
g22
g22
I770
tp90
a(g18
g19
g28
I60
g31
S'c:\\Charlie\\charlie\\stimuli\\visual\\stroop\\55-Congruent.png'
g24
g24
I1610
tp91
a(g18
g19
g28
I61
g29
S'c:\\Charlie\\charlie\\stimuli\\visual\\stroop\\33-Incongruent.png'
g22
g22
I1150
tp92
a(g18
g19
g28
I62
g29
S'c:\\Charlie\\charlie\\stimuli\\visual\\stroop\\49-Incongruent.png'
g22
g22
I1100
tp93
a(g18
g19
g28
I63
g31
S'c:\\Charlie\\charlie\\stimuli\\visual\\stroop\\4-Congruent.png'
g22
g22
I951
tp94
a(g18
g19
g28
I64
g31
S'c:\\Charlie\\charlie\\stimuli\\visual\\stroop\\6-Congruent.png'
g22
g22
I700
tp95
a(g18
g19
g28
I65
g31
S'c:\\Charlie\\charlie\\stimuli\\visual\\stroop\\48-Congruent.png'
g24
g24
I670
tp96
a(g18
g19
g28
I66
g31
S'c:\\Charlie\\charlie\\stimuli\\visual\\stroop\\52-Congruent.png'
g24
g24
I850
tp97
a(g18
g19
g28
I67
g31
S'c:\\Charlie\\charlie\\stimuli\\visual\\stroop\\51-Congruent.png'
g24
g24
I770
tp98
a(g18
g19
g28
I68
g31
S'c:\\Charlie\\charlie\\stimuli\\visual\\stroop\\16-Congruent.png'
g22
g22
I810
tp99
a(g18
g19
g28
I69
g31
S'c:\\Charlie\\charlie\\stimuli\\visual\\stroop\\24-Congruent.png'
g22
g22
I700
tp100
a(g18
g19
g28
I70
g29
S'c:\\Charlie\\charlie\\stimuli\\visual\\stroop\\41-Incongruent.png'
g22
g22
I740
tp101
a(g18
g19
g28
I71
g29
S'c:\\Charlie\\charlie\\stimuli\\visual\\stroop\\48-Incongruent.png'
g22
g22
I810
tp102
a(g18
g19
g28
I72
g29
S'c:\\Charlie\\charlie\\stimuli\\visual\\stroop\\4-Incongruent.png'
g24
g24
I700
tp103
a(g18
g19
g28
I73
g29
S'c:\\Charlie\\charlie\\stimuli\\visual\\stroop\\54-Incongruent.png'
g22
g24
I740
tp104
a(g18
g19
g28
I74
g29
S'c:\\Charlie\\charlie\\stimuli\\visual\\stroop\\39-Incongruent.png'
g22
g22
I650
tp105
a(g18
g19
g28
I75
g31
S'c:\\Charlie\\charlie\\stimuli\\visual\\stroop\\56-Congruent.png'
g24
g24
I700
tp106
a(g18
g19
g28
I76
g29
S'c:\\Charlie\\charlie\\stimuli\\visual\\stroop\\46-Incongruent.png'
g22
g22
I720
tp107
a(g18
g19
g28
I77
g31
S'c:\\Charlie\\charlie\\stimuli\\visual\\stroop\\22-Congruent.png'
g22
g22
I1000
tp108
a(g18
g19
g28
I78
g29
S'c:\\Charlie\\charlie\\stimuli\\visual\\stroop\\21-Incongruent.png'
g24
g24
I1270
tp109
a(g18
g19
g28
I79
g29
S'c:\\Charlie\\charlie\\stimuli\\visual\\stroop\\37-Incongruent.png'
g22
g22
I750
tp110
a(g18
g19
g28
I80
g29
S'c:\\Charlie\\charlie\\stimuli\\visual\\stroop\\2-Incongruent.png'
g24
g24
I730
tp111
a(g18
g19
g28
I81
g31
S'c:\\Charlie\\charlie\\stimuli\\visual\\stroop\\21-Congruent.png'
g22
g22
I860
tp112
a(g18
g19
g28
I82
g29
S'c:\\Charlie\\charlie\\stimuli\\visual\\stroop\\7-Incongruent.png'
g24
g24
I801
tp113
a(g18
g19
g28
I83
g31
S'c:\\Charlie\\charlie\\stimuli\\visual\\stroop\\20-Congruent.png'
g22
g22
I790
tp114
a(g18
g19
g28
I84
g31
S'c:\\Charlie\\charlie\\stimuli\\visual\\stroop\\15-Congruent.png'
g22
g22
I750
tp115
a(g18
g19
g28
I85
g31
S'c:\\Charlie\\charlie\\stimuli\\visual\\stroop\\26-Congruent.png'
g22
g22
I730
tp116
a(g18
g19
g28
I86
g29
S'c:\\Charlie\\charlie\\stimuli\\visual\\stroop\\16-Incongruent.png'
g24
g24
I790
tp117
a(g18
g19
g28
I87
g29
S'c:\\Charlie\\charlie\\stimuli\\visual\\stroop\\50-Incongruent.png'
g22
g22
I790
tp118
a(g18
g19
g28
I88
g31
S'c:\\Charlie\\charlie\\stimuli\\visual\\stroop\\41-Congruent.png'
g24
g24
I850
tp119
a(g18
g19
g28
I89
g31
S'c:\\Charlie\\charlie\\stimuli\\visual\\stroop\\25-Congruent.png'
g22
g22
I930
tp120
a(g18
g19
g28
I90
g31
S'c:\\Charlie\\charlie\\stimuli\\visual\\stroop\\27-Congruent.png'
g22
g22
I750
tp121
a(g18
g19
g28
I91
g29
S'c:\\Charlie\\charlie\\stimuli\\visual\\stroop\\18-Incongruent.png'
g24
g24
I680
tp122
a(g18
g19
g28
I92
g29
S'c:\\Charlie\\charlie\\stimuli\\visual\\stroop\\30-Incongruent.png'
g22
g22
I770
tp123
a(g18
g19
g28
I93
g31
S'c:\\Charlie\\charlie\\stimuli\\visual\\stroop\\44-Congruent.png'
g24
g24
I780
tp124
a(g18
g19
g28
I94
g31
S'c:\\Charlie\\charlie\\stimuli\\visual\\stroop\\37-Congruent.png'
g24
g24
I890
tp125
a(g18
g19
g28
I95
g29
S'c:\\Charlie\\charlie\\stimuli\\visual\\stroop\\11-Incongruent.png'
g24
g24
I790
tp126
a(g18
g19
g28
I96
g29
S'c:\\Charlie\\charlie\\stimuli\\visual\\stroop\\29-Incongruent.png'
g22
g24
I780
tp127
a(g18
g19
g28
I97
g29
S'c:\\Charlie\\charlie\\stimuli\\visual\\stroop\\3-Incongruent.png'
g24
g24
I700
tp128
a(g18
g19
g28
I98
g31
S'c:\\Charlie\\charlie\\stimuli\\visual\\stroop\\1-Congruent.png'
g22
g22
I610
tp129
a(g18
g19
g28
I99
g29
S'c:\\Charlie\\charlie\\stimuli\\visual\\stroop\\52-Incongruent.png'
g22
g22
I640
tp130
a(g18
g19
g28
I100
g29
S'c:\\Charlie\\charlie\\stimuli\\visual\\stroop\\14-Incongruent.png'
g24
g24
I540
tp131
a(g18
g19
g28
I101
g31
S'c:\\Charlie\\charlie\\stimuli\\visual\\stroop\\47-Congruent.png'
g24
g24
I771
tp132
a(g18
g19
g28
I102
g29
S'c:\\Charlie\\charlie\\stimuli\\visual\\stroop\\19-Incongruent.png'
g24
g24
I840
tp133
a(g18
g19
g28
I103
g31
S'c:\\Charlie\\charlie\\stimuli\\visual\\stroop\\11-Congruent.png'
g22
g22
I570
tp134
a(g18
g19
g28
I104
g29
S'c:\\Charlie\\charlie\\stimuli\\visual\\stroop\\22-Incongruent.png'
g24
g22
I830
tp135
a(g18
g19
g28
I105
g31
S'c:\\Charlie\\charlie\\stimuli\\visual\\stroop\\7-Congruent.png'
g22
g22
I780
tp136
a(g18
g19
g28
I106
g31
S'c:\\Charlie\\charlie\\stimuli\\visual\\stroop\\53-Congruent.png'
g24
g24
I720
tp137
a(g18
g19
g28
I107
g31
S'c:\\Charlie\\charlie\\stimuli\\visual\\stroop\\32-Congruent.png'
g24
g24
I681
tp138
a(g18
g19
g28
I108
g29
S'c:\\Charlie\\charlie\\stimuli\\visual\\stroop\\45-Incongruent.png'
g22
g24
I1030
tp139
a(g18
g19
g28
I109
g31
S'c:\\Charlie\\charlie\\stimuli\\visual\\stroop\\36-Congruent.png'
g24
g24
I870
tp140
a(g18
g19
g28
I110
g29
S'c:\\Charlie\\charlie\\stimuli\\visual\\stroop\\51-Incongruent.png'
g22
g22
I850
tp141
a(g18
g19
g28
I111
g31
S'c:\\Charlie\\charlie\\stimuli\\visual\\stroop\\18-Congruent.png'
p142
g22
g22
I960
tp143
asS'output_format'
p144
(lp145
(S'proband_id'
p146
c__builtin__
str
p147
tp148
a(S'test_name'
p149
g147
tp150
a(S'phase'
p151
g147
tp152
a(S'trialn'
p153
c__builtin__
int
p154
tp155
a(S'cong'
p156
g147
tp157
a(S'f'
g147
tp158
a(S'ans'
p159
g147
tp160
a(S'rsp'
p161
g147
tp162
a(S'rt'
p163
g154
tp164
asg146
g18
sS'filename'
p165
S'4397_stroop.data'
p166
sS'initialised'
p167
g8
(S'\x07\xdf\x06\x03\x0f &\x05Kx'
tRp168
sS'last_udated'
p169
g8
(S'\x07\xdf\x06\x03\x0f &\x05Kx'
tRp170
sg149
S'stroop'
p171
sS'directory'
p172
S'c:\\Charlie\\charlie\\data\\raw'
p173
sS'user_id'
p174
S'oleach'
p175
sS'test_started'
p176
I01
sS'abs_filename'
p177
S'c:\\Charlie\\charlie\\data\\raw\\4397_stroop.data'
p178
sS'date_started'
p179
g8
(S'\x07\xdf\x06\x03\x0f!\x00\x06\xce0'
tRp180
sS'log'
p181
(lp182
(S'2015-06-03 15:32:38.347000'
S'instance created'
p183
tp184
a(S'2015-06-03 15:33:00.463000'
S'instance updated'
p185
tp186
a(S'2015-06-03 15:33:00.472000'
S'pandas DataFrame of data created'
p187
tp188
a(S'2015-06-03 15:33:00.482000'
S'data saved as csv to c:\\Charlie\\charlie\\data\\csv\\4397_stroop.csv'
tp189
a(S'2015-06-03 15:33:02.462000'
g185
tp190
a(S'2015-06-03 15:33:02.472000'
g187
tp191
a(S'2015-06-03 15:33:02.475000'
S'data saved as csv to c:\\Charlie\\charlie\\data\\csv\\4397_stroop.csv'
tp192
a(S'2015-06-03 15:33:04.261000'
g185
tp193
a(S'2015-06-03 15:33:04.270000'
g187
tp194
a(S'2015-06-03 15:33:04.274000'
S'data saved as csv to c:\\Charlie\\charlie\\data\\csv\\4397_stroop.csv'
tp195
a(S'2015-06-03 15:33:05.992000'
g185
tp196
a(S'2015-06-03 15:33:06.001000'
g187
tp197
a(S'2015-06-03 15:33:06.005000'
S'data saved as csv to c:\\Charlie\\charlie\\data\\csv\\4397_stroop.csv'
tp198
a(S'2015-06-03 15:33:25.933000'
g185
tp199
a(S'2015-06-03 15:33:25.943000'
g187
tp200
a(S'2015-06-03 15:33:25.946000'
S'data saved as csv to c:\\Charlie\\charlie\\data\\csv\\4397_stroop.csv'
tp201
a(S'2015-06-03 15:33:26.768000'
g185
tp202
a(S'2015-06-03 15:33:26.777000'
g187
tp203
a(S'2015-06-03 15:33:26.781000'
S'data saved as csv to c:\\Charlie\\charlie\\data\\csv\\4397_stroop.csv'
tp204
a(S'2015-06-03 15:33:27.603000'
g185
tp205
a(S'2015-06-03 15:33:27.612000'
g187
tp206
a(S'2015-06-03 15:33:27.616000'
S'data saved as csv to c:\\Charlie\\charlie\\data\\csv\\4397_stroop.csv'
tp207
a(S'2015-06-03 15:33:28.498000'
g185
tp208
a(S'2015-06-03 15:33:28.507000'
g187
tp209
a(S'2015-06-03 15:33:28.511000'
S'data saved as csv to c:\\Charlie\\charlie\\data\\csv\\4397_stroop.csv'
tp210
a(S'2015-06-03 15:33:29.362000'
g185
tp211
a(S'2015-06-03 15:33:29.372000'
g187
tp212
a(S'2015-06-03 15:33:29.376000'
S'data saved as csv to c:\\Charlie\\charlie\\data\\csv\\4397_stroop.csv'
tp213
a(S'2015-06-03 15:33:30.277000'
g185
tp214
a(S'2015-06-03 15:33:30.286000'
g187
tp215
a(S'2015-06-03 15:33:30.290000'
S'data saved as csv to c:\\Charlie\\charlie\\data\\csv\\4397_stroop.csv'
tp216
a(S'2015-06-03 15:33:31.492000'
g185
tp217
a(S'2015-06-03 15:33:31.502000'
g187
tp218
a(S'2015-06-03 15:33:31.506000'
S'data saved as csv to c:\\Charlie\\charlie\\data\\csv\\4397_stroop.csv'
tp219
a(S'2015-06-03 15:33:32.387000'
g185
tp220
a(S'2015-06-03 15:33:32.396000'
g187
tp221
a(S'2015-06-03 15:33:32.400000'
S'data saved as csv to c:\\Charlie\\charlie\\data\\csv\\4397_stroop.csv'
tp222
a(S'2015-06-03 15:33:33.311000'
g185
tp223
a(S'2015-06-03 15:33:33.320000'
g187
tp224
a(S'2015-06-03 15:33:33.324000'
S'data saved as csv to c:\\Charlie\\charlie\\data\\csv\\4397_stroop.csv'
tp225
a(S'2015-06-03 15:33:34.115000'
g185
tp226
a(S'2015-06-03 15:33:34.124000'
g187
tp227
a(S'2015-06-03 15:33:34.128000'
S'data saved as csv to c:\\Charlie\\charlie\\data\\csv\\4397_stroop.csv'
tp228
a(S'2015-06-03 15:33:34.999000'
g185
tp229
a(S'2015-06-03 15:33:35.009000'
g187
tp230
a(S'2015-06-03 15:33:35.012000'
S'data saved as csv to c:\\Charlie\\charlie\\data\\csv\\4397_stroop.csv'
tp231
a(S'2015-06-03 15:33:35.964000'
g185
tp232
a(S'2015-06-03 15:33:35.974000'
g187
tp233
a(S'2015-06-03 15:33:35.978000'
S'data saved as csv to c:\\Charlie\\charlie\\data\\csv\\4397_stroop.csv'
tp234
a(S'2015-06-03 15:33:36.799000'
g185
tp235
a(S'2015-06-03 15:33:36.808000'
g187
tp236
a(S'2015-06-03 15:33:36.812000'
S'data saved as csv to c:\\Charlie\\charlie\\data\\csv\\4397_stroop.csv'
tp237
a(S'2015-06-03 15:33:37.634000'
g185
tp238
a(S'2015-06-03 15:33:37.643000'
g187
tp239
a(S'2015-06-03 15:33:37.647000'
S'data saved as csv to c:\\Charlie\\charlie\\data\\csv\\4397_stroop.csv'
tp240
a(S'2015-06-03 15:33:38.498000'
g185
tp241
a(S'2015-06-03 15:33:38.508000'
g187
tp242
a(S'2015-06-03 15:33:38.512000'
S'data saved as csv to c:\\Charlie\\charlie\\data\\csv\\4397_stroop.csv'
tp243
a(S'2015-06-03 15:33:39.333000'
g185
tp244
a(S'2015-06-03 15:33:39.343000'
g187
tp245
a(S'2015-06-03 15:33:39.347000'
S'data saved as csv to c:\\Charlie\\charlie\\data\\csv\\4397_stroop.csv'
tp246
a(S'2015-06-03 15:33:40.268000'
g185
tp247
a(S'2015-06-03 15:33:40.278000'
g187
tp248
a(S'2015-06-03 15:33:40.282000'
S'data saved as csv to c:\\Charlie\\charlie\\data\\csv\\4397_stroop.csv'
tp249
a(S'2015-06-03 15:33:41.244000'
g185
tp250
a(S'2015-06-03 15:33:41.254000'
g187
tp251
a(S'2015-06-03 15:33:41.258000'
S'data saved as csv to c:\\Charlie\\charlie\\data\\csv\\4397_stroop.csv'
tp252
a(S'2015-06-03 15:33:42.670000'
g185
tp253
a(S'2015-06-03 15:33:42.680000'
g187
tp254
a(S'2015-06-03 15:33:42.684000'
S'data saved as csv to c:\\Charlie\\charlie\\data\\csv\\4397_stroop.csv'
tp255
a(S'2015-06-03 15:33:43.686000'
g185
tp256
a(S'2015-06-03 15:33:43.696000'
g187
tp257
a(S'2015-06-03 15:33:43.700000'
S'data saved as csv to c:\\Charlie\\charlie\\data\\csv\\4397_stroop.csv'
tp258
a(S'2015-06-03 15:33:45.172000'
g185
tp259
a(S'2015-06-03 15:33:45.182000'
g187
tp260
a(S'2015-06-03 15:33:45.186000'
S'data saved as csv to c:\\Charlie\\charlie\\data\\csv\\4397_stroop.csv'
tp261
a(S'2015-06-03 15:33:46.298000'
g185
tp262
a(S'2015-06-03 15:33:46.308000'
g187
tp263
a(S'2015-06-03 15:33:46.312000'
S'data saved as csv to c:\\Charlie\\charlie\\data\\csv\\4397_stroop.csv'
tp264
a(S'2015-06-03 15:33:47.474000'
g185
tp265
a(S'2015-06-03 15:33:47.484000'
g187
tp266
a(S'2015-06-03 15:33:47.488000'
S'data saved as csv to c:\\Charlie\\charlie\\data\\csv\\4397_stroop.csv'
tp267
a(S'2015-06-03 15:33:48.471000'
g185
tp268
a(S'2015-06-03 15:33:48.480000'
g187
tp269
a(S'2015-06-03 15:33:48.484000'
S'data saved as csv to c:\\Charlie\\charlie\\data\\csv\\4397_stroop.csv'
tp270
a(S'2015-06-03 15:33:49.416000'
g185
tp271
a(S'2015-06-03 15:33:49.427000'
g187
tp272
a(S'2015-06-03 15:33:49.431000'
S'data saved as csv to c:\\Charlie\\charlie\\data\\csv\\4397_stroop.csv'
tp273
a(S'2015-06-03 15:33:50.362000'
g185
tp274
a(S'2015-06-03 15:33:50.372000'
g187
tp275
a(S'2015-06-03 15:33:50.377000'
S'data saved as csv to c:\\Charlie\\charlie\\data\\csv\\4397_stroop.csv'
tp276
a(S'2015-06-03 15:33:51.268000'
g185
tp277
a(S'2015-06-03 15:33:51.278000'
g187
tp278
a(S'2015-06-03 15:33:51.282000'
S'data saved as csv to c:\\Charlie\\charlie\\data\\csv\\4397_stroop.csv'
tp279
a(S'2015-06-03 15:33:52.122000'
g185
tp280
a(S'2015-06-03 15:33:52.132000'
g187
tp281
a(S'2015-06-03 15:33:52.136000'
S'data saved as csv to c:\\Charlie\\charlie\\data\\csv\\4397_stroop.csv'
tp282
a(S'2015-06-03 15:33:53.048000'
g185
tp283
a(S'2015-06-03 15:33:53.058000'
g187
tp284
a(S'2015-06-03 15:33:53.062000'
S'data saved as csv to c:\\Charlie\\charlie\\data\\csv\\4397_stroop.csv'
tp285
a(S'2015-06-03 15:33:53.954000'
g185
tp286
a(S'2015-06-03 15:33:53.964000'
g187
tp287
a(S'2015-06-03 15:33:53.968000'
S'data saved as csv to c:\\Charlie\\charlie\\data\\csv\\4397_stroop.csv'
tp288
a(S'2015-06-03 15:33:54.801000'
g185
tp289
a(S'2015-06-03 15:33:54.811000'
g187
tp290
a(S'2015-06-03 15:33:54.815000'
S'data saved as csv to c:\\Charlie\\charlie\\data\\csv\\4397_stroop.csv'
tp291
a(S'2015-06-03 15:33:56.026000'
g185
tp292
a(S'2015-06-03 15:33:56.036000'
g187
tp293
a(S'2015-06-03 15:33:56.041000'
S'data saved as csv to c:\\Charlie\\charlie\\data\\csv\\4397_stroop.csv'
tp294
a(S'2015-06-03 15:33:57.023000'
g185
tp295
a(S'2015-06-03 15:33:57.033000'
g187
tp296
a(S'2015-06-03 15:33:57.037000'
S'data saved as csv to c:\\Charlie\\charlie\\data\\csv\\4397_stroop.csv'
tp297
a(S'2015-06-03 15:33:57.959000'
g185
tp298
a(S'2015-06-03 15:33:57.969000'
g187
tp299
a(S'2015-06-03 15:33:57.973000'
S'data saved as csv to c:\\Charlie\\charlie\\data\\csv\\4397_stroop.csv'
tp300
a(S'2015-06-03 15:33:58.782000'
g185
tp301
a(S'2015-06-03 15:33:58.793000'
g187
tp302
a(S'2015-06-03 15:33:58.797000'
S'data saved as csv to c:\\Charlie\\charlie\\data\\csv\\4397_stroop.csv'
tp303
a(S'2015-06-03 15:34:00.128000'
g185
tp304
a(S'2015-06-03 15:34:00.139000'
g187
tp305
a(S'2015-06-03 15:34:00.143000'
S'data saved as csv to c:\\Charlie\\charlie\\data\\csv\\4397_stroop.csv'
tp306
a(S'2015-06-03 15:34:01.254000'
g185
tp307
a(S'2015-06-03 15:34:01.265000'
g187
tp308
a(S'2015-06-03 15:34:01.269000'
S'data saved as csv to c:\\Charlie\\charlie\\data\\csv\\4397_stroop.csv'
tp309
a(S'2015-06-03 15:34:02.129000'
g185
tp310
a(S'2015-06-03 15:34:02.140000'
g187
tp311
a(S'2015-06-03 15:34:02.143000'
S'data saved as csv to c:\\Charlie\\charlie\\data\\csv\\4397_stroop.csv'
tp312
a(S'2015-06-03 15:34:03.122000'
g185
tp313
a(S'2015-06-03 15:34:03.132000'
g187
tp314
a(S'2015-06-03 15:34:03.135000'
S'data saved as csv to c:\\Charlie\\charlie\\data\\csv\\4397_stroop.csv'
tp315
a(S'2015-06-03 15:34:04.044000'
g185
tp316
a(S'2015-06-03 15:34:04.055000'
g187
tp317
a(S'2015-06-03 15:34:04.059000'
S'data saved as csv to c:\\Charlie\\charlie\\data\\csv\\4397_stroop.csv'
tp318
a(S'2015-06-03 15:34:04.970000'
g185
tp319
a(S'2015-06-03 15:34:04.980000'
g187
tp320
a(S'2015-06-03 15:34:04.984000'
S'data saved as csv to c:\\Charlie\\charlie\\data\\csv\\4397_stroop.csv'
tp321
a(S'2015-06-03 15:34:05.847000'
g185
tp322
a(S'2015-06-03 15:34:05.857000'
g187
tp323
a(S'2015-06-03 15:34:05.861000'
S'data saved as csv to c:\\Charlie\\charlie\\data\\csv\\4397_stroop.csv'
tp324
a(S'2015-06-03 15:34:06.791000'
g185
tp325
a(S'2015-06-03 15:34:06.801000'
g187
tp326
a(S'2015-06-03 15:34:06.805000'
S'data saved as csv to c:\\Charlie\\charlie\\data\\csv\\4397_stroop.csv'
tp327
a(S'2015-06-03 15:34:08.418000'
g185
tp328
a(S'2015-06-03 15:34:08.428000'
g187
tp329
a(S'2015-06-03 15:34:08.432000'
S'data saved as csv to c:\\Charlie\\charlie\\data\\csv\\4397_stroop.csv'
tp330
a(S'2015-06-03 15:34:09.304000'
g185
tp331
a(S'2015-06-03 15:34:09.315000'
g187
tp332
a(S'2015-06-03 15:34:09.319000'
S'data saved as csv to c:\\Charlie\\charlie\\data\\csv\\4397_stroop.csv'
tp333
a(S'2015-06-03 15:34:10.302000'
g185
tp334
a(S'2015-06-03 15:34:10.312000'
g187
tp335
a(S'2015-06-03 15:34:10.316000'
S'data saved as csv to c:\\Charlie\\charlie\\data\\csv\\4397_stroop.csv'
tp336
a(S'2015-06-03 15:34:11.289000'
g185
tp337
a(S'2015-06-03 15:34:11.299000'
g187
tp338
a(S'2015-06-03 15:34:11.304000'
S'data saved as csv to c:\\Charlie\\charlie\\data\\csv\\4397_stroop.csv'
tp339
a(S'2015-06-03 15:34:12.526000'
g185
tp340
a(S'2015-06-03 15:34:12.537000'
g187
tp341
a(S'2015-06-03 15:34:12.541000'
S'data saved as csv to c:\\Charlie\\charlie\\data\\csv\\4397_stroop.csv'
tp342
a(S'2015-06-03 15:34:13.594000'
g185
tp343
a(S'2015-06-03 15:34:13.605000'
g187
tp344
a(S'2015-06-03 15:34:13.609000'
S'data saved as csv to c:\\Charlie\\charlie\\data\\csv\\4397_stroop.csv'
tp345
a(S'2015-06-03 15:34:14.622000'
g185
tp346
a(S'2015-06-03 15:34:14.632000'
g187
tp347
a(S'2015-06-03 15:34:14.637000'
S'data saved as csv to c:\\Charlie\\charlie\\data\\csv\\4397_stroop.csv'
tp348
a(S'2015-06-03 15:34:16.279000'
g185
tp349
a(S'2015-06-03 15:34:16.290000'
g187
tp350
a(S'2015-06-03 15:34:16.294000'
S'data saved as csv to c:\\Charlie\\charlie\\data\\csv\\4397_stroop.csv'
tp351
a(S'2015-06-03 15:34:17.257000'
g185
tp352
a(S'2015-06-03 15:34:17.267000'
g187
tp353
a(S'2015-06-03 15:34:17.272000'
S'data saved as csv to c:\\Charlie\\charlie\\data\\csv\\4397_stroop.csv'
tp354
a(S'2015-06-03 15:34:18.565000'
g185
tp355
a(S'2015-06-03 15:34:18.575000'
g187
tp356
a(S'2015-06-03 15:34:18.579000'
S'data saved as csv to c:\\Charlie\\charlie\\data\\csv\\4397_stroop.csv'
tp357
a(S'2015-06-03 15:34:19.401000'
g185
tp358
a(S'2015-06-03 15:34:19.412000'
g187
tp359
a(S'2015-06-03 15:34:19.416000'
S'data saved as csv to c:\\Charlie\\charlie\\data\\csv\\4397_stroop.csv'
tp360
a(S'2015-06-03 15:34:20.759000'
g185
tp361
a(S'2015-06-03 15:34:20.769000'
g187
tp362
a(S'2015-06-03 15:34:20.773000'
S'data saved as csv to c:\\Charlie\\charlie\\data\\csv\\4397_stroop.csv'
tp363
a(S'2015-06-03 15:34:21.753000'
g185
tp364
a(S'2015-06-03 15:34:21.762000'
g187
tp365
a(S'2015-06-03 15:34:21.765000'
S'data saved as csv to c:\\Charlie\\charlie\\data\\csv\\4397_stroop.csv'
tp366
a(S'2015-06-03 15:34:22.706000'
g185
tp367
a(S'2015-06-03 15:34:22.717000'
g187
tp368
a(S'2015-06-03 15:34:22.721000'
S'data saved as csv to c:\\Charlie\\charlie\\data\\csv\\4397_stroop.csv'
tp369
a(S'2015-06-03 15:34:23.733000'
g185
tp370
a(S'2015-06-03 15:34:23.743000'
g187
tp371
a(S'2015-06-03 15:34:23.746000'
S'data saved as csv to c:\\Charlie\\charlie\\data\\csv\\4397_stroop.csv'
tp372
a(S'2015-06-03 15:34:24.656000'
g185
tp373
a(S'2015-06-03 15:34:24.667000'
g187
tp374
a(S'2015-06-03 15:34:24.671000'
S'data saved as csv to c:\\Charlie\\charlie\\data\\csv\\4397_stroop.csv'
tp375
a(S'2015-06-03 15:34:25.573000'
g185
tp376
a(S'2015-06-03 15:34:25.584000'
g187
tp377
a(S'2015-06-03 15:34:25.588000'
S'data saved as csv to c:\\Charlie\\charlie\\data\\csv\\4397_stroop.csv'
tp378
a(S'2015-06-03 15:34:27.331000'
g185
tp379
a(S'2015-06-03 15:34:27.342000'
g187
tp380
a(S'2015-06-03 15:34:27.345000'
S'data saved as csv to c:\\Charlie\\charlie\\data\\csv\\4397_stroop.csv'
tp381
a(S'2015-06-03 15:34:28.627000'
g185
tp382
a(S'2015-06-03 15:34:28.637000'
g187
tp383
a(S'2015-06-03 15:34:28.642000'
S'data saved as csv to c:\\Charlie\\charlie\\data\\csv\\4397_stroop.csv'
tp384
a(S'2015-06-03 15:34:29.876000'
g185
tp385
a(S'2015-06-03 15:34:29.887000'
g187
tp386
a(S'2015-06-03 15:34:29.891000'
S'data saved as csv to c:\\Charlie\\charlie\\data\\csv\\4397_stroop.csv'
tp387
a(S'2015-06-03 15:34:30.972000'
g185
tp388
a(S'2015-06-03 15:34:30.983000'
g187
tp389
a(S'2015-06-03 15:34:30.987000'
S'data saved as csv to c:\\Charlie\\charlie\\data\\csv\\4397_stroop.csv'
tp390
a(S'2015-06-03 15:34:31.820000'
g185
tp391
a(S'2015-06-03 15:34:31.830000'
g187
tp392
a(S'2015-06-03 15:34:31.835000'
S'data saved as csv to c:\\Charlie\\charlie\\data\\csv\\4397_stroop.csv'
tp393
a(S'2015-06-03 15:34:32.639000'
g185
tp394
a(S'2015-06-03 15:34:32.650000'
g187
tp395
a(S'2015-06-03 15:34:32.654000'
S'data saved as csv to c:\\Charlie\\charlie\\data\\csv\\4397_stroop.csv'
tp396
a(S'2015-06-03 15:34:33.635000'
g185
tp397
a(S'2015-06-03 15:34:33.645000'
g187
tp398
a(S'2015-06-03 15:34:33.648000'
S'data saved as csv to c:\\Charlie\\charlie\\data\\csv\\4397_stroop.csv'
tp399
a(S'2015-06-03 15:34:34.548000'
g185
tp400
a(S'2015-06-03 15:34:34.559000'
g187
tp401
a(S'2015-06-03 15:34:34.564000'
S'data saved as csv to c:\\Charlie\\charlie\\data\\csv\\4397_stroop.csv'
tp402
a(S'2015-06-03 15:34:35.507000'
g185
tp403
a(S'2015-06-03 15:34:35.518000'
g187
tp404
a(S'2015-06-03 15:34:35.523000'
S'data saved as csv to c:\\Charlie\\charlie\\data\\csv\\4397_stroop.csv'
tp405
a(S'2015-06-03 15:34:36.357000'
g185
tp406
a(S'2015-06-03 15:34:36.368000'
g187
tp407
a(S'2015-06-03 15:34:36.372000'
S'data saved as csv to c:\\Charlie\\charlie\\data\\csv\\4397_stroop.csv'
tp408
a(S'2015-06-03 15:34:37.245000'
g185
tp409
a(S'2015-06-03 15:34:37.256000'
g187
tp410
a(S'2015-06-03 15:34:37.260000'
S'data saved as csv to c:\\Charlie\\charlie\\data\\csv\\4397_stroop.csv'
tp411
a(S'2015-06-03 15:34:38.204000'
g185
tp412
a(S'2015-06-03 15:34:38.214000'
g187
tp413
a(S'2015-06-03 15:34:38.219000'
S'data saved as csv to c:\\Charlie\\charlie\\data\\csv\\4397_stroop.csv'
tp414
a(S'2015-06-03 15:34:39.053000'
g185
tp415
a(S'2015-06-03 15:34:39.064000'
g187
tp416
a(S'2015-06-03 15:34:39.069000'
S'data saved as csv to c:\\Charlie\\charlie\\data\\csv\\4397_stroop.csv'
tp417
a(S'2015-06-03 15:34:39.942000'
g185
tp418
a(S'2015-06-03 15:34:39.953000'
g187
tp419
a(S'2015-06-03 15:34:39.958000'
S'data saved as csv to c:\\Charlie\\charlie\\data\\csv\\4397_stroop.csv'
tp420
a(S'2015-06-03 15:34:40.741000'
g185
tp421
a(S'2015-06-03 15:34:40.751000'
g187
tp422
a(S'2015-06-03 15:34:40.756000'
S'data saved as csv to c:\\Charlie\\charlie\\data\\csv\\4397_stroop.csv'
tp423
a(S'2015-06-03 15:34:41.586000'
g185
tp424
a(S'2015-06-03 15:34:41.597000'
g187
tp425
a(S'2015-06-03 15:34:41.600000'
S'data saved as csv to c:\\Charlie\\charlie\\data\\csv\\4397_stroop.csv'
tp426
a(S'2015-06-03 15:34:42.452000'
g185
tp427
a(S'2015-06-03 15:34:42.463000'
g187
tp428
a(S'2015-06-03 15:34:42.468000'
S'data saved as csv to c:\\Charlie\\charlie\\data\\csv\\4397_stroop.csv'
tp429
a(S'2015-06-03 15:34:43.598000'
g185
tp430
a(S'2015-06-03 15:34:43.608000'
g187
tp431
a(S'2015-06-03 15:34:43.611000'
S'data saved as csv to c:\\Charlie\\charlie\\data\\csv\\4397_stroop.csv'
tp432
a(S'2015-06-03 15:34:45.012000'
g185
tp433
a(S'2015-06-03 15:34:45.022000'
g187
tp434
a(S'2015-06-03 15:34:45.027000'
S'data saved as csv to c:\\Charlie\\charlie\\data\\csv\\4397_stroop.csv'
tp435
a(S'2015-06-03 15:34:45.912000'
g185
tp436
a(S'2015-06-03 15:34:45.920000'
g187
tp437
a(S'2015-06-03 15:34:45.923000'
S'data saved as csv to c:\\Charlie\\charlie\\data\\csv\\4397_stroop.csv'
tp438
a(S'2015-06-03 15:34:46.784000'
g185
tp439
a(S'2015-06-03 15:34:46.794000'
g187
tp440
a(S'2015-06-03 15:34:46.799000'
S'data saved as csv to c:\\Charlie\\charlie\\data\\csv\\4397_stroop.csv'
tp441
a(S'2015-06-03 15:34:47.793000'
g185
tp442
a(S'2015-06-03 15:34:47.804000'
g187
tp443
a(S'2015-06-03 15:34:47.808000'
S'data saved as csv to c:\\Charlie\\charlie\\data\\csv\\4397_stroop.csv'
tp444
a(S'2015-06-03 15:34:48.739000'
g185
tp445
a(S'2015-06-03 15:34:48.750000'
g187
tp446
a(S'2015-06-03 15:34:48.754000'
S'data saved as csv to c:\\Charlie\\charlie\\data\\csv\\4397_stroop.csv'
tp447
a(S'2015-06-03 15:34:49.679000'
g185
tp448
a(S'2015-06-03 15:34:49.690000'
g187
tp449
a(S'2015-06-03 15:34:49.695000'
S'data saved as csv to c:\\Charlie\\charlie\\data\\csv\\4397_stroop.csv'
tp450
a(S'2015-06-03 15:34:50.577000'
g185
tp451
a(S'2015-06-03 15:34:50.587000'
g187
tp452
a(S'2015-06-03 15:34:50.592000'
S'data saved as csv to c:\\Charlie\\charlie\\data\\csv\\4397_stroop.csv'
tp453
a(S'2015-06-03 15:34:51.456000'
g185
tp454
a(S'2015-06-03 15:34:51.467000'
g187
tp455
a(S'2015-06-03 15:34:51.470000'
S'data saved as csv to c:\\Charlie\\charlie\\data\\csv\\4397_stroop.csv'
tp456
a(S'2015-06-03 15:34:52.392000'
g185
tp457
a(S'2015-06-03 15:34:52.403000'
g187
tp458
a(S'2015-06-03 15:34:52.407000'
S'data saved as csv to c:\\Charlie\\charlie\\data\\csv\\4397_stroop.csv'
tp459
a(S'2015-06-03 15:34:53.331000'
g185
tp460
a(S'2015-06-03 15:34:53.343000'
g187
tp461
a(S'2015-06-03 15:34:53.348000'
S'data saved as csv to c:\\Charlie\\charlie\\data\\csv\\4397_stroop.csv'
tp462
a(S'2015-06-03 15:34:54.331000'
g185
tp463
a(S'2015-06-03 15:34:54.342000'
g187
tp464
a(S'2015-06-03 15:34:54.347000'
S'data saved as csv to c:\\Charlie\\charlie\\data\\csv\\4397_stroop.csv'
tp465
a(S'2015-06-03 15:34:55.411000'
g185
tp466
a(S'2015-06-03 15:34:55.421000'
g187
tp467
a(S'2015-06-03 15:34:55.426000'
S'data saved as csv to c:\\Charlie\\charlie\\data\\csv\\4397_stroop.csv'
tp468
a(S'2015-06-03 15:34:56.310000'
g185
tp469
a(S'2015-06-03 15:34:56.321000'
g187
tp470
a(S'2015-06-03 15:34:56.326000'
S'data saved as csv to c:\\Charlie\\charlie\\data\\csv\\4397_stroop.csv'
tp471
a(S'2015-06-03 15:34:57.139000'
g185
tp472
a(S'2015-06-03 15:34:57.150000'
g187
tp473
a(S'2015-06-03 15:34:57.155000'
S'data saved as csv to c:\\Charlie\\charlie\\data\\csv\\4397_stroop.csv'
tp474
a(S'2015-06-03 15:34:58.059000'
g185
tp475
a(S'2015-06-03 15:34:58.070000'
g187
tp476
a(S'2015-06-03 15:34:58.073000'
S'data saved as csv to c:\\Charlie\\charlie\\data\\csv\\4397_stroop.csv'
tp477
a(S'2015-06-03 15:34:58.985000'
g185
tp478
a(S'2015-06-03 15:34:58.996000'
g187
tp479
a(S'2015-06-03 15:34:59.001000'
S'data saved as csv to c:\\Charlie\\charlie\\data\\csv\\4397_stroop.csv'
tp480
a(S'2015-06-03 15:35:00.022000'
g185
tp481
a(S'2015-06-03 15:35:00.033000'
g187
tp482
a(S'2015-06-03 15:35:00.038000'
S'data saved as csv to c:\\Charlie\\charlie\\data\\csv\\4397_stroop.csv'
tp483
a(S'2015-06-03 15:35:00.961000'
g185
tp484
a(S'2015-06-03 15:35:00.972000'
g187
tp485
a(S'2015-06-03 15:35:00.977000'
S'data saved as csv to c:\\Charlie\\charlie\\data\\csv\\4397_stroop.csv'
tp486
a(S'2015-06-03 15:35:01.891000'
g185
tp487
a(S'2015-06-03 15:35:01.901000'
g187
tp488
a(S'2015-06-03 15:35:01.906000'
S'data saved as csv to c:\\Charlie\\charlie\\data\\csv\\4397_stroop.csv'
tp489
a(S'2015-06-03 15:35:02.740000'
g185
tp490
a(S'2015-06-03 15:35:02.751000'
g187
tp491
a(S'2015-06-03 15:35:02.754000'
S'data saved as csv to c:\\Charlie\\charlie\\data\\csv\\4397_stroop.csv'
tp492
a(S'2015-06-03 15:35:03.495000'
g185
tp493
a(S'2015-06-03 15:35:03.506000'
g187
tp494
a(S'2015-06-03 15:35:03.511000'
S'data saved as csv to c:\\Charlie\\charlie\\data\\csv\\4397_stroop.csv'
tp495
a(S'2015-06-03 15:35:04.285000'
g185
tp496
a(S'2015-06-03 15:35:04.296000'
g187
tp497
a(S'2015-06-03 15:35:04.301000'
S'data saved as csv to c:\\Charlie\\charlie\\data\\csv\\4397_stroop.csv'
tp498
a(S'2015-06-03 15:35:04.975000'
g185
tp499
a(S'2015-06-03 15:35:04.987000'
g187
tp500
a(S'2015-06-03 15:35:04.992000'
S'data saved as csv to c:\\Charlie\\charlie\\data\\csv\\4397_stroop.csv'
tp501
a(S'2015-06-03 15:35:05.896000'
g185
tp502
a(S'2015-06-03 15:35:05.905000'
g187
tp503
a(S'2015-06-03 15:35:05.908000'
S'data saved as csv to c:\\Charlie\\charlie\\data\\csv\\4397_stroop.csv'
tp504
a(S'2015-06-03 15:35:06.879000'
g185
tp505
a(S'2015-06-03 15:35:06.890000'
g187
tp506
a(S'2015-06-03 15:35:06.894000'
S'data saved as csv to c:\\Charlie\\charlie\\data\\csv\\4397_stroop.csv'
tp507
a(S'2015-06-03 15:35:07.595000'
g185
tp508
a(S'2015-06-03 15:35:07.606000'
g187
tp509
a(S'2015-06-03 15:35:07.612000'
S'data saved as csv to c:\\Charlie\\charlie\\data\\csv\\4397_stroop.csv'
tp510
a(S'2015-06-03 15:35:08.574000'
g185
tp511
a(S'2015-06-03 15:35:08.585000'
g187
tp512
a(S'2015-06-03 15:35:08.590000'
S'data saved as csv to c:\\Charlie\\charlie\\data\\csv\\4397_stroop.csv'
tp513
a(S'2015-06-03 15:35:09.506000'
g185
tp514
a(S'2015-06-03 15:35:09.517000'
g187
tp515
a(S'2015-06-03 15:35:09.522000'
S'data saved as csv to c:\\Charlie\\charlie\\data\\csv\\4397_stroop.csv'
tp516
a(S'2015-06-03 15:35:10.375000'
g185
tp517
a(S'2015-06-03 15:35:10.386000'
g187
tp518
a(S'2015-06-03 15:35:10.391000'
S'data saved as csv to c:\\Charlie\\charlie\\data\\csv\\4397_stroop.csv'
tp519
a(S'2015-06-03 15:35:11.206000'
g185
tp520
a(S'2015-06-03 15:35:11.217000'
g187
tp521
a(S'2015-06-03 15:35:11.223000'
S'data saved as csv to c:\\Charlie\\charlie\\data\\csv\\4397_stroop.csv'
tp522
a(S'2015-06-03 15:35:12.387000'
g185
tp523
a(S'2015-06-03 15:35:12.398000'
g187
tp524
a(S'2015-06-03 15:35:12.403000'
S'data saved as csv to c:\\Charlie\\charlie\\data\\csv\\4397_stroop.csv'
tp525
a(S'2015-06-03 15:35:13.407000'
g185
tp526
a(S'2015-06-03 15:35:13.419000'
g187
tp527
a(S'2015-06-03 15:35:13.424000'
S'data saved as csv to c:\\Charlie\\charlie\\data\\csv\\4397_stroop.csv'
tp528
a(S'2015-06-03 15:35:14.409000'
g185
tp529
a(S'2015-06-03 15:35:14.420000'
g187
tp530
a(S'2015-06-03 15:35:14.425000'
S'data saved as csv to c:\\Charlie\\charlie\\data\\csv\\4397_stroop.csv'
tp531
a(S'2015-06-03 15:35:15.517000'
g185
tp532
a(S'2015-06-03 15:35:15.528000'
g187
tp533
a(S'2015-06-03 15:35:15.534000'
S'data saved as csv to c:\\Charlie\\charlie\\data\\csv\\4397_stroop.csv'
tp534
asb.