(icharlie.tools.data
Data
p1
(dp2
S'lang'
p3
S'EN'
p4
sS'control'
p5
(lp6
sS'last_updated'
p7
cdatetime
datetime
p8
(S'\x07\xdf\x06\n\x0b&%\x08E0'
tRp9
sS'last_opened'
p10
g8
(S'\x07\xdf\x06\n\x0b#\x14\x03$\xb0'
tRp11
sS'proj_id'
p12
S'connectivity'
p13
sS'date_done'
p14
NsS'test_done'
p15
I01
sS'data'
p16
(lp17
(S'4399'
p18
S'stroop'
p19
S'practice'
p20
I0
S'n/a'
p21
S'C:\\Users\\jbarrett\\Charlie-master\\charlie\\stimuli\\visual\\stroop\\prac_1.png'
S'Right'
p22
g22
I1500
tp23
a(g18
g19
g20
I1
g21
S'C:\\Users\\jbarrett\\Charlie-master\\charlie\\stimuli\\visual\\stroop\\prac_2.png'
S'Left'
p24
g24
I1900
tp25
a(g18
g19
g20
I2
g21
S'C:\\Users\\jbarrett\\Charlie-master\\charlie\\stimuli\\visual\\stroop\\prac_3.png'
g22
g22
I1340
tp26
a(g18
g19
g20
I3
g21
S'C:\\Users\\jbarrett\\Charlie-master\\charlie\\stimuli\\visual\\stroop\\prac_4.png'
g22
g22
I1110
tp27
a(g18
g19
S'test'
p28
I0
S'Incongruent'
p29
S'C:\\Users\\jbarrett\\Charlie-master\\charlie\\stimuli\\visual\\stroop\\6-Incongruent.png'
g24
g24
I1340
tp30
a(g18
g19
g28
I1
S'Congruent'
p31
S'C:\\Users\\jbarrett\\Charlie-master\\charlie\\stimuli\\visual\\stroop\\30-Congruent.png'
g24
g24
I930
tp32
a(g18
g19
g28
I2
g31
S'C:\\Users\\jbarrett\\Charlie-master\\charlie\\stimuli\\visual\\stroop\\3-Congruent.png'
g22
g22
I1600
tp33
a(g18
g19
g28
I3
g29
S'C:\\Users\\jbarrett\\Charlie-master\\charlie\\stimuli\\visual\\stroop\\23-Incongruent.png'
g24
g24
I1020
tp34
a(g18
g19
g28
I4
g31
S'C:\\Users\\jbarrett\\Charlie-master\\charlie\\stimuli\\visual\\stroop\\39-Congruent.png'
g24
g24
I1340
tp35
a(g18
g19
g28
I5
g31
S'C:\\Users\\jbarrett\\Charlie-master\\charlie\\stimuli\\visual\\stroop\\45-Congruent.png'
g24
g24
I1130
tp36
a(g18
g19
g28
I6
g29
S'C:\\Users\\jbarrett\\Charlie-master\\charlie\\stimuli\\visual\\stroop\\31-Incongruent.png'
g22
g22
I890
tp37
a(g18
g19
g28
I7
g29
S'C:\\Users\\jbarrett\\Charlie-master\\charlie\\stimuli\\visual\\stroop\\28-Incongruent.png'
g24
g24
I990
tp38
a(g18
g19
g28
I8
g31
S'C:\\Users\\jbarrett\\Charlie-master\\charlie\\stimuli\\visual\\stroop\\31-Congruent.png'
g24
g24
I901
tp39
a(g18
g19
g28
I9
g31
S'C:\\Users\\jbarrett\\Charlie-master\\charlie\\stimuli\\visual\\stroop\\10-Congruent.png'
g22
g22
I630
tp40
a(g18
g19
g28
I10
g29
S'C:\\Users\\jbarrett\\Charlie-master\\charlie\\stimuli\\visual\\stroop\\10-Incongruent.png'
g24
g24
I730
tp41
a(g18
g19
g28
I11
g29
S'C:\\Users\\jbarrett\\Charlie-master\\charlie\\stimuli\\visual\\stroop\\24-Incongruent.png'
g24
g24
I790
tp42
a(g18
g19
g28
I12
g31
S'C:\\Users\\jbarrett\\Charlie-master\\charlie\\stimuli\\visual\\stroop\\34-Congruent.png'
g24
g24
I810
tp43
a(g18
g19
g28
I13
g31
S'C:\\Users\\jbarrett\\Charlie-master\\charlie\\stimuli\\visual\\stroop\\38-Congruent.png'
g24
g24
I1020
tp44
a(g18
g19
g28
I14
g31
S'C:\\Users\\jbarrett\\Charlie-master\\charlie\\stimuli\\visual\\stroop\\42-Congruent.png'
g24
g24
I1550
tp45
a(g18
g19
g28
I15
g31
S'C:\\Users\\jbarrett\\Charlie-master\\charlie\\stimuli\\visual\\stroop\\17-Congruent.png'
g22
g22
I700
tp46
a(g18
g19
g28
I16
g29
S'C:\\Users\\jbarrett\\Charlie-master\\charlie\\stimuli\\visual\\stroop\\42-Incongruent.png'
g22
g22
I1010
tp47
a(g18
g19
g28
I17
g29
S'C:\\Users\\jbarrett\\Charlie-master\\charlie\\stimuli\\visual\\stroop\\36-Incongruent.png'
g22
g22
I1010
tp48
a(g18
g19
g28
I18
g29
S'C:\\Users\\jbarrett\\Charlie-master\\charlie\\stimuli\\visual\\stroop\\43-Incongruent.png'
g22
g22
I1040
tp49
a(g18
g19
g28
I19
g31
S'C:\\Users\\jbarrett\\Charlie-master\\charlie\\stimuli\\visual\\stroop\\49-Congruent.png'
g24
g24
I880
tp50
a(g18
g19
g28
I20
g31
S'C:\\Users\\jbarrett\\Charlie-master\\charlie\\stimuli\\visual\\stroop\\43-Congruent.png'
g24
g24
I770
tp51
a(g18
g19
g28
I21
g29
S'C:\\Users\\jbarrett\\Charlie-master\\charlie\\stimuli\\visual\\stroop\\15-Incongruent.png'
g24
g24
I720
tp52
a(g18
g19
g28
I22
g29
S'C:\\Users\\jbarrett\\Charlie-master\\charlie\\stimuli\\visual\\stroop\\35-Incongruent.png'
g22
g22
I640
tp53
a(g18
g19
g28
I23
g29
S'C:\\Users\\jbarrett\\Charlie-master\\charlie\\stimuli\\visual\\stroop\\44-Incongruent.png'
g22
g22
I1080
tp54
a(g18
g19
g28
I24
g29
S'C:\\Users\\jbarrett\\Charlie-master\\charlie\\stimuli\\visual\\stroop\\47-Incongruent.png'
g22
g22
I770
tp55
a(g18
g19
g28
I25
g29
S'C:\\Users\\jbarrett\\Charlie-master\\charlie\\stimuli\\visual\\stroop\\40-Incongruent.png'
g22
g22
I931
tp56
a(g18
g19
g28
I26
g29
S'C:\\Users\\jbarrett\\Charlie-master\\charlie\\stimuli\\visual\\stroop\\25-Incongruent.png'
g24
g24
I701
tp57
a(g18
g19
g28
I27
g29
S'C:\\Users\\jbarrett\\Charlie-master\\charlie\\stimuli\\visual\\stroop\\27-Incongruent.png'
g24
g24
I760
tp58
a(g18
g19
g28
I28
g29
S'C:\\Users\\jbarrett\\Charlie-master\\charlie\\stimuli\\visual\\stroop\\56-Incongruent.png'
g22
g22
I710
tp59
a(g18
g19
g28
I29
g31
S'C:\\Users\\jbarrett\\Charlie-master\\charlie\\stimuli\\visual\\stroop\\2-Congruent.png'
g22
g22
I700
tp60
a(g18
g19
g28
I30
g29
S'C:\\Users\\jbarrett\\Charlie-master\\charlie\\stimuli\\visual\\stroop\\17-Incongruent.png'
g24
g24
I610
tp61
a(g18
g19
g28
I31
g31
S'C:\\Users\\jbarrett\\Charlie-master\\charlie\\stimuli\\visual\\stroop\\12-Congruent.png'
g22
g22
I600
tp62
a(g18
g19
g28
I32
g29
S'C:\\Users\\jbarrett\\Charlie-master\\charlie\\stimuli\\visual\\stroop\\12-Incongruent.png'
g24
g24
I630
tp63
a(g18
g19
g28
I33
g29
S'C:\\Users\\jbarrett\\Charlie-master\\charlie\\stimuli\\visual\\stroop\\26-Incongruent.png'
g24
g24
I750
tp64
a(g18
g19
g28
I34
g31
S'C:\\Users\\jbarrett\\Charlie-master\\charlie\\stimuli\\visual\\stroop\\19-Congruent.png'
g22
g22
I580
tp65
a(g18
g19
g28
I35
g31
S'C:\\Users\\jbarrett\\Charlie-master\\charlie\\stimuli\\visual\\stroop\\23-Congruent.png'
g22
g22
I860
tp66
a(g18
g19
g28
I36
g31
S'C:\\Users\\jbarrett\\Charlie-master\\charlie\\stimuli\\visual\\stroop\\35-Congruent.png'
g24
g24
I680
tp67
a(g18
g19
g28
I37
g31
S'C:\\Users\\jbarrett\\Charlie-master\\charlie\\stimuli\\visual\\stroop\\46-Congruent.png'
g24
g24
I870
tp68
a(g18
g19
g28
I38
g29
S'C:\\Users\\jbarrett\\Charlie-master\\charlie\\stimuli\\visual\\stroop\\8-Incongruent.png'
g24
g24
I1270
tp69
a(g18
g19
g28
I39
g31
S'C:\\Users\\jbarrett\\Charlie-master\\charlie\\stimuli\\visual\\stroop\\29-Congruent.png'
g24
g24
I800
tp70
a(g18
g19
g28
I40
g31
S'C:\\Users\\jbarrett\\Charlie-master\\charlie\\stimuli\\visual\\stroop\\14-Congruent.png'
g22
g22
I570
tp71
a(g18
g19
g28
I41
g31
S'C:\\Users\\jbarrett\\Charlie-master\\charlie\\stimuli\\visual\\stroop\\33-Congruent.png'
g24
g24
I670
tp72
a(g18
g19
g28
I42
g29
S'C:\\Users\\jbarrett\\Charlie-master\\charlie\\stimuli\\visual\\stroop\\13-Incongruent.png'
g24
g24
I880
tp73
a(g18
g19
g28
I43
g29
S'C:\\Users\\jbarrett\\Charlie-master\\charlie\\stimuli\\visual\\stroop\\55-Incongruent.png'
g22
g22
I840
tp74
a(g18
g19
g28
I44
g31
S'C:\\Users\\jbarrett\\Charlie-master\\charlie\\stimuli\\visual\\stroop\\54-Congruent.png'
g24
g24
I701
tp75
a(g18
g19
g28
I45
g31
S'C:\\Users\\jbarrett\\Charlie-master\\charlie\\stimuli\\visual\\stroop\\8-Congruent.png'
g22
g22
I800
tp76
a(g18
g19
g28
I46
g31
S'C:\\Users\\jbarrett\\Charlie-master\\charlie\\stimuli\\visual\\stroop\\13-Congruent.png'
g22
g22
I860
tp77
a(g18
g19
g28
I47
g31
S'C:\\Users\\jbarrett\\Charlie-master\\charlie\\stimuli\\visual\\stroop\\40-Congruent.png'
g24
g24
I680
tp78
a(g18
g19
g28
I48
g29
S'C:\\Users\\jbarrett\\Charlie-master\\charlie\\stimuli\\visual\\stroop\\9-Incongruent.png'
g24
g24
I840
tp79
a(g18
g19
g28
I49
g31
S'C:\\Users\\jbarrett\\Charlie-master\\charlie\\stimuli\\visual\\stroop\\50-Congruent.png'
g24
g24
I800
tp80
a(g18
g19
g28
I50
g31
S'C:\\Users\\jbarrett\\Charlie-master\\charlie\\stimuli\\visual\\stroop\\5-Congruent.png'
g22
g22
I960
tp81
a(g18
g19
g28
I51
g29
S'C:\\Users\\jbarrett\\Charlie-master\\charlie\\stimuli\\visual\\stroop\\5-Incongruent.png'
g24
g24
I860
tp82
a(g18
g19
g28
I52
g29
S'C:\\Users\\jbarrett\\Charlie-master\\charlie\\stimuli\\visual\\stroop\\53-Incongruent.png'
g22
g22
I710
tp83
a(g18
g19
g28
I53
g29
S'C:\\Users\\jbarrett\\Charlie-master\\charlie\\stimuli\\visual\\stroop\\1-Incongruent.png'
g24
g24
I550
tp84
a(g18
g19
g28
I54
g31
S'C:\\Users\\jbarrett\\Charlie-master\\charlie\\stimuli\\visual\\stroop\\28-Congruent.png'
g22
g22
I600
tp85
a(g18
g19
g28
I55
g29
S'C:\\Users\\jbarrett\\Charlie-master\\charlie\\stimuli\\visual\\stroop\\34-Incongruent.png'
g22
g22
I940
tp86
a(g18
g19
g28
I56
g29
S'C:\\Users\\jbarrett\\Charlie-master\\charlie\\stimuli\\visual\\stroop\\20-Incongruent.png'
g24
g24
I740
tp87
a(g18
g19
g28
I57
g29
S'C:\\Users\\jbarrett\\Charlie-master\\charlie\\stimuli\\visual\\stroop\\38-Incongruent.png'
g22
g22
I820
tp88
a(g18
g19
g28
I58
g29
S'C:\\Users\\jbarrett\\Charlie-master\\charlie\\stimuli\\visual\\stroop\\32-Incongruent.png'
g22
g22
I860
tp89
a(g18
g19
g28
I59
g31
S'C:\\Users\\jbarrett\\Charlie-master\\charlie\\stimuli\\visual\\stroop\\9-Congruent.png'
g22
g22
I650
tp90
a(g18
g19
g28
I60
g31
S'C:\\Users\\jbarrett\\Charlie-master\\charlie\\stimuli\\visual\\stroop\\55-Congruent.png'
g24
g24
I950
tp91
a(g18
g19
g28
I61
g29
S'C:\\Users\\jbarrett\\Charlie-master\\charlie\\stimuli\\visual\\stroop\\33-Incongruent.png'
g22
g22
I750
tp92
a(g18
g19
g28
I62
g29
S'C:\\Users\\jbarrett\\Charlie-master\\charlie\\stimuli\\visual\\stroop\\49-Incongruent.png'
g22
g22
I790
tp93
a(g18
g19
g28
I63
g31
S'C:\\Users\\jbarrett\\Charlie-master\\charlie\\stimuli\\visual\\stroop\\4-Congruent.png'
g22
g22
I1111
tp94
a(g18
g19
g28
I64
g31
S'C:\\Users\\jbarrett\\Charlie-master\\charlie\\stimuli\\visual\\stroop\\6-Congruent.png'
g22
g22
I2440
tp95
a(g18
g19
g28
I65
g31
S'C:\\Users\\jbarrett\\Charlie-master\\charlie\\stimuli\\visual\\stroop\\48-Congruent.png'
g24
g24
I4090
tp96
a(g18
g19
g28
I66
g31
S'C:\\Users\\jbarrett\\Charlie-master\\charlie\\stimuli\\visual\\stroop\\52-Congruent.png'
g24
g24
I700
tp97
a(g18
g19
g28
I67
g31
S'C:\\Users\\jbarrett\\Charlie-master\\charlie\\stimuli\\visual\\stroop\\51-Congruent.png'
g24
g24
I900
tp98
a(g18
g19
g28
I68
g31
S'C:\\Users\\jbarrett\\Charlie-master\\charlie\\stimuli\\visual\\stroop\\16-Congruent.png'
g22
g22
I840
tp99
a(g18
g19
g28
I69
g31
S'C:\\Users\\jbarrett\\Charlie-master\\charlie\\stimuli\\visual\\stroop\\24-Congruent.png'
g22
g22
I680
tp100
a(g18
g19
g28
I70
g29
S'C:\\Users\\jbarrett\\Charlie-master\\charlie\\stimuli\\visual\\stroop\\41-Incongruent.png'
g22
g22
I750
tp101
a(g18
g19
g28
I71
g29
S'C:\\Users\\jbarrett\\Charlie-master\\charlie\\stimuli\\visual\\stroop\\48-Incongruent.png'
g22
g22
I720
tp102
a(g18
g19
g28
I72
g29
S'C:\\Users\\jbarrett\\Charlie-master\\charlie\\stimuli\\visual\\stroop\\4-Incongruent.png'
g24
g24
I1070
tp103
a(g18
g19
g28
I73
g29
S'C:\\Users\\jbarrett\\Charlie-master\\charlie\\stimuli\\visual\\stroop\\54-Incongruent.png'
g22
g22
I940
tp104
a(g18
g19
g28
I74
g29
S'C:\\Users\\jbarrett\\Charlie-master\\charlie\\stimuli\\visual\\stroop\\39-Incongruent.png'
g22
g22
I1010
tp105
a(g18
g19
g28
I75
g31
S'C:\\Users\\jbarrett\\Charlie-master\\charlie\\stimuli\\visual\\stroop\\56-Congruent.png'
g24
g24
I3171
tp106
a(g18
g19
g28
I76
g29
S'C:\\Users\\jbarrett\\Charlie-master\\charlie\\stimuli\\visual\\stroop\\46-Incongruent.png'
g22
g22
I1000
tp107
a(g18
g19
g28
I77
g31
S'C:\\Users\\jbarrett\\Charlie-master\\charlie\\stimuli\\visual\\stroop\\22-Congruent.png'
g22
g22
I3390
tp108
a(g18
g19
g28
I78
g29
S'C:\\Users\\jbarrett\\Charlie-master\\charlie\\stimuli\\visual\\stroop\\21-Incongruent.png'
g24
g24
I1250
tp109
a(g18
g19
g28
I79
g29
S'C:\\Users\\jbarrett\\Charlie-master\\charlie\\stimuli\\visual\\stroop\\37-Incongruent.png'
g22
g22
I890
tp110
a(g18
g19
g28
I80
g29
S'C:\\Users\\jbarrett\\Charlie-master\\charlie\\stimuli\\visual\\stroop\\2-Incongruent.png'
g24
g24
I1190
tp111
a(g18
g19
g28
I81
g31
S'C:\\Users\\jbarrett\\Charlie-master\\charlie\\stimuli\\visual\\stroop\\21-Congruent.png'
g22
g22
I630
tp112
a(g18
g19
g28
I82
g29
S'C:\\Users\\jbarrett\\Charlie-master\\charlie\\stimuli\\visual\\stroop\\7-Incongruent.png'
g24
g24
I760
tp113
a(g18
g19
g28
I83
g31
S'C:\\Users\\jbarrett\\Charlie-master\\charlie\\stimuli\\visual\\stroop\\20-Congruent.png'
g22
g22
I770
tp114
a(g18
g19
g28
I84
g31
S'C:\\Users\\jbarrett\\Charlie-master\\charlie\\stimuli\\visual\\stroop\\15-Congruent.png'
g22
g22
I680
tp115
a(g18
g19
g28
I85
g31
S'C:\\Users\\jbarrett\\Charlie-master\\charlie\\stimuli\\visual\\stroop\\26-Congruent.png'
g22
g22
I580
tp116
a(g18
g19
g28
I86
g29
S'C:\\Users\\jbarrett\\Charlie-master\\charlie\\stimuli\\visual\\stroop\\16-Incongruent.png'
g24
g24
I720
tp117
a(g18
g19
g28
I87
g29
S'C:\\Users\\jbarrett\\Charlie-master\\charlie\\stimuli\\visual\\stroop\\50-Incongruent.png'
g22
g22
I720
tp118
a(g18
g19
g28
I88
g31
S'C:\\Users\\jbarrett\\Charlie-master\\charlie\\stimuli\\visual\\stroop\\41-Congruent.png'
g24
g24
I550
tp119
a(g18
g19
g28
I89
g31
S'C:\\Users\\jbarrett\\Charlie-master\\charlie\\stimuli\\visual\\stroop\\25-Congruent.png'
g22
g22
I600
tp120
a(g18
g19
g28
I90
g31
S'C:\\Users\\jbarrett\\Charlie-master\\charlie\\stimuli\\visual\\stroop\\27-Congruent.png'
g22
g22
I590
tp121
a(g18
g19
g28
I91
g29
S'C:\\Users\\jbarrett\\Charlie-master\\charlie\\stimuli\\visual\\stroop\\18-Incongruent.png'
g24
g24
I650
tp122
a(g18
g19
g28
I92
g29
S'C:\\Users\\jbarrett\\Charlie-master\\charlie\\stimuli\\visual\\stroop\\30-Incongruent.png'
g22
g22
I650
tp123
a(g18
g19
g28
I93
g31
S'C:\\Users\\jbarrett\\Charlie-master\\charlie\\stimuli\\visual\\stroop\\44-Congruent.png'
g24
g24
I570
tp124
a(g18
g19
g28
I94
g31
S'C:\\Users\\jbarrett\\Charlie-master\\charlie\\stimuli\\visual\\stroop\\37-Congruent.png'
g24
g24
I980
tp125
a(g18
g19
g28
I95
g29
S'C:\\Users\\jbarrett\\Charlie-master\\charlie\\stimuli\\visual\\stroop\\11-Incongruent.png'
g24
g24
I1120
tp126
a(g18
g19
g28
I96
g29
S'C:\\Users\\jbarrett\\Charlie-master\\charlie\\stimuli\\visual\\stroop\\29-Incongruent.png'
g22
g22
I670
tp127
a(g18
g19
g28
I97
g29
S'C:\\Users\\jbarrett\\Charlie-master\\charlie\\stimuli\\visual\\stroop\\3-Incongruent.png'
g24
g24
I820
tp128
a(g18
g19
g28
I98
g31
S'C:\\Users\\jbarrett\\Charlie-master\\charlie\\stimuli\\visual\\stroop\\1-Congruent.png'
g22
g22
I1110
tp129
a(g18
g19
g28
I99
g29
S'C:\\Users\\jbarrett\\Charlie-master\\charlie\\stimuli\\visual\\stroop\\52-Incongruent.png'
g22
g22
I1400
tp130
a(g18
g19
g28
I100
g29
S'C:\\Users\\jbarrett\\Charlie-master\\charlie\\stimuli\\visual\\stroop\\14-Incongruent.png'
g24
g24
I700
tp131
a(g18
g19
g28
I101
g31
S'C:\\Users\\jbarrett\\Charlie-master\\charlie\\stimuli\\visual\\stroop\\47-Congruent.png'
g24
g24
I650
tp132
a(g18
g19
g28
I102
g29
S'C:\\Users\\jbarrett\\Charlie-master\\charlie\\stimuli\\visual\\stroop\\19-Incongruent.png'
g24
g24
I640
tp133
a(g18
g19
g28
I103
g31
S'C:\\Users\\jbarrett\\Charlie-master\\charlie\\stimuli\\visual\\stroop\\11-Congruent.png'
g22
g22
I540
tp134
a(g18
g19
g28
I104
g29
S'C:\\Users\\jbarrett\\Charlie-master\\charlie\\stimuli\\visual\\stroop\\22-Incongruent.png'
g24
g24
I600
tp135
a(g18
g19
g28
I105
g31
S'C:\\Users\\jbarrett\\Charlie-master\\charlie\\stimuli\\visual\\stroop\\7-Congruent.png'
g22
g22
I3371
tp136
a(g18
g19
g28
I106
g31
S'C:\\Users\\jbarrett\\Charlie-master\\charlie\\stimuli\\visual\\stroop\\53-Congruent.png'
g24
g24
I910
tp137
a(g18
g19
g28
I107
g31
S'C:\\Users\\jbarrett\\Charlie-master\\charlie\\stimuli\\visual\\stroop\\32-Congruent.png'
g24
g24
I700
tp138
a(g18
g19
g28
I108
g29
S'C:\\Users\\jbarrett\\Charlie-master\\charlie\\stimuli\\visual\\stroop\\45-Incongruent.png'
g22
g22
I870
tp139
a(g18
g19
g28
I109
g31
S'C:\\Users\\jbarrett\\Charlie-master\\charlie\\stimuli\\visual\\stroop\\36-Congruent.png'
g24
g24
I1510
tp140
a(g18
g19
g28
I110
g29
S'C:\\Users\\jbarrett\\Charlie-master\\charlie\\stimuli\\visual\\stroop\\51-Incongruent.png'
g22
g22
I720
tp141
a(g18
g19
g28
I111
g31
S'C:\\Users\\jbarrett\\Charlie-master\\charlie\\stimuli\\visual\\stroop\\18-Congruent.png'
p142
g22
g22
I590
tp143
asS'output_format'
p144
(lp145
(S'proband_id'
p146
c__builtin__
str
p147
tp148
a(S'test_name'
p149
g147
tp150
a(S'phase'
p151
g147
tp152
a(S'trialn'
p153
c__builtin__
int
p154
tp155
a(S'cong'
p156
g147
tp157
a(S'f'
g147
tp158
a(S'ans'
p159
g147
tp160
a(S'rsp'
p161
g147
tp162
a(S'rt'
p163
g154
tp164
asg146
g18
sS'filename'
p165
S'4399_stroop.data'
p166
sS'initialised'
p167
g8
(S'\x07\xdf\x06\n\x0b#\x14\x03$\xb0'
tRp168
sS'last_udated'
p169
g8
(S'\x07\xdf\x06\n\x0b#\x14\x03$\xb0'
tRp170
sg149
S'stroop'
p171
sS'directory'
p172
S'C:\\Users\\jbarrett\\Charlie-master\\charlie\\data\\raw'
p173
sS'user_id'
p174
S'sebby'
p175
sS'test_started'
p176
I01
sS'abs_filename'
p177
S'C:\\Users\\jbarrett\\Charlie-master\\charlie\\data\\raw\\4399_stroop.data'
p178
sS'date_started'
p179
g8
(S'\x07\xdf\x06\n\x0b$\x0e\x01\xfb\xd0'
tRp180
sS'log'
p181
(lp182
(S'2015-06-10 11:35:20.206000'
S'instance created'
p183
tp184
a(S'2015-06-10 11:36:14.143000'
S'instance updated'
p185
tp186
a(S'2015-06-10 11:36:14.151000'
S'pandas DataFrame of data created'
p187
tp188
a(S'2015-06-10 11:36:14.171000'
S'data saved as csv to C:\\Users\\jbarrett\\Charlie-master\\charlie\\data\\csv\\4399_stroop.csv'
tp189
a(S'2015-06-10 11:36:17.102000'
g185
tp190
a(S'2015-06-10 11:36:17.110000'
g187
tp191
a(S'2015-06-10 11:36:17.114000'
S'data saved as csv to C:\\Users\\jbarrett\\Charlie-master\\charlie\\data\\csv\\4399_stroop.csv'
tp192
a(S'2015-06-10 11:36:19.486000'
g185
tp193
a(S'2015-06-10 11:36:19.494000'
g187
tp194
a(S'2015-06-10 11:36:19.497000'
S'data saved as csv to C:\\Users\\jbarrett\\Charlie-master\\charlie\\data\\csv\\4399_stroop.csv'
tp195
a(S'2015-06-10 11:36:21.637000'
g185
tp196
a(S'2015-06-10 11:36:21.645000'
g187
tp197
a(S'2015-06-10 11:36:21.649000'
S'data saved as csv to C:\\Users\\jbarrett\\Charlie-master\\charlie\\data\\csv\\4399_stroop.csv'
tp198
a(S'2015-06-10 11:36:36.369000'
g185
tp199
a(S'2015-06-10 11:36:36.378000'
g187
tp200
a(S'2015-06-10 11:36:36.381000'
S'data saved as csv to C:\\Users\\jbarrett\\Charlie-master\\charlie\\data\\csv\\4399_stroop.csv'
tp201
a(S'2015-06-10 11:36:37.445000'
g185
tp202
a(S'2015-06-10 11:36:37.454000'
g187
tp203
a(S'2015-06-10 11:36:37.458000'
S'data saved as csv to C:\\Users\\jbarrett\\Charlie-master\\charlie\\data\\csv\\4399_stroop.csv'
tp204
a(S'2015-06-10 11:36:39.191000'
g185
tp205
a(S'2015-06-10 11:36:39.199000'
g187
tp206
a(S'2015-06-10 11:36:39.203000'
S'data saved as csv to C:\\Users\\jbarrett\\Charlie-master\\charlie\\data\\csv\\4399_stroop.csv'
tp207
a(S'2015-06-10 11:36:40.356000'
g185
tp208
a(S'2015-06-10 11:36:40.365000'
g187
tp209
a(S'2015-06-10 11:36:40.369000'
S'data saved as csv to C:\\Users\\jbarrett\\Charlie-master\\charlie\\data\\csv\\4399_stroop.csv'
tp210
a(S'2015-06-10 11:36:41.842000'
g185
tp211
a(S'2015-06-10 11:36:41.849000'
g187
tp212
a(S'2015-06-10 11:36:41.851000'
S'data saved as csv to C:\\Users\\jbarrett\\Charlie-master\\charlie\\data\\csv\\4399_stroop.csv'
tp213
a(S'2015-06-10 11:36:43.112000'
g185
tp214
a(S'2015-06-10 11:36:43.120000'
g187
tp215
a(S'2015-06-10 11:36:43.124000'
S'data saved as csv to C:\\Users\\jbarrett\\Charlie-master\\charlie\\data\\csv\\4399_stroop.csv'
tp216
a(S'2015-06-10 11:36:44.130000'
g185
tp217
a(S'2015-06-10 11:36:44.132000'
g187
tp218
a(S'2015-06-10 11:36:44.134000'
S'data saved as csv to C:\\Users\\jbarrett\\Charlie-master\\charlie\\data\\csv\\4399_stroop.csv'
tp219
a(S'2015-06-10 11:36:45.254000'
g185
tp220
a(S'2015-06-10 11:36:45.263000'
g187
tp221
a(S'2015-06-10 11:36:45.266000'
S'data saved as csv to C:\\Users\\jbarrett\\Charlie-master\\charlie\\data\\csv\\4399_stroop.csv'
tp222
a(S'2015-06-10 11:36:46.299000'
g185
tp223
a(S'2015-06-10 11:36:46.307000'
g187
tp224
a(S'2015-06-10 11:36:46.311000'
S'data saved as csv to C:\\Users\\jbarrett\\Charlie-master\\charlie\\data\\csv\\4399_stroop.csv'
tp225
a(S'2015-06-10 11:36:47.075000'
g185
tp226
a(S'2015-06-10 11:36:47.084000'
g187
tp227
a(S'2015-06-10 11:36:47.088000'
S'data saved as csv to C:\\Users\\jbarrett\\Charlie-master\\charlie\\data\\csv\\4399_stroop.csv'
tp228
a(S'2015-06-10 11:36:47.952000'
g185
tp229
a(S'2015-06-10 11:36:47.961000'
g187
tp230
a(S'2015-06-10 11:36:47.965000'
S'data saved as csv to C:\\Users\\jbarrett\\Charlie-master\\charlie\\data\\csv\\4399_stroop.csv'
tp231
a(S'2015-06-10 11:36:48.889000'
g185
tp232
a(S'2015-06-10 11:36:48.898000'
g187
tp233
a(S'2015-06-10 11:36:48.902000'
S'data saved as csv to C:\\Users\\jbarrett\\Charlie-master\\charlie\\data\\csv\\4399_stroop.csv'
tp234
a(S'2015-06-10 11:36:49.846000'
g185
tp235
a(S'2015-06-10 11:36:49.855000'
g187
tp236
a(S'2015-06-10 11:36:49.858000'
S'data saved as csv to C:\\Users\\jbarrett\\Charlie-master\\charlie\\data\\csv\\4399_stroop.csv'
tp237
a(S'2015-06-10 11:36:51.010000'
g185
tp238
a(S'2015-06-10 11:36:51.018000'
g187
tp239
a(S'2015-06-10 11:36:51.022000'
S'data saved as csv to C:\\Users\\jbarrett\\Charlie-master\\charlie\\data\\csv\\4399_stroop.csv'
tp240
a(S'2015-06-10 11:36:52.706000'
g185
tp241
a(S'2015-06-10 11:36:52.715000'
g187
tp242
a(S'2015-06-10 11:36:52.719000'
S'data saved as csv to C:\\Users\\jbarrett\\Charlie-master\\charlie\\data\\csv\\4399_stroop.csv'
tp243
a(S'2015-06-10 11:36:53.553000'
g185
tp244
a(S'2015-06-10 11:36:53.562000'
g187
tp245
a(S'2015-06-10 11:36:53.566000'
S'data saved as csv to C:\\Users\\jbarrett\\Charlie-master\\charlie\\data\\csv\\4399_stroop.csv'
tp246
a(S'2015-06-10 11:36:54.710000'
g185
tp247
a(S'2015-06-10 11:36:54.718000'
g187
tp248
a(S'2015-06-10 11:36:54.722000'
S'data saved as csv to C:\\Users\\jbarrett\\Charlie-master\\charlie\\data\\csv\\4399_stroop.csv'
tp249
a(S'2015-06-10 11:36:55.867000'
g185
tp250
a(S'2015-06-10 11:36:55.875000'
g187
tp251
a(S'2015-06-10 11:36:55.879000'
S'data saved as csv to C:\\Users\\jbarrett\\Charlie-master\\charlie\\data\\csv\\4399_stroop.csv'
tp252
a(S'2015-06-10 11:36:57.055000'
g185
tp253
a(S'2015-06-10 11:36:57.063000'
g187
tp254
a(S'2015-06-10 11:36:57.068000'
S'data saved as csv to C:\\Users\\jbarrett\\Charlie-master\\charlie\\data\\csv\\4399_stroop.csv'
tp255
a(S'2015-06-10 11:36:58.081000'
g185
tp256
a(S'2015-06-10 11:36:58.090000'
g187
tp257
a(S'2015-06-10 11:36:58.094000'
S'data saved as csv to C:\\Users\\jbarrett\\Charlie-master\\charlie\\data\\csv\\4399_stroop.csv'
tp258
a(S'2015-06-10 11:36:58.998000'
g185
tp259
a(S'2015-06-10 11:36:59.007000'
g187
tp260
a(S'2015-06-10 11:36:59.011000'
S'data saved as csv to C:\\Users\\jbarrett\\Charlie-master\\charlie\\data\\csv\\4399_stroop.csv'
tp261
a(S'2015-06-10 11:36:59.866000'
g185
tp262
a(S'2015-06-10 11:36:59.874000'
g187
tp263
a(S'2015-06-10 11:36:59.878000'
S'data saved as csv to C:\\Users\\jbarrett\\Charlie-master\\charlie\\data\\csv\\4399_stroop.csv'
tp264
a(S'2015-06-10 11:37:00.651000'
g185
tp265
a(S'2015-06-10 11:37:00.659000'
g187
tp266
a(S'2015-06-10 11:37:00.664000'
S'data saved as csv to C:\\Users\\jbarrett\\Charlie-master\\charlie\\data\\csv\\4399_stroop.csv'
tp267
a(S'2015-06-10 11:37:01.878000'
g185
tp268
a(S'2015-06-10 11:37:01.887000'
g187
tp269
a(S'2015-06-10 11:37:01.891000'
S'data saved as csv to C:\\Users\\jbarrett\\Charlie-master\\charlie\\data\\csv\\4399_stroop.csv'
tp270
a(S'2015-06-10 11:37:02.796000'
g185
tp271
a(S'2015-06-10 11:37:02.805000'
g187
tp272
a(S'2015-06-10 11:37:02.809000'
S'data saved as csv to C:\\Users\\jbarrett\\Charlie-master\\charlie\\data\\csv\\4399_stroop.csv'
tp273
a(S'2015-06-10 11:37:03.873000'
g185
tp274
a(S'2015-06-10 11:37:03.881000'
g187
tp275
a(S'2015-06-10 11:37:03.886000'
S'data saved as csv to C:\\Users\\jbarrett\\Charlie-master\\charlie\\data\\csv\\4399_stroop.csv'
tp276
a(S'2015-06-10 11:37:04.721000'
g185
tp277
a(S'2015-06-10 11:37:04.729000'
g187
tp278
a(S'2015-06-10 11:37:04.733000'
S'data saved as csv to C:\\Users\\jbarrett\\Charlie-master\\charlie\\data\\csv\\4399_stroop.csv'
tp279
a(S'2015-06-10 11:37:05.627000'
g185
tp280
a(S'2015-06-10 11:37:05.635000'
g187
tp281
a(S'2015-06-10 11:37:05.639000'
S'data saved as csv to C:\\Users\\jbarrett\\Charlie-master\\charlie\\data\\csv\\4399_stroop.csv'
tp282
a(S'2015-06-10 11:37:06.482000'
g185
tp283
a(S'2015-06-10 11:37:06.491000'
g187
tp284
a(S'2015-06-10 11:37:06.495000'
S'data saved as csv to C:\\Users\\jbarrett\\Charlie-master\\charlie\\data\\csv\\4399_stroop.csv'
tp285
a(S'2015-06-10 11:37:07.329000'
g185
tp286
a(S'2015-06-10 11:37:07.338000'
g187
tp287
a(S'2015-06-10 11:37:07.342000'
S'data saved as csv to C:\\Users\\jbarrett\\Charlie-master\\charlie\\data\\csv\\4399_stroop.csv'
tp288
a(S'2015-06-10 11:37:08.087000'
g185
tp289
a(S'2015-06-10 11:37:08.096000'
g187
tp290
a(S'2015-06-10 11:37:08.100000'
S'data saved as csv to C:\\Users\\jbarrett\\Charlie-master\\charlie\\data\\csv\\4399_stroop.csv'
tp291
a(S'2015-06-10 11:37:08.835000'
g185
tp292
a(S'2015-06-10 11:37:08.844000'
g187
tp293
a(S'2015-06-10 11:37:08.848000'
S'data saved as csv to C:\\Users\\jbarrett\\Charlie-master\\charlie\\data\\csv\\4399_stroop.csv'
tp294
a(S'2015-06-10 11:37:09.610000'
g185
tp295
a(S'2015-06-10 11:37:09.618000'
g187
tp296
a(S'2015-06-10 11:37:09.623000'
S'data saved as csv to C:\\Users\\jbarrett\\Charlie-master\\charlie\\data\\csv\\4399_stroop.csv'
tp297
a(S'2015-06-10 11:37:10.507000'
g185
tp298
a(S'2015-06-10 11:37:10.516000'
g187
tp299
a(S'2015-06-10 11:37:10.520000'
S'data saved as csv to C:\\Users\\jbarrett\\Charlie-master\\charlie\\data\\csv\\4399_stroop.csv'
tp300
a(S'2015-06-10 11:37:11.235000'
g185
tp301
a(S'2015-06-10 11:37:11.244000'
g187
tp302
a(S'2015-06-10 11:37:11.249000'
S'data saved as csv to C:\\Users\\jbarrett\\Charlie-master\\charlie\\data\\csv\\4399_stroop.csv'
tp303
a(S'2015-06-10 11:37:12.241000'
g185
tp304
a(S'2015-06-10 11:37:12.250000'
g187
tp305
a(S'2015-06-10 11:37:12.255000'
S'data saved as csv to C:\\Users\\jbarrett\\Charlie-master\\charlie\\data\\csv\\4399_stroop.csv'
tp306
a(S'2015-06-10 11:37:13.069000'
g185
tp307
a(S'2015-06-10 11:37:13.077000'
g187
tp308
a(S'2015-06-10 11:37:13.082000'
S'data saved as csv to C:\\Users\\jbarrett\\Charlie-master\\charlie\\data\\csv\\4399_stroop.csv'
tp309
a(S'2015-06-10 11:37:14.087000'
g185
tp310
a(S'2015-06-10 11:37:14.096000'
g187
tp311
a(S'2015-06-10 11:37:14.099000'
S'data saved as csv to C:\\Users\\jbarrett\\Charlie-master\\charlie\\data\\csv\\4399_stroop.csv'
tp312
a(S'2015-06-10 11:37:15.502000'
g185
tp313
a(S'2015-06-10 11:37:15.512000'
g187
tp314
a(S'2015-06-10 11:37:15.516000'
S'data saved as csv to C:\\Users\\jbarrett\\Charlie-master\\charlie\\data\\csv\\4399_stroop.csv'
tp315
a(S'2015-06-10 11:37:16.452000'
g185
tp316
a(S'2015-06-10 11:37:16.461000'
g187
tp317
a(S'2015-06-10 11:37:16.466000'
S'data saved as csv to C:\\Users\\jbarrett\\Charlie-master\\charlie\\data\\csv\\4399_stroop.csv'
tp318
a(S'2015-06-10 11:37:17.169000'
g185
tp319
a(S'2015-06-10 11:37:17.178000'
g187
tp320
a(S'2015-06-10 11:37:17.182000'
S'data saved as csv to C:\\Users\\jbarrett\\Charlie-master\\charlie\\data\\csv\\4399_stroop.csv'
tp321
a(S'2015-06-10 11:37:17.987000'
g185
tp322
a(S'2015-06-10 11:37:17.996000'
g187
tp323
a(S'2015-06-10 11:37:18'
S'data saved as csv to C:\\Users\\jbarrett\\Charlie-master\\charlie\\data\\csv\\4399_stroop.csv'
tp324
a(S'2015-06-10 11:37:19.012000'
g185
tp325
a(S'2015-06-10 11:37:19.021000'
g187
tp326
a(S'2015-06-10 11:37:19.024000'
S'data saved as csv to C:\\Users\\jbarrett\\Charlie-master\\charlie\\data\\csv\\4399_stroop.csv'
tp327
a(S'2015-06-10 11:37:19.998000'
g185
tp328
a(S'2015-06-10 11:37:20.007000'
g187
tp329
a(S'2015-06-10 11:37:20.010000'
S'data saved as csv to C:\\Users\\jbarrett\\Charlie-master\\charlie\\data\\csv\\4399_stroop.csv'
tp330
a(S'2015-06-10 11:37:20.842000'
g185
tp331
a(S'2015-06-10 11:37:20.852000'
g187
tp332
a(S'2015-06-10 11:37:20.856000'
S'data saved as csv to C:\\Users\\jbarrett\\Charlie-master\\charlie\\data\\csv\\4399_stroop.csv'
tp333
a(S'2015-06-10 11:37:21.791000'
g185
tp334
a(S'2015-06-10 11:37:21.801000'
g187
tp335
a(S'2015-06-10 11:37:21.805000'
S'data saved as csv to C:\\Users\\jbarrett\\Charlie-master\\charlie\\data\\csv\\4399_stroop.csv'
tp336
a(S'2015-06-10 11:37:22.799000'
g185
tp337
a(S'2015-06-10 11:37:22.808000'
g187
tp338
a(S'2015-06-10 11:37:22.812000'
S'data saved as csv to C:\\Users\\jbarrett\\Charlie-master\\charlie\\data\\csv\\4399_stroop.csv'
tp339
a(S'2015-06-10 11:37:23.627000'
g185
tp340
a(S'2015-06-10 11:37:23.636000'
g187
tp341
a(S'2015-06-10 11:37:23.640000'
S'data saved as csv to C:\\Users\\jbarrett\\Charlie-master\\charlie\\data\\csv\\4399_stroop.csv'
tp342
a(S'2015-06-10 11:37:24.612000'
g185
tp343
a(S'2015-06-10 11:37:24.621000'
g187
tp344
a(S'2015-06-10 11:37:24.626000'
S'data saved as csv to C:\\Users\\jbarrett\\Charlie-master\\charlie\\data\\csv\\4399_stroop.csv'
tp345
a(S'2015-06-10 11:37:25.559000'
g185
tp346
a(S'2015-06-10 11:37:25.568000'
g187
tp347
a(S'2015-06-10 11:37:25.573000'
S'data saved as csv to C:\\Users\\jbarrett\\Charlie-master\\charlie\\data\\csv\\4399_stroop.csv'
tp348
a(S'2015-06-10 11:37:26.668000'
g185
tp349
a(S'2015-06-10 11:37:26.678000'
g187
tp350
a(S'2015-06-10 11:37:26.682000'
S'data saved as csv to C:\\Users\\jbarrett\\Charlie-master\\charlie\\data\\csv\\4399_stroop.csv'
tp351
a(S'2015-06-10 11:37:27.678000'
g185
tp352
a(S'2015-06-10 11:37:27.687000'
g187
tp353
a(S'2015-06-10 11:37:27.691000'
S'data saved as csv to C:\\Users\\jbarrett\\Charlie-master\\charlie\\data\\csv\\4399_stroop.csv'
tp354
a(S'2015-06-10 11:37:28.534000'
g185
tp355
a(S'2015-06-10 11:37:28.543000'
g187
tp356
a(S'2015-06-10 11:37:28.548000'
S'data saved as csv to C:\\Users\\jbarrett\\Charlie-master\\charlie\\data\\csv\\4399_stroop.csv'
tp357
a(S'2015-06-10 11:37:29.233000'
g185
tp358
a(S'2015-06-10 11:37:29.242000'
g187
tp359
a(S'2015-06-10 11:37:29.246000'
S'data saved as csv to C:\\Users\\jbarrett\\Charlie-master\\charlie\\data\\csv\\4399_stroop.csv'
tp360
a(S'2015-06-10 11:37:29.975000'
g185
tp361
a(S'2015-06-10 11:37:29.979000'
g187
tp362
a(S'2015-06-10 11:37:29.982000'
S'data saved as csv to C:\\Users\\jbarrett\\Charlie-master\\charlie\\data\\csv\\4399_stroop.csv'
tp363
a(S'2015-06-10 11:37:31.054000'
g185
tp364
a(S'2015-06-10 11:37:31.063000'
g187
tp365
a(S'2015-06-10 11:37:31.067000'
S'data saved as csv to C:\\Users\\jbarrett\\Charlie-master\\charlie\\data\\csv\\4399_stroop.csv'
tp366
a(S'2015-06-10 11:37:31.943000'
g185
tp367
a(S'2015-06-10 11:37:31.952000'
g187
tp368
a(S'2015-06-10 11:37:31.957000'
S'data saved as csv to C:\\Users\\jbarrett\\Charlie-master\\charlie\\data\\csv\\4399_stroop.csv'
tp369
a(S'2015-06-10 11:37:32.913000'
g185
tp370
a(S'2015-06-10 11:37:32.922000'
g187
tp371
a(S'2015-06-10 11:37:32.927000'
S'data saved as csv to C:\\Users\\jbarrett\\Charlie-master\\charlie\\data\\csv\\4399_stroop.csv'
tp372
a(S'2015-06-10 11:37:33.923000'
g185
tp373
a(S'2015-06-10 11:37:33.933000'
g187
tp374
a(S'2015-06-10 11:37:33.938000'
S'data saved as csv to C:\\Users\\jbarrett\\Charlie-master\\charlie\\data\\csv\\4399_stroop.csv'
tp375
a(S'2015-06-10 11:37:34.724000'
g185
tp376
a(S'2015-06-10 11:37:34.733000'
g187
tp377
a(S'2015-06-10 11:37:34.737000'
S'data saved as csv to C:\\Users\\jbarrett\\Charlie-master\\charlie\\data\\csv\\4399_stroop.csv'
tp378
a(S'2015-06-10 11:37:35.820000'
g185
tp379
a(S'2015-06-10 11:37:35.830000'
g187
tp380
a(S'2015-06-10 11:37:35.835000'
S'data saved as csv to C:\\Users\\jbarrett\\Charlie-master\\charlie\\data\\csv\\4399_stroop.csv'
tp381
a(S'2015-06-10 11:37:36.722000'
g185
tp382
a(S'2015-06-10 11:37:36.731000'
g187
tp383
a(S'2015-06-10 11:37:36.736000'
S'data saved as csv to C:\\Users\\jbarrett\\Charlie-master\\charlie\\data\\csv\\4399_stroop.csv'
tp384
a(S'2015-06-10 11:37:37.662000'
g185
tp385
a(S'2015-06-10 11:37:37.672000'
g187
tp386
a(S'2015-06-10 11:37:37.677000'
S'data saved as csv to C:\\Users\\jbarrett\\Charlie-master\\charlie\\data\\csv\\4399_stroop.csv'
tp387
a(S'2015-06-10 11:37:38.921000'
g185
tp388
a(S'2015-06-10 11:37:38.931000'
g187
tp389
a(S'2015-06-10 11:37:38.936000'
S'data saved as csv to C:\\Users\\jbarrett\\Charlie-master\\charlie\\data\\csv\\4399_stroop.csv'
tp390
a(S'2015-06-10 11:37:41.511000'
g185
tp391
a(S'2015-06-10 11:37:41.520000'
g187
tp392
a(S'2015-06-10 11:37:41.523000'
S'data saved as csv to C:\\Users\\jbarrett\\Charlie-master\\charlie\\data\\csv\\4399_stroop.csv'
tp393
a(S'2015-06-10 11:37:45.747000'
g185
tp394
a(S'2015-06-10 11:37:45.756000'
g187
tp395
a(S'2015-06-10 11:37:45.761000'
S'data saved as csv to C:\\Users\\jbarrett\\Charlie-master\\charlie\\data\\csv\\4399_stroop.csv'
tp396
a(S'2015-06-10 11:37:46.597000'
g185
tp397
a(S'2015-06-10 11:37:46.606000'
g187
tp398
a(S'2015-06-10 11:37:46.611000'
S'data saved as csv to C:\\Users\\jbarrett\\Charlie-master\\charlie\\data\\csv\\4399_stroop.csv'
tp399
a(S'2015-06-10 11:37:47.648000'
g185
tp400
a(S'2015-06-10 11:37:47.658000'
g187
tp401
a(S'2015-06-10 11:37:47.663000'
S'data saved as csv to C:\\Users\\jbarrett\\Charlie-master\\charlie\\data\\csv\\4399_stroop.csv'
tp402
a(S'2015-06-10 11:37:48.639000'
g185
tp403
a(S'2015-06-10 11:37:48.648000'
g187
tp404
a(S'2015-06-10 11:37:48.653000'
S'data saved as csv to C:\\Users\\jbarrett\\Charlie-master\\charlie\\data\\csv\\4399_stroop.csv'
tp405
a(S'2015-06-10 11:37:49.469000'
g185
tp406
a(S'2015-06-10 11:37:49.478000'
g187
tp407
a(S'2015-06-10 11:37:49.483000'
S'data saved as csv to C:\\Users\\jbarrett\\Charlie-master\\charlie\\data\\csv\\4399_stroop.csv'
tp408
a(S'2015-06-10 11:37:50.369000'
g185
tp409
a(S'2015-06-10 11:37:50.379000'
g187
tp410
a(S'2015-06-10 11:37:50.389000'
S'data saved as csv to C:\\Users\\jbarrett\\Charlie-master\\charlie\\data\\csv\\4399_stroop.csv'
tp411
a(S'2015-06-10 11:37:51.244000'
g185
tp412
a(S'2015-06-10 11:37:51.253000'
g187
tp413
a(S'2015-06-10 11:37:51.258000'
S'data saved as csv to C:\\Users\\jbarrett\\Charlie-master\\charlie\\data\\csv\\4399_stroop.csv'
tp414
a(S'2015-06-10 11:37:52.464000'
g185
tp415
a(S'2015-06-10 11:37:52.473000'
g187
tp416
a(S'2015-06-10 11:37:52.478000'
S'data saved as csv to C:\\Users\\jbarrett\\Charlie-master\\charlie\\data\\csv\\4399_stroop.csv'
tp417
a(S'2015-06-10 11:37:53.554000'
g185
tp418
a(S'2015-06-10 11:37:53.564000'
g187
tp419
a(S'2015-06-10 11:37:53.569000'
S'data saved as csv to C:\\Users\\jbarrett\\Charlie-master\\charlie\\data\\csv\\4399_stroop.csv'
tp420
a(S'2015-06-10 11:37:54.715000'
g185
tp421
a(S'2015-06-10 11:37:54.725000'
g187
tp422
a(S'2015-06-10 11:37:54.730000'
S'data saved as csv to C:\\Users\\jbarrett\\Charlie-master\\charlie\\data\\csv\\4399_stroop.csv'
tp423
a(S'2015-06-10 11:37:58.038000'
g185
tp424
a(S'2015-06-10 11:37:58.048000'
g187
tp425
a(S'2015-06-10 11:37:58.052000'
S'data saved as csv to C:\\Users\\jbarrett\\Charlie-master\\charlie\\data\\csv\\4399_stroop.csv'
tp426
a(S'2015-06-10 11:37:59.185000'
g185
tp427
a(S'2015-06-10 11:37:59.195000'
g187
tp428
a(S'2015-06-10 11:37:59.200000'
S'data saved as csv to C:\\Users\\jbarrett\\Charlie-master\\charlie\\data\\csv\\4399_stroop.csv'
tp429
a(S'2015-06-10 11:38:02.727000'
g185
tp430
a(S'2015-06-10 11:38:02.737000'
g187
tp431
a(S'2015-06-10 11:38:02.742000'
S'data saved as csv to C:\\Users\\jbarrett\\Charlie-master\\charlie\\data\\csv\\4399_stroop.csv'
tp432
a(S'2015-06-10 11:38:04.128000'
g185
tp433
a(S'2015-06-10 11:38:04.138000'
g187
tp434
a(S'2015-06-10 11:38:04.142000'
S'data saved as csv to C:\\Users\\jbarrett\\Charlie-master\\charlie\\data\\csv\\4399_stroop.csv'
tp435
a(S'2015-06-10 11:38:05.165000'
g185
tp436
a(S'2015-06-10 11:38:05.175000'
g187
tp437
a(S'2015-06-10 11:38:05.180000'
S'data saved as csv to C:\\Users\\jbarrett\\Charlie-master\\charlie\\data\\csv\\4399_stroop.csv'
tp438
a(S'2015-06-10 11:38:06.507000'
g185
tp439
a(S'2015-06-10 11:38:06.517000'
g187
tp440
a(S'2015-06-10 11:38:06.522000'
S'data saved as csv to C:\\Users\\jbarrett\\Charlie-master\\charlie\\data\\csv\\4399_stroop.csv'
tp441
a(S'2015-06-10 11:38:07.288000'
g185
tp442
a(S'2015-06-10 11:38:07.295000'
g187
tp443
a(S'2015-06-10 11:38:07.298000'
S'data saved as csv to C:\\Users\\jbarrett\\Charlie-master\\charlie\\data\\csv\\4399_stroop.csv'
tp444
a(S'2015-06-10 11:38:08.191000'
g185
tp445
a(S'2015-06-10 11:38:08.201000'
g187
tp446
a(S'2015-06-10 11:38:08.206000'
S'data saved as csv to C:\\Users\\jbarrett\\Charlie-master\\charlie\\data\\csv\\4399_stroop.csv'
tp447
a(S'2015-06-10 11:38:09.112000'
g185
tp448
a(S'2015-06-10 11:38:09.122000'
g187
tp449
a(S'2015-06-10 11:38:09.127000'
S'data saved as csv to C:\\Users\\jbarrett\\Charlie-master\\charlie\\data\\csv\\4399_stroop.csv'
tp450
a(S'2015-06-10 11:38:09.943000'
g185
tp451
a(S'2015-06-10 11:38:09.953000'
g187
tp452
a(S'2015-06-10 11:38:09.958000'
S'data saved as csv to C:\\Users\\jbarrett\\Charlie-master\\charlie\\data\\csv\\4399_stroop.csv'
tp453
a(S'2015-06-10 11:38:10.673000'
g185
tp454
a(S'2015-06-10 11:38:10.682000'
g187
tp455
a(S'2015-06-10 11:38:10.685000'
S'data saved as csv to C:\\Users\\jbarrett\\Charlie-master\\charlie\\data\\csv\\4399_stroop.csv'
tp456
a(S'2015-06-10 11:38:11.539000'
g185
tp457
a(S'2015-06-10 11:38:11.549000'
g187
tp458
a(S'2015-06-10 11:38:11.553000'
S'data saved as csv to C:\\Users\\jbarrett\\Charlie-master\\charlie\\data\\csv\\4399_stroop.csv'
tp459
a(S'2015-06-10 11:38:12.407000'
g185
tp460
a(S'2015-06-10 11:38:12.416000'
g187
tp461
a(S'2015-06-10 11:38:12.422000'
S'data saved as csv to C:\\Users\\jbarrett\\Charlie-master\\charlie\\data\\csv\\4399_stroop.csv'
tp462
a(S'2015-06-10 11:38:13.107000'
g185
tp463
a(S'2015-06-10 11:38:13.117000'
g187
tp464
a(S'2015-06-10 11:38:13.122000'
S'data saved as csv to C:\\Users\\jbarrett\\Charlie-master\\charlie\\data\\csv\\4399_stroop.csv'
tp465
a(S'2015-06-10 11:38:13.858000'
g185
tp466
a(S'2015-06-10 11:38:13.864000'
g187
tp467
a(S'2015-06-10 11:38:13.866000'
S'data saved as csv to C:\\Users\\jbarrett\\Charlie-master\\charlie\\data\\csv\\4399_stroop.csv'
tp468
a(S'2015-06-10 11:38:14.590000'
g185
tp469
a(S'2015-06-10 11:38:14.599000'
g187
tp470
a(S'2015-06-10 11:38:14.605000'
S'data saved as csv to C:\\Users\\jbarrett\\Charlie-master\\charlie\\data\\csv\\4399_stroop.csv'
tp471
a(S'2015-06-10 11:38:15.391000'
g185
tp472
a(S'2015-06-10 11:38:15.400000'
g187
tp473
a(S'2015-06-10 11:38:15.407000'
S'data saved as csv to C:\\Users\\jbarrett\\Charlie-master\\charlie\\data\\csv\\4399_stroop.csv'
tp474
a(S'2015-06-10 11:38:16.194000'
g185
tp475
a(S'2015-06-10 11:38:16.204000'
g187
tp476
a(S'2015-06-10 11:38:16.210000'
S'data saved as csv to C:\\Users\\jbarrett\\Charlie-master\\charlie\\data\\csv\\4399_stroop.csv'
tp477
a(S'2015-06-10 11:38:16.916000'
g185
tp478
a(S'2015-06-10 11:38:16.927000'
g187
tp479
a(S'2015-06-10 11:38:16.932000'
S'data saved as csv to C:\\Users\\jbarrett\\Charlie-master\\charlie\\data\\csv\\4399_stroop.csv'
tp480
a(S'2015-06-10 11:38:18.047000'
g185
tp481
a(S'2015-06-10 11:38:18.057000'
g187
tp482
a(S'2015-06-10 11:38:18.062000'
S'data saved as csv to C:\\Users\\jbarrett\\Charlie-master\\charlie\\data\\csv\\4399_stroop.csv'
tp483
a(S'2015-06-10 11:38:19.315000'
g185
tp484
a(S'2015-06-10 11:38:19.325000'
g187
tp485
a(S'2015-06-10 11:38:19.330000'
S'data saved as csv to C:\\Users\\jbarrett\\Charlie-master\\charlie\\data\\csv\\4399_stroop.csv'
tp486
a(S'2015-06-10 11:38:20.137000'
g185
tp487
a(S'2015-06-10 11:38:20.147000'
g187
tp488
a(S'2015-06-10 11:38:20.152000'
S'data saved as csv to C:\\Users\\jbarrett\\Charlie-master\\charlie\\data\\csv\\4399_stroop.csv'
tp489
a(S'2015-06-10 11:38:21.109000'
g185
tp490
a(S'2015-06-10 11:38:21.119000'
g187
tp491
a(S'2015-06-10 11:38:21.123000'
S'data saved as csv to C:\\Users\\jbarrett\\Charlie-master\\charlie\\data\\csv\\4399_stroop.csv'
tp492
a(S'2015-06-10 11:38:22.367000'
g185
tp493
a(S'2015-06-10 11:38:22.377000'
g187
tp494
a(S'2015-06-10 11:38:22.382000'
S'data saved as csv to C:\\Users\\jbarrett\\Charlie-master\\charlie\\data\\csv\\4399_stroop.csv'
tp495
a(S'2015-06-10 11:38:23.916000'
g185
tp496
a(S'2015-06-10 11:38:23.926000'
g187
tp497
a(S'2015-06-10 11:38:23.932000'
S'data saved as csv to C:\\Users\\jbarrett\\Charlie-master\\charlie\\data\\csv\\4399_stroop.csv'
tp498
a(S'2015-06-10 11:38:24.768000'
g185
tp499
a(S'2015-06-10 11:38:24.778000'
g187
tp500
a(S'2015-06-10 11:38:24.782000'
S'data saved as csv to C:\\Users\\jbarrett\\Charlie-master\\charlie\\data\\csv\\4399_stroop.csv'
tp501
a(S'2015-06-10 11:38:25.566000'
g185
tp502
a(S'2015-06-10 11:38:25.576000'
g187
tp503
a(S'2015-06-10 11:38:25.581000'
S'data saved as csv to C:\\Users\\jbarrett\\Charlie-master\\charlie\\data\\csv\\4399_stroop.csv'
tp504
a(S'2015-06-10 11:38:26.359000'
g185
tp505
a(S'2015-06-10 11:38:26.369000'
g187
tp506
a(S'2015-06-10 11:38:26.373000'
S'data saved as csv to C:\\Users\\jbarrett\\Charlie-master\\charlie\\data\\csv\\4399_stroop.csv'
tp507
a(S'2015-06-10 11:38:27.047000'
g185
tp508
a(S'2015-06-10 11:38:27.057000'
g187
tp509
a(S'2015-06-10 11:38:27.063000'
S'data saved as csv to C:\\Users\\jbarrett\\Charlie-master\\charlie\\data\\csv\\4399_stroop.csv'
tp510
a(S'2015-06-10 11:38:27.797000'
g185
tp511
a(S'2015-06-10 11:38:27.808000'
g187
tp512
a(S'2015-06-10 11:38:27.813000'
S'data saved as csv to C:\\Users\\jbarrett\\Charlie-master\\charlie\\data\\csv\\4399_stroop.csv'
tp513
a(S'2015-06-10 11:38:31.318000'
g185
tp514
a(S'2015-06-10 11:38:31.329000'
g187
tp515
a(S'2015-06-10 11:38:31.334000'
S'data saved as csv to C:\\Users\\jbarrett\\Charlie-master\\charlie\\data\\csv\\4399_stroop.csv'
tp516
a(S'2015-06-10 11:38:32.381000'
g185
tp517
a(S'2015-06-10 11:38:32.391000'
g187
tp518
a(S'2015-06-10 11:38:32.396000'
S'data saved as csv to C:\\Users\\jbarrett\\Charlie-master\\charlie\\data\\csv\\4399_stroop.csv'
tp519
a(S'2015-06-10 11:38:33.233000'
g185
tp520
a(S'2015-06-10 11:38:33.242000'
g187
tp521
a(S'2015-06-10 11:38:33.245000'
S'data saved as csv to C:\\Users\\jbarrett\\Charlie-master\\charlie\\data\\csv\\4399_stroop.csv'
tp522
a(S'2015-06-10 11:38:34.249000'
g185
tp523
a(S'2015-06-10 11:38:34.260000'
g187
tp524
a(S'2015-06-10 11:38:34.264000'
S'data saved as csv to C:\\Users\\jbarrett\\Charlie-master\\charlie\\data\\csv\\4399_stroop.csv'
tp525
a(S'2015-06-10 11:38:35.908000'
g185
tp526
a(S'2015-06-10 11:38:35.918000'
g187
tp527
a(S'2015-06-10 11:38:35.924000'
S'data saved as csv to C:\\Users\\jbarrett\\Charlie-master\\charlie\\data\\csv\\4399_stroop.csv'
tp528
a(S'2015-06-10 11:38:36.783000'
g185
tp529
a(S'2015-06-10 11:38:36.792000'
g187
tp530
a(S'2015-06-10 11:38:36.798000'
S'data saved as csv to C:\\Users\\jbarrett\\Charlie-master\\charlie\\data\\csv\\4399_stroop.csv'
tp531
a(S'2015-06-10 11:38:37.525000'
g185
tp532
a(S'2015-06-10 11:38:37.536000'
g187
tp533
a(S'2015-06-10 11:38:37.541000'
S'data saved as csv to C:\\Users\\jbarrett\\Charlie-master\\charlie\\data\\csv\\4399_stroop.csv'
tp534
asb.