(icharlie.tools.data
Data
p1
(dp2
S'lang'
p3
S'EN'
p4
sS'control'
p5
(lp6
sS'last_updated'
p7
cdatetime
datetime
p8
(S'\x07\xdf\x06\n\x0b-)\n\x8b8'
tRp9
sS'last_opened'
p10
g8
(S'\x07\xdf\x06\n\x0b&&\x03\xd8`'
tRp11
sS'proj_id'
p12
S'connectivity'
p13
sS'date_done'
p14
g8
(S'\x07\xdf\x06\n\x0b-)\nh\x10'
tRp15
sS'test_done'
p16
I01
sS'data'
p17
(lp18
(S'4399'
p19
S'verbal_fluency'
p20
I0
S'True'
p21
tp22
a(g19
g20
I0
g21
tp23
a(g19
g20
I0
g21
tp24
a(g19
g20
I0
g21
tp25
a(g19
g20
I0
g21
tp26
a(g19
g20
I0
g21
tp27
a(g19
g20
I0
g21
tp28
a(g19
g20
I0
g21
tp29
a(g19
g20
I0
g21
tp30
a(g19
g20
I0
g21
tp31
a(g19
g20
I0
g21
tp32
a(g19
g20
I1
g21
tp33
a(g19
g20
I1
g21
tp34
a(g19
g20
I1
g21
tp35
a(g19
g20
I1
g21
tp36
a(g19
g20
I1
g21
tp37
a(g19
g20
I1
g21
tp38
a(g19
g20
I1
S'False'
p39
tp40
a(g19
g20
I1
g21
tp41
a(g19
g20
I1
g21
tp42
a(g19
g20
I1
g21
tp43
a(g19
g20
I1
g21
tp44
a(g19
g20
I1
g21
tp45
a(g19
g20
I2
g21
tp46
a(g19
g20
I2
g21
tp47
a(g19
g20
I2
g21
tp48
a(g19
g20
I2
g21
tp49
a(g19
g20
I2
g21
tp50
a(g19
g20
I2
g21
tp51
a(g19
g20
I2
g21
tp52
a(g19
g20
I2
g21
tp53
a(g19
g20
I2
g21
tp54
a(g19
g20
I2
g21
tp55
a(g19
g20
I2
g21
tp56
a(g19
g20
I2
g21
tp57
a(g19
g20
I2
g21
tp58
a(g19
g20
I2
g21
tp59
a(g19
g20
I2
g21
tp60
a(g19
g20
I2
g21
tp61
a(g19
g20
I2
g21
tp62
a(g19
g20
I2
g21
tp63
a(g19
g20
I2
g21
tp64
a(g19
g20
I2
g21
tp65
a(g19
g20
I2
g21
tp66
a(g19
g20
I3
g21
tp67
a(g19
g20
I3
g21
tp68
a(g19
g20
I3
g21
tp69
a(g19
g20
I3
g39
tp70
a(g19
g20
I3
g21
tp71
a(g19
g20
I3
g21
tp72
a(g19
g20
I3
g21
tp73
a(g19
g20
I3
g21
tp74
a(g19
g20
I3
g39
tp75
a(g19
g20
I3
g21
tp76
a(g19
g20
I3
g21
tp77
a(g19
g20
I3
g21
tp78
a(g19
g20
I3
g21
tp79
a(g19
g20
I3
g21
tp80
a(g19
g20
I3
g21
tp81
a(g19
g20
I3
g21
tp82
a(g19
g20
I3
g21
tp83
a(g19
g20
I3
g21
tp84
a(g19
g20
I3
g21
tp85
a(g19
g20
I3
g21
tp86
a(g19
g20
I3
g21
tp87
a(g19
g20
I3
g21
tp88
a(g19
g20
I3
g39
tp89
a(g19
g20
I3
g21
tp90
a(g19
g20
I3
g21
tp91
asS'output_format'
p92
(lp93
(S'proband_id'
p94
c__builtin__
str
p95
tp96
a(S'test_name'
p97
g95
tp98
a(S'trialn'
p99
c__builtin__
int
p100
tp101
a(S'rsp'
p102
g95
tp103
asg94
g19
sS'filename'
p104
S'4399_verbal_fluency.data'
p105
sS'initialised'
p106
g8
(S'\x07\xdf\x06\n\x0b&&\x03\xd8`'
tRp107
sS'last_udated'
p108
g8
(S'\x07\xdf\x06\n\x0b&&\x03\xd8`'
tRp109
sg97
S'verbal_fluency'
p110
sS'directory'
p111
S'C:\\Users\\jbarrett\\Charlie-master\\charlie\\data\\raw'
p112
sS'user_id'
p113
S'sebby'
p114
sS'test_started'
p115
I01
sS'abs_filename'
p116
S'C:\\Users\\jbarrett\\Charlie-master\\charlie\\data\\raw\\4399_verbal_fluency.data'
p117
sS'date_started'
p118
g8
(S'\x07\xdf\x06\n\x0b)\x11\x01\xff\xb8'
tRp119
sS'log'
p120
(lp121
(S'2015-06-10 11:38:38.252000'
S'instance created'
p122
tp123
a(S'2015-06-10 11:41:17.141000'
S'instance updated'
p124
tp125
a(S'2015-06-10 11:41:17.145000'
S'pandas DataFrame of data created'
p126
tp127
a(S'2015-06-10 11:41:17.150000'
S'data saved as csv to C:\\Users\\jbarrett\\Charlie-master\\charlie\\data\\csv\\4399_verbal_fluency.csv'
tp128
a(S'2015-06-10 11:41:25.338000'
g124
tp129
a(S'2015-06-10 11:41:25.343000'
g126
tp130
a(S'2015-06-10 11:41:25.346000'
S'data saved as csv to C:\\Users\\jbarrett\\Charlie-master\\charlie\\data\\csv\\4399_verbal_fluency.csv'
tp131
a(S'2015-06-10 11:42:28.885000'
g124
tp132
a(S'2015-06-10 11:42:28.890000'
g126
tp133
a(S'2015-06-10 11:42:28.894000'
S'data saved as csv to C:\\Users\\jbarrett\\Charlie-master\\charlie\\data\\csv\\4399_verbal_fluency.csv'
tp134
a(S'2015-06-10 11:42:49.565000'
g124
tp135
a(S'2015-06-10 11:42:49.569000'
g126
tp136
a(S'2015-06-10 11:42:49.573000'
S'data saved as csv to C:\\Users\\jbarrett\\Charlie-master\\charlie\\data\\csv\\4399_verbal_fluency.csv'
tp137
a(S'2015-06-10 11:43:55.038000'
g124
tp138
a(S'2015-06-10 11:43:55.043000'
g126
tp139
a(S'2015-06-10 11:43:55.047000'
S'data saved as csv to C:\\Users\\jbarrett\\Charlie-master\\charlie\\data\\csv\\4399_verbal_fluency.csv'
tp140
a(S'2015-06-10 11:44:36.880000'
g124
tp141
a(S'2015-06-10 11:44:36.885000'
g126
tp142
a(S'2015-06-10 11:44:36.888000'
S'data saved as csv to C:\\Users\\jbarrett\\Charlie-master\\charlie\\data\\csv\\4399_verbal_fluency.csv'
tp143
a(S'2015-06-10 11:45:41.682000'
g124
tp144
a(S'2015-06-10 11:45:41.688000'
g126
tp145
a(S'2015-06-10 11:45:41.691000'
S'data saved as csv to C:\\Users\\jbarrett\\Charlie-master\\charlie\\data\\csv\\4399_verbal_fluency.csv'
tp146
asb.