(icharlie.tools.data
Data
p1
(dp2
S'lang'
p3
S'EN'
p4
sS'control'
p5
(lp6
sS'last_updated'
p7
cdatetime
datetime
p8
(S'\x07\xdf\x06\n\x0b#\x13\x08M\x00'
tRp9
sS'last_opened'
p10
g8
(S'\x07\xdf\x06\n\x0b\x1e\x04\x08\xe9@'
tRp11
sS'proj_id'
p12
S'connectivity'
p13
sS'date_done'
p14
NsS'test_done'
p15
I01
sS'data'
p16
(lp17
(S'4399'
p18
S'matrix_reasoning'
p19
S'practice'
p20
I0
S'C:\\Users\\jbarrett\\Charlie-master\\charlie\\stimuli\\visual\\matrix_reasoning\\prac_MA.png'
S'C:\\Users\\jbarrett\\Charlie-master\\charlie\\stimuli\\visual\\matrix_reasoning\\prac_MAa.png'
I1
I1
I7737
tp21
a(g18
g19
S'test'
p22
I0
S'C:\\Users\\jbarrett\\Charlie-master\\charlie\\stimuli\\visual\\matrix_reasoning\\M001.png'
S'C:\\Users\\jbarrett\\Charlie-master\\charlie\\stimuli\\visual\\matrix_reasoning\\M001a.png'
I1
I1
I2217
tp23
a(g18
g19
g22
I1
S'C:\\Users\\jbarrett\\Charlie-master\\charlie\\stimuli\\visual\\matrix_reasoning\\M002.png'
S'C:\\Users\\jbarrett\\Charlie-master\\charlie\\stimuli\\visual\\matrix_reasoning\\M002a.png'
I3
I3
I5231
tp24
a(g18
g19
g22
I2
S'C:\\Users\\jbarrett\\Charlie-master\\charlie\\stimuli\\visual\\matrix_reasoning\\M003.png'
S'C:\\Users\\jbarrett\\Charlie-master\\charlie\\stimuli\\visual\\matrix_reasoning\\M003a.png'
I1
I1
I3103
tp25
a(g18
g19
g22
I3
S'C:\\Users\\jbarrett\\Charlie-master\\charlie\\stimuli\\visual\\matrix_reasoning\\M004.png'
S'C:\\Users\\jbarrett\\Charlie-master\\charlie\\stimuli\\visual\\matrix_reasoning\\M004a.png'
I3
I3
I1969
tp26
a(g18
g19
g22
I4
S'C:\\Users\\jbarrett\\Charlie-master\\charlie\\stimuli\\visual\\matrix_reasoning\\M005.png'
S'C:\\Users\\jbarrett\\Charlie-master\\charlie\\stimuli\\visual\\matrix_reasoning\\M005a.png'
I2
I2
I2557
tp27
a(g18
g19
g22
I5
S'C:\\Users\\jbarrett\\Charlie-master\\charlie\\stimuli\\visual\\matrix_reasoning\\M006.png'
S'C:\\Users\\jbarrett\\Charlie-master\\charlie\\stimuli\\visual\\matrix_reasoning\\M006a.png'
I0
I0
I2216
tp28
a(g18
g19
g22
I6
S'C:\\Users\\jbarrett\\Charlie-master\\charlie\\stimuli\\visual\\matrix_reasoning\\M007.png'
S'C:\\Users\\jbarrett\\Charlie-master\\charlie\\stimuli\\visual\\matrix_reasoning\\M007a.png'
I0
I0
I2447
tp29
a(g18
g19
g22
I7
S'C:\\Users\\jbarrett\\Charlie-master\\charlie\\stimuli\\visual\\matrix_reasoning\\M008.png'
S'C:\\Users\\jbarrett\\Charlie-master\\charlie\\stimuli\\visual\\matrix_reasoning\\M008a.png'
I2
I2
I3293
tp30
a(g18
g19
g22
I8
S'C:\\Users\\jbarrett\\Charlie-master\\charlie\\stimuli\\visual\\matrix_reasoning\\M009.png'
S'C:\\Users\\jbarrett\\Charlie-master\\charlie\\stimuli\\visual\\matrix_reasoning\\M009a.png'
I4
I4
I3134
tp31
a(g18
g19
g22
I9
S'C:\\Users\\jbarrett\\Charlie-master\\charlie\\stimuli\\visual\\matrix_reasoning\\M010.png'
S'C:\\Users\\jbarrett\\Charlie-master\\charlie\\stimuli\\visual\\matrix_reasoning\\M010a.png'
I4
I4
I4864
tp32
a(g18
g19
g22
I10
S'C:\\Users\\jbarrett\\Charlie-master\\charlie\\stimuli\\visual\\matrix_reasoning\\M011.png'
S'C:\\Users\\jbarrett\\Charlie-master\\charlie\\stimuli\\visual\\matrix_reasoning\\M011a.png'
I4
I4
I2284
tp33
a(g18
g19
g22
I11
S'C:\\Users\\jbarrett\\Charlie-master\\charlie\\stimuli\\visual\\matrix_reasoning\\M012.png'
S'C:\\Users\\jbarrett\\Charlie-master\\charlie\\stimuli\\visual\\matrix_reasoning\\M012a.png'
I1
I1
I3397
tp34
a(g18
g19
g22
I12
S'C:\\Users\\jbarrett\\Charlie-master\\charlie\\stimuli\\visual\\matrix_reasoning\\M013.png'
S'C:\\Users\\jbarrett\\Charlie-master\\charlie\\stimuli\\visual\\matrix_reasoning\\M013a.png'
I2
I2
I3155
tp35
a(g18
g19
g22
I13
S'C:\\Users\\jbarrett\\Charlie-master\\charlie\\stimuli\\visual\\matrix_reasoning\\M014.png'
S'C:\\Users\\jbarrett\\Charlie-master\\charlie\\stimuli\\visual\\matrix_reasoning\\M014a.png'
I0
I0
I3092
tp36
a(g18
g19
g22
I14
S'C:\\Users\\jbarrett\\Charlie-master\\charlie\\stimuli\\visual\\matrix_reasoning\\M015.png'
S'C:\\Users\\jbarrett\\Charlie-master\\charlie\\stimuli\\visual\\matrix_reasoning\\M015a.png'
I1
I1
I2766
tp37
a(g18
g19
g22
I15
S'C:\\Users\\jbarrett\\Charlie-master\\charlie\\stimuli\\visual\\matrix_reasoning\\M016.png'
S'C:\\Users\\jbarrett\\Charlie-master\\charlie\\stimuli\\visual\\matrix_reasoning\\M016a.png'
I3
I3
I5067
tp38
a(g18
g19
g22
I16
S'C:\\Users\\jbarrett\\Charlie-master\\charlie\\stimuli\\visual\\matrix_reasoning\\M017.png'
S'C:\\Users\\jbarrett\\Charlie-master\\charlie\\stimuli\\visual\\matrix_reasoning\\M017a.png'
I2
I4
I3032
tp39
a(g18
g19
g22
I17
S'C:\\Users\\jbarrett\\Charlie-master\\charlie\\stimuli\\visual\\matrix_reasoning\\M018.png'
S'C:\\Users\\jbarrett\\Charlie-master\\charlie\\stimuli\\visual\\matrix_reasoning\\M018a.png'
I0
I0
I4310
tp40
a(g18
g19
g22
I18
S'C:\\Users\\jbarrett\\Charlie-master\\charlie\\stimuli\\visual\\matrix_reasoning\\M019.png'
S'C:\\Users\\jbarrett\\Charlie-master\\charlie\\stimuli\\visual\\matrix_reasoning\\M019a.png'
I0
I0
I5366
tp41
a(g18
g19
g22
I19
S'C:\\Users\\jbarrett\\Charlie-master\\charlie\\stimuli\\visual\\matrix_reasoning\\M020.png'
S'C:\\Users\\jbarrett\\Charlie-master\\charlie\\stimuli\\visual\\matrix_reasoning\\M020a.png'
I3
I3
I14301
tp42
a(g18
g19
g22
I20
S'C:\\Users\\jbarrett\\Charlie-master\\charlie\\stimuli\\visual\\matrix_reasoning\\M021.png'
S'C:\\Users\\jbarrett\\Charlie-master\\charlie\\stimuli\\visual\\matrix_reasoning\\M021a.png'
I4
I4
I14402
tp43
a(g18
g19
g22
I21
S'C:\\Users\\jbarrett\\Charlie-master\\charlie\\stimuli\\visual\\matrix_reasoning\\M022.png'
S'C:\\Users\\jbarrett\\Charlie-master\\charlie\\stimuli\\visual\\matrix_reasoning\\M022a.png'
I4
I2
I5691
tp44
a(g18
g19
g22
I22
S'C:\\Users\\jbarrett\\Charlie-master\\charlie\\stimuli\\visual\\matrix_reasoning\\M023.png'
S'C:\\Users\\jbarrett\\Charlie-master\\charlie\\stimuli\\visual\\matrix_reasoning\\M023a.png'
I1
I1
I12519
tp45
a(g18
g19
g22
I23
S'C:\\Users\\jbarrett\\Charlie-master\\charlie\\stimuli\\visual\\matrix_reasoning\\M024.png'
S'C:\\Users\\jbarrett\\Charlie-master\\charlie\\stimuli\\visual\\matrix_reasoning\\M024a.png'
I1
I1
I6318
tp46
a(g18
g19
g22
I24
S'C:\\Users\\jbarrett\\Charlie-master\\charlie\\stimuli\\visual\\matrix_reasoning\\M025.png'
S'C:\\Users\\jbarrett\\Charlie-master\\charlie\\stimuli\\visual\\matrix_reasoning\\M025a.png'
I0
I0
I7904
tp47
a(g18
g19
g22
I25
S'C:\\Users\\jbarrett\\Charlie-master\\charlie\\stimuli\\visual\\matrix_reasoning\\M026.png'
S'C:\\Users\\jbarrett\\Charlie-master\\charlie\\stimuli\\visual\\matrix_reasoning\\M026a.png'
I4
I4
I16807
tp48
a(g18
g19
g22
I26
S'C:\\Users\\jbarrett\\Charlie-master\\charlie\\stimuli\\visual\\matrix_reasoning\\M027.png'
S'C:\\Users\\jbarrett\\Charlie-master\\charlie\\stimuli\\visual\\matrix_reasoning\\M027a.png'
I3
I1
I17654
tp49
a(g18
g19
g22
I27
S'C:\\Users\\jbarrett\\Charlie-master\\charlie\\stimuli\\visual\\matrix_reasoning\\M028.png'
S'C:\\Users\\jbarrett\\Charlie-master\\charlie\\stimuli\\visual\\matrix_reasoning\\M028a.png'
I2
I2
I15877
tp50
a(g18
g19
g22
I28
S'C:\\Users\\jbarrett\\Charlie-master\\charlie\\stimuli\\visual\\matrix_reasoning\\M029.png'
S'C:\\Users\\jbarrett\\Charlie-master\\charlie\\stimuli\\visual\\matrix_reasoning\\M029a.png'
I2
I4
I17860
tp51
a(g18
g19
g22
I29
S'C:\\Users\\jbarrett\\Charlie-master\\charlie\\stimuli\\visual\\matrix_reasoning\\M030.png'
S'C:\\Users\\jbarrett\\Charlie-master\\charlie\\stimuli\\visual\\matrix_reasoning\\M030a.png'
I3
I0
I33260
tp52
a(g18
g19
g22
I30
S'C:\\Users\\jbarrett\\Charlie-master\\charlie\\stimuli\\visual\\matrix_reasoning\\M031.png'
p53
S'C:\\Users\\jbarrett\\Charlie-master\\charlie\\stimuli\\visual\\matrix_reasoning\\M031a.png'
p54
I0
I2
I30160
tp55
asS'output_format'
p56
(lp57
(S'proband_id'
p58
c__builtin__
str
p59
tp60
a(S'test_name'
p61
g59
tp62
a(S'phase'
p63
g59
tp64
a(S'trialn'
p65
c__builtin__
int
p66
tp67
a(S'matrix'
p68
g59
tp69
a(S'array'
p70
g59
tp71
a(S'ans'
p72
g66
tp73
a(S'rsp'
p74
g66
tp75
a(S'rt'
p76
g66
tp77
asg58
g18
sS'filename'
p78
S'4399_matrix_reasoning.data'
p79
sS'initialised'
p80
g8
(S'\x07\xdf\x06\n\x0b\x1e\x04\x08\xe9@'
tRp81
sS'last_udated'
p82
g8
(S'\x07\xdf\x06\n\x0b\x1e\x04\x08\xe9@'
tRp83
sg61
S'matrix_reasoning'
p84
sS'directory'
p85
S'C:\\Users\\jbarrett\\Charlie-master\\charlie\\data\\raw'
p86
sS'user_id'
p87
S'sebby'
p88
sS'test_started'
p89
I01
sS'abs_filename'
p90
S'C:\\Users\\jbarrett\\Charlie-master\\charlie\\data\\raw\\4399_matrix_reasoning.data'
p91
sS'date_started'
p92
g8
(S'\x07\xdf\x06\n\x0b\x1e1\x00N '
tRp93
sS'log'
p94
(lp95
(S'2015-06-10 11:30:04.584000'
S'instance created'
p96
tp97
a(S'2015-06-10 11:30:49.031000'
S'instance updated'
p98
tp99
a(S'2015-06-10 11:30:49.040000'
S'pandas DataFrame of data created'
p100
tp101
a(S'2015-06-10 11:30:49.044000'
S'data saved as csv to C:\\Users\\jbarrett\\Charlie-master\\charlie\\data\\csv\\4399_matrix_reasoning.csv'
tp102
a(S'2015-06-10 11:30:49.054000'
g100
tp103
a(S'2015-06-10 11:31:00.617000'
g98
tp104
a(S'2015-06-10 11:31:00.625000'
g100
tp105
a(S'2015-06-10 11:31:00.628000'
S'data saved as csv to C:\\Users\\jbarrett\\Charlie-master\\charlie\\data\\csv\\4399_matrix_reasoning.csv'
tp106
a(S'2015-06-10 11:31:00.636000'
g100
tp107
a(S'2015-06-10 11:31:06.009000'
g98
tp108
a(S'2015-06-10 11:31:06.018000'
g100
tp109
a(S'2015-06-10 11:31:06.023000'
S'data saved as csv to C:\\Users\\jbarrett\\Charlie-master\\charlie\\data\\csv\\4399_matrix_reasoning.csv'
tp110
a(S'2015-06-10 11:31:06.032000'
g100
tp111
a(S'2015-06-10 11:31:09.282000'
g98
tp112
a(S'2015-06-10 11:31:09.291000'
g100
tp113
a(S'2015-06-10 11:31:09.296000'
S'data saved as csv to C:\\Users\\jbarrett\\Charlie-master\\charlie\\data\\csv\\4399_matrix_reasoning.csv'
tp114
a(S'2015-06-10 11:31:09.305000'
g100
tp115
a(S'2015-06-10 11:31:11.418000'
g98
tp116
a(S'2015-06-10 11:31:11.427000'
g100
tp117
a(S'2015-06-10 11:31:11.431000'
S'data saved as csv to C:\\Users\\jbarrett\\Charlie-master\\charlie\\data\\csv\\4399_matrix_reasoning.csv'
tp118
a(S'2015-06-10 11:31:11.441000'
g100
tp119
a(S'2015-06-10 11:31:14.137000'
g98
tp120
a(S'2015-06-10 11:31:14.146000'
g100
tp121
a(S'2015-06-10 11:31:14.150000'
S'data saved as csv to C:\\Users\\jbarrett\\Charlie-master\\charlie\\data\\csv\\4399_matrix_reasoning.csv'
tp122
a(S'2015-06-10 11:31:14.159000'
g100
tp123
a(S'2015-06-10 11:31:16.521000'
g98
tp124
a(S'2015-06-10 11:31:16.529000'
g100
tp125
a(S'2015-06-10 11:31:16.533000'
S'data saved as csv to C:\\Users\\jbarrett\\Charlie-master\\charlie\\data\\csv\\4399_matrix_reasoning.csv'
tp126
a(S'2015-06-10 11:31:16.541000'
g100
tp127
a(S'2015-06-10 11:31:19.130000'
g98
tp128
a(S'2015-06-10 11:31:19.139000'
g100
tp129
a(S'2015-06-10 11:31:19.143000'
S'data saved as csv to C:\\Users\\jbarrett\\Charlie-master\\charlie\\data\\csv\\4399_matrix_reasoning.csv'
tp130
a(S'2015-06-10 11:31:19.152000'
g100
tp131
a(S'2015-06-10 11:31:22.586000'
g98
tp132
a(S'2015-06-10 11:31:22.595000'
g100
tp133
a(S'2015-06-10 11:31:22.599000'
S'data saved as csv to C:\\Users\\jbarrett\\Charlie-master\\charlie\\data\\csv\\4399_matrix_reasoning.csv'
tp134
a(S'2015-06-10 11:31:22.606000'
g100
tp135
a(S'2015-06-10 11:31:25.882000'
g98
tp136
a(S'2015-06-10 11:31:25.892000'
g100
tp137
a(S'2015-06-10 11:31:25.896000'
S'data saved as csv to C:\\Users\\jbarrett\\Charlie-master\\charlie\\data\\csv\\4399_matrix_reasoning.csv'
tp138
a(S'2015-06-10 11:31:25.905000'
g100
tp139
a(S'2015-06-10 11:31:30.914000'
g98
tp140
a(S'2015-06-10 11:31:30.923000'
g100
tp141
a(S'2015-06-10 11:31:30.926000'
S'data saved as csv to C:\\Users\\jbarrett\\Charlie-master\\charlie\\data\\csv\\4399_matrix_reasoning.csv'
tp142
a(S'2015-06-10 11:31:30.934000'
g100
tp143
a(S'2015-06-10 11:31:33.361000'
g98
tp144
a(S'2015-06-10 11:31:33.371000'
g100
tp145
a(S'2015-06-10 11:31:33.375000'
S'data saved as csv to C:\\Users\\jbarrett\\Charlie-master\\charlie\\data\\csv\\4399_matrix_reasoning.csv'
tp146
a(S'2015-06-10 11:31:33.384000'
g100
tp147
a(S'2015-06-10 11:31:36.930000'
g98
tp148
a(S'2015-06-10 11:31:36.940000'
g100
tp149
a(S'2015-06-10 11:31:36.944000'
S'data saved as csv to C:\\Users\\jbarrett\\Charlie-master\\charlie\\data\\csv\\4399_matrix_reasoning.csv'
tp150
a(S'2015-06-10 11:31:36.951000'
g100
tp151
a(S'2015-06-10 11:31:40.248000'
g98
tp152
a(S'2015-06-10 11:31:40.255000'
g100
tp153
a(S'2015-06-10 11:31:40.258000'
S'data saved as csv to C:\\Users\\jbarrett\\Charlie-master\\charlie\\data\\csv\\4399_matrix_reasoning.csv'
tp154
a(S'2015-06-10 11:31:40.264000'
g100
tp155
a(S'2015-06-10 11:31:43.498000'
g98
tp156
a(S'2015-06-10 11:31:43.508000'
g100
tp157
a(S'2015-06-10 11:31:43.512000'
S'data saved as csv to C:\\Users\\jbarrett\\Charlie-master\\charlie\\data\\csv\\4399_matrix_reasoning.csv'
tp158
a(S'2015-06-10 11:31:43.519000'
g100
tp159
a(S'2015-06-10 11:31:46.428000'
g98
tp160
a(S'2015-06-10 11:31:46.437000'
g100
tp161
a(S'2015-06-10 11:31:46.441000'
S'data saved as csv to C:\\Users\\jbarrett\\Charlie-master\\charlie\\data\\csv\\4399_matrix_reasoning.csv'
tp162
a(S'2015-06-10 11:31:46.451000'
g100
tp163
a(S'2015-06-10 11:31:51.651000'
g98
tp164
a(S'2015-06-10 11:31:51.656000'
g100
tp165
a(S'2015-06-10 11:31:51.658000'
S'data saved as csv to C:\\Users\\jbarrett\\Charlie-master\\charlie\\data\\csv\\4399_matrix_reasoning.csv'
tp166
a(S'2015-06-10 11:31:51.662000'
g100
tp167
a(S'2015-06-10 11:31:54.831000'
g98
tp168
a(S'2015-06-10 11:31:54.838000'
g100
tp169
a(S'2015-06-10 11:31:54.841000'
S'data saved as csv to C:\\Users\\jbarrett\\Charlie-master\\charlie\\data\\csv\\4399_matrix_reasoning.csv'
tp170
a(S'2015-06-10 11:31:54.847000'
g100
tp171
a(S'2015-06-10 11:31:59.299000'
g98
tp172
a(S'2015-06-10 11:31:59.308000'
g100
tp173
a(S'2015-06-10 11:31:59.312000'
S'data saved as csv to C:\\Users\\jbarrett\\Charlie-master\\charlie\\data\\csv\\4399_matrix_reasoning.csv'
tp174
a(S'2015-06-10 11:31:59.320000'
g100
tp175
a(S'2015-06-10 11:32:04.824000'
g98
tp176
a(S'2015-06-10 11:32:04.831000'
g100
tp177
a(S'2015-06-10 11:32:04.835000'
S'data saved as csv to C:\\Users\\jbarrett\\Charlie-master\\charlie\\data\\csv\\4399_matrix_reasoning.csv'
tp178
a(S'2015-06-10 11:32:04.842000'
g100
tp179
a(S'2015-06-10 11:32:19.285000'
g98
tp180
a(S'2015-06-10 11:32:19.294000'
g100
tp181
a(S'2015-06-10 11:32:19.299000'
S'data saved as csv to C:\\Users\\jbarrett\\Charlie-master\\charlie\\data\\csv\\4399_matrix_reasoning.csv'
tp182
a(S'2015-06-10 11:32:19.307000'
g100
tp183
a(S'2015-06-10 11:32:33.853000'
g98
tp184
a(S'2015-06-10 11:32:33.860000'
g100
tp185
a(S'2015-06-10 11:32:33.863000'
S'data saved as csv to C:\\Users\\jbarrett\\Charlie-master\\charlie\\data\\csv\\4399_matrix_reasoning.csv'
tp186
a(S'2015-06-10 11:32:33.868000'
g100
tp187
a(S'2015-06-10 11:32:39.702000'
g98
tp188
a(S'2015-06-10 11:32:39.710000'
g100
tp189
a(S'2015-06-10 11:32:39.713000'
S'data saved as csv to C:\\Users\\jbarrett\\Charlie-master\\charlie\\data\\csv\\4399_matrix_reasoning.csv'
tp190
a(S'2015-06-10 11:32:39.719000'
g100
tp191
a(S'2015-06-10 11:32:52.378000'
g98
tp192
a(S'2015-06-10 11:32:52.386000'
g100
tp193
a(S'2015-06-10 11:32:52.389000'
S'data saved as csv to C:\\Users\\jbarrett\\Charlie-master\\charlie\\data\\csv\\4399_matrix_reasoning.csv'
tp194
a(S'2015-06-10 11:32:52.396000'
g100
tp195
a(S'2015-06-10 11:32:58.853000'
g98
tp196
a(S'2015-06-10 11:32:58.860000'
g100
tp197
a(S'2015-06-10 11:32:58.864000'
S'data saved as csv to C:\\Users\\jbarrett\\Charlie-master\\charlie\\data\\csv\\4399_matrix_reasoning.csv'
tp198
a(S'2015-06-10 11:32:58.870000'
g100
tp199
a(S'2015-06-10 11:33:06.919000'
g98
tp200
a(S'2015-06-10 11:33:06.930000'
g100
tp201
a(S'2015-06-10 11:33:06.934000'
S'data saved as csv to C:\\Users\\jbarrett\\Charlie-master\\charlie\\data\\csv\\4399_matrix_reasoning.csv'
tp202
a(S'2015-06-10 11:33:06.943000'
g100
tp203
a(S'2015-06-10 11:33:23.895000'
g98
tp204
a(S'2015-06-10 11:33:23.903000'
g100
tp205
a(S'2015-06-10 11:33:23.906000'
S'data saved as csv to C:\\Users\\jbarrett\\Charlie-master\\charlie\\data\\csv\\4399_matrix_reasoning.csv'
tp206
a(S'2015-06-10 11:33:23.912000'
g100
tp207
a(S'2015-06-10 11:33:41.712000'
g98
tp208
a(S'2015-06-10 11:33:41.721000'
g100
tp209
a(S'2015-06-10 11:33:41.723000'
S'data saved as csv to C:\\Users\\jbarrett\\Charlie-master\\charlie\\data\\csv\\4399_matrix_reasoning.csv'
tp210
a(S'2015-06-10 11:33:41.729000'
g100
tp211
a(S'2015-06-10 11:33:57.753000'
g98
tp212
a(S'2015-06-10 11:33:57.763000'
g100
tp213
a(S'2015-06-10 11:33:57.767000'
S'data saved as csv to C:\\Users\\jbarrett\\Charlie-master\\charlie\\data\\csv\\4399_matrix_reasoning.csv'
tp214
a(S'2015-06-10 11:33:57.774000'
g100
tp215
a(S'2015-06-10 11:34:15.777000'
g98
tp216
a(S'2015-06-10 11:34:15.788000'
g100
tp217
a(S'2015-06-10 11:34:15.792000'
S'data saved as csv to C:\\Users\\jbarrett\\Charlie-master\\charlie\\data\\csv\\4399_matrix_reasoning.csv'
tp218
a(S'2015-06-10 11:34:15.801000'
g100
tp219
a(S'2015-06-10 11:34:49.199000'
g98
tp220
a(S'2015-06-10 11:34:49.204000'
g100
tp221
a(S'2015-06-10 11:34:49.207000'
S'data saved as csv to C:\\Users\\jbarrett\\Charlie-master\\charlie\\data\\csv\\4399_matrix_reasoning.csv'
tp222
a(S'2015-06-10 11:34:49.212000'
g100
tp223
a(S'2015-06-10 11:35:19.517000'
g98
tp224
a(S'2015-06-10 11:35:19.527000'
g100
tp225
a(S'2015-06-10 11:35:19.531000'
S'data saved as csv to C:\\Users\\jbarrett\\Charlie-master\\charlie\\data\\csv\\4399_matrix_reasoning.csv'
tp226
a(S'2015-06-10 11:35:19.539000'
g100
tp227
asb.