(icharlie.tools.data
Data
p1
(dp2
S'lang'
p3
S'EN'
p4
sS'control'
p5
(lp6
sS'last_updated'
p7
cdatetime
datetime
p8
(S'\x07\xdf\x06\n\x0b\n\n\n\xcd\xa0'
tRp9
sS'last_opened'
p10
g8
(S'\x07\xdf\x06\n\x0b\x01\x10\x08\xba`'
tRp11
sS'proj_id'
p12
S'connectivity'
p13
sS'date_done'
p14
g8
(S'\x07\xdf\x06\n\x0b\n\n\n\xaax'
tRp15
sS'test_done'
p16
I01
sS'data'
p17
(lp18
(S'4399'
p19
S'cvlt2'
p20
I0
Vsquirrel
tp21
a(g19
g20
I0
Vzebra
tp22
a(g19
g20
I0
Vgiraffe
tp23
a(g19
g20
I0
Vintrusion
tp24
a(g19
g20
I0
Vsubway
tp25
a(g19
g20
I0
Vintrusion
tp26
a(g19
g20
I1
Vcabbage
tp27
a(g19
g20
I1
Vsquirrel
tp28
a(g19
g20
I1
Vbookcase
tp29
a(g19
g20
I1
Vgiraffe
tp30
a(g19
g20
I1
Vzebra
tp31
a(g19
g20
I1
Vmotorcycle
tp32
a(g19
g20
I1
Vboat
tp33
a(g19
g20
I1
Vsubway
tp34
a(g19
g20
I1
Vcabbage
tp35
a(g19
g20
I1
Vtruck
tp36
a(g19
g20
I1
Vspinach
tp37
a(g19
g20
I1
Vdesk
tp38
a(g19
g20
I2
Vcow
tp39
a(g19
g20
I2
Vsquirrel
tp40
a(g19
g20
I2
Vgiraffe
tp41
a(g19
g20
I2
Vzebra
tp42
a(g19
g20
I2
Vtruck
tp43
a(g19
g20
I2
Vspinach
tp44
a(g19
g20
I2
Vcabbage
tp45
a(g19
g20
I2
Vsubway
tp46
a(g19
g20
I2
Vmotorcycle
tp47
a(g19
g20
I2
Vboat
tp48
a(g19
g20
I2
Vintrusion
tp49
a(g19
g20
I2
Vintrusion
tp50
a(g19
g20
I2
Vdesk
tp51
a(g19
g20
I2
Vintrusion
tp52
a(g19
g20
I2
Vbookcase
tp53
a(g19
g20
I2
Vonion
tp54
a(g19
g20
I3
Vtruck
tp55
a(g19
g20
I3
Vmotorcycle
tp56
a(g19
g20
I3
Vboat
tp57
a(g19
g20
I3
Vcow
tp58
a(g19
g20
I3
Vzebra
tp59
a(g19
g20
I3
Vgiraffe
tp60
a(g19
g20
I3
Vsquirrel
tp61
a(g19
g20
I3
Vspinach
tp62
a(g19
g20
I3
Vcabbage
tp63
a(g19
g20
I3
Vsubway
tp64
a(g19
g20
I3
Vonion
tp65
a(g19
g20
I3
Vintrusion
tp66
a(g19
g20
I3
Vintrusion
tp67
a(g19
g20
I3
Vintrusion
tp68
a(g19
g20
I4
Vcabbage
tp69
a(g19
g20
I4
Vlamp
tp70
a(g19
g20
I4
Vcelery
tp71
a(g19
g20
I4
Vtruck
tp72
a(g19
g20
I4
Vzebra
tp73
a(g19
g20
I4
Vonion
tp74
a(g19
g20
I4
Vspinach
tp75
a(g19
g20
I4
Vgiraffe
tp76
a(g19
g20
I4
Vintrusion
tp77
a(g19
g20
I4
Vcabinet
tp78
a(g19
g20
I4
Vcow
tp79
a(g19
g20
I4
Vsquirrel
tp80
a(g19
g20
I4
Vzebra
tp81
a(g19
g20
I4
Vgiraffe
tp82
a(g19
g20
I4
Vtruck
tp83
a(g19
g20
I4
Vmotorcycle
tp84
a(g19
g20
I4
Vboat
tp85
a(g19
g20
I4
Vcabbage
tp86
a(g19
g20
I4
Vintrusion
tp87
a(g19
g20
I4
Vdesk
tp88
asS'output_format'
p89
(lp90
(S'proband_id'
p91
c__builtin__
str
p92
tp93
a(S'test_name'
p94
g92
tp95
a(S'trialn'
p96
c__builtin__
int
p97
tp98
a(S'rsp'
p99
g92
tp100
asg91
g19
sS'filename'
p101
S'4399_cvlt2.data'
p102
sS'initialised'
p103
g8
(S'\x07\xdf\x06\n\x0b\x01\x10\x08\xba`'
tRp104
sS'last_udated'
p105
g8
(S'\x07\xdf\x06\n\x0b\x01\x10\x08\xba`'
tRp106
sg94
S'cvlt2'
p107
sS'directory'
p108
S'C:\\Users\\jbarrett\\Charlie-master\\charlie\\data\\raw'
p109
sS'user_id'
p110
S'sebby'
p111
sS'test_started'
p112
I01
sS'abs_filename'
p113
S'C:\\Users\\jbarrett\\Charlie-master\\charlie\\data\\raw\\4399_cvlt2.data'
p114
sS'date_started'
p115
g8
(S'\x07\xdf\x06\n\x0b\x03#\x0c\x8e\xd8'
tRp116
sS'log'
p117
(lp118
(S'2015-06-10 11:01:16.572000'
S'instance created'
p119
tp120
a(S'2015-06-10 11:03:35.833000'
S'instance updated'
p121
tp122
a(S'2015-06-10 11:03:35.838000'
S'pandas DataFrame of data created'
p123
tp124
a(S'2015-06-10 11:03:35.842000'
S'data saved as csv to C:\\Users\\jbarrett\\Charlie-master\\charlie\\data\\csv\\4399_cvlt2.csv'
tp125
a(S'2015-06-10 11:04:22.064000'
g121
tp126
a(S'2015-06-10 11:04:22.069000'
g123
tp127
a(S'2015-06-10 11:04:22.073000'
S'data saved as csv to C:\\Users\\jbarrett\\Charlie-master\\charlie\\data\\csv\\4399_cvlt2.csv'
tp128
a(S'2015-06-10 11:05:15.643000'
g121
tp129
a(S'2015-06-10 11:05:15.647000'
g123
tp130
a(S'2015-06-10 11:05:15.651000'
S'data saved as csv to C:\\Users\\jbarrett\\Charlie-master\\charlie\\data\\csv\\4399_cvlt2.csv'
tp131
a(S'2015-06-10 11:05:59.167000'
g121
tp132
a(S'2015-06-10 11:05:59.172000'
g123
tp133
a(S'2015-06-10 11:05:59.176000'
S'data saved as csv to C:\\Users\\jbarrett\\Charlie-master\\charlie\\data\\csv\\4399_cvlt2.csv'
tp134
a(S'2015-06-10 11:06:38.801000'
g121
tp135
a(S'2015-06-10 11:06:38.806000'
g123
tp136
a(S'2015-06-10 11:06:38.810000'
S'data saved as csv to C:\\Users\\jbarrett\\Charlie-master\\charlie\\data\\csv\\4399_cvlt2.csv'
tp137
a(S'2015-06-10 11:07:31.731000'
g121
tp138
a(S'2015-06-10 11:07:31.736000'
g123
tp139
a(S'2015-06-10 11:07:31.740000'
S'data saved as csv to C:\\Users\\jbarrett\\Charlie-master\\charlie\\data\\csv\\4399_cvlt2.csv'
tp140
a(S'2015-06-10 11:08:13.213000'
g121
tp141
a(S'2015-06-10 11:08:13.218000'
g123
tp142
a(S'2015-06-10 11:08:13.222000'
S'data saved as csv to C:\\Users\\jbarrett\\Charlie-master\\charlie\\data\\csv\\4399_cvlt2.csv'
tp143
a(S'2015-06-10 11:08:57.683000'
g121
tp144
a(S'2015-06-10 11:08:57.688000'
g123
tp145
a(S'2015-06-10 11:08:57.692000'
S'data saved as csv to C:\\Users\\jbarrett\\Charlie-master\\charlie\\data\\csv\\4399_cvlt2.csv'
tp146
a(S'2015-06-10 11:10:10.699000'
g121
tp147
a(S'2015-06-10 11:10:10.704000'
g123
tp148
a(S'2015-06-10 11:10:10.708000'
S'data saved as csv to C:\\Users\\jbarrett\\Charlie-master\\charlie\\data\\csv\\4399_cvlt2.csv'
tp149
asb.