(icharlie.tools.data
Data
p1
(dp2
S'lang'
p3
S'EN'
p4
sS'control'
p5
(lp6
sS'last_updated'
p7
cdatetime
datetime
p8
(S'\x07\xdf\x06\x0c\x10\x1a\x05\x05\xff('
tRp9
sS'last_opened'
p10
g8
(S'\x07\xdf\x06\x0c\x10\x16 \t\x1f\xf0'
tRp11
sS'proj_id'
p12
S'connectivity'
p13
sS'date_done'
p14
NsS'test_done'
p15
I01
sS'data'
p16
(lp17
(S'4401'
p18
S'ctrails'
p19
S'number'
p20
S'practice'
p21
I0
I1
S'Correct'
p22
I5850
I12326
tp23
a(g18
g19
g20
g21
I1
I2
g22
I1310
I12326
tp24
a(g18
g19
g20
g21
I2
I3
g22
I940
I12326
tp25
a(g18
g19
g20
g21
I3
I4
g22
I700
I12326
tp26
a(g18
g19
g20
g21
I4
I5
g22
I701
I12326
tp27
a(g18
g19
g20
g21
I5
I6
g22
I1120
I12326
tp28
a(g18
g19
g20
g21
I6
I7
g22
I850
I12326
tp29
a(g18
g19
g20
g21
I7
I8
g22
I810
I12326
tp30
a(g18
g19
g20
S'test'
p31
I0
I1
g22
I2070
I40237
tp32
a(g18
g19
g20
g31
I1
I2
g22
I1630
I40237
tp33
a(g18
g19
g20
g31
I2
I4
S'Incorrect'
p34
I2310
I40237
tp35
a(g18
g19
g20
g31
I3
I3
g22
I2120
I40237
tp36
a(g18
g19
g20
g31
I4
I4
g22
I1060
I40237
tp37
a(g18
g19
g20
g31
I5
I5
g22
I2740
I40237
tp38
a(g18
g19
g20
g31
I6
I6
g22
I1540
I40237
tp39
a(g18
g19
g20
g31
I7
I7
g22
I1050
I40237
tp40
a(g18
g19
g20
g31
I8
I8
g22
I490
I40237
tp41
a(g18
g19
g20
g31
I9
I9
g22
I1710
I40237
tp42
a(g18
g19
g20
g31
I10
I10
g22
I730
I40237
tp43
a(g18
g19
g20
g31
I11
I11
g22
I780
I40237
tp44
a(g18
g19
g20
g31
I12
I12
g22
I3291
I40237
tp45
a(g18
g19
g20
g31
I13
I13
g22
I960
I40237
tp46
a(g18
g19
g20
g31
I14
I14
g22
I800
I40237
tp47
a(g18
g19
g20
g31
I15
I15
g22
I430
I40237
tp48
a(g18
g19
g20
g31
I16
I16
g22
I690
I40237
tp49
a(g18
g19
g20
g31
I17
I17
g22
I710
I40237
tp50
a(g18
g19
g20
g31
I18
I18
g22
I3420
I40237
tp51
a(g18
g19
g20
g31
I19
I19
g22
I3410
I40237
tp52
a(g18
g19
g20
g31
I20
I20
g22
I530
I40237
tp53
a(g18
g19
g20
g31
I21
I21
g22
I390
I40237
tp54
a(g18
g19
g20
g31
I22
I22
g22
I2400
I40237
tp55
a(g18
g19
g20
g31
I23
I23
g22
I900
I40237
tp56
a(g18
g19
g20
g31
I24
I24
g22
I1751
I40237
tp57
a(g18
g19
g20
g31
I25
I25
g22
I730
I40237
tp58
a(g18
g19
S'letter'
p59
g21
I0
S'a'
g22
I2320
I7815
tp60
a(g18
g19
g59
g21
I1
S'b'
g22
I800
I7815
tp61
a(g18
g19
g59
g21
I2
S'c'
g22
I640
I7815
tp62
a(g18
g19
g59
g21
I3
S'd'
g22
I1030
I7815
tp63
a(g18
g19
g59
g21
I4
S'e'
g22
I760
I7815
tp64
a(g18
g19
g59
g21
I5
S'f'
g22
I760
I7815
tp65
a(g18
g19
g59
g21
I6
S'g'
g22
I720
I7815
tp66
a(g18
g19
g59
g21
I7
S'h'
g22
I740
I7815
tp67
a(g18
g19
g59
g31
I0
S'a'
g22
I3590
I34968
tp68
a(g18
g19
g59
g31
I1
S'b'
g22
I2090
I34968
tp69
a(g18
g19
g59
g31
I2
S'c'
g22
I1020
I34968
tp70
a(g18
g19
g59
g31
I3
S'e'
g34
I800
I34968
tp71
a(g18
g19
g59
g31
I4
S'd'
g22
I3490
I34968
tp72
a(g18
g19
g59
g31
I5
S'e'
g22
I1050
I34968
tp73
a(g18
g19
g59
g31
I6
S'f'
g22
I691
I34968
tp74
a(g18
g19
g59
g31
I7
S'g'
g22
I1980
I34968
tp75
a(g18
g19
g59
g31
I8
S'h'
g22
I1800
I34968
tp76
a(g18
g19
g59
g31
I9
S'i'
g22
I830
I34968
tp77
a(g18
g19
g59
g31
I10
S'j'
g22
I910
I34968
tp78
a(g18
g19
g59
g31
I11
S'k'
g22
I1270
I34968
tp79
a(g18
g19
g59
g31
I12
S'l'
g22
I3080
I34968
tp80
a(g18
g19
g59
g31
I13
S'm'
g22
I880
I34968
tp81
a(g18
g19
g59
g31
I14
S'n'
g22
I1930
I34968
tp82
a(g18
g19
g59
g31
I15
S'o'
g22
I610
I34968
tp83
a(g18
g19
g59
g31
I16
S'p'
g22
I1210
I34968
tp84
a(g18
g19
g59
g31
I17
S'q'
g22
I910
I34968
tp85
a(g18
g19
g59
g31
I18
S'r'
g22
I1070
I34968
tp86
a(g18
g19
g59
g31
I19
S's'
g22
I681
I34968
tp87
a(g18
g19
g59
g31
I20
S't'
g22
I580
I34968
tp88
a(g18
g19
g59
g31
I21
S'u'
g22
I740
I34968
tp89
a(g18
g19
g59
g31
I22
S'v'
g22
I780
I34968
tp90
a(g18
g19
g59
g31
I23
S'w'
g22
I650
I34968
tp91
a(g18
g19
g59
g31
I24
S'x'
g22
I1200
I34968
tp92
a(g18
g19
g59
g31
I25
S'y'
g22
I1010
I34968
tp93
a(g18
g19
S'number-letter'
p94
g21
I0
I1
g22
I3480
I11091
tp95
a(g18
g19
g94
g21
I1
S'a'
g22
I1400
I11091
tp96
a(g18
g19
g94
g21
I2
I2
g22
I1250
I11091
tp97
a(g18
g19
g94
g21
I3
S'b'
g22
I1060
I11091
tp98
a(g18
g19
g94
g21
I4
I3
g22
I1180
I11091
tp99
a(g18
g19
g94
g21
I5
S'c'
g22
I920
I11091
tp100
a(g18
g19
g94
g21
I6
I4
g22
I840
I11091
tp101
a(g18
g19
g94
g21
I7
S'd'
g22
I910
I11091
tp102
a(g18
g19
g94
g31
I0
I1
g22
I2490
I51576
tp103
a(g18
g19
g94
g31
I1
S'a'
g22
I890
I51576
tp104
a(g18
g19
g94
g31
I2
I2
g22
I910
I51576
tp105
a(g18
g19
g94
g31
I3
S'b'
g22
I2310
I51576
tp106
a(g18
g19
g94
g31
I4
I3
g22
I2360
I51576
tp107
a(g18
g19
g94
g31
I5
S'c'
g22
I790
I51576
tp108
a(g18
g19
g94
g31
I6
I4
g22
I720
I51576
tp109
a(g18
g19
g94
g31
I7
S'd'
g22
I750
I51576
tp110
a(g18
g19
g94
g31
I8
I5
g22
I1320
I51576
tp111
a(g18
g19
g94
g31
I9
S'e'
g22
I1341
I51576
tp112
a(g18
g19
g94
g31
I10
I6
g22
I2620
I51576
tp113
a(g18
g19
g94
g31
I11
S'f'
g22
I2730
I51576
tp114
a(g18
g19
g94
g31
I12
I7
g22
I1360
I51576
tp115
a(g18
g19
g94
g31
I13
S'g'
g22
I920
I51576
tp116
a(g18
g19
g94
g31
I14
I8
g22
I3620
I51576
tp117
a(g18
g19
g94
g31
I15
S'h'
g22
I1080
I51576
tp118
a(g18
g19
g94
g31
I16
I9
g22
I3860
I51576
tp119
a(g18
g19
g94
g31
I17
S'i'
g22
I4001
I51576
tp120
a(g18
g19
g94
g31
I18
I10
g22
I5420
I51576
tp121
a(g18
g19
g94
g31
I19
S'j'
g22
I2110
I51576
tp122
a(g18
g19
g94
g31
I20
I11
g22
I2460
I51576
tp123
a(g18
g19
g94
g31
I21
S'k'
g22
I700
I51576
tp124
a(g18
g19
g94
g31
I22
I12
g22
I2070
I51576
tp125
a(g18
g19
g94
g31
I23
S'l'
g22
I941
I51576
tp126
a(g18
g19
g94
g31
I24
I13
g22
I3670
I51576
tp127
asS'output_format'
p128
(lp129
(S'proband_id'
p130
c__builtin__
str
p131
tp132
a(S'test_name'
p133
g131
tp134
a(S'phase'
p135
g131
tp136
a(S'trial_type'
p137
g131
tp138
a(S'n'
c__builtin__
int
p139
tp140
a(S'rsp'
p141
g131
tp142
a(S'corr'
p143
g131
tp144
a(S'rt'
p145
g139
tp146
a(S'total_time'
p147
g139
tp148
asg130
g18
sS'filename'
p149
S'4401_ctrails.data'
p150
sS'initialised'
p151
g8
(S'\x07\xdf\x06\x0c\x10\x16 \t\x1f\xf0'
tRp152
sS'last_udated'
p153
g8
(S'\x07\xdf\x06\x0c\x10\x16 \t\x1f\xf0'
tRp154
sg133
S'ctrails'
p155
sS'directory'
p156
S'C:\\Users\\Jbarrett\\Charlie\\charlie\\data\\raw'
p157
sS'user_id'
p158
S'jbarrett'
p159
sS'test_started'
p160
I01
sS'abs_filename'
p161
S'C:\\Users\\Jbarrett\\Charlie\\charlie\\data\\raw\\4401_ctrails.data'
p162
sS'date_started'
p163
g8
(S'\x07\xdf\x06\x0c\x10\x164\x02\xb7P'
tRp164
sS'log'
p165
(lp166
(S'2015-06-12 16:22:32.598000'
S'instance created'
p167
tp168
a(S'2015-06-12 16:22:52.188000'
S'instance updated'
p169
tp170
a(S'2015-06-12 16:22:52.198000'
S'pandas DataFrame of data created'
p171
tp172
a(S'2015-06-12 16:22:52.202000'
S'data saved as csv to C:\\Users\\Jbarrett\\Charlie\\charlie\\data\\csv\\4401_ctrails.csv'
tp173
a(S'2015-06-12 16:23:42.902000'
g169
tp174
a(S'2015-06-12 16:23:42.912000'
g171
tp175
a(S'2015-06-12 16:23:42.916000'
S'data saved as csv to C:\\Users\\Jbarrett\\Charlie\\charlie\\data\\csv\\4401_ctrails.csv'
tp176
a(S'2015-06-12 16:23:54.972000'
g169
tp177
a(S'2015-06-12 16:23:54.982000'
g171
tp178
a(S'2015-06-12 16:23:54.987000'
S'data saved as csv to C:\\Users\\Jbarrett\\Charlie\\charlie\\data\\csv\\4401_ctrails.csv'
tp179
a(S'2015-06-12 16:24:39.207000'
g169
tp180
a(S'2015-06-12 16:24:39.213000'
g171
tp181
a(S'2015-06-12 16:24:39.216000'
S'data saved as csv to C:\\Users\\Jbarrett\\Charlie\\charlie\\data\\csv\\4401_ctrails.csv'
tp182
a(S'2015-06-12 16:25:04.332000'
g169
tp183
a(S'2015-06-12 16:25:04.343000'
g171
tp184
a(S'2015-06-12 16:25:04.347000'
S'data saved as csv to C:\\Users\\Jbarrett\\Charlie\\charlie\\data\\csv\\4401_ctrails.csv'
tp185
a(S'2015-06-12 16:26:05.377000'
g169
tp186
a(S'2015-06-12 16:26:05.388000'
g171
tp187
a(S'2015-06-12 16:26:05.393000'
S'data saved as csv to C:\\Users\\Jbarrett\\Charlie\\charlie\\data\\csv\\4401_ctrails.csv'
tp188
asb.