(icharlie.tools.data
Data
p1
(dp2
S'lang'
p3
S'EN'
p4
sS'control'
p5
(lp6
sS'last_updated'
p7
cdatetime
datetime
p8
(S'\x07\xdf\x06\x0f\t1/\x0e8\xa0'
tRp9
sS'last_opened'
p10
g8
(S'\x07\xdf\x06\x0f\t-\n\x02\xce\xc0'
tRp11
sS'proj_id'
p12
S'connectivity'
p13
sS'date_done'
p14
NsS'test_done'
p15
I01
sS'data'
p16
(lp17
(S'4402'
p18
S'ctrails'
p19
S'number'
p20
S'practice'
p21
I0
I1
S'Correct'
p22
I4680
I12933
tp23
a(g18
g19
g20
g21
I1
I2
g22
I1990
I12933
tp24
a(g18
g19
g20
g21
I2
I3
g22
I1720
I12933
tp25
a(g18
g19
g20
g21
I3
I4
g22
I890
I12933
tp26
a(g18
g19
g20
g21
I4
I5
g22
I920
I12933
tp27
a(g18
g19
g20
g21
I5
I6
g22
I880
I12933
tp28
a(g18
g19
g20
g21
I6
I7
g22
I1070
I12933
tp29
a(g18
g19
g20
g21
I7
I8
g22
I740
I12933
tp30
a(g18
g19
g20
S'test'
p31
I0
I1
g22
I3220
I39786
tp32
a(g18
g19
g20
g31
I1
I2
g22
I2940
I39786
tp33
a(g18
g19
g20
g31
I2
I3
g22
I2560
I39786
tp34
a(g18
g19
g20
g31
I3
I4
g22
I1111
I39786
tp35
a(g18
g19
g20
g31
I4
I5
g22
I1330
I39786
tp36
a(g18
g19
g20
g31
I5
I6
g22
I1280
I39786
tp37
a(g18
g19
g20
g31
I6
I7
g22
I870
I39786
tp38
a(g18
g19
g20
g31
I7
I8
g22
I840
I39786
tp39
a(g18
g19
g20
g31
I8
I9
g22
I1420
I39786
tp40
a(g18
g19
g20
g31
I9
I10
g22
I1200
I39786
tp41
a(g18
g19
g20
g31
I10
I11
g22
I2270
I39786
tp42
a(g18
g19
g20
g31
I11
I12
g22
I980
I39786
tp43
a(g18
g19
g20
g31
I12
I13
g22
I1470
I39786
tp44
a(g18
g19
g20
g31
I13
I14
g22
I3100
I39786
tp45
a(g18
g19
g20
g31
I14
I15
g22
I540
I39786
tp46
a(g18
g19
g20
g31
I15
I16
g22
I770
I39786
tp47
a(g18
g19
g20
g31
I16
I17
g22
I2271
I39786
tp48
a(g18
g19
g20
g31
I17
I18
g22
I1640
I39786
tp49
a(g18
g19
g20
g31
I18
I19
g22
I860
I39786
tp50
a(g18
g19
g20
g31
I19
I20
g22
I3710
I39786
tp51
a(g18
g19
g20
g31
I20
I21
g22
I870
I39786
tp52
a(g18
g19
g20
g31
I21
I22
g22
I1250
I39786
tp53
a(g18
g19
g20
g31
I22
I23
g22
I850
I39786
tp54
a(g18
g19
g20
g31
I23
I24
g22
I1450
I39786
tp55
a(g18
g19
g20
g31
I24
I25
g22
I870
I39786
tp56
a(g18
g19
S'letter'
p57
g21
I0
S'a'
g22
I8810
I15805
tp58
a(g18
g19
g57
g21
I1
S'b'
g22
I890
I15805
tp59
a(g18
g19
g57
g21
I2
S'c'
g22
I1030
I15805
tp60
a(g18
g19
g57
g21
I3
S'd'
g22
I740
I15805
tp61
a(g18
g19
g57
g21
I4
S'e'
g22
I870
I15805
tp62
a(g18
g19
g57
g21
I5
S'f'
g22
I880
I15805
tp63
a(g18
g19
g57
g21
I6
S'g'
g22
I1210
I15805
tp64
a(g18
g19
g57
g21
I7
S'h'
g22
I1330
I15805
tp65
a(g18
g19
g57
g31
I0
S'a'
g22
I1550
I40684
tp66
a(g18
g19
g57
g31
I1
S'b'
g22
I2340
I40684
tp67
a(g18
g19
g57
g31
I2
S'c'
g22
I1410
I40684
tp68
a(g18
g19
g57
g31
I3
S'd'
g22
I1590
I40684
tp69
a(g18
g19
g57
g31
I4
S'e'
g22
I1620
I40684
tp70
a(g18
g19
g57
g31
I5
S'f'
g22
I861
I40684
tp71
a(g18
g19
g57
g31
I6
S'g'
g22
I1560
I40684
tp72
a(g18
g19
g57
g31
I7
S'h'
g22
I4530
I40684
tp73
a(g18
g19
g57
g31
I8
S'l'
S'Incorrect'
p74
I610
I40684
tp75
a(g18
g19
g57
g31
I9
S'l'
g74
I1570
I40684
tp76
a(g18
g19
g57
g31
I10
S'i'
g22
I4010
I40684
tp77
a(g18
g19
g57
g31
I11
S'j'
g22
I2760
I40684
tp78
a(g18
g19
g57
g31
I12
S'k'
g22
I1400
I40684
tp79
a(g18
g19
g57
g31
I13
S'l'
g22
I1971
I40684
tp80
a(g18
g19
g57
g31
I14
S'm'
g22
I1590
I40684
tp81
a(g18
g19
g57
g31
I15
S'n'
g22
I900
I40684
tp82
a(g18
g19
g57
g31
I16
S'o'
g22
I780
I40684
tp83
a(g18
g19
g57
g31
I17
S'p'
g22
I1300
I40684
tp84
a(g18
g19
g57
g31
I18
S'q'
g22
I1530
I40684
tp85
a(g18
g19
g57
g31
I19
S'r'
g22
I870
I40684
tp86
a(g18
g19
g57
g31
I20
S's'
g22
I890
I40684
tp87
a(g18
g19
g57
g31
I21
S't'
g22
I710
I40684
tp88
a(g18
g19
g57
g31
I22
S'u'
g22
I650
I40684
tp89
a(g18
g19
g57
g31
I23
S'v'
g22
I850
I40684
tp90
a(g18
g19
g57
g31
I24
S'w'
g22
I540
I40684
tp91
a(g18
g19
g57
g31
I25
S'x'
g22
I1140
I40684
tp92
a(g18
g19
g57
g31
I26
S'y'
g22
I1030
I40684
tp93
a(g18
g19
S'number-letter'
p94
g21
I0
I1
g22
I4320
I12736
tp95
a(g18
g19
g94
g21
I1
S'a'
g22
I1271
I12736
tp96
a(g18
g19
g94
g21
I2
I2
g22
I1120
I12736
tp97
a(g18
g19
g94
g21
I3
S'b'
g22
I1040
I12736
tp98
a(g18
g19
g94
g21
I4
I3
g22
I1390
I12736
tp99
a(g18
g19
g94
g21
I5
S'c'
g22
I1020
I12736
tp100
a(g18
g19
g94
g21
I6
I4
g22
I1610
I12736
tp101
a(g18
g19
g94
g21
I7
S'd'
g22
I920
I12736
tp102
a(g18
g19
g94
g31
I0
I1
g22
I5791
I93043
tp103
a(g18
g19
g94
g31
I1
S'a'
g22
I580
I93043
tp104
a(g18
g19
g94
g31
I2
I2
g22
I1840
I93043
tp105
a(g18
g19
g94
g31
I3
S'b'
g22
I7020
I93043
tp106
a(g18
g19
g94
g31
I4
I3
g22
I2270
I93043
tp107
a(g18
g19
g94
g31
I5
S'c'
g22
I3261
I93043
tp108
a(g18
g19
g94
g31
I6
I4
g22
I1120
I93043
tp109
a(g18
g19
g94
g31
I7
S'd'
g22
I1330
I93043
tp110
a(g18
g19
g94
g31
I8
I5
g22
I3100
I93043
tp111
a(g18
g19
g94
g31
I9
S'e'
g22
I1470
I93043
tp112
a(g18
g19
g94
g31
I10
S'f'
g74
I5090
I93043
tp113
a(g18
g19
g94
g31
I11
I7
g74
I1180
I93043
tp114
a(g18
g19
g94
g31
I12
I6
g22
I4781
I93043
tp115
a(g18
g19
g94
g31
I13
S'f'
g22
I1080
I93043
tp116
a(g18
g19
g94
g31
I14
I7
g22
I1210
I93043
tp117
a(g18
g19
g94
g31
I15
S'g'
g22
I2570
I93043
tp118
a(g18
g19
g94
g31
I16
I8
g22
I3750
I93043
tp119
a(g18
g19
g94
g31
I17
S'h'
g22
I1550
I93043
tp120
a(g18
g19
g94
g31
I18
I9
g22
I1990
I93043
tp121
a(g18
g19
g94
g31
I19
S'i'
g22
I1980
I93043
tp122
a(g18
g19
g94
g31
I20
S'j'
g74
I1871
I93043
tp123
a(g18
g19
g94
g31
I21
I10
g22
I7630
I93043
tp124
a(g18
g19
g94
g31
I22
S'k'
g74
I6440
I93043
tp125
a(g18
g19
g94
g31
I23
S'j'
g22
I5581
I93043
tp126
a(g18
g19
g94
g31
I24
I11
g22
I7330
I93043
tp127
a(g18
g19
g94
g31
I25
S'k'
g22
I4410
I93043
tp128
a(g18
g19
g94
g31
I26
I12
g22
I2321
I93043
tp129
a(g18
g19
g94
g31
I27
S'l'
g22
I1560
I93043
tp130
a(g18
g19
g94
g31
I28
I13
g22
I2810
I93043
tp131
asS'output_format'
p132
(lp133
(S'proband_id'
p134
c__builtin__
str
p135
tp136
a(S'test_name'
p137
g135
tp138
a(S'phase'
p139
g135
tp140
a(S'trial_type'
p141
g135
tp142
a(S'n'
c__builtin__
int
p143
tp144
a(S'rsp'
p145
g135
tp146
a(S'corr'
p147
g135
tp148
a(S'rt'
p149
g143
tp150
a(S'total_time'
p151
g143
tp152
asg134
g18
sS'filename'
p153
S'4402_ctrails.data'
p154
sS'initialised'
p155
g8
(S'\x07\xdf\x06\x0f\t-\n\x02\xce\xc0'
tRp156
sS'last_udated'
p157
g8
(S'\x07\xdf\x06\x0f\t-\n\x02\xce\xc0'
tRp158
sg137
S'ctrails'
p159
sS'directory'
p160
S'C:\\Users\\Jbarrett\\Charlie\\charlie\\data\\raw'
p161
sS'user_id'
p162
S'jbarrett'
p163
sS'test_started'
p164
I01
sS'abs_filename'
p165
S'C:\\Users\\Jbarrett\\Charlie\\charlie\\data\\raw\\4402_ctrails.data'
p166
sS'date_started'
p167
g8
(S'\x07\xdf\x06\x0f\t-%\x0e\xcd\x10'
tRp168
sS'log'
p169
(lp170
(S'2015-06-15 09:45:10.184000'
S'instance created'
p171
tp172
a(S'2015-06-15 09:45:37.980000'
S'instance updated'
p173
tp174
a(S'2015-06-15 09:45:37.989000'
S'pandas DataFrame of data created'
p175
tp176
a(S'2015-06-15 09:45:37.994000'
S'data saved as csv to C:\\Users\\Jbarrett\\Charlie\\charlie\\data\\csv\\4402_ctrails.csv'
tp177
a(S'2015-06-15 09:46:26.147000'
g173
tp178
a(S'2015-06-15 09:46:26.156000'
g175
tp179
a(S'2015-06-15 09:46:26.160000'
S'data saved as csv to C:\\Users\\Jbarrett\\Charlie\\charlie\\data\\csv\\4402_ctrails.csv'
tp180
a(S'2015-06-15 09:46:47.586000'
g173
tp181
a(S'2015-06-15 09:46:47.596000'
g175
tp182
a(S'2015-06-15 09:46:47.600000'
S'data saved as csv to C:\\Users\\Jbarrett\\Charlie\\charlie\\data\\csv\\4402_ctrails.csv'
tp183
a(S'2015-06-15 09:47:37.447000'
g173
tp184
a(S'2015-06-15 09:47:37.457000'
g175
tp185
a(S'2015-06-15 09:47:37.461000'
S'data saved as csv to C:\\Users\\Jbarrett\\Charlie\\charlie\\data\\csv\\4402_ctrails.csv'
tp186
a(S'2015-06-15 09:48:06.447000'
g173
tp187
a(S'2015-06-15 09:48:06.457000'
g175
tp188
a(S'2015-06-15 09:48:06.462000'
S'data saved as csv to C:\\Users\\Jbarrett\\Charlie\\charlie\\data\\csv\\4402_ctrails.csv'
tp189
a(S'2015-06-15 09:49:47.914000'
g173
tp190
a(S'2015-06-15 09:49:47.925000'
g175
tp191
a(S'2015-06-15 09:49:47.931000'
S'data saved as csv to C:\\Users\\Jbarrett\\Charlie\\charlie\\data\\csv\\4402_ctrails.csv'
tp192
asb.