(icharlie.tools.data
Data
p1
(dp2
S'lang'
p3
S'EN'
p4
sS'control'
p5
(lp6
sS'last_updated'
p7
cdatetime
datetime
p8
(S'\x07\xdf\x06\x10\x0b3\x15\x05\x99\x98'
tRp9
sS'last_opened'
p10
g8
(S'\x07\xdf\x06\x10\x0b.\x07\x02x\xd0'
tRp11
sS'proj_id'
p12
S'connectivity'
p13
sS'date_done'
p14
NsS'test_done'
p15
I01
sS'data'
p16
(lp17
(S'4403'
p18
S'pcet'
p19
S'practice'
p20
I0
NI2
I2
I2
I2
S'C:\\Users\\Jbarrett\\Charlie\\charlie\\stimuli\\visual\\pcet\\000.png'
S'C:\\Users\\Jbarrett\\Charlie\\charlie\\stimuli\\visual\\pcet\\000.png'
S'C:\\Users\\Jbarrett\\Charlie\\charlie\\stimuli\\visual\\pcet\\111.png'
S'C:\\Users\\Jbarrett\\Charlie\\charlie\\stimuli\\visual\\pcet\\000.png'
I2
I9534
tp21
a(g18
g19
S'test'
p22
I0
S'thickness'
p23
I3
NNI1
S'C:\\Users\\Jbarrett\\Charlie\\charlie\\stimuli\\visual\\pcet\\010.png'
S'C:\\Users\\Jbarrett\\Charlie\\charlie\\stimuli\\visual\\pcet\\000.png'
S'C:\\Users\\Jbarrett\\Charlie\\charlie\\stimuli\\visual\\pcet\\001.png'
S'C:\\Users\\Jbarrett\\Charlie\\charlie\\stimuli\\visual\\pcet\\100.png'
I0
I10440
tp24
a(g18
g19
g22
I1
g23
I2
NNI0
S'C:\\Users\\Jbarrett\\Charlie\\charlie\\stimuli\\visual\\pcet\\110.png'
S'C:\\Users\\Jbarrett\\Charlie\\charlie\\stimuli\\visual\\pcet\\111.png'
S'C:\\Users\\Jbarrett\\Charlie\\charlie\\stimuli\\visual\\pcet\\010.png'
S'C:\\Users\\Jbarrett\\Charlie\\charlie\\stimuli\\visual\\pcet\\100.png'
I3
I16381
tp25
a(g18
g19
g22
I2
g23
I0
NNI3
S'C:\\Users\\Jbarrett\\Charlie\\charlie\\stimuli\\visual\\pcet\\010.png'
S'C:\\Users\\Jbarrett\\Charlie\\charlie\\stimuli\\visual\\pcet\\111.png'
S'C:\\Users\\Jbarrett\\Charlie\\charlie\\stimuli\\visual\\pcet\\100.png'
S'C:\\Users\\Jbarrett\\Charlie\\charlie\\stimuli\\visual\\pcet\\110.png'
I2
I3361
tp26
a(g18
g19
g22
I3
g23
I3
NNI1
S'C:\\Users\\Jbarrett\\Charlie\\charlie\\stimuli\\visual\\pcet\\000.png'
S'C:\\Users\\Jbarrett\\Charlie\\charlie\\stimuli\\visual\\pcet\\010.png'
S'C:\\Users\\Jbarrett\\Charlie\\charlie\\stimuli\\visual\\pcet\\011.png'
S'C:\\Users\\Jbarrett\\Charlie\\charlie\\stimuli\\visual\\pcet\\110.png'
I0
I3190
tp27
a(g18
g19
g22
I4
g23
I0
NNI3
S'C:\\Users\\Jbarrett\\Charlie\\charlie\\stimuli\\visual\\pcet\\011.png'
S'C:\\Users\\Jbarrett\\Charlie\\charlie\\stimuli\\visual\\pcet\\110.png'
S'C:\\Users\\Jbarrett\\Charlie\\charlie\\stimuli\\visual\\pcet\\101.png'
S'C:\\Users\\Jbarrett\\Charlie\\charlie\\stimuli\\visual\\pcet\\111.png'
I2
I2760
tp28
a(g18
g19
g22
I5
g23
I3
NNI1
S'C:\\Users\\Jbarrett\\Charlie\\charlie\\stimuli\\visual\\pcet\\100.png'
S'C:\\Users\\Jbarrett\\Charlie\\charlie\\stimuli\\visual\\pcet\\101.png'
S'C:\\Users\\Jbarrett\\Charlie\\charlie\\stimuli\\visual\\pcet\\111.png'
S'C:\\Users\\Jbarrett\\Charlie\\charlie\\stimuli\\visual\\pcet\\001.png'
I2
I2200
tp29
a(g18
g19
g22
I6
g23
I1
NNI3
S'C:\\Users\\Jbarrett\\Charlie\\charlie\\stimuli\\visual\\pcet\\010.png'
S'C:\\Users\\Jbarrett\\Charlie\\charlie\\stimuli\\visual\\pcet\\100.png'
S'C:\\Users\\Jbarrett\\Charlie\\charlie\\stimuli\\visual\\pcet\\001.png'
S'C:\\Users\\Jbarrett\\Charlie\\charlie\\stimuli\\visual\\pcet\\000.png'
I0
I2911
tp30
a(g18
g19
g22
I7
g23
I0
NNI1
S'C:\\Users\\Jbarrett\\Charlie\\charlie\\stimuli\\visual\\pcet\\101.png'
S'C:\\Users\\Jbarrett\\Charlie\\charlie\\stimuli\\visual\\pcet\\001.png'
S'C:\\Users\\Jbarrett\\Charlie\\charlie\\stimuli\\visual\\pcet\\000.png'
S'C:\\Users\\Jbarrett\\Charlie\\charlie\\stimuli\\visual\\pcet\\011.png'
I3
I3350
tp31
a(g18
g19
g22
I8
g23
I0
NNI1
S'C:\\Users\\Jbarrett\\Charlie\\charlie\\stimuli\\visual\\pcet\\010.png'
S'C:\\Users\\Jbarrett\\Charlie\\charlie\\stimuli\\visual\\pcet\\110.png'
S'C:\\Users\\Jbarrett\\Charlie\\charlie\\stimuli\\visual\\pcet\\111.png'
S'C:\\Users\\Jbarrett\\Charlie\\charlie\\stimuli\\visual\\pcet\\100.png'
I3
I1600
tp32
a(g18
g19
g22
I9
g23
I1
NNI3
S'C:\\Users\\Jbarrett\\Charlie\\charlie\\stimuli\\visual\\pcet\\100.png'
S'C:\\Users\\Jbarrett\\Charlie\\charlie\\stimuli\\visual\\pcet\\010.png'
S'C:\\Users\\Jbarrett\\Charlie\\charlie\\stimuli\\visual\\pcet\\111.png'
S'C:\\Users\\Jbarrett\\Charlie\\charlie\\stimuli\\visual\\pcet\\110.png'
I0
I2710
tp33
a(g18
g19
g22
I10
g23
I2
NNI0
S'C:\\Users\\Jbarrett\\Charlie\\charlie\\stimuli\\visual\\pcet\\111.png'
S'C:\\Users\\Jbarrett\\Charlie\\charlie\\stimuli\\visual\\pcet\\101.png'
S'C:\\Users\\Jbarrett\\Charlie\\charlie\\stimuli\\visual\\pcet\\011.png'
S'C:\\Users\\Jbarrett\\Charlie\\charlie\\stimuli\\visual\\pcet\\110.png'
I1
I2360
tp34
a(g18
g19
g22
I11
g23
I0
NNI1
S'C:\\Users\\Jbarrett\\Charlie\\charlie\\stimuli\\visual\\pcet\\011.png'
S'C:\\Users\\Jbarrett\\Charlie\\charlie\\stimuli\\visual\\pcet\\111.png'
S'C:\\Users\\Jbarrett\\Charlie\\charlie\\stimuli\\visual\\pcet\\101.png'
S'C:\\Users\\Jbarrett\\Charlie\\charlie\\stimuli\\visual\\pcet\\110.png'
I2
I2911
tp35
a(g18
g19
g22
I12
S'shape'
p36
I0
I3
I2
I1
S'C:\\Users\\Jbarrett\\Charlie\\charlie\\stimuli\\visual\\pcet\\110.png'
S'C:\\Users\\Jbarrett\\Charlie\\charlie\\stimuli\\visual\\pcet\\100.png'
S'C:\\Users\\Jbarrett\\Charlie\\charlie\\stimuli\\visual\\pcet\\101.png'
S'C:\\Users\\Jbarrett\\Charlie\\charlie\\stimuli\\visual\\pcet\\000.png'
I0
I2740
tp37
a(g18
g19
g22
I13
S'shape'
p38
I3
I2
I1
I0
S'C:\\Users\\Jbarrett\\Charlie\\charlie\\stimuli\\visual\\pcet\\101.png'
S'C:\\Users\\Jbarrett\\Charlie\\charlie\\stimuli\\visual\\pcet\\100.png'
S'C:\\Users\\Jbarrett\\Charlie\\charlie\\stimuli\\visual\\pcet\\001.png'
S'C:\\Users\\Jbarrett\\Charlie\\charlie\\stimuli\\visual\\pcet\\111.png'
I3
I3110
tp39
a(g18
g19
g22
I14
S'shape'
p40
I3
I1
I0
I2
S'C:\\Users\\Jbarrett\\Charlie\\charlie\\stimuli\\visual\\pcet\\101.png'
S'C:\\Users\\Jbarrett\\Charlie\\charlie\\stimuli\\visual\\pcet\\000.png'
S'C:\\Users\\Jbarrett\\Charlie\\charlie\\stimuli\\visual\\pcet\\100.png'
S'C:\\Users\\Jbarrett\\Charlie\\charlie\\stimuli\\visual\\pcet\\110.png'
I3
I2130
tp41
a(g18
g19
g22
I15
S'shape'
p42
I1
I3
I0
I2
S'C:\\Users\\Jbarrett\\Charlie\\charlie\\stimuli\\visual\\pcet\\101.png'
S'C:\\Users\\Jbarrett\\Charlie\\charlie\\stimuli\\visual\\pcet\\110.png'
S'C:\\Users\\Jbarrett\\Charlie\\charlie\\stimuli\\visual\\pcet\\100.png'
S'C:\\Users\\Jbarrett\\Charlie\\charlie\\stimuli\\visual\\pcet\\000.png'
I1
I2720
tp43
a(g18
g19
g22
I16
S'shape'
p44
I1
I0
I3
I2
S'C:\\Users\\Jbarrett\\Charlie\\charlie\\stimuli\\visual\\pcet\\111.png'
S'C:\\Users\\Jbarrett\\Charlie\\charlie\\stimuli\\visual\\pcet\\001.png'
S'C:\\Users\\Jbarrett\\Charlie\\charlie\\stimuli\\visual\\pcet\\011.png'
S'C:\\Users\\Jbarrett\\Charlie\\charlie\\stimuli\\visual\\pcet\\010.png'
I1
I1481
tp45
a(g18
g19
g22
I17
S'shape'
p46
I2
I1
I3
I0
S'C:\\Users\\Jbarrett\\Charlie\\charlie\\stimuli\\visual\\pcet\\111.png'
S'C:\\Users\\Jbarrett\\Charlie\\charlie\\stimuli\\visual\\pcet\\011.png'
S'C:\\Users\\Jbarrett\\Charlie\\charlie\\stimuli\\visual\\pcet\\101.png'
S'C:\\Users\\Jbarrett\\Charlie\\charlie\\stimuli\\visual\\pcet\\110.png'
I2
I1650
tp47
a(g18
g19
g22
I18
S'shape'
p48
I3
I2
I1
I0
S'C:\\Users\\Jbarrett\\Charlie\\charlie\\stimuli\\visual\\pcet\\010.png'
S'C:\\Users\\Jbarrett\\Charlie\\charlie\\stimuli\\visual\\pcet\\011.png'
S'C:\\Users\\Jbarrett\\Charlie\\charlie\\stimuli\\visual\\pcet\\110.png'
S'C:\\Users\\Jbarrett\\Charlie\\charlie\\stimuli\\visual\\pcet\\000.png'
I3
I2470
tp49
a(g18
g19
g22
I19
S'shape'
p50
I1
I0
I2
I3
S'C:\\Users\\Jbarrett\\Charlie\\charlie\\stimuli\\visual\\pcet\\000.png'
S'C:\\Users\\Jbarrett\\Charlie\\charlie\\stimuli\\visual\\pcet\\110.png'
S'C:\\Users\\Jbarrett\\Charlie\\charlie\\stimuli\\visual\\pcet\\101.png'
S'C:\\Users\\Jbarrett\\Charlie\\charlie\\stimuli\\visual\\pcet\\100.png'
I1
I5440
tp51
a(g18
g19
g22
I20
S'shape'
p52
I3
I2
I1
I0
S'C:\\Users\\Jbarrett\\Charlie\\charlie\\stimuli\\visual\\pcet\\101.png'
S'C:\\Users\\Jbarrett\\Charlie\\charlie\\stimuli\\visual\\pcet\\100.png'
S'C:\\Users\\Jbarrett\\Charlie\\charlie\\stimuli\\visual\\pcet\\001.png'
S'C:\\Users\\Jbarrett\\Charlie\\charlie\\stimuli\\visual\\pcet\\111.png'
I3
I2380
tp53
a(g18
g19
g22
I21
S'shape'
p54
I1
I0
I3
I2
S'C:\\Users\\Jbarrett\\Charlie\\charlie\\stimuli\\visual\\pcet\\010.png'
S'C:\\Users\\Jbarrett\\Charlie\\charlie\\stimuli\\visual\\pcet\\100.png'
S'C:\\Users\\Jbarrett\\Charlie\\charlie\\stimuli\\visual\\pcet\\110.png'
S'C:\\Users\\Jbarrett\\Charlie\\charlie\\stimuli\\visual\\pcet\\111.png'
I1
I2960
tp55
a(g18
g19
g22
I22
S'shape'
p56
I2
I1
I0
I3
S'C:\\Users\\Jbarrett\\Charlie\\charlie\\stimuli\\visual\\pcet\\000.png'
S'C:\\Users\\Jbarrett\\Charlie\\charlie\\stimuli\\visual\\pcet\\101.png'
S'C:\\Users\\Jbarrett\\Charlie\\charlie\\stimuli\\visual\\pcet\\011.png'
S'C:\\Users\\Jbarrett\\Charlie\\charlie\\stimuli\\visual\\pcet\\001.png'
I2
I2500
tp57
a(g18
g19
g22
I23
S'shape'
p58
I1
I0
I2
I3
S'C:\\Users\\Jbarrett\\Charlie\\charlie\\stimuli\\visual\\pcet\\100.png'
S'C:\\Users\\Jbarrett\\Charlie\\charlie\\stimuli\\visual\\pcet\\010.png'
S'C:\\Users\\Jbarrett\\Charlie\\charlie\\stimuli\\visual\\pcet\\001.png'
S'C:\\Users\\Jbarrett\\Charlie\\charlie\\stimuli\\visual\\pcet\\000.png'
I1
I3240
tp59
a(g18
g19
g22
I24
S'size'
p60
I0
I2
I3
I1
S'C:\\Users\\Jbarrett\\Charlie\\charlie\\stimuli\\visual\\pcet\\101.png'
S'C:\\Users\\Jbarrett\\Charlie\\charlie\\stimuli\\visual\\pcet\\100.png'
S'C:\\Users\\Jbarrett\\Charlie\\charlie\\stimuli\\visual\\pcet\\110.png'
S'C:\\Users\\Jbarrett\\Charlie\\charlie\\stimuli\\visual\\pcet\\000.png'
I2
I2600
tp61
a(g18
g19
g22
I25
S'size'
p62
I3
I2
I0
I1
S'C:\\Users\\Jbarrett\\Charlie\\charlie\\stimuli\\visual\\pcet\\001.png'
S'C:\\Users\\Jbarrett\\Charlie\\charlie\\stimuli\\visual\\pcet\\101.png'
S'C:\\Users\\Jbarrett\\Charlie\\charlie\\stimuli\\visual\\pcet\\111.png'
S'C:\\Users\\Jbarrett\\Charlie\\charlie\\stimuli\\visual\\pcet\\100.png'
I2
I1371
tp63
a(g18
g19
g22
I26
S'size'
p64
I0
I3
I2
I1
S'C:\\Users\\Jbarrett\\Charlie\\charlie\\stimuli\\visual\\pcet\\000.png'
S'C:\\Users\\Jbarrett\\Charlie\\charlie\\stimuli\\visual\\pcet\\001.png'
S'C:\\Users\\Jbarrett\\Charlie\\charlie\\stimuli\\visual\\pcet\\101.png'
S'C:\\Users\\Jbarrett\\Charlie\\charlie\\stimuli\\visual\\pcet\\011.png'
I3
I1960
tp65
a(g18
g19
g22
I27
S'size'
p66
I1
I2
I3
I0
S'C:\\Users\\Jbarrett\\Charlie\\charlie\\stimuli\\visual\\pcet\\101.png'
S'C:\\Users\\Jbarrett\\Charlie\\charlie\\stimuli\\visual\\pcet\\100.png'
S'C:\\Users\\Jbarrett\\Charlie\\charlie\\stimuli\\visual\\pcet\\111.png'
S'C:\\Users\\Jbarrett\\Charlie\\charlie\\stimuli\\visual\\pcet\\001.png'
I2
I5620
tp67
a(g18
g19
g22
I28
S'size'
p68
I2
I3
I1
I0
S'C:\\Users\\Jbarrett\\Charlie\\charlie\\stimuli\\visual\\pcet\\110.png'
S'C:\\Users\\Jbarrett\\Charlie\\charlie\\stimuli\\visual\\pcet\\010.png'
S'C:\\Users\\Jbarrett\\Charlie\\charlie\\stimuli\\visual\\pcet\\111.png'
S'C:\\Users\\Jbarrett\\Charlie\\charlie\\stimuli\\visual\\pcet\\100.png'
I3
I3060
tp69
a(g18
g19
g22
I29
S'size'
p70
I1
I0
I2
I3
S'C:\\Users\\Jbarrett\\Charlie\\charlie\\stimuli\\visual\\pcet\\111.png'
S'C:\\Users\\Jbarrett\\Charlie\\charlie\\stimuli\\visual\\pcet\\100.png'
S'C:\\Users\\Jbarrett\\Charlie\\charlie\\stimuli\\visual\\pcet\\001.png'
S'C:\\Users\\Jbarrett\\Charlie\\charlie\\stimuli\\visual\\pcet\\101.png'
I0
I2901
tp71
a(g18
g19
g22
I30
S'size'
p72
I0
I1
I2
I3
S'C:\\Users\\Jbarrett\\Charlie\\charlie\\stimuli\\visual\\pcet\\011.png'
S'C:\\Users\\Jbarrett\\Charlie\\charlie\\stimuli\\visual\\pcet\\000.png'
S'C:\\Users\\Jbarrett\\Charlie\\charlie\\stimuli\\visual\\pcet\\110.png'
S'C:\\Users\\Jbarrett\\Charlie\\charlie\\stimuli\\visual\\pcet\\010.png'
I1
I3150
tp73
a(g18
g19
g22
I31
S'size'
p74
I3
I1
I0
I2
S'C:\\Users\\Jbarrett\\Charlie\\charlie\\stimuli\\visual\\pcet\\110.png'
S'C:\\Users\\Jbarrett\\Charlie\\charlie\\stimuli\\visual\\pcet\\000.png'
S'C:\\Users\\Jbarrett\\Charlie\\charlie\\stimuli\\visual\\pcet\\010.png'
S'C:\\Users\\Jbarrett\\Charlie\\charlie\\stimuli\\visual\\pcet\\011.png'
I1
I2100
tp75
a(g18
g19
g22
I32
S'size'
p76
I0
I2
I1
I3
S'C:\\Users\\Jbarrett\\Charlie\\charlie\\stimuli\\visual\\pcet\\000.png'
S'C:\\Users\\Jbarrett\\Charlie\\charlie\\stimuli\\visual\\pcet\\101.png'
S'C:\\Users\\Jbarrett\\Charlie\\charlie\\stimuli\\visual\\pcet\\011.png'
S'C:\\Users\\Jbarrett\\Charlie\\charlie\\stimuli\\visual\\pcet\\001.png'
I2
I2810
tp77
a(g18
g19
g22
I33
S'size'
p78
I3
I1
I2
I0
S'C:\\Users\\Jbarrett\\Charlie\\charlie\\stimuli\\visual\\pcet\\011.png'
S'C:\\Users\\Jbarrett\\Charlie\\charlie\\stimuli\\visual\\pcet\\001.png'
S'C:\\Users\\Jbarrett\\Charlie\\charlie\\stimuli\\visual\\pcet\\111.png'
S'C:\\Users\\Jbarrett\\Charlie\\charlie\\stimuli\\visual\\pcet\\010.png'
I1
I2080
tp79
a(g18
g19
g22
I34
S'size'
p80
I2
I3
I1
I0
S'C:\\Users\\Jbarrett\\Charlie\\charlie\\stimuli\\visual\\pcet\\011.png'
S'C:\\Users\\Jbarrett\\Charlie\\charlie\\stimuli\\visual\\pcet\\111.png'
S'C:\\Users\\Jbarrett\\Charlie\\charlie\\stimuli\\visual\\pcet\\010.png'
S'C:\\Users\\Jbarrett\\Charlie\\charlie\\stimuli\\visual\\pcet\\001.png'
I3
I1961
tp81
a(g18
g19
g22
I35
S'size'
p82
I2
I0
I1
I3
S'C:\\Users\\Jbarrett\\Charlie\\charlie\\stimuli\\visual\\pcet\\010.png'
S'C:\\Users\\Jbarrett\\Charlie\\charlie\\stimuli\\visual\\pcet\\100.png'
S'C:\\Users\\Jbarrett\\Charlie\\charlie\\stimuli\\visual\\pcet\\001.png'
S'C:\\Users\\Jbarrett\\Charlie\\charlie\\stimuli\\visual\\pcet\\000.png'
I0
I2770
tp83
a(g18
g19
g22
I36
g23
I2
I3
I1
I0
S'C:\\Users\\Jbarrett\\Charlie\\charlie\\stimuli\\visual\\pcet\\010.png'
S'C:\\Users\\Jbarrett\\Charlie\\charlie\\stimuli\\visual\\pcet\\000.png'
S'C:\\Users\\Jbarrett\\Charlie\\charlie\\stimuli\\visual\\pcet\\110.png'
S'C:\\Users\\Jbarrett\\Charlie\\charlie\\stimuli\\visual\\pcet\\011.png'
I1
I3040
tp84
a(g18
g19
g22
I37
g23
I3
I2
I1
I0
S'C:\\Users\\Jbarrett\\Charlie\\charlie\\stimuli\\visual\\pcet\\101.png'
S'C:\\Users\\Jbarrett\\Charlie\\charlie\\stimuli\\visual\\pcet\\111.png'
S'C:\\Users\\Jbarrett\\Charlie\\charlie\\stimuli\\visual\\pcet\\100.png'
S'C:\\Users\\Jbarrett\\Charlie\\charlie\\stimuli\\visual\\pcet\\001.png'
I1
I1470
tp85
a(g18
g19
g22
I38
g23
I0
I3
I1
I2
S'C:\\Users\\Jbarrett\\Charlie\\charlie\\stimuli\\visual\\pcet\\100.png'
S'C:\\Users\\Jbarrett\\Charlie\\charlie\\stimuli\\visual\\pcet\\010.png'
S'C:\\Users\\Jbarrett\\Charlie\\charlie\\stimuli\\visual\\pcet\\000.png'
S'C:\\Users\\Jbarrett\\Charlie\\charlie\\stimuli\\visual\\pcet\\001.png'
I1
I1550
tp86
a(g18
g19
g22
I39
g23
I0
I3
I2
I1
S'C:\\Users\\Jbarrett\\Charlie\\charlie\\stimuli\\visual\\pcet\\010.png'
S'C:\\Users\\Jbarrett\\Charlie\\charlie\\stimuli\\visual\\pcet\\110.png'
S'C:\\Users\\Jbarrett\\Charlie\\charlie\\stimuli\\visual\\pcet\\100.png'
S'C:\\Users\\Jbarrett\\Charlie\\charlie\\stimuli\\visual\\pcet\\111.png'
I2
I2100
tp87
a(g18
g19
g22
I40
g23
I0
I1
I2
I3
S'C:\\Users\\Jbarrett\\Charlie\\charlie\\stimuli\\visual\\pcet\\001.png'
S'C:\\Users\\Jbarrett\\Charlie\\charlie\\stimuli\\visual\\pcet\\100.png'
S'C:\\Users\\Jbarrett\\Charlie\\charlie\\stimuli\\visual\\pcet\\111.png'
S'C:\\Users\\Jbarrett\\Charlie\\charlie\\stimuli\\visual\\pcet\\101.png'
I2
I1490
tp88
a(g18
g19
g22
I41
g23
I3
I0
I2
I1
S'C:\\Users\\Jbarrett\\Charlie\\charlie\\stimuli\\visual\\pcet\\111.png'
S'C:\\Users\\Jbarrett\\Charlie\\charlie\\stimuli\\visual\\pcet\\110.png'
S'C:\\Users\\Jbarrett\\Charlie\\charlie\\stimuli\\visual\\pcet\\100.png'
S'C:\\Users\\Jbarrett\\Charlie\\charlie\\stimuli\\visual\\pcet\\010.png'
I2
I1490
tp89
a(g18
g19
g22
I42
g23
I0
I3
I1
I2
S'C:\\Users\\Jbarrett\\Charlie\\charlie\\stimuli\\visual\\pcet\\110.png'
S'C:\\Users\\Jbarrett\\Charlie\\charlie\\stimuli\\visual\\pcet\\000.png'
S'C:\\Users\\Jbarrett\\Charlie\\charlie\\stimuli\\visual\\pcet\\010.png'
S'C:\\Users\\Jbarrett\\Charlie\\charlie\\stimuli\\visual\\pcet\\011.png'
I1
I2250
tp90
a(g18
g19
g22
I43
g23
I0
I3
I2
I1
S'C:\\Users\\Jbarrett\\Charlie\\charlie\\stimuli\\visual\\pcet\\000.png'
S'C:\\Users\\Jbarrett\\Charlie\\charlie\\stimuli\\visual\\pcet\\100.png'
S'C:\\Users\\Jbarrett\\Charlie\\charlie\\stimuli\\visual\\pcet\\110.png'
S'C:\\Users\\Jbarrett\\Charlie\\charlie\\stimuli\\visual\\pcet\\101.png'
I2
I3040
tp91
a(g18
g19
g22
I44
g23
I2
I1
I3
I0
S'C:\\Users\\Jbarrett\\Charlie\\charlie\\stimuli\\visual\\pcet\\010.png'
S'C:\\Users\\Jbarrett\\Charlie\\charlie\\stimuli\\visual\\pcet\\011.png'
S'C:\\Users\\Jbarrett\\Charlie\\charlie\\stimuli\\visual\\pcet\\110.png'
S'C:\\Users\\Jbarrett\\Charlie\\charlie\\stimuli\\visual\\pcet\\000.png'
I3
I2820
tp92
a(g18
g19
g22
I45
g23
I3
I0
I2
I1
S'C:\\Users\\Jbarrett\\Charlie\\charlie\\stimuli\\visual\\pcet\\011.png'
S'C:\\Users\\Jbarrett\\Charlie\\charlie\\stimuli\\visual\\pcet\\010.png'
S'C:\\Users\\Jbarrett\\Charlie\\charlie\\stimuli\\visual\\pcet\\000.png'
S'C:\\Users\\Jbarrett\\Charlie\\charlie\\stimuli\\visual\\pcet\\110.png'
I2
I2771
tp93
a(g18
g19
g22
I46
g23
I1
I3
I2
I0
S'C:\\Users\\Jbarrett\\Charlie\\charlie\\stimuli\\visual\\pcet\\101.png'
S'C:\\Users\\Jbarrett\\Charlie\\charlie\\stimuli\\visual\\pcet\\001.png'
S'C:\\Users\\Jbarrett\\Charlie\\charlie\\stimuli\\visual\\pcet\\111.png'
S'C:\\Users\\Jbarrett\\Charlie\\charlie\\stimuli\\visual\\pcet\\100.png'
I2
I1140
tp94
a(g18
g19
g22
I47
g23
I1
I3
I2
I0
S'C:\\Users\\Jbarrett\\Charlie\\charlie\\stimuli\\visual\\pcet\\010.png'
S'C:\\Users\\Jbarrett\\Charlie\\charlie\\stimuli\\visual\\pcet\\110.png'
S'C:\\Users\\Jbarrett\\Charlie\\charlie\\stimuli\\visual\\pcet\\000.png'
S'C:\\Users\\Jbarrett\\Charlie\\charlie\\stimuli\\visual\\pcet\\011.png'
I2
I2440
tp95
a(g18
g19
g22
I48
S'shape'
p96
I3
I2
I1
I0
S'C:\\Users\\Jbarrett\\Charlie\\charlie\\stimuli\\visual\\pcet\\110.png'
S'C:\\Users\\Jbarrett\\Charlie\\charlie\\stimuli\\visual\\pcet\\111.png'
S'C:\\Users\\Jbarrett\\Charlie\\charlie\\stimuli\\visual\\pcet\\010.png'
S'C:\\Users\\Jbarrett\\Charlie\\charlie\\stimuli\\visual\\pcet\\100.png'
I3
I2390
tp97
a(g18
g19
g22
I49
S'shape'
p98
I1
I0
I3
I2
S'C:\\Users\\Jbarrett\\Charlie\\charlie\\stimuli\\visual\\pcet\\101.png'
S'C:\\Users\\Jbarrett\\Charlie\\charlie\\stimuli\\visual\\pcet\\011.png'
S'C:\\Users\\Jbarrett\\Charlie\\charlie\\stimuli\\visual\\pcet\\001.png'
S'C:\\Users\\Jbarrett\\Charlie\\charlie\\stimuli\\visual\\pcet\\000.png'
I1
I2140
tp99
a(g18
g19
g22
I50
S'shape'
p100
I2
I0
I3
I1
S'C:\\Users\\Jbarrett\\Charlie\\charlie\\stimuli\\visual\\pcet\\101.png'
S'C:\\Users\\Jbarrett\\Charlie\\charlie\\stimuli\\visual\\pcet\\001.png'
S'C:\\Users\\Jbarrett\\Charlie\\charlie\\stimuli\\visual\\pcet\\011.png'
S'C:\\Users\\Jbarrett\\Charlie\\charlie\\stimuli\\visual\\pcet\\000.png'
I2
I2170
tp101
a(g18
g19
g22
I51
S'shape'
p102
I1
I3
I0
I2
S'C:\\Users\\Jbarrett\\Charlie\\charlie\\stimuli\\visual\\pcet\\111.png'
S'C:\\Users\\Jbarrett\\Charlie\\charlie\\stimuli\\visual\\pcet\\100.png'
S'C:\\Users\\Jbarrett\\Charlie\\charlie\\stimuli\\visual\\pcet\\110.png'
S'C:\\Users\\Jbarrett\\Charlie\\charlie\\stimuli\\visual\\pcet\\010.png'
I1
I2420
tp103
a(g18
g19
g22
I52
S'shape'
p104
I1
I3
I2
I0
S'C:\\Users\\Jbarrett\\Charlie\\charlie\\stimuli\\visual\\pcet\\100.png'
S'C:\\Users\\Jbarrett\\Charlie\\charlie\\stimuli\\visual\\pcet\\110.png'
S'C:\\Users\\Jbarrett\\Charlie\\charlie\\stimuli\\visual\\pcet\\101.png'
S'C:\\Users\\Jbarrett\\Charlie\\charlie\\stimuli\\visual\\pcet\\000.png'
I1
I1630
tp105
a(g18
g19
g22
I53
S'shape'
p106
I1
I2
I0
I3
S'C:\\Users\\Jbarrett\\Charlie\\charlie\\stimuli\\visual\\pcet\\001.png'
S'C:\\Users\\Jbarrett\\Charlie\\charlie\\stimuli\\visual\\pcet\\010.png'
S'C:\\Users\\Jbarrett\\Charlie\\charlie\\stimuli\\visual\\pcet\\100.png'
S'C:\\Users\\Jbarrett\\Charlie\\charlie\\stimuli\\visual\\pcet\\000.png'
I1
I1330
tp107
a(g18
g19
g22
I54
S'shape'
p108
I3
I0
I1
I2
S'C:\\Users\\Jbarrett\\Charlie\\charlie\\stimuli\\visual\\pcet\\010.png'
S'C:\\Users\\Jbarrett\\Charlie\\charlie\\stimuli\\visual\\pcet\\111.png'
S'C:\\Users\\Jbarrett\\Charlie\\charlie\\stimuli\\visual\\pcet\\110.png'
S'C:\\Users\\Jbarrett\\Charlie\\charlie\\stimuli\\visual\\pcet\\100.png'
I3
I2860
tp109
a(g18
g19
g22
I55
S'shape'
p110
I3
I0
I2
I1
S'C:\\Users\\Jbarrett\\Charlie\\charlie\\stimuli\\visual\\pcet\\001.png'
S'C:\\Users\\Jbarrett\\Charlie\\charlie\\stimuli\\visual\\pcet\\101.png'
S'C:\\Users\\Jbarrett\\Charlie\\charlie\\stimuli\\visual\\pcet\\100.png'
S'C:\\Users\\Jbarrett\\Charlie\\charlie\\stimuli\\visual\\pcet\\111.png'
I3
I1230
tp111
a(g18
g19
g22
I56
S'shape'
p112
I2
I1
I3
I0
S'C:\\Users\\Jbarrett\\Charlie\\charlie\\stimuli\\visual\\pcet\\001.png'
S'C:\\Users\\Jbarrett\\Charlie\\charlie\\stimuli\\visual\\pcet\\101.png'
S'C:\\Users\\Jbarrett\\Charlie\\charlie\\stimuli\\visual\\pcet\\011.png'
S'C:\\Users\\Jbarrett\\Charlie\\charlie\\stimuli\\visual\\pcet\\000.png'
I2
I1680
tp113
a(g18
g19
g22
I57
S'shape'
p114
I0
I2
I1
I3
S'C:\\Users\\Jbarrett\\Charlie\\charlie\\stimuli\\visual\\pcet\\100.png'
S'C:\\Users\\Jbarrett\\Charlie\\charlie\\stimuli\\visual\\pcet\\111.png'
S'C:\\Users\\Jbarrett\\Charlie\\charlie\\stimuli\\visual\\pcet\\010.png'
S'C:\\Users\\Jbarrett\\Charlie\\charlie\\stimuli\\visual\\pcet\\110.png'
I0
I2850
tp115
a(g18
g19
g22
I58
S'shape'
p116
I2
I3
I1
I0
S'C:\\Users\\Jbarrett\\Charlie\\charlie\\stimuli\\visual\\pcet\\001.png'
S'C:\\Users\\Jbarrett\\Charlie\\charlie\\stimuli\\visual\\pcet\\000.png'
S'C:\\Users\\Jbarrett\\Charlie\\charlie\\stimuli\\visual\\pcet\\011.png'
S'C:\\Users\\Jbarrett\\Charlie\\charlie\\stimuli\\visual\\pcet\\101.png'
I2
I2560
tp117
a(g18
g19
g22
I59
S'shape'
p118
I0
I1
I2
I3
S'C:\\Users\\Jbarrett\\Charlie\\charlie\\stimuli\\visual\\pcet\\111.png'
S'C:\\Users\\Jbarrett\\Charlie\\charlie\\stimuli\\visual\\pcet\\001.png'
S'C:\\Users\\Jbarrett\\Charlie\\charlie\\stimuli\\visual\\pcet\\100.png'
S'C:\\Users\\Jbarrett\\Charlie\\charlie\\stimuli\\visual\\pcet\\101.png'
I0
I3270
tp119
a(g18
g19
g22
I60
S'size'
p120
I0
I2
I1
I3
S'C:\\Users\\Jbarrett\\Charlie\\charlie\\stimuli\\visual\\pcet\\101.png'
S'C:\\Users\\Jbarrett\\Charlie\\charlie\\stimuli\\visual\\pcet\\000.png'
S'C:\\Users\\Jbarrett\\Charlie\\charlie\\stimuli\\visual\\pcet\\110.png'
S'C:\\Users\\Jbarrett\\Charlie\\charlie\\stimuli\\visual\\pcet\\100.png'
I2
I2720
tp121
a(g18
g19
g22
I61
S'size'
p122
I2
I3
I0
I1
S'C:\\Users\\Jbarrett\\Charlie\\charlie\\stimuli\\visual\\pcet\\100.png'
S'C:\\Users\\Jbarrett\\Charlie\\charlie\\stimuli\\visual\\pcet\\000.png'
S'C:\\Users\\Jbarrett\\Charlie\\charlie\\stimuli\\visual\\pcet\\001.png'
S'C:\\Users\\Jbarrett\\Charlie\\charlie\\stimuli\\visual\\pcet\\010.png'
I3
I2321
tp123
a(g18
g19
g22
I62
S'size'
p124
I2
I0
I1
I3
S'C:\\Users\\Jbarrett\\Charlie\\charlie\\stimuli\\visual\\pcet\\111.png'
S'C:\\Users\\Jbarrett\\Charlie\\charlie\\stimuli\\visual\\pcet\\001.png'
S'C:\\Users\\Jbarrett\\Charlie\\charlie\\stimuli\\visual\\pcet\\100.png'
S'C:\\Users\\Jbarrett\\Charlie\\charlie\\stimuli\\visual\\pcet\\101.png'
I0
I3890
tp125
a(g18
g19
g22
I63
S'size'
p126
I1
I0
I3
I2
S'C:\\Users\\Jbarrett\\Charlie\\charlie\\stimuli\\visual\\pcet\\010.png'
S'C:\\Users\\Jbarrett\\Charlie\\charlie\\stimuli\\visual\\pcet\\001.png'
S'C:\\Users\\Jbarrett\\Charlie\\charlie\\stimuli\\visual\\pcet\\000.png'
S'C:\\Users\\Jbarrett\\Charlie\\charlie\\stimuli\\visual\\pcet\\100.png'
I0
I1810
tp127
a(g18
g19
g22
I64
S'size'
p128
I0
I2
I3
I1
S'C:\\Users\\Jbarrett\\Charlie\\charlie\\stimuli\\visual\\pcet\\110.png'
S'C:\\Users\\Jbarrett\\Charlie\\charlie\\stimuli\\visual\\pcet\\111.png'
S'C:\\Users\\Jbarrett\\Charlie\\charlie\\stimuli\\visual\\pcet\\101.png'
S'C:\\Users\\Jbarrett\\Charlie\\charlie\\stimuli\\visual\\pcet\\011.png'
I2
I2060
tp129
a(g18
g19
g22
I65
S'size'
p130
I3
I1
I0
I2
S'C:\\Users\\Jbarrett\\Charlie\\charlie\\stimuli\\visual\\pcet\\100.png'
S'C:\\Users\\Jbarrett\\Charlie\\charlie\\stimuli\\visual\\pcet\\010.png'
S'C:\\Users\\Jbarrett\\Charlie\\charlie\\stimuli\\visual\\pcet\\000.png'
S'C:\\Users\\Jbarrett\\Charlie\\charlie\\stimuli\\visual\\pcet\\001.png'
I1
I4371
tp131
a(g18
g19
g22
I66
S'size'
p132
I3
I1
I2
I0
S'C:\\Users\\Jbarrett\\Charlie\\charlie\\stimuli\\visual\\pcet\\011.png'
S'C:\\Users\\Jbarrett\\Charlie\\charlie\\stimuli\\visual\\pcet\\001.png'
S'C:\\Users\\Jbarrett\\Charlie\\charlie\\stimuli\\visual\\pcet\\111.png'
S'C:\\Users\\Jbarrett\\Charlie\\charlie\\stimuli\\visual\\pcet\\010.png'
I1
I1530
tp133
a(g18
g19
g22
I67
S'size'
p134
I1
I2
I3
I0
S'C:\\Users\\Jbarrett\\Charlie\\charlie\\stimuli\\visual\\pcet\\011.png'
S'C:\\Users\\Jbarrett\\Charlie\\charlie\\stimuli\\visual\\pcet\\010.png'
S'C:\\Users\\Jbarrett\\Charlie\\charlie\\stimuli\\visual\\pcet\\001.png'
S'C:\\Users\\Jbarrett\\Charlie\\charlie\\stimuli\\visual\\pcet\\111.png'
I2
I1840
tp135
a(g18
g19
g22
I68
S'size'
p136
I0
I2
I3
I1
S'C:\\Users\\Jbarrett\\Charlie\\charlie\\stimuli\\visual\\pcet\\100.png'
S'C:\\Users\\Jbarrett\\Charlie\\charlie\\stimuli\\visual\\pcet\\101.png'
S'C:\\Users\\Jbarrett\\Charlie\\charlie\\stimuli\\visual\\pcet\\111.png'
S'C:\\Users\\Jbarrett\\Charlie\\charlie\\stimuli\\visual\\pcet\\001.png'
I2
I1740
tp137
a(g18
g19
g22
I69
S'size'
p138
I0
I1
I2
I3
S'C:\\Users\\Jbarrett\\Charlie\\charlie\\stimuli\\visual\\pcet\\100.png'
S'C:\\Users\\Jbarrett\\Charlie\\charlie\\stimuli\\visual\\pcet\\111.png'
S'C:\\Users\\Jbarrett\\Charlie\\charlie\\stimuli\\visual\\pcet\\001.png'
S'C:\\Users\\Jbarrett\\Charlie\\charlie\\stimuli\\visual\\pcet\\101.png'
I1
I2060
tp139
a(g18
g19
g22
I70
S'size'
p140
I1
I0
I3
I2
S'C:\\Users\\Jbarrett\\Charlie\\charlie\\stimuli\\visual\\pcet\\111.png'
S'C:\\Users\\Jbarrett\\Charlie\\charlie\\stimuli\\visual\\pcet\\100.png'
S'C:\\Users\\Jbarrett\\Charlie\\charlie\\stimuli\\visual\\pcet\\101.png'
S'C:\\Users\\Jbarrett\\Charlie\\charlie\\stimuli\\visual\\pcet\\001.png'
I0
I2070
tp141
a(g18
g19
g22
I71
S'size'
p142
I1
I2
I3
I0
S'C:\\Users\\Jbarrett\\Charlie\\charlie\\stimuli\\visual\\pcet\\010.png'
p143
S'C:\\Users\\Jbarrett\\Charlie\\charlie\\stimuli\\visual\\pcet\\011.png'
p144
S'C:\\Users\\Jbarrett\\Charlie\\charlie\\stimuli\\visual\\pcet\\000.png'
p145
S'C:\\Users\\Jbarrett\\Charlie\\charlie\\stimuli\\visual\\pcet\\110.png'
p146
I2
I2901
tp147
asS'output_format'
p148
(lp149
(S'proband_id'
p150
c__builtin__
str
p151
tp152
a(S'test_name'
p153
g151
tp154
a(S'phase'
p155
g151
tp156
a(S'trialn'
p157
c__builtin__
int
p158
tp159
a(S'rule'
p160
g151
tp161
a(S'ans'
p162
g151
tp163
a(S'pers'
p164
g151
tp165
a(S'other'
p166
g151
tp167
a(S'lapse'
p168
g151
tp169
a(S'f1'
p170
g151
tp171
a(S'f2'
p172
g151
tp173
a(S'f3'
p174
g151
tp175
a(S'f4'
p176
g151
tp177
a(S'rsp'
p178
g151
tp179
a(S'rt'
p180
g158
tp181
asg150
g18
sS'filename'
p182
S'4403_pcet.data'
p183
sS'initialised'
p184
g8
(S'\x07\xdf\x06\x10\x0b.\x07\x02x\xd0'
tRp185
sS'last_udated'
p186
g8
(S'\x07\xdf\x06\x10\x0b.\x07\x02x\xd0'
tRp187
sg153
S'pcet'
p188
sS'directory'
p189
S'C:\\Users\\Jbarrett\\Charlie\\charlie\\data\\raw'
p190
sS'user_id'
p191
S'jbarrett'
p192
sS'test_started'
p193
I01
sS'abs_filename'
p194
S'C:\\Users\\Jbarrett\\Charlie\\charlie\\data\\raw\\4403_pcet.data'
p195
sS'date_started'
p196
g8
(S'\x07\xdf\x06\x10\x0b.#\t\xb8H'
tRp197
sS'log'
p198
(lp199
(S'2015-06-16 11:46:07.162000'
S'instance created'
p200
tp201
a(S'2015-06-16 11:46:35.649000'
S'instance updated'
p202
tp203
a(S'2015-06-16 11:46:35.663000'
S'pandas DataFrame of data created'
p204
tp205
a(S'2015-06-16 11:46:35.668000'
S'data saved as csv to C:\\Users\\Jbarrett\\Charlie\\charlie\\data\\csv\\4403_pcet.csv'
tp206
a(S'2015-06-16 11:46:55.964000'
g202
tp207
a(S'2015-06-16 11:46:55.977000'
g204
tp208
a(S'2015-06-16 11:46:55.981000'
S'data saved as csv to C:\\Users\\Jbarrett\\Charlie\\charlie\\data\\csv\\4403_pcet.csv'
tp209
a(S'2015-06-16 11:47:13.436000'
g202
tp210
a(S'2015-06-16 11:47:13.444000'
g204
tp211
a(S'2015-06-16 11:47:13.446000'
S'data saved as csv to C:\\Users\\Jbarrett\\Charlie\\charlie\\data\\csv\\4403_pcet.csv'
tp212
a(S'2015-06-16 11:47:17.879000'
g202
tp213
a(S'2015-06-16 11:47:17.892000'
g204
tp214
a(S'2015-06-16 11:47:17.895000'
S'data saved as csv to C:\\Users\\Jbarrett\\Charlie\\charlie\\data\\csv\\4403_pcet.csv'
tp215
a(S'2015-06-16 11:47:22.156000'
g202
tp216
a(S'2015-06-16 11:47:22.164000'
g204
tp217
a(S'2015-06-16 11:47:22.166000'
S'data saved as csv to C:\\Users\\Jbarrett\\Charlie\\charlie\\data\\csv\\4403_pcet.csv'
tp218
a(S'2015-06-16 11:47:26.008000'
g202
tp219
a(S'2015-06-16 11:47:26.021000'
g204
tp220
a(S'2015-06-16 11:47:26.025000'
S'data saved as csv to C:\\Users\\Jbarrett\\Charlie\\charlie\\data\\csv\\4403_pcet.csv'
tp221
a(S'2015-06-16 11:47:29.278000'
g202
tp222
a(S'2015-06-16 11:47:29.282000'
g204
tp223
a(S'2015-06-16 11:47:29.284000'
S'data saved as csv to C:\\Users\\Jbarrett\\Charlie\\charlie\\data\\csv\\4403_pcet.csv'
tp224
a(S'2015-06-16 11:47:33.248000'
g202
tp225
a(S'2015-06-16 11:47:33.258000'
g204
tp226
a(S'2015-06-16 11:47:33.260000'
S'data saved as csv to C:\\Users\\Jbarrett\\Charlie\\charlie\\data\\csv\\4403_pcet.csv'
tp227
a(S'2015-06-16 11:47:37.685000'
g202
tp228
a(S'2015-06-16 11:47:37.699000'
g204
tp229
a(S'2015-06-16 11:47:37.703000'
S'data saved as csv to C:\\Users\\Jbarrett\\Charlie\\charlie\\data\\csv\\4403_pcet.csv'
tp230
a(S'2015-06-16 11:47:40.378000'
g202
tp231
a(S'2015-06-16 11:47:40.393000'
g204
tp232
a(S'2015-06-16 11:47:40.398000'
S'data saved as csv to C:\\Users\\Jbarrett\\Charlie\\charlie\\data\\csv\\4403_pcet.csv'
tp233
a(S'2015-06-16 11:47:44.160000'
g202
tp234
a(S'2015-06-16 11:47:44.166000'
g204
tp235
a(S'2015-06-16 11:47:44.168000'
S'data saved as csv to C:\\Users\\Jbarrett\\Charlie\\charlie\\data\\csv\\4403_pcet.csv'
tp236
a(S'2015-06-16 11:47:47.567000'
g202
tp237
a(S'2015-06-16 11:47:47.571000'
g204
tp238
a(S'2015-06-16 11:47:47.572000'
S'data saved as csv to C:\\Users\\Jbarrett\\Charlie\\charlie\\data\\csv\\4403_pcet.csv'
tp239
a(S'2015-06-16 11:47:51.511000'
g202
tp240
a(S'2015-06-16 11:47:51.515000'
g204
tp241
a(S'2015-06-16 11:47:51.516000'
S'data saved as csv to C:\\Users\\Jbarrett\\Charlie\\charlie\\data\\csv\\4403_pcet.csv'
tp242
a(S'2015-06-16 11:47:55.324000'
g202
tp243
a(S'2015-06-16 11:47:55.337000'
g204
tp244
a(S'2015-06-16 11:47:55.339000'
S'data saved as csv to C:\\Users\\Jbarrett\\Charlie\\charlie\\data\\csv\\4403_pcet.csv'
tp245
a(S'2015-06-16 11:47:59.494000'
g202
tp246
a(S'2015-06-16 11:47:59.499000'
g204
tp247
a(S'2015-06-16 11:47:59.501000'
S'data saved as csv to C:\\Users\\Jbarrett\\Charlie\\charlie\\data\\csv\\4403_pcet.csv'
tp248
a(S'2015-06-16 11:48:02.680000'
g202
tp249
a(S'2015-06-16 11:48:02.688000'
g204
tp250
a(S'2015-06-16 11:48:02.690000'
S'data saved as csv to C:\\Users\\Jbarrett\\Charlie\\charlie\\data\\csv\\4403_pcet.csv'
tp251
a(S'2015-06-16 11:48:06.449000'
g202
tp252
a(S'2015-06-16 11:48:06.454000'
g204
tp253
a(S'2015-06-16 11:48:06.455000'
S'data saved as csv to C:\\Users\\Jbarrett\\Charlie\\charlie\\data\\csv\\4403_pcet.csv'
tp254
a(S'2015-06-16 11:48:08.985000'
g202
tp255
a(S'2015-06-16 11:48:08.991000'
g204
tp256
a(S'2015-06-16 11:48:08.992000'
S'data saved as csv to C:\\Users\\Jbarrett\\Charlie\\charlie\\data\\csv\\4403_pcet.csv'
tp257
a(S'2015-06-16 11:48:11.673000'
g202
tp258
a(S'2015-06-16 11:48:11.677000'
g204
tp259
a(S'2015-06-16 11:48:11.678000'
S'data saved as csv to C:\\Users\\Jbarrett\\Charlie\\charlie\\data\\csv\\4403_pcet.csv'
tp260
a(S'2015-06-16 11:48:15.186000'
g202
tp261
a(S'2015-06-16 11:48:15.190000'
g204
tp262
a(S'2015-06-16 11:48:15.191000'
S'data saved as csv to C:\\Users\\Jbarrett\\Charlie\\charlie\\data\\csv\\4403_pcet.csv'
tp263
a(S'2015-06-16 11:48:21.692000'
g202
tp264
a(S'2015-06-16 11:48:21.706000'
g204
tp265
a(S'2015-06-16 11:48:21.709000'
S'data saved as csv to C:\\Users\\Jbarrett\\Charlie\\charlie\\data\\csv\\4403_pcet.csv'
tp266
a(S'2015-06-16 11:48:25.159000'
g202
tp267
a(S'2015-06-16 11:48:25.174000'
g204
tp268
a(S'2015-06-16 11:48:25.178000'
S'data saved as csv to C:\\Users\\Jbarrett\\Charlie\\charlie\\data\\csv\\4403_pcet.csv'
tp269
a(S'2015-06-16 11:48:29.184000'
g202
tp270
a(S'2015-06-16 11:48:29.188000'
g204
tp271
a(S'2015-06-16 11:48:29.189000'
S'data saved as csv to C:\\Users\\Jbarrett\\Charlie\\charlie\\data\\csv\\4403_pcet.csv'
tp272
a(S'2015-06-16 11:48:32.733000'
g202
tp273
a(S'2015-06-16 11:48:32.740000'
g204
tp274
a(S'2015-06-16 11:48:32.742000'
S'data saved as csv to C:\\Users\\Jbarrett\\Charlie\\charlie\\data\\csv\\4403_pcet.csv'
tp275
a(S'2015-06-16 11:48:37.014000'
g202
tp276
a(S'2015-06-16 11:48:37.018000'
g204
tp277
a(S'2015-06-16 11:48:37.019000'
S'data saved as csv to C:\\Users\\Jbarrett\\Charlie\\charlie\\data\\csv\\4403_pcet.csv'
tp278
a(S'2015-06-16 11:48:40.687000'
g202
tp279
a(S'2015-06-16 11:48:40.700000'
g204
tp280
a(S'2015-06-16 11:48:40.703000'
S'data saved as csv to C:\\Users\\Jbarrett\\Charlie\\charlie\\data\\csv\\4403_pcet.csv'
tp281
a(S'2015-06-16 11:48:43.156000'
g202
tp282
a(S'2015-06-16 11:48:43.164000'
g204
tp283
a(S'2015-06-16 11:48:43.166000'
S'data saved as csv to C:\\Users\\Jbarrett\\Charlie\\charlie\\data\\csv\\4403_pcet.csv'
tp284
a(S'2015-06-16 11:48:46.180000'
g202
tp285
a(S'2015-06-16 11:48:46.188000'
g204
tp286
a(S'2015-06-16 11:48:46.190000'
S'data saved as csv to C:\\Users\\Jbarrett\\Charlie\\charlie\\data\\csv\\4403_pcet.csv'
tp287
a(S'2015-06-16 11:48:52.850000'
g202
tp288
a(S'2015-06-16 11:48:52.854000'
g204
tp289
a(S'2015-06-16 11:48:52.855000'
S'data saved as csv to C:\\Users\\Jbarrett\\Charlie\\charlie\\data\\csv\\4403_pcet.csv'
tp290
a(S'2015-06-16 11:48:56.963000'
g202
tp291
a(S'2015-06-16 11:48:56.966000'
g204
tp292
a(S'2015-06-16 11:48:56.968000'
S'data saved as csv to C:\\Users\\Jbarrett\\Charlie\\charlie\\data\\csv\\4403_pcet.csv'
tp293
a(S'2015-06-16 11:49:00.897000'
g202
tp294
a(S'2015-06-16 11:49:00.900000'
g204
tp295
a(S'2015-06-16 11:49:00.902000'
S'data saved as csv to C:\\Users\\Jbarrett\\Charlie\\charlie\\data\\csv\\4403_pcet.csv'
tp296
a(S'2015-06-16 11:49:05.078000'
g202
tp297
a(S'2015-06-16 11:49:05.082000'
g204
tp298
a(S'2015-06-16 11:49:05.083000'
S'data saved as csv to C:\\Users\\Jbarrett\\Charlie\\charlie\\data\\csv\\4403_pcet.csv'
tp299
a(S'2015-06-16 11:49:08.207000'
g202
tp300
a(S'2015-06-16 11:49:08.211000'
g204
tp301
a(S'2015-06-16 11:49:08.212000'
S'data saved as csv to C:\\Users\\Jbarrett\\Charlie\\charlie\\data\\csv\\4403_pcet.csv'
tp302
a(S'2015-06-16 11:49:12.058000'
g202
tp303
a(S'2015-06-16 11:49:12.063000'
g204
tp304
a(S'2015-06-16 11:49:12.065000'
S'data saved as csv to C:\\Users\\Jbarrett\\Charlie\\charlie\\data\\csv\\4403_pcet.csv'
tp305
a(S'2015-06-16 11:49:15.174000'
g202
tp306
a(S'2015-06-16 11:49:15.178000'
g204
tp307
a(S'2015-06-16 11:49:15.179000'
S'data saved as csv to C:\\Users\\Jbarrett\\Charlie\\charlie\\data\\csv\\4403_pcet.csv'
tp308
a(S'2015-06-16 11:49:18.169000'
g202
tp309
a(S'2015-06-16 11:49:18.173000'
g204
tp310
a(S'2015-06-16 11:49:18.174000'
S'data saved as csv to C:\\Users\\Jbarrett\\Charlie\\charlie\\data\\csv\\4403_pcet.csv'
tp311
a(S'2015-06-16 11:49:21.968000'
g202
tp312
a(S'2015-06-16 11:49:21.972000'
g204
tp313
a(S'2015-06-16 11:49:21.973000'
S'data saved as csv to C:\\Users\\Jbarrett\\Charlie\\charlie\\data\\csv\\4403_pcet.csv'
tp314
a(S'2015-06-16 11:49:26.070000'
g202
tp315
a(S'2015-06-16 11:49:26.084000'
g204
tp316
a(S'2015-06-16 11:49:26.089000'
S'data saved as csv to C:\\Users\\Jbarrett\\Charlie\\charlie\\data\\csv\\4403_pcet.csv'
tp317
a(S'2015-06-16 11:49:28.637000'
g202
tp318
a(S'2015-06-16 11:49:28.652000'
g204
tp319
a(S'2015-06-16 11:49:28.657000'
S'data saved as csv to C:\\Users\\Jbarrett\\Charlie\\charlie\\data\\csv\\4403_pcet.csv'
tp320
a(S'2015-06-16 11:49:31.244000'
g202
tp321
a(S'2015-06-16 11:49:31.248000'
g204
tp322
a(S'2015-06-16 11:49:31.249000'
S'data saved as csv to C:\\Users\\Jbarrett\\Charlie\\charlie\\data\\csv\\4403_pcet.csv'
tp323
a(S'2015-06-16 11:49:34.376000'
g202
tp324
a(S'2015-06-16 11:49:34.379000'
g204
tp325
a(S'2015-06-16 11:49:34.381000'
S'data saved as csv to C:\\Users\\Jbarrett\\Charlie\\charlie\\data\\csv\\4403_pcet.csv'
tp326
a(S'2015-06-16 11:49:36.899000'
g202
tp327
a(S'2015-06-16 11:49:36.903000'
g204
tp328
a(S'2015-06-16 11:49:36.904000'
S'data saved as csv to C:\\Users\\Jbarrett\\Charlie\\charlie\\data\\csv\\4403_pcet.csv'
tp329
a(S'2015-06-16 11:49:39.421000'
g202
tp330
a(S'2015-06-16 11:49:39.424000'
g204
tp331
a(S'2015-06-16 11:49:39.426000'
S'data saved as csv to C:\\Users\\Jbarrett\\Charlie\\charlie\\data\\csv\\4403_pcet.csv'
tp332
a(S'2015-06-16 11:49:42.705000'
g202
tp333
a(S'2015-06-16 11:49:42.709000'
g204
tp334
a(S'2015-06-16 11:49:42.710000'
S'data saved as csv to C:\\Users\\Jbarrett\\Charlie\\charlie\\data\\csv\\4403_pcet.csv'
tp335
a(S'2015-06-16 11:49:46.773000'
g202
tp336
a(S'2015-06-16 11:49:46.777000'
g204
tp337
a(S'2015-06-16 11:49:46.778000'
S'data saved as csv to C:\\Users\\Jbarrett\\Charlie\\charlie\\data\\csv\\4403_pcet.csv'
tp338
a(S'2015-06-16 11:49:50.624000'
g202
tp339
a(S'2015-06-16 11:49:50.627000'
g204
tp340
a(S'2015-06-16 11:49:50.629000'
S'data saved as csv to C:\\Users\\Jbarrett\\Charlie\\charlie\\data\\csv\\4403_pcet.csv'
tp341
a(S'2015-06-16 11:49:54.424000'
g202
tp342
a(S'2015-06-16 11:49:54.428000'
g204
tp343
a(S'2015-06-16 11:49:54.430000'
S'data saved as csv to C:\\Users\\Jbarrett\\Charlie\\charlie\\data\\csv\\4403_pcet.csv'
tp344
a(S'2015-06-16 11:49:56.601000'
g202
tp345
a(S'2015-06-16 11:49:56.604000'
g204
tp346
a(S'2015-06-16 11:49:56.606000'
S'data saved as csv to C:\\Users\\Jbarrett\\Charlie\\charlie\\data\\csv\\4403_pcet.csv'
tp347
a(S'2015-06-16 11:50:00.079000'
g202
tp348
a(S'2015-06-16 11:50:00.083000'
g204
tp349
a(S'2015-06-16 11:50:00.084000'
S'data saved as csv to C:\\Users\\Jbarrett\\Charlie\\charlie\\data\\csv\\4403_pcet.csv'
tp350
a(S'2015-06-16 11:50:03.529000'
g202
tp351
a(S'2015-06-16 11:50:03.537000'
g204
tp352
a(S'2015-06-16 11:50:03.539000'
S'data saved as csv to C:\\Users\\Jbarrett\\Charlie\\charlie\\data\\csv\\4403_pcet.csv'
tp353
a(S'2015-06-16 11:50:06.720000'
g202
tp354
a(S'2015-06-16 11:50:06.725000'
g204
tp355
a(S'2015-06-16 11:50:06.727000'
S'data saved as csv to C:\\Users\\Jbarrett\\Charlie\\charlie\\data\\csv\\4403_pcet.csv'
tp356
a(S'2015-06-16 11:50:09.926000'
g202
tp357
a(S'2015-06-16 11:50:09.929000'
g204
tp358
a(S'2015-06-16 11:50:09.931000'
S'data saved as csv to C:\\Users\\Jbarrett\\Charlie\\charlie\\data\\csv\\4403_pcet.csv'
tp359
a(S'2015-06-16 11:50:13.412000'
g202
tp360
a(S'2015-06-16 11:50:13.418000'
g204
tp361
a(S'2015-06-16 11:50:13.421000'
S'data saved as csv to C:\\Users\\Jbarrett\\Charlie\\charlie\\data\\csv\\4403_pcet.csv'
tp362
a(S'2015-06-16 11:50:16.081000'
g202
tp363
a(S'2015-06-16 11:50:16.085000'
g204
tp364
a(S'2015-06-16 11:50:16.087000'
S'data saved as csv to C:\\Users\\Jbarrett\\Charlie\\charlie\\data\\csv\\4403_pcet.csv'
tp365
a(S'2015-06-16 11:50:18.444000'
g202
tp366
a(S'2015-06-16 11:50:18.448000'
g204
tp367
a(S'2015-06-16 11:50:18.450000'
S'data saved as csv to C:\\Users\\Jbarrett\\Charlie\\charlie\\data\\csv\\4403_pcet.csv'
tp368
a(S'2015-06-16 11:50:22.363000'
g202
tp369
a(S'2015-06-16 11:50:22.375000'
g204
tp370
a(S'2015-06-16 11:50:22.377000'
S'data saved as csv to C:\\Users\\Jbarrett\\Charlie\\charlie\\data\\csv\\4403_pcet.csv'
tp371
a(S'2015-06-16 11:50:24.661000'
g202
tp372
a(S'2015-06-16 11:50:24.669000'
g204
tp373
a(S'2015-06-16 11:50:24.672000'
S'data saved as csv to C:\\Users\\Jbarrett\\Charlie\\charlie\\data\\csv\\4403_pcet.csv'
tp374
a(S'2015-06-16 11:50:27.423000'
g202
tp375
a(S'2015-06-16 11:50:27.431000'
g204
tp376
a(S'2015-06-16 11:50:27.434000'
S'data saved as csv to C:\\Users\\Jbarrett\\Charlie\\charlie\\data\\csv\\4403_pcet.csv'
tp377
a(S'2015-06-16 11:50:31.421000'
g202
tp378
a(S'2015-06-16 11:50:31.436000'
g204
tp379
a(S'2015-06-16 11:50:31.441000'
S'data saved as csv to C:\\Users\\Jbarrett\\Charlie\\charlie\\data\\csv\\4403_pcet.csv'
tp380
a(S'2015-06-16 11:50:35.073000'
g202
tp381
a(S'2015-06-16 11:50:35.087000'
g204
tp382
a(S'2015-06-16 11:50:35.093000'
S'data saved as csv to C:\\Users\\Jbarrett\\Charlie\\charlie\\data\\csv\\4403_pcet.csv'
tp383
a(S'2015-06-16 11:50:39.442000'
g202
tp384
a(S'2015-06-16 11:50:39.451000'
g204
tp385
a(S'2015-06-16 11:50:39.454000'
S'data saved as csv to C:\\Users\\Jbarrett\\Charlie\\charlie\\data\\csv\\4403_pcet.csv'
tp386
a(S'2015-06-16 11:50:43.202000'
g202
tp387
a(S'2015-06-16 11:50:43.206000'
g204
tp388
a(S'2015-06-16 11:50:43.207000'
S'data saved as csv to C:\\Users\\Jbarrett\\Charlie\\charlie\\data\\csv\\4403_pcet.csv'
tp389
a(S'2015-06-16 11:50:46.588000'
g202
tp390
a(S'2015-06-16 11:50:46.603000'
g204
tp391
a(S'2015-06-16 11:50:46.608000'
S'data saved as csv to C:\\Users\\Jbarrett\\Charlie\\charlie\\data\\csv\\4403_pcet.csv'
tp392
a(S'2015-06-16 11:50:51.547000'
g202
tp393
a(S'2015-06-16 11:50:51.551000'
g204
tp394
a(S'2015-06-16 11:50:51.552000'
S'data saved as csv to C:\\Users\\Jbarrett\\Charlie\\charlie\\data\\csv\\4403_pcet.csv'
tp395
a(S'2015-06-16 11:50:54.410000'
g202
tp396
a(S'2015-06-16 11:50:54.417000'
g204
tp397
a(S'2015-06-16 11:50:54.419000'
S'data saved as csv to C:\\Users\\Jbarrett\\Charlie\\charlie\\data\\csv\\4403_pcet.csv'
tp398
a(S'2015-06-16 11:50:57.535000'
g202
tp399
a(S'2015-06-16 11:50:57.543000'
g204
tp400
a(S'2015-06-16 11:50:57.547000'
S'data saved as csv to C:\\Users\\Jbarrett\\Charlie\\charlie\\data\\csv\\4403_pcet.csv'
tp401
a(S'2015-06-16 11:51:02.949000'
g202
tp402
a(S'2015-06-16 11:51:02.952000'
g204
tp403
a(S'2015-06-16 11:51:02.954000'
S'data saved as csv to C:\\Users\\Jbarrett\\Charlie\\charlie\\data\\csv\\4403_pcet.csv'
tp404
a(S'2015-06-16 11:51:05.547000'
g202
tp405
a(S'2015-06-16 11:51:05.553000'
g204
tp406
a(S'2015-06-16 11:51:05.555000'
S'data saved as csv to C:\\Users\\Jbarrett\\Charlie\\charlie\\data\\csv\\4403_pcet.csv'
tp407
a(S'2015-06-16 11:51:08.433000'
g202
tp408
a(S'2015-06-16 11:51:08.437000'
g204
tp409
a(S'2015-06-16 11:51:08.439000'
S'data saved as csv to C:\\Users\\Jbarrett\\Charlie\\charlie\\data\\csv\\4403_pcet.csv'
tp410
a(S'2015-06-16 11:51:11.213000'
g202
tp411
a(S'2015-06-16 11:51:11.216000'
g204
tp412
a(S'2015-06-16 11:51:11.218000'
S'data saved as csv to C:\\Users\\Jbarrett\\Charlie\\charlie\\data\\csv\\4403_pcet.csv'
tp413
a(S'2015-06-16 11:51:14.306000'
g202
tp414
a(S'2015-06-16 11:51:14.310000'
g204
tp415
a(S'2015-06-16 11:51:14.312000'
S'data saved as csv to C:\\Users\\Jbarrett\\Charlie\\charlie\\data\\csv\\4403_pcet.csv'
tp416
a(S'2015-06-16 11:51:17.411000'
g202
tp417
a(S'2015-06-16 11:51:17.415000'
g204
tp418
a(S'2015-06-16 11:51:17.416000'
S'data saved as csv to C:\\Users\\Jbarrett\\Charlie\\charlie\\data\\csv\\4403_pcet.csv'
tp419
a(S'2015-06-16 11:51:21.358000'
g202
tp420
a(S'2015-06-16 11:51:21.364000'
g204
tp421
a(S'2015-06-16 11:51:21.366000'
S'data saved as csv to C:\\Users\\Jbarrett\\Charlie\\charlie\\data\\csv\\4403_pcet.csv'
tp422
asb.