(icharlie.tools.data
Data
p1
(dp2
S'lang'
p3
S'EN'
p4
sS'control'
p5
(lp6
sS'last_updated'
p7
cdatetime
datetime
p8
(S'\x07\xdf\x06\x10\n#\x10\n\xa6\x90'
tRp9
sS'last_opened'
p10
g8
(S'\x07\xdf\x06\x10\n\x1f"\x07\xa1 '
tRp11
sS'proj_id'
p12
S'connectivity'
p13
sS'date_done'
p14
NsS'test_done'
p15
I01
sS'data'
p16
(lp17
(S'4403'
p18
S'digit_symbol'
p19
S'practice'
p20
I0
I2
I2
S'Yes'
p21
S'C:\\Users\\Jbarrett\\Charlie\\charlie\\stimuli\\visual\\digit_symbol\\sym2.bmp'
g21
I24461
tp22
a(g18
g19
g20
I1
I6
I6
g21
S'C:\\Users\\Jbarrett\\Charlie\\charlie\\stimuli\\visual\\digit_symbol\\sym6.bmp'
g21
I2860
tp23
a(g18
g19
g20
I2
I8
I4
S'No'
p24
S'C:\\Users\\Jbarrett\\Charlie\\charlie\\stimuli\\visual\\digit_symbol\\sym4.bmp'
g24
I3800
tp25
a(g18
g19
g20
I3
I4
I4
g21
S'C:\\Users\\Jbarrett\\Charlie\\charlie\\stimuli\\visual\\digit_symbol\\sym4.bmp'
g21
I4180
tp26
a(g18
g19
g20
I4
I7
I7
g21
S'C:\\Users\\Jbarrett\\Charlie\\charlie\\stimuli\\visual\\digit_symbol\\sym7.bmp'
g21
I2160
tp27
a(g18
g19
g20
I5
I6
I5
g24
S'C:\\Users\\Jbarrett\\Charlie\\charlie\\stimuli\\visual\\digit_symbol\\sym5.bmp'
g24
I2440
tp28
a(g18
g19
g20
I6
I2
I8
g24
S'C:\\Users\\Jbarrett\\Charlie\\charlie\\stimuli\\visual\\digit_symbol\\sym8.bmp'
g21
I2480
tp29
a(g18
g19
g20
I7
I9
I2
g24
S'C:\\Users\\Jbarrett\\Charlie\\charlie\\stimuli\\visual\\digit_symbol\\sym2.bmp'
g24
I9090
tp30
a(g18
g19
g20
I8
I3
I7
g24
S'C:\\Users\\Jbarrett\\Charlie\\charlie\\stimuli\\visual\\digit_symbol\\sym7.bmp'
g24
I2941
tp31
a(g18
g19
g20
I9
I5
I6
g24
S'C:\\Users\\Jbarrett\\Charlie\\charlie\\stimuli\\visual\\digit_symbol\\sym6.bmp'
g24
I2100
tp32
a(g18
g19
S'test'
p33
I0
I8
I8
g21
S'C:\\Users\\Jbarrett\\Charlie\\charlie\\stimuli\\visual\\digit_symbol\\sym8.bmp'
g21
I4107
tp34
a(g18
g19
g33
I1
I1
I4
g24
S'C:\\Users\\Jbarrett\\Charlie\\charlie\\stimuli\\visual\\digit_symbol\\sym4.bmp'
g24
I2903
tp35
a(g18
g19
g33
I2
I2
I8
g24
S'C:\\Users\\Jbarrett\\Charlie\\charlie\\stimuli\\visual\\digit_symbol\\sym8.bmp'
g24
I2403
tp36
a(g18
g19
g33
I3
I6
I2
g24
S'C:\\Users\\Jbarrett\\Charlie\\charlie\\stimuli\\visual\\digit_symbol\\sym2.bmp'
g24
I1903
tp37
a(g18
g19
g33
I4
I4
I4
g21
S'C:\\Users\\Jbarrett\\Charlie\\charlie\\stimuli\\visual\\digit_symbol\\sym4.bmp'
g21
I2803
tp38
a(g18
g19
g33
I5
I9
I5
g24
S'C:\\Users\\Jbarrett\\Charlie\\charlie\\stimuli\\visual\\digit_symbol\\sym5.bmp'
g24
I2503
tp39
a(g18
g19
g33
I6
I5
I6
g24
S'C:\\Users\\Jbarrett\\Charlie\\charlie\\stimuli\\visual\\digit_symbol\\sym6.bmp'
g24
I2304
tp40
a(g18
g19
g33
I7
I3
I3
g21
S'C:\\Users\\Jbarrett\\Charlie\\charlie\\stimuli\\visual\\digit_symbol\\sym3.bmp'
g21
I3003
tp41
a(g18
g19
g33
I8
I4
I4
g21
S'C:\\Users\\Jbarrett\\Charlie\\charlie\\stimuli\\visual\\digit_symbol\\sym4.bmp'
g21
I2103
tp42
a(g18
g19
g33
I9
I9
I9
g21
S'C:\\Users\\Jbarrett\\Charlie\\charlie\\stimuli\\visual\\digit_symbol\\sym9.bmp'
g21
I2103
tp43
a(g18
g19
g33
I10
I6
I6
g21
S'C:\\Users\\Jbarrett\\Charlie\\charlie\\stimuli\\visual\\digit_symbol\\sym6.bmp'
g21
I2303
tp44
a(g18
g19
g33
I11
I1
I1
g21
S'C:\\Users\\Jbarrett\\Charlie\\charlie\\stimuli\\visual\\digit_symbol\\sym1.bmp'
g21
I2003
tp45
a(g18
g19
g33
I12
I2
I2
g21
S'C:\\Users\\Jbarrett\\Charlie\\charlie\\stimuli\\visual\\digit_symbol\\sym2.bmp'
g21
I2203
tp46
a(g18
g19
g33
I13
I7
I7
g21
S'C:\\Users\\Jbarrett\\Charlie\\charlie\\stimuli\\visual\\digit_symbol\\sym7.bmp'
g21
I2104
tp47
a(g18
g19
g33
I14
I3
I3
g21
S'C:\\Users\\Jbarrett\\Charlie\\charlie\\stimuli\\visual\\digit_symbol\\sym3.bmp'
g21
I2203
tp48
a(g18
g19
g33
I15
I8
I8
g21
S'C:\\Users\\Jbarrett\\Charlie\\charlie\\stimuli\\visual\\digit_symbol\\sym8.bmp'
g21
I2703
tp49
a(g18
g19
g33
I16
I7
I7
g21
S'C:\\Users\\Jbarrett\\Charlie\\charlie\\stimuli\\visual\\digit_symbol\\sym7.bmp'
g21
I1803
tp50
a(g18
g19
g33
I17
I5
I3
g24
S'C:\\Users\\Jbarrett\\Charlie\\charlie\\stimuli\\visual\\digit_symbol\\sym3.bmp'
g24
I2303
tp51
a(g18
g19
g33
I18
I1
I5
g24
S'C:\\Users\\Jbarrett\\Charlie\\charlie\\stimuli\\visual\\digit_symbol\\sym5.bmp'
g24
I2103
tp52
a(g18
g19
g33
I19
I4
I4
g21
S'C:\\Users\\Jbarrett\\Charlie\\charlie\\stimuli\\visual\\digit_symbol\\sym4.bmp'
g21
I1803
tp53
a(g18
g19
g33
I20
I7
I8
g24
S'C:\\Users\\Jbarrett\\Charlie\\charlie\\stimuli\\visual\\digit_symbol\\sym8.bmp'
g24
I3103
tp54
a(g18
g19
g33
I21
I4
I4
g21
S'C:\\Users\\Jbarrett\\Charlie\\charlie\\stimuli\\visual\\digit_symbol\\sym4.bmp'
g21
I1904
tp55
a(g18
g19
g33
I22
I8
I8
g21
S'C:\\Users\\Jbarrett\\Charlie\\charlie\\stimuli\\visual\\digit_symbol\\sym8.bmp'
g21
I2303
tp56
a(g18
g19
g33
I23
I3
I3
g21
S'C:\\Users\\Jbarrett\\Charlie\\charlie\\stimuli\\visual\\digit_symbol\\sym3.bmp'
g21
I1703
tp57
a(g18
g19
g33
I24
I5
I5
g21
S'C:\\Users\\Jbarrett\\Charlie\\charlie\\stimuli\\visual\\digit_symbol\\sym5.bmp'
g21
I2403
tp58
a(g18
g19
g33
I25
I3
I1
g24
S'C:\\Users\\Jbarrett\\Charlie\\charlie\\stimuli\\visual\\digit_symbol\\sym1.bmp'
g24
I3603
tp59
a(g18
g19
g33
I26
I6
I9
g24
S'C:\\Users\\Jbarrett\\Charlie\\charlie\\stimuli\\visual\\digit_symbol\\sym9.bmp'
g24
I3703
tp60
a(g18
g19
g33
I27
I2
I2
g21
S'C:\\Users\\Jbarrett\\Charlie\\charlie\\stimuli\\visual\\digit_symbol\\sym2.bmp'
g21
I1804
tp61
a(g18
g19
g33
I28
I8
I8
g21
S'C:\\Users\\Jbarrett\\Charlie\\charlie\\stimuli\\visual\\digit_symbol\\sym8.bmp'
g21
I2103
tp62
a(g18
g19
g33
I29
I9
I2
g24
S'C:\\Users\\Jbarrett\\Charlie\\charlie\\stimuli\\visual\\digit_symbol\\sym2.bmp'
g24
I1903
tp63
a(g18
g19
g33
I30
I1
I6
g24
S'C:\\Users\\Jbarrett\\Charlie\\charlie\\stimuli\\visual\\digit_symbol\\sym6.bmp'
g24
I3203
tp64
a(g18
g19
g33
I31
I5
I4
g24
S'C:\\Users\\Jbarrett\\Charlie\\charlie\\stimuli\\visual\\digit_symbol\\sym4.bmp'
g24
I2503
tp65
a(g18
g19
g33
I32
I6
I6
g21
S'C:\\Users\\Jbarrett\\Charlie\\charlie\\stimuli\\visual\\digit_symbol\\sym6.bmp'
g21
I1803
tp66
a(g18
g19
g33
I33
I2
I2
g21
S'C:\\Users\\Jbarrett\\Charlie\\charlie\\stimuli\\visual\\digit_symbol\\sym2.bmp'
g21
I3003
tp67
a(g18
g19
g33
I34
I9
I9
g21
S'C:\\Users\\Jbarrett\\Charlie\\charlie\\stimuli\\visual\\digit_symbol\\sym9.bmp'
g24
I2704
tp68
asS'output_format'
p69
(lp70
(S'proband_id'
p71
c__builtin__
str
p72
tp73
a(S'test_name'
p74
g72
tp75
a(S'phase'
p76
g72
tp77
a(S'trialn'
p78
c__builtin__
int
p79
tp80
a(S'digit'
p81
g79
tp82
a(S'symbol'
p83
g79
tp84
a(S'ans'
p85
g72
tp86
a(S'f'
g72
tp87
a(S'rsp'
p88
g72
tp89
a(S'rt'
p90
g79
tp91
asg71
g18
sS'filename'
p92
S'4403_digit_symbol.data'
p93
sS'initialised'
p94
g8
(S'\x07\xdf\x06\x10\n\x1f"\x07\xa1 '
tRp95
sS'last_udated'
p96
g8
(S'\x07\xdf\x06\x10\n\x1f"\x07\xa1 '
tRp97
sg74
S'digit_symbol'
p98
sS'directory'
p99
S'C:\\Users\\Jbarrett\\Charlie\\charlie\\data\\raw'
p100
sS'user_id'
p101
S'jbarrett'
p102
sS'test_started'
p103
I01
sS'abs_filename'
p104
S'C:\\Users\\Jbarrett\\Charlie\\charlie\\data\\raw\\4403_digit_symbol.data'
p105
sS'date_started'
p106
g8
(S'\x07\xdf\x06\x10\n \x13\n\x93\x08'
tRp107
sS'log'
p108
(lp109
(S'2015-06-16 10:31:34.500000'
S'instance created'
p110
tp111
a(S'2015-06-16 10:32:19.702000'
S'instance updated'
p112
tp113
a(S'2015-06-16 10:32:19.713000'
S'pandas DataFrame of data created'
p114
tp115
a(S'2015-06-16 10:32:19.716000'
S'data saved as csv to C:\\Users\\Jbarrett\\Charlie\\charlie\\data\\csv\\4403_digit_symbol.csv'
tp116
a(S'2015-06-16 10:32:23.601000'
g112
tp117
a(S'2015-06-16 10:32:23.611000'
g114
tp118
a(S'2015-06-16 10:32:23.615000'
S'data saved as csv to C:\\Users\\Jbarrett\\Charlie\\charlie\\data\\csv\\4403_digit_symbol.csv'
tp119
a(S'2015-06-16 10:32:28.440000'
g112
tp120
a(S'2015-06-16 10:32:28.450000'
g114
tp121
a(S'2015-06-16 10:32:28.454000'
S'data saved as csv to C:\\Users\\Jbarrett\\Charlie\\charlie\\data\\csv\\4403_digit_symbol.csv'
tp122
a(S'2015-06-16 10:32:33.662000'
g112
tp123
a(S'2015-06-16 10:32:33.669000'
g114
tp124
a(S'2015-06-16 10:32:33.671000'
S'data saved as csv to C:\\Users\\Jbarrett\\Charlie\\charlie\\data\\csv\\4403_digit_symbol.csv'
tp125
a(S'2015-06-16 10:32:36.857000'
g112
tp126
a(S'2015-06-16 10:32:36.868000'
g114
tp127
a(S'2015-06-16 10:32:36.872000'
S'data saved as csv to C:\\Users\\Jbarrett\\Charlie\\charlie\\data\\csv\\4403_digit_symbol.csv'
tp128
a(S'2015-06-16 10:32:40.338000'
g112
tp129
a(S'2015-06-16 10:32:40.348000'
g114
tp130
a(S'2015-06-16 10:32:40.352000'
S'data saved as csv to C:\\Users\\Jbarrett\\Charlie\\charlie\\data\\csv\\4403_digit_symbol.csv'
tp131
a(S'2015-06-16 10:32:43.868000'
g112
tp132
a(S'2015-06-16 10:32:43.879000'
g114
tp133
a(S'2015-06-16 10:32:43.883000'
S'data saved as csv to C:\\Users\\Jbarrett\\Charlie\\charlie\\data\\csv\\4403_digit_symbol.csv'
tp134
a(S'2015-06-16 10:32:54'
g112
tp135
a(S'2015-06-16 10:32:54.011000'
g114
tp136
a(S'2015-06-16 10:32:54.016000'
S'data saved as csv to C:\\Users\\Jbarrett\\Charlie\\charlie\\data\\csv\\4403_digit_symbol.csv'
tp137
a(S'2015-06-16 10:32:57.984000'
g112
tp138
a(S'2015-06-16 10:32:57.996000'
g114
tp139
a(S'2015-06-16 10:32:57.998000'
S'data saved as csv to C:\\Users\\Jbarrett\\Charlie\\charlie\\data\\csv\\4403_digit_symbol.csv'
tp140
a(S'2015-06-16 10:33:01.123000'
g112
tp141
a(S'2015-06-16 10:33:01.134000'
g114
tp142
a(S'2015-06-16 10:33:01.139000'
S'data saved as csv to C:\\Users\\Jbarrett\\Charlie\\charlie\\data\\csv\\4403_digit_symbol.csv'
tp143
a(S'2015-06-16 10:35:16.683000'
g112
tp144
a(S'2015-06-16 10:35:16.694000'
g114
tp145
a(S'2015-06-16 10:35:16.696000'
S'data saved as csv to C:\\Users\\Jbarrett\\Charlie\\charlie\\data\\csv\\4403_digit_symbol.csv'
tp146
asb.