(icharlie.tools.data
Data
p1
(dp2
S'lang'
p3
S'EN'
p4
sS'control'
p5
(lp6
sS'last_updated'
p7
cdatetime
datetime
p8
(S'\x07\xdf\x06\x1d\x0b$\x0e\x0e\xe4\x80'
tRp9
sS'last_opened'
p10
g8
(S'\x07\xdf\x06\x1d\x0b\x1f2\x01\xb5\x80'
tRp11
sS'proj_id'
p12
S'connectivity'
p13
sS'date_done'
p14
NsS'test_done'
p15
I01
sS'data'
p16
(lp17
(S'4412'
p18
S'ctrails'
p19
S'number'
p20
S'practice'
p21
I0
I1
S'Correct'
p22
I6951
I14606
tp23
a(g18
g19
g20
g21
I1
I2
g22
I1280
I14606
tp24
a(g18
g19
g20
g21
I2
I3
g22
I1160
I14606
tp25
a(g18
g19
g20
g21
I3
I4
g22
I1400
I14606
tp26
a(g18
g19
g20
g21
I4
I5
g22
I900
I14606
tp27
a(g18
g19
g20
g21
I5
I6
g22
I1020
I14606
tp28
a(g18
g19
g20
g21
I6
I7
g22
I890
I14606
tp29
a(g18
g19
g20
g21
I7
I8
g22
I960
I14606
tp30
a(g18
g19
g20
S'test'
p31
I0
I1
g22
I2110
I48344
tp32
a(g18
g19
g20
g31
I1
I2
g22
I2110
I48344
tp33
a(g18
g19
g20
g31
I2
I3
g22
I2910
I48344
tp34
a(g18
g19
g20
g31
I3
I4
g22
I2050
I48344
tp35
a(g18
g19
g20
g31
I4
I5
g22
I2360
I48344
tp36
a(g18
g19
g20
g31
I5
I6
g22
I770
I48344
tp37
a(g18
g19
g20
g31
I6
I7
g22
I1010
I48344
tp38
a(g18
g19
g20
g31
I7
I8
g22
I750
I48344
tp39
a(g18
g19
g20
g31
I8
I9
g22
I1080
I48344
tp40
a(g18
g19
g20
g31
I9
I10
g22
I1021
I48344
tp41
a(g18
g19
g20
g31
I10
I11
g22
I1751
I48344
tp42
a(g18
g19
g20
g31
I11
I12
g22
I850
I48344
tp43
a(g18
g19
g20
g31
I12
I13
g22
I3590
I48344
tp44
a(g18
g19
g20
g31
I13
I14
g22
I3580
I48344
tp45
a(g18
g19
g20
g31
I14
I15
g22
I590
I48344
tp46
a(g18
g19
g20
g31
I15
I16
g22
I1300
I48344
tp47
a(g18
g19
g20
g31
I16
I17
g22
I690
I48344
tp48
a(g18
g19
g20
g31
I17
I18
g22
I2000
I48344
tp49
a(g18
g19
g20
g31
I18
I19
g22
I2550
I48344
tp50
a(g18
g19
g20
g31
I19
I20
g22
I970
I48344
tp51
a(g18
g19
g20
g31
I20
I21
g22
I1051
I48344
tp52
a(g18
g19
g20
g31
I21
I22
g22
I3260
I48344
tp53
a(g18
g19
g20
g31
I22
I23
g22
I6350
I48344
tp54
a(g18
g19
g20
g31
I23
I24
g22
I2690
I48344
tp55
a(g18
g19
g20
g31
I24
I25
g22
I870
I48344
tp56
a(g18
g19
S'letter'
p57
g21
I0
S'a'
g22
I1660
I9385
tp58
a(g18
g19
g57
g21
I1
S'b'
g22
I1050
I9385
tp59
a(g18
g19
g57
g21
I2
S'c'
g22
I1050
I9385
tp60
a(g18
g19
g57
g21
I3
S'd'
g22
I1130
I9385
tp61
a(g18
g19
g57
g21
I4
S'e'
g22
I1750
I9385
tp62
a(g18
g19
g57
g21
I5
S'f'
g22
I840
I9385
tp63
a(g18
g19
g57
g21
I6
S'g'
g22
I970
I9385
tp64
a(g18
g19
g57
g21
I7
S'h'
g22
I890
I9385
tp65
a(g18
g19
g57
g31
I0
S'a'
g22
I3190
I45211
tp66
a(g18
g19
g57
g31
I1
S'b'
g22
I3400
I45211
tp67
a(g18
g19
g57
g31
I2
S'c'
g22
I2590
I45211
tp68
a(g18
g19
g57
g31
I3
S'd'
g22
I2200
I45211
tp69
a(g18
g19
g57
g31
I4
S'e'
g22
I1190
I45211
tp70
a(g18
g19
g57
g31
I5
S'f'
g22
I821
I45211
tp71
a(g18
g19
g57
g31
I6
S'g'
g22
I940
I45211
tp72
a(g18
g19
g57
g31
I7
S'h'
g22
I1950
I45211
tp73
a(g18
g19
g57
g31
I8
S'i'
g22
I1440
I45211
tp74
a(g18
g19
g57
g31
I9
S'j'
g22
I760
I45211
tp75
a(g18
g19
g57
g31
I10
S'k'
g22
I1530
I45211
tp76
a(g18
g19
g57
g31
I11
S'l'
g22
I1920
I45211
tp77
a(g18
g19
g57
g31
I12
S'o'
S'Incorrect'
p78
I1140
I45211
tp79
a(g18
g19
g57
g31
I13
S'm'
g22
I7241
I45211
tp80
a(g18
g19
g57
g31
I14
S'n'
g22
I1290
I45211
tp81
a(g18
g19
g57
g31
I15
S'o'
g22
I640
I45211
tp82
a(g18
g19
g57
g31
I16
S'p'
g22
I3250
I45211
tp83
a(g18
g19
g57
g31
I17
S'q'
g22
I1420
I45211
tp84
a(g18
g19
g57
g31
I18
S'r'
g22
I750
I45211
tp85
a(g18
g19
g57
g31
I19
S's'
g22
I830
I45211
tp86
a(g18
g19
g57
g31
I20
S't'
g22
I810
I45211
tp87
a(g18
g19
g57
g31
I21
S'u'
g22
I780
I45211
tp88
a(g18
g19
g57
g31
I22
S'v'
g22
I1150
I45211
tp89
a(g18
g19
g57
g31
I23
S'w'
g22
I2200
I45211
tp90
a(g18
g19
g57
g31
I24
S'x'
g22
I890
I45211
tp91
a(g18
g19
g57
g31
I25
S'y'
g22
I770
I45211
tp92
a(g18
g19
S'number-letter'
p93
g21
I0
I1
g22
I1650
I16518
tp94
a(g18
g19
g93
g21
I1
I2
g78
I1380
I16518
tp95
a(g18
g19
g93
g21
I2
S'a'
g22
I4071
I16518
tp96
a(g18
g19
g93
g21
I3
I2
g22
I1230
I16518
tp97
a(g18
g19
g93
g21
I4
S'b'
g22
I1800
I16518
tp98
a(g18
g19
g93
g21
I5
I3
g22
I1480
I16518
tp99
a(g18
g19
g93
g21
I6
S'd'
g78
I1280
I16518
tp100
a(g18
g19
g93
g21
I7
S'c'
g22
I970
I16518
tp101
a(g18
g19
g93
g21
I8
I4
g22
I1810
I16518
tp102
a(g18
g19
g93
g21
I9
S'd'
g22
I800
I16518
tp103
a(g18
g19
g93
g31
I0
I1
g22
I3680
I69507
tp104
a(g18
g19
g93
g31
I1
S'a'
g22
I1010
I69507
tp105
a(g18
g19
g93
g31
I2
I2
g22
I1150
I69507
tp106
a(g18
g19
g93
g31
I3
S'b'
g22
I2880
I69507
tp107
a(g18
g19
g93
g31
I4
I3
g22
I1720
I69507
tp108
a(g18
g19
g93
g31
I5
S'c'
g22
I2050
I69507
tp109
a(g18
g19
g93
g31
I6
I4
g22
I1130
I69507
tp110
a(g18
g19
g93
g31
I7
S'd'
g22
I4501
I69507
tp111
a(g18
g19
g93
g31
I8
I5
g22
I2540
I69507
tp112
a(g18
g19
g93
g31
I9
S'e'
g22
I1190
I69507
tp113
a(g18
g19
g93
g31
I10
I6
g22
I2090
I69507
tp114
a(g18
g19
g93
g31
I11
S'f'
g22
I1400
I69507
tp115
a(g18
g19
g93
g31
I12
I7
g22
I3890
I69507
tp116
a(g18
g19
g93
g31
I13
S'g'
g22
I6611
I69507
tp117
a(g18
g19
g93
g31
I14
I8
g22
I3600
I69507
tp118
a(g18
g19
g93
g31
I15
S'h'
g22
I460
I69507
tp119
a(g18
g19
g93
g31
I16
I9
g22
I2560
I69507
tp120
a(g18
g19
g93
g31
I17
S'i'
g22
I4221
I69507
tp121
a(g18
g19
g93
g31
I18
I10
g22
I3610
I69507
tp122
a(g18
g19
g93
g31
I19
S'j'
g22
I1840
I69507
tp123
a(g18
g19
g93
g31
I20
I11
g22
I3340
I69507
tp124
a(g18
g19
g93
g31
I21
S'k'
g22
I1120
I69507
tp125
a(g18
g19
g93
g31
I22
I13
g78
I2230
I69507
tp126
a(g18
g19
g93
g31
I23
I12
g22
I3630
I69507
tp127
a(g18
g19
g93
g31
I24
S'l'
g22
I1221
I69507
tp128
a(g18
g19
g93
g31
I25
I13
g22
I2130
I69507
tp129
asS'output_format'
p130
(lp131
(S'proband_id'
p132
c__builtin__
str
p133
tp134
a(S'test_name'
p135
g133
tp136
a(S'phase'
p137
g133
tp138
a(S'trial_type'
p139
g133
tp140
a(S'n'
c__builtin__
int
p141
tp142
a(S'rsp'
p143
g133
tp144
a(S'corr'
p145
g133
tp146
a(S'rt'
p147
g141
tp148
a(S'total_time'
p149
g141
tp150
asg132
g18
sS'filename'
p151
S'4412_ctrails.data'
p152
sS'initialised'
p153
g8
(S'\x07\xdf\x06\x1d\x0b\x1f2\x01\xb5\x80'
tRp154
sS'last_udated'
p155
g8
(S'\x07\xdf\x06\x1d\x0b\x1f2\x01\xb5\x80'
tRp156
sg135
S'ctrails'
p157
sS'directory'
p158
S'C:\\Users\\Jbarrett\\Charlie\\charlie\\data\\raw'
p159
sS'user_id'
p160
S'sbuccheri'
p161
sS'test_started'
p162
I01
sS'abs_filename'
p163
S'C:\\Users\\Jbarrett\\Charlie\\charlie\\data\\raw\\4412_ctrails.data'
p164
sS'date_started'
p165
g8
(S'\x07\xdf\x06\x1d\x0b \x11\x06Q0'
tRp166
sS'log'
p167
(lp168
(S'2015-06-29 11:31:50.112000'
S'instance created'
p169
tp170
a(S'2015-06-29 11:32:17.424000'
S'instance updated'
p171
tp172
a(S'2015-06-29 11:32:17.433000'
S'pandas DataFrame of data created'
p173
tp174
a(S'2015-06-29 11:32:17.438000'
S'data saved as csv to C:\\Users\\Jbarrett\\Charlie\\charlie\\data\\csv\\4412_ctrails.csv'
tp175
a(S'2015-06-29 11:33:13.733000'
g171
tp176
a(S'2015-06-29 11:33:13.743000'
g173
tp177
a(S'2015-06-29 11:33:13.747000'
S'data saved as csv to C:\\Users\\Jbarrett\\Charlie\\charlie\\data\\csv\\4412_ctrails.csv'
tp178
a(S'2015-06-29 11:33:31.201000'
g171
tp179
a(S'2015-06-29 11:33:31.211000'
g173
tp180
a(S'2015-06-29 11:33:31.215000'
S'data saved as csv to C:\\Users\\Jbarrett\\Charlie\\charlie\\data\\csv\\4412_ctrails.csv'
tp181
a(S'2015-06-29 11:34:24.356000'
g171
tp182
a(S'2015-06-29 11:34:24.366000'
g173
tp183
a(S'2015-06-29 11:34:24.370000'
S'data saved as csv to C:\\Users\\Jbarrett\\Charlie\\charlie\\data\\csv\\4412_ctrails.csv'
tp184
a(S'2015-06-29 11:34:56.161000'
g171
tp185
a(S'2015-06-29 11:34:56.171000'
g173
tp186
a(S'2015-06-29 11:34:56.173000'
S'data saved as csv to C:\\Users\\Jbarrett\\Charlie\\charlie\\data\\csv\\4412_ctrails.csv'
tp187
a(S'2015-06-29 11:36:14.958000'
g171
tp188
a(S'2015-06-29 11:36:14.969000'
g173
tp189
a(S'2015-06-29 11:36:14.975000'
S'data saved as csv to C:\\Users\\Jbarrett\\Charlie\\charlie\\data\\csv\\4412_ctrails.csv'
tp190
asb.