(icharlie.tools.data
Data
p1
(dp2
S'lang'
p3
S'EN'
p4
sS'control'
p5
(lp6
sS'last_updated'
p7
cdatetime
datetime
p8
(S'\x07\xdf\x07\x01\x0e\x1f,\x04\xbe\xd8'
tRp9
sS'last_opened'
p10
g8
(S'\x07\xdf\x07\x01\x0e\x1a\x01\x05C\xa8'
tRp11
sS'proj_id'
p12
S'connectivity'
p13
sS'date_done'
p14
NsS'test_done'
p15
I01
sS'data'
p16
(lp17
(S'4414'
p18
S'updating'
p19
S'prac'
p20
I0
I0
I4
I4
S'------------'
p21
S'4,4,4,4,4,4,4,4,4,4,4,4,4'
p22
I4
I2161
tp23
a(g18
g19
S'prac'
p24
I1
I1
I8
I12
S'-----------d'
p25
S'8,8,8,8,8,8,8,8,8,8,8,8,12'
p26
I12
I1040
tp27
a(g18
g19
S'prac'
p28
I2
I2
I9
I6
S'-----u-----r'
p29
S'9,9,9,9,9,9,5,5,5,5,5,5,6'
p30
I6
I2910
tp31
a(g18
g19
S'test'
p32
I0
I0
I13
I13
S'------------'
p33
S'13,13,13,13,13,13,13,13,13,13,13,13,13'
p34
I13
I760
tp35
a(g18
g19
S'test'
p36
I1
I0
I15
I15
S'------------'
p37
S'15,15,15,15,15,15,15,15,15,15,15,15,15'
p38
I15
I1080
tp39
a(g18
g19
S'test'
p40
I2
I0
I13
I13
S'------------'
p41
S'13,13,13,13,13,13,13,13,13,13,13,13,13'
p42
I13
I1030
tp43
a(g18
g19
S'test'
p44
I3
I1
I3
I2
S'-----------l'
p45
S'3,3,3,3,3,3,3,3,3,3,3,3,2'
p46
I2
I1380
tp47
a(g18
g19
S'test'
p48
I4
I1
I1
I2
S'-----------r'
p49
S'1,1,1,1,1,1,1,1,1,1,1,1,2'
p50
I2
I1450
tp51
a(g18
g19
S'test'
p52
I5
I1
I0
I4
S'-----------d'
p53
S'0,0,0,0,0,0,0,0,0,0,0,0,4'
p54
I4
I1110
tp55
a(g18
g19
S'test'
p56
I6
I2
I5
I2
S'-----u-----r'
p57
S'5,5,5,5,5,5,1,1,1,1,1,1,2'
p58
I2
I2210
tp59
a(g18
g19
S'test'
p60
I7
I2
I13
I8
S'-----l-----u'
p61
S'13,13,13,13,13,13,12,12,12,12,12,12,8'
p62
I8
I1840
tp63
a(g18
g19
S'test'
p64
I8
I2
I7
I2
S'-----l-----u'
p65
S'7,7,7,7,7,7,6,6,6,6,6,6,2'
p66
I2
I2091
tp67
a(g18
g19
S'test'
p68
I9
I3
I6
I15
S'---d---d---r'
p69
S'6,6,6,6,10,10,10,10,14,14,14,14,15'
p70
I15
I2080
tp71
a(g18
g19
S'test'
p72
I10
I3
I15
I11
S'---l---r---u'
p73
S'15,15,15,15,14,14,14,14,15,15,15,15,11'
p74
I7
I2080
tp75
a(g18
g19
S'test'
p76
I11
I3
I10
I6
S'---l---r---u'
p77
S'10,10,10,10,9,9,9,9,10,10,10,10,6'
p78
I14
I6861
tp79
a(g18
g19
S'test'
p80
I12
I4
I13
I15
S'--u--d--r--r'
p81
S'13,13,13,9,9,9,13,13,13,14,14,14,15'
p82
I14
I2190
tp83
a(g18
g19
S'test'
p84
I13
I4
I3
I6
S'--d--u--d--l'
p85
S'3,3,3,7,7,7,3,3,3,7,7,7,6'
p86
I6
I930
tp87
a(g18
g19
S'test'
p88
I14
I4
I0
I5
S'--d--u--d--r'
p89
S'0,0,0,4,4,4,0,0,0,4,4,4,5'
p90
I1
I1310
tp91
a(g18
g19
S'test'
p92
I15
I6
I14
I11
S'-r-u-d-u-u-d'
p93
S'14,14,15,15,11,11,15,15,11,11,7,7,11'
p94
I5
I1440
tp95
a(g18
g19
S'test'
p96
I16
I6
I0
I10
S'-d-d-d-r-r-u'
p97
S'0,0,4,4,8,8,12,12,13,13,14,14,10'
p98
I10
I3280
tp99
a(g18
g19
S'test'
p100
I17
I6
I1
I9
S'-d-d-d-r-u-l'
p101
S'1,1,5,5,9,9,13,13,14,14,10,10,9'
p102
I5
I3560
tp103
a(g18
g19
S'test'
p104
I18
I8
I10
I7
S'-lu-lu-rr-dr'
p105
S'10,10,9,5,5,4,0,0,1,2,2,6,7'
p106
I7
I1640
tp107
a(g18
g19
S'test'
p108
I19
I8
I14
I9
S'-rl-rl-ul-lr'
p109
S'14,14,15,14,14,15,14,14,10,9,9,8,9'
p110
I13
I1440
tp111
a(g18
g19
S'test'
p112
I20
I8
I3
I1
S'-ld-rd-uu-ll'
p113
S'3,3,2,6,6,7,11,11,7,3,3,2,1'
p114
I3
I1340
tp115
a(g18
g19
S'test'
p116
I21
I9
I5
I4
S'-udd-ldr-luu'
p117
S'5,5,1,5,9,9,8,12,13,13,12,8,4'
p118
I10
I900
tp119
a(g18
g19
S'test'
p120
I22
I9
I3
I0
S'-dll-rrl-llu'
p121
S'3,3,7,6,5,5,6,7,6,6,5,4,0'
p122
I10
I1990
tp123
a(g18
g19
S'test'
p124
I23
I9
I10
I9
S'-dur-udl-dul'
p125
S'10,10,14,10,11,11,7,11,10,10,14,10,9'
p126
I2
I1480
tp127
asS'output_format'
p128
(lp129
(S'proband_id'
p130
c__builtin__
str
p131
tp132
a(S'test_name'
p133
g131
tp134
a(S'phase'
p135
g131
tp136
a(S'trialn'
p137
c__builtin__
int
p138
tp139
a(S'updates'
p140
g138
tp141
a(S'origin'
p142
g138
tp143
a(S'endpoint'
p144
g138
tp145
a(S'moves'
p146
g131
tp147
a(S'marginalpositions'
p148
g131
tp149
a(S'rsp'
p150
g138
tp151
a(S'rt'
p152
g138
tp153
asg130
g18
sS'filename'
p154
S'4414_updating.data'
p155
sS'initialised'
p156
g8
(S'\x07\xdf\x07\x01\x0e\x1a\x01\x05C\xa8'
tRp157
sS'last_udated'
p158
g8
(S'\x07\xdf\x07\x01\x0e\x1a\x01\x05C\xa8'
tRp159
sg133
S'updating'
p160
sS'directory'
p161
S'c:\\Charlie\\charlie\\data\\raw'
p162
sS'user_id'
p163
S'oleach'
p164
sS'test_started'
p165
I01
sS'abs_filename'
p166
S'c:\\Charlie\\charlie\\data\\raw\\4414_updating.data'
p167
sS'date_started'
p168
g8
(S'\x07\xdf\x07\x01\x0e\x1a9\x06\x87\xe0'
tRp169
sS'log'
p170
(lp171
(S'2015-07-01 14:26:01.345000'
S'instance created'
p172
tp173
a(S'2015-07-01 14:26:57.444000'
S'instance updated'
p174
tp175
a(S'2015-07-01 14:26:57.453000'
S'pandas DataFrame of data created'
p176
tp177
a(S'2015-07-01 14:26:57.460000'
S'data saved as csv to c:\\Charlie\\charlie\\data\\csv\\4414_updating.csv'
tp178
a(S'2015-07-01 14:26:57.466000'
g176
tp179
a(S'2015-07-01 14:27:08.263000'
g174
tp180
a(S'2015-07-01 14:27:08.275000'
g176
tp181
a(S'2015-07-01 14:27:08.279000'
S'data saved as csv to c:\\Charlie\\charlie\\data\\csv\\4414_updating.csv'
tp182
a(S'2015-07-01 14:27:08.287000'
g176
tp183
a(S'2015-07-01 14:27:20.955000'
g174
tp184
a(S'2015-07-01 14:27:20.967000'
g176
tp185
a(S'2015-07-01 14:27:20.970000'
S'data saved as csv to c:\\Charlie\\charlie\\data\\csv\\4414_updating.csv'
tp186
a(S'2015-07-01 14:27:20.977000'
g176
tp187
a(S'2015-07-01 14:27:35.247000'
g174
tp188
a(S'2015-07-01 14:27:35.260000'
g176
tp189
a(S'2015-07-01 14:27:35.264000'
S'data saved as csv to c:\\Charlie\\charlie\\data\\csv\\4414_updating.csv'
tp190
a(S'2015-07-01 14:27:35.277000'
g176
tp191
a(S'2015-07-01 14:27:45.215000'
g174
tp192
a(S'2015-07-01 14:27:45.227000'
g176
tp193
a(S'2015-07-01 14:27:45.231000'
S'data saved as csv to c:\\Charlie\\charlie\\data\\csv\\4414_updating.csv'
tp194
a(S'2015-07-01 14:27:45.242000'
g176
tp195
a(S'2015-07-01 14:27:55.127000'
g174
tp196
a(S'2015-07-01 14:27:55.139000'
g176
tp197
a(S'2015-07-01 14:27:55.143000'
S'data saved as csv to c:\\Charlie\\charlie\\data\\csv\\4414_updating.csv'
tp198
a(S'2015-07-01 14:27:55.155000'
g176
tp199
a(S'2015-07-01 14:28:05.391000'
g174
tp200
a(S'2015-07-01 14:28:05.403000'
g176
tp201
a(S'2015-07-01 14:28:05.407000'
S'data saved as csv to c:\\Charlie\\charlie\\data\\csv\\4414_updating.csv'
tp202
a(S'2015-07-01 14:28:05.419000'
g176
tp203
a(S'2015-07-01 14:28:15.723000'
g174
tp204
a(S'2015-07-01 14:28:15.735000'
g176
tp205
a(S'2015-07-01 14:28:15.739000'
S'data saved as csv to c:\\Charlie\\charlie\\data\\csv\\4414_updating.csv'
tp206
a(S'2015-07-01 14:28:15.752000'
g176
tp207
a(S'2015-07-01 14:28:25.716000'
g174
tp208
a(S'2015-07-01 14:28:25.729000'
g176
tp209
a(S'2015-07-01 14:28:25.733000'
S'data saved as csv to c:\\Charlie\\charlie\\data\\csv\\4414_updating.csv'
tp210
a(S'2015-07-01 14:28:25.740000'
g176
tp211
a(S'2015-07-01 14:28:36.802000'
g174
tp212
a(S'2015-07-01 14:28:36.814000'
g176
tp213
a(S'2015-07-01 14:28:36.818000'
S'data saved as csv to c:\\Charlie\\charlie\\data\\csv\\4414_updating.csv'
tp214
a(S'2015-07-01 14:28:36.830000'
g176
tp215
a(S'2015-07-01 14:28:47.528000'
g174
tp216
a(S'2015-07-01 14:28:47.540000'
g176
tp217
a(S'2015-07-01 14:28:47.544000'
S'data saved as csv to c:\\Charlie\\charlie\\data\\csv\\4414_updating.csv'
tp218
a(S'2015-07-01 14:28:47.551000'
g176
tp219
a(S'2015-07-01 14:28:58.491000'
g174
tp220
a(S'2015-07-01 14:28:58.503000'
g176
tp221
a(S'2015-07-01 14:28:58.507000'
S'data saved as csv to c:\\Charlie\\charlie\\data\\csv\\4414_updating.csv'
tp222
a(S'2015-07-01 14:28:58.519000'
g176
tp223
a(S'2015-07-01 14:29:09.460000'
g174
tp224
a(S'2015-07-01 14:29:09.472000'
g176
tp225
a(S'2015-07-01 14:29:09.475000'
S'data saved as csv to c:\\Charlie\\charlie\\data\\csv\\4414_updating.csv'
tp226
a(S'2015-07-01 14:29:09.482000'
g176
tp227
a(S'2015-07-01 14:29:20.414000'
g174
tp228
a(S'2015-07-01 14:29:20.426000'
g176
tp229
a(S'2015-07-01 14:29:20.430000'
S'data saved as csv to c:\\Charlie\\charlie\\data\\csv\\4414_updating.csv'
tp230
a(S'2015-07-01 14:29:20.442000'
g176
tp231
a(S'2015-07-01 14:29:36.159000'
g174
tp232
a(S'2015-07-01 14:29:36.171000'
g176
tp233
a(S'2015-07-01 14:29:36.174000'
S'data saved as csv to c:\\Charlie\\charlie\\data\\csv\\4414_updating.csv'
tp234
a(S'2015-07-01 14:29:36.181000'
g176
tp235
a(S'2015-07-01 14:29:47.228000'
g174
tp236
a(S'2015-07-01 14:29:47.242000'
g176
tp237
a(S'2015-07-01 14:29:47.246000'
S'data saved as csv to c:\\Charlie\\charlie\\data\\csv\\4414_updating.csv'
tp238
a(S'2015-07-01 14:29:47.258000'
g176
tp239
a(S'2015-07-01 14:29:57.044000'
g174
tp240
a(S'2015-07-01 14:29:57.057000'
g176
tp241
a(S'2015-07-01 14:29:57.061000'
S'data saved as csv to c:\\Charlie\\charlie\\data\\csv\\4414_updating.csv'
tp242
a(S'2015-07-01 14:29:57.073000'
g176
tp243
a(S'2015-07-01 14:30:07.240000'
g174
tp244
a(S'2015-07-01 14:30:07.251000'
g176
tp245
a(S'2015-07-01 14:30:07.254000'
S'data saved as csv to c:\\Charlie\\charlie\\data\\csv\\4414_updating.csv'
tp246
a(S'2015-07-01 14:30:07.261000'
g176
tp247
a(S'2015-07-01 14:30:17.558000'
g174
tp248
a(S'2015-07-01 14:30:17.570000'
g176
tp249
a(S'2015-07-01 14:30:17.572000'
S'data saved as csv to c:\\Charlie\\charlie\\data\\csv\\4414_updating.csv'
tp250
a(S'2015-07-01 14:30:17.579000'
g176
tp251
a(S'2015-07-01 14:30:29.716000'
g174
tp252
a(S'2015-07-01 14:30:29.729000'
g176
tp253
a(S'2015-07-01 14:30:29.733000'
S'data saved as csv to c:\\Charlie\\charlie\\data\\csv\\4414_updating.csv'
tp254
a(S'2015-07-01 14:30:29.745000'
g176
tp255
a(S'2015-07-01 14:30:42.162000'
g174
tp256
a(S'2015-07-01 14:30:42.175000'
g176
tp257
a(S'2015-07-01 14:30:42.179000'
S'data saved as csv to c:\\Charlie\\charlie\\data\\csv\\4414_updating.csv'
tp258
a(S'2015-07-01 14:30:42.191000'
g176
tp259
a(S'2015-07-01 14:30:52.690000'
g174
tp260
a(S'2015-07-01 14:30:52.702000'
g176
tp261
a(S'2015-07-01 14:30:52.706000'
S'data saved as csv to c:\\Charlie\\charlie\\data\\csv\\4414_updating.csv'
tp262
a(S'2015-07-01 14:30:52.719000'
g176
tp263
a(S'2015-07-01 14:31:03.020000'
g174
tp264
a(S'2015-07-01 14:31:03.033000'
g176
tp265
a(S'2015-07-01 14:31:03.037000'
S'data saved as csv to c:\\Charlie\\charlie\\data\\csv\\4414_updating.csv'
tp266
a(S'2015-07-01 14:31:03.048000'
g176
tp267
a(S'2015-07-01 14:31:13.246000'
g174
tp268
a(S'2015-07-01 14:31:13.258000'
g176
tp269
a(S'2015-07-01 14:31:13.263000'
S'data saved as csv to c:\\Charlie\\charlie\\data\\csv\\4414_updating.csv'
tp270
a(S'2015-07-01 14:31:13.275000'
g176
tp271
a(S'2015-07-01 14:31:23.034000'
g174
tp272
a(S'2015-07-01 14:31:23.047000'
g176
tp273
a(S'2015-07-01 14:31:23.051000'
S'data saved as csv to c:\\Charlie\\charlie\\data\\csv\\4414_updating.csv'
tp274
a(S'2015-07-01 14:31:23.060000'
g176
tp275
a(S'2015-07-01 14:31:33.910000'
g174
tp276
a(S'2015-07-01 14:31:33.922000'
g176
tp277
a(S'2015-07-01 14:31:33.927000'
S'data saved as csv to c:\\Charlie\\charlie\\data\\csv\\4414_updating.csv'
tp278
a(S'2015-07-01 14:31:33.939000'
g176
tp279
a(S'2015-07-01 14:31:44.282000'
g174
tp280
a(S'2015-07-01 14:31:44.295000'
g176
tp281
a(S'2015-07-01 14:31:44.297000'
S'data saved as csv to c:\\Charlie\\charlie\\data\\csv\\4414_updating.csv'
tp282
a(S'2015-07-01 14:31:44.306000'
g176
tp283
asb.