(icharlie.tools.data
Data
p1
(dp2
S'lang'
p3
S'EN'
p4
sS'control'
p5
(lp6
sS'last_updated'
p7
cdatetime
datetime
p8
(S'\x07\xdf\x07\n\x0f\x00*\x07\xfe\xe0'
tRp9
sS'last_opened'
p10
g8
(S"\x07\xdf\x07\n\x0e6'\t\xac\x90"
tRp11
sS'proj_id'
p12
S'connectivity'
p13
sS'date_done'
p14
NsS'test_done'
p15
I01
sS'data'
p16
(lp17
(S'4416'
p18
S'scap'
p19
S'practice'
p20
I3
I0
S'Yes'
p21
S'C:\\Users\\Jbarrett\\Charlie\\charlie\\stimuli\\visual\\scap\\practice-1.BMP'
S'C:\\Users\\Jbarrett\\Charlie\\charlie\\stimuli\\visual\\scap\\practice-2.BMP'
g21
I980
tp22
a(g18
g19
g20
I4
I1
S'No'
p23
S'C:\\Users\\Jbarrett\\Charlie\\charlie\\stimuli\\visual\\scap\\practice-3.BMP'
S'C:\\Users\\Jbarrett\\Charlie\\charlie\\stimuli\\visual\\scap\\practice-4.BMP'
g23
I1010
tp24
a(g18
g19
g20
I5
I2
g21
S'C:\\Users\\Jbarrett\\Charlie\\charlie\\stimuli\\visual\\scap\\practice-5.BMP'
S'C:\\Users\\Jbarrett\\Charlie\\charlie\\stimuli\\visual\\scap\\practice-6.BMP'
g21
I1020
tp25
a(g18
g19
S'test'
p26
I3
I0
g21
S'C:\\Users\\Jbarrett\\Charlie\\charlie\\stimuli\\visual\\scap\\load3-1.BMP'
S'C:\\Users\\Jbarrett\\Charlie\\charlie\\stimuli\\visual\\scap\\load3-2.BMP'
g21
I520
tp27
a(g18
g19
g26
I3
I1
g23
S'C:\\Users\\Jbarrett\\Charlie\\charlie\\stimuli\\visual\\scap\\load3-3.BMP'
S'C:\\Users\\Jbarrett\\Charlie\\charlie\\stimuli\\visual\\scap\\load3-4.BMP'
g23
I910
tp28
a(g18
g19
g26
I3
I2
g21
S'C:\\Users\\Jbarrett\\Charlie\\charlie\\stimuli\\visual\\scap\\load3-5.BMP'
S'C:\\Users\\Jbarrett\\Charlie\\charlie\\stimuli\\visual\\scap\\load3-6.BMP'
g21
I820
tp29
a(g18
g19
g26
I3
I3
g21
S'C:\\Users\\Jbarrett\\Charlie\\charlie\\stimuli\\visual\\scap\\load3-7.BMP'
S'C:\\Users\\Jbarrett\\Charlie\\charlie\\stimuli\\visual\\scap\\load3-8.BMP'
g21
I1690
tp30
a(g18
g19
g26
I3
I4
g23
S'C:\\Users\\Jbarrett\\Charlie\\charlie\\stimuli\\visual\\scap\\load3-9.BMP'
S'C:\\Users\\Jbarrett\\Charlie\\charlie\\stimuli\\visual\\scap\\load3-10.BMP'
g23
I950
tp31
a(g18
g19
g26
I3
I5
g21
S'C:\\Users\\Jbarrett\\Charlie\\charlie\\stimuli\\visual\\scap\\load3-11.BMP'
S'C:\\Users\\Jbarrett\\Charlie\\charlie\\stimuli\\visual\\scap\\load3-12.BMP'
g23
I2350
tp32
a(g18
g19
g26
I3
I6
g23
S'C:\\Users\\Jbarrett\\Charlie\\charlie\\stimuli\\visual\\scap\\load3-13.BMP'
S'C:\\Users\\Jbarrett\\Charlie\\charlie\\stimuli\\visual\\scap\\load3-14.BMP'
g21
I1740
tp33
a(g18
g19
g26
I3
I7
g23
S'C:\\Users\\Jbarrett\\Charlie\\charlie\\stimuli\\visual\\scap\\load3-15.BMP'
S'C:\\Users\\Jbarrett\\Charlie\\charlie\\stimuli\\visual\\scap\\load3-16.BMP'
g23
I940
tp34
a(g18
g19
g26
I3
I8
g21
S'C:\\Users\\Jbarrett\\Charlie\\charlie\\stimuli\\visual\\scap\\load3-17.BMP'
S'C:\\Users\\Jbarrett\\Charlie\\charlie\\stimuli\\visual\\scap\\load3-18.BMP'
g23
I860
tp35
a(g18
g19
g26
I3
I9
g23
S'C:\\Users\\Jbarrett\\Charlie\\charlie\\stimuli\\visual\\scap\\load3-19.BMP'
S'C:\\Users\\Jbarrett\\Charlie\\charlie\\stimuli\\visual\\scap\\load3-20.BMP'
g21
I320
tp36
a(g18
g19
g26
I3
I10
g21
S'C:\\Users\\Jbarrett\\Charlie\\charlie\\stimuli\\visual\\scap\\load3-21.BMP'
S'C:\\Users\\Jbarrett\\Charlie\\charlie\\stimuli\\visual\\scap\\load3-22.BMP'
g23
I1470
tp37
a(g18
g19
g26
I3
I11
g21
S'C:\\Users\\Jbarrett\\Charlie\\charlie\\stimuli\\visual\\scap\\load3-23.BMP'
S'C:\\Users\\Jbarrett\\Charlie\\charlie\\stimuli\\visual\\scap\\load3-24.BMP'
g21
I750
tp38
a(g18
g19
g26
I3
I12
g23
S'C:\\Users\\Jbarrett\\Charlie\\charlie\\stimuli\\visual\\scap\\load3-25.BMP'
S'C:\\Users\\Jbarrett\\Charlie\\charlie\\stimuli\\visual\\scap\\load3-26.BMP'
g21
I1750
tp39
a(g18
g19
g26
I3
I13
g23
S'C:\\Users\\Jbarrett\\Charlie\\charlie\\stimuli\\visual\\scap\\load3-27.BMP'
S'C:\\Users\\Jbarrett\\Charlie\\charlie\\stimuli\\visual\\scap\\load3-28.BMP'
g21
I1280
tp40
a(g18
g19
g26
I4
I0
g23
S'C:\\Users\\Jbarrett\\Charlie\\charlie\\stimuli\\visual\\scap\\load4-1.BMP'
S'C:\\Users\\Jbarrett\\Charlie\\charlie\\stimuli\\visual\\scap\\load4-2.BMP'
g23
I890
tp41
a(g18
g19
g26
I4
I1
g21
S'C:\\Users\\Jbarrett\\Charlie\\charlie\\stimuli\\visual\\scap\\load4-3.BMP'
S'C:\\Users\\Jbarrett\\Charlie\\charlie\\stimuli\\visual\\scap\\load4-4.BMP'
g21
I680
tp42
a(g18
g19
g26
I4
I2
g21
S'C:\\Users\\Jbarrett\\Charlie\\charlie\\stimuli\\visual\\scap\\load4-5.BMP'
S'C:\\Users\\Jbarrett\\Charlie\\charlie\\stimuli\\visual\\scap\\load4-6.BMP'
g21
I1100
tp43
a(g18
g19
g26
I4
I3
g23
S'C:\\Users\\Jbarrett\\Charlie\\charlie\\stimuli\\visual\\scap\\load4-7.BMP'
S'C:\\Users\\Jbarrett\\Charlie\\charlie\\stimuli\\visual\\scap\\load4-8.BMP'
g21
I920
tp44
a(g18
g19
g26
I4
I4
g23
S'C:\\Users\\Jbarrett\\Charlie\\charlie\\stimuli\\visual\\scap\\load4-9.BMP'
S'C:\\Users\\Jbarrett\\Charlie\\charlie\\stimuli\\visual\\scap\\load4-10.BMP'
g21
I1670
tp45
a(g18
g19
g26
I4
I5
g21
S'C:\\Users\\Jbarrett\\Charlie\\charlie\\stimuli\\visual\\scap\\load4-11.BMP'
S'C:\\Users\\Jbarrett\\Charlie\\charlie\\stimuli\\visual\\scap\\load4-12.BMP'
g21
I980
tp46
a(g18
g19
g26
I4
I6
g23
S'C:\\Users\\Jbarrett\\Charlie\\charlie\\stimuli\\visual\\scap\\load4-13.BMP'
S'C:\\Users\\Jbarrett\\Charlie\\charlie\\stimuli\\visual\\scap\\load4-14.BMP'
g23
I791
tp47
a(g18
g19
g26
I4
I7
g21
S'C:\\Users\\Jbarrett\\Charlie\\charlie\\stimuli\\visual\\scap\\load4-15.BMP'
S'C:\\Users\\Jbarrett\\Charlie\\charlie\\stimuli\\visual\\scap\\load4-16.BMP'
g21
I1030
tp48
a(g18
g19
g26
I4
I8
g23
S'C:\\Users\\Jbarrett\\Charlie\\charlie\\stimuli\\visual\\scap\\load4-17.BMP'
S'C:\\Users\\Jbarrett\\Charlie\\charlie\\stimuli\\visual\\scap\\load4-18.BMP'
g23
I1810
tp49
a(g18
g19
g26
I4
I9
g21
S'C:\\Users\\Jbarrett\\Charlie\\charlie\\stimuli\\visual\\scap\\load4-19.BMP'
S'C:\\Users\\Jbarrett\\Charlie\\charlie\\stimuli\\visual\\scap\\load4-20.BMP'
g21
I820
tp50
a(g18
g19
g26
I4
I10
g21
S'C:\\Users\\Jbarrett\\Charlie\\charlie\\stimuli\\visual\\scap\\load4-21.BMP'
S'C:\\Users\\Jbarrett\\Charlie\\charlie\\stimuli\\visual\\scap\\load4-22.BMP'
g21
I1140
tp51
a(g18
g19
g26
I4
I11
g23
S'C:\\Users\\Jbarrett\\Charlie\\charlie\\stimuli\\visual\\scap\\load4-23.BMP'
S'C:\\Users\\Jbarrett\\Charlie\\charlie\\stimuli\\visual\\scap\\load4-24.BMP'
g21
I570
tp52
a(g18
g19
g26
I4
I12
g21
S'C:\\Users\\Jbarrett\\Charlie\\charlie\\stimuli\\visual\\scap\\load4-25.BMP'
S'C:\\Users\\Jbarrett\\Charlie\\charlie\\stimuli\\visual\\scap\\load4-26.BMP'
g21
I1130
tp53
a(g18
g19
g26
I4
I13
g23
S'C:\\Users\\Jbarrett\\Charlie\\charlie\\stimuli\\visual\\scap\\load4-27.BMP'
S'C:\\Users\\Jbarrett\\Charlie\\charlie\\stimuli\\visual\\scap\\load4-28.BMP'
g21
I1670
tp54
a(g18
g19
g26
I5
I0
g21
S'C:\\Users\\Jbarrett\\Charlie\\charlie\\stimuli\\visual\\scap\\load5-1.BMP'
S'C:\\Users\\Jbarrett\\Charlie\\charlie\\stimuli\\visual\\scap\\load5-2.BMP'
g21
I1600
tp55
a(g18
g19
g26
I5
I1
g21
S'C:\\Users\\Jbarrett\\Charlie\\charlie\\stimuli\\visual\\scap\\load5-3.BMP'
S'C:\\Users\\Jbarrett\\Charlie\\charlie\\stimuli\\visual\\scap\\load5-4.BMP'
g23
I1500
tp56
a(g18
g19
g26
I5
I2
g21
S'C:\\Users\\Jbarrett\\Charlie\\charlie\\stimuli\\visual\\scap\\load5-5.BMP'
S'C:\\Users\\Jbarrett\\Charlie\\charlie\\stimuli\\visual\\scap\\load5-6.BMP'
g21
I880
tp57
a(g18
g19
g26
I5
I3
g21
S'C:\\Users\\Jbarrett\\Charlie\\charlie\\stimuli\\visual\\scap\\load5-7.BMP'
S'C:\\Users\\Jbarrett\\Charlie\\charlie\\stimuli\\visual\\scap\\load5-8.BMP'
g21
I980
tp58
a(g18
g19
g26
I5
I4
g21
S'C:\\Users\\Jbarrett\\Charlie\\charlie\\stimuli\\visual\\scap\\load5-9.BMP'
S'C:\\Users\\Jbarrett\\Charlie\\charlie\\stimuli\\visual\\scap\\load5-10.BMP'
g23
I3141
tp59
a(g18
g19
g26
I5
I5
g21
S'C:\\Users\\Jbarrett\\Charlie\\charlie\\stimuli\\visual\\scap\\load5-11.BMP'
S'C:\\Users\\Jbarrett\\Charlie\\charlie\\stimuli\\visual\\scap\\load5-12.BMP'
g21
I830
tp60
a(g18
g19
g26
I5
I6
g23
S'C:\\Users\\Jbarrett\\Charlie\\charlie\\stimuli\\visual\\scap\\load5-13.BMP'
S'C:\\Users\\Jbarrett\\Charlie\\charlie\\stimuli\\visual\\scap\\load5-14.BMP'
g23
I1711
tp61
a(g18
g19
g26
I5
I7
g23
S'C:\\Users\\Jbarrett\\Charlie\\charlie\\stimuli\\visual\\scap\\load5-15.BMP'
S'C:\\Users\\Jbarrett\\Charlie\\charlie\\stimuli\\visual\\scap\\load5-16.BMP'
g21
I100
tp62
a(g18
g19
g26
I5
I8
g23
S'C:\\Users\\Jbarrett\\Charlie\\charlie\\stimuli\\visual\\scap\\load5-17.BMP'
S'C:\\Users\\Jbarrett\\Charlie\\charlie\\stimuli\\visual\\scap\\load5-18.BMP'
g21
I2540
tp63
a(g18
g19
g26
I5
I9
g23
S'C:\\Users\\Jbarrett\\Charlie\\charlie\\stimuli\\visual\\scap\\load5-19.BMP'
S'C:\\Users\\Jbarrett\\Charlie\\charlie\\stimuli\\visual\\scap\\load5-20.BMP'
g21
I1800
tp64
a(g18
g19
g26
I5
I10
g23
S'C:\\Users\\Jbarrett\\Charlie\\charlie\\stimuli\\visual\\scap\\load5-21.BMP'
S'C:\\Users\\Jbarrett\\Charlie\\charlie\\stimuli\\visual\\scap\\load5-22.BMP'
g23
I4260
tp65
a(g18
g19
g26
I5
I11
g21
S'C:\\Users\\Jbarrett\\Charlie\\charlie\\stimuli\\visual\\scap\\load5-23.BMP'
S'C:\\Users\\Jbarrett\\Charlie\\charlie\\stimuli\\visual\\scap\\load5-24.BMP'
g21
I5170
tp66
a(g18
g19
g26
I5
I12
g23
S'C:\\Users\\Jbarrett\\Charlie\\charlie\\stimuli\\visual\\scap\\load5-25.BMP'
S'C:\\Users\\Jbarrett\\Charlie\\charlie\\stimuli\\visual\\scap\\load5-26.BMP'
g21
I1030
tp67
a(g18
g19
g26
I5
I13
g23
S'C:\\Users\\Jbarrett\\Charlie\\charlie\\stimuli\\visual\\scap\\load5-27.BMP'
p68
S'C:\\Users\\Jbarrett\\Charlie\\charlie\\stimuli\\visual\\scap\\load5-28.BMP'
p69
g21
I1130
tp70
asS'output_format'
p71
(lp72
(S'proband_id'
p73
c__builtin__
str
p74
tp75
a(S'test_name'
p76
g74
tp77
a(S'phase'
p78
g74
tp79
a(S'load'
p80
c__builtin__
int
p81
tp82
a(S'trialn'
p83
g81
tp84
a(S'ans'
p85
g74
tp86
a(S'array_f'
p87
g74
tp88
a(S'probe_f'
p89
g74
tp90
a(S'rsp'
p91
g74
tp92
a(S'rt'
p93
g81
tp94
asg73
g18
sS'filename'
p95
S'4416_scap.data'
p96
sS'initialised'
p97
g8
(S"\x07\xdf\x07\n\x0e6'\t\xac\x90"
tRp98
sS'last_udated'
p99
g8
(S"\x07\xdf\x07\n\x0e6'\t\xac\x90"
tRp100
sg76
S'scap'
p101
sS'directory'
p102
S'C:\\Users\\Jbarrett\\Charlie\\charlie\\data\\raw'
p103
sS'user_id'
p104
S'sbuccheri'
p105
sS'test_started'
p106
I01
sS'abs_filename'
p107
S'C:\\Users\\Jbarrett\\Charlie\\charlie\\data\\raw\\4416_scap.data'
p108
sS'date_started'
p109
g8
(S'\x07\xdf\x07\n\x0e7\x00\x04\xd2`'
tRp110
sS'log'
p111
(lp112
(S'2015-07-10 14:54:39.634000'
S'instance created'
p113
tp114
a(S'2015-07-10 14:55:00.327000'
S'instance updated'
p115
tp116
a(S'2015-07-10 14:55:00.337000'
S'pandas DataFrame of data created'
p117
tp118
a(S'2015-07-10 14:55:00.341000'
S'data saved as csv to C:\\Users\\Jbarrett\\Charlie\\charlie\\data\\csv\\4416_scap.csv'
tp119
a(S'2015-07-10 14:55:08.396000'
g115
tp120
a(S'2015-07-10 14:55:08.406000'
g117
tp121
a(S'2015-07-10 14:55:08.408000'
S'data saved as csv to C:\\Users\\Jbarrett\\Charlie\\charlie\\data\\csv\\4416_scap.csv'
tp122
a(S'2015-07-10 14:55:16.471000'
g115
tp123
a(S'2015-07-10 14:55:16.481000'
g117
tp124
a(S'2015-07-10 14:55:16.485000'
S'data saved as csv to C:\\Users\\Jbarrett\\Charlie\\charlie\\data\\csv\\4416_scap.csv'
tp125
a(S'2015-07-10 14:55:32.402000'
g115
tp126
a(S'2015-07-10 14:55:32.413000'
g117
tp127
a(S'2015-07-10 14:55:32.416000'
S'data saved as csv to C:\\Users\\Jbarrett\\Charlie\\charlie\\data\\csv\\4416_scap.csv'
tp128
a(S'2015-07-10 14:55:39.466000'
g115
tp129
a(S'2015-07-10 14:55:39.476000'
g117
tp130
a(S'2015-07-10 14:55:39.480000'
S'data saved as csv to C:\\Users\\Jbarrett\\Charlie\\charlie\\data\\csv\\4416_scap.csv'
tp131
a(S'2015-07-10 14:55:46.441000'
g115
tp132
a(S'2015-07-10 14:55:46.452000'
g117
tp133
a(S'2015-07-10 14:55:46.456000'
S'data saved as csv to C:\\Users\\Jbarrett\\Charlie\\charlie\\data\\csv\\4416_scap.csv'
tp134
a(S'2015-07-10 14:55:54.286000'
g115
tp135
a(S'2015-07-10 14:55:54.296000'
g117
tp136
a(S'2015-07-10 14:55:54.300000'
S'data saved as csv to C:\\Users\\Jbarrett\\Charlie\\charlie\\data\\csv\\4416_scap.csv'
tp137
a(S'2015-07-10 14:56:01.391000'
g115
tp138
a(S'2015-07-10 14:56:01.401000'
g117
tp139
a(S'2015-07-10 14:56:01.405000'
S'data saved as csv to C:\\Users\\Jbarrett\\Charlie\\charlie\\data\\csv\\4416_scap.csv'
tp140
a(S'2015-07-10 14:56:09.897000'
g115
tp141
a(S'2015-07-10 14:56:09.908000'
g117
tp142
a(S'2015-07-10 14:56:09.911000'
S'data saved as csv to C:\\Users\\Jbarrett\\Charlie\\charlie\\data\\csv\\4416_scap.csv'
tp143
a(S'2015-07-10 14:56:17.792000'
g115
tp144
a(S'2015-07-10 14:56:17.803000'
g117
tp145
a(S'2015-07-10 14:56:17.807000'
S'data saved as csv to C:\\Users\\Jbarrett\\Charlie\\charlie\\data\\csv\\4416_scap.csv'
tp146
a(S'2015-07-10 14:56:24.888000'
g115
tp147
a(S'2015-07-10 14:56:24.899000'
g117
tp148
a(S'2015-07-10 14:56:24.903000'
S'data saved as csv to C:\\Users\\Jbarrett\\Charlie\\charlie\\data\\csv\\4416_scap.csv'
tp149
a(S'2015-07-10 14:56:31.904000'
g115
tp150
a(S'2015-07-10 14:56:31.914000'
g117
tp151
a(S'2015-07-10 14:56:31.917000'
S'data saved as csv to C:\\Users\\Jbarrett\\Charlie\\charlie\\data\\csv\\4416_scap.csv'
tp152
a(S'2015-07-10 14:56:38.376000'
g115
tp153
a(S'2015-07-10 14:56:38.387000'
g117
tp154
a(S'2015-07-10 14:56:38.391000'
S'data saved as csv to C:\\Users\\Jbarrett\\Charlie\\charlie\\data\\csv\\4416_scap.csv'
tp155
a(S'2015-07-10 14:56:46.002000'
g115
tp156
a(S'2015-07-10 14:56:46.013000'
g117
tp157
a(S'2015-07-10 14:56:46.016000'
S'data saved as csv to C:\\Users\\Jbarrett\\Charlie\\charlie\\data\\csv\\4416_scap.csv'
tp158
a(S'2015-07-10 14:56:52.905000'
g115
tp159
a(S'2015-07-10 14:56:52.916000'
g117
tp160
a(S'2015-07-10 14:56:52.918000'
S'data saved as csv to C:\\Users\\Jbarrett\\Charlie\\charlie\\data\\csv\\4416_scap.csv'
tp161
a(S'2015-07-10 14:57:00.808000'
g115
tp162
a(S'2015-07-10 14:57:00.819000'
g117
tp163
a(S'2015-07-10 14:57:00.823000'
S'data saved as csv to C:\\Users\\Jbarrett\\Charlie\\charlie\\data\\csv\\4416_scap.csv'
tp164
a(S'2015-07-10 14:57:08.244000'
g115
tp165
a(S'2015-07-10 14:57:08.255000'
g117
tp166
a(S'2015-07-10 14:57:08.259000'
S'data saved as csv to C:\\Users\\Jbarrett\\Charlie\\charlie\\data\\csv\\4416_scap.csv'
tp167
a(S'2015-07-10 14:57:15.291000'
g115
tp168
a(S'2015-07-10 14:57:15.302000'
g117
tp169
a(S'2015-07-10 14:57:15.306000'
S'data saved as csv to C:\\Users\\Jbarrett\\Charlie\\charlie\\data\\csv\\4416_scap.csv'
tp170
a(S'2015-07-10 14:57:22.126000'
g115
tp171
a(S'2015-07-10 14:57:22.138000'
g117
tp172
a(S'2015-07-10 14:57:22.141000'
S'data saved as csv to C:\\Users\\Jbarrett\\Charlie\\charlie\\data\\csv\\4416_scap.csv'
tp173
a(S'2015-07-10 14:57:29.381000'
g115
tp174
a(S'2015-07-10 14:57:29.392000'
g117
tp175
a(S'2015-07-10 14:57:29.396000'
S'data saved as csv to C:\\Users\\Jbarrett\\Charlie\\charlie\\data\\csv\\4416_scap.csv'
tp176
a(S'2015-07-10 14:57:36.455000'
g115
tp177
a(S'2015-07-10 14:57:36.466000'
g117
tp178
a(S'2015-07-10 14:57:36.470000'
S'data saved as csv to C:\\Users\\Jbarrett\\Charlie\\charlie\\data\\csv\\4416_scap.csv'
tp179
a(S'2015-07-10 14:57:44.281000'
g115
tp180
a(S'2015-07-10 14:57:44.293000'
g117
tp181
a(S'2015-07-10 14:57:44.297000'
S'data saved as csv to C:\\Users\\Jbarrett\\Charlie\\charlie\\data\\csv\\4416_scap.csv'
tp182
a(S'2015-07-10 14:57:51.418000'
g115
tp183
a(S'2015-07-10 14:57:51.428000'
g117
tp184
a(S'2015-07-10 14:57:51.432000'
S'data saved as csv to C:\\Users\\Jbarrett\\Charlie\\charlie\\data\\csv\\4416_scap.csv'
tp185
a(S'2015-07-10 14:57:58.364000'
g115
tp186
a(S'2015-07-10 14:57:58.375000'
g117
tp187
a(S'2015-07-10 14:57:58.379000'
S'data saved as csv to C:\\Users\\Jbarrett\\Charlie\\charlie\\data\\csv\\4416_scap.csv'
tp188
a(S'2015-07-10 14:58:05.551000'
g115
tp189
a(S'2015-07-10 14:58:05.562000'
g117
tp190
a(S'2015-07-10 14:58:05.566000'
S'data saved as csv to C:\\Users\\Jbarrett\\Charlie\\charlie\\data\\csv\\4416_scap.csv'
tp191
a(S'2015-07-10 14:58:13.517000'
g115
tp192
a(S'2015-07-10 14:58:13.529000'
g117
tp193
a(S'2015-07-10 14:58:13.533000'
S'data saved as csv to C:\\Users\\Jbarrett\\Charlie\\charlie\\data\\csv\\4416_scap.csv'
tp194
a(S'2015-07-10 14:58:20.496000'
g115
tp195
a(S'2015-07-10 14:58:20.507000'
g117
tp196
a(S'2015-07-10 14:58:20.511000'
S'data saved as csv to C:\\Users\\Jbarrett\\Charlie\\charlie\\data\\csv\\4416_scap.csv'
tp197
a(S'2015-07-10 14:58:27.793000'
g115
tp198
a(S'2015-07-10 14:58:27.804000'
g117
tp199
a(S'2015-07-10 14:58:27.808000'
S'data saved as csv to C:\\Users\\Jbarrett\\Charlie\\charlie\\data\\csv\\4416_scap.csv'
tp200
a(S'2015-07-10 14:58:34.521000'
g115
tp201
a(S'2015-07-10 14:58:34.532000'
g117
tp202
a(S'2015-07-10 14:58:34.536000'
S'data saved as csv to C:\\Users\\Jbarrett\\Charlie\\charlie\\data\\csv\\4416_scap.csv'
tp203
a(S'2015-07-10 14:58:41.808000'
g115
tp204
a(S'2015-07-10 14:58:41.819000'
g117
tp205
a(S'2015-07-10 14:58:41.824000'
S'data saved as csv to C:\\Users\\Jbarrett\\Charlie\\charlie\\data\\csv\\4416_scap.csv'
tp206
a(S'2015-07-10 14:58:49.636000'
g115
tp207
a(S'2015-07-10 14:58:49.647000'
g117
tp208
a(S'2015-07-10 14:58:49.651000'
S'data saved as csv to C:\\Users\\Jbarrett\\Charlie\\charlie\\data\\csv\\4416_scap.csv'
tp209
a(S'2015-07-10 14:58:57.393000'
g115
tp210
a(S'2015-07-10 14:58:57.404000'
g117
tp211
a(S'2015-07-10 14:58:57.408000'
S'data saved as csv to C:\\Users\\Jbarrett\\Charlie\\charlie\\data\\csv\\4416_scap.csv'
tp212
a(S'2015-07-10 14:59:05.051000'
g115
tp213
a(S'2015-07-10 14:59:05.062000'
g117
tp214
a(S'2015-07-10 14:59:05.066000'
S'data saved as csv to C:\\Users\\Jbarrett\\Charlie\\charlie\\data\\csv\\4416_scap.csv'
tp215
a(S'2015-07-10 14:59:12.088000'
g115
tp216
a(S'2015-07-10 14:59:12.099000'
g117
tp217
a(S'2015-07-10 14:59:12.103000'
S'data saved as csv to C:\\Users\\Jbarrett\\Charlie\\charlie\\data\\csv\\4416_scap.csv'
tp218
a(S'2015-07-10 14:59:19.225000'
g115
tp219
a(S'2015-07-10 14:59:19.236000'
g117
tp220
a(S'2015-07-10 14:59:19.240000'
S'data saved as csv to C:\\Users\\Jbarrett\\Charlie\\charlie\\data\\csv\\4416_scap.csv'
tp221
a(S'2015-07-10 14:59:28.522000'
g115
tp222
a(S'2015-07-10 14:59:28.533000'
g117
tp223
a(S'2015-07-10 14:59:28.538000'
S'data saved as csv to C:\\Users\\Jbarrett\\Charlie\\charlie\\data\\csv\\4416_scap.csv'
tp224
a(S'2015-07-10 14:59:35.510000'
g115
tp225
a(S'2015-07-10 14:59:35.522000'
g117
tp226
a(S'2015-07-10 14:59:35.526000'
S'data saved as csv to C:\\Users\\Jbarrett\\Charlie\\charlie\\data\\csv\\4416_scap.csv'
tp227
a(S'2015-07-10 14:59:43.377000'
g115
tp228
a(S'2015-07-10 14:59:43.388000'
g117
tp229
a(S'2015-07-10 14:59:43.392000'
S'data saved as csv to C:\\Users\\Jbarrett\\Charlie\\charlie\\data\\csv\\4416_scap.csv'
tp230
a(S'2015-07-10 14:59:49.635000'
g115
tp231
a(S'2015-07-10 14:59:49.647000'
g117
tp232
a(S'2015-07-10 14:59:49.651000'
S'data saved as csv to C:\\Users\\Jbarrett\\Charlie\\charlie\\data\\csv\\4416_scap.csv'
tp233
a(S'2015-07-10 14:59:58.334000'
g115
tp234
a(S'2015-07-10 14:59:58.344000'
g117
tp235
a(S'2015-07-10 14:59:58.347000'
S'data saved as csv to C:\\Users\\Jbarrett\\Charlie\\charlie\\data\\csv\\4416_scap.csv'
tp236
a(S'2015-07-10 15:00:06.288000'
g115
tp237
a(S'2015-07-10 15:00:06.300000'
g117
tp238
a(S'2015-07-10 15:00:06.304000'
S'data saved as csv to C:\\Users\\Jbarrett\\Charlie\\charlie\\data\\csv\\4416_scap.csv'
tp239
a(S'2015-07-10 15:00:16.706000'
g115
tp240
a(S'2015-07-10 15:00:16.718000'
g117
tp241
a(S'2015-07-10 15:00:16.722000'
S'data saved as csv to C:\\Users\\Jbarrett\\Charlie\\charlie\\data\\csv\\4416_scap.csv'
tp242
a(S'2015-07-10 15:00:28.035000'
g115
tp243
a(S'2015-07-10 15:00:28.046000'
g117
tp244
a(S'2015-07-10 15:00:28.049000'
S'data saved as csv to C:\\Users\\Jbarrett\\Charlie\\charlie\\data\\csv\\4416_scap.csv'
tp245
a(S'2015-07-10 15:00:35.220000'
g115
tp246
a(S'2015-07-10 15:00:35.231000'
g117
tp247
a(S'2015-07-10 15:00:35.236000'
S'data saved as csv to C:\\Users\\Jbarrett\\Charlie\\charlie\\data\\csv\\4416_scap.csv'
tp248
a(S'2015-07-10 15:00:42.507000'
g115
tp249
a(S'2015-07-10 15:00:42.519000'
g117
tp250
a(S'2015-07-10 15:00:42.523000'
S'data saved as csv to C:\\Users\\Jbarrett\\Charlie\\charlie\\data\\csv\\4416_scap.csv'
tp251
asb.