(icharlie.tools.data
Data
p1
(dp2
S'lang'
p3
S'EN'
p4
sS'control'
p5
(lp6
sS'last_updated'
p7
cdatetime
datetime
p8
(S'\x07\xdf\x07\r\x0f\x1d(\x0c\x028'
tRp9
sS'last_opened'
p10
g8
(S'\x07\xdf\x07\r\x0f\x17!\x0c\x11\xd8'
tRp11
sS'proj_id'
p12
S'connectivity'
p13
sS'date_done'
p14
g8
(S'\x07\xdf\x07\r\x0f\x1d(\x0b\xdf\x10'
tRp15
sS'test_done'
p16
I01
sS'data'
p17
(lp18
(S'4417'
p19
S'verbal_fluency'
p20
I0
S'True'
p21
tp22
a(g19
g20
I0
g21
tp23
a(g19
g20
I0
g21
tp24
a(g19
g20
I0
g21
tp25
a(g19
g20
I0
g21
tp26
a(g19
g20
I0
g21
tp27
a(g19
g20
I0
g21
tp28
a(g19
g20
I0
g21
tp29
a(g19
g20
I0
g21
tp30
a(g19
g20
I0
g21
tp31
a(g19
g20
I0
g21
tp32
a(g19
g20
I0
g21
tp33
a(g19
g20
I0
g21
tp34
a(g19
g20
I0
g21
tp35
a(g19
g20
I0
g21
tp36
a(g19
g20
I0
g21
tp37
a(g19
g20
I0
g21
tp38
a(g19
g20
I0
S'False'
p39
tp40
a(g19
g20
I0
g21
tp41
a(g19
g20
I0
g21
tp42
a(g19
g20
I1
g21
tp43
a(g19
g20
I1
g21
tp44
a(g19
g20
I1
g21
tp45
a(g19
g20
I1
g21
tp46
a(g19
g20
I1
g21
tp47
a(g19
g20
I1
g21
tp48
a(g19
g20
I1
g21
tp49
a(g19
g20
I1
g21
tp50
a(g19
g20
I1
g21
tp51
a(g19
g20
I1
g39
tp52
a(g19
g20
I1
g39
tp53
a(g19
g20
I1
g21
tp54
a(g19
g20
I1
g21
tp55
a(g19
g20
I2
g21
tp56
a(g19
g20
I2
g21
tp57
a(g19
g20
I2
g21
tp58
a(g19
g20
I2
g21
tp59
a(g19
g20
I2
g21
tp60
a(g19
g20
I2
g21
tp61
a(g19
g20
I2
g21
tp62
a(g19
g20
I2
g39
tp63
a(g19
g20
I2
g21
tp64
a(g19
g20
I2
g21
tp65
a(g19
g20
I2
g21
tp66
a(g19
g20
I2
g21
tp67
a(g19
g20
I2
g39
tp68
a(g19
g20
I2
g21
tp69
a(g19
g20
I2
g21
tp70
a(g19
g20
I2
g21
tp71
a(g19
g20
I2
g21
tp72
a(g19
g20
I3
g21
tp73
a(g19
g20
I3
g21
tp74
a(g19
g20
I3
g21
tp75
a(g19
g20
I3
g21
tp76
a(g19
g20
I3
g21
tp77
a(g19
g20
I3
g21
tp78
a(g19
g20
I3
g21
tp79
a(g19
g20
I3
g21
tp80
a(g19
g20
I3
g39
tp81
a(g19
g20
I3
g21
tp82
a(g19
g20
I3
g21
tp83
a(g19
g20
I3
g21
tp84
a(g19
g20
I3
g21
tp85
a(g19
g20
I3
g21
tp86
a(g19
g20
I3
g21
tp87
asS'output_format'
p88
(lp89
(S'proband_id'
p90
c__builtin__
str
p91
tp92
a(S'test_name'
p93
g91
tp94
a(S'trialn'
p95
c__builtin__
int
p96
tp97
a(S'rsp'
p98
g91
tp99
asg90
g19
sS'filename'
p100
S'4417_verbal_fluency.data'
p101
sS'initialised'
p102
g8
(S'\x07\xdf\x07\r\x0f\x17!\x0c\x11\xd8'
tRp103
sS'last_udated'
p104
g8
(S'\x07\xdf\x07\r\x0f\x17!\x0c\x11\xd8'
tRp105
sg93
S'verbal_fluency'
p106
sS'directory'
p107
S'c:\\Charlie\\charlie\\data\\raw'
p108
sS'user_id'
p109
S'oleach'
p110
sS'test_started'
p111
I01
sS'abs_filename'
p112
S'c:\\Charlie\\charlie\\data\\raw\\4417_verbal_fluency.data'
p113
sS'date_started'
p114
g8
(S'\x07\xdf\x07\r\x0f\x197\t\xbc0'
tRp115
sS'log'
p116
(lp117
(S'2015-07-13 15:23:33.791000'
S'instance created'
p118
tp119
a(S'2015-07-13 15:25:55.653000'
S'instance updated'
p120
tp121
a(S'2015-07-13 15:25:55.659000'
S'pandas DataFrame of data created'
p122
tp123
a(S'2015-07-13 15:25:55.669000'
S'data saved as csv to c:\\Charlie\\charlie\\data\\csv\\4417_verbal_fluency.csv'
tp124
a(S'2015-07-13 15:26:00.383000'
g120
tp125
a(S'2015-07-13 15:26:00.388000'
g122
tp126
a(S'2015-07-13 15:26:00.392000'
S'data saved as csv to c:\\Charlie\\charlie\\data\\csv\\4417_verbal_fluency.csv'
tp127
a(S'2015-07-13 15:27:09.971000'
g120
tp128
a(S'2015-07-13 15:27:09.976000'
g122
tp129
a(S'2015-07-13 15:27:09.980000'
S'data saved as csv to c:\\Charlie\\charlie\\data\\csv\\4417_verbal_fluency.csv'
tp130
a(S'2015-07-13 15:27:15.250000'
g120
tp131
a(S'2015-07-13 15:27:15.256000'
g122
tp132
a(S'2015-07-13 15:27:15.259000'
S'data saved as csv to c:\\Charlie\\charlie\\data\\csv\\4417_verbal_fluency.csv'
tp133
a(S'2015-07-13 15:28:22.111000'
g120
tp134
a(S'2015-07-13 15:28:22.116000'
g122
tp135
a(S'2015-07-13 15:28:22.120000'
S'data saved as csv to c:\\Charlie\\charlie\\data\\csv\\4417_verbal_fluency.csv'
tp136
a(S'2015-07-13 15:28:36.165000'
g120
tp137
a(S'2015-07-13 15:28:36.170000'
g122
tp138
a(S'2015-07-13 15:28:36.174000'
S'data saved as csv to c:\\Charlie\\charlie\\data\\csv\\4417_verbal_fluency.csv'
tp139
a(S'2015-07-13 15:29:40.778000'
g120
tp140
a(S'2015-07-13 15:29:40.783000'
g122
tp141
a(S'2015-07-13 15:29:40.787000'
S'data saved as csv to c:\\Charlie\\charlie\\data\\csv\\4417_verbal_fluency.csv'
tp142
asb.