(icharlie.tools.data
Data
p1
(dp2
S'lang'
p3
S'EN'
p4
sS'control'
p5
(lp6
sS'last_updated'
p7
cdatetime
datetime
p8
(S'\x07\xdf\x07\r\x0e7\x0b\x08X\xb8'
tRp9
sS'last_opened'
p10
g8
(S'\x07\xdf\x07\r\x0e0\x06\x014\x98'
tRp11
sS'proj_id'
p12
S'connectivity'
p13
sS'date_done'
p14
g8
(S'\x07\xdf\x07\r\x0e7\x0b\x07nX'
tRp15
sS'test_done'
p16
I01
sS'data'
p17
(lp18
(S'4417'
p19
S'cvlt2'
p20
I0
csip
_unpickle_type
p21
(S'PyQt4.QtCore'
p22
S'QString'
(Vcabbage
p23
ttRp24
tp25
a(g19
g20
I0
g21
(g22
S'QString'
(Vsquirrel
p26
ttRp27
tp28
a(g19
g20
I0
g21
(g22
S'QString'
(Vcabinet
p29
ttRp30
tp31
a(g19
g20
I0
g21
(g22
S'QString'
(Vzebra
p32
ttRp33
tp34
a(g19
g20
I0
g21
(g22
S'QString'
(Vonion
p35
ttRp36
tp37
a(g19
g20
I0
g21
(g22
S'QString'
(Vmotorcycle
p38
ttRp39
tp40
a(g19
g20
I1
g21
(g22
S'QString'
(Vbookcase
p41
ttRp42
tp43
a(g19
g20
I1
g21
(g22
S'QString'
(Vsquirrel
p44
ttRp45
tp46
a(g19
g20
I1
g21
(g22
S'QString'
(Vonion
p47
ttRp48
tp49
a(g19
g20
I1
g21
(g22
S'QString'
(Vmotorcycle
p50
ttRp51
tp52
a(g19
g20
I2
g21
(g22
S'QString'
(Vcabbage
p53
ttRp54
tp55
a(g19
g20
I2
g21
(g22
S'QString'
(Vsquirrel
p56
ttRp57
tp58
a(g19
g20
I2
g21
(g22
S'QString'
(Vbookcase
p59
ttRp60
tp61
a(g19
g20
I2
g21
(g22
S'QString'
(Vspinach
p62
ttRp63
tp64
a(g19
g20
I2
g21
(g22
S'QString'
(Vtruck
p65
ttRp66
tp67
a(g19
g20
I2
g21
(g22
S'QString'
(Vonion
p68
ttRp69
tp70
a(g19
g20
I2
g21
(g22
S'QString'
(Vzebra
p71
ttRp72
tp73
a(g19
g20
I2
g21
(g22
S'QString'
(Vbookcase
p74
ttRp75
tp76
a(g19
g20
I2
g21
(g22
S'QString'
(Vzebra
p77
ttRp78
tp79
a(g19
g20
I2
g21
(g22
S'QString'
(Vtruck
p80
ttRp81
tp82
a(g19
g20
I2
g21
(g22
S'QString'
(Vspinach
p83
ttRp84
tp85
a(g19
g20
I2
g21
(g22
S'QString'
(Vsubway
p86
ttRp87
tp88
a(g19
g20
I2
g21
(g22
S'QString'
(Vdesk
p89
ttRp90
tp91
a(g19
g20
I3
g21
(g22
S'QString'
(Vdesk
p92
ttRp93
tp94
a(g19
g20
I3
g21
(g22
S'QString'
(Vcabbage
p95
ttRp96
tp97
a(g19
g20
I3
g21
(g22
S'QString'
(Vsquirrel
p98
ttRp99
tp100
a(g19
g20
I3
g21
(g22
S'QString'
(Vsubway
p101
ttRp102
tp103
a(g19
g20
I3
g21
(g22
S'QString'
(Vcabinet
p104
ttRp105
tp106
a(g19
g20
I3
g21
(g22
S'QString'
(Vdesk
p107
ttRp108
tp109
a(g19
g20
I3
g21
(g22
S'QString'
(Vspinach
p110
ttRp111
tp112
a(g19
g20
I3
g21
(g22
S'QString'
(Vgiraffe
p113
ttRp114
tp115
a(g19
g20
I3
g21
(g22
S'QString'
(Vboat
p116
ttRp117
tp118
a(g19
g20
I3
g21
(g22
S'QString'
(Vmotorcycle
p119
ttRp120
tp121
a(g19
g20
I4
g21
(g22
S'QString'
(Vcabbage
p122
ttRp123
tp124
a(g19
g20
I4
g21
(g22
S'QString'
(Vboat
p125
ttRp126
tp127
a(g19
g20
I4
g21
(g22
S'QString'
(Vsquirrel
p128
ttRp129
tp130
a(g19
g20
I4
g21
(g22
S'QString'
(Vbookcase
p131
ttRp132
tp133
a(g19
g20
I4
g21
(g22
S'QString'
(Vdesk
p134
ttRp135
tp136
a(g19
g20
I4
g21
(g22
S'QString'
(Vonion
p137
ttRp138
tp139
a(g19
g20
I4
g21
(g22
S'QString'
(Vboat
p140
ttRp141
tp142
a(g19
g20
I4
g21
(g22
S'QString'
(Vtruck
p143
ttRp144
tp145
a(g19
g20
I4
g21
(g22
S'QString'
(Vmotorcycle
p146
ttRp147
tp148
a(g19
g20
I4
g21
(g22
S'QString'
(Vsubway
p149
ttRp150
tp151
a(g19
g20
I4
g21
(g22
S'QString'
(Vgiraffe
p152
ttRp153
tp154
a(g19
g20
I4
g21
(g22
S'QString'
(Vspinach
p155
ttRp156
tp157
a(g19
g20
I4
g21
(g22
S'QString'
(Vonion
p158
ttRp159
tp160
a(g19
g20
I4
g21
(g22
S'QString'
(Vcabbage
p161
ttRp162
tp163
a(g19
g20
I4
g21
(g22
S'QString'
(Vspinach
p164
ttRp165
tp166
asS'output_format'
p167
(lp168
(S'proband_id'
p169
c__builtin__
str
p170
tp171
a(S'test_name'
p172
g170
tp173
a(S'trialn'
p174
c__builtin__
int
p175
tp176
a(S'rsp'
p177
g170
tp178
asg169
g19
sS'filename'
p179
S'4417_cvlt2.data'
p180
sS'initialised'
p181
g8
(S'\x07\xdf\x07\r\x0e0\x06\x014\x98'
tRp182
sS'last_udated'
p183
g8
(S'\x07\xdf\x07\r\x0e0\x06\x014\x98'
tRp184
sg172
S'cvlt2'
p185
sS'directory'
p186
S'c:\\Charlie\\charlie\\data\\raw'
p187
sS'user_id'
p188
S'oleach'
p189
sS'test_started'
p190
I01
sS'abs_filename'
p191
S'c:\\Charlie\\charlie\\data\\raw\\4417_cvlt2.data'
p192
sS'date_started'
p193
g8
(S'\x07\xdf\x07\r\x0e1%\x08\x9b '
tRp194
sS'log'
p195
(lp196
(S'2015-07-13 14:48:06.079000'
S'instance created'
p197
tp198
a(S'2015-07-13 14:49:37.579000'
S'instance updated'
p199
tp200
a(S'2015-07-13 14:49:37.614000'
S'pandas DataFrame of data created'
p201
tp202
a(S'2015-07-13 14:49:37.624000'
S'data saved as csv to c:\\Charlie\\charlie\\data\\csv\\4417_cvlt2.csv'
tp203
a(S'2015-07-13 14:50:22.323000'
g199
tp204
a(S'2015-07-13 14:50:22.341000'
g201
tp205
a(S'2015-07-13 14:50:22.345000'
S'data saved as csv to c:\\Charlie\\charlie\\data\\csv\\4417_cvlt2.csv'
tp206
a(S'2015-07-13 14:50:46.752000'
g199
tp207
a(S'2015-07-13 14:50:46.780000'
g201
tp208
a(S'2015-07-13 14:50:46.781000'
S'data saved as csv to c:\\Charlie\\charlie\\data\\csv\\4417_cvlt2.csv'
tp209
a(S'2015-07-13 14:51:30.389000'
g199
tp210
a(S'2015-07-13 14:51:30.418000'
g201
tp211
a(S'2015-07-13 14:51:30.422000'
S'data saved as csv to c:\\Charlie\\charlie\\data\\csv\\4417_cvlt2.csv'
tp212
a(S'2015-07-13 14:52:17.723000'
g199
tp213
a(S'2015-07-13 14:52:17.764000'
g201
tp214
a(S'2015-07-13 14:52:17.765000'
S'data saved as csv to c:\\Charlie\\charlie\\data\\csv\\4417_cvlt2.csv'
tp215
a(S'2015-07-13 14:52:56.704000'
g199
tp216
a(S'2015-07-13 14:52:56.743000'
g201
tp217
a(S'2015-07-13 14:52:56.744000'
S'data saved as csv to c:\\Charlie\\charlie\\data\\csv\\4417_cvlt2.csv'
tp218
a(S'2015-07-13 14:53:43.333000'
g199
tp219
a(S'2015-07-13 14:53:43.381000'
g201
tp220
a(S'2015-07-13 14:53:43.382000'
S'data saved as csv to c:\\Charlie\\charlie\\data\\csv\\4417_cvlt2.csv'
tp221
a(S'2015-07-13 14:54:19.979000'
g199
tp222
a(S'2015-07-13 14:54:20.026000'
g201
tp223
a(S'2015-07-13 14:54:20.028000'
S'data saved as csv to c:\\Charlie\\charlie\\data\\csv\\4417_cvlt2.csv'
tp224
a(S'2015-07-13 14:55:11.487000'
g199
tp225
a(S'2015-07-13 14:55:11.546000'
g201
tp226
a(S'2015-07-13 14:55:11.547000'
S'data saved as csv to c:\\Charlie\\charlie\\data\\csv\\4417_cvlt2.csv'
tp227
asb.