(icharlie.tools.data
Data
p1
(dp2
S'lang'
p3
S'EN'
p4
sS'control'
p5
(lp6
sS'last_updated'
p7
cdatetime
datetime
p8
(S'\x07\xdf\x07\x14\x0f\x014\nL\xb8'
tRp9
sS'last_opened'
p10
g8
(S'\x07\xdf\x07\x14\x0e8\x0e\x07+\xf0'
tRp11
sS'proj_id'
p12
S'connectivity'
p13
sS'date_done'
p14
g8
(S'\x07\xdf\x07\x14\x0f\x014\n)\x90'
tRp15
sS'test_done'
p16
I01
sS'data'
p17
(lp18
(S'4420'
p19
S'verbal_fluency'
p20
I0
S'True'
p21
tp22
a(g19
g20
I0
g21
tp23
a(g19
g20
I0
g21
tp24
a(g19
g20
I0
g21
tp25
a(g19
g20
I0
g21
tp26
a(g19
g20
I0
S'False'
p27
tp28
a(g19
g20
I0
g21
tp29
a(g19
g20
I0
g21
tp30
a(g19
g20
I0
g21
tp31
a(g19
g20
I1
g21
tp32
a(g19
g20
I1
g21
tp33
a(g19
g20
I1
g21
tp34
a(g19
g20
I1
g21
tp35
a(g19
g20
I1
g21
tp36
a(g19
g20
I1
g21
tp37
a(g19
g20
I1
g27
tp38
a(g19
g20
I1
g21
tp39
a(g19
g20
I1
g21
tp40
a(g19
g20
I1
g21
tp41
a(g19
g20
I2
g21
tp42
a(g19
g20
I2
g21
tp43
a(g19
g20
I2
g21
tp44
a(g19
g20
I2
g21
tp45
a(g19
g20
I2
g21
tp46
a(g19
g20
I2
g21
tp47
a(g19
g20
I2
g21
tp48
a(g19
g20
I2
g21
tp49
a(g19
g20
I2
g27
tp50
a(g19
g20
I2
g21
tp51
a(g19
g20
I2
g21
tp52
a(g19
g20
I2
g27
tp53
a(g19
g20
I2
g21
tp54
a(g19
g20
I2
g21
tp55
a(g19
g20
I2
g21
tp56
a(g19
g20
I2
g21
tp57
a(g19
g20
I2
g21
tp58
a(g19
g20
I2
g21
tp59
a(g19
g20
I3
g21
tp60
a(g19
g20
I3
g21
tp61
a(g19
g20
I3
g21
tp62
a(g19
g20
I3
g21
tp63
a(g19
g20
I3
g21
tp64
a(g19
g20
I3
g21
tp65
a(g19
g20
I3
g21
tp66
a(g19
g20
I3
g21
tp67
a(g19
g20
I3
g21
tp68
a(g19
g20
I3
g21
tp69
a(g19
g20
I3
g27
tp70
a(g19
g20
I3
g21
tp71
a(g19
g20
I3
g21
tp72
a(g19
g20
I3
g21
tp73
a(g19
g20
I3
g21
tp74
a(g19
g20
I3
g21
tp75
a(g19
g20
I3
g21
tp76
a(g19
g20
I3
g21
tp77
a(g19
g20
I3
g21
tp78
a(g19
g20
I3
g21
tp79
a(g19
g20
I3
g27
tp80
a(g19
g20
I3
g21
tp81
a(g19
g20
I3
g21
tp82
a(g19
g20
I3
g21
tp83
a(g19
g20
I3
g21
tp84
a(g19
g20
I3
g21
tp85
asS'output_format'
p86
(lp87
(S'proband_id'
p88
c__builtin__
str
p89
tp90
a(S'test_name'
p91
g89
tp92
a(S'trialn'
p93
c__builtin__
int
p94
tp95
a(S'rsp'
p96
g89
tp97
asg88
g19
sS'filename'
p98
S'4420_verbal_fluency.data'
p99
sS'initialised'
p100
g8
(S'\x07\xdf\x07\x14\x0e8\x0e\x07+\xf0'
tRp101
sS'last_udated'
p102
g8
(S'\x07\xdf\x07\x14\x0e8\x0e\x07+\xf0'
tRp103
sg91
S'verbal_fluency'
p104
sS'directory'
p105
S'c:\\Charlie\\charlie\\data\\raw'
p106
sS'user_id'
p107
S'oleach'
p108
sS'test_started'
p109
I01
sS'abs_filename'
p110
S'c:\\Charlie\\charlie\\data\\raw\\4420_verbal_fluency.data'
p111
sS'date_started'
p112
g8
(S'\x07\xdf\x07\x14\x0e:\x11\x04\x1e\xb0'
tRp113
sS'log'
p114
(lp115
(S'2015-07-20 14:56:14.470000'
S'instance created'
p116
tp117
a(S'2015-07-20 14:58:17.285000'
S'instance updated'
p118
tp119
a(S'2015-07-20 14:58:17.291000'
S'pandas DataFrame of data created'
p120
tp121
a(S'2015-07-20 14:58:17.302000'
S'data saved as csv to c:\\Charlie\\charlie\\data\\csv\\4420_verbal_fluency.csv'
tp122
a(S'2015-07-20 14:58:22.790000'
g118
tp123
a(S'2015-07-20 14:58:22.795000'
g120
tp124
a(S'2015-07-20 14:58:22.799000'
S'data saved as csv to c:\\Charlie\\charlie\\data\\csv\\4420_verbal_fluency.csv'
tp125
a(S'2015-07-20 14:59:27.706000'
g118
tp126
a(S'2015-07-20 14:59:27.711000'
g120
tp127
a(S'2015-07-20 14:59:27.715000'
S'data saved as csv to c:\\Charlie\\charlie\\data\\csv\\4420_verbal_fluency.csv'
tp128
a(S'2015-07-20 14:59:32.154000'
g118
tp129
a(S'2015-07-20 14:59:32.159000'
g120
tp130
a(S'2015-07-20 14:59:32.163000'
S'data saved as csv to c:\\Charlie\\charlie\\data\\csv\\4420_verbal_fluency.csv'
tp131
a(S'2015-07-20 15:00:35.614000'
g118
tp132
a(S'2015-07-20 15:00:35.620000'
g120
tp133
a(S'2015-07-20 15:00:35.624000'
S'data saved as csv to c:\\Charlie\\charlie\\data\\csv\\4420_verbal_fluency.csv'
tp134
a(S'2015-07-20 15:00:49.174000'
g118
tp135
a(S'2015-07-20 15:00:49.179000'
g120
tp136
a(S'2015-07-20 15:00:49.183000'
S'data saved as csv to c:\\Charlie\\charlie\\data\\csv\\4420_verbal_fluency.csv'
tp137
a(S'2015-07-20 15:01:52.666000'
g118
tp138
a(S'2015-07-20 15:01:52.671000'
g120
tp139
a(S'2015-07-20 15:01:52.675000'
S'data saved as csv to c:\\Charlie\\charlie\\data\\csv\\4420_verbal_fluency.csv'
tp140
asb.