(icharlie.tools.data
Data
p1
(dp2
S'lang'
p3
S'EN'
p4
sS'control'
p5
(lp6
sS'last_updated'
p7
cdatetime
datetime
p8
(S'\x07\xdf\x07\x18\x0c!\x01\x0c\x1d\x90'
tRp9
sS'last_opened'
p10
g8
(S'\x07\xdf\x07\x18\x0c\x1e\x04\x08\xaa\xc0'
tRp11
sS'proj_id'
p12
S'connectivity'
p13
sS'date_done'
p14
NsS'test_done'
p15
I01
sS'data'
p16
(lp17
(S'4421'
p18
S'digit_symbol'
p19
S'practice'
p20
I0
I2
I2
S'Yes'
p21
S'C:\\Users\\oleach\\Charlie-master\\Charlie-master\\charlie\\stimuli\\visual\\digit_symbol\\sym2.bmp'
g21
I5500
tp22
a(g18
g19
g20
I1
I6
I6
g21
S'C:\\Users\\oleach\\Charlie-master\\Charlie-master\\charlie\\stimuli\\visual\\digit_symbol\\sym6.bmp'
g21
I2021
tp23
a(g18
g19
g20
I2
I8
I4
S'No'
p24
S'C:\\Users\\oleach\\Charlie-master\\Charlie-master\\charlie\\stimuli\\visual\\digit_symbol\\sym4.bmp'
g24
I2510
tp25
a(g18
g19
g20
I3
I4
I4
g21
S'C:\\Users\\oleach\\Charlie-master\\Charlie-master\\charlie\\stimuli\\visual\\digit_symbol\\sym4.bmp'
g21
I1620
tp26
a(g18
g19
g20
I4
I7
I7
g21
S'C:\\Users\\oleach\\Charlie-master\\Charlie-master\\charlie\\stimuli\\visual\\digit_symbol\\sym7.bmp'
g21
I1550
tp27
a(g18
g19
g20
I5
I6
I5
g24
S'C:\\Users\\oleach\\Charlie-master\\Charlie-master\\charlie\\stimuli\\visual\\digit_symbol\\sym5.bmp'
g24
I1360
tp28
a(g18
g19
g20
I6
I2
I8
g24
S'C:\\Users\\oleach\\Charlie-master\\Charlie-master\\charlie\\stimuli\\visual\\digit_symbol\\sym8.bmp'
g24
I1740
tp29
a(g18
g19
g20
I7
I9
I2
g24
S'C:\\Users\\oleach\\Charlie-master\\Charlie-master\\charlie\\stimuli\\visual\\digit_symbol\\sym2.bmp'
g24
I1481
tp30
a(g18
g19
g20
I8
I3
I7
g24
S'C:\\Users\\oleach\\Charlie-master\\Charlie-master\\charlie\\stimuli\\visual\\digit_symbol\\sym7.bmp'
g24
I1250
tp31
a(g18
g19
g20
I9
I5
I6
g24
S'C:\\Users\\oleach\\Charlie-master\\Charlie-master\\charlie\\stimuli\\visual\\digit_symbol\\sym6.bmp'
g24
I1370
tp32
a(g18
g19
S'test'
p33
I0
I8
I8
g21
S'C:\\Users\\oleach\\Charlie-master\\Charlie-master\\charlie\\stimuli\\visual\\digit_symbol\\sym8.bmp'
g24
I1706
tp34
a(g18
g19
g33
I1
I1
I4
g24
S'C:\\Users\\oleach\\Charlie-master\\Charlie-master\\charlie\\stimuli\\visual\\digit_symbol\\sym4.bmp'
g24
I2703
tp35
a(g18
g19
g33
I2
I2
I8
g24
S'C:\\Users\\oleach\\Charlie-master\\Charlie-master\\charlie\\stimuli\\visual\\digit_symbol\\sym8.bmp'
g24
I1203
tp36
a(g18
g19
g33
I3
I6
I2
g24
S'C:\\Users\\oleach\\Charlie-master\\Charlie-master\\charlie\\stimuli\\visual\\digit_symbol\\sym2.bmp'
g24
I1203
tp37
a(g18
g19
g33
I4
I4
I4
g21
S'C:\\Users\\oleach\\Charlie-master\\Charlie-master\\charlie\\stimuli\\visual\\digit_symbol\\sym4.bmp'
g21
I1203
tp38
a(g18
g19
g33
I5
I9
I5
g24
S'C:\\Users\\oleach\\Charlie-master\\Charlie-master\\charlie\\stimuli\\visual\\digit_symbol\\sym5.bmp'
g24
I1504
tp39
a(g18
g19
g33
I6
I5
I6
g24
S'C:\\Users\\oleach\\Charlie-master\\Charlie-master\\charlie\\stimuli\\visual\\digit_symbol\\sym6.bmp'
g24
I1203
tp40
a(g18
g19
g33
I7
I3
I3
g21
S'C:\\Users\\oleach\\Charlie-master\\Charlie-master\\charlie\\stimuli\\visual\\digit_symbol\\sym3.bmp'
g21
I1103
tp41
a(g18
g19
g33
I8
I4
I4
g21
S'C:\\Users\\oleach\\Charlie-master\\Charlie-master\\charlie\\stimuli\\visual\\digit_symbol\\sym4.bmp'
g21
I1003
tp42
a(g18
g19
g33
I9
I9
I9
g21
S'C:\\Users\\oleach\\Charlie-master\\Charlie-master\\charlie\\stimuli\\visual\\digit_symbol\\sym9.bmp'
g21
I1303
tp43
a(g18
g19
g33
I10
I6
I6
g21
S'C:\\Users\\oleach\\Charlie-master\\Charlie-master\\charlie\\stimuli\\visual\\digit_symbol\\sym6.bmp'
g21
I1103
tp44
a(g18
g19
g33
I11
I1
I1
g21
S'C:\\Users\\oleach\\Charlie-master\\Charlie-master\\charlie\\stimuli\\visual\\digit_symbol\\sym1.bmp'
g21
I1303
tp45
a(g18
g19
g33
I12
I2
I2
g21
S'C:\\Users\\oleach\\Charlie-master\\Charlie-master\\charlie\\stimuli\\visual\\digit_symbol\\sym2.bmp'
g21
I1103
tp46
a(g18
g19
g33
I13
I7
I7
g21
S'C:\\Users\\oleach\\Charlie-master\\Charlie-master\\charlie\\stimuli\\visual\\digit_symbol\\sym7.bmp'
g21
I1303
tp47
a(g18
g19
g33
I14
I3
I3
g21
S'C:\\Users\\oleach\\Charlie-master\\Charlie-master\\charlie\\stimuli\\visual\\digit_symbol\\sym3.bmp'
g21
I1003
tp48
a(g18
g19
g33
I15
I8
I8
g21
S'C:\\Users\\oleach\\Charlie-master\\Charlie-master\\charlie\\stimuli\\visual\\digit_symbol\\sym8.bmp'
g21
I1303
tp49
a(g18
g19
g33
I16
I7
I7
g21
S'C:\\Users\\oleach\\Charlie-master\\Charlie-master\\charlie\\stimuli\\visual\\digit_symbol\\sym7.bmp'
g21
I1603
tp50
a(g18
g19
g33
I17
I5
I3
g24
S'C:\\Users\\oleach\\Charlie-master\\Charlie-master\\charlie\\stimuli\\visual\\digit_symbol\\sym3.bmp'
g24
I1403
tp51
a(g18
g19
g33
I18
I1
I5
g24
S'C:\\Users\\oleach\\Charlie-master\\Charlie-master\\charlie\\stimuli\\visual\\digit_symbol\\sym5.bmp'
g24
I1103
tp52
a(g18
g19
g33
I19
I4
I4
g21
S'C:\\Users\\oleach\\Charlie-master\\Charlie-master\\charlie\\stimuli\\visual\\digit_symbol\\sym4.bmp'
g21
I1204
tp53
a(g18
g19
g33
I20
I7
I8
g24
S'C:\\Users\\oleach\\Charlie-master\\Charlie-master\\charlie\\stimuli\\visual\\digit_symbol\\sym8.bmp'
g24
I1503
tp54
a(g18
g19
g33
I21
I4
I4
g21
S'C:\\Users\\oleach\\Charlie-master\\Charlie-master\\charlie\\stimuli\\visual\\digit_symbol\\sym4.bmp'
g21
I1203
tp55
a(g18
g19
g33
I22
I8
I8
g21
S'C:\\Users\\oleach\\Charlie-master\\Charlie-master\\charlie\\stimuli\\visual\\digit_symbol\\sym8.bmp'
g21
I1103
tp56
a(g18
g19
g33
I23
I3
I3
g21
S'C:\\Users\\oleach\\Charlie-master\\Charlie-master\\charlie\\stimuli\\visual\\digit_symbol\\sym3.bmp'
g21
I1203
tp57
a(g18
g19
g33
I24
I5
I5
g21
S'C:\\Users\\oleach\\Charlie-master\\Charlie-master\\charlie\\stimuli\\visual\\digit_symbol\\sym5.bmp'
g21
I1203
tp58
a(g18
g19
g33
I25
I3
I1
g24
S'C:\\Users\\oleach\\Charlie-master\\Charlie-master\\charlie\\stimuli\\visual\\digit_symbol\\sym1.bmp'
g24
I1403
tp59
a(g18
g19
g33
I26
I6
I9
g24
S'C:\\Users\\oleach\\Charlie-master\\Charlie-master\\charlie\\stimuli\\visual\\digit_symbol\\sym9.bmp'
g24
I1703
tp60
a(g18
g19
g33
I27
I2
I2
g21
S'C:\\Users\\oleach\\Charlie-master\\Charlie-master\\charlie\\stimuli\\visual\\digit_symbol\\sym2.bmp'
g21
I1003
tp61
a(g18
g19
g33
I28
I8
I8
g21
S'C:\\Users\\oleach\\Charlie-master\\Charlie-master\\charlie\\stimuli\\visual\\digit_symbol\\sym8.bmp'
g21
I1803
tp62
a(g18
g19
g33
I29
I9
I2
g24
S'C:\\Users\\oleach\\Charlie-master\\Charlie-master\\charlie\\stimuli\\visual\\digit_symbol\\sym2.bmp'
g24
I1203
tp63
a(g18
g19
g33
I30
I1
I6
g24
S'C:\\Users\\oleach\\Charlie-master\\Charlie-master\\charlie\\stimuli\\visual\\digit_symbol\\sym6.bmp'
g24
I1103
tp64
a(g18
g19
g33
I31
I5
I4
g24
S'C:\\Users\\oleach\\Charlie-master\\Charlie-master\\charlie\\stimuli\\visual\\digit_symbol\\sym4.bmp'
g24
I1004
tp65
a(g18
g19
g33
I32
I6
I6
g21
S'C:\\Users\\oleach\\Charlie-master\\Charlie-master\\charlie\\stimuli\\visual\\digit_symbol\\sym6.bmp'
g21
I1103
tp66
a(g18
g19
g33
I33
I2
I2
g21
S'C:\\Users\\oleach\\Charlie-master\\Charlie-master\\charlie\\stimuli\\visual\\digit_symbol\\sym2.bmp'
g21
I1103
tp67
a(g18
g19
g33
I34
I9
I9
g21
S'C:\\Users\\oleach\\Charlie-master\\Charlie-master\\charlie\\stimuli\\visual\\digit_symbol\\sym9.bmp'
g21
I1303
tp68
a(g18
g19
g33
I35
I7
I7
g21
S'C:\\Users\\oleach\\Charlie-master\\Charlie-master\\charlie\\stimuli\\visual\\digit_symbol\\sym7.bmp'
g21
I903
tp69
a(g18
g19
g33
I36
I3
I3
g21
S'C:\\Users\\oleach\\Charlie-master\\Charlie-master\\charlie\\stimuli\\visual\\digit_symbol\\sym3.bmp'
g21
I903
tp70
a(g18
g19
g33
I37
I1
I8
g24
S'C:\\Users\\oleach\\Charlie-master\\Charlie-master\\charlie\\stimuli\\visual\\digit_symbol\\sym8.bmp'
g24
I903
tp71
a(g18
g19
g33
I38
I6
I6
g21
S'C:\\Users\\oleach\\Charlie-master\\Charlie-master\\charlie\\stimuli\\visual\\digit_symbol\\sym6.bmp'
g21
I1203
tp72
a(g18
g19
g33
I39
I7
I7
g21
S'C:\\Users\\oleach\\Charlie-master\\Charlie-master\\charlie\\stimuli\\visual\\digit_symbol\\sym7.bmp'
g21
I1503
tp73
a(g18
g19
g33
I40
I9
I5
g24
S'C:\\Users\\oleach\\Charlie-master\\Charlie-master\\charlie\\stimuli\\visual\\digit_symbol\\sym5.bmp'
g21
I903
tp74
a(g18
g19
g33
I41
I7
I9
g24
S'C:\\Users\\oleach\\Charlie-master\\Charlie-master\\charlie\\stimuli\\visual\\digit_symbol\\sym9.bmp'
g24
I1603
tp75
a(g18
g19
g33
I42
I5
I7
g24
S'C:\\Users\\oleach\\Charlie-master\\Charlie-master\\charlie\\stimuli\\visual\\digit_symbol\\sym7.bmp'
g24
I1803
tp76
a(g18
g19
g33
I43
I2
I2
g21
S'C:\\Users\\oleach\\Charlie-master\\Charlie-master\\charlie\\stimuli\\visual\\digit_symbol\\sym2.bmp'
g21
I803
tp77
a(g18
g19
g33
I44
I1
I1
g21
S'C:\\Users\\oleach\\Charlie-master\\Charlie-master\\charlie\\stimuli\\visual\\digit_symbol\\sym1.bmp'
g24
I803
tp78
a(g18
g19
g33
I45
I6
I4
g24
S'C:\\Users\\oleach\\Charlie-master\\Charlie-master\\charlie\\stimuli\\visual\\digit_symbol\\sym4.bmp'
g24
I1704
tp79
a(g18
g19
g33
I46
I8
I3
g24
S'C:\\Users\\oleach\\Charlie-master\\Charlie-master\\charlie\\stimuli\\visual\\digit_symbol\\sym3.bmp'
g24
I1003
tp80
a(g18
g19
g33
I47
I2
I2
g21
S'C:\\Users\\oleach\\Charlie-master\\Charlie-master\\charlie\\stimuli\\visual\\digit_symbol\\sym2.bmp'
g21
I803
tp81
a(g18
g19
g33
I48
I4
I4
g21
S'C:\\Users\\oleach\\Charlie-master\\Charlie-master\\charlie\\stimuli\\visual\\digit_symbol\\sym4.bmp'
g21
I1003
tp82
a(g18
g19
g33
I49
I9
I1
g24
S'C:\\Users\\oleach\\Charlie-master\\Charlie-master\\charlie\\stimuli\\visual\\digit_symbol\\sym1.bmp'
g24
I1002
tp83
a(g18
g19
g33
I50
I4
I4
g21
S'C:\\Users\\oleach\\Charlie-master\\Charlie-master\\charlie\\stimuli\\visual\\digit_symbol\\sym4.bmp'
g21
I1903
tp84
a(g18
g19
g33
I51
I5
I5
g21
S'C:\\Users\\oleach\\Charlie-master\\Charlie-master\\charlie\\stimuli\\visual\\digit_symbol\\sym5.bmp'
g21
I1203
tp85
a(g18
g19
g33
I52
I3
I3
g21
S'C:\\Users\\oleach\\Charlie-master\\Charlie-master\\charlie\\stimuli\\visual\\digit_symbol\\sym3.bmp'
g21
I1103
tp86
a(g18
g19
g33
I53
I8
I8
g21
S'C:\\Users\\oleach\\Charlie-master\\Charlie-master\\charlie\\stimuli\\visual\\digit_symbol\\sym8.bmp'
g21
I1203
tp87
a(g18
g19
g33
I54
I9
I9
g21
S'C:\\Users\\oleach\\Charlie-master\\Charlie-master\\charlie\\stimuli\\visual\\digit_symbol\\sym9.bmp'
g21
I1003
tp88
a(g18
g19
g33
I55
I7
I7
g21
S'C:\\Users\\oleach\\Charlie-master\\Charlie-master\\charlie\\stimuli\\visual\\digit_symbol\\sym7.bmp'
g21
I1503
tp89
a(g18
g19
g33
I56
I3
I1
g24
S'C:\\Users\\oleach\\Charlie-master\\Charlie-master\\charlie\\stimuli\\visual\\digit_symbol\\sym1.bmp'
g24
I1403
tp90
a(g18
g19
g33
I57
I9
I7
g24
S'C:\\Users\\oleach\\Charlie-master\\Charlie-master\\charlie\\stimuli\\visual\\digit_symbol\\sym7.bmp'
g24
I1003
tp91
a(g18
g19
g33
I58
I1
I8
g24
S'C:\\Users\\oleach\\Charlie-master\\Charlie-master\\charlie\\stimuli\\visual\\digit_symbol\\sym8.bmp'
g24
I903
tp92
a(g18
g19
g33
I59
I8
I9
g24
S'C:\\Users\\oleach\\Charlie-master\\Charlie-master\\charlie\\stimuli\\visual\\digit_symbol\\sym9.bmp'
g24
I1604
tp93
a(g18
g19
g33
I60
I4
I2
g24
S'C:\\Users\\oleach\\Charlie-master\\Charlie-master\\charlie\\stimuli\\visual\\digit_symbol\\sym2.bmp'
g24
I1103
tp94
a(g18
g19
g33
I61
I2
I6
g24
S'C:\\Users\\oleach\\Charlie-master\\Charlie-master\\charlie\\stimuli\\visual\\digit_symbol\\sym6.bmp'
g24
I1103
tp95
a(g18
g19
g33
I62
I5
I5
g21
S'C:\\Users\\oleach\\Charlie-master\\Charlie-master\\charlie\\stimuli\\visual\\digit_symbol\\sym5.bmp'
g21
I1003
tp96
a(g18
g19
g33
I63
I2
I2
g21
S'C:\\Users\\oleach\\Charlie-master\\Charlie-master\\charlie\\stimuli\\visual\\digit_symbol\\sym2.bmp'
g21
I1403
tp97
a(g18
g19
g33
I64
I8
I8
g21
S'C:\\Users\\oleach\\Charlie-master\\Charlie-master\\charlie\\stimuli\\visual\\digit_symbol\\sym8.bmp'
g21
I1003
tp98
a(g18
g19
g33
I65
I5
I5
g21
S'C:\\Users\\oleach\\Charlie-master\\Charlie-master\\charlie\\stimuli\\visual\\digit_symbol\\sym5.bmp'
g21
I1203
tp99
a(g18
g19
g33
I66
I4
I3
g24
S'C:\\Users\\oleach\\Charlie-master\\Charlie-master\\charlie\\stimuli\\visual\\digit_symbol\\sym3.bmp'
g24
I1203
tp100
asS'output_format'
p101
(lp102
(S'proband_id'
p103
c__builtin__
str
p104
tp105
a(S'test_name'
p106
g104
tp107
a(S'phase'
p108
g104
tp109
a(S'trialn'
p110
c__builtin__
int
p111
tp112
a(S'digit'
p113
g111
tp114
a(S'symbol'
p115
g111
tp116
a(S'ans'
p117
g104
tp118
a(S'f'
g104
tp119
a(S'rsp'
p120
g104
tp121
a(S'rt'
p122
g111
tp123
asg103
g18
sS'filename'
p124
S'4421_digit_symbol.data'
p125
sS'initialised'
p126
g8
(S'\x07\xdf\x07\x18\x0c\x1e\x04\x08\xa6\xd8'
tRp127
sS'last_udated'
p128
g8
(S'\x07\xdf\x07\x18\x0c\x1e\x04\x08\xaa\xc0'
tRp129
sg106
S'digit_symbol'
p130
sS'directory'
p131
S'C:\\Users\\oleach\\Charlie-master\\Charlie-master\\charlie\\data\\raw'
p132
sS'user_id'
p133
S'oleach'
p134
sS'test_started'
p135
I01
sS'abs_filename'
p136
S'C:\\Users\\oleach\\Charlie-master\\Charlie-master\\charlie\\data\\raw\\4421_digit_symbol.data'
p137
sS'date_started'
p138
g8
(S'\x07\xdf\x07\x18\x0c\x1e/\x0b\x1f\xa8'
tRp139
sS'log'
p140
(lp141
(S'2015-07-24 12:30:04.568000'
S'instance created'
p142
tp143
a(S'2015-07-24 12:30:47.739000'
S'instance updated'
p144
tp145
a(S'2015-07-24 12:30:47.749000'
S'pandas DataFrame of data created'
p146
tp147
a(S'2015-07-24 12:30:47.753000'
S'data saved as csv to C:\\Users\\oleach\\Charlie-master\\Charlie-master\\charlie\\data\\csv\\4421_digit_symbol.csv'
tp148
a(S'2015-07-24 12:30:50.803000'
g144
tp149
a(S'2015-07-24 12:30:50.813000'
g146
tp150
a(S'2015-07-24 12:30:50.816000'
S'data saved as csv to C:\\Users\\oleach\\Charlie-master\\Charlie-master\\charlie\\data\\csv\\4421_digit_symbol.csv'
tp151
a(S'2015-07-24 12:30:54.354000'
g144
tp152
a(S'2015-07-24 12:30:54.364000'
g146
tp153
a(S'2015-07-24 12:30:54.368000'
S'data saved as csv to C:\\Users\\oleach\\Charlie-master\\Charlie-master\\charlie\\data\\csv\\4421_digit_symbol.csv'
tp154
a(S'2015-07-24 12:30:57.017000'
g144
tp155
a(S'2015-07-24 12:30:57.027000'
g146
tp156
a(S'2015-07-24 12:30:57.031000'
S'data saved as csv to C:\\Users\\oleach\\Charlie-master\\Charlie-master\\charlie\\data\\csv\\4421_digit_symbol.csv'
tp157
a(S'2015-07-24 12:30:59.609000'
g144
tp158
a(S'2015-07-24 12:30:59.619000'
g146
tp159
a(S'2015-07-24 12:30:59.623000'
S'data saved as csv to C:\\Users\\oleach\\Charlie-master\\Charlie-master\\charlie\\data\\csv\\4421_digit_symbol.csv'
tp160
a(S'2015-07-24 12:31:02.012000'
g144
tp161
a(S'2015-07-24 12:31:02.023000'
g146
tp162
a(S'2015-07-24 12:31:02.026000'
S'data saved as csv to C:\\Users\\oleach\\Charlie-master\\Charlie-master\\charlie\\data\\csv\\4421_digit_symbol.csv'
tp163
a(S'2015-07-24 12:31:04.795000'
g144
tp164
a(S'2015-07-24 12:31:04.805000'
g146
tp165
a(S'2015-07-24 12:31:04.809000'
S'data saved as csv to C:\\Users\\oleach\\Charlie-master\\Charlie-master\\charlie\\data\\csv\\4421_digit_symbol.csv'
tp166
a(S'2015-07-24 12:31:07.317000'
g144
tp167
a(S'2015-07-24 12:31:07.327000'
g146
tp168
a(S'2015-07-24 12:31:07.331000'
S'data saved as csv to C:\\Users\\oleach\\Charlie-master\\Charlie-master\\charlie\\data\\csv\\4421_digit_symbol.csv'
tp169
a(S'2015-07-24 12:31:09.608000'
g144
tp170
a(S'2015-07-24 12:31:09.618000'
g146
tp171
a(S'2015-07-24 12:31:09.622000'
S'data saved as csv to C:\\Users\\oleach\\Charlie-master\\Charlie-master\\charlie\\data\\csv\\4421_digit_symbol.csv'
tp172
a(S'2015-07-24 12:31:12.022000'
g144
tp173
a(S'2015-07-24 12:31:12.032000'
g146
tp174
a(S'2015-07-24 12:31:12.036000'
S'data saved as csv to C:\\Users\\oleach\\Charlie-master\\Charlie-master\\charlie\\data\\csv\\4421_digit_symbol.csv'
tp175
a(S'2015-07-24 12:33:01.775000'
g144
tp176
a(S'2015-07-24 12:33:01.786000'
g146
tp177
a(S'2015-07-24 12:33:01.793000'
S'data saved as csv to C:\\Users\\oleach\\Charlie-master\\Charlie-master\\charlie\\data\\csv\\4421_digit_symbol.csv'
tp178
asb.