(icharlie.tools.data
Data
p1
(dp2
S'lang'
p3
S'EN'
p4
sS'control'
p5
(lp6
sS'last_updated'
p7
S'2015-08-13 14:02:00.066000'
p8
sS'last_opened'
p9
cdatetime
datetime
p10
(S'\x07\xdf\x08\r\r7\x13\x03z\xa0'
tRp11
sS'proj_id'
p12
S'connectivity'
p13
sS'date_done'
p14
g10
(S'\x07\xdf\x08\r\x0e\x02\x00\x01\x01\xd0'
tRp15
sS'test_done'
p16
I01
sS'data'
p17
(lp18
(S'4423'
p19
S'pcet'
p20
S'practice'
p21
I0
NI2
I2
I2
I2
S'C:\\Users\\Jbarrett\\Charlie\\charlie\\stimuli\\visual\\pcet\\000.png'
S'C:\\Users\\Jbarrett\\Charlie\\charlie\\stimuli\\visual\\pcet\\000.png'
S'C:\\Users\\Jbarrett\\Charlie\\charlie\\stimuli\\visual\\pcet\\111.png'
S'C:\\Users\\Jbarrett\\Charlie\\charlie\\stimuli\\visual\\pcet\\000.png'
I2
I3790
tp22
a(g19
g20
S'test'
p23
I0
S'thickness'
p24
I3
NNI1
S'C:\\Users\\Jbarrett\\Charlie\\charlie\\stimuli\\visual\\pcet\\010.png'
S'C:\\Users\\Jbarrett\\Charlie\\charlie\\stimuli\\visual\\pcet\\000.png'
S'C:\\Users\\Jbarrett\\Charlie\\charlie\\stimuli\\visual\\pcet\\001.png'
S'C:\\Users\\Jbarrett\\Charlie\\charlie\\stimuli\\visual\\pcet\\100.png'
I0
I2840
tp25
a(g19
g20
g23
I1
g24
I2
NNI0
S'C:\\Users\\Jbarrett\\Charlie\\charlie\\stimuli\\visual\\pcet\\110.png'
S'C:\\Users\\Jbarrett\\Charlie\\charlie\\stimuli\\visual\\pcet\\111.png'
S'C:\\Users\\Jbarrett\\Charlie\\charlie\\stimuli\\visual\\pcet\\010.png'
S'C:\\Users\\Jbarrett\\Charlie\\charlie\\stimuli\\visual\\pcet\\100.png'
I2
I5500
tp26
a(g19
g20
g23
I2
g24
I0
NNI3
S'C:\\Users\\Jbarrett\\Charlie\\charlie\\stimuli\\visual\\pcet\\010.png'
S'C:\\Users\\Jbarrett\\Charlie\\charlie\\stimuli\\visual\\pcet\\111.png'
S'C:\\Users\\Jbarrett\\Charlie\\charlie\\stimuli\\visual\\pcet\\100.png'
S'C:\\Users\\Jbarrett\\Charlie\\charlie\\stimuli\\visual\\pcet\\110.png'
I0
I1840
tp27
a(g19
g20
g23
I3
g24
I3
NNI1
S'C:\\Users\\Jbarrett\\Charlie\\charlie\\stimuli\\visual\\pcet\\000.png'
S'C:\\Users\\Jbarrett\\Charlie\\charlie\\stimuli\\visual\\pcet\\010.png'
S'C:\\Users\\Jbarrett\\Charlie\\charlie\\stimuli\\visual\\pcet\\011.png'
S'C:\\Users\\Jbarrett\\Charlie\\charlie\\stimuli\\visual\\pcet\\110.png'
I0
I3650
tp28
a(g19
g20
g23
I4
g24
I0
NNI3
S'C:\\Users\\Jbarrett\\Charlie\\charlie\\stimuli\\visual\\pcet\\011.png'
S'C:\\Users\\Jbarrett\\Charlie\\charlie\\stimuli\\visual\\pcet\\110.png'
S'C:\\Users\\Jbarrett\\Charlie\\charlie\\stimuli\\visual\\pcet\\101.png'
S'C:\\Users\\Jbarrett\\Charlie\\charlie\\stimuli\\visual\\pcet\\111.png'
I0
I710
tp29
a(g19
g20
g23
I5
g24
I3
NNI1
S'C:\\Users\\Jbarrett\\Charlie\\charlie\\stimuli\\visual\\pcet\\100.png'
S'C:\\Users\\Jbarrett\\Charlie\\charlie\\stimuli\\visual\\pcet\\101.png'
S'C:\\Users\\Jbarrett\\Charlie\\charlie\\stimuli\\visual\\pcet\\111.png'
S'C:\\Users\\Jbarrett\\Charlie\\charlie\\stimuli\\visual\\pcet\\001.png'
I3
I2730
tp30
a(g19
g20
g23
I6
g24
I1
NNI3
S'C:\\Users\\Jbarrett\\Charlie\\charlie\\stimuli\\visual\\pcet\\010.png'
S'C:\\Users\\Jbarrett\\Charlie\\charlie\\stimuli\\visual\\pcet\\100.png'
S'C:\\Users\\Jbarrett\\Charlie\\charlie\\stimuli\\visual\\pcet\\001.png'
S'C:\\Users\\Jbarrett\\Charlie\\charlie\\stimuli\\visual\\pcet\\000.png'
I1
I1530
tp31
a(g19
g20
g23
I7
g24
I0
NNI1
S'C:\\Users\\Jbarrett\\Charlie\\charlie\\stimuli\\visual\\pcet\\101.png'
S'C:\\Users\\Jbarrett\\Charlie\\charlie\\stimuli\\visual\\pcet\\001.png'
S'C:\\Users\\Jbarrett\\Charlie\\charlie\\stimuli\\visual\\pcet\\000.png'
S'C:\\Users\\Jbarrett\\Charlie\\charlie\\stimuli\\visual\\pcet\\011.png'
I0
I1121
tp32
a(g19
g20
g23
I8
g24
I0
NNI1
S'C:\\Users\\Jbarrett\\Charlie\\charlie\\stimuli\\visual\\pcet\\010.png'
S'C:\\Users\\Jbarrett\\Charlie\\charlie\\stimuli\\visual\\pcet\\110.png'
S'C:\\Users\\Jbarrett\\Charlie\\charlie\\stimuli\\visual\\pcet\\111.png'
S'C:\\Users\\Jbarrett\\Charlie\\charlie\\stimuli\\visual\\pcet\\100.png'
I0
I1700
tp33
a(g19
g20
g23
I9
g24
I1
NNI3
S'C:\\Users\\Jbarrett\\Charlie\\charlie\\stimuli\\visual\\pcet\\100.png'
S'C:\\Users\\Jbarrett\\Charlie\\charlie\\stimuli\\visual\\pcet\\010.png'
S'C:\\Users\\Jbarrett\\Charlie\\charlie\\stimuli\\visual\\pcet\\111.png'
S'C:\\Users\\Jbarrett\\Charlie\\charlie\\stimuli\\visual\\pcet\\110.png'
I1
I1310
tp34
a(g19
g20
g23
I10
g24
I2
NNI0
S'C:\\Users\\Jbarrett\\Charlie\\charlie\\stimuli\\visual\\pcet\\111.png'
S'C:\\Users\\Jbarrett\\Charlie\\charlie\\stimuli\\visual\\pcet\\101.png'
S'C:\\Users\\Jbarrett\\Charlie\\charlie\\stimuli\\visual\\pcet\\011.png'
S'C:\\Users\\Jbarrett\\Charlie\\charlie\\stimuli\\visual\\pcet\\110.png'
I2
I830
tp35
a(g19
g20
g23
I11
g24
I0
NNI1
S'C:\\Users\\Jbarrett\\Charlie\\charlie\\stimuli\\visual\\pcet\\011.png'
S'C:\\Users\\Jbarrett\\Charlie\\charlie\\stimuli\\visual\\pcet\\111.png'
S'C:\\Users\\Jbarrett\\Charlie\\charlie\\stimuli\\visual\\pcet\\101.png'
S'C:\\Users\\Jbarrett\\Charlie\\charlie\\stimuli\\visual\\pcet\\110.png'
I0
I1090
tp36
a(g19
g20
g23
I12
S'shape'
p37
I0
I3
I2
I1
S'C:\\Users\\Jbarrett\\Charlie\\charlie\\stimuli\\visual\\pcet\\110.png'
S'C:\\Users\\Jbarrett\\Charlie\\charlie\\stimuli\\visual\\pcet\\100.png'
S'C:\\Users\\Jbarrett\\Charlie\\charlie\\stimuli\\visual\\pcet\\101.png'
S'C:\\Users\\Jbarrett\\Charlie\\charlie\\stimuli\\visual\\pcet\\000.png'
I3
I1520
tp38
a(g19
g20
g23
I13
g37
I3
I2
I1
I0
S'C:\\Users\\Jbarrett\\Charlie\\charlie\\stimuli\\visual\\pcet\\101.png'
S'C:\\Users\\Jbarrett\\Charlie\\charlie\\stimuli\\visual\\pcet\\100.png'
S'C:\\Users\\Jbarrett\\Charlie\\charlie\\stimuli\\visual\\pcet\\001.png'
S'C:\\Users\\Jbarrett\\Charlie\\charlie\\stimuli\\visual\\pcet\\111.png'
I2
I1080
tp39
a(g19
g20
g23
I14
g37
I3
I1
I0
I2
S'C:\\Users\\Jbarrett\\Charlie\\charlie\\stimuli\\visual\\pcet\\101.png'
S'C:\\Users\\Jbarrett\\Charlie\\charlie\\stimuli\\visual\\pcet\\000.png'
S'C:\\Users\\Jbarrett\\Charlie\\charlie\\stimuli\\visual\\pcet\\100.png'
S'C:\\Users\\Jbarrett\\Charlie\\charlie\\stimuli\\visual\\pcet\\110.png'
I1
I1720
tp40
a(g19
g20
g23
I15
g37
I1
I3
I0
I2
S'C:\\Users\\Jbarrett\\Charlie\\charlie\\stimuli\\visual\\pcet\\101.png'
S'C:\\Users\\Jbarrett\\Charlie\\charlie\\stimuli\\visual\\pcet\\110.png'
S'C:\\Users\\Jbarrett\\Charlie\\charlie\\stimuli\\visual\\pcet\\100.png'
S'C:\\Users\\Jbarrett\\Charlie\\charlie\\stimuli\\visual\\pcet\\000.png'
I0
I8080
tp41
a(g19
g20
g23
I16
g37
I1
I0
I3
I2
S'C:\\Users\\Jbarrett\\Charlie\\charlie\\stimuli\\visual\\pcet\\111.png'
S'C:\\Users\\Jbarrett\\Charlie\\charlie\\stimuli\\visual\\pcet\\001.png'
S'C:\\Users\\Jbarrett\\Charlie\\charlie\\stimuli\\visual\\pcet\\011.png'
S'C:\\Users\\Jbarrett\\Charlie\\charlie\\stimuli\\visual\\pcet\\010.png'
I0
I1830
tp42
a(g19
g20
g23
I17
g37
I2
I1
I3
I0
S'C:\\Users\\Jbarrett\\Charlie\\charlie\\stimuli\\visual\\pcet\\111.png'
S'C:\\Users\\Jbarrett\\Charlie\\charlie\\stimuli\\visual\\pcet\\011.png'
S'C:\\Users\\Jbarrett\\Charlie\\charlie\\stimuli\\visual\\pcet\\101.png'
S'C:\\Users\\Jbarrett\\Charlie\\charlie\\stimuli\\visual\\pcet\\110.png'
I1
I7501
tp43
a(g19
g20
g23
I18
g37
I3
I2
I1
I0
S'C:\\Users\\Jbarrett\\Charlie\\charlie\\stimuli\\visual\\pcet\\010.png'
S'C:\\Users\\Jbarrett\\Charlie\\charlie\\stimuli\\visual\\pcet\\011.png'
S'C:\\Users\\Jbarrett\\Charlie\\charlie\\stimuli\\visual\\pcet\\110.png'
S'C:\\Users\\Jbarrett\\Charlie\\charlie\\stimuli\\visual\\pcet\\000.png'
I2
I7140
tp44
a(g19
g20
g23
I19
g37
I1
I0
I2
I3
S'C:\\Users\\Jbarrett\\Charlie\\charlie\\stimuli\\visual\\pcet\\000.png'
S'C:\\Users\\Jbarrett\\Charlie\\charlie\\stimuli\\visual\\pcet\\110.png'
S'C:\\Users\\Jbarrett\\Charlie\\charlie\\stimuli\\visual\\pcet\\101.png'
S'C:\\Users\\Jbarrett\\Charlie\\charlie\\stimuli\\visual\\pcet\\100.png'
I2
I8791
tp45
a(g19
g20
g23
I20
g37
I3
I2
I1
I0
S'C:\\Users\\Jbarrett\\Charlie\\charlie\\stimuli\\visual\\pcet\\101.png'
S'C:\\Users\\Jbarrett\\Charlie\\charlie\\stimuli\\visual\\pcet\\100.png'
S'C:\\Users\\Jbarrett\\Charlie\\charlie\\stimuli\\visual\\pcet\\001.png'
S'C:\\Users\\Jbarrett\\Charlie\\charlie\\stimuli\\visual\\pcet\\111.png'
I0
I11891
tp46
a(g19
g20
g23
I21
g37
I1
I0
I3
I2
S'C:\\Users\\Jbarrett\\Charlie\\charlie\\stimuli\\visual\\pcet\\010.png'
S'C:\\Users\\Jbarrett\\Charlie\\charlie\\stimuli\\visual\\pcet\\100.png'
S'C:\\Users\\Jbarrett\\Charlie\\charlie\\stimuli\\visual\\pcet\\110.png'
S'C:\\Users\\Jbarrett\\Charlie\\charlie\\stimuli\\visual\\pcet\\111.png'
I3
I13321
tp47
a(g19
g20
g23
I22
g37
I2
I1
I0
I3
S'C:\\Users\\Jbarrett\\Charlie\\charlie\\stimuli\\visual\\pcet\\000.png'
S'C:\\Users\\Jbarrett\\Charlie\\charlie\\stimuli\\visual\\pcet\\101.png'
S'C:\\Users\\Jbarrett\\Charlie\\charlie\\stimuli\\visual\\pcet\\011.png'
S'C:\\Users\\Jbarrett\\Charlie\\charlie\\stimuli\\visual\\pcet\\001.png'
I0
I12000
tp48
a(g19
g20
g23
I23
g37
I1
I0
I2
I3
S'C:\\Users\\Jbarrett\\Charlie\\charlie\\stimuli\\visual\\pcet\\100.png'
S'C:\\Users\\Jbarrett\\Charlie\\charlie\\stimuli\\visual\\pcet\\010.png'
S'C:\\Users\\Jbarrett\\Charlie\\charlie\\stimuli\\visual\\pcet\\001.png'
S'C:\\Users\\Jbarrett\\Charlie\\charlie\\stimuli\\visual\\pcet\\000.png'
I0
I4721
tp49
a(g19
g20
g23
I24
S'size'
p50
I0
I2
I3
I1
S'C:\\Users\\Jbarrett\\Charlie\\charlie\\stimuli\\visual\\pcet\\101.png'
S'C:\\Users\\Jbarrett\\Charlie\\charlie\\stimuli\\visual\\pcet\\100.png'
S'C:\\Users\\Jbarrett\\Charlie\\charlie\\stimuli\\visual\\pcet\\110.png'
S'C:\\Users\\Jbarrett\\Charlie\\charlie\\stimuli\\visual\\pcet\\000.png'
I1
I5480
tp51
a(g19
g20
g23
I25
g50
I3
I2
I0
I1
S'C:\\Users\\Jbarrett\\Charlie\\charlie\\stimuli\\visual\\pcet\\001.png'
S'C:\\Users\\Jbarrett\\Charlie\\charlie\\stimuli\\visual\\pcet\\101.png'
S'C:\\Users\\Jbarrett\\Charlie\\charlie\\stimuli\\visual\\pcet\\111.png'
S'C:\\Users\\Jbarrett\\Charlie\\charlie\\stimuli\\visual\\pcet\\100.png'
I0
I2020
tp52
a(g19
g20
g23
I26
g50
I0
I3
I2
I1
S'C:\\Users\\Jbarrett\\Charlie\\charlie\\stimuli\\visual\\pcet\\000.png'
S'C:\\Users\\Jbarrett\\Charlie\\charlie\\stimuli\\visual\\pcet\\001.png'
S'C:\\Users\\Jbarrett\\Charlie\\charlie\\stimuli\\visual\\pcet\\101.png'
S'C:\\Users\\Jbarrett\\Charlie\\charlie\\stimuli\\visual\\pcet\\011.png'
I2
I2201
tp53
a(g19
g20
g23
I27
g50
I1
I2
I3
I0
S'C:\\Users\\Jbarrett\\Charlie\\charlie\\stimuli\\visual\\pcet\\101.png'
S'C:\\Users\\Jbarrett\\Charlie\\charlie\\stimuli\\visual\\pcet\\100.png'
S'C:\\Users\\Jbarrett\\Charlie\\charlie\\stimuli\\visual\\pcet\\111.png'
S'C:\\Users\\Jbarrett\\Charlie\\charlie\\stimuli\\visual\\pcet\\001.png'
I1
I1230
tp54
a(g19
g20
g23
I28
g50
I2
I3
I1
I0
S'C:\\Users\\Jbarrett\\Charlie\\charlie\\stimuli\\visual\\pcet\\110.png'
S'C:\\Users\\Jbarrett\\Charlie\\charlie\\stimuli\\visual\\pcet\\010.png'
S'C:\\Users\\Jbarrett\\Charlie\\charlie\\stimuli\\visual\\pcet\\111.png'
S'C:\\Users\\Jbarrett\\Charlie\\charlie\\stimuli\\visual\\pcet\\100.png'
I2
I12211
tp55
a(g19
g20
g23
I29
g50
I1
I0
I2
I3
S'C:\\Users\\Jbarrett\\Charlie\\charlie\\stimuli\\visual\\pcet\\111.png'
S'C:\\Users\\Jbarrett\\Charlie\\charlie\\stimuli\\visual\\pcet\\100.png'
S'C:\\Users\\Jbarrett\\Charlie\\charlie\\stimuli\\visual\\pcet\\001.png'
S'C:\\Users\\Jbarrett\\Charlie\\charlie\\stimuli\\visual\\pcet\\101.png'
I1
I40
tp56
a(g19
g20
g23
I30
g50
I0
I1
I2
I3
S'C:\\Users\\Jbarrett\\Charlie\\charlie\\stimuli\\visual\\pcet\\011.png'
S'C:\\Users\\Jbarrett\\Charlie\\charlie\\stimuli\\visual\\pcet\\000.png'
S'C:\\Users\\Jbarrett\\Charlie\\charlie\\stimuli\\visual\\pcet\\110.png'
S'C:\\Users\\Jbarrett\\Charlie\\charlie\\stimuli\\visual\\pcet\\010.png'
I3
I7670
tp57
a(g19
g20
g23
I31
g50
I3
I1
I0
I2
S'C:\\Users\\Jbarrett\\Charlie\\charlie\\stimuli\\visual\\pcet\\110.png'
S'C:\\Users\\Jbarrett\\Charlie\\charlie\\stimuli\\visual\\pcet\\000.png'
S'C:\\Users\\Jbarrett\\Charlie\\charlie\\stimuli\\visual\\pcet\\010.png'
S'C:\\Users\\Jbarrett\\Charlie\\charlie\\stimuli\\visual\\pcet\\011.png'
I0
I8160
tp58
a(g19
g20
g23
I32
g50
I0
I2
I1
I3
S'C:\\Users\\Jbarrett\\Charlie\\charlie\\stimuli\\visual\\pcet\\000.png'
S'C:\\Users\\Jbarrett\\Charlie\\charlie\\stimuli\\visual\\pcet\\101.png'
S'C:\\Users\\Jbarrett\\Charlie\\charlie\\stimuli\\visual\\pcet\\011.png'
S'C:\\Users\\Jbarrett\\Charlie\\charlie\\stimuli\\visual\\pcet\\001.png'
I0
I6871
tp59
a(g19
g20
g23
I33
g50
I3
I1
I2
I0
S'C:\\Users\\Jbarrett\\Charlie\\charlie\\stimuli\\visual\\pcet\\011.png'
S'C:\\Users\\Jbarrett\\Charlie\\charlie\\stimuli\\visual\\pcet\\001.png'
S'C:\\Users\\Jbarrett\\Charlie\\charlie\\stimuli\\visual\\pcet\\111.png'
S'C:\\Users\\Jbarrett\\Charlie\\charlie\\stimuli\\visual\\pcet\\010.png'
I3
I1700
tp60
a(g19
g20
g23
I34
g50
I2
I3
I1
I0
S'C:\\Users\\Jbarrett\\Charlie\\charlie\\stimuli\\visual\\pcet\\011.png'
S'C:\\Users\\Jbarrett\\Charlie\\charlie\\stimuli\\visual\\pcet\\111.png'
S'C:\\Users\\Jbarrett\\Charlie\\charlie\\stimuli\\visual\\pcet\\010.png'
S'C:\\Users\\Jbarrett\\Charlie\\charlie\\stimuli\\visual\\pcet\\001.png'
I2
I900
tp61
a(g19
g20
g23
I35
g50
I2
I0
I1
I3
S'C:\\Users\\Jbarrett\\Charlie\\charlie\\stimuli\\visual\\pcet\\010.png'
S'C:\\Users\\Jbarrett\\Charlie\\charlie\\stimuli\\visual\\pcet\\100.png'
S'C:\\Users\\Jbarrett\\Charlie\\charlie\\stimuli\\visual\\pcet\\001.png'
S'C:\\Users\\Jbarrett\\Charlie\\charlie\\stimuli\\visual\\pcet\\000.png'
I0
I1000
tp62
a(g19
g20
g23
I36
g24
I2
I3
I1
I0
S'C:\\Users\\Jbarrett\\Charlie\\charlie\\stimuli\\visual\\pcet\\010.png'
S'C:\\Users\\Jbarrett\\Charlie\\charlie\\stimuli\\visual\\pcet\\000.png'
S'C:\\Users\\Jbarrett\\Charlie\\charlie\\stimuli\\visual\\pcet\\110.png'
S'C:\\Users\\Jbarrett\\Charlie\\charlie\\stimuli\\visual\\pcet\\011.png'
I3
I5340
tp63
a(g19
g20
g23
I37
g24
I3
I2
I1
I0
S'C:\\Users\\Jbarrett\\Charlie\\charlie\\stimuli\\visual\\pcet\\101.png'
S'C:\\Users\\Jbarrett\\Charlie\\charlie\\stimuli\\visual\\pcet\\111.png'
S'C:\\Users\\Jbarrett\\Charlie\\charlie\\stimuli\\visual\\pcet\\100.png'
S'C:\\Users\\Jbarrett\\Charlie\\charlie\\stimuli\\visual\\pcet\\001.png'
I2
I3710
tp64
a(g19
g20
g23
I38
g24
I0
I3
I1
I2
S'C:\\Users\\Jbarrett\\Charlie\\charlie\\stimuli\\visual\\pcet\\100.png'
S'C:\\Users\\Jbarrett\\Charlie\\charlie\\stimuli\\visual\\pcet\\010.png'
S'C:\\Users\\Jbarrett\\Charlie\\charlie\\stimuli\\visual\\pcet\\000.png'
S'C:\\Users\\Jbarrett\\Charlie\\charlie\\stimuli\\visual\\pcet\\001.png'
I1
I7340
tp65
a(g19
g20
g23
I39
g24
I0
I3
I2
I1
S'C:\\Users\\Jbarrett\\Charlie\\charlie\\stimuli\\visual\\pcet\\010.png'
S'C:\\Users\\Jbarrett\\Charlie\\charlie\\stimuli\\visual\\pcet\\110.png'
S'C:\\Users\\Jbarrett\\Charlie\\charlie\\stimuli\\visual\\pcet\\100.png'
S'C:\\Users\\Jbarrett\\Charlie\\charlie\\stimuli\\visual\\pcet\\111.png'
I0
I8111
tp66
a(g19
g20
g23
I40
g24
I0
I1
I2
I3
S'C:\\Users\\Jbarrett\\Charlie\\charlie\\stimuli\\visual\\pcet\\001.png'
S'C:\\Users\\Jbarrett\\Charlie\\charlie\\stimuli\\visual\\pcet\\100.png'
S'C:\\Users\\Jbarrett\\Charlie\\charlie\\stimuli\\visual\\pcet\\111.png'
S'C:\\Users\\Jbarrett\\Charlie\\charlie\\stimuli\\visual\\pcet\\101.png'
I1
I1660
tp67
a(g19
g20
g23
I41
g24
I3
I0
I2
I1
S'C:\\Users\\Jbarrett\\Charlie\\charlie\\stimuli\\visual\\pcet\\111.png'
S'C:\\Users\\Jbarrett\\Charlie\\charlie\\stimuli\\visual\\pcet\\110.png'
S'C:\\Users\\Jbarrett\\Charlie\\charlie\\stimuli\\visual\\pcet\\100.png'
S'C:\\Users\\Jbarrett\\Charlie\\charlie\\stimuli\\visual\\pcet\\010.png'
I3
I1170
tp68
a(g19
g20
g23
I42
g24
I0
I3
I1
I2
S'C:\\Users\\Jbarrett\\Charlie\\charlie\\stimuli\\visual\\pcet\\110.png'
S'C:\\Users\\Jbarrett\\Charlie\\charlie\\stimuli\\visual\\pcet\\000.png'
S'C:\\Users\\Jbarrett\\Charlie\\charlie\\stimuli\\visual\\pcet\\010.png'
S'C:\\Users\\Jbarrett\\Charlie\\charlie\\stimuli\\visual\\pcet\\011.png'
I2
I1441
tp69
a(g19
g20
g23
I43
g24
I0
I3
I2
I1
S'C:\\Users\\Jbarrett\\Charlie\\charlie\\stimuli\\visual\\pcet\\000.png'
S'C:\\Users\\Jbarrett\\Charlie\\charlie\\stimuli\\visual\\pcet\\100.png'
S'C:\\Users\\Jbarrett\\Charlie\\charlie\\stimuli\\visual\\pcet\\110.png'
S'C:\\Users\\Jbarrett\\Charlie\\charlie\\stimuli\\visual\\pcet\\101.png'
I2
I1020
tp70
a(g19
g20
g23
I44
g24
I2
I1
I3
I0
S'C:\\Users\\Jbarrett\\Charlie\\charlie\\stimuli\\visual\\pcet\\010.png'
S'C:\\Users\\Jbarrett\\Charlie\\charlie\\stimuli\\visual\\pcet\\011.png'
S'C:\\Users\\Jbarrett\\Charlie\\charlie\\stimuli\\visual\\pcet\\110.png'
S'C:\\Users\\Jbarrett\\Charlie\\charlie\\stimuli\\visual\\pcet\\000.png'
I0
I1600
tp71
a(g19
g20
g23
I45
g24
I3
I0
I2
I1
S'C:\\Users\\Jbarrett\\Charlie\\charlie\\stimuli\\visual\\pcet\\011.png'
S'C:\\Users\\Jbarrett\\Charlie\\charlie\\stimuli\\visual\\pcet\\010.png'
S'C:\\Users\\Jbarrett\\Charlie\\charlie\\stimuli\\visual\\pcet\\000.png'
S'C:\\Users\\Jbarrett\\Charlie\\charlie\\stimuli\\visual\\pcet\\110.png'
I1
I550
tp72
a(g19
g20
g23
I46
g24
I1
I3
I2
I0
S'C:\\Users\\Jbarrett\\Charlie\\charlie\\stimuli\\visual\\pcet\\101.png'
S'C:\\Users\\Jbarrett\\Charlie\\charlie\\stimuli\\visual\\pcet\\001.png'
S'C:\\Users\\Jbarrett\\Charlie\\charlie\\stimuli\\visual\\pcet\\111.png'
S'C:\\Users\\Jbarrett\\Charlie\\charlie\\stimuli\\visual\\pcet\\100.png'
I3
I2250
tp73
a(g19
g20
g23
I47
g24
I1
I3
I2
I0
S'C:\\Users\\Jbarrett\\Charlie\\charlie\\stimuli\\visual\\pcet\\010.png'
S'C:\\Users\\Jbarrett\\Charlie\\charlie\\stimuli\\visual\\pcet\\110.png'
S'C:\\Users\\Jbarrett\\Charlie\\charlie\\stimuli\\visual\\pcet\\000.png'
S'C:\\Users\\Jbarrett\\Charlie\\charlie\\stimuli\\visual\\pcet\\011.png'
I1
I1150
tp74
a(g19
g20
g23
I48
g37
I3
I2
I1
I0
S'C:\\Users\\Jbarrett\\Charlie\\charlie\\stimuli\\visual\\pcet\\110.png'
S'C:\\Users\\Jbarrett\\Charlie\\charlie\\stimuli\\visual\\pcet\\111.png'
S'C:\\Users\\Jbarrett\\Charlie\\charlie\\stimuli\\visual\\pcet\\010.png'
S'C:\\Users\\Jbarrett\\Charlie\\charlie\\stimuli\\visual\\pcet\\100.png'
I1
I1030
tp75
a(g19
g20
g23
I49
g37
I1
I0
I3
I2
S'C:\\Users\\Jbarrett\\Charlie\\charlie\\stimuli\\visual\\pcet\\101.png'
S'C:\\Users\\Jbarrett\\Charlie\\charlie\\stimuli\\visual\\pcet\\011.png'
S'C:\\Users\\Jbarrett\\Charlie\\charlie\\stimuli\\visual\\pcet\\001.png'
S'C:\\Users\\Jbarrett\\Charlie\\charlie\\stimuli\\visual\\pcet\\000.png'
I3
I2190
tp76
a(g19
g20
g23
I50
g37
I2
I0
I3
I1
S'C:\\Users\\Jbarrett\\Charlie\\charlie\\stimuli\\visual\\pcet\\101.png'
S'C:\\Users\\Jbarrett\\Charlie\\charlie\\stimuli\\visual\\pcet\\001.png'
S'C:\\Users\\Jbarrett\\Charlie\\charlie\\stimuli\\visual\\pcet\\011.png'
S'C:\\Users\\Jbarrett\\Charlie\\charlie\\stimuli\\visual\\pcet\\000.png'
I2
I920
tp77
a(g19
g20
g23
I51
g37
I1
I3
I0
I2
S'C:\\Users\\Jbarrett\\Charlie\\charlie\\stimuli\\visual\\pcet\\111.png'
S'C:\\Users\\Jbarrett\\Charlie\\charlie\\stimuli\\visual\\pcet\\100.png'
S'C:\\Users\\Jbarrett\\Charlie\\charlie\\stimuli\\visual\\pcet\\110.png'
S'C:\\Users\\Jbarrett\\Charlie\\charlie\\stimuli\\visual\\pcet\\010.png'
I0
I2900
tp78
a(g19
g20
g23
I52
g37
I1
I3
I2
I0
S'C:\\Users\\Jbarrett\\Charlie\\charlie\\stimuli\\visual\\pcet\\100.png'
S'C:\\Users\\Jbarrett\\Charlie\\charlie\\stimuli\\visual\\pcet\\110.png'
S'C:\\Users\\Jbarrett\\Charlie\\charlie\\stimuli\\visual\\pcet\\101.png'
S'C:\\Users\\Jbarrett\\Charlie\\charlie\\stimuli\\visual\\pcet\\000.png'
I2
I330
tp79
a(g19
g20
g23
I53
g37
I1
I2
I0
I3
S'C:\\Users\\Jbarrett\\Charlie\\charlie\\stimuli\\visual\\pcet\\001.png'
S'C:\\Users\\Jbarrett\\Charlie\\charlie\\stimuli\\visual\\pcet\\010.png'
S'C:\\Users\\Jbarrett\\Charlie\\charlie\\stimuli\\visual\\pcet\\100.png'
S'C:\\Users\\Jbarrett\\Charlie\\charlie\\stimuli\\visual\\pcet\\000.png'
I0
I1890
tp80
a(g19
g20
g23
I54
g37
I3
I0
I1
I2
S'C:\\Users\\Jbarrett\\Charlie\\charlie\\stimuli\\visual\\pcet\\010.png'
S'C:\\Users\\Jbarrett\\Charlie\\charlie\\stimuli\\visual\\pcet\\111.png'
S'C:\\Users\\Jbarrett\\Charlie\\charlie\\stimuli\\visual\\pcet\\110.png'
S'C:\\Users\\Jbarrett\\Charlie\\charlie\\stimuli\\visual\\pcet\\100.png'
I1
I1340
tp81
a(g19
g20
g23
I55
g37
I3
I0
I2
I1
S'C:\\Users\\Jbarrett\\Charlie\\charlie\\stimuli\\visual\\pcet\\001.png'
S'C:\\Users\\Jbarrett\\Charlie\\charlie\\stimuli\\visual\\pcet\\101.png'
S'C:\\Users\\Jbarrett\\Charlie\\charlie\\stimuli\\visual\\pcet\\100.png'
S'C:\\Users\\Jbarrett\\Charlie\\charlie\\stimuli\\visual\\pcet\\111.png'
I2
I2031
tp82
a(g19
g20
g23
I56
g37
I2
I1
I3
I0
S'C:\\Users\\Jbarrett\\Charlie\\charlie\\stimuli\\visual\\pcet\\001.png'
S'C:\\Users\\Jbarrett\\Charlie\\charlie\\stimuli\\visual\\pcet\\101.png'
S'C:\\Users\\Jbarrett\\Charlie\\charlie\\stimuli\\visual\\pcet\\011.png'
S'C:\\Users\\Jbarrett\\Charlie\\charlie\\stimuli\\visual\\pcet\\000.png'
I0
I1600
tp83
a(g19
g20
g23
I57
g37
I0
I2
I1
I3
S'C:\\Users\\Jbarrett\\Charlie\\charlie\\stimuli\\visual\\pcet\\100.png'
S'C:\\Users\\Jbarrett\\Charlie\\charlie\\stimuli\\visual\\pcet\\111.png'
S'C:\\Users\\Jbarrett\\Charlie\\charlie\\stimuli\\visual\\pcet\\010.png'
S'C:\\Users\\Jbarrett\\Charlie\\charlie\\stimuli\\visual\\pcet\\110.png'
I1
I1421
tp84
a(g19
g20
g23
I58
g37
I2
I3
I1
I0
S'C:\\Users\\Jbarrett\\Charlie\\charlie\\stimuli\\visual\\pcet\\001.png'
S'C:\\Users\\Jbarrett\\Charlie\\charlie\\stimuli\\visual\\pcet\\000.png'
S'C:\\Users\\Jbarrett\\Charlie\\charlie\\stimuli\\visual\\pcet\\011.png'
S'C:\\Users\\Jbarrett\\Charlie\\charlie\\stimuli\\visual\\pcet\\101.png'
I1
I1680
tp85
a(g19
g20
g23
I59
g37
I0
I1
I2
I3
S'C:\\Users\\Jbarrett\\Charlie\\charlie\\stimuli\\visual\\pcet\\111.png'
S'C:\\Users\\Jbarrett\\Charlie\\charlie\\stimuli\\visual\\pcet\\001.png'
S'C:\\Users\\Jbarrett\\Charlie\\charlie\\stimuli\\visual\\pcet\\100.png'
S'C:\\Users\\Jbarrett\\Charlie\\charlie\\stimuli\\visual\\pcet\\101.png'
I1
I580
tp86
a(g19
g20
g23
I60
g50
I0
I2
I1
I3
S'C:\\Users\\Jbarrett\\Charlie\\charlie\\stimuli\\visual\\pcet\\101.png'
S'C:\\Users\\Jbarrett\\Charlie\\charlie\\stimuli\\visual\\pcet\\000.png'
S'C:\\Users\\Jbarrett\\Charlie\\charlie\\stimuli\\visual\\pcet\\110.png'
S'C:\\Users\\Jbarrett\\Charlie\\charlie\\stimuli\\visual\\pcet\\100.png'
I0
I3700
tp87
a(g19
g20
g23
I61
g50
I2
I3
I0
I1
S'C:\\Users\\Jbarrett\\Charlie\\charlie\\stimuli\\visual\\pcet\\100.png'
S'C:\\Users\\Jbarrett\\Charlie\\charlie\\stimuli\\visual\\pcet\\000.png'
S'C:\\Users\\Jbarrett\\Charlie\\charlie\\stimuli\\visual\\pcet\\001.png'
S'C:\\Users\\Jbarrett\\Charlie\\charlie\\stimuli\\visual\\pcet\\010.png'
I2
I1781
tp88
a(g19
g20
g23
I62
g50
I2
I0
I1
I3
S'C:\\Users\\Jbarrett\\Charlie\\charlie\\stimuli\\visual\\pcet\\111.png'
S'C:\\Users\\Jbarrett\\Charlie\\charlie\\stimuli\\visual\\pcet\\001.png'
S'C:\\Users\\Jbarrett\\Charlie\\charlie\\stimuli\\visual\\pcet\\100.png'
S'C:\\Users\\Jbarrett\\Charlie\\charlie\\stimuli\\visual\\pcet\\101.png'
I2
I2080
tp89
a(g19
g20
g23
I63
g50
I1
I0
I3
I2
S'C:\\Users\\Jbarrett\\Charlie\\charlie\\stimuli\\visual\\pcet\\010.png'
S'C:\\Users\\Jbarrett\\Charlie\\charlie\\stimuli\\visual\\pcet\\001.png'
S'C:\\Users\\Jbarrett\\Charlie\\charlie\\stimuli\\visual\\pcet\\000.png'
S'C:\\Users\\Jbarrett\\Charlie\\charlie\\stimuli\\visual\\pcet\\100.png'
I0
I2890
tp90
a(g19
g20
g23
I64
g50
I0
I2
I3
I1
S'C:\\Users\\Jbarrett\\Charlie\\charlie\\stimuli\\visual\\pcet\\110.png'
S'C:\\Users\\Jbarrett\\Charlie\\charlie\\stimuli\\visual\\pcet\\111.png'
S'C:\\Users\\Jbarrett\\Charlie\\charlie\\stimuli\\visual\\pcet\\101.png'
S'C:\\Users\\Jbarrett\\Charlie\\charlie\\stimuli\\visual\\pcet\\011.png'
I3
I4641
tp91
a(g19
g20
g23
I65
g50
I3
I1
I0
I2
S'C:\\Users\\Jbarrett\\Charlie\\charlie\\stimuli\\visual\\pcet\\100.png'
S'C:\\Users\\Jbarrett\\Charlie\\charlie\\stimuli\\visual\\pcet\\010.png'
S'C:\\Users\\Jbarrett\\Charlie\\charlie\\stimuli\\visual\\pcet\\000.png'
S'C:\\Users\\Jbarrett\\Charlie\\charlie\\stimuli\\visual\\pcet\\001.png'
I3
I2360
tp92
a(g19
g20
g23
I66
g50
I3
I1
I2
I0
S'C:\\Users\\Jbarrett\\Charlie\\charlie\\stimuli\\visual\\pcet\\011.png'
S'C:\\Users\\Jbarrett\\Charlie\\charlie\\stimuli\\visual\\pcet\\001.png'
S'C:\\Users\\Jbarrett\\Charlie\\charlie\\stimuli\\visual\\pcet\\111.png'
S'C:\\Users\\Jbarrett\\Charlie\\charlie\\stimuli\\visual\\pcet\\010.png'
I3
I2620
tp93
a(g19
g20
g23
I67
g50
I1
I2
I3
I0
S'C:\\Users\\Jbarrett\\Charlie\\charlie\\stimuli\\visual\\pcet\\011.png'
S'C:\\Users\\Jbarrett\\Charlie\\charlie\\stimuli\\visual\\pcet\\010.png'
S'C:\\Users\\Jbarrett\\Charlie\\charlie\\stimuli\\visual\\pcet\\001.png'
S'C:\\Users\\Jbarrett\\Charlie\\charlie\\stimuli\\visual\\pcet\\111.png'
I3
I1510
tp94
a(g19
g20
g23
I68
g50
I0
I2
I3
I1
S'C:\\Users\\Jbarrett\\Charlie\\charlie\\stimuli\\visual\\pcet\\100.png'
S'C:\\Users\\Jbarrett\\Charlie\\charlie\\stimuli\\visual\\pcet\\101.png'
S'C:\\Users\\Jbarrett\\Charlie\\charlie\\stimuli\\visual\\pcet\\111.png'
S'C:\\Users\\Jbarrett\\Charlie\\charlie\\stimuli\\visual\\pcet\\001.png'
I3
I1911
tp95
a(g19
g20
g23
I69
g50
I0
I1
I2
I3
S'C:\\Users\\Jbarrett\\Charlie\\charlie\\stimuli\\visual\\pcet\\100.png'
S'C:\\Users\\Jbarrett\\Charlie\\charlie\\stimuli\\visual\\pcet\\111.png'
S'C:\\Users\\Jbarrett\\Charlie\\charlie\\stimuli\\visual\\pcet\\001.png'
S'C:\\Users\\Jbarrett\\Charlie\\charlie\\stimuli\\visual\\pcet\\101.png'
I2
I900
tp96
a(g19
g20
g23
I70
g50
I1
I0
I3
I2
S'C:\\Users\\Jbarrett\\Charlie\\charlie\\stimuli\\visual\\pcet\\111.png'
S'C:\\Users\\Jbarrett\\Charlie\\charlie\\stimuli\\visual\\pcet\\100.png'
S'C:\\Users\\Jbarrett\\Charlie\\charlie\\stimuli\\visual\\pcet\\101.png'
S'C:\\Users\\Jbarrett\\Charlie\\charlie\\stimuli\\visual\\pcet\\001.png'
I1
I540
tp97
a(g19
g20
g23
I71
g50
I1
I2
I3
I0
S'C:\\Users\\Jbarrett\\Charlie\\charlie\\stimuli\\visual\\pcet\\010.png'
p98
S'C:\\Users\\Jbarrett\\Charlie\\charlie\\stimuli\\visual\\pcet\\011.png'
p99
S'C:\\Users\\Jbarrett\\Charlie\\charlie\\stimuli\\visual\\pcet\\000.png'
p100
S'C:\\Users\\Jbarrett\\Charlie\\charlie\\stimuli\\visual\\pcet\\110.png'
p101
I2
I1470
tp102
asS'output_format'
p103
(lp104
(S'proband_id'
p105
c__builtin__
str
p106
tp107
a(S'test_name'
p108
g106
tp109
a(S'phase'
p110
g106
tp111
a(S'trialn'
p112
c__builtin__
int
p113
tp114
a(S'rule'
p115
g106
tp116
a(S'ans'
p117
g106
tp118
a(S'pers'
p119
g106
tp120
a(S'other'
p121
g106
tp122
a(S'lapse'
p123
g106
tp124
a(S'f1'
p125
g106
tp126
a(S'f2'
p127
g106
tp128
a(S'f3'
p129
g106
tp130
a(S'f4'
p131
g106
tp132
a(S'rsp'
p133
g106
tp134
a(S'rt'
p135
g113
tp136
asg105
g19
sS'filename'
p137
S'4423_pcet.data'
p138
sS'initialised'
p139
g10
(S'\x07\xdf\x08\r\r7\x13\x03z\xa0'
tRp140
sg108
S'pcet'
p141
sS'directory'
p142
S'C:\\Users\\Jbarrett\\Charlie\\charlie\\data\\raw'
p143
sS'user_id'
p144
S'barrett'
p145
sS'test_started'
p146
I01
sS'abs_filename'
p147
S'C:\\Users\\Jbarrett\\Charlie\\charlie\\data\\raw\\4423_pcet.data'
p148
sS'date_started'
p149
g10
(S'\x07\xdf\x08\r\r7#\x05vp'
tRp150
sS'log'
p151
(lp152
(S'2015-08-13 13:55:19.228000'
S'instance created'
p153
tp154
a(S'2015-08-13 13:55:35.371000'
S'instance updated'
p155
tp156
a(S'2015-08-13 13:55:35.412000'
S'pandas DataFrame of data created'
p157
tp158
a(S'2015-08-13 13:55:35.422000'
g155
tp159
a(S'2015-08-13 13:55:35.427000'
S'data saved as csv to C:\\Users\\Jbarrett\\Charlie\\charlie\\data\\csv\\4423_pcet.csv'
tp160
a(S'2015-08-13 13:55:47.761000'
g155
tp161
a(S'2015-08-13 13:55:47.793000'
g157
tp162
a(S'2015-08-13 13:55:47.798000'
g155
tp163
a(S'2015-08-13 13:55:47.799000'
S'data saved as csv to C:\\Users\\Jbarrett\\Charlie\\charlie\\data\\csv\\4423_pcet.csv'
tp164
a(S'2015-08-13 13:55:54.372000'
g155
tp165
a(S'2015-08-13 13:55:54.469000'
g157
tp166
a(S'2015-08-13 13:55:54.480000'
g155
tp167
a(S'2015-08-13 13:55:54.483000'
S'data saved as csv to C:\\Users\\Jbarrett\\Charlie\\charlie\\data\\csv\\4423_pcet.csv'
tp168
a(S'2015-08-13 13:55:57.395000'
g155
tp169
a(S'2015-08-13 13:55:57.517000'
g157
tp170
a(S'2015-08-13 13:55:57.528000'
g155
tp171
a(S'2015-08-13 13:55:57.532000'
S'data saved as csv to C:\\Users\\Jbarrett\\Charlie\\charlie\\data\\csv\\4423_pcet.csv'
tp172
a(S'2015-08-13 13:56:02.257000'
g155
tp173
a(S'2015-08-13 13:56:02.353000'
g157
tp174
a(S'2015-08-13 13:56:02.359000'
g155
tp175
a(S'2015-08-13 13:56:02.361000'
S'data saved as csv to C:\\Users\\Jbarrett\\Charlie\\charlie\\data\\csv\\4423_pcet.csv'
tp176
a(S'2015-08-13 13:56:06.352000'
g155
tp177
a(S'2015-08-13 13:56:06.528000'
g157
tp178
a(S'2015-08-13 13:56:06.539000'
g155
tp179
a(S'2015-08-13 13:56:06.542000'
S'data saved as csv to C:\\Users\\Jbarrett\\Charlie\\charlie\\data\\csv\\4423_pcet.csv'
tp180
a(S'2015-08-13 13:56:10.349000'
g155
tp181
a(S'2015-08-13 13:56:10.553000'
g157
tp182
a(S'2015-08-13 13:56:10.563000'
g155
tp183
a(S'2015-08-13 13:56:10.565000'
S'data saved as csv to C:\\Users\\Jbarrett\\Charlie\\charlie\\data\\csv\\4423_pcet.csv'
tp184
a(S'2015-08-13 13:56:13.163000'
g155
tp185
a(S'2015-08-13 13:56:13.394000'
g157
tp186
a(S'2015-08-13 13:56:13.405000'
g155
tp187
a(S'2015-08-13 13:56:13.409000'
S'data saved as csv to C:\\Users\\Jbarrett\\Charlie\\charlie\\data\\csv\\4423_pcet.csv'
tp188
a(S'2015-08-13 13:56:15.605000'
g155
tp189
a(S'2015-08-13 13:56:15.863000'
g157
tp190
a(S'2015-08-13 13:56:15.873000'
g155
tp191
a(S'2015-08-13 13:56:15.875000'
S'data saved as csv to C:\\Users\\Jbarrett\\Charlie\\charlie\\data\\csv\\4423_pcet.csv'
tp192
a(S'2015-08-13 13:56:18.650000'
g155
tp193
a(S'2015-08-13 13:56:18.937000'
g157
tp194
a(S'2015-08-13 13:56:18.948000'
g155
tp195
a(S'2015-08-13 13:56:18.952000'
S'data saved as csv to C:\\Users\\Jbarrett\\Charlie\\charlie\\data\\csv\\4423_pcet.csv'
tp196
a(S'2015-08-13 13:56:21.339000'
g155
tp197
a(S'2015-08-13 13:56:21.555000'
g157
tp198
a(S'2015-08-13 13:56:21.563000'
g155
tp199
a(S'2015-08-13 13:56:21.565000'
S'data saved as csv to C:\\Users\\Jbarrett\\Charlie\\charlie\\data\\csv\\4423_pcet.csv'
tp200
a(S'2015-08-13 13:56:23.474000'
g155
tp201
a(S'2015-08-13 13:56:23.816000'
g157
tp202
a(S'2015-08-13 13:56:23.827000'
g155
tp203
a(S'2015-08-13 13:56:23.831000'
S'data saved as csv to C:\\Users\\Jbarrett\\Charlie\\charlie\\data\\csv\\4423_pcet.csv'
tp204
a(S'2015-08-13 13:56:26.012000'
g155
tp205
a(S'2015-08-13 13:56:26.380000'
g157
tp206
a(S'2015-08-13 13:56:26.391000'
g155
tp207
a(S'2015-08-13 13:56:26.395000'
S'data saved as csv to C:\\Users\\Jbarrett\\Charlie\\charlie\\data\\csv\\4423_pcet.csv'
tp208
a(S'2015-08-13 13:56:28.987000'
g155
tp209
a(S'2015-08-13 13:56:29.364000'
g157
tp210
a(S'2015-08-13 13:56:29.371000'
g155
tp211
a(S'2015-08-13 13:56:29.373000'
S'data saved as csv to C:\\Users\\Jbarrett\\Charlie\\charlie\\data\\csv\\4423_pcet.csv'
tp212
a(S'2015-08-13 13:56:31.532000'
g155
tp213
a(S'2015-08-13 13:56:31.955000'
g157
tp214
a(S'2015-08-13 13:56:31.967000'
g155
tp215
a(S'2015-08-13 13:56:31.971000'
S'data saved as csv to C:\\Users\\Jbarrett\\Charlie\\charlie\\data\\csv\\4423_pcet.csv'
tp216
a(S'2015-08-13 13:56:34.767000'
g155
tp217
a(S'2015-08-13 13:56:35.214000'
g157
tp218
a(S'2015-08-13 13:56:35.223000'
g155
tp219
a(S'2015-08-13 13:56:35.225000'
S'data saved as csv to C:\\Users\\Jbarrett\\Charlie\\charlie\\data\\csv\\4423_pcet.csv'
tp220
a(S'2015-08-13 13:56:44.375000'
g155
tp221
a(S'2015-08-13 13:56:44.612000'
g157
tp222
a(S'2015-08-13 13:56:44.615000'
g155
tp223
a(S'2015-08-13 13:56:44.616000'
S'data saved as csv to C:\\Users\\Jbarrett\\Charlie\\charlie\\data\\csv\\4423_pcet.csv'
tp224
a(S'2015-08-13 13:56:47.520000'
g155
tp225
a(S'2015-08-13 13:56:48.031000'
g157
tp226
a(S'2015-08-13 13:56:48.038000'
g155
tp227
a(S'2015-08-13 13:56:48.040000'
S'data saved as csv to C:\\Users\\Jbarrett\\Charlie\\charlie\\data\\csv\\4423_pcet.csv'
tp228
a(S'2015-08-13 13:56:56.623000'
g155
tp229
a(S'2015-08-13 13:56:56.879000'
g157
tp230
a(S'2015-08-13 13:56:56.884000'
g155
tp231
a(S'2015-08-13 13:56:56.885000'
S'data saved as csv to C:\\Users\\Jbarrett\\Charlie\\charlie\\data\\csv\\4423_pcet.csv'
tp232
a(S'2015-08-13 13:57:05.095000'
g155
tp233
a(S'2015-08-13 13:57:05.651000'
g157
tp234
a(S'2015-08-13 13:57:05.663000'
g155
tp235
a(S'2015-08-13 13:57:05.666000'
S'data saved as csv to C:\\Users\\Jbarrett\\Charlie\\charlie\\data\\csv\\4423_pcet.csv'
tp236
a(S'2015-08-13 13:57:15.526000'
g155
tp237
a(S'2015-08-13 13:57:16.114000'
g157
tp238
a(S'2015-08-13 13:57:16.126000'
g155
tp239
a(S'2015-08-13 13:57:16.130000'
S'data saved as csv to C:\\Users\\Jbarrett\\Charlie\\charlie\\data\\csv\\4423_pcet.csv'
tp240
a(S'2015-08-13 13:57:29.101000'
g155
tp241
a(S'2015-08-13 13:57:29.418000'
g157
tp242
a(S'2015-08-13 13:57:29.423000'
g155
tp243
a(S'2015-08-13 13:57:29.425000'
S'data saved as csv to C:\\Users\\Jbarrett\\Charlie\\charlie\\data\\csv\\4423_pcet.csv'
tp244
a(S'2015-08-13 13:57:43.819000'
g155
tp245
a(S'2015-08-13 13:57:44.459000'
g157
tp246
a(S'2015-08-13 13:57:44.471000'
g155
tp247
a(S'2015-08-13 13:57:44.475000'
S'data saved as csv to C:\\Users\\Jbarrett\\Charlie\\charlie\\data\\csv\\4423_pcet.csv'
tp248
a(S'2015-08-13 13:57:57.555000'
g155
tp249
a(S'2015-08-13 13:57:58.216000'
g157
tp250
a(S'2015-08-13 13:57:58.227000'
g155
tp251
a(S'2015-08-13 13:57:58.229000'
S'data saved as csv to C:\\Users\\Jbarrett\\Charlie\\charlie\\data\\csv\\4423_pcet.csv'
tp252
a(S'2015-08-13 13:58:04.018000'
g155
tp253
a(S'2015-08-13 13:58:04.709000'
g157
tp254
a(S'2015-08-13 13:58:04.722000'
g155
tp255
a(S'2015-08-13 13:58:04.726000'
S'data saved as csv to C:\\Users\\Jbarrett\\Charlie\\charlie\\data\\csv\\4423_pcet.csv'
tp256
a(S'2015-08-13 13:58:11.280000'
g155
tp257
a(S'2015-08-13 13:58:11.999000'
g157
tp258
a(S'2015-08-13 13:58:12.011000'
g155
tp259
a(S'2015-08-13 13:58:12.015000'
S'data saved as csv to C:\\Users\\Jbarrett\\Charlie\\charlie\\data\\csv\\4423_pcet.csv'
tp260
a(S'2015-08-13 13:58:15.118000'
g155
tp261
a(S'2015-08-13 13:58:15.866000'
g157
tp262
a(S'2015-08-13 13:58:15.878000'
g155
tp263
a(S'2015-08-13 13:58:15.882000'
S'data saved as csv to C:\\Users\\Jbarrett\\Charlie\\charlie\\data\\csv\\4423_pcet.csv'
tp264
a(S'2015-08-13 13:58:19.163000'
g155
tp265
a(S'2015-08-13 13:58:19.936000'
g157
tp266
a(S'2015-08-13 13:58:19.946000'
g155
tp267
a(S'2015-08-13 13:58:19.949000'
S'data saved as csv to C:\\Users\\Jbarrett\\Charlie\\charlie\\data\\csv\\4423_pcet.csv'
tp268
a(S'2015-08-13 13:58:22.259000'
g155
tp269
a(S'2015-08-13 13:58:22.880000'
g157
tp270
a(S'2015-08-13 13:58:22.887000'
g155
tp271
a(S'2015-08-13 13:58:22.889000'
S'data saved as csv to C:\\Users\\Jbarrett\\Charlie\\charlie\\data\\csv\\4423_pcet.csv'
tp272
a(S'2015-08-13 13:58:36.173000'
g155
tp273
a(S'2015-08-13 13:58:36.995000'
g157
tp274
a(S'2015-08-13 13:58:37.007000'
g155
tp275
a(S'2015-08-13 13:58:37.012000'
S'data saved as csv to C:\\Users\\Jbarrett\\Charlie\\charlie\\data\\csv\\4423_pcet.csv'
tp276
a(S'2015-08-13 13:58:43.082000'
g155
tp277
a(S'2015-08-13 13:58:43.932000'
g157
tp278
a(S'2015-08-13 13:58:43.943000'
g155
tp279
a(S'2015-08-13 13:58:43.946000'
S'data saved as csv to C:\\Users\\Jbarrett\\Charlie\\charlie\\data\\csv\\4423_pcet.csv'
tp280
a(S'2015-08-13 13:58:52.687000'
g155
tp281
a(S'2015-08-13 13:58:53.563000'
g157
tp282
a(S'2015-08-13 13:58:53.575000'
g155
tp283
a(S'2015-08-13 13:58:53.579000'
S'data saved as csv to C:\\Users\\Jbarrett\\Charlie\\charlie\\data\\csv\\4423_pcet.csv'
tp284
a(S'2015-08-13 13:59:02.818000'
g155
tp285
a(S'2015-08-13 13:59:03.431000'
g157
tp286
a(S'2015-08-13 13:59:03.439000'
g155
tp287
a(S'2015-08-13 13:59:03.442000'
S'data saved as csv to C:\\Users\\Jbarrett\\Charlie\\charlie\\data\\csv\\4423_pcet.csv'
tp288
a(S'2015-08-13 13:59:11.385000'
g155
tp289
a(S'2015-08-13 13:59:11.931000'
g157
tp290
a(S'2015-08-13 13:59:11.938000'
g155
tp291
a(S'2015-08-13 13:59:11.941000'
S'data saved as csv to C:\\Users\\Jbarrett\\Charlie\\charlie\\data\\csv\\4423_pcet.csv'
tp292
a(S'2015-08-13 13:59:14.703000'
g155
tp293
a(S'2015-08-13 13:59:15.250000'
g157
tp294
a(S'2015-08-13 13:59:15.257000'
g155
tp295
a(S'2015-08-13 13:59:15.260000'
S'data saved as csv to C:\\Users\\Jbarrett\\Charlie\\charlie\\data\\csv\\4423_pcet.csv'
tp296
a(S'2015-08-13 13:59:17.235000'
g155
tp297
a(S'2015-08-13 13:59:18.120000'
g157
tp298
a(S'2015-08-13 13:59:18.127000'
g155
tp299
a(S'2015-08-13 13:59:18.130000'
S'data saved as csv to C:\\Users\\Jbarrett\\Charlie\\charlie\\data\\csv\\4423_pcet.csv'
tp300
a(S'2015-08-13 13:59:20.199000'
g155
tp301
a(S'2015-08-13 13:59:21.208000'
g157
tp302
a(S'2015-08-13 13:59:21.220000'
g155
tp303
a(S'2015-08-13 13:59:21.224000'
S'data saved as csv to C:\\Users\\Jbarrett\\Charlie\\charlie\\data\\csv\\4423_pcet.csv'
tp304
a(S'2015-08-13 13:59:27.639000'
g155
tp305
a(S'2015-08-13 13:59:28.677000'
g157
tp306
a(S'2015-08-13 13:59:28.689000'
g155
tp307
a(S'2015-08-13 13:59:28.694000'
S'data saved as csv to C:\\Users\\Jbarrett\\Charlie\\charlie\\data\\csv\\4423_pcet.csv'
tp308
a(S'2015-08-13 13:59:33.485000'
g155
tp309
a(S'2015-08-13 13:59:34.071000'
g157
tp310
a(S'2015-08-13 13:59:34.078000'
g155
tp311
a(S'2015-08-13 13:59:34.080000'
S'data saved as csv to C:\\Users\\Jbarrett\\Charlie\\charlie\\data\\csv\\4423_pcet.csv'
tp312
a(S'2015-08-13 13:59:42.490000'
g155
tp313
a(S'2015-08-13 13:59:43.580000'
g157
tp314
a(S'2015-08-13 13:59:43.592000'
g155
tp315
a(S'2015-08-13 13:59:43.597000'
S'data saved as csv to C:\\Users\\Jbarrett\\Charlie\\charlie\\data\\csv\\4423_pcet.csv'
tp316
a(S'2015-08-13 13:59:52.787000'
g155
tp317
a(S'2015-08-13 13:59:53.908000'
g157
tp318
a(S'2015-08-13 13:59:53.920000'
g155
tp319
a(S'2015-08-13 13:59:53.925000'
S'data saved as csv to C:\\Users\\Jbarrett\\Charlie\\charlie\\data\\csv\\4423_pcet.csv'
tp320
a(S'2015-08-13 13:59:56.666000'
g155
tp321
a(S'2015-08-13 13:59:57.331000'
g157
tp322
a(S'2015-08-13 13:59:57.338000'
g155
tp323
a(S'2015-08-13 13:59:57.340000'
S'data saved as csv to C:\\Users\\Jbarrett\\Charlie\\charlie\\data\\csv\\4423_pcet.csv'
tp324
a(S'2015-08-13 13:59:59.586000'
g155
tp325
a(S'2015-08-13 14:00:00.761000'
g157
tp326
a(S'2015-08-13 14:00:00.771000'
g155
tp327
a(S'2015-08-13 14:00:00.774000'
S'data saved as csv to C:\\Users\\Jbarrett\\Charlie\\charlie\\data\\csv\\4423_pcet.csv'
tp328
a(S'2015-08-13 14:00:03.255000'
g155
tp329
a(S'2015-08-13 14:00:03.587000'
g157
tp330
a(S'2015-08-13 14:00:03.590000'
g155
tp331
a(S'2015-08-13 14:00:03.591000'
S'data saved as csv to C:\\Users\\Jbarrett\\Charlie\\charlie\\data\\csv\\4423_pcet.csv'
tp332
a(S'2015-08-13 14:00:05.680000'
g155
tp333
a(S'2015-08-13 14:00:06.279000'
g157
tp334
a(S'2015-08-13 14:00:06.283000'
g155
tp335
a(S'2015-08-13 14:00:06.287000'
S'data saved as csv to C:\\Users\\Jbarrett\\Charlie\\charlie\\data\\csv\\4423_pcet.csv'
tp336
a(S'2015-08-13 14:00:08.944000'
g155
tp337
a(S'2015-08-13 14:00:09.382000'
g157
tp338
a(S'2015-08-13 14:00:09.386000'
g155
tp339
a(S'2015-08-13 14:00:09.387000'
S'data saved as csv to C:\\Users\\Jbarrett\\Charlie\\charlie\\data\\csv\\4423_pcet.csv'
tp340
a(S'2015-08-13 14:00:11.664000'
g155
tp341
a(S'2015-08-13 14:00:12.409000'
g157
tp342
a(S'2015-08-13 14:00:12.416000'
g155
tp343
a(S'2015-08-13 14:00:12.419000'
S'data saved as csv to C:\\Users\\Jbarrett\\Charlie\\charlie\\data\\csv\\4423_pcet.csv'
tp344
a(S'2015-08-13 14:00:15.732000'
g155
tp345
a(S'2015-08-13 14:00:16.485000'
g157
tp346
a(S'2015-08-13 14:00:16.492000'
g155
tp347
a(S'2015-08-13 14:00:16.495000'
S'data saved as csv to C:\\Users\\Jbarrett\\Charlie\\charlie\\data\\csv\\4423_pcet.csv'
tp348
a(S'2015-08-13 14:00:18.714000'
g155
tp349
a(S'2015-08-13 14:00:19.258000'
g157
tp350
a(S'2015-08-13 14:00:19.264000'
g155
tp351
a(S'2015-08-13 14:00:19.266000'
S'data saved as csv to C:\\Users\\Jbarrett\\Charlie\\charlie\\data\\csv\\4423_pcet.csv'
tp352
a(S'2015-08-13 14:00:21.357000'
g155
tp353
a(S'2015-08-13 14:00:22.291000'
g157
tp354
a(S'2015-08-13 14:00:22.298000'
g155
tp355
a(S'2015-08-13 14:00:22.301000'
S'data saved as csv to C:\\Users\\Jbarrett\\Charlie\\charlie\\data\\csv\\4423_pcet.csv'
tp356
a(S'2015-08-13 14:00:25.567000'
g155
tp357
a(S'2015-08-13 14:00:26.029000'
g157
tp358
a(S'2015-08-13 14:00:26.032000'
g155
tp359
a(S'2015-08-13 14:00:26.034000'
S'data saved as csv to C:\\Users\\Jbarrett\\Charlie\\charlie\\data\\csv\\4423_pcet.csv'
tp360
a(S'2015-08-13 14:00:28.017000'
g155
tp361
a(S'2015-08-13 14:00:28.801000'
g157
tp362
a(S'2015-08-13 14:00:28.806000'
g155
tp363
a(S'2015-08-13 14:00:28.807000'
S'data saved as csv to C:\\Users\\Jbarrett\\Charlie\\charlie\\data\\csv\\4423_pcet.csv'
tp364
a(S'2015-08-13 14:00:32.779000'
g155
tp365
a(S'2015-08-13 14:00:33.473000'
g157
tp366
a(S'2015-08-13 14:00:33.476000'
g155
tp367
a(S'2015-08-13 14:00:33.478000'
S'data saved as csv to C:\\Users\\Jbarrett\\Charlie\\charlie\\data\\csv\\4423_pcet.csv'
tp368
a(S'2015-08-13 14:00:38.426000'
g155
tp369
a(S'2015-08-13 14:00:39.223000'
g157
tp370
a(S'2015-08-13 14:00:39.230000'
g155
tp371
a(S'2015-08-13 14:00:39.232000'
S'data saved as csv to C:\\Users\\Jbarrett\\Charlie\\charlie\\data\\csv\\4423_pcet.csv'
tp372
a(S'2015-08-13 14:00:42.176000'
g155
tp373
a(S'2015-08-13 14:00:42.808000'
g157
tp374
a(S'2015-08-13 14:00:42.812000'
g155
tp375
a(S'2015-08-13 14:00:42.813000'
S'data saved as csv to C:\\Users\\Jbarrett\\Charlie\\charlie\\data\\csv\\4423_pcet.csv'
tp376
a(S'2015-08-13 14:00:45.225000'
g155
tp377
a(S'2015-08-13 14:00:45.675000'
g157
tp378
a(S'2015-08-13 14:00:45.679000'
g155
tp379
a(S'2015-08-13 14:00:45.680000'
S'data saved as csv to C:\\Users\\Jbarrett\\Charlie\\charlie\\data\\csv\\4423_pcet.csv'
tp380
a(S'2015-08-13 14:00:48.785000'
g155
tp381
a(S'2015-08-13 14:00:50.330000'
g157
tp382
a(S'2015-08-13 14:00:50.343000'
g155
tp383
a(S'2015-08-13 14:00:50.348000'
S'data saved as csv to C:\\Users\\Jbarrett\\Charlie\\charlie\\data\\csv\\4423_pcet.csv'
tp384
a(S'2015-08-13 14:00:53.028000'
g155
tp385
a(S'2015-08-13 14:00:53.878000'
g157
tp386
a(S'2015-08-13 14:00:53.884000'
g155
tp387
a(S'2015-08-13 14:00:53.887000'
S'data saved as csv to C:\\Users\\Jbarrett\\Charlie\\charlie\\data\\csv\\4423_pcet.csv'
tp388
a(S'2015-08-13 14:00:56.381000'
g155
tp389
a(S'2015-08-13 14:00:57.331000'
g157
tp390
a(S'2015-08-13 14:00:57.338000'
g155
tp391
a(S'2015-08-13 14:00:57.341000'
S'data saved as csv to C:\\Users\\Jbarrett\\Charlie\\charlie\\data\\csv\\4423_pcet.csv'
tp392
a(S'2015-08-13 14:01:00.096000'
g155
tp393
a(S'2015-08-13 14:01:00.571000'
g157
tp394
a(S'2015-08-13 14:01:00.574000'
g155
tp395
a(S'2015-08-13 14:01:00.576000'
S'data saved as csv to C:\\Users\\Jbarrett\\Charlie\\charlie\\data\\csv\\4423_pcet.csv'
tp396
a(S'2015-08-13 14:01:02.228000'
g155
tp397
a(S'2015-08-13 14:01:03.622000'
g157
tp398
a(S'2015-08-13 14:01:03.629000'
g155
tp399
a(S'2015-08-13 14:01:03.632000'
S'data saved as csv to C:\\Users\\Jbarrett\\Charlie\\charlie\\data\\csv\\4423_pcet.csv'
tp400
a(S'2015-08-13 14:01:08.404000'
g155
tp401
a(S'2015-08-13 14:01:10.079000'
g157
tp402
a(S'2015-08-13 14:01:10.092000'
g155
tp403
a(S'2015-08-13 14:01:10.096000'
S'data saved as csv to C:\\Users\\Jbarrett\\Charlie\\charlie\\data\\csv\\4423_pcet.csv'
tp404
a(S'2015-08-13 14:01:12.943000'
g155
tp405
a(S'2015-08-13 14:01:14.652000'
g157
tp406
a(S'2015-08-13 14:01:14.664000'
g155
tp407
a(S'2015-08-13 14:01:14.670000'
S'data saved as csv to C:\\Users\\Jbarrett\\Charlie\\charlie\\data\\csv\\4423_pcet.csv'
tp408
a(S'2015-08-13 14:01:17.835000'
g155
tp409
a(S'2015-08-13 14:01:19.567000'
g157
tp410
a(S'2015-08-13 14:01:19.577000'
g155
tp411
a(S'2015-08-13 14:01:19.580000'
S'data saved as csv to C:\\Users\\Jbarrett\\Charlie\\charlie\\data\\csv\\4423_pcet.csv'
tp412
a(S'2015-08-13 14:01:23.540000'
g155
tp413
a(S'2015-08-13 14:01:24.715000'
g157
tp414
a(S'2015-08-13 14:01:24.724000'
g155
tp415
a(S'2015-08-13 14:01:24.727000'
S'data saved as csv to C:\\Users\\Jbarrett\\Charlie\\charlie\\data\\csv\\4423_pcet.csv'
tp416
a(S'2015-08-13 14:01:30.447000'
g155
tp417
a(S'2015-08-13 14:01:32.135000'
g157
tp418
a(S'2015-08-13 14:01:32.144000'
g155
tp419
a(S'2015-08-13 14:01:32.148000'
S'data saved as csv to C:\\Users\\Jbarrett\\Charlie\\charlie\\data\\csv\\4423_pcet.csv'
tp420
a(S'2015-08-13 14:01:35.578000'
g155
tp421
a(S'2015-08-13 14:01:36.456000'
g157
tp422
a(S'2015-08-13 14:01:36.462000'
g155
tp423
a(S'2015-08-13 14:01:36.465000'
S'data saved as csv to C:\\Users\\Jbarrett\\Charlie\\charlie\\data\\csv\\4423_pcet.csv'
tp424
a(S'2015-08-13 14:01:40.163000'
g155
tp425
a(S'2015-08-13 14:01:40.886000'
g157
tp426
a(S'2015-08-13 14:01:40.890000'
g155
tp427
a(S'2015-08-13 14:01:40.891000'
S'data saved as csv to C:\\Users\\Jbarrett\\Charlie\\charlie\\data\\csv\\4423_pcet.csv'
tp428
a(S'2015-08-13 14:01:43.475000'
g155
tp429
a(S'2015-08-13 14:01:44.761000'
g157
tp430
a(S'2015-08-13 14:01:44.769000'
g155
tp431
a(S'2015-08-13 14:01:44.773000'
S'data saved as csv to C:\\Users\\Jbarrett\\Charlie\\charlie\\data\\csv\\4423_pcet.csv'
tp432
a(S'2015-08-13 14:01:47.759000'
g155
tp433
a(S'2015-08-13 14:01:49.648000'
g157
tp434
a(S'2015-08-13 14:01:49.661000'
g155
tp435
a(S'2015-08-13 14:01:49.664000'
S'data saved as csv to C:\\Users\\Jbarrett\\Charlie\\charlie\\data\\csv\\4423_pcet.csv'
tp436
a(S'2015-08-13 14:01:51.641000'
g155
tp437
a(S'2015-08-13 14:01:53.560000'
g157
tp438
a(S'2015-08-13 14:01:53.569000'
g155
tp439
a(S'2015-08-13 14:01:53.573000'
S'data saved as csv to C:\\Users\\Jbarrett\\Charlie\\charlie\\data\\csv\\4423_pcet.csv'
tp440
a(S'2015-08-13 14:01:55.193000'
g155
tp441
a(S'2015-08-13 14:01:56.302000'
g157
tp442
a(S'2015-08-13 14:01:56.307000'
g155
tp443
a(S'2015-08-13 14:01:56.308000'
S'data saved as csv to C:\\Users\\Jbarrett\\Charlie\\charlie\\data\\csv\\4423_pcet.csv'
tp444
a(S'2015-08-13 14:01:58.847000'
g155
tp445
a(S'2015-08-13 14:02:00.048000'
g157
tp446
a(S'2015-08-13 14:02:00.055000'
g155
tp447
a(S'2015-08-13 14:02:00.058000'
S'data saved as csv to C:\\Users\\Jbarrett\\Charlie\\charlie\\data\\csv\\4423_pcet.csv'
tp448
a(S'2015-08-13 14:02:00.066000'
g155
tp449
asb.