(icharlie.tools.data
Data
p1
(dp2
S'lang'
p3
S'EN'
p4
sS'control'
p5
(lp6
sS'last_updated'
p7
cdatetime
datetime
p8
(S'\x07\xdf\x07\x16\x0b%\x06\x06\x03\x10'
tRp9
sS'last_opened'
p10
g8
(S'\x07\xdf\x07\x16\x0b"\x1a\x0eDX'
tRp11
sS'proj_id'
p12
S'connectivity'
p13
sS'date_done'
p14
NsS'test_done'
p15
I01
sS'data'
p16
(lp17
(S'4424'
p18
S'emotion_recognition'
p19
I0
S'Female'
p20
S'Happy'
p21
S'Strong'
p22
S'C:\\Users\\Jbarrett\\Charlie\\charlie\\stimuli\\visual\\emotion_recognition\\FHZ_152.png'
S'Happy'
p23
I2840
tp24
a(g18
g19
I1
g20
S'Afraid'
p25
g22
S'C:\\Users\\Jbarrett\\Charlie\\charlie\\stimuli\\visual\\emotion_recognition\\FFZ_236.png'
S'Neutral'
I11291
tp26
a(g18
g19
I2
S'Male'
p27
g21
g22
S'C:\\Users\\Jbarrett\\Charlie\\charlie\\stimuli\\visual\\emotion_recognition\\MHZ_216.png'
S'Happy'
I2630
tp28
a(g18
g19
I3
g27
S'Angry'
p29
S'Weak'
p30
S'C:\\Users\\Jbarrett\\Charlie\\charlie\\stimuli\\visual\\emotion_recognition\\MAX_39.png'
S'Neutral'
I5750
tp31
a(g18
g19
I4
g27
g21
g30
S'C:\\Users\\Jbarrett\\Charlie\\charlie\\stimuli\\visual\\emotion_recognition\\MHX_140.png'
S'Happy'
I2330
tp32
a(g18
g19
I5
g20
g25
g30
S'C:\\Users\\Jbarrett\\Charlie\\charlie\\stimuli\\visual\\emotion_recognition\\FFX_54.png'
S'Afraid'
I3200
tp33
a(g18
g19
I6
g20
S'Neutral'
p34
S'N/A'
p35
S'C:\\Users\\Jbarrett\\Charlie\\charlie\\stimuli\\visual\\emotion_recognition\\FN_30.png'
S'Neutral'
I3031
tp36
a(g18
g19
I7
g20
S'Sad'
p37
g22
S'C:\\Users\\Jbarrett\\Charlie\\charlie\\stimuli\\visual\\emotion_recognition\\FSZ_219.png'
S'Sad'
I3761
tp38
a(g18
g19
I8
g27
g21
g30
S'C:\\Users\\Jbarrett\\Charlie\\charlie\\stimuli\\visual\\emotion_recognition\\MHX_104.png'
S'Happy'
I2770
tp39
a(g18
g19
I9
g20
g29
g30
S'C:\\Users\\Jbarrett\\Charlie\\charlie\\stimuli\\visual\\emotion_recognition\\FAX_45.png'
S'Angry'
I7780
tp40
a(g18
g19
I10
g20
g21
g22
S'C:\\Users\\Jbarrett\\Charlie\\charlie\\stimuli\\visual\\emotion_recognition\\FHZ_131.png'
S'Happy'
I1561
tp41
a(g18
g19
I11
g27
g34
g35
S'C:\\Users\\Jbarrett\\Charlie\\charlie\\stimuli\\visual\\emotion_recognition\\MN_111.png'
S'Neutral'
I3390
tp42
a(g18
g19
I12
g20
g29
g22
S'C:\\Users\\Jbarrett\\Charlie\\charlie\\stimuli\\visual\\emotion_recognition\\FAZ_32.png'
S'Angry'
I1530
tp43
a(g18
g19
I13
g20
g21
g30
S'C:\\Users\\Jbarrett\\Charlie\\charlie\\stimuli\\visual\\emotion_recognition\\FHX_220.png'
S'Happy'
I2120
tp44
a(g18
g19
I14
g20
g25
g30
S'C:\\Users\\Jbarrett\\Charlie\\charlie\\stimuli\\visual\\emotion_recognition\\FFX_130.png'
S'Afraid'
I2770
tp45
a(g18
g19
I15
g20
g37
g30
S'C:\\Users\\Jbarrett\\Charlie\\charlie\\stimuli\\visual\\emotion_recognition\\FSX_20.png'
S'Sad'
I5430
tp46
a(g18
g19
I16
g27
g37
g30
S'C:\\Users\\Jbarrett\\Charlie\\charlie\\stimuli\\visual\\emotion_recognition\\MSX_108.png'
S'Sad'
I1731
tp47
a(g18
g19
I17
g27
g37
g30
S'C:\\Users\\Jbarrett\\Charlie\\charlie\\stimuli\\visual\\emotion_recognition\\MSX_147.png'
S'Angry'
I5480
tp48
a(g18
g19
I18
g20
g29
g22
S'C:\\Users\\Jbarrett\\Charlie\\charlie\\stimuli\\visual\\emotion_recognition\\FAZ_129.png'
S'Angry'
I3030
tp49
a(g18
g19
I19
g27
g34
g35
S'C:\\Users\\Jbarrett\\Charlie\\charlie\\stimuli\\visual\\emotion_recognition\\MN_123.png'
S'Neutral'
I2270
tp50
a(g18
g19
I20
g27
g37
g22
S'C:\\Users\\Jbarrett\\Charlie\\charlie\\stimuli\\visual\\emotion_recognition\\MSZ_126.png'
S'Sad'
I1640
tp51
a(g18
g19
I21
g27
g29
g22
S'C:\\Users\\Jbarrett\\Charlie\\charlie\\stimuli\\visual\\emotion_recognition\\MAZ_128.png'
S'Angry'
I1930
tp52
a(g18
g19
I22
g27
g25
g22
S'C:\\Users\\Jbarrett\\Charlie\\charlie\\stimuli\\visual\\emotion_recognition\\MFZ_7.png'
S'Afraid'
I1811
tp53
a(g18
g19
I23
g20
g29
g30
S'C:\\Users\\Jbarrett\\Charlie\\charlie\\stimuli\\visual\\emotion_recognition\\FAX_25.png'
S'Angry'
I1420
tp54
a(g18
g19
I24
g27
g37
g22
S'C:\\Users\\Jbarrett\\Charlie\\charlie\\stimuli\\visual\\emotion_recognition\\MSZ_112.png'
S'Sad'
I3080
tp55
a(g18
g19
I25
g27
g34
g35
S'C:\\Users\\Jbarrett\\Charlie\\charlie\\stimuli\\visual\\emotion_recognition\\MN_223.png'
S'Neutral'
I4260
tp56
a(g18
g19
I26
g27
g29
g30
S'C:\\Users\\Jbarrett\\Charlie\\charlie\\stimuli\\visual\\emotion_recognition\\MAX_201.png'
S'Neutral'
I2820
tp57
a(g18
g19
I27
g27
g21
g22
S'C:\\Users\\Jbarrett\\Charlie\\charlie\\stimuli\\visual\\emotion_recognition\\MHZ_227.png'
S'Happy'
I2210
tp58
a(g18
g19
I28
g27
g25
g30
S'C:\\Users\\Jbarrett\\Charlie\\charlie\\stimuli\\visual\\emotion_recognition\\MFX_153.png'
S'Afraid'
I4621
tp59
a(g18
g19
I29
g27
g29
g22
S'C:\\Users\\Jbarrett\\Charlie\\charlie\\stimuli\\visual\\emotion_recognition\\MAZ_146.png'
S'Angry'
I2910
tp60
a(g18
g19
I30
g20
g34
g35
S'C:\\Users\\Jbarrett\\Charlie\\charlie\\stimuli\\visual\\emotion_recognition\\FN_13.png'
S'Neutral'
I3090
tp61
a(g18
g19
I31
g20
g21
g30
S'C:\\Users\\Jbarrett\\Charlie\\charlie\\stimuli\\visual\\emotion_recognition\\FHX_127.png'
S'Happy'
I4240
tp62
a(g18
g19
I32
g20
g37
g22
S'C:\\Users\\Jbarrett\\Charlie\\charlie\\stimuli\\visual\\emotion_recognition\\FSZ_210.png'
S'Sad'
I2290
tp63
a(g18
g19
I33
g20
g37
g30
S'C:\\Users\\Jbarrett\\Charlie\\charlie\\stimuli\\visual\\emotion_recognition\\FSX_47.png'
S'Sad'
I4721
tp64
a(g18
g19
I34
g27
g34
g35
S'C:\\Users\\Jbarrett\\Charlie\\charlie\\stimuli\\visual\\emotion_recognition\\MN_21.png'
S'Neutral'
I2690
tp65
a(g18
g19
I35
g20
g25
g22
S'C:\\Users\\Jbarrett\\Charlie\\charlie\\stimuli\\visual\\emotion_recognition\\FFZ_29.png'
S'Afraid'
I3430
tp66
a(g18
g19
I36
g20
g34
g35
S'C:\\Users\\Jbarrett\\Charlie\\charlie\\stimuli\\visual\\emotion_recognition\\FN_228.png'
S'Neutral'
I2630
tp67
a(g18
g19
I37
g27
g25
g22
S'C:\\Users\\Jbarrett\\Charlie\\charlie\\stimuli\\visual\\emotion_recognition\\MFZ_132.png'
S'Afraid'
I5831
tp68
a(g18
g19
I38
g20
g34
g35
S'C:\\Users\\Jbarrett\\Charlie\\charlie\\stimuli\\visual\\emotion_recognition\\FN_204.png'
S'Neutral'
I2450
tp69
a(g18
g19
I39
g27
g25
g30
S'C:\\Users\\Jbarrett\\Charlie\\charlie\\stimuli\\visual\\emotion_recognition\\MFX_137.png'
p70
S'Afraid'
I3780
tp71
asS'output_format'
p72
(lp73
(S'proband_id'
p74
c__builtin__
str
p75
tp76
a(S'test_name'
p77
g75
tp78
a(S'trialn'
p79
c__builtin__
int
p80
tp81
a(S'sex'
p82
g75
tp83
a(S'emotion'
p84
g75
tp85
a(S'salience'
p86
g75
tp87
a(S'f'
g75
tp88
a(S'rsp'
p89
g75
tp90
a(S'rt'
p91
g80
tp92
asg74
g18
sS'filename'
p93
S'4424_emotion_recognition.data'
p94
sS'initialised'
p95
g8
(S'\x07\xdf\x07\x16\x0b"\x1a\x0eDX'
tRp96
sS'last_udated'
p97
g8
(S'\x07\xdf\x07\x16\x0b"\x1a\x0eDX'
tRp98
sg77
S'emotion_recognition'
p99
sS'directory'
p100
S'C:\\Users\\Jbarrett\\Charlie\\charlie\\data\\raw'
p101
sS'user_id'
p102
S'barrett'
p103
sS'test_started'
p104
I01
sS'abs_filename'
p105
S'C:\\Users\\Jbarrett\\Charlie\\charlie\\data\\raw\\4424_emotion_recognition.data'
p106
sS'date_started'
p107
g8
(S'\x07\xdf\x07\x16\x0b"/\x00\xa7\xf8'
tRp108
sS'log'
p109
(lp110
(S'2015-07-22 11:34:26.935000'
S'instance created'
p111
tp112
a(S'2015-07-22 11:34:47.053000'
S'instance updated'
p113
tp114
a(S'2015-07-22 11:34:47.061000'
S'pandas DataFrame of data created'
p115
tp116
a(S'2015-07-22 11:34:47.064000'
S'data saved as csv to C:\\Users\\Jbarrett\\Charlie\\charlie\\data\\csv\\4424_emotion_recognition.csv'
tp117
a(S'2015-07-22 11:34:58.485000'
g113
tp118
a(S'2015-07-22 11:34:58.493000'
g115
tp119
a(S'2015-07-22 11:34:58.495000'
S'data saved as csv to C:\\Users\\Jbarrett\\Charlie\\charlie\\data\\csv\\4424_emotion_recognition.csv'
tp120
a(S'2015-07-22 11:35:01.255000'
g113
tp121
a(S'2015-07-22 11:35:01.264000'
g115
tp122
a(S'2015-07-22 11:35:01.268000'
S'data saved as csv to C:\\Users\\Jbarrett\\Charlie\\charlie\\data\\csv\\4424_emotion_recognition.csv'
tp123
a(S'2015-07-22 11:35:07.151000'
g113
tp124
a(S'2015-07-22 11:35:07.160000'
g115
tp125
a(S'2015-07-22 11:35:07.163000'
S'data saved as csv to C:\\Users\\Jbarrett\\Charlie\\charlie\\data\\csv\\4424_emotion_recognition.csv'
tp126
a(S'2015-07-22 11:35:09.622000'
g113
tp127
a(S'2015-07-22 11:35:09.632000'
g115
tp128
a(S'2015-07-22 11:35:09.635000'
S'data saved as csv to C:\\Users\\Jbarrett\\Charlie\\charlie\\data\\csv\\4424_emotion_recognition.csv'
tp129
a(S'2015-07-22 11:35:12.968000'
g113
tp130
a(S'2015-07-22 11:35:12.978000'
g115
tp131
a(S'2015-07-22 11:35:12.981000'
S'data saved as csv to C:\\Users\\Jbarrett\\Charlie\\charlie\\data\\csv\\4424_emotion_recognition.csv'
tp132
a(S'2015-07-22 11:35:16.142000'
g113
tp133
a(S'2015-07-22 11:35:16.151000'
g115
tp134
a(S'2015-07-22 11:35:16.155000'
S'data saved as csv to C:\\Users\\Jbarrett\\Charlie\\charlie\\data\\csv\\4424_emotion_recognition.csv'
tp135
a(S'2015-07-22 11:35:20.047000'
g113
tp136
a(S'2015-07-22 11:35:20.057000'
g115
tp137
a(S'2015-07-22 11:35:20.061000'
S'data saved as csv to C:\\Users\\Jbarrett\\Charlie\\charlie\\data\\csv\\4424_emotion_recognition.csv'
tp138
a(S'2015-07-22 11:35:22.962000'
g113
tp139
a(S'2015-07-22 11:35:22.971000'
g115
tp140
a(S'2015-07-22 11:35:22.974000'
S'data saved as csv to C:\\Users\\Jbarrett\\Charlie\\charlie\\data\\csv\\4424_emotion_recognition.csv'
tp141
a(S'2015-07-22 11:35:30.884000'
g113
tp142
a(S'2015-07-22 11:35:30.893000'
g115
tp143
a(S'2015-07-22 11:35:30.895000'
S'data saved as csv to C:\\Users\\Jbarrett\\Charlie\\charlie\\data\\csv\\4424_emotion_recognition.csv'
tp144
a(S'2015-07-22 11:35:32.585000'
g113
tp145
a(S'2015-07-22 11:35:32.595000'
g115
tp146
a(S'2015-07-22 11:35:32.599000'
S'data saved as csv to C:\\Users\\Jbarrett\\Charlie\\charlie\\data\\csv\\4424_emotion_recognition.csv'
tp147
a(S'2015-07-22 11:35:36.120000'
g113
tp148
a(S'2015-07-22 11:35:36.129000'
g115
tp149
a(S'2015-07-22 11:35:36.133000'
S'data saved as csv to C:\\Users\\Jbarrett\\Charlie\\charlie\\data\\csv\\4424_emotion_recognition.csv'
tp150
a(S'2015-07-22 11:35:37.792000'
g113
tp151
a(S'2015-07-22 11:35:37.801000'
g115
tp152
a(S'2015-07-22 11:35:37.805000'
S'data saved as csv to C:\\Users\\Jbarrett\\Charlie\\charlie\\data\\csv\\4424_emotion_recognition.csv'
tp153
a(S'2015-07-22 11:35:40.057000'
g113
tp154
a(S'2015-07-22 11:35:40.067000'
g115
tp155
a(S'2015-07-22 11:35:40.071000'
S'data saved as csv to C:\\Users\\Jbarrett\\Charlie\\charlie\\data\\csv\\4424_emotion_recognition.csv'
tp156
a(S'2015-07-22 11:35:42.972000'
g113
tp157
a(S'2015-07-22 11:35:42.982000'
g115
tp158
a(S'2015-07-22 11:35:42.985000'
S'data saved as csv to C:\\Users\\Jbarrett\\Charlie\\charlie\\data\\csv\\4424_emotion_recognition.csv'
tp159
a(S'2015-07-22 11:35:48.545000'
g113
tp160
a(S'2015-07-22 11:35:48.555000'
g115
tp161
a(S'2015-07-22 11:35:48.558000'
S'data saved as csv to C:\\Users\\Jbarrett\\Charlie\\charlie\\data\\csv\\4424_emotion_recognition.csv'
tp162
a(S'2015-07-22 11:35:50.419000'
g113
tp163
a(S'2015-07-22 11:35:50.426000'
g115
tp164
a(S'2015-07-22 11:35:50.429000'
S'data saved as csv to C:\\Users\\Jbarrett\\Charlie\\charlie\\data\\csv\\4424_emotion_recognition.csv'
tp165
a(S'2015-07-22 11:35:56.040000'
g113
tp166
a(S'2015-07-22 11:35:56.050000'
g115
tp167
a(S'2015-07-22 11:35:56.054000'
S'data saved as csv to C:\\Users\\Jbarrett\\Charlie\\charlie\\data\\csv\\4424_emotion_recognition.csv'
tp168
a(S'2015-07-22 11:35:59.216000'
g113
tp169
a(S'2015-07-22 11:35:59.226000'
g115
tp170
a(S'2015-07-22 11:35:59.230000'
S'data saved as csv to C:\\Users\\Jbarrett\\Charlie\\charlie\\data\\csv\\4424_emotion_recognition.csv'
tp171
a(S'2015-07-22 11:36:01.633000'
g113
tp172
a(S'2015-07-22 11:36:01.643000'
g115
tp173
a(S'2015-07-22 11:36:01.646000'
S'data saved as csv to C:\\Users\\Jbarrett\\Charlie\\charlie\\data\\csv\\4424_emotion_recognition.csv'
tp174
a(S'2015-07-22 11:36:03.415000'
g113
tp175
a(S'2015-07-22 11:36:03.425000'
g115
tp176
a(S'2015-07-22 11:36:03.429000'
S'data saved as csv to C:\\Users\\Jbarrett\\Charlie\\charlie\\data\\csv\\4424_emotion_recognition.csv'
tp177
a(S'2015-07-22 11:36:05.492000'
g113
tp178
a(S'2015-07-22 11:36:05.502000'
g115
tp179
a(S'2015-07-22 11:36:05.506000'
S'data saved as csv to C:\\Users\\Jbarrett\\Charlie\\charlie\\data\\csv\\4424_emotion_recognition.csv'
tp180
a(S'2015-07-22 11:36:07.447000'
g113
tp181
a(S'2015-07-22 11:36:07.456000'
g115
tp182
a(S'2015-07-22 11:36:07.460000'
S'data saved as csv to C:\\Users\\Jbarrett\\Charlie\\charlie\\data\\csv\\4424_emotion_recognition.csv'
tp183
a(S'2015-07-22 11:36:09.011000'
g113
tp184
a(S'2015-07-22 11:36:09.020000'
g115
tp185
a(S'2015-07-22 11:36:09.024000'
S'data saved as csv to C:\\Users\\Jbarrett\\Charlie\\charlie\\data\\csv\\4424_emotion_recognition.csv'
tp186
a(S'2015-07-22 11:36:12.235000'
g113
tp187
a(S'2015-07-22 11:36:12.245000'
g115
tp188
a(S'2015-07-22 11:36:12.249000'
S'data saved as csv to C:\\Users\\Jbarrett\\Charlie\\charlie\\data\\csv\\4424_emotion_recognition.csv'
tp189
a(S'2015-07-22 11:36:16.642000'
g113
tp190
a(S'2015-07-22 11:36:16.652000'
g115
tp191
a(S'2015-07-22 11:36:16.656000'
S'data saved as csv to C:\\Users\\Jbarrett\\Charlie\\charlie\\data\\csv\\4424_emotion_recognition.csv'
tp192
a(S'2015-07-22 11:36:19.608000'
g113
tp193
a(S'2015-07-22 11:36:19.616000'
g115
tp194
a(S'2015-07-22 11:36:19.619000'
S'data saved as csv to C:\\Users\\Jbarrett\\Charlie\\charlie\\data\\csv\\4424_emotion_recognition.csv'
tp195
a(S'2015-07-22 11:36:21.961000'
g113
tp196
a(S'2015-07-22 11:36:21.970000'
g115
tp197
a(S'2015-07-22 11:36:21.974000'
S'data saved as csv to C:\\Users\\Jbarrett\\Charlie\\charlie\\data\\csv\\4424_emotion_recognition.csv'
tp198
a(S'2015-07-22 11:36:26.728000'
g113
tp199
a(S'2015-07-22 11:36:26.738000'
g115
tp200
a(S'2015-07-22 11:36:26.742000'
S'data saved as csv to C:\\Users\\Jbarrett\\Charlie\\charlie\\data\\csv\\4424_emotion_recognition.csv'
tp201
a(S'2015-07-22 11:36:29.785000'
g113
tp202
a(S'2015-07-22 11:36:29.795000'
g115
tp203
a(S'2015-07-22 11:36:29.799000'
S'data saved as csv to C:\\Users\\Jbarrett\\Charlie\\charlie\\data\\csv\\4424_emotion_recognition.csv'
tp204
a(S'2015-07-22 11:36:33.022000'
g113
tp205
a(S'2015-07-22 11:36:33.030000'
g115
tp206
a(S'2015-07-22 11:36:33.032000'
S'data saved as csv to C:\\Users\\Jbarrett\\Charlie\\charlie\\data\\csv\\4424_emotion_recognition.csv'
tp207
a(S'2015-07-22 11:36:37.403000'
g113
tp208
a(S'2015-07-22 11:36:37.413000'
g115
tp209
a(S'2015-07-22 11:36:37.418000'
S'data saved as csv to C:\\Users\\Jbarrett\\Charlie\\charlie\\data\\csv\\4424_emotion_recognition.csv'
tp210
a(S'2015-07-22 11:36:39.839000'
g113
tp211
a(S'2015-07-22 11:36:39.846000'
g115
tp212
a(S'2015-07-22 11:36:39.848000'
S'data saved as csv to C:\\Users\\Jbarrett\\Charlie\\charlie\\data\\csv\\4424_emotion_recognition.csv'
tp213
a(S'2015-07-22 11:36:44.700000'
g113
tp214
a(S'2015-07-22 11:36:44.710000'
g115
tp215
a(S'2015-07-22 11:36:44.715000'
S'data saved as csv to C:\\Users\\Jbarrett\\Charlie\\charlie\\data\\csv\\4424_emotion_recognition.csv'
tp216
a(S'2015-07-22 11:36:47.538000'
g113
tp217
a(S'2015-07-22 11:36:47.547000'
g115
tp218
a(S'2015-07-22 11:36:47.549000'
S'data saved as csv to C:\\Users\\Jbarrett\\Charlie\\charlie\\data\\csv\\4424_emotion_recognition.csv'
tp219
a(S'2015-07-22 11:36:51.109000'
g113
tp220
a(S'2015-07-22 11:36:51.118000'
g115
tp221
a(S'2015-07-22 11:36:51.120000'
S'data saved as csv to C:\\Users\\Jbarrett\\Charlie\\charlie\\data\\csv\\4424_emotion_recognition.csv'
tp222
a(S'2015-07-22 11:36:53.882000'
g113
tp223
a(S'2015-07-22 11:36:53.892000'
g115
tp224
a(S'2015-07-22 11:36:53.896000'
S'data saved as csv to C:\\Users\\Jbarrett\\Charlie\\charlie\\data\\csv\\4424_emotion_recognition.csv'
tp225
a(S'2015-07-22 11:36:59.859000'
g113
tp226
a(S'2015-07-22 11:36:59.869000'
g115
tp227
a(S'2015-07-22 11:36:59.873000'
S'data saved as csv to C:\\Users\\Jbarrett\\Charlie\\charlie\\data\\csv\\4424_emotion_recognition.csv'
tp228
a(S'2015-07-22 11:37:02.456000'
g113
tp229
a(S'2015-07-22 11:37:02.466000'
g115
tp230
a(S'2015-07-22 11:37:02.470000'
S'data saved as csv to C:\\Users\\Jbarrett\\Charlie\\charlie\\data\\csv\\4424_emotion_recognition.csv'
tp231
a(S'2015-07-22 11:37:06.383000'
g113
tp232
a(S'2015-07-22 11:37:06.391000'
g115
tp233
a(S'2015-07-22 11:37:06.393000'
S'data saved as csv to C:\\Users\\Jbarrett\\Charlie\\charlie\\data\\csv\\4424_emotion_recognition.csv'
tp234
asb.