(icharlie.tools.data
Data
p1
(dp2
S'lang'
p3
S'EN'
p4
sS'control'
p5
(lp6
sS'last_updated'
p7
cdatetime
datetime
p8
(S'\x07\xdf\x07\x16\r"\x02\x0b\xe2\xf8'
tRp9
sS'last_opened'
p10
g8
(S'\x07\xdf\x07\x16\r\x1c\x0e\x07(\x08'
tRp11
sS'proj_id'
p12
S'connectivity'
p13
sS'date_done'
p14
NsS'test_done'
p15
I01
sS'data'
p16
(lp17
(S'4425'
p18
S'matrix_reasoning'
p19
S'practice'
p20
I0
S'c:\\Charlie\\charlie\\stimuli\\visual\\matrix_reasoning\\prac_MA.png'
S'c:\\Charlie\\charlie\\stimuli\\visual\\matrix_reasoning\\prac_MAa.png'
I1
I1
I7781
tp21
a(g18
g19
S'test'
p22
I0
S'c:\\Charlie\\charlie\\stimuli\\visual\\matrix_reasoning\\M001.png'
S'c:\\Charlie\\charlie\\stimuli\\visual\\matrix_reasoning\\M001a.png'
I1
I1
I4052
tp23
a(g18
g19
g22
I1
S'c:\\Charlie\\charlie\\stimuli\\visual\\matrix_reasoning\\M002.png'
S'c:\\Charlie\\charlie\\stimuli\\visual\\matrix_reasoning\\M002a.png'
I3
I3
I5732
tp24
a(g18
g19
g22
I2
S'c:\\Charlie\\charlie\\stimuli\\visual\\matrix_reasoning\\M003.png'
S'c:\\Charlie\\charlie\\stimuli\\visual\\matrix_reasoning\\M003a.png'
I1
I1
I5974
tp25
a(g18
g19
g22
I3
S'c:\\Charlie\\charlie\\stimuli\\visual\\matrix_reasoning\\M004.png'
S'c:\\Charlie\\charlie\\stimuli\\visual\\matrix_reasoning\\M004a.png'
I3
I3
I2522
tp26
a(g18
g19
g22
I4
S'c:\\Charlie\\charlie\\stimuli\\visual\\matrix_reasoning\\M005.png'
S'c:\\Charlie\\charlie\\stimuli\\visual\\matrix_reasoning\\M005a.png'
I2
I2
I5489
tp27
a(g18
g19
g22
I5
S'c:\\Charlie\\charlie\\stimuli\\visual\\matrix_reasoning\\M006.png'
S'c:\\Charlie\\charlie\\stimuli\\visual\\matrix_reasoning\\M006a.png'
I0
I0
I3916
tp28
a(g18
g19
g22
I6
S'c:\\Charlie\\charlie\\stimuli\\visual\\matrix_reasoning\\M007.png'
S'c:\\Charlie\\charlie\\stimuli\\visual\\matrix_reasoning\\M007a.png'
I0
I0
I4168
tp29
a(g18
g19
g22
I7
S'c:\\Charlie\\charlie\\stimuli\\visual\\matrix_reasoning\\M008.png'
S'c:\\Charlie\\charlie\\stimuli\\visual\\matrix_reasoning\\M008a.png'
I2
I2
I3609
tp30
a(g18
g19
g22
I8
S'c:\\Charlie\\charlie\\stimuli\\visual\\matrix_reasoning\\M009.png'
S'c:\\Charlie\\charlie\\stimuli\\visual\\matrix_reasoning\\M009a.png'
I4
I4
I6232
tp31
a(g18
g19
g22
I9
S'c:\\Charlie\\charlie\\stimuli\\visual\\matrix_reasoning\\M010.png'
S'c:\\Charlie\\charlie\\stimuli\\visual\\matrix_reasoning\\M010a.png'
I4
I0
I7567
tp32
a(g18
g19
g22
I10
S'c:\\Charlie\\charlie\\stimuli\\visual\\matrix_reasoning\\M011.png'
S'c:\\Charlie\\charlie\\stimuli\\visual\\matrix_reasoning\\M011a.png'
I4
I4
I3785
tp33
a(g18
g19
g22
I11
S'c:\\Charlie\\charlie\\stimuli\\visual\\matrix_reasoning\\M012.png'
S'c:\\Charlie\\charlie\\stimuli\\visual\\matrix_reasoning\\M012a.png'
I1
I1
I4837
tp34
a(g18
g19
g22
I12
S'c:\\Charlie\\charlie\\stimuli\\visual\\matrix_reasoning\\M013.png'
S'c:\\Charlie\\charlie\\stimuli\\visual\\matrix_reasoning\\M013a.png'
I2
I2
I13696
tp35
a(g18
g19
g22
I13
S'c:\\Charlie\\charlie\\stimuli\\visual\\matrix_reasoning\\M014.png'
S'c:\\Charlie\\charlie\\stimuli\\visual\\matrix_reasoning\\M014a.png'
I0
I0
I8424
tp36
a(g18
g19
g22
I14
S'c:\\Charlie\\charlie\\stimuli\\visual\\matrix_reasoning\\M015.png'
S'c:\\Charlie\\charlie\\stimuli\\visual\\matrix_reasoning\\M015a.png'
I1
I1
I6046
tp37
a(g18
g19
g22
I15
S'c:\\Charlie\\charlie\\stimuli\\visual\\matrix_reasoning\\M016.png'
S'c:\\Charlie\\charlie\\stimuli\\visual\\matrix_reasoning\\M016a.png'
I3
I3
I14683
tp38
a(g18
g19
g22
I16
S'c:\\Charlie\\charlie\\stimuli\\visual\\matrix_reasoning\\M017.png'
S'c:\\Charlie\\charlie\\stimuli\\visual\\matrix_reasoning\\M017a.png'
I2
I4
I6744
tp39
a(g18
g19
g22
I17
S'c:\\Charlie\\charlie\\stimuli\\visual\\matrix_reasoning\\M018.png'
S'c:\\Charlie\\charlie\\stimuli\\visual\\matrix_reasoning\\M018a.png'
I0
I1
I5523
tp40
a(g18
g19
g22
I18
S'c:\\Charlie\\charlie\\stimuli\\visual\\matrix_reasoning\\M019.png'
S'c:\\Charlie\\charlie\\stimuli\\visual\\matrix_reasoning\\M019a.png'
I0
I0
I15943
tp41
a(g18
g19
g22
I19
S'c:\\Charlie\\charlie\\stimuli\\visual\\matrix_reasoning\\M020.png'
S'c:\\Charlie\\charlie\\stimuli\\visual\\matrix_reasoning\\M020a.png'
I3
I3
I22748
tp42
a(g18
g19
g22
I20
S'c:\\Charlie\\charlie\\stimuli\\visual\\matrix_reasoning\\M021.png'
S'c:\\Charlie\\charlie\\stimuli\\visual\\matrix_reasoning\\M021a.png'
I4
I0
I10143
tp43
a(g18
g19
g22
I21
S'c:\\Charlie\\charlie\\stimuli\\visual\\matrix_reasoning\\M022.png'
S'c:\\Charlie\\charlie\\stimuli\\visual\\matrix_reasoning\\M022a.png'
I4
I4
I9715
tp44
a(g18
g19
g22
I22
S'c:\\Charlie\\charlie\\stimuli\\visual\\matrix_reasoning\\M023.png'
S'c:\\Charlie\\charlie\\stimuli\\visual\\matrix_reasoning\\M023a.png'
I1
I1
I12603
tp45
a(g18
g19
g22
I23
S'c:\\Charlie\\charlie\\stimuli\\visual\\matrix_reasoning\\M024.png'
S'c:\\Charlie\\charlie\\stimuli\\visual\\matrix_reasoning\\M024a.png'
I1
I1
I7867
tp46
a(g18
g19
g22
I24
S'c:\\Charlie\\charlie\\stimuli\\visual\\matrix_reasoning\\M025.png'
S'c:\\Charlie\\charlie\\stimuli\\visual\\matrix_reasoning\\M025a.png'
I0
I4
I12612
tp47
a(g18
g19
g22
I25
S'c:\\Charlie\\charlie\\stimuli\\visual\\matrix_reasoning\\M026.png'
S'c:\\Charlie\\charlie\\stimuli\\visual\\matrix_reasoning\\M026a.png'
I4
I0
I47972
tp48
a(g18
g19
g22
I26
S'c:\\Charlie\\charlie\\stimuli\\visual\\matrix_reasoning\\M027.png'
S'c:\\Charlie\\charlie\\stimuli\\visual\\matrix_reasoning\\M027a.png'
I3
I3
I20886
tp49
a(g18
g19
g22
I27
S'c:\\Charlie\\charlie\\stimuli\\visual\\matrix_reasoning\\M028.png'
S'c:\\Charlie\\charlie\\stimuli\\visual\\matrix_reasoning\\M028a.png'
I2
I3
I18220
tp50
a(g18
g19
g22
I28
S'c:\\Charlie\\charlie\\stimuli\\visual\\matrix_reasoning\\M029.png'
p51
S'c:\\Charlie\\charlie\\stimuli\\visual\\matrix_reasoning\\M029a.png'
p52
I2
I0
I20087
tp53
asS'output_format'
p54
(lp55
(S'proband_id'
p56
c__builtin__
str
p57
tp58
a(S'test_name'
p59
g57
tp60
a(S'phase'
p61
g57
tp62
a(S'trialn'
p63
c__builtin__
int
p64
tp65
a(S'matrix'
p66
g57
tp67
a(S'array'
p68
g57
tp69
a(S'ans'
p70
g64
tp71
a(S'rsp'
p72
g64
tp73
a(S'rt'
p74
g64
tp75
asg56
g18
sS'filename'
p76
S'4425_matrix_reasoning.data'
p77
sS'initialised'
p78
g8
(S'\x07\xdf\x07\x16\r\x1c\x0e\x07(\x08'
tRp79
sS'last_udated'
p80
g8
(S'\x07\xdf\x07\x16\r\x1c\x0e\x07(\x08'
tRp81
sg59
S'matrix_reasoning'
p82
sS'directory'
p83
S'c:\\Charlie\\charlie\\data\\raw'
p84
sS'user_id'
p85
S'sbuccheri'
p86
sS'test_started'
p87
I01
sS'abs_filename'
p88
S'c:\\Charlie\\charlie\\data\\raw\\4425_matrix_reasoning.data'
p89
sS'date_started'
p90
g8
(S'\x07\xdf\x07\x16\r\x1c,\x04l\xd0'
tRp91
sS'log'
p92
(lp93
(S'2015-07-22 13:28:14.469000'
S'instance created'
p94
tp95
a(S'2015-07-22 13:28:44.306000'
S'instance updated'
p96
tp97
a(S'2015-07-22 13:28:44.316000'
S'pandas DataFrame of data created'
p98
tp99
a(S'2015-07-22 13:28:44.341000'
S'data saved as csv to c:\\Charlie\\charlie\\data\\csv\\4425_matrix_reasoning.csv'
tp100
a(S'2015-07-22 13:28:44.346000'
g98
tp101
a(S'2015-07-22 13:28:50.502000'
g96
tp102
a(S'2015-07-22 13:28:50.511000'
g98
tp103
a(S'2015-07-22 13:28:50.515000'
S'data saved as csv to c:\\Charlie\\charlie\\data\\csv\\4425_matrix_reasoning.csv'
tp104
a(S'2015-07-22 13:28:50.525000'
g98
tp105
a(S'2015-07-22 13:28:56.398000'
g96
tp106
a(S'2015-07-22 13:28:56.407000'
g98
tp107
a(S'2015-07-22 13:28:56.411000'
S'data saved as csv to c:\\Charlie\\charlie\\data\\csv\\4425_matrix_reasoning.csv'
tp108
a(S'2015-07-22 13:28:56.421000'
g98
tp109
a(S'2015-07-22 13:29:02.542000'
g96
tp110
a(S'2015-07-22 13:29:02.551000'
g98
tp111
a(S'2015-07-22 13:29:02.555000'
S'data saved as csv to c:\\Charlie\\charlie\\data\\csv\\4425_matrix_reasoning.csv'
tp112
a(S'2015-07-22 13:29:02.565000'
g98
tp113
a(S'2015-07-22 13:29:05.230000'
g96
tp114
a(S'2015-07-22 13:29:05.239000'
g98
tp115
a(S'2015-07-22 13:29:05.265000'
S'data saved as csv to c:\\Charlie\\charlie\\data\\csv\\4425_matrix_reasoning.csv'
tp116
a(S'2015-07-22 13:29:05.270000'
g98
tp117
a(S'2015-07-22 13:29:10.893000'
g96
tp118
a(S'2015-07-22 13:29:10.903000'
g98
tp119
a(S'2015-07-22 13:29:10.906000'
S'data saved as csv to c:\\Charlie\\charlie\\data\\csv\\4425_matrix_reasoning.csv'
tp120
a(S'2015-07-22 13:29:10.913000'
g98
tp121
a(S'2015-07-22 13:29:14.964000'
g96
tp122
a(S'2015-07-22 13:29:14.974000'
g98
tp123
a(S'2015-07-22 13:29:14.978000'
S'data saved as csv to c:\\Charlie\\charlie\\data\\csv\\4425_matrix_reasoning.csv'
tp124
a(S'2015-07-22 13:29:14.988000'
g98
tp125
a(S'2015-07-22 13:29:19.301000'
g96
tp126
a(S'2015-07-22 13:29:19.311000'
g98
tp127
a(S'2015-07-22 13:29:19.315000'
S'data saved as csv to c:\\Charlie\\charlie\\data\\csv\\4425_matrix_reasoning.csv'
tp128
a(S'2015-07-22 13:29:19.325000'
g98
tp129
a(S'2015-07-22 13:29:23.071000'
g96
tp130
a(S'2015-07-22 13:29:23.078000'
g98
tp131
a(S'2015-07-22 13:29:23.081000'
S'data saved as csv to c:\\Charlie\\charlie\\data\\csv\\4425_matrix_reasoning.csv'
tp132
a(S'2015-07-22 13:29:23.088000'
g98
tp133
a(S'2015-07-22 13:29:29.452000'
g96
tp134
a(S'2015-07-22 13:29:29.462000'
g98
tp135
a(S'2015-07-22 13:29:29.466000'
S'data saved as csv to c:\\Charlie\\charlie\\data\\csv\\4425_matrix_reasoning.csv'
tp136
a(S'2015-07-22 13:29:29.475000'
g98
tp137
a(S'2015-07-22 13:29:37.180000'
g96
tp138
a(S'2015-07-22 13:29:37.190000'
g98
tp139
a(S'2015-07-22 13:29:37.194000'
S'data saved as csv to c:\\Charlie\\charlie\\data\\csv\\4425_matrix_reasoning.csv'
tp140
a(S'2015-07-22 13:29:37.204000'
g98
tp141
a(S'2015-07-22 13:29:41.131000'
g96
tp142
a(S'2015-07-22 13:29:41.140000'
g98
tp143
a(S'2015-07-22 13:29:41.145000'
S'data saved as csv to c:\\Charlie\\charlie\\data\\csv\\4425_matrix_reasoning.csv'
tp144
a(S'2015-07-22 13:29:41.151000'
g98
tp145
a(S'2015-07-22 13:29:46.123000'
g96
tp146
a(S'2015-07-22 13:29:46.133000'
g98
tp147
a(S'2015-07-22 13:29:46.137000'
S'data saved as csv to c:\\Charlie\\charlie\\data\\csv\\4425_matrix_reasoning.csv'
tp148
a(S'2015-07-22 13:29:46.146000'
g98
tp149
a(S'2015-07-22 13:29:59.986000'
g96
tp150
a(S'2015-07-22 13:29:59.996000'
g98
tp151
a(S'2015-07-22 13:30:00'
S'data saved as csv to c:\\Charlie\\charlie\\data\\csv\\4425_matrix_reasoning.csv'
tp152
a(S'2015-07-22 13:30:00.010000'
g98
tp153
a(S'2015-07-22 13:30:08.569000'
g96
tp154
a(S'2015-07-22 13:30:08.576000'
g98
tp155
a(S'2015-07-22 13:30:08.579000'
S'data saved as csv to c:\\Charlie\\charlie\\data\\csv\\4425_matrix_reasoning.csv'
tp156
a(S'2015-07-22 13:30:08.585000'
g98
tp157
a(S'2015-07-22 13:30:14.770000'
g96
tp158
a(S'2015-07-22 13:30:14.780000'
g98
tp159
a(S'2015-07-22 13:30:14.784000'
S'data saved as csv to c:\\Charlie\\charlie\\data\\csv\\4425_matrix_reasoning.csv'
tp160
a(S'2015-07-22 13:30:14.793000'
g98
tp161
a(S'2015-07-22 13:30:29.617000'
g96
tp162
a(S'2015-07-22 13:30:29.627000'
g98
tp163
a(S'2015-07-22 13:30:29.631000'
S'data saved as csv to c:\\Charlie\\charlie\\data\\csv\\4425_matrix_reasoning.csv'
tp164
a(S'2015-07-22 13:30:29.641000'
g98
tp165
a(S'2015-07-22 13:30:36.526000'
g96
tp166
a(S'2015-07-22 13:30:36.532000'
g98
tp167
a(S'2015-07-22 13:30:36.534000'
S'data saved as csv to c:\\Charlie\\charlie\\data\\csv\\4425_matrix_reasoning.csv'
tp168
a(S'2015-07-22 13:30:36.540000'
g98
tp169
a(S'2015-07-22 13:30:42.200000'
g96
tp170
a(S'2015-07-22 13:30:42.210000'
g98
tp171
a(S'2015-07-22 13:30:42.214000'
S'data saved as csv to c:\\Charlie\\charlie\\data\\csv\\4425_matrix_reasoning.csv'
tp172
a(S'2015-07-22 13:30:42.224000'
g98
tp173
a(S'2015-07-22 13:30:58.309000'
g96
tp174
a(S'2015-07-22 13:30:58.316000'
g98
tp175
a(S'2015-07-22 13:30:58.319000'
S'data saved as csv to c:\\Charlie\\charlie\\data\\csv\\4425_matrix_reasoning.csv'
tp176
a(S'2015-07-22 13:30:58.326000'
g98
tp177
a(S'2015-07-22 13:31:21.214000'
g96
tp178
a(S'2015-07-22 13:31:21.224000'
g98
tp179
a(S'2015-07-22 13:31:21.229000'
S'data saved as csv to c:\\Charlie\\charlie\\data\\csv\\4425_matrix_reasoning.csv'
tp180
a(S'2015-07-22 13:31:21.239000'
g98
tp181
a(S'2015-07-22 13:31:31.526000'
g96
tp182
a(S'2015-07-22 13:31:31.536000'
g98
tp183
a(S'2015-07-22 13:31:31.540000'
S'data saved as csv to c:\\Charlie\\charlie\\data\\csv\\4425_matrix_reasoning.csv'
tp184
a(S'2015-07-22 13:31:31.545000'
g98
tp185
a(S'2015-07-22 13:31:41.397000'
g96
tp186
a(S'2015-07-22 13:31:41.407000'
g98
tp187
a(S'2015-07-22 13:31:41.411000'
S'data saved as csv to c:\\Charlie\\charlie\\data\\csv\\4425_matrix_reasoning.csv'
tp188
a(S'2015-07-22 13:31:41.417000'
g98
tp189
a(S'2015-07-22 13:31:54.156000'
g96
tp190
a(S'2015-07-22 13:31:54.166000'
g98
tp191
a(S'2015-07-22 13:31:54.170000'
S'data saved as csv to c:\\Charlie\\charlie\\data\\csv\\4425_matrix_reasoning.csv'
tp192
a(S'2015-07-22 13:31:54.180000'
g98
tp193
a(S'2015-07-22 13:32:02.188000'
g96
tp194
a(S'2015-07-22 13:32:02.198000'
g98
tp195
a(S'2015-07-22 13:32:02.201000'
S'data saved as csv to c:\\Charlie\\charlie\\data\\csv\\4425_matrix_reasoning.csv'
tp196
a(S'2015-07-22 13:32:02.207000'
g98
tp197
a(S'2015-07-22 13:32:14.955000'
g96
tp198
a(S'2015-07-22 13:32:14.966000'
g98
tp199
a(S'2015-07-22 13:32:14.971000'
S'data saved as csv to c:\\Charlie\\charlie\\data\\csv\\4425_matrix_reasoning.csv'
tp200
a(S'2015-07-22 13:32:14.981000'
g98
tp201
a(S'2015-07-22 13:33:03.096000'
g96
tp202
a(S'2015-07-22 13:33:03.106000'
g98
tp203
a(S'2015-07-22 13:33:03.109000'
S'data saved as csv to c:\\Charlie\\charlie\\data\\csv\\4425_matrix_reasoning.csv'
tp204
a(S'2015-07-22 13:33:03.119000'
g98
tp205
a(S'2015-07-22 13:33:24.143000'
g96
tp206
a(S'2015-07-22 13:33:24.153000'
g98
tp207
a(S'2015-07-22 13:33:24.158000'
S'data saved as csv to c:\\Charlie\\charlie\\data\\csv\\4425_matrix_reasoning.csv'
tp208
a(S'2015-07-22 13:33:24.168000'
g98
tp209
a(S'2015-07-22 13:33:42.534000'
g96
tp210
a(S'2015-07-22 13:33:42.545000'
g98
tp211
a(S'2015-07-22 13:33:42.550000'
S'data saved as csv to c:\\Charlie\\charlie\\data\\csv\\4425_matrix_reasoning.csv'
tp212
a(S'2015-07-22 13:33:42.559000'
g98
tp213
a(S'2015-07-22 13:34:02.771000'
g96
tp214
a(S'2015-07-22 13:34:02.774000'
g98
tp215
a(S'2015-07-22 13:34:02.775000'
S'data saved as csv to c:\\Charlie\\charlie\\data\\csv\\4425_matrix_reasoning.csv'
tp216
a(S'2015-07-22 13:34:02.778000'
g98
tp217
asb.