(icharlie.tools.data
Data
p1
(dp2
S'lang'
p3
S'EN'
p4
sS'control'
p5
(lp6
sS'last_updated'
p7
cdatetime
datetime
p8
(S'\x07\xdf\x07\x16\r-\x05\x04\xabP'
tRp9
sS'last_opened'
p10
g8
(S'\x07\xdf\x07\x16\r+2\x0b\xc3\xb8'
tRp11
sS'proj_id'
p12
S'connectivity'
p13
sS'date_done'
p14
NsS'test_done'
p15
I01
sS'data'
p16
(lp17
(S'4425'
p18
S'face_memory_delay'
p19
S'test'
p20
I0
S'c:\\Charlie\\charlie\\stimuli\\visual\\face_memory_delay\\ddis10.bmp'
S'No'
p21
g21
I1740
tp22
a(g18
g19
g20
I1
S'c:\\Charlie\\charlie\\stimuli\\visual\\face_memory_delay\\ddis04.bmp'
g21
g21
I1460
tp23
a(g18
g19
g20
I2
S'c:\\Charlie\\charlie\\stimuli\\visual\\face_memory_delay\\tar07.bmp'
S'Yes'
p24
g24
I1050
tp25
a(g18
g19
g20
I3
S'c:\\Charlie\\charlie\\stimuli\\visual\\face_memory_delay\\tar18.bmp'
g24
g24
I990
tp26
a(g18
g19
g20
I4
S'c:\\Charlie\\charlie\\stimuli\\visual\\face_memory_delay\\ddis14.bmp'
g21
g21
I1530
tp27
a(g18
g19
g20
I5
S'c:\\Charlie\\charlie\\stimuli\\visual\\face_memory_delay\\tar19.bmp'
g24
g21
I1281
tp28
a(g18
g19
g20
I6
S'c:\\Charlie\\charlie\\stimuli\\visual\\face_memory_delay\\ddis13.bmp'
g21
g21
I1590
tp29
a(g18
g19
g20
I7
S'c:\\Charlie\\charlie\\stimuli\\visual\\face_memory_delay\\tar15.bmp'
g24
g24
I910
tp30
a(g18
g19
g20
I8
S'c:\\Charlie\\charlie\\stimuli\\visual\\face_memory_delay\\tar11.bmp'
g24
g24
I940
tp31
a(g18
g19
g20
I9
S'c:\\Charlie\\charlie\\stimuli\\visual\\face_memory_delay\\ddis05.bmp'
g21
g21
I1250
tp32
a(g18
g19
g20
I10
S'c:\\Charlie\\charlie\\stimuli\\visual\\face_memory_delay\\ddis01.bmp'
g21
g21
I1180
tp33
a(g18
g19
g20
I11
S'c:\\Charlie\\charlie\\stimuli\\visual\\face_memory_delay\\ddis16.bmp'
g21
g21
I1100
tp34
a(g18
g19
g20
I12
S'c:\\Charlie\\charlie\\stimuli\\visual\\face_memory_delay\\tar02.bmp'
g24
g24
I860
tp35
a(g18
g19
g20
I13
S'c:\\Charlie\\charlie\\stimuli\\visual\\face_memory_delay\\tar08.bmp'
g24
g24
I990
tp36
a(g18
g19
g20
I14
S'c:\\Charlie\\charlie\\stimuli\\visual\\face_memory_delay\\tar13.bmp'
g24
g24
I1630
tp37
a(g18
g19
g20
I15
S'c:\\Charlie\\charlie\\stimuli\\visual\\face_memory_delay\\tar20.bmp'
g24
g24
I1090
tp38
a(g18
g19
g20
I16
S'c:\\Charlie\\charlie\\stimuli\\visual\\face_memory_delay\\ddis18.bmp'
g21
g21
I960
tp39
a(g18
g19
g20
I17
S'c:\\Charlie\\charlie\\stimuli\\visual\\face_memory_delay\\tar06.bmp'
g24
g21
I1360
tp40
a(g18
g19
g20
I18
S'c:\\Charlie\\charlie\\stimuli\\visual\\face_memory_delay\\ddis07.bmp'
g21
g24
I1831
tp41
a(g18
g19
g20
I19
S'c:\\Charlie\\charlie\\stimuli\\visual\\face_memory_delay\\ddis08.bmp'
g21
g21
I1850
tp42
a(g18
g19
g20
I20
S'c:\\Charlie\\charlie\\stimuli\\visual\\face_memory_delay\\tar12.bmp'
g24
g24
I1290
tp43
a(g18
g19
g20
I21
S'c:\\Charlie\\charlie\\stimuli\\visual\\face_memory_delay\\ddis17.bmp'
g21
g24
I980
tp44
a(g18
g19
g20
I22
S'c:\\Charlie\\charlie\\stimuli\\visual\\face_memory_delay\\tar05.bmp'
g24
g24
I1130
tp45
a(g18
g19
g20
I23
S'c:\\Charlie\\charlie\\stimuli\\visual\\face_memory_delay\\tar10.bmp'
g24
g24
I1010
tp46
a(g18
g19
g20
I24
S'c:\\Charlie\\charlie\\stimuli\\visual\\face_memory_delay\\ddis02.bmp'
g21
g21
I840
tp47
a(g18
g19
g20
I25
S'c:\\Charlie\\charlie\\stimuli\\visual\\face_memory_delay\\ddis20.bmp'
g21
g21
I1180
tp48
a(g18
g19
g20
I26
S'c:\\Charlie\\charlie\\stimuli\\visual\\face_memory_delay\\tar17.bmp'
g24
g24
I1800
tp49
a(g18
g19
g20
I27
S'c:\\Charlie\\charlie\\stimuli\\visual\\face_memory_delay\\ddis15.bmp'
g21
g21
I1270
tp50
a(g18
g19
g20
I28
S'c:\\Charlie\\charlie\\stimuli\\visual\\face_memory_delay\\tar03.bmp'
g24
g24
I1040
tp51
a(g18
g19
g20
I29
S'c:\\Charlie\\charlie\\stimuli\\visual\\face_memory_delay\\ddis19.bmp'
g21
g21
I1430
tp52
a(g18
g19
g20
I30
S'c:\\Charlie\\charlie\\stimuli\\visual\\face_memory_delay\\ddis12.bmp'
g21
g24
I910
tp53
a(g18
g19
g20
I31
S'c:\\Charlie\\charlie\\stimuli\\visual\\face_memory_delay\\tar16.bmp'
g24
g24
I881
tp54
a(g18
g19
g20
I32
S'c:\\Charlie\\charlie\\stimuli\\visual\\face_memory_delay\\tar09.bmp'
g24
g24
I1330
tp55
a(g18
g19
g20
I33
S'c:\\Charlie\\charlie\\stimuli\\visual\\face_memory_delay\\ddis09.bmp'
g21
g21
I1150
tp56
a(g18
g19
g20
I34
S'c:\\Charlie\\charlie\\stimuli\\visual\\face_memory_delay\\tar01.bmp'
g24
g21
I1340
tp57
a(g18
g19
g20
I35
S'c:\\Charlie\\charlie\\stimuli\\visual\\face_memory_delay\\ddis11.bmp'
g21
g24
I2180
tp58
a(g18
g19
g20
I36
S'c:\\Charlie\\charlie\\stimuli\\visual\\face_memory_delay\\ddis03.bmp'
g21
g21
I1610
tp59
a(g18
g19
g20
I37
S'c:\\Charlie\\charlie\\stimuli\\visual\\face_memory_delay\\tar04.bmp'
g24
g24
I1040
tp60
a(g18
g19
g20
I38
S'c:\\Charlie\\charlie\\stimuli\\visual\\face_memory_delay\\tar14.bmp'
g24
g24
I1040
tp61
a(g18
g19
g20
I39
S'c:\\Charlie\\charlie\\stimuli\\visual\\face_memory_delay\\ddis06.bmp'
p62
g21
g24
I1130
tp63
asS'output_format'
p64
(lp65
(S'proband_id'
p66
c__builtin__
str
p67
tp68
a(S'test_name'
p69
g67
tp70
a(S'phase'
p71
g67
tp72
a(S'trialn'
p73
c__builtin__
int
p74
tp75
a(S'f'
g67
tp76
a(S'ans'
p77
g67
tp78
a(S'rsp'
p79
g67
tp80
a(S'rt'
p81
g74
tp82
asg66
g18
sS'filename'
p83
S'4425_face_memory_delay.data'
p84
sS'initialised'
p85
g8
(S'\x07\xdf\x07\x16\r+2\x0b\xc3\xb8'
tRp86
sS'last_udated'
p87
g8
(S'\x07\xdf\x07\x16\r+2\x0b\xc3\xb8'
tRp88
sg69
S'face_memory_delay'
p89
sS'directory'
p90
S'c:\\Charlie\\charlie\\data\\raw'
p91
sS'user_id'
p92
S'sbuccheri'
p93
sS'test_started'
p94
I01
sS'abs_filename'
p95
S'c:\\Charlie\\charlie\\data\\raw\\4425_face_memory_delay.data'
p96
sS'date_started'
p97
g8
(S'\x07\xdf\x07\x16\r,\x0b\x05\x89\xf8'
tRp98
sS'log'
p99
(lp100
(S'2015-07-22 13:43:50.771000'
S'instance created'
p101
tp102
a(S'2015-07-22 13:44:11.380000'
S'instance updated'
p103
tp104
a(S'2015-07-22 13:44:11.388000'
S'pandas DataFrame of data created'
p105
tp106
a(S'2015-07-22 13:44:11.401000'
S'data saved as csv to c:\\Charlie\\charlie\\data\\csv\\4425_face_memory_delay.csv'
tp107
a(S'2015-07-22 13:44:12.986000'
g103
tp108
a(S'2015-07-22 13:44:12.994000'
g105
tp109
a(S'2015-07-22 13:44:12.998000'
S'data saved as csv to c:\\Charlie\\charlie\\data\\csv\\4425_face_memory_delay.csv'
tp110
a(S'2015-07-22 13:44:14.175000'
g103
tp111
a(S'2015-07-22 13:44:14.184000'
g105
tp112
a(S'2015-07-22 13:44:14.187000'
S'data saved as csv to c:\\Charlie\\charlie\\data\\csv\\4425_face_memory_delay.csv'
tp113
a(S'2015-07-22 13:44:15.302000'
g103
tp114
a(S'2015-07-22 13:44:15.311000'
g105
tp115
a(S'2015-07-22 13:44:15.315000'
S'data saved as csv to c:\\Charlie\\charlie\\data\\csv\\4425_face_memory_delay.csv'
tp116
a(S'2015-07-22 13:44:16.973000'
g103
tp117
a(S'2015-07-22 13:44:16.981000'
g105
tp118
a(S'2015-07-22 13:44:16.985000'
S'data saved as csv to c:\\Charlie\\charlie\\data\\csv\\4425_face_memory_delay.csv'
tp119
a(S'2015-07-22 13:44:18.392000'
g103
tp120
a(S'2015-07-22 13:44:18.401000'
g105
tp121
a(S'2015-07-22 13:44:18.404000'
S'data saved as csv to c:\\Charlie\\charlie\\data\\csv\\4425_face_memory_delay.csv'
tp122
a(S'2015-07-22 13:44:20.121000'
g103
tp123
a(S'2015-07-22 13:44:20.130000'
g105
tp124
a(S'2015-07-22 13:44:20.133000'
S'data saved as csv to c:\\Charlie\\charlie\\data\\csv\\4425_face_memory_delay.csv'
tp125
a(S'2015-07-22 13:44:21.170000'
g103
tp126
a(S'2015-07-22 13:44:21.179000'
g105
tp127
a(S'2015-07-22 13:44:21.182000'
S'data saved as csv to c:\\Charlie\\charlie\\data\\csv\\4425_face_memory_delay.csv'
tp128
a(S'2015-07-22 13:44:22.250000'
g103
tp129
a(S'2015-07-22 13:44:22.259000'
g105
tp130
a(S'2015-07-22 13:44:22.263000'
S'data saved as csv to c:\\Charlie\\charlie\\data\\csv\\4425_face_memory_delay.csv'
tp131
a(S'2015-07-22 13:44:23.640000'
g103
tp132
a(S'2015-07-22 13:44:23.649000'
g105
tp133
a(S'2015-07-22 13:44:23.653000'
S'data saved as csv to c:\\Charlie\\charlie\\data\\csv\\4425_face_memory_delay.csv'
tp134
a(S'2015-07-22 13:44:24.961000'
g103
tp135
a(S'2015-07-22 13:44:24.969000'
g105
tp136
a(S'2015-07-22 13:44:24.973000'
S'data saved as csv to c:\\Charlie\\charlie\\data\\csv\\4425_face_memory_delay.csv'
tp137
a(S'2015-07-22 13:44:26.200000'
g103
tp138
a(S'2015-07-22 13:44:26.209000'
g105
tp139
a(S'2015-07-22 13:44:26.213000'
S'data saved as csv to c:\\Charlie\\charlie\\data\\csv\\4425_face_memory_delay.csv'
tp140
a(S'2015-07-22 13:44:27.199000'
g103
tp141
a(S'2015-07-22 13:44:27.208000'
g105
tp142
a(S'2015-07-22 13:44:27.212000'
S'data saved as csv to c:\\Charlie\\charlie\\data\\csv\\4425_face_memory_delay.csv'
tp143
a(S'2015-07-22 13:44:28.330000'
g103
tp144
a(S'2015-07-22 13:44:28.338000'
g105
tp145
a(S'2015-07-22 13:44:28.342000'
S'data saved as csv to c:\\Charlie\\charlie\\data\\csv\\4425_face_memory_delay.csv'
tp146
a(S'2015-07-22 13:44:30.100000'
g103
tp147
a(S'2015-07-22 13:44:30.109000'
g105
tp148
a(S'2015-07-22 13:44:30.112000'
S'data saved as csv to c:\\Charlie\\charlie\\data\\csv\\4425_face_memory_delay.csv'
tp149
a(S'2015-07-22 13:44:31.330000'
g103
tp150
a(S'2015-07-22 13:44:31.338000'
g105
tp151
a(S'2015-07-22 13:44:31.342000'
S'data saved as csv to c:\\Charlie\\charlie\\data\\csv\\4425_face_memory_delay.csv'
tp152
a(S'2015-07-22 13:44:32.430000'
g103
tp153
a(S'2015-07-22 13:44:32.438000'
g105
tp154
a(S'2015-07-22 13:44:32.442000'
S'data saved as csv to c:\\Charlie\\charlie\\data\\csv\\4425_face_memory_delay.csv'
tp155
a(S'2015-07-22 13:44:33.930000'
g103
tp156
a(S'2015-07-22 13:44:33.938000'
g105
tp157
a(S'2015-07-22 13:44:33.942000'
S'data saved as csv to c:\\Charlie\\charlie\\data\\csv\\4425_face_memory_delay.csv'
tp158
a(S'2015-07-22 13:44:35.900000'
g103
tp159
a(S'2015-07-22 13:44:35.908000'
g105
tp160
a(S'2015-07-22 13:44:35.912000'
S'data saved as csv to c:\\Charlie\\charlie\\data\\csv\\4425_face_memory_delay.csv'
tp161
a(S'2015-07-22 13:44:37.890000'
g103
tp162
a(S'2015-07-22 13:44:37.898000'
g105
tp163
a(S'2015-07-22 13:44:37.902000'
S'data saved as csv to c:\\Charlie\\charlie\\data\\csv\\4425_face_memory_delay.csv'
tp164
a(S'2015-07-22 13:44:39.320000'
g103
tp165
a(S'2015-07-22 13:44:39.329000'
g105
tp166
a(S'2015-07-22 13:44:39.333000'
S'data saved as csv to c:\\Charlie\\charlie\\data\\csv\\4425_face_memory_delay.csv'
tp167
a(S'2015-07-22 13:44:40.441000'
g103
tp168
a(S'2015-07-22 13:44:40.449000'
g105
tp169
a(S'2015-07-22 13:44:40.453000'
S'data saved as csv to c:\\Charlie\\charlie\\data\\csv\\4425_face_memory_delay.csv'
tp170
a(S'2015-07-22 13:44:41.712000'
g103
tp171
a(S'2015-07-22 13:44:41.721000'
g105
tp172
a(S'2015-07-22 13:44:41.725000'
S'data saved as csv to c:\\Charlie\\charlie\\data\\csv\\4425_face_memory_delay.csv'
tp173
a(S'2015-07-22 13:44:42.863000'
g103
tp174
a(S'2015-07-22 13:44:42.872000'
g105
tp175
a(S'2015-07-22 13:44:42.876000'
S'data saved as csv to c:\\Charlie\\charlie\\data\\csv\\4425_face_memory_delay.csv'
tp176
a(S'2015-07-22 13:44:43.845000'
g103
tp177
a(S'2015-07-22 13:44:43.854000'
g105
tp178
a(S'2015-07-22 13:44:43.858000'
S'data saved as csv to c:\\Charlie\\charlie\\data\\csv\\4425_face_memory_delay.csv'
tp179
a(S'2015-07-22 13:44:45.166000'
g103
tp180
a(S'2015-07-22 13:44:45.174000'
g105
tp181
a(S'2015-07-22 13:44:45.178000'
S'data saved as csv to c:\\Charlie\\charlie\\data\\csv\\4425_face_memory_delay.csv'
tp182
a(S'2015-07-22 13:44:47.107000'
g103
tp183
a(S'2015-07-22 13:44:47.116000'
g105
tp184
a(S'2015-07-22 13:44:47.120000'
S'data saved as csv to c:\\Charlie\\charlie\\data\\csv\\4425_face_memory_delay.csv'
tp185
a(S'2015-07-22 13:44:48.519000'
g103
tp186
a(S'2015-07-22 13:44:48.528000'
g105
tp187
a(S'2015-07-22 13:44:48.532000'
S'data saved as csv to c:\\Charlie\\charlie\\data\\csv\\4425_face_memory_delay.csv'
tp188
a(S'2015-07-22 13:44:49.699000'
g103
tp189
a(S'2015-07-22 13:44:49.708000'
g105
tp190
a(S'2015-07-22 13:44:49.712000'
S'data saved as csv to c:\\Charlie\\charlie\\data\\csv\\4425_face_memory_delay.csv'
tp191
a(S'2015-07-22 13:44:51.271000'
g103
tp192
a(S'2015-07-22 13:44:51.280000'
g105
tp193
a(S'2015-07-22 13:44:51.284000'
S'data saved as csv to c:\\Charlie\\charlie\\data\\csv\\4425_face_memory_delay.csv'
tp194
a(S'2015-07-22 13:44:52.322000'
g103
tp195
a(S'2015-07-22 13:44:52.331000'
g105
tp196
a(S'2015-07-22 13:44:52.335000'
S'data saved as csv to c:\\Charlie\\charlie\\data\\csv\\4425_face_memory_delay.csv'
tp197
a(S'2015-07-22 13:44:53.344000'
g103
tp198
a(S'2015-07-22 13:44:53.353000'
g105
tp199
a(S'2015-07-22 13:44:53.357000'
S'data saved as csv to c:\\Charlie\\charlie\\data\\csv\\4425_face_memory_delay.csv'
tp200
a(S'2015-07-22 13:44:54.815000'
g103
tp201
a(S'2015-07-22 13:44:54.824000'
g105
tp202
a(S'2015-07-22 13:44:54.828000'
S'data saved as csv to c:\\Charlie\\charlie\\data\\csv\\4425_face_memory_delay.csv'
tp203
a(S'2015-07-22 13:44:56.106000'
g103
tp204
a(S'2015-07-22 13:44:56.115000'
g105
tp205
a(S'2015-07-22 13:44:56.119000'
S'data saved as csv to c:\\Charlie\\charlie\\data\\csv\\4425_face_memory_delay.csv'
tp206
a(S'2015-07-22 13:44:57.587000'
g103
tp207
a(S'2015-07-22 13:44:57.596000'
g105
tp208
a(S'2015-07-22 13:44:57.600000'
S'data saved as csv to c:\\Charlie\\charlie\\data\\csv\\4425_face_memory_delay.csv'
tp209
a(S'2015-07-22 13:44:59.910000'
g103
tp210
a(S'2015-07-22 13:44:59.918000'
g105
tp211
a(S'2015-07-22 13:44:59.922000'
S'data saved as csv to c:\\Charlie\\charlie\\data\\csv\\4425_face_memory_delay.csv'
tp212
a(S'2015-07-22 13:45:01.660000'
g103
tp213
a(S'2015-07-22 13:45:01.669000'
g105
tp214
a(S'2015-07-22 13:45:01.673000'
S'data saved as csv to c:\\Charlie\\charlie\\data\\csv\\4425_face_memory_delay.csv'
tp215
a(S'2015-07-22 13:45:02.841000'
g103
tp216
a(S'2015-07-22 13:45:02.851000'
g105
tp217
a(S'2015-07-22 13:45:02.855000'
S'data saved as csv to c:\\Charlie\\charlie\\data\\csv\\4425_face_memory_delay.csv'
tp218
a(S'2015-07-22 13:45:04.023000'
g103
tp219
a(S'2015-07-22 13:45:04.032000'
g105
tp220
a(S'2015-07-22 13:45:04.036000'
S'data saved as csv to c:\\Charlie\\charlie\\data\\csv\\4425_face_memory_delay.csv'
tp221
a(S'2015-07-22 13:45:05.294000'
g103
tp222
a(S'2015-07-22 13:45:05.303000'
g105
tp223
a(S'2015-07-22 13:45:05.306000'
S'data saved as csv to c:\\Charlie\\charlie\\data\\csv\\4425_face_memory_delay.csv'
tp224
asb.