(icharlie.tools.data
Data
p1
(dp2
S'lang'
p3
S'EN'
p4
sS'control'
p5
(lp6
sS'last_updated'
p7
cdatetime
datetime
p8
(S'\x07\xdf\x07\x16\r4\x05\x05\x95\xb0'
tRp9
sS'last_opened'
p10
g8
(S'\x07\xdf\x07\x16\r-\x05\x0c\xb5\xe8'
tRp11
sS'proj_id'
p12
S'connectivity'
p13
sS'date_done'
p14
NsS'test_done'
p15
I01
sS'data'
p16
(lp17
(S'4425'
p18
S'scap'
p19
S'practice'
p20
I3
I0
S'Yes'
p21
S'c:\\Charlie\\charlie\\stimuli\\visual\\scap\\practice-1.BMP'
S'c:\\Charlie\\charlie\\stimuli\\visual\\scap\\practice-2.BMP'
S'No'
p22
I3410
tp23
a(g18
g19
g20
I4
I1
g22
S'c:\\Charlie\\charlie\\stimuli\\visual\\scap\\practice-3.BMP'
S'c:\\Charlie\\charlie\\stimuli\\visual\\scap\\practice-4.BMP'
g21
I1650
tp24
a(g18
g19
g20
I5
I2
g21
S'c:\\Charlie\\charlie\\stimuli\\visual\\scap\\practice-5.BMP'
S'c:\\Charlie\\charlie\\stimuli\\visual\\scap\\practice-6.BMP'
g22
I1920
tp25
a(g18
g19
S'test'
p26
I3
I0
g21
S'c:\\Charlie\\charlie\\stimuli\\visual\\scap\\load3-1.BMP'
S'c:\\Charlie\\charlie\\stimuli\\visual\\scap\\load3-2.BMP'
g21
I1760
tp27
a(g18
g19
g26
I3
I1
g22
S'c:\\Charlie\\charlie\\stimuli\\visual\\scap\\load3-3.BMP'
S'c:\\Charlie\\charlie\\stimuli\\visual\\scap\\load3-4.BMP'
g22
I1310
tp28
a(g18
g19
g26
I3
I2
g21
S'c:\\Charlie\\charlie\\stimuli\\visual\\scap\\load3-5.BMP'
S'c:\\Charlie\\charlie\\stimuli\\visual\\scap\\load3-6.BMP'
g21
I1190
tp29
a(g18
g19
g26
I3
I3
g21
S'c:\\Charlie\\charlie\\stimuli\\visual\\scap\\load3-7.BMP'
S'c:\\Charlie\\charlie\\stimuli\\visual\\scap\\load3-8.BMP'
g21
I1520
tp30
a(g18
g19
g26
I3
I4
g22
S'c:\\Charlie\\charlie\\stimuli\\visual\\scap\\load3-9.BMP'
S'c:\\Charlie\\charlie\\stimuli\\visual\\scap\\load3-10.BMP'
g22
I1400
tp31
a(g18
g19
g26
I3
I5
g21
S'c:\\Charlie\\charlie\\stimuli\\visual\\scap\\load3-11.BMP'
S'c:\\Charlie\\charlie\\stimuli\\visual\\scap\\load3-12.BMP'
g21
I1481
tp32
a(g18
g19
g26
I3
I6
g22
S'c:\\Charlie\\charlie\\stimuli\\visual\\scap\\load3-13.BMP'
S'c:\\Charlie\\charlie\\stimuli\\visual\\scap\\load3-14.BMP'
g22
I1720
tp33
a(g18
g19
g26
I3
I7
g22
S'c:\\Charlie\\charlie\\stimuli\\visual\\scap\\load3-15.BMP'
S'c:\\Charlie\\charlie\\stimuli\\visual\\scap\\load3-16.BMP'
g22
I1270
tp34
a(g18
g19
g26
I3
I8
g21
S'c:\\Charlie\\charlie\\stimuli\\visual\\scap\\load3-17.BMP'
S'c:\\Charlie\\charlie\\stimuli\\visual\\scap\\load3-18.BMP'
g21
I1330
tp35
a(g18
g19
g26
I3
I9
g22
S'c:\\Charlie\\charlie\\stimuli\\visual\\scap\\load3-19.BMP'
S'c:\\Charlie\\charlie\\stimuli\\visual\\scap\\load3-20.BMP'
g22
I1540
tp36
a(g18
g19
g26
I3
I10
g21
S'c:\\Charlie\\charlie\\stimuli\\visual\\scap\\load3-21.BMP'
S'c:\\Charlie\\charlie\\stimuli\\visual\\scap\\load3-22.BMP'
g21
I1370
tp37
a(g18
g19
g26
I3
I11
g21
S'c:\\Charlie\\charlie\\stimuli\\visual\\scap\\load3-23.BMP'
S'c:\\Charlie\\charlie\\stimuli\\visual\\scap\\load3-24.BMP'
g21
I1250
tp38
a(g18
g19
g26
I3
I12
g22
S'c:\\Charlie\\charlie\\stimuli\\visual\\scap\\load3-25.BMP'
S'c:\\Charlie\\charlie\\stimuli\\visual\\scap\\load3-26.BMP'
g22
I1231
tp39
a(g18
g19
g26
I3
I13
g22
S'c:\\Charlie\\charlie\\stimuli\\visual\\scap\\load3-27.BMP'
S'c:\\Charlie\\charlie\\stimuli\\visual\\scap\\load3-28.BMP'
g22
I1140
tp40
a(g18
g19
g26
I4
I0
g22
S'c:\\Charlie\\charlie\\stimuli\\visual\\scap\\load4-1.BMP'
S'c:\\Charlie\\charlie\\stimuli\\visual\\scap\\load4-2.BMP'
g22
I1350
tp41
a(g18
g19
g26
I4
I1
g21
S'c:\\Charlie\\charlie\\stimuli\\visual\\scap\\load4-3.BMP'
S'c:\\Charlie\\charlie\\stimuli\\visual\\scap\\load4-4.BMP'
g21
I1370
tp42
a(g18
g19
g26
I4
I2
g21
S'c:\\Charlie\\charlie\\stimuli\\visual\\scap\\load4-5.BMP'
S'c:\\Charlie\\charlie\\stimuli\\visual\\scap\\load4-6.BMP'
g21
I1250
tp43
a(g18
g19
g26
I4
I3
g22
S'c:\\Charlie\\charlie\\stimuli\\visual\\scap\\load4-7.BMP'
S'c:\\Charlie\\charlie\\stimuli\\visual\\scap\\load4-8.BMP'
g22
I1290
tp44
a(g18
g19
g26
I4
I4
g22
S'c:\\Charlie\\charlie\\stimuli\\visual\\scap\\load4-9.BMP'
S'c:\\Charlie\\charlie\\stimuli\\visual\\scap\\load4-10.BMP'
g22
I2300
tp45
a(g18
g19
g26
I4
I5
g21
S'c:\\Charlie\\charlie\\stimuli\\visual\\scap\\load4-11.BMP'
S'c:\\Charlie\\charlie\\stimuli\\visual\\scap\\load4-12.BMP'
g21
I1230
tp46
a(g18
g19
g26
I4
I6
g22
S'c:\\Charlie\\charlie\\stimuli\\visual\\scap\\load4-13.BMP'
S'c:\\Charlie\\charlie\\stimuli\\visual\\scap\\load4-14.BMP'
g22
I1150
tp47
a(g18
g19
g26
I4
I7
g21
S'c:\\Charlie\\charlie\\stimuli\\visual\\scap\\load4-15.BMP'
S'c:\\Charlie\\charlie\\stimuli\\visual\\scap\\load4-16.BMP'
g21
I1360
tp48
a(g18
g19
g26
I4
I8
g22
S'c:\\Charlie\\charlie\\stimuli\\visual\\scap\\load4-17.BMP'
S'c:\\Charlie\\charlie\\stimuli\\visual\\scap\\load4-18.BMP'
g22
I1270
tp49
a(g18
g19
g26
I4
I9
g21
S'c:\\Charlie\\charlie\\stimuli\\visual\\scap\\load4-19.BMP'
S'c:\\Charlie\\charlie\\stimuli\\visual\\scap\\load4-20.BMP'
g21
I1200
tp50
a(g18
g19
g26
I4
I10
g21
S'c:\\Charlie\\charlie\\stimuli\\visual\\scap\\load4-21.BMP'
S'c:\\Charlie\\charlie\\stimuli\\visual\\scap\\load4-22.BMP'
g21
I1210
tp51
a(g18
g19
g26
I4
I11
g22
S'c:\\Charlie\\charlie\\stimuli\\visual\\scap\\load4-23.BMP'
S'c:\\Charlie\\charlie\\stimuli\\visual\\scap\\load4-24.BMP'
g22
I1970
tp52
a(g18
g19
g26
I4
I12
g21
S'c:\\Charlie\\charlie\\stimuli\\visual\\scap\\load4-25.BMP'
S'c:\\Charlie\\charlie\\stimuli\\visual\\scap\\load4-26.BMP'
g21
I1060
tp53
a(g18
g19
g26
I4
I13
g22
S'c:\\Charlie\\charlie\\stimuli\\visual\\scap\\load4-27.BMP'
S'c:\\Charlie\\charlie\\stimuli\\visual\\scap\\load4-28.BMP'
g21
I2020
tp54
a(g18
g19
g26
I5
I0
g21
S'c:\\Charlie\\charlie\\stimuli\\visual\\scap\\load5-1.BMP'
S'c:\\Charlie\\charlie\\stimuli\\visual\\scap\\load5-2.BMP'
g21
I1080
tp55
a(g18
g19
g26
I5
I1
g21
S'c:\\Charlie\\charlie\\stimuli\\visual\\scap\\load5-3.BMP'
S'c:\\Charlie\\charlie\\stimuli\\visual\\scap\\load5-4.BMP'
g21
I1540
tp56
a(g18
g19
g26
I5
I2
g21
S'c:\\Charlie\\charlie\\stimuli\\visual\\scap\\load5-5.BMP'
S'c:\\Charlie\\charlie\\stimuli\\visual\\scap\\load5-6.BMP'
g21
I1120
tp57
a(g18
g19
g26
I5
I3
g21
S'c:\\Charlie\\charlie\\stimuli\\visual\\scap\\load5-7.BMP'
S'c:\\Charlie\\charlie\\stimuli\\visual\\scap\\load5-8.BMP'
g21
I1120
tp58
a(g18
g19
g26
I5
I4
g21
S'c:\\Charlie\\charlie\\stimuli\\visual\\scap\\load5-9.BMP'
S'c:\\Charlie\\charlie\\stimuli\\visual\\scap\\load5-10.BMP'
g21
I1140
tp59
a(g18
g19
g26
I5
I5
g21
S'c:\\Charlie\\charlie\\stimuli\\visual\\scap\\load5-11.BMP'
S'c:\\Charlie\\charlie\\stimuli\\visual\\scap\\load5-12.BMP'
g21
I1261
tp60
a(g18
g19
g26
I5
I6
g22
S'c:\\Charlie\\charlie\\stimuli\\visual\\scap\\load5-13.BMP'
S'c:\\Charlie\\charlie\\stimuli\\visual\\scap\\load5-14.BMP'
g22
I1940
tp61
a(g18
g19
g26
I5
I7
g22
S'c:\\Charlie\\charlie\\stimuli\\visual\\scap\\load5-15.BMP'
S'c:\\Charlie\\charlie\\stimuli\\visual\\scap\\load5-16.BMP'
g22
I1950
tp62
a(g18
g19
g26
I5
I8
g22
S'c:\\Charlie\\charlie\\stimuli\\visual\\scap\\load5-17.BMP'
S'c:\\Charlie\\charlie\\stimuli\\visual\\scap\\load5-18.BMP'
g21
I1300
tp63
a(g18
g19
g26
I5
I9
g22
S'c:\\Charlie\\charlie\\stimuli\\visual\\scap\\load5-19.BMP'
S'c:\\Charlie\\charlie\\stimuli\\visual\\scap\\load5-20.BMP'
g22
I1630
tp64
a(g18
g19
g26
I5
I10
g22
S'c:\\Charlie\\charlie\\stimuli\\visual\\scap\\load5-21.BMP'
S'c:\\Charlie\\charlie\\stimuli\\visual\\scap\\load5-22.BMP'
g21
I1670
tp65
a(g18
g19
g26
I5
I11
g21
S'c:\\Charlie\\charlie\\stimuli\\visual\\scap\\load5-23.BMP'
S'c:\\Charlie\\charlie\\stimuli\\visual\\scap\\load5-24.BMP'
g21
I2000
tp66
a(g18
g19
g26
I5
I12
g22
S'c:\\Charlie\\charlie\\stimuli\\visual\\scap\\load5-25.BMP'
S'c:\\Charlie\\charlie\\stimuli\\visual\\scap\\load5-26.BMP'
g21
I1690
tp67
a(g18
g19
g26
I5
I13
g22
S'c:\\Charlie\\charlie\\stimuli\\visual\\scap\\load5-27.BMP'
p68
S'c:\\Charlie\\charlie\\stimuli\\visual\\scap\\load5-28.BMP'
p69
g21
I2630
tp70
asS'output_format'
p71
(lp72
(S'proband_id'
p73
c__builtin__
str
p74
tp75
a(S'test_name'
p76
g74
tp77
a(S'phase'
p78
g74
tp79
a(S'load'
p80
c__builtin__
int
p81
tp82
a(S'trialn'
p83
g81
tp84
a(S'ans'
p85
g74
tp86
a(S'array_f'
p87
g74
tp88
a(S'probe_f'
p89
g74
tp90
a(S'rsp'
p91
g74
tp92
a(S'rt'
p93
g81
tp94
asg73
g18
sS'filename'
p95
S'4425_scap.data'
p96
sS'initialised'
p97
g8
(S'\x07\xdf\x07\x16\r-\x05\x0c\xb5\xe8'
tRp98
sS'last_udated'
p99
g8
(S'\x07\xdf\x07\x16\r-\x05\x0c\xb5\xe8'
tRp100
sg76
S'scap'
p101
sS'directory'
p102
S'c:\\Charlie\\charlie\\data\\raw'
p103
sS'user_id'
p104
S'sbuccheri'
p105
sS'test_started'
p106
I01
sS'abs_filename'
p107
S'c:\\Charlie\\charlie\\data\\raw\\4425_scap.data'
p108
sS'date_started'
p109
g8
(S'\x07\xdf\x07\x16\r-%\x03\xbd\x08'
tRp110
sS'log'
p111
(lp112
(S'2015-07-22 13:45:05.833000'
S'instance created'
p113
tp114
a(S'2015-07-22 13:45:37.261000'
S'instance updated'
p115
tp116
a(S'2015-07-22 13:45:37.271000'
S'pandas DataFrame of data created'
p117
tp118
a(S'2015-07-22 13:45:37.282000'
S'data saved as csv to c:\\Charlie\\charlie\\data\\csv\\4425_scap.csv'
tp119
a(S'2015-07-22 13:45:45.971000'
g115
tp120
a(S'2015-07-22 13:45:45.981000'
g117
tp121
a(S'2015-07-22 13:45:45.984000'
S'data saved as csv to c:\\Charlie\\charlie\\data\\csv\\4425_scap.csv'
tp122
a(S'2015-07-22 13:45:54.939000'
g115
tp123
a(S'2015-07-22 13:45:54.949000'
g117
tp124
a(S'2015-07-22 13:45:54.952000'
S'data saved as csv to c:\\Charlie\\charlie\\data\\csv\\4425_scap.csv'
tp125
a(S'2015-07-22 13:46:53.337000'
g115
tp126
a(S'2015-07-22 13:46:53.348000'
g117
tp127
a(S'2015-07-22 13:46:53.352000'
S'data saved as csv to c:\\Charlie\\charlie\\data\\csv\\4425_scap.csv'
tp128
a(S'2015-07-22 13:47:00.798000'
g115
tp129
a(S'2015-07-22 13:47:00.808000'
g117
tp130
a(S'2015-07-22 13:47:00.812000'
S'data saved as csv to c:\\Charlie\\charlie\\data\\csv\\4425_scap.csv'
tp131
a(S'2015-07-22 13:47:08.138000'
g115
tp132
a(S'2015-07-22 13:47:08.148000'
g117
tp133
a(S'2015-07-22 13:47:08.152000'
S'data saved as csv to c:\\Charlie\\charlie\\data\\csv\\4425_scap.csv'
tp134
a(S'2015-07-22 13:47:15.808000'
g115
tp135
a(S'2015-07-22 13:47:15.818000'
g117
tp136
a(S'2015-07-22 13:47:15.822000'
S'data saved as csv to c:\\Charlie\\charlie\\data\\csv\\4425_scap.csv'
tp137
a(S'2015-07-22 13:47:23.358000'
g115
tp138
a(S'2015-07-22 13:47:23.368000'
g117
tp139
a(S'2015-07-22 13:47:23.372000'
S'data saved as csv to c:\\Charlie\\charlie\\data\\csv\\4425_scap.csv'
tp140
a(S'2015-07-22 13:47:30.982000'
g115
tp141
a(S'2015-07-22 13:47:30.988000'
g117
tp142
a(S'2015-07-22 13:47:30.990000'
S'data saved as csv to c:\\Charlie\\charlie\\data\\csv\\4425_scap.csv'
tp143
a(S'2015-07-22 13:47:38.845000'
g115
tp144
a(S'2015-07-22 13:47:38.855000'
g117
tp145
a(S'2015-07-22 13:47:38.859000'
S'data saved as csv to c:\\Charlie\\charlie\\data\\csv\\4425_scap.csv'
tp146
a(S'2015-07-22 13:47:46.266000'
g115
tp147
a(S'2015-07-22 13:47:46.277000'
g117
tp148
a(S'2015-07-22 13:47:46.281000'
S'data saved as csv to c:\\Charlie\\charlie\\data\\csv\\4425_scap.csv'
tp149
a(S'2015-07-22 13:47:53.748000'
g115
tp150
a(S'2015-07-22 13:47:53.758000'
g117
tp151
a(S'2015-07-22 13:47:53.762000'
S'data saved as csv to c:\\Charlie\\charlie\\data\\csv\\4425_scap.csv'
tp152
a(S'2015-07-22 13:48:01.439000'
g115
tp153
a(S'2015-07-22 13:48:01.450000'
g117
tp154
a(S'2015-07-22 13:48:01.454000'
S'data saved as csv to c:\\Charlie\\charlie\\data\\csv\\4425_scap.csv'
tp155
a(S'2015-07-22 13:48:08.959000'
g115
tp156
a(S'2015-07-22 13:48:08.970000'
g117
tp157
a(S'2015-07-22 13:48:08.974000'
S'data saved as csv to c:\\Charlie\\charlie\\data\\csv\\4425_scap.csv'
tp158
a(S'2015-07-22 13:48:16.360000'
g115
tp159
a(S'2015-07-22 13:48:16.371000'
g117
tp160
a(S'2015-07-22 13:48:16.375000'
S'data saved as csv to c:\\Charlie\\charlie\\data\\csv\\4425_scap.csv'
tp161
a(S'2015-07-22 13:48:23.741000'
g115
tp162
a(S'2015-07-22 13:48:23.751000'
g117
tp163
a(S'2015-07-22 13:48:23.755000'
S'data saved as csv to c:\\Charlie\\charlie\\data\\csv\\4425_scap.csv'
tp164
a(S'2015-07-22 13:48:31.032000'
g115
tp165
a(S'2015-07-22 13:48:31.043000'
g117
tp166
a(S'2015-07-22 13:48:31.047000'
S'data saved as csv to c:\\Charlie\\charlie\\data\\csv\\4425_scap.csv'
tp167
a(S'2015-07-22 13:48:38.534000'
g115
tp168
a(S'2015-07-22 13:48:38.545000'
g117
tp169
a(S'2015-07-22 13:48:38.549000'
S'data saved as csv to c:\\Charlie\\charlie\\data\\csv\\4425_scap.csv'
tp170
a(S'2015-07-22 13:48:46.055000'
g115
tp171
a(S'2015-07-22 13:48:46.066000'
g117
tp172
a(S'2015-07-22 13:48:46.070000'
S'data saved as csv to c:\\Charlie\\charlie\\data\\csv\\4425_scap.csv'
tp173
a(S'2015-07-22 13:48:53.457000'
g115
tp174
a(S'2015-07-22 13:48:53.468000'
g117
tp175
a(S'2015-07-22 13:48:53.472000'
S'data saved as csv to c:\\Charlie\\charlie\\data\\csv\\4425_scap.csv'
tp176
a(S'2015-07-22 13:49:00.898000'
g115
tp177
a(S'2015-07-22 13:49:00.909000'
g117
tp178
a(S'2015-07-22 13:49:00.912000'
S'data saved as csv to c:\\Charlie\\charlie\\data\\csv\\4425_scap.csv'
tp179
a(S'2015-07-22 13:49:09.347000'
g115
tp180
a(S'2015-07-22 13:49:09.358000'
g117
tp181
a(S'2015-07-22 13:49:09.362000'
S'data saved as csv to c:\\Charlie\\charlie\\data\\csv\\4425_scap.csv'
tp182
a(S'2015-07-22 13:49:16.729000'
g115
tp183
a(S'2015-07-22 13:49:16.740000'
g117
tp184
a(S'2015-07-22 13:49:16.744000'
S'data saved as csv to c:\\Charlie\\charlie\\data\\csv\\4425_scap.csv'
tp185
a(S'2015-07-22 13:49:24.030000'
g115
tp186
a(S'2015-07-22 13:49:24.041000'
g117
tp187
a(S'2015-07-22 13:49:24.043000'
S'data saved as csv to c:\\Charlie\\charlie\\data\\csv\\4425_scap.csv'
tp188
a(S'2015-07-22 13:49:31.538000'
g115
tp189
a(S'2015-07-22 13:49:31.550000'
g117
tp190
a(S'2015-07-22 13:49:31.554000'
S'data saved as csv to c:\\Charlie\\charlie\\data\\csv\\4425_scap.csv'
tp191
a(S'2015-07-22 13:49:38.960000'
g115
tp192
a(S'2015-07-22 13:49:38.972000'
g117
tp193
a(S'2015-07-22 13:49:38.976000'
S'data saved as csv to c:\\Charlie\\charlie\\data\\csv\\4425_scap.csv'
tp194
a(S'2015-07-22 13:49:46.312000'
g115
tp195
a(S'2015-07-22 13:49:46.323000'
g117
tp196
a(S'2015-07-22 13:49:46.327000'
S'data saved as csv to c:\\Charlie\\charlie\\data\\csv\\4425_scap.csv'
tp197
a(S'2015-07-22 13:49:53.672000'
g115
tp198
a(S'2015-07-22 13:49:53.683000'
g117
tp199
a(S'2015-07-22 13:49:53.687000'
S'data saved as csv to c:\\Charlie\\charlie\\data\\csv\\4425_scap.csv'
tp200
a(S'2015-07-22 13:50:01.794000'
g115
tp201
a(S'2015-07-22 13:50:01.805000'
g117
tp202
a(S'2015-07-22 13:50:01.809000'
S'data saved as csv to c:\\Charlie\\charlie\\data\\csv\\4425_scap.csv'
tp203
a(S'2015-07-22 13:50:09.005000'
g115
tp204
a(S'2015-07-22 13:50:09.016000'
g117
tp205
a(S'2015-07-22 13:50:09.020000'
S'data saved as csv to c:\\Charlie\\charlie\\data\\csv\\4425_scap.csv'
tp206
a(S'2015-07-22 13:50:17.178000'
g115
tp207
a(S'2015-07-22 13:50:17.188000'
g117
tp208
a(S'2015-07-22 13:50:17.192000'
S'data saved as csv to c:\\Charlie\\charlie\\data\\csv\\4425_scap.csv'
tp209
a(S'2015-07-22 13:50:24.410000'
g115
tp210
a(S'2015-07-22 13:50:24.421000'
g117
tp211
a(S'2015-07-22 13:50:24.425000'
S'data saved as csv to c:\\Charlie\\charlie\\data\\csv\\4425_scap.csv'
tp212
a(S'2015-07-22 13:50:32.100000'
g115
tp213
a(S'2015-07-22 13:50:32.112000'
g117
tp214
a(S'2015-07-22 13:50:32.116000'
S'data saved as csv to c:\\Charlie\\charlie\\data\\csv\\4425_scap.csv'
tp215
a(S'2015-07-22 13:50:39.373000'
g115
tp216
a(S'2015-07-22 13:50:39.384000'
g117
tp217
a(S'2015-07-22 13:50:39.388000'
S'data saved as csv to c:\\Charlie\\charlie\\data\\csv\\4425_scap.csv'
tp218
a(S'2015-07-22 13:50:46.646000'
g115
tp219
a(S'2015-07-22 13:50:46.656000'
g117
tp220
a(S'2015-07-22 13:50:46.658000'
S'data saved as csv to c:\\Charlie\\charlie\\data\\csv\\4425_scap.csv'
tp221
a(S'2015-07-22 13:50:53.933000'
g115
tp222
a(S'2015-07-22 13:50:53.944000'
g117
tp223
a(S'2015-07-22 13:50:53.946000'
S'data saved as csv to c:\\Charlie\\charlie\\data\\csv\\4425_scap.csv'
tp224
a(S'2015-07-22 13:51:01.341000'
g115
tp225
a(S'2015-07-22 13:51:01.352000'
g117
tp226
a(S'2015-07-22 13:51:01.354000'
S'data saved as csv to c:\\Charlie\\charlie\\data\\csv\\4425_scap.csv'
tp227
a(S'2015-07-22 13:51:09.430000'
g115
tp228
a(S'2015-07-22 13:51:09.441000'
g117
tp229
a(S'2015-07-22 13:51:09.445000'
S'data saved as csv to c:\\Charlie\\charlie\\data\\csv\\4425_scap.csv'
tp230
a(S'2015-07-22 13:51:17.532000'
g115
tp231
a(S'2015-07-22 13:51:17.544000'
g117
tp232
a(S'2015-07-22 13:51:17.548000'
S'data saved as csv to c:\\Charlie\\charlie\\data\\csv\\4425_scap.csv'
tp233
a(S'2015-07-22 13:51:24.983000'
g115
tp234
a(S'2015-07-22 13:51:24.994000'
g117
tp235
a(S'2015-07-22 13:51:24.999000'
S'data saved as csv to c:\\Charlie\\charlie\\data\\csv\\4425_scap.csv'
tp236
a(S'2015-07-22 13:51:32.763000'
g115
tp237
a(S'2015-07-22 13:51:32.771000'
g117
tp238
a(S'2015-07-22 13:51:32.774000'
S'data saved as csv to c:\\Charlie\\charlie\\data\\csv\\4425_scap.csv'
tp239
a(S'2015-07-22 13:51:40.579000'
g115
tp240
a(S'2015-07-22 13:51:40.590000'
g117
tp241
a(S'2015-07-22 13:51:40.595000'
S'data saved as csv to c:\\Charlie\\charlie\\data\\csv\\4425_scap.csv'
tp242
a(S'2015-07-22 13:51:48.732000'
g115
tp243
a(S'2015-07-22 13:51:48.744000'
g117
tp244
a(S'2015-07-22 13:51:48.746000'
S'data saved as csv to c:\\Charlie\\charlie\\data\\csv\\4425_scap.csv'
tp245
a(S'2015-07-22 13:51:56.571000'
g115
tp246
a(S'2015-07-22 13:51:56.583000'
g117
tp247
a(S'2015-07-22 13:51:56.587000'
S'data saved as csv to c:\\Charlie\\charlie\\data\\csv\\4425_scap.csv'
tp248
a(S'2015-07-22 13:52:05.353000'
g115
tp249
a(S'2015-07-22 13:52:05.363000'
g117
tp250
a(S'2015-07-22 13:52:05.366000'
S'data saved as csv to c:\\Charlie\\charlie\\data\\csv\\4425_scap.csv'
tp251
asb.