(icharlie.tools.data
Data
p1
(dp2
S'lang'
p3
S'EN'
p4
sS'control'
p5
(lp6
sS'last_updated'
p7
cdatetime
datetime
p8
(S'\x07\xdf\x07\x17\t5\x01\x00qH'
tRp9
sS'last_opened'
p10
g8
(S'\x07\xdf\x07\x17\t1\x15\x05\x10\xe0'
tRp11
sS'proj_id'
p12
S'connectivity'
p13
sS'date_done'
p14
NsS'test_done'
p15
I01
sS'data'
p16
(lp17
(S'4426'
p18
S'digit_symbol'
p19
S'practice'
p20
I0
I2
I2
S'Yes'
p21
S'C:\\Users\\oleach\\Charlie-master\\Charlie-master\\charlie\\stimuli\\visual\\digit_symbol\\sym2.bmp'
g21
I12831
tp22
a(g18
g19
g20
I1
I6
I6
g21
S'C:\\Users\\oleach\\Charlie-master\\Charlie-master\\charlie\\stimuli\\visual\\digit_symbol\\sym6.bmp'
g21
I9801
tp23
a(g18
g19
g20
I2
I8
I4
S'No'
p24
S'C:\\Users\\oleach\\Charlie-master\\Charlie-master\\charlie\\stimuli\\visual\\digit_symbol\\sym4.bmp'
g24
I3260
tp25
a(g18
g19
g20
I3
I4
I4
g21
S'C:\\Users\\oleach\\Charlie-master\\Charlie-master\\charlie\\stimuli\\visual\\digit_symbol\\sym4.bmp'
g21
I3570
tp26
a(g18
g19
g20
I4
I7
I7
g21
S'C:\\Users\\oleach\\Charlie-master\\Charlie-master\\charlie\\stimuli\\visual\\digit_symbol\\sym7.bmp'
g24
I3241
tp27
a(g18
g19
g20
I5
I6
I5
g24
S'C:\\Users\\oleach\\Charlie-master\\Charlie-master\\charlie\\stimuli\\visual\\digit_symbol\\sym5.bmp'
g24
I7480
tp28
a(g18
g19
g20
I6
I2
I8
g24
S'C:\\Users\\oleach\\Charlie-master\\Charlie-master\\charlie\\stimuli\\visual\\digit_symbol\\sym8.bmp'
g24
I2450
tp29
a(g18
g19
g20
I7
I9
I2
g24
S'C:\\Users\\oleach\\Charlie-master\\Charlie-master\\charlie\\stimuli\\visual\\digit_symbol\\sym2.bmp'
g24
I3201
tp30
a(g18
g19
g20
I8
I3
I7
g24
S'C:\\Users\\oleach\\Charlie-master\\Charlie-master\\charlie\\stimuli\\visual\\digit_symbol\\sym7.bmp'
g24
I2720
tp31
a(g18
g19
g20
I9
I5
I6
g24
S'C:\\Users\\oleach\\Charlie-master\\Charlie-master\\charlie\\stimuli\\visual\\digit_symbol\\sym6.bmp'
g24
I2130
tp32
a(g18
g19
S'test'
p33
I0
I8
I8
g21
S'C:\\Users\\oleach\\Charlie-master\\Charlie-master\\charlie\\stimuli\\visual\\digit_symbol\\sym8.bmp'
g21
I3806
tp34
a(g18
g19
g33
I1
I1
I4
g24
S'C:\\Users\\oleach\\Charlie-master\\Charlie-master\\charlie\\stimuli\\visual\\digit_symbol\\sym4.bmp'
g24
I2603
tp35
a(g18
g19
g33
I2
I2
I8
g24
S'C:\\Users\\oleach\\Charlie-master\\Charlie-master\\charlie\\stimuli\\visual\\digit_symbol\\sym8.bmp'
g24
I2404
tp36
a(g18
g19
g33
I3
I6
I2
g24
S'C:\\Users\\oleach\\Charlie-master\\Charlie-master\\charlie\\stimuli\\visual\\digit_symbol\\sym2.bmp'
g24
I3003
tp37
a(g18
g19
g33
I4
I4
I4
g21
S'C:\\Users\\oleach\\Charlie-master\\Charlie-master\\charlie\\stimuli\\visual\\digit_symbol\\sym4.bmp'
g21
I2803
tp38
a(g18
g19
g33
I5
I9
I5
g24
S'C:\\Users\\oleach\\Charlie-master\\Charlie-master\\charlie\\stimuli\\visual\\digit_symbol\\sym5.bmp'
g24
I3003
tp39
a(g18
g19
g33
I6
I5
I6
g24
S'C:\\Users\\oleach\\Charlie-master\\Charlie-master\\charlie\\stimuli\\visual\\digit_symbol\\sym6.bmp'
g24
I2503
tp40
a(g18
g19
g33
I7
I3
I3
g21
S'C:\\Users\\oleach\\Charlie-master\\Charlie-master\\charlie\\stimuli\\visual\\digit_symbol\\sym3.bmp'
g21
I3203
tp41
a(g18
g19
g33
I8
I4
I4
g21
S'C:\\Users\\oleach\\Charlie-master\\Charlie-master\\charlie\\stimuli\\visual\\digit_symbol\\sym4.bmp'
g21
I2304
tp42
a(g18
g19
g33
I9
I9
I9
g21
S'C:\\Users\\oleach\\Charlie-master\\Charlie-master\\charlie\\stimuli\\visual\\digit_symbol\\sym9.bmp'
g21
I3703
tp43
a(g18
g19
g33
I10
I6
I6
g21
S'C:\\Users\\oleach\\Charlie-master\\Charlie-master\\charlie\\stimuli\\visual\\digit_symbol\\sym6.bmp'
g21
I2403
tp44
a(g18
g19
g33
I11
I1
I1
g21
S'C:\\Users\\oleach\\Charlie-master\\Charlie-master\\charlie\\stimuli\\visual\\digit_symbol\\sym1.bmp'
g21
I1603
tp45
a(g18
g19
g33
I12
I2
I2
g21
S'C:\\Users\\oleach\\Charlie-master\\Charlie-master\\charlie\\stimuli\\visual\\digit_symbol\\sym2.bmp'
g21
I1703
tp46
a(g18
g19
g33
I13
I7
I7
g21
S'C:\\Users\\oleach\\Charlie-master\\Charlie-master\\charlie\\stimuli\\visual\\digit_symbol\\sym7.bmp'
g21
I2003
tp47
a(g18
g19
g33
I14
I3
I3
g21
S'C:\\Users\\oleach\\Charlie-master\\Charlie-master\\charlie\\stimuli\\visual\\digit_symbol\\sym3.bmp'
g24
I2003
tp48
a(g18
g19
g33
I15
I8
I8
g21
S'C:\\Users\\oleach\\Charlie-master\\Charlie-master\\charlie\\stimuli\\visual\\digit_symbol\\sym8.bmp'
g21
I3304
tp49
a(g18
g19
g33
I16
I7
I7
g21
S'C:\\Users\\oleach\\Charlie-master\\Charlie-master\\charlie\\stimuli\\visual\\digit_symbol\\sym7.bmp'
g21
I1803
tp50
a(g18
g19
g33
I17
I5
I3
g24
S'C:\\Users\\oleach\\Charlie-master\\Charlie-master\\charlie\\stimuli\\visual\\digit_symbol\\sym3.bmp'
g24
I2103
tp51
a(g18
g19
g33
I18
I1
I5
g24
S'C:\\Users\\oleach\\Charlie-master\\Charlie-master\\charlie\\stimuli\\visual\\digit_symbol\\sym5.bmp'
g24
I3503
tp52
a(g18
g19
g33
I19
I4
I4
g21
S'C:\\Users\\oleach\\Charlie-master\\Charlie-master\\charlie\\stimuli\\visual\\digit_symbol\\sym4.bmp'
g21
I2703
tp53
a(g18
g19
g33
I20
I7
I8
g24
S'C:\\Users\\oleach\\Charlie-master\\Charlie-master\\charlie\\stimuli\\visual\\digit_symbol\\sym8.bmp'
g24
I3803
tp54
a(g18
g19
g33
I21
I4
I4
g21
S'C:\\Users\\oleach\\Charlie-master\\Charlie-master\\charlie\\stimuli\\visual\\digit_symbol\\sym4.bmp'
g21
I3504
tp55
a(g18
g19
g33
I22
I8
I8
g21
S'C:\\Users\\oleach\\Charlie-master\\Charlie-master\\charlie\\stimuli\\visual\\digit_symbol\\sym8.bmp'
g21
I2703
tp56
a(g18
g19
g33
I23
I3
I3
g21
S'C:\\Users\\oleach\\Charlie-master\\Charlie-master\\charlie\\stimuli\\visual\\digit_symbol\\sym3.bmp'
g21
I2703
tp57
a(g18
g19
g33
I24
I5
I5
g21
S'C:\\Users\\oleach\\Charlie-master\\Charlie-master\\charlie\\stimuli\\visual\\digit_symbol\\sym5.bmp'
g21
I3803
tp58
a(g18
g19
g33
I25
I3
I1
g24
S'C:\\Users\\oleach\\Charlie-master\\Charlie-master\\charlie\\stimuli\\visual\\digit_symbol\\sym1.bmp'
g24
I2503
tp59
a(g18
g19
g33
I26
I6
I9
g24
S'C:\\Users\\oleach\\Charlie-master\\Charlie-master\\charlie\\stimuli\\visual\\digit_symbol\\sym9.bmp'
g24
I2003
tp60
a(g18
g19
g33
I27
I2
I2
g21
S'C:\\Users\\oleach\\Charlie-master\\Charlie-master\\charlie\\stimuli\\visual\\digit_symbol\\sym2.bmp'
g21
I2004
tp61
a(g18
g19
g33
I28
I8
I8
g21
S'C:\\Users\\oleach\\Charlie-master\\Charlie-master\\charlie\\stimuli\\visual\\digit_symbol\\sym8.bmp'
g21
I2903
tp62
a(g18
g19
g33
I29
I9
I2
g24
S'C:\\Users\\oleach\\Charlie-master\\Charlie-master\\charlie\\stimuli\\visual\\digit_symbol\\sym2.bmp'
g24
I2003
tp63
a(g18
g19
g33
I30
I1
I6
g24
S'C:\\Users\\oleach\\Charlie-master\\Charlie-master\\charlie\\stimuli\\visual\\digit_symbol\\sym6.bmp'
g24
I2703
tp64
a(g18
g19
g33
I31
I5
I4
g24
S'C:\\Users\\oleach\\Charlie-master\\Charlie-master\\charlie\\stimuli\\visual\\digit_symbol\\sym4.bmp'
g24
I2403
tp65
asS'output_format'
p66
(lp67
(S'proband_id'
p68
c__builtin__
str
p69
tp70
a(S'test_name'
p71
g69
tp72
a(S'phase'
p73
g69
tp74
a(S'trialn'
p75
c__builtin__
int
p76
tp77
a(S'digit'
p78
g76
tp79
a(S'symbol'
p80
g76
tp81
a(S'ans'
p82
g69
tp83
a(S'f'
g69
tp84
a(S'rsp'
p85
g69
tp86
a(S'rt'
p87
g76
tp88
asg68
g18
sS'filename'
p89
S'4426_digit_symbol.data'
p90
sS'initialised'
p91
g8
(S'\x07\xdf\x07\x17\t1\x15\x05\x10\xe0'
tRp92
sS'last_udated'
p93
g8
(S'\x07\xdf\x07\x17\t1\x15\x05\x10\xe0'
tRp94
sg71
S'digit_symbol'
p95
sS'directory'
p96
S'C:\\Users\\oleach\\Charlie-master\\Charlie-master\\charlie\\data\\raw'
p97
sS'user_id'
p98
S'oleach'
p99
sS'test_started'
p100
I01
sS'abs_filename'
p101
S'C:\\Users\\oleach\\Charlie-master\\Charlie-master\\charlie\\data\\raw\\4426_digit_symbol.data'
p102
sS'date_started'
p103
g8
(S'\x07\xdf\x07\x17\t2\x13\r6\xd0'
tRp104
sS'log'
p105
(lp106
(S'2015-07-23 09:49:21.332000'
S'instance created'
p107
tp108
a(S'2015-07-23 09:50:19.876000'
S'instance updated'
p109
tp110
a(S'2015-07-23 09:50:19.887000'
S'pandas DataFrame of data created'
p111
tp112
a(S'2015-07-23 09:50:19.891000'
S'data saved as csv to C:\\Users\\oleach\\Charlie-master\\Charlie-master\\charlie\\data\\csv\\4426_digit_symbol.csv'
tp113
a(S'2015-07-23 09:50:30.720000'
g109
tp114
a(S'2015-07-23 09:50:30.730000'
g111
tp115
a(S'2015-07-23 09:50:30.734000'
S'data saved as csv to C:\\Users\\oleach\\Charlie-master\\Charlie-master\\charlie\\data\\csv\\4426_digit_symbol.csv'
tp116
a(S'2015-07-23 09:50:39.092000'
g109
tp117
a(S'2015-07-23 09:50:39.101000'
g111
tp118
a(S'2015-07-23 09:50:39.105000'
S'data saved as csv to C:\\Users\\oleach\\Charlie-master\\Charlie-master\\charlie\\data\\csv\\4426_digit_symbol.csv'
tp119
a(S'2015-07-23 09:50:43.704000'
g109
tp120
a(S'2015-07-23 09:50:43.714000'
g111
tp121
a(S'2015-07-23 09:50:43.718000'
S'data saved as csv to C:\\Users\\oleach\\Charlie-master\\Charlie-master\\charlie\\data\\csv\\4426_digit_symbol.csv'
tp122
a(S'2015-07-23 09:50:47.994000'
g109
tp123
a(S'2015-07-23 09:50:48.005000'
g111
tp124
a(S'2015-07-23 09:50:48.013000'
S'data saved as csv to C:\\Users\\oleach\\Charlie-master\\Charlie-master\\charlie\\data\\csv\\4426_digit_symbol.csv'
tp125
a(S'2015-07-23 09:50:56.519000'
g109
tp126
a(S'2015-07-23 09:50:56.529000'
g111
tp127
a(S'2015-07-23 09:50:56.533000'
S'data saved as csv to C:\\Users\\oleach\\Charlie-master\\Charlie-master\\charlie\\data\\csv\\4426_digit_symbol.csv'
tp128
a(S'2015-07-23 09:51:00.011000'
g109
tp129
a(S'2015-07-23 09:51:00.021000'
g111
tp130
a(S'2015-07-23 09:51:00.024000'
S'data saved as csv to C:\\Users\\oleach\\Charlie-master\\Charlie-master\\charlie\\data\\csv\\4426_digit_symbol.csv'
tp131
a(S'2015-07-23 09:51:04.253000'
g109
tp132
a(S'2015-07-23 09:51:04.263000'
g111
tp133
a(S'2015-07-23 09:51:04.267000'
S'data saved as csv to C:\\Users\\oleach\\Charlie-master\\Charlie-master\\charlie\\data\\csv\\4426_digit_symbol.csv'
tp134
a(S'2015-07-23 09:51:08.014000'
g109
tp135
a(S'2015-07-23 09:51:08.024000'
g111
tp136
a(S'2015-07-23 09:51:08.028000'
S'data saved as csv to C:\\Users\\oleach\\Charlie-master\\Charlie-master\\charlie\\data\\csv\\4426_digit_symbol.csv'
tp137
a(S'2015-07-23 09:51:11.185000'
g109
tp138
a(S'2015-07-23 09:51:11.195000'
g111
tp139
a(S'2015-07-23 09:51:11.198000'
S'data saved as csv to C:\\Users\\oleach\\Charlie-master\\Charlie-master\\charlie\\data\\csv\\4426_digit_symbol.csv'
tp140
a(S'2015-07-23 09:53:01.011000'
g109
tp141
a(S'2015-07-23 09:53:01.021000'
g111
tp142
a(S'2015-07-23 09:53:01.026000'
S'data saved as csv to C:\\Users\\oleach\\Charlie-master\\Charlie-master\\charlie\\data\\csv\\4426_digit_symbol.csv'
tp143
asb.