(icharlie.tools.data
Data
p1
(dp2
S'lang'
p3
S'EN'
p4
sS'control'
p5
(lp6
sS'last_updated'
p7
cdatetime
datetime
p8
(S'\x07\xdf\x07\x18\r\x10\x07\x07\xb8\x90'
tRp9
sS'last_opened'
p10
g8
(S'\x07\xdf\x07\x18\r\x0c\r\r\xfe\x08'
tRp11
sS'proj_id'
p12
S'connectivity'
p13
sS'date_done'
p14
NsS'test_done'
p15
I01
sS'data'
p16
(lp17
(S'4427'
p18
S'stroop'
p19
S'practice'
p20
I0
S'n/a'
p21
S'C:\\Users\\Jbarrett\\Charlie\\charlie\\stimuli\\visual\\stroop\\prac_1.png'
S'Right'
p22
g22
I5011
tp23
a(g18
g19
g20
I1
g21
S'C:\\Users\\Jbarrett\\Charlie\\charlie\\stimuli\\visual\\stroop\\prac_2.png'
S'Left'
p24
g24
I2060
tp25
a(g18
g19
g20
I2
g21
S'C:\\Users\\Jbarrett\\Charlie\\charlie\\stimuli\\visual\\stroop\\prac_3.png'
g22
g22
I910
tp26
a(g18
g19
g20
I3
g21
S'C:\\Users\\Jbarrett\\Charlie\\charlie\\stimuli\\visual\\stroop\\prac_4.png'
g22
g22
I1030
tp27
a(g18
g19
S'test'
p28
I0
S'Incongruent'
p29
S'C:\\Users\\Jbarrett\\Charlie\\charlie\\stimuli\\visual\\stroop\\6-Incongruent.png'
g24
g24
I1921
tp30
a(g18
g19
g28
I1
S'Congruent'
p31
S'C:\\Users\\Jbarrett\\Charlie\\charlie\\stimuli\\visual\\stroop\\30-Congruent.png'
g24
g24
I1050
tp32
a(g18
g19
g28
I2
g31
S'C:\\Users\\Jbarrett\\Charlie\\charlie\\stimuli\\visual\\stroop\\3-Congruent.png'
g22
g22
I950
tp33
a(g18
g19
g28
I3
g29
S'C:\\Users\\Jbarrett\\Charlie\\charlie\\stimuli\\visual\\stroop\\23-Incongruent.png'
g24
g24
I940
tp34
a(g18
g19
g28
I4
g31
S'C:\\Users\\Jbarrett\\Charlie\\charlie\\stimuli\\visual\\stroop\\39-Congruent.png'
g24
g24
I1030
tp35
a(g18
g19
g28
I5
g31
S'C:\\Users\\Jbarrett\\Charlie\\charlie\\stimuli\\visual\\stroop\\45-Congruent.png'
g24
g24
I1410
tp36
a(g18
g19
g28
I6
g29
S'C:\\Users\\Jbarrett\\Charlie\\charlie\\stimuli\\visual\\stroop\\31-Incongruent.png'
g22
g24
I3610
tp37
a(g18
g19
g28
I7
g29
S'C:\\Users\\Jbarrett\\Charlie\\charlie\\stimuli\\visual\\stroop\\28-Incongruent.png'
g24
g22
I3780
tp38
a(g18
g19
g28
I8
g31
S'C:\\Users\\Jbarrett\\Charlie\\charlie\\stimuli\\visual\\stroop\\31-Congruent.png'
g24
g24
I1250
tp39
a(g18
g19
g28
I9
g31
S'C:\\Users\\Jbarrett\\Charlie\\charlie\\stimuli\\visual\\stroop\\10-Congruent.png'
g22
g22
I951
tp40
a(g18
g19
g28
I10
g29
S'C:\\Users\\Jbarrett\\Charlie\\charlie\\stimuli\\visual\\stroop\\10-Incongruent.png'
g24
g22
I960
tp41
a(g18
g19
g28
I11
g29
S'C:\\Users\\Jbarrett\\Charlie\\charlie\\stimuli\\visual\\stroop\\24-Incongruent.png'
g24
g24
I2330
tp42
a(g18
g19
g28
I12
g31
S'C:\\Users\\Jbarrett\\Charlie\\charlie\\stimuli\\visual\\stroop\\34-Congruent.png'
g24
g24
I1340
tp43
a(g18
g19
g28
I13
g31
S'C:\\Users\\Jbarrett\\Charlie\\charlie\\stimuli\\visual\\stroop\\38-Congruent.png'
g24
g24
I2130
tp44
a(g18
g19
g28
I14
g31
S'C:\\Users\\Jbarrett\\Charlie\\charlie\\stimuli\\visual\\stroop\\42-Congruent.png'
g24
g24
I1290
tp45
a(g18
g19
g28
I15
g31
S'C:\\Users\\Jbarrett\\Charlie\\charlie\\stimuli\\visual\\stroop\\17-Congruent.png'
g22
g22
I1510
tp46
a(g18
g19
g28
I16
g29
S'C:\\Users\\Jbarrett\\Charlie\\charlie\\stimuli\\visual\\stroop\\42-Incongruent.png'
g22
g22
I1990
tp47
a(g18
g19
g28
I17
g29
S'C:\\Users\\Jbarrett\\Charlie\\charlie\\stimuli\\visual\\stroop\\36-Incongruent.png'
g22
g22
I1240
tp48
a(g18
g19
g28
I18
g29
S'C:\\Users\\Jbarrett\\Charlie\\charlie\\stimuli\\visual\\stroop\\43-Incongruent.png'
g22
g24
I3671
tp49
a(g18
g19
g28
I19
g31
S'C:\\Users\\Jbarrett\\Charlie\\charlie\\stimuli\\visual\\stroop\\49-Congruent.png'
g24
g24
I890
tp50
a(g18
g19
g28
I20
g31
S'C:\\Users\\Jbarrett\\Charlie\\charlie\\stimuli\\visual\\stroop\\43-Congruent.png'
g24
g24
I1220
tp51
a(g18
g19
g28
I21
g29
S'C:\\Users\\Jbarrett\\Charlie\\charlie\\stimuli\\visual\\stroop\\15-Incongruent.png'
g24
g24
I7940
tp52
a(g18
g19
g28
I22
g29
S'C:\\Users\\Jbarrett\\Charlie\\charlie\\stimuli\\visual\\stroop\\35-Incongruent.png'
g22
g22
I1731
tp53
a(g18
g19
g28
I23
g29
S'C:\\Users\\Jbarrett\\Charlie\\charlie\\stimuli\\visual\\stroop\\44-Incongruent.png'
g22
g22
I5711
tp54
a(g18
g19
g28
I24
g29
S'C:\\Users\\Jbarrett\\Charlie\\charlie\\stimuli\\visual\\stroop\\47-Incongruent.png'
g22
g22
I1360
tp55
a(g18
g19
g28
I25
g29
S'C:\\Users\\Jbarrett\\Charlie\\charlie\\stimuli\\visual\\stroop\\40-Incongruent.png'
g22
g22
I1020
tp56
a(g18
g19
g28
I26
g29
S'C:\\Users\\Jbarrett\\Charlie\\charlie\\stimuli\\visual\\stroop\\25-Incongruent.png'
g24
g24
I2170
tp57
a(g18
g19
g28
I27
g29
S'C:\\Users\\Jbarrett\\Charlie\\charlie\\stimuli\\visual\\stroop\\27-Incongruent.png'
g24
g24
I1600
tp58
a(g18
g19
g28
I28
g29
S'C:\\Users\\Jbarrett\\Charlie\\charlie\\stimuli\\visual\\stroop\\56-Incongruent.png'
g22
g22
I1740
tp59
a(g18
g19
g28
I29
g31
S'C:\\Users\\Jbarrett\\Charlie\\charlie\\stimuli\\visual\\stroop\\2-Congruent.png'
g22
g22
I1030
tp60
a(g18
g19
g28
I30
g29
S'C:\\Users\\Jbarrett\\Charlie\\charlie\\stimuli\\visual\\stroop\\17-Incongruent.png'
g24
g24
I1190
tp61
a(g18
g19
g28
I31
g31
S'C:\\Users\\Jbarrett\\Charlie\\charlie\\stimuli\\visual\\stroop\\12-Congruent.png'
g22
g22
I1290
tp62
a(g18
g19
g28
I32
g29
S'C:\\Users\\Jbarrett\\Charlie\\charlie\\stimuli\\visual\\stroop\\12-Incongruent.png'
g24
g22
I2130
tp63
a(g18
g19
g28
I33
g29
S'C:\\Users\\Jbarrett\\Charlie\\charlie\\stimuli\\visual\\stroop\\26-Incongruent.png'
g24
g24
I2891
tp64
a(g18
g19
g28
I34
g31
S'C:\\Users\\Jbarrett\\Charlie\\charlie\\stimuli\\visual\\stroop\\19-Congruent.png'
g22
g22
I1410
tp65
a(g18
g19
g28
I35
g31
S'C:\\Users\\Jbarrett\\Charlie\\charlie\\stimuli\\visual\\stroop\\23-Congruent.png'
g22
g22
I1000
tp66
a(g18
g19
g28
I36
g31
S'C:\\Users\\Jbarrett\\Charlie\\charlie\\stimuli\\visual\\stroop\\35-Congruent.png'
g24
g24
I1640
tp67
a(g18
g19
g28
I37
g31
S'C:\\Users\\Jbarrett\\Charlie\\charlie\\stimuli\\visual\\stroop\\46-Congruent.png'
g24
g24
I1800
tp68
a(g18
g19
g28
I38
g29
S'C:\\Users\\Jbarrett\\Charlie\\charlie\\stimuli\\visual\\stroop\\8-Incongruent.png'
g24
g24
I1440
tp69
a(g18
g19
g28
I39
g31
S'C:\\Users\\Jbarrett\\Charlie\\charlie\\stimuli\\visual\\stroop\\29-Congruent.png'
g24
g24
I970
tp70
a(g18
g19
g28
I40
g31
S'C:\\Users\\Jbarrett\\Charlie\\charlie\\stimuli\\visual\\stroop\\14-Congruent.png'
g22
g22
I1050
tp71
a(g18
g19
g28
I41
g31
S'C:\\Users\\Jbarrett\\Charlie\\charlie\\stimuli\\visual\\stroop\\33-Congruent.png'
g24
g24
I1180
tp72
a(g18
g19
g28
I42
g29
S'C:\\Users\\Jbarrett\\Charlie\\charlie\\stimuli\\visual\\stroop\\13-Incongruent.png'
g24
g24
I1760
tp73
a(g18
g19
g28
I43
g29
S'C:\\Users\\Jbarrett\\Charlie\\charlie\\stimuli\\visual\\stroop\\55-Incongruent.png'
g22
g22
I940
tp74
a(g18
g19
g28
I44
g31
S'C:\\Users\\Jbarrett\\Charlie\\charlie\\stimuli\\visual\\stroop\\54-Congruent.png'
g24
g24
I960
tp75
a(g18
g19
g28
I45
g31
S'C:\\Users\\Jbarrett\\Charlie\\charlie\\stimuli\\visual\\stroop\\8-Congruent.png'
g22
g22
I1900
tp76
a(g18
g19
g28
I46
g31
S'C:\\Users\\Jbarrett\\Charlie\\charlie\\stimuli\\visual\\stroop\\13-Congruent.png'
g22
g22
I850
tp77
a(g18
g19
g28
I47
g31
S'C:\\Users\\Jbarrett\\Charlie\\charlie\\stimuli\\visual\\stroop\\40-Congruent.png'
g24
g24
I980
tp78
a(g18
g19
g28
I48
g29
S'C:\\Users\\Jbarrett\\Charlie\\charlie\\stimuli\\visual\\stroop\\9-Incongruent.png'
g24
g22
I1880
tp79
a(g18
g19
g28
I49
g31
S'C:\\Users\\Jbarrett\\Charlie\\charlie\\stimuli\\visual\\stroop\\50-Congruent.png'
g24
g24
I1000
tp80
a(g18
g19
g28
I50
g31
S'C:\\Users\\Jbarrett\\Charlie\\charlie\\stimuli\\visual\\stroop\\5-Congruent.png'
g22
g22
I1090
tp81
a(g18
g19
g28
I51
g29
S'C:\\Users\\Jbarrett\\Charlie\\charlie\\stimuli\\visual\\stroop\\5-Incongruent.png'
g24
g24
I1350
tp82
a(g18
g19
g28
I52
g29
S'C:\\Users\\Jbarrett\\Charlie\\charlie\\stimuli\\visual\\stroop\\53-Incongruent.png'
g22
g22
I2780
tp83
a(g18
g19
g28
I53
g29
S'C:\\Users\\Jbarrett\\Charlie\\charlie\\stimuli\\visual\\stroop\\1-Incongruent.png'
g24
g24
I1150
tp84
a(g18
g19
g28
I54
g31
S'C:\\Users\\Jbarrett\\Charlie\\charlie\\stimuli\\visual\\stroop\\28-Congruent.png'
g22
g22
I2280
tp85
a(g18
g19
g28
I55
g29
S'C:\\Users\\Jbarrett\\Charlie\\charlie\\stimuli\\visual\\stroop\\34-Incongruent.png'
g22
g22
I1171
tp86
a(g18
g19
g28
I56
g29
S'C:\\Users\\Jbarrett\\Charlie\\charlie\\stimuli\\visual\\stroop\\20-Incongruent.png'
g24
g24
I2070
tp87
a(g18
g19
g28
I57
g29
S'C:\\Users\\Jbarrett\\Charlie\\charlie\\stimuli\\visual\\stroop\\38-Incongruent.png'
g22
g22
I1150
tp88
a(g18
g19
g28
I58
g29
S'C:\\Users\\Jbarrett\\Charlie\\charlie\\stimuli\\visual\\stroop\\32-Incongruent.png'
g22
g22
I1880
tp89
a(g18
g19
g28
I59
g31
S'C:\\Users\\Jbarrett\\Charlie\\charlie\\stimuli\\visual\\stroop\\9-Congruent.png'
g22
g22
I1710
tp90
a(g18
g19
g28
I60
g31
S'C:\\Users\\Jbarrett\\Charlie\\charlie\\stimuli\\visual\\stroop\\55-Congruent.png'
g24
g24
I790
tp91
a(g18
g19
g28
I61
g29
S'C:\\Users\\Jbarrett\\Charlie\\charlie\\stimuli\\visual\\stroop\\33-Incongruent.png'
g22
g24
I1410
tp92
a(g18
g19
g28
I62
g29
S'C:\\Users\\Jbarrett\\Charlie\\charlie\\stimuli\\visual\\stroop\\49-Incongruent.png'
g22
g24
I1100
tp93
a(g18
g19
g28
I63
g31
S'C:\\Users\\Jbarrett\\Charlie\\charlie\\stimuli\\visual\\stroop\\4-Congruent.png'
g22
g22
I1190
tp94
a(g18
g19
g28
I64
g31
S'C:\\Users\\Jbarrett\\Charlie\\charlie\\stimuli\\visual\\stroop\\6-Congruent.png'
g22
g22
I3240
tp95
a(g18
g19
g28
I65
g31
S'C:\\Users\\Jbarrett\\Charlie\\charlie\\stimuli\\visual\\stroop\\48-Congruent.png'
g24
g24
I920
tp96
a(g18
g19
g28
I66
g31
S'C:\\Users\\Jbarrett\\Charlie\\charlie\\stimuli\\visual\\stroop\\52-Congruent.png'
g24
g24
I1581
tp97
a(g18
g19
g28
I67
g31
S'C:\\Users\\Jbarrett\\Charlie\\charlie\\stimuli\\visual\\stroop\\51-Congruent.png'
g24
g24
I1760
tp98
a(g18
g19
g28
I68
g31
S'C:\\Users\\Jbarrett\\Charlie\\charlie\\stimuli\\visual\\stroop\\16-Congruent.png'
g22
g22
I1210
tp99
a(g18
g19
g28
I69
g31
S'C:\\Users\\Jbarrett\\Charlie\\charlie\\stimuli\\visual\\stroop\\24-Congruent.png'
g22
g22
I1320
tp100
a(g18
g19
g28
I70
g29
S'C:\\Users\\Jbarrett\\Charlie\\charlie\\stimuli\\visual\\stroop\\41-Incongruent.png'
g22
g24
I1350
tp101
a(g18
g19
g28
I71
g29
S'C:\\Users\\Jbarrett\\Charlie\\charlie\\stimuli\\visual\\stroop\\48-Incongruent.png'
g22
g22
I1400
tp102
a(g18
g19
g28
I72
g29
S'C:\\Users\\Jbarrett\\Charlie\\charlie\\stimuli\\visual\\stroop\\4-Incongruent.png'
g24
g24
I1230
tp103
a(g18
g19
g28
I73
g29
S'C:\\Users\\Jbarrett\\Charlie\\charlie\\stimuli\\visual\\stroop\\54-Incongruent.png'
g22
g22
I1770
tp104
a(g18
g19
g28
I74
g29
S'C:\\Users\\Jbarrett\\Charlie\\charlie\\stimuli\\visual\\stroop\\39-Incongruent.png'
g22
g24
I1550
tp105
a(g18
g19
g28
I75
g31
S'C:\\Users\\Jbarrett\\Charlie\\charlie\\stimuli\\visual\\stroop\\56-Congruent.png'
g24
g22
I970
tp106
a(g18
g19
g28
I76
g29
S'C:\\Users\\Jbarrett\\Charlie\\charlie\\stimuli\\visual\\stroop\\46-Incongruent.png'
g22
g22
I1460
tp107
a(g18
g19
g28
I77
g31
S'C:\\Users\\Jbarrett\\Charlie\\charlie\\stimuli\\visual\\stroop\\22-Congruent.png'
g22
g22
I1171
tp108
a(g18
g19
g28
I78
g29
S'C:\\Users\\Jbarrett\\Charlie\\charlie\\stimuli\\visual\\stroop\\21-Incongruent.png'
g24
g24
I1600
tp109
a(g18
g19
g28
I79
g29
S'C:\\Users\\Jbarrett\\Charlie\\charlie\\stimuli\\visual\\stroop\\37-Incongruent.png'
g22
g22
I2460
tp110
a(g18
g19
g28
I80
g29
S'C:\\Users\\Jbarrett\\Charlie\\charlie\\stimuli\\visual\\stroop\\2-Incongruent.png'
g24
g24
I1340
tp111
a(g18
g19
g28
I81
g31
S'C:\\Users\\Jbarrett\\Charlie\\charlie\\stimuli\\visual\\stroop\\21-Congruent.png'
g22
g22
I1720
tp112
a(g18
g19
g28
I82
g29
S'C:\\Users\\Jbarrett\\Charlie\\charlie\\stimuli\\visual\\stroop\\7-Incongruent.png'
g24
g24
I1870
tp113
a(g18
g19
g28
I83
g31
S'C:\\Users\\Jbarrett\\Charlie\\charlie\\stimuli\\visual\\stroop\\20-Congruent.png'
g22
g22
I1620
tp114
a(g18
g19
g28
I84
g31
S'C:\\Users\\Jbarrett\\Charlie\\charlie\\stimuli\\visual\\stroop\\15-Congruent.png'
g22
g22
I1600
tp115
a(g18
g19
g28
I85
g31
S'C:\\Users\\Jbarrett\\Charlie\\charlie\\stimuli\\visual\\stroop\\26-Congruent.png'
g22
g22
I1800
tp116
a(g18
g19
g28
I86
g29
S'C:\\Users\\Jbarrett\\Charlie\\charlie\\stimuli\\visual\\stroop\\16-Incongruent.png'
g24
g24
I1791
tp117
a(g18
g19
g28
I87
g29
S'C:\\Users\\Jbarrett\\Charlie\\charlie\\stimuli\\visual\\stroop\\50-Incongruent.png'
g22
g22
I4530
tp118
a(g18
g19
g28
I88
g31
S'C:\\Users\\Jbarrett\\Charlie\\charlie\\stimuli\\visual\\stroop\\41-Congruent.png'
g24
g24
I970
tp119
a(g18
g19
g28
I89
g31
S'C:\\Users\\Jbarrett\\Charlie\\charlie\\stimuli\\visual\\stroop\\25-Congruent.png'
g22
g22
I860
tp120
a(g18
g19
g28
I90
g31
S'C:\\Users\\Jbarrett\\Charlie\\charlie\\stimuli\\visual\\stroop\\27-Congruent.png'
g22
g22
I950
tp121
a(g18
g19
g28
I91
g29
S'C:\\Users\\Jbarrett\\Charlie\\charlie\\stimuli\\visual\\stroop\\18-Incongruent.png'
g24
g24
I1160
tp122
a(g18
g19
g28
I92
g29
S'C:\\Users\\Jbarrett\\Charlie\\charlie\\stimuli\\visual\\stroop\\30-Incongruent.png'
g22
g22
I1670
tp123
a(g18
g19
g28
I93
g31
S'C:\\Users\\Jbarrett\\Charlie\\charlie\\stimuli\\visual\\stroop\\44-Congruent.png'
g24
g24
I1410
tp124
a(g18
g19
g28
I94
g31
S'C:\\Users\\Jbarrett\\Charlie\\charlie\\stimuli\\visual\\stroop\\37-Congruent.png'
g24
g24
I930
tp125
a(g18
g19
g28
I95
g29
S'C:\\Users\\Jbarrett\\Charlie\\charlie\\stimuli\\visual\\stroop\\11-Incongruent.png'
g24
g24
I1270
tp126
a(g18
g19
g28
I96
g29
S'C:\\Users\\Jbarrett\\Charlie\\charlie\\stimuli\\visual\\stroop\\29-Incongruent.png'
g22
g22
I930
tp127
a(g18
g19
g28
I97
g29
S'C:\\Users\\Jbarrett\\Charlie\\charlie\\stimuli\\visual\\stroop\\3-Incongruent.png'
g24
g24
I961
tp128
a(g18
g19
g28
I98
g31
S'C:\\Users\\Jbarrett\\Charlie\\charlie\\stimuli\\visual\\stroop\\1-Congruent.png'
g22
g22
I4030
tp129
a(g18
g19
g28
I99
g29
S'C:\\Users\\Jbarrett\\Charlie\\charlie\\stimuli\\visual\\stroop\\52-Incongruent.png'
g22
g22
I1980
tp130
a(g18
g19
g28
I100
g29
S'C:\\Users\\Jbarrett\\Charlie\\charlie\\stimuli\\visual\\stroop\\14-Incongruent.png'
g24
g24
I1230
tp131
a(g18
g19
g28
I101
g31
S'C:\\Users\\Jbarrett\\Charlie\\charlie\\stimuli\\visual\\stroop\\47-Congruent.png'
g24
g24
I1500
tp132
a(g18
g19
g28
I102
g29
S'C:\\Users\\Jbarrett\\Charlie\\charlie\\stimuli\\visual\\stroop\\19-Incongruent.png'
g24
g24
I3400
tp133
a(g18
g19
g28
I103
g31
S'C:\\Users\\Jbarrett\\Charlie\\charlie\\stimuli\\visual\\stroop\\11-Congruent.png'
g22
g22
I1790
tp134
a(g18
g19
g28
I104
g29
S'C:\\Users\\Jbarrett\\Charlie\\charlie\\stimuli\\visual\\stroop\\22-Incongruent.png'
g24
g24
I1860
tp135
a(g18
g19
g28
I105
g31
S'C:\\Users\\Jbarrett\\Charlie\\charlie\\stimuli\\visual\\stroop\\7-Congruent.png'
g22
g22
I4371
tp136
a(g18
g19
g28
I106
g31
S'C:\\Users\\Jbarrett\\Charlie\\charlie\\stimuli\\visual\\stroop\\53-Congruent.png'
g24
g24
I780
tp137
a(g18
g19
g28
I107
g31
S'C:\\Users\\Jbarrett\\Charlie\\charlie\\stimuli\\visual\\stroop\\32-Congruent.png'
g24
g24
I750
tp138
a(g18
g19
g28
I108
g29
S'C:\\Users\\Jbarrett\\Charlie\\charlie\\stimuli\\visual\\stroop\\45-Incongruent.png'
g22
g22
I1160
tp139
a(g18
g19
g28
I109
g31
S'C:\\Users\\Jbarrett\\Charlie\\charlie\\stimuli\\visual\\stroop\\36-Congruent.png'
g24
g24
I1580
tp140
a(g18
g19
g28
I110
g29
S'C:\\Users\\Jbarrett\\Charlie\\charlie\\stimuli\\visual\\stroop\\51-Incongruent.png'
g22
g22
I1180
tp141
a(g18
g19
g28
I111
g31
S'C:\\Users\\Jbarrett\\Charlie\\charlie\\stimuli\\visual\\stroop\\18-Congruent.png'
p142
g22
g22
I2270
tp143
asS'output_format'
p144
(lp145
(S'proband_id'
p146
c__builtin__
str
p147
tp148
a(S'test_name'
p149
g147
tp150
a(S'phase'
p151
g147
tp152
a(S'trialn'
p153
c__builtin__
int
p154
tp155
a(S'cong'
p156
g147
tp157
a(S'f'
g147
tp158
a(S'ans'
p159
g147
tp160
a(S'rsp'
p161
g147
tp162
a(S'rt'
p163
g154
tp164
asg146
g18
sS'filename'
p165
S'4427_stroop.data'
p166
sS'initialised'
p167
g8
(S'\x07\xdf\x07\x18\r\x0c\r\r\xfe\x08'
tRp168
sS'last_udated'
p169
g8
(S'\x07\xdf\x07\x18\r\x0c\r\r\xfe\x08'
tRp170
sg149
S'stroop'
p171
sS'directory'
p172
S'C:\\Users\\Jbarrett\\Charlie\\charlie\\data\\raw'
p173
sS'user_id'
p174
S'barrett'
p175
sS'test_started'
p176
I01
sS'abs_filename'
p177
S'C:\\Users\\Jbarrett\\Charlie\\charlie\\data\\raw\\4427_stroop.data'
p178
sS'date_started'
p179
g8
(S'\x07\xdf\x07\x18\r\x0c\x1b\x02\xf9\xb8'
tRp180
sS'log'
p181
(lp182
(S'2015-07-24 13:12:13.917000'
S'instance created'
p183
tp184
a(S'2015-07-24 13:12:27.201000'
S'instance updated'
p185
tp186
a(S'2015-07-24 13:12:27.207000'
S'pandas DataFrame of data created'
p187
tp188
a(S'2015-07-24 13:12:27.209000'
S'data saved as csv to C:\\Users\\Jbarrett\\Charlie\\charlie\\data\\csv\\4427_stroop.csv'
tp189
a(S'2015-07-24 13:12:30.297000'
g185
tp190
a(S'2015-07-24 13:12:30.304000'
g187
tp191
a(S'2015-07-24 13:12:30.307000'
S'data saved as csv to C:\\Users\\Jbarrett\\Charlie\\charlie\\data\\csv\\4427_stroop.csv'
tp192
a(S'2015-07-24 13:12:32.246000'
g185
tp193
a(S'2015-07-24 13:12:32.254000'
g187
tp194
a(S'2015-07-24 13:12:32.256000'
S'data saved as csv to C:\\Users\\Jbarrett\\Charlie\\charlie\\data\\csv\\4427_stroop.csv'
tp195
a(S'2015-07-24 13:12:34.314000'
g185
tp196
a(S'2015-07-24 13:12:34.323000'
g187
tp197
a(S'2015-07-24 13:12:34.327000'
S'data saved as csv to C:\\Users\\Jbarrett\\Charlie\\charlie\\data\\csv\\4427_stroop.csv'
tp198
a(S'2015-07-24 13:12:44.099000'
g185
tp199
a(S'2015-07-24 13:12:44.109000'
g187
tp200
a(S'2015-07-24 13:12:44.113000'
S'data saved as csv to C:\\Users\\Jbarrett\\Charlie\\charlie\\data\\csv\\4427_stroop.csv'
tp201
a(S'2015-07-24 13:12:45.294000'
g185
tp202
a(S'2015-07-24 13:12:45.303000'
g187
tp203
a(S'2015-07-24 13:12:45.306000'
S'data saved as csv to C:\\Users\\Jbarrett\\Charlie\\charlie\\data\\csv\\4427_stroop.csv'
tp204
a(S'2015-07-24 13:12:46.386000'
g185
tp205
a(S'2015-07-24 13:12:46.395000'
g187
tp206
a(S'2015-07-24 13:12:46.398000'
S'data saved as csv to C:\\Users\\Jbarrett\\Charlie\\charlie\\data\\csv\\4427_stroop.csv'
tp207
a(S'2015-07-24 13:12:47.471000'
g185
tp208
a(S'2015-07-24 13:12:47.480000'
g187
tp209
a(S'2015-07-24 13:12:47.484000'
S'data saved as csv to C:\\Users\\Jbarrett\\Charlie\\charlie\\data\\csv\\4427_stroop.csv'
tp210
a(S'2015-07-24 13:12:48.647000'
g185
tp211
a(S'2015-07-24 13:12:48.656000'
g187
tp212
a(S'2015-07-24 13:12:48.660000'
S'data saved as csv to C:\\Users\\Jbarrett\\Charlie\\charlie\\data\\csv\\4427_stroop.csv'
tp213
a(S'2015-07-24 13:12:50.200000'
g185
tp214
a(S'2015-07-24 13:12:50.210000'
g187
tp215
a(S'2015-07-24 13:12:50.214000'
S'data saved as csv to C:\\Users\\Jbarrett\\Charlie\\charlie\\data\\csv\\4427_stroop.csv'
tp216
a(S'2015-07-24 13:12:53.959000'
g185
tp217
a(S'2015-07-24 13:12:53.969000'
g187
tp218
a(S'2015-07-24 13:12:53.973000'
S'data saved as csv to C:\\Users\\Jbarrett\\Charlie\\charlie\\data\\csv\\4427_stroop.csv'
tp219
a(S'2015-07-24 13:12:57.884000'
g185
tp220
a(S'2015-07-24 13:12:57.894000'
g187
tp221
a(S'2015-07-24 13:12:57.897000'
S'data saved as csv to C:\\Users\\Jbarrett\\Charlie\\charlie\\data\\csv\\4427_stroop.csv'
tp222
a(S'2015-07-24 13:12:59.280000'
g185
tp223
a(S'2015-07-24 13:12:59.289000'
g187
tp224
a(S'2015-07-24 13:12:59.293000'
S'data saved as csv to C:\\Users\\Jbarrett\\Charlie\\charlie\\data\\csv\\4427_stroop.csv'
tp225
a(S'2015-07-24 13:13:00.375000'
g185
tp226
a(S'2015-07-24 13:13:00.384000'
g187
tp227
a(S'2015-07-24 13:13:00.389000'
S'data saved as csv to C:\\Users\\Jbarrett\\Charlie\\charlie\\data\\csv\\4427_stroop.csv'
tp228
a(S'2015-07-24 13:13:01.480000'
g185
tp229
a(S'2015-07-24 13:13:01.491000'
g187
tp230
a(S'2015-07-24 13:13:01.495000'
S'data saved as csv to C:\\Users\\Jbarrett\\Charlie\\charlie\\data\\csv\\4427_stroop.csv'
tp231
a(S'2015-07-24 13:13:03.961000'
g185
tp232
a(S'2015-07-24 13:13:03.967000'
g187
tp233
a(S'2015-07-24 13:13:03.970000'
S'data saved as csv to C:\\Users\\Jbarrett\\Charlie\\charlie\\data\\csv\\4427_stroop.csv'
tp234
a(S'2015-07-24 13:13:05.440000'
g185
tp235
a(S'2015-07-24 13:13:05.450000'
g187
tp236
a(S'2015-07-24 13:13:05.453000'
S'data saved as csv to C:\\Users\\Jbarrett\\Charlie\\charlie\\data\\csv\\4427_stroop.csv'
tp237
a(S'2015-07-24 13:13:07.717000'
g185
tp238
a(S'2015-07-24 13:13:07.726000'
g187
tp239
a(S'2015-07-24 13:13:07.730000'
S'data saved as csv to C:\\Users\\Jbarrett\\Charlie\\charlie\\data\\csv\\4427_stroop.csv'
tp240
a(S'2015-07-24 13:13:09.153000'
g185
tp241
a(S'2015-07-24 13:13:09.163000'
g187
tp242
a(S'2015-07-24 13:13:09.167000'
S'data saved as csv to C:\\Users\\Jbarrett\\Charlie\\charlie\\data\\csv\\4427_stroop.csv'
tp243
a(S'2015-07-24 13:13:10.809000'
g185
tp244
a(S'2015-07-24 13:13:10.819000'
g187
tp245
a(S'2015-07-24 13:13:10.823000'
S'data saved as csv to C:\\Users\\Jbarrett\\Charlie\\charlie\\data\\csv\\4427_stroop.csv'
tp246
a(S'2015-07-24 13:13:12.949000'
g185
tp247
a(S'2015-07-24 13:13:12.959000'
g187
tp248
a(S'2015-07-24 13:13:12.963000'
S'data saved as csv to C:\\Users\\Jbarrett\\Charlie\\charlie\\data\\csv\\4427_stroop.csv'
tp249
a(S'2015-07-24 13:13:14.333000'
g185
tp250
a(S'2015-07-24 13:13:14.343000'
g187
tp251
a(S'2015-07-24 13:13:14.345000'
S'data saved as csv to C:\\Users\\Jbarrett\\Charlie\\charlie\\data\\csv\\4427_stroop.csv'
tp252
a(S'2015-07-24 13:13:18.147000'
g185
tp253
a(S'2015-07-24 13:13:18.155000'
g187
tp254
a(S'2015-07-24 13:13:18.157000'
S'data saved as csv to C:\\Users\\Jbarrett\\Charlie\\charlie\\data\\csv\\4427_stroop.csv'
tp255
a(S'2015-07-24 13:13:19.178000'
g185
tp256
a(S'2015-07-24 13:13:19.188000'
g187
tp257
a(S'2015-07-24 13:13:19.192000'
S'data saved as csv to C:\\Users\\Jbarrett\\Charlie\\charlie\\data\\csv\\4427_stroop.csv'
tp258
a(S'2015-07-24 13:13:20.545000'
g185
tp259
a(S'2015-07-24 13:13:20.555000'
g187
tp260
a(S'2015-07-24 13:13:20.559000'
S'data saved as csv to C:\\Users\\Jbarrett\\Charlie\\charlie\\data\\csv\\4427_stroop.csv'
tp261
a(S'2015-07-24 13:13:28.634000'
g185
tp262
a(S'2015-07-24 13:13:28.644000'
g187
tp263
a(S'2015-07-24 13:13:28.648000'
S'data saved as csv to C:\\Users\\Jbarrett\\Charlie\\charlie\\data\\csv\\4427_stroop.csv'
tp264
a(S'2015-07-24 13:13:30.512000'
g185
tp265
a(S'2015-07-24 13:13:30.522000'
g187
tp266
a(S'2015-07-24 13:13:30.526000'
S'data saved as csv to C:\\Users\\Jbarrett\\Charlie\\charlie\\data\\csv\\4427_stroop.csv'
tp267
a(S'2015-07-24 13:13:36.371000'
g185
tp268
a(S'2015-07-24 13:13:36.381000'
g187
tp269
a(S'2015-07-24 13:13:36.385000'
S'data saved as csv to C:\\Users\\Jbarrett\\Charlie\\charlie\\data\\csv\\4427_stroop.csv'
tp270
a(S'2015-07-24 13:13:37.878000'
g185
tp271
a(S'2015-07-24 13:13:37.889000'
g187
tp272
a(S'2015-07-24 13:13:37.893000'
S'data saved as csv to C:\\Users\\Jbarrett\\Charlie\\charlie\\data\\csv\\4427_stroop.csv'
tp273
a(S'2015-07-24 13:13:39.044000'
g185
tp274
a(S'2015-07-24 13:13:39.053000'
g187
tp275
a(S'2015-07-24 13:13:39.057000'
S'data saved as csv to C:\\Users\\Jbarrett\\Charlie\\charlie\\data\\csv\\4427_stroop.csv'
tp276
a(S'2015-07-24 13:13:41.362000'
g185
tp277
a(S'2015-07-24 13:13:41.372000'
g187
tp278
a(S'2015-07-24 13:13:41.375000'
S'data saved as csv to C:\\Users\\Jbarrett\\Charlie\\charlie\\data\\csv\\4427_stroop.csv'
tp279
a(S'2015-07-24 13:13:43.106000'
g185
tp280
a(S'2015-07-24 13:13:43.116000'
g187
tp281
a(S'2015-07-24 13:13:43.120000'
S'data saved as csv to C:\\Users\\Jbarrett\\Charlie\\charlie\\data\\csv\\4427_stroop.csv'
tp282
a(S'2015-07-24 13:13:44.994000'
g185
tp283
a(S'2015-07-24 13:13:45.004000'
g187
tp284
a(S'2015-07-24 13:13:45.007000'
S'data saved as csv to C:\\Users\\Jbarrett\\Charlie\\charlie\\data\\csv\\4427_stroop.csv'
tp285
a(S'2015-07-24 13:13:46.166000'
g185
tp286
a(S'2015-07-24 13:13:46.176000'
g187
tp287
a(S'2015-07-24 13:13:46.178000'
S'data saved as csv to C:\\Users\\Jbarrett\\Charlie\\charlie\\data\\csv\\4427_stroop.csv'
tp288
a(S'2015-07-24 13:13:47.497000'
g185
tp289
a(S'2015-07-24 13:13:47.504000'
g187
tp290
a(S'2015-07-24 13:13:47.507000'
S'data saved as csv to C:\\Users\\Jbarrett\\Charlie\\charlie\\data\\csv\\4427_stroop.csv'
tp291
a(S'2015-07-24 13:13:48.929000'
g185
tp292
a(S'2015-07-24 13:13:48.937000'
g187
tp293
a(S'2015-07-24 13:13:48.939000'
S'data saved as csv to C:\\Users\\Jbarrett\\Charlie\\charlie\\data\\csv\\4427_stroop.csv'
tp294
a(S'2015-07-24 13:13:51.201000'
g185
tp295
a(S'2015-07-24 13:13:51.211000'
g187
tp296
a(S'2015-07-24 13:13:51.215000'
S'data saved as csv to C:\\Users\\Jbarrett\\Charlie\\charlie\\data\\csv\\4427_stroop.csv'
tp297
a(S'2015-07-24 13:13:54.237000'
g185
tp298
a(S'2015-07-24 13:13:54.247000'
g187
tp299
a(S'2015-07-24 13:13:54.251000'
S'data saved as csv to C:\\Users\\Jbarrett\\Charlie\\charlie\\data\\csv\\4427_stroop.csv'
tp300
a(S'2015-07-24 13:13:55.794000'
g185
tp301
a(S'2015-07-24 13:13:55.804000'
g187
tp302
a(S'2015-07-24 13:13:55.807000'
S'data saved as csv to C:\\Users\\Jbarrett\\Charlie\\charlie\\data\\csv\\4427_stroop.csv'
tp303
a(S'2015-07-24 13:13:56.937000'
g185
tp304
a(S'2015-07-24 13:13:56.947000'
g187
tp305
a(S'2015-07-24 13:13:56.949000'
S'data saved as csv to C:\\Users\\Jbarrett\\Charlie\\charlie\\data\\csv\\4427_stroop.csv'
tp306
a(S'2015-07-24 13:13:58.719000'
g185
tp307
a(S'2015-07-24 13:13:58.730000'
g187
tp308
a(S'2015-07-24 13:13:58.734000'
S'data saved as csv to C:\\Users\\Jbarrett\\Charlie\\charlie\\data\\csv\\4427_stroop.csv'
tp309
a(S'2015-07-24 13:14:00.667000'
g185
tp310
a(S'2015-07-24 13:14:00.678000'
g187
tp311
a(S'2015-07-24 13:14:00.682000'
S'data saved as csv to C:\\Users\\Jbarrett\\Charlie\\charlie\\data\\csv\\4427_stroop.csv'
tp312
a(S'2015-07-24 13:14:02.256000'
g185
tp313
a(S'2015-07-24 13:14:02.266000'
g187
tp314
a(S'2015-07-24 13:14:02.270000'
S'data saved as csv to C:\\Users\\Jbarrett\\Charlie\\charlie\\data\\csv\\4427_stroop.csv'
tp315
a(S'2015-07-24 13:14:03.373000'
g185
tp316
a(S'2015-07-24 13:14:03.383000'
g187
tp317
a(S'2015-07-24 13:14:03.387000'
S'data saved as csv to C:\\Users\\Jbarrett\\Charlie\\charlie\\data\\csv\\4427_stroop.csv'
tp318
a(S'2015-07-24 13:14:04.571000'
g185
tp319
a(S'2015-07-24 13:14:04.581000'
g187
tp320
a(S'2015-07-24 13:14:04.585000'
S'data saved as csv to C:\\Users\\Jbarrett\\Charlie\\charlie\\data\\csv\\4427_stroop.csv'
tp321
a(S'2015-07-24 13:14:05.898000'
g185
tp322
a(S'2015-07-24 13:14:05.908000'
g187
tp323
a(S'2015-07-24 13:14:05.913000'
S'data saved as csv to C:\\Users\\Jbarrett\\Charlie\\charlie\\data\\csv\\4427_stroop.csv'
tp324
a(S'2015-07-24 13:14:07.805000'
g185
tp325
a(S'2015-07-24 13:14:07.815000'
g187
tp326
a(S'2015-07-24 13:14:07.819000'
S'data saved as csv to C:\\Users\\Jbarrett\\Charlie\\charlie\\data\\csv\\4427_stroop.csv'
tp327
a(S'2015-07-24 13:14:08.893000'
g185
tp328
a(S'2015-07-24 13:14:08.903000'
g187
tp329
a(S'2015-07-24 13:14:08.907000'
S'data saved as csv to C:\\Users\\Jbarrett\\Charlie\\charlie\\data\\csv\\4427_stroop.csv'
tp330
a(S'2015-07-24 13:14:10'
g185
tp331
a(S'2015-07-24 13:14:10.007000'
g187
tp332
a(S'2015-07-24 13:14:10.011000'
S'data saved as csv to C:\\Users\\Jbarrett\\Charlie\\charlie\\data\\csv\\4427_stroop.csv'
tp333
a(S'2015-07-24 13:14:12.041000'
g185
tp334
a(S'2015-07-24 13:14:12.047000'
g187
tp335
a(S'2015-07-24 13:14:12.050000'
S'data saved as csv to C:\\Users\\Jbarrett\\Charlie\\charlie\\data\\csv\\4427_stroop.csv'
tp336
a(S'2015-07-24 13:14:13.014000'
g185
tp337
a(S'2015-07-24 13:14:13.017000'
g187
tp338
a(S'2015-07-24 13:14:13.018000'
S'data saved as csv to C:\\Users\\Jbarrett\\Charlie\\charlie\\data\\csv\\4427_stroop.csv'
tp339
a(S'2015-07-24 13:14:14.117000'
g185
tp340
a(S'2015-07-24 13:14:14.122000'
g187
tp341
a(S'2015-07-24 13:14:14.125000'
S'data saved as csv to C:\\Users\\Jbarrett\\Charlie\\charlie\\data\\csv\\4427_stroop.csv'
tp342
a(S'2015-07-24 13:14:16.117000'
g185
tp343
a(S'2015-07-24 13:14:16.119000'
g187
tp344
a(S'2015-07-24 13:14:16.121000'
S'data saved as csv to C:\\Users\\Jbarrett\\Charlie\\charlie\\data\\csv\\4427_stroop.csv'
tp345
a(S'2015-07-24 13:14:17.232000'
g185
tp346
a(S'2015-07-24 13:14:17.235000'
g187
tp347
a(S'2015-07-24 13:14:17.237000'
S'data saved as csv to C:\\Users\\Jbarrett\\Charlie\\charlie\\data\\csv\\4427_stroop.csv'
tp348
a(S'2015-07-24 13:14:18.456000'
g185
tp349
a(S'2015-07-24 13:14:18.467000'
g187
tp350
a(S'2015-07-24 13:14:18.471000'
S'data saved as csv to C:\\Users\\Jbarrett\\Charlie\\charlie\\data\\csv\\4427_stroop.csv'
tp351
a(S'2015-07-24 13:14:19.955000'
g185
tp352
a(S'2015-07-24 13:14:19.963000'
g187
tp353
a(S'2015-07-24 13:14:19.966000'
S'data saved as csv to C:\\Users\\Jbarrett\\Charlie\\charlie\\data\\csv\\4427_stroop.csv'
tp354
a(S'2015-07-24 13:14:22.875000'
g185
tp355
a(S'2015-07-24 13:14:22.881000'
g187
tp356
a(S'2015-07-24 13:14:22.883000'
S'data saved as csv to C:\\Users\\Jbarrett\\Charlie\\charlie\\data\\csv\\4427_stroop.csv'
tp357
a(S'2015-07-24 13:14:24.166000'
g185
tp358
a(S'2015-07-24 13:14:24.177000'
g187
tp359
a(S'2015-07-24 13:14:24.181000'
S'data saved as csv to C:\\Users\\Jbarrett\\Charlie\\charlie\\data\\csv\\4427_stroop.csv'
tp360
a(S'2015-07-24 13:14:26.591000'
g185
tp361
a(S'2015-07-24 13:14:26.596000'
g187
tp362
a(S'2015-07-24 13:14:26.598000'
S'data saved as csv to C:\\Users\\Jbarrett\\Charlie\\charlie\\data\\csv\\4427_stroop.csv'
tp363
a(S'2015-07-24 13:14:27.880000'
g185
tp364
a(S'2015-07-24 13:14:27.883000'
g187
tp365
a(S'2015-07-24 13:14:27.885000'
S'data saved as csv to C:\\Users\\Jbarrett\\Charlie\\charlie\\data\\csv\\4427_stroop.csv'
tp366
a(S'2015-07-24 13:14:30.075000'
g185
tp367
a(S'2015-07-24 13:14:30.081000'
g187
tp368
a(S'2015-07-24 13:14:30.084000'
S'data saved as csv to C:\\Users\\Jbarrett\\Charlie\\charlie\\data\\csv\\4427_stroop.csv'
tp369
a(S'2015-07-24 13:14:31.362000'
g185
tp370
a(S'2015-07-24 13:14:31.369000'
g187
tp371
a(S'2015-07-24 13:14:31.373000'
S'data saved as csv to C:\\Users\\Jbarrett\\Charlie\\charlie\\data\\csv\\4427_stroop.csv'
tp372
a(S'2015-07-24 13:14:33.377000'
g185
tp373
a(S'2015-07-24 13:14:33.387000'
g187
tp374
a(S'2015-07-24 13:14:33.392000'
S'data saved as csv to C:\\Users\\Jbarrett\\Charlie\\charlie\\data\\csv\\4427_stroop.csv'
tp375
a(S'2015-07-24 13:14:35.218000'
g185
tp376
a(S'2015-07-24 13:14:35.221000'
g187
tp377
a(S'2015-07-24 13:14:35.222000'
S'data saved as csv to C:\\Users\\Jbarrett\\Charlie\\charlie\\data\\csv\\4427_stroop.csv'
tp378
a(S'2015-07-24 13:14:36.143000'
g185
tp379
a(S'2015-07-24 13:14:36.153000'
g187
tp380
a(S'2015-07-24 13:14:36.157000'
S'data saved as csv to C:\\Users\\Jbarrett\\Charlie\\charlie\\data\\csv\\4427_stroop.csv'
tp381
a(S'2015-07-24 13:14:37.684000'
g185
tp382
a(S'2015-07-24 13:14:37.689000'
g187
tp383
a(S'2015-07-24 13:14:37.691000'
S'data saved as csv to C:\\Users\\Jbarrett\\Charlie\\charlie\\data\\csv\\4427_stroop.csv'
tp384
a(S'2015-07-24 13:14:38.923000'
g185
tp385
a(S'2015-07-24 13:14:38.934000'
g187
tp386
a(S'2015-07-24 13:14:38.939000'
S'data saved as csv to C:\\Users\\Jbarrett\\Charlie\\charlie\\data\\csv\\4427_stroop.csv'
tp387
a(S'2015-07-24 13:14:40.265000'
g185
tp388
a(S'2015-07-24 13:14:40.272000'
g187
tp389
a(S'2015-07-24 13:14:40.274000'
S'data saved as csv to C:\\Users\\Jbarrett\\Charlie\\charlie\\data\\csv\\4427_stroop.csv'
tp390
a(S'2015-07-24 13:14:43.635000'
g185
tp391
a(S'2015-07-24 13:14:43.640000'
g187
tp392
a(S'2015-07-24 13:14:43.643000'
S'data saved as csv to C:\\Users\\Jbarrett\\Charlie\\charlie\\data\\csv\\4427_stroop.csv'
tp393
a(S'2015-07-24 13:14:44.685000'
g185
tp394
a(S'2015-07-24 13:14:44.690000'
g187
tp395
a(S'2015-07-24 13:14:44.693000'
S'data saved as csv to C:\\Users\\Jbarrett\\Charlie\\charlie\\data\\csv\\4427_stroop.csv'
tp396
a(S'2015-07-24 13:14:46.390000'
g185
tp397
a(S'2015-07-24 13:14:46.394000'
g187
tp398
a(S'2015-07-24 13:14:46.396000'
S'data saved as csv to C:\\Users\\Jbarrett\\Charlie\\charlie\\data\\csv\\4427_stroop.csv'
tp399
a(S'2015-07-24 13:14:48.283000'
g185
tp400
a(S'2015-07-24 13:14:48.289000'
g187
tp401
a(S'2015-07-24 13:14:48.291000'
S'data saved as csv to C:\\Users\\Jbarrett\\Charlie\\charlie\\data\\csv\\4427_stroop.csv'
tp402
a(S'2015-07-24 13:14:49.613000'
g185
tp403
a(S'2015-07-24 13:14:49.616000'
g187
tp404
a(S'2015-07-24 13:14:49.617000'
S'data saved as csv to C:\\Users\\Jbarrett\\Charlie\\charlie\\data\\csv\\4427_stroop.csv'
tp405
a(S'2015-07-24 13:14:51.068000'
g185
tp406
a(S'2015-07-24 13:14:51.074000'
g187
tp407
a(S'2015-07-24 13:14:51.076000'
S'data saved as csv to C:\\Users\\Jbarrett\\Charlie\\charlie\\data\\csv\\4427_stroop.csv'
tp408
a(S'2015-07-24 13:14:52.559000'
g185
tp409
a(S'2015-07-24 13:14:52.570000'
g187
tp410
a(S'2015-07-24 13:14:52.574000'
S'data saved as csv to C:\\Users\\Jbarrett\\Charlie\\charlie\\data\\csv\\4427_stroop.csv'
tp411
a(S'2015-07-24 13:14:54.109000'
g185
tp412
a(S'2015-07-24 13:14:54.120000'
g187
tp413
a(S'2015-07-24 13:14:54.124000'
S'data saved as csv to C:\\Users\\Jbarrett\\Charlie\\charlie\\data\\csv\\4427_stroop.csv'
tp414
a(S'2015-07-24 13:14:55.487000'
g185
tp415
a(S'2015-07-24 13:14:55.498000'
g187
tp416
a(S'2015-07-24 13:14:55.503000'
S'data saved as csv to C:\\Users\\Jbarrett\\Charlie\\charlie\\data\\csv\\4427_stroop.csv'
tp417
a(S'2015-07-24 13:14:57.407000'
g185
tp418
a(S'2015-07-24 13:14:57.417000'
g187
tp419
a(S'2015-07-24 13:14:57.422000'
S'data saved as csv to C:\\Users\\Jbarrett\\Charlie\\charlie\\data\\csv\\4427_stroop.csv'
tp420
a(S'2015-07-24 13:14:59.106000'
g185
tp421
a(S'2015-07-24 13:14:59.116000'
g187
tp422
a(S'2015-07-24 13:14:59.121000'
S'data saved as csv to C:\\Users\\Jbarrett\\Charlie\\charlie\\data\\csv\\4427_stroop.csv'
tp423
a(S'2015-07-24 13:15:00.226000'
g185
tp424
a(S'2015-07-24 13:15:00.236000'
g187
tp425
a(S'2015-07-24 13:15:00.241000'
S'data saved as csv to C:\\Users\\Jbarrett\\Charlie\\charlie\\data\\csv\\4427_stroop.csv'
tp426
a(S'2015-07-24 13:15:01.836000'
g185
tp427
a(S'2015-07-24 13:15:01.843000'
g187
tp428
a(S'2015-07-24 13:15:01.846000'
S'data saved as csv to C:\\Users\\Jbarrett\\Charlie\\charlie\\data\\csv\\4427_stroop.csv'
tp429
a(S'2015-07-24 13:15:03.148000'
g185
tp430
a(S'2015-07-24 13:15:03.159000'
g187
tp431
a(S'2015-07-24 13:15:03.161000'
S'data saved as csv to C:\\Users\\Jbarrett\\Charlie\\charlie\\data\\csv\\4427_stroop.csv'
tp432
a(S'2015-07-24 13:15:04.894000'
g185
tp433
a(S'2015-07-24 13:15:04.902000'
g187
tp434
a(S'2015-07-24 13:15:04.905000'
S'data saved as csv to C:\\Users\\Jbarrett\\Charlie\\charlie\\data\\csv\\4427_stroop.csv'
tp435
a(S'2015-07-24 13:15:07.498000'
g185
tp436
a(S'2015-07-24 13:15:07.509000'
g187
tp437
a(S'2015-07-24 13:15:07.512000'
S'data saved as csv to C:\\Users\\Jbarrett\\Charlie\\charlie\\data\\csv\\4427_stroop.csv'
tp438
a(S'2015-07-24 13:15:08.984000'
g185
tp439
a(S'2015-07-24 13:15:08.994000'
g187
tp440
a(S'2015-07-24 13:15:09'
S'data saved as csv to C:\\Users\\Jbarrett\\Charlie\\charlie\\data\\csv\\4427_stroop.csv'
tp441
a(S'2015-07-24 13:15:10.855000'
g185
tp442
a(S'2015-07-24 13:15:10.865000'
g187
tp443
a(S'2015-07-24 13:15:10.869000'
S'data saved as csv to C:\\Users\\Jbarrett\\Charlie\\charlie\\data\\csv\\4427_stroop.csv'
tp444
a(S'2015-07-24 13:15:12.873000'
g185
tp445
a(S'2015-07-24 13:15:12.881000'
g187
tp446
a(S'2015-07-24 13:15:12.884000'
S'data saved as csv to C:\\Users\\Jbarrett\\Charlie\\charlie\\data\\csv\\4427_stroop.csv'
tp447
a(S'2015-07-24 13:15:14.636000'
g185
tp448
a(S'2015-07-24 13:15:14.647000'
g187
tp449
a(S'2015-07-24 13:15:14.650000'
S'data saved as csv to C:\\Users\\Jbarrett\\Charlie\\charlie\\data\\csv\\4427_stroop.csv'
tp450
a(S'2015-07-24 13:15:16.382000'
g185
tp451
a(S'2015-07-24 13:15:16.391000'
g187
tp452
a(S'2015-07-24 13:15:16.394000'
S'data saved as csv to C:\\Users\\Jbarrett\\Charlie\\charlie\\data\\csv\\4427_stroop.csv'
tp453
a(S'2015-07-24 13:15:18.326000'
g185
tp454
a(S'2015-07-24 13:15:18.336000'
g187
tp455
a(S'2015-07-24 13:15:18.340000'
S'data saved as csv to C:\\Users\\Jbarrett\\Charlie\\charlie\\data\\csv\\4427_stroop.csv'
tp456
a(S'2015-07-24 13:15:20.261000'
g185
tp457
a(S'2015-07-24 13:15:20.272000'
g187
tp458
a(S'2015-07-24 13:15:20.277000'
S'data saved as csv to C:\\Users\\Jbarrett\\Charlie\\charlie\\data\\csv\\4427_stroop.csv'
tp459
a(S'2015-07-24 13:15:24.945000'
g185
tp460
a(S'2015-07-24 13:15:24.956000'
g187
tp461
a(S'2015-07-24 13:15:24.961000'
S'data saved as csv to C:\\Users\\Jbarrett\\Charlie\\charlie\\data\\csv\\4427_stroop.csv'
tp462
a(S'2015-07-24 13:15:26.066000'
g185
tp463
a(S'2015-07-24 13:15:26.076000'
g187
tp464
a(S'2015-07-24 13:15:26.080000'
S'data saved as csv to C:\\Users\\Jbarrett\\Charlie\\charlie\\data\\csv\\4427_stroop.csv'
tp465
a(S'2015-07-24 13:15:27.062000'
g185
tp466
a(S'2015-07-24 13:15:27.068000'
g187
tp467
a(S'2015-07-24 13:15:27.070000'
S'data saved as csv to C:\\Users\\Jbarrett\\Charlie\\charlie\\data\\csv\\4427_stroop.csv'
tp468
a(S'2015-07-24 13:15:28.151000'
g185
tp469
a(S'2015-07-24 13:15:28.162000'
g187
tp470
a(S'2015-07-24 13:15:28.167000'
S'data saved as csv to C:\\Users\\Jbarrett\\Charlie\\charlie\\data\\csv\\4427_stroop.csv'
tp471
a(S'2015-07-24 13:15:29.463000'
g185
tp472
a(S'2015-07-24 13:15:29.472000'
g187
tp473
a(S'2015-07-24 13:15:29.474000'
S'data saved as csv to C:\\Users\\Jbarrett\\Charlie\\charlie\\data\\csv\\4427_stroop.csv'
tp474
a(S'2015-07-24 13:15:31.277000'
g185
tp475
a(S'2015-07-24 13:15:31.288000'
g187
tp476
a(S'2015-07-24 13:15:31.293000'
S'data saved as csv to C:\\Users\\Jbarrett\\Charlie\\charlie\\data\\csv\\4427_stroop.csv'
tp477
a(S'2015-07-24 13:15:32.838000'
g185
tp478
a(S'2015-07-24 13:15:32.849000'
g187
tp479
a(S'2015-07-24 13:15:32.854000'
S'data saved as csv to C:\\Users\\Jbarrett\\Charlie\\charlie\\data\\csv\\4427_stroop.csv'
tp480
a(S'2015-07-24 13:15:33.918000'
g185
tp481
a(S'2015-07-24 13:15:33.929000'
g187
tp482
a(S'2015-07-24 13:15:33.934000'
S'data saved as csv to C:\\Users\\Jbarrett\\Charlie\\charlie\\data\\csv\\4427_stroop.csv'
tp483
a(S'2015-07-24 13:15:35.339000'
g185
tp484
a(S'2015-07-24 13:15:35.350000'
g187
tp485
a(S'2015-07-24 13:15:35.352000'
S'data saved as csv to C:\\Users\\Jbarrett\\Charlie\\charlie\\data\\csv\\4427_stroop.csv'
tp486
a(S'2015-07-24 13:15:36.415000'
g185
tp487
a(S'2015-07-24 13:15:36.426000'
g187
tp488
a(S'2015-07-24 13:15:36.430000'
S'data saved as csv to C:\\Users\\Jbarrett\\Charlie\\charlie\\data\\csv\\4427_stroop.csv'
tp489
a(S'2015-07-24 13:15:37.522000'
g185
tp490
a(S'2015-07-24 13:15:37.533000'
g187
tp491
a(S'2015-07-24 13:15:37.538000'
S'data saved as csv to C:\\Users\\Jbarrett\\Charlie\\charlie\\data\\csv\\4427_stroop.csv'
tp492
a(S'2015-07-24 13:15:41.703000'
g185
tp493
a(S'2015-07-24 13:15:41.712000'
g187
tp494
a(S'2015-07-24 13:15:41.715000'
S'data saved as csv to C:\\Users\\Jbarrett\\Charlie\\charlie\\data\\csv\\4427_stroop.csv'
tp495
a(S'2015-07-24 13:15:43.829000'
g185
tp496
a(S'2015-07-24 13:15:43.840000'
g187
tp497
a(S'2015-07-24 13:15:43.843000'
S'data saved as csv to C:\\Users\\Jbarrett\\Charlie\\charlie\\data\\csv\\4427_stroop.csv'
tp498
a(S'2015-07-24 13:15:45.207000'
g185
tp499
a(S'2015-07-24 13:15:45.218000'
g187
tp500
a(S'2015-07-24 13:15:45.222000'
S'data saved as csv to C:\\Users\\Jbarrett\\Charlie\\charlie\\data\\csv\\4427_stroop.csv'
tp501
a(S'2015-07-24 13:15:46.854000'
g185
tp502
a(S'2015-07-24 13:15:46.866000'
g187
tp503
a(S'2015-07-24 13:15:46.871000'
S'data saved as csv to C:\\Users\\Jbarrett\\Charlie\\charlie\\data\\csv\\4427_stroop.csv'
tp504
a(S'2015-07-24 13:15:50.404000'
g185
tp505
a(S'2015-07-24 13:15:50.412000'
g187
tp506
a(S'2015-07-24 13:15:50.415000'
S'data saved as csv to C:\\Users\\Jbarrett\\Charlie\\charlie\\data\\csv\\4427_stroop.csv'
tp507
a(S'2015-07-24 13:15:52.340000'
g185
tp508
a(S'2015-07-24 13:15:52.351000'
g187
tp509
a(S'2015-07-24 13:15:52.356000'
S'data saved as csv to C:\\Users\\Jbarrett\\Charlie\\charlie\\data\\csv\\4427_stroop.csv'
tp510
a(S'2015-07-24 13:15:54.352000'
g185
tp511
a(S'2015-07-24 13:15:54.363000'
g187
tp512
a(S'2015-07-24 13:15:54.369000'
S'data saved as csv to C:\\Users\\Jbarrett\\Charlie\\charlie\\data\\csv\\4427_stroop.csv'
tp513
a(S'2015-07-24 13:15:58.875000'
g185
tp514
a(S'2015-07-24 13:15:58.886000'
g187
tp515
a(S'2015-07-24 13:15:58.891000'
S'data saved as csv to C:\\Users\\Jbarrett\\Charlie\\charlie\\data\\csv\\4427_stroop.csv'
tp516
a(S'2015-07-24 13:15:59.806000'
g185
tp517
a(S'2015-07-24 13:15:59.818000'
g187
tp518
a(S'2015-07-24 13:15:59.823000'
S'data saved as csv to C:\\Users\\Jbarrett\\Charlie\\charlie\\data\\csv\\4427_stroop.csv'
tp519
a(S'2015-07-24 13:16:00.708000'
g185
tp520
a(S'2015-07-24 13:16:00.719000'
g187
tp521
a(S'2015-07-24 13:16:00.724000'
S'data saved as csv to C:\\Users\\Jbarrett\\Charlie\\charlie\\data\\csv\\4427_stroop.csv'
tp522
a(S'2015-07-24 13:16:02.020000'
g185
tp523
a(S'2015-07-24 13:16:02.027000'
g187
tp524
a(S'2015-07-24 13:16:02.030000'
S'data saved as csv to C:\\Users\\Jbarrett\\Charlie\\charlie\\data\\csv\\4427_stroop.csv'
tp525
a(S'2015-07-24 13:16:03.742000'
g185
tp526
a(S'2015-07-24 13:16:03.754000'
g187
tp527
a(S'2015-07-24 13:16:03.759000'
S'data saved as csv to C:\\Users\\Jbarrett\\Charlie\\charlie\\data\\csv\\4427_stroop.csv'
tp528
a(S'2015-07-24 13:16:05.074000'
g185
tp529
a(S'2015-07-24 13:16:05.083000'
g187
tp530
a(S'2015-07-24 13:16:05.086000'
S'data saved as csv to C:\\Users\\Jbarrett\\Charlie\\charlie\\data\\csv\\4427_stroop.csv'
tp531
a(S'2015-07-24 13:16:07.489000'
g185
tp532
a(S'2015-07-24 13:16:07.500000'
g187
tp533
a(S'2015-07-24 13:16:07.506000'
S'data saved as csv to C:\\Users\\Jbarrett\\Charlie\\charlie\\data\\csv\\4427_stroop.csv'
tp534
asb.