(icharlie.tools.data
Data
p1
(dp2
S'lang'
p3
S'EN'
p4
sS'control'
p5
(lp6
sS'last_updated'
p7
cdatetime
datetime
p8
(S'\x07\xdf\x07\x18\r\x14.\x03\x18\xf8'
tRp9
sS'last_opened'
p10
g8
(S'\x07\xdf\x07\x18\r\x10\x08\x01,\xc8'
tRp11
sS'proj_id'
p12
S'connectivity'
p13
sS'date_done'
p14
g8
(S'\x07\xdf\x07\x18\r\x14.\x02\xf1\xe8'
tRp15
sS'test_done'
p16
I01
sS'data'
p17
(lp18
(S'4427'
p19
S'verbal_fluency'
p20
I0
S'True'
p21
tp22
a(g19
g20
I0
g21
tp23
a(g19
g20
I0
g21
tp24
a(g19
g20
I0
g21
tp25
a(g19
g20
I0
S'False'
p26
tp27
a(g19
g20
I0
g21
tp28
a(g19
g20
I0
g21
tp29
a(g19
g20
I0
g21
tp30
a(g19
g20
I0
g21
tp31
a(g19
g20
I0
g21
tp32
a(g19
g20
I0
g21
tp33
a(g19
g20
I0
g21
tp34
a(g19
g20
I0
g26
tp35
a(g19
g20
I0
g26
tp36
a(g19
g20
I0
g26
tp37
a(g19
g20
I0
g26
tp38
a(g19
g20
I0
g21
tp39
a(g19
g20
I0
g26
tp40
a(g19
g20
I1
g21
tp41
a(g19
g20
I1
g21
tp42
a(g19
g20
I1
g21
tp43
a(g19
g20
I1
g21
tp44
a(g19
g20
I1
g21
tp45
a(g19
g20
I1
g26
tp46
a(g19
g20
I1
g21
tp47
a(g19
g20
I1
g21
tp48
a(g19
g20
I2
g21
tp49
a(g19
g20
I2
g21
tp50
a(g19
g20
I2
g21
tp51
a(g19
g20
I2
g21
tp52
a(g19
g20
I2
g21
tp53
a(g19
g20
I2
g26
tp54
a(g19
g20
I2
g26
tp55
a(g19
g20
I2
g26
tp56
a(g19
g20
I2
g21
tp57
a(g19
g20
I2
g26
tp58
a(g19
g20
I2
g26
tp59
a(g19
g20
I2
g26
tp60
a(g19
g20
I2
g21
tp61
a(g19
g20
I3
g21
tp62
a(g19
g20
I3
g21
tp63
a(g19
g20
I3
g21
tp64
a(g19
g20
I3
g21
tp65
a(g19
g20
I3
g21
tp66
a(g19
g20
I3
g21
tp67
a(g19
g20
I3
g21
tp68
a(g19
g20
I3
g21
tp69
a(g19
g20
I3
g21
tp70
a(g19
g20
I3
g21
tp71
a(g19
g20
I3
g21
tp72
a(g19
g20
I3
g21
tp73
a(g19
g20
I3
g21
tp74
a(g19
g20
I3
g21
tp75
a(g19
g20
I3
g21
tp76
a(g19
g20
I3
g21
tp77
a(g19
g20
I3
g21
tp78
a(g19
g20
I3
g21
tp79
a(g19
g20
I3
g21
tp80
a(g19
g20
I3
g26
tp81
a(g19
g20
I3
g21
tp82
a(g19
g20
I3
g21
tp83
a(g19
g20
I3
g21
tp84
a(g19
g20
I3
g26
tp85
a(g19
g20
I3
g26
tp86
a(g19
g20
I3
g21
tp87
a(g19
g20
I3
g21
tp88
asS'output_format'
p89
(lp90
(S'proband_id'
p91
c__builtin__
str
p92
tp93
a(S'test_name'
p94
g92
tp95
a(S'trialn'
p96
c__builtin__
int
p97
tp98
a(S'rsp'
p99
g92
tp100
asg91
g19
sS'filename'
p101
S'4427_verbal_fluency.data'
p102
sS'initialised'
p103
g8
(S'\x07\xdf\x07\x18\r\x10\x08\x01,\xc8'
tRp104
sS'last_udated'
p105
g8
(S'\x07\xdf\x07\x18\r\x10\x08\x01,\xc8'
tRp106
sg94
S'verbal_fluency'
p107
sS'directory'
p108
S'C:\\Users\\Jbarrett\\Charlie\\charlie\\data\\raw'
p109
sS'user_id'
p110
S'barrett'
p111
sS'test_started'
p112
I01
sS'abs_filename'
p113
S'C:\\Users\\Jbarrett\\Charlie\\charlie\\data\\raw\\4427_verbal_fluency.data'
p114
sS'date_started'
p115
g8
(S'\x07\xdf\x07\x18\r\x11\x17\x07;\x90'
tRp116
sS'log'
p117
(lp118
(S'2015-07-24 13:16:08.077000'
S'instance created'
p119
tp120
a(S'2015-07-24 13:17:23.484000'
S'instance updated'
p121
tp122
a(S'2015-07-24 13:17:23.489000'
S'pandas DataFrame of data created'
p123
tp124
a(S'2015-07-24 13:17:23.493000'
S'data saved as csv to C:\\Users\\Jbarrett\\Charlie\\charlie\\data\\csv\\4427_verbal_fluency.csv'
tp125
a(S'2015-07-24 13:17:28.026000'
g121
tp126
a(S'2015-07-24 13:17:28.031000'
g123
tp127
a(S'2015-07-24 13:17:28.035000'
S'data saved as csv to C:\\Users\\Jbarrett\\Charlie\\charlie\\data\\csv\\4427_verbal_fluency.csv'
tp128
a(S'2015-07-24 13:18:31.460000'
g121
tp129
a(S'2015-07-24 13:18:31.465000'
g123
tp130
a(S'2015-07-24 13:18:31.469000'
S'data saved as csv to C:\\Users\\Jbarrett\\Charlie\\charlie\\data\\csv\\4427_verbal_fluency.csv'
tp131
a(S'2015-07-24 13:18:36.189000'
g121
tp132
a(S'2015-07-24 13:18:36.194000'
g123
tp133
a(S'2015-07-24 13:18:36.198000'
S'data saved as csv to C:\\Users\\Jbarrett\\Charlie\\charlie\\data\\csv\\4427_verbal_fluency.csv'
tp134
a(S'2015-07-24 13:19:39.623000'
g121
tp135
a(S'2015-07-24 13:19:39.628000'
g123
tp136
a(S'2015-07-24 13:19:39.632000'
S'data saved as csv to C:\\Users\\Jbarrett\\Charlie\\charlie\\data\\csv\\4427_verbal_fluency.csv'
tp137
a(S'2015-07-24 13:19:42.030000'
g121
tp138
a(S'2015-07-24 13:19:42.035000'
g123
tp139
a(S'2015-07-24 13:19:42.039000'
S'data saved as csv to C:\\Users\\Jbarrett\\Charlie\\charlie\\data\\csv\\4427_verbal_fluency.csv'
tp140
a(S'2015-07-24 13:20:46.193000'
g121
tp141
a(S'2015-07-24 13:20:46.199000'
g123
tp142
a(S'2015-07-24 13:20:46.203000'
S'data saved as csv to C:\\Users\\Jbarrett\\Charlie\\charlie\\data\\csv\\4427_verbal_fluency.csv'
tp143
asb.