(icharlie.tools.data
Data
p1
(dp2
S'lang'
p3
S'EN'
p4
sS'control'
p5
(lp6
sS'last_updated'
p7
cdatetime
datetime
p8
(S'\x07\xdf\x07\x18\r\x1d\x1d\x06\xc6`'
tRp9
sS'last_opened'
p10
g8
(S'\x07\xdf\x07\x18\r\x15;\x0cX('
tRp11
sS'proj_id'
p12
S'connectivity'
p13
sS'date_done'
p14
NsS'test_done'
p15
I01
sS'data'
p16
(lp17
(S'4427'
p18
S'scap'
p19
S'practice'
p20
I3
I0
S'Yes'
p21
S'C:\\Users\\Jbarrett\\Charlie\\charlie\\stimuli\\visual\\scap\\practice-1.BMP'
S'C:\\Users\\Jbarrett\\Charlie\\charlie\\stimuli\\visual\\scap\\practice-2.BMP'
g21
I8021
tp22
a(g18
g19
g20
I4
I1
S'No'
p23
S'C:\\Users\\Jbarrett\\Charlie\\charlie\\stimuli\\visual\\scap\\practice-3.BMP'
S'C:\\Users\\Jbarrett\\Charlie\\charlie\\stimuli\\visual\\scap\\practice-4.BMP'
g23
I3510
tp24
a(g18
g19
g20
I5
I2
g21
S'C:\\Users\\Jbarrett\\Charlie\\charlie\\stimuli\\visual\\scap\\practice-5.BMP'
S'C:\\Users\\Jbarrett\\Charlie\\charlie\\stimuli\\visual\\scap\\practice-6.BMP'
g23
I3070
tp25
a(g18
g19
S'test'
p26
I3
I0
g21
S'C:\\Users\\Jbarrett\\Charlie\\charlie\\stimuli\\visual\\scap\\load3-1.BMP'
S'C:\\Users\\Jbarrett\\Charlie\\charlie\\stimuli\\visual\\scap\\load3-2.BMP'
g21
I1860
tp27
a(g18
g19
g26
I3
I1
g23
S'C:\\Users\\Jbarrett\\Charlie\\charlie\\stimuli\\visual\\scap\\load3-3.BMP'
S'C:\\Users\\Jbarrett\\Charlie\\charlie\\stimuli\\visual\\scap\\load3-4.BMP'
g23
I1930
tp28
a(g18
g19
g26
I3
I2
g21
S'C:\\Users\\Jbarrett\\Charlie\\charlie\\stimuli\\visual\\scap\\load3-5.BMP'
S'C:\\Users\\Jbarrett\\Charlie\\charlie\\stimuli\\visual\\scap\\load3-6.BMP'
g21
I2290
tp29
a(g18
g19
g26
I3
I3
g21
S'C:\\Users\\Jbarrett\\Charlie\\charlie\\stimuli\\visual\\scap\\load3-7.BMP'
S'C:\\Users\\Jbarrett\\Charlie\\charlie\\stimuli\\visual\\scap\\load3-8.BMP'
g23
I2000
tp30
a(g18
g19
g26
I3
I4
g23
S'C:\\Users\\Jbarrett\\Charlie\\charlie\\stimuli\\visual\\scap\\load3-9.BMP'
S'C:\\Users\\Jbarrett\\Charlie\\charlie\\stimuli\\visual\\scap\\load3-10.BMP'
g23
I1630
tp31
a(g18
g19
g26
I3
I5
g21
S'C:\\Users\\Jbarrett\\Charlie\\charlie\\stimuli\\visual\\scap\\load3-11.BMP'
S'C:\\Users\\Jbarrett\\Charlie\\charlie\\stimuli\\visual\\scap\\load3-12.BMP'
g21
I2330
tp32
a(g18
g19
g26
I3
I6
g23
S'C:\\Users\\Jbarrett\\Charlie\\charlie\\stimuli\\visual\\scap\\load3-13.BMP'
S'C:\\Users\\Jbarrett\\Charlie\\charlie\\stimuli\\visual\\scap\\load3-14.BMP'
g21
I10730
tp33
a(g18
g19
g26
I3
I7
g23
S'C:\\Users\\Jbarrett\\Charlie\\charlie\\stimuli\\visual\\scap\\load3-15.BMP'
S'C:\\Users\\Jbarrett\\Charlie\\charlie\\stimuli\\visual\\scap\\load3-16.BMP'
g21
I2510
tp34
a(g18
g19
g26
I3
I8
g21
S'C:\\Users\\Jbarrett\\Charlie\\charlie\\stimuli\\visual\\scap\\load3-17.BMP'
S'C:\\Users\\Jbarrett\\Charlie\\charlie\\stimuli\\visual\\scap\\load3-18.BMP'
g23
I1420
tp35
a(g18
g19
g26
I3
I9
g23
S'C:\\Users\\Jbarrett\\Charlie\\charlie\\stimuli\\visual\\scap\\load3-19.BMP'
S'C:\\Users\\Jbarrett\\Charlie\\charlie\\stimuli\\visual\\scap\\load3-20.BMP'
g23
I2290
tp36
a(g18
g19
g26
I3
I10
g21
S'C:\\Users\\Jbarrett\\Charlie\\charlie\\stimuli\\visual\\scap\\load3-21.BMP'
S'C:\\Users\\Jbarrett\\Charlie\\charlie\\stimuli\\visual\\scap\\load3-22.BMP'
g21
I1960
tp37
a(g18
g19
g26
I3
I11
g21
S'C:\\Users\\Jbarrett\\Charlie\\charlie\\stimuli\\visual\\scap\\load3-23.BMP'
S'C:\\Users\\Jbarrett\\Charlie\\charlie\\stimuli\\visual\\scap\\load3-24.BMP'
g23
I2410
tp38
a(g18
g19
g26
I3
I12
g23
S'C:\\Users\\Jbarrett\\Charlie\\charlie\\stimuli\\visual\\scap\\load3-25.BMP'
S'C:\\Users\\Jbarrett\\Charlie\\charlie\\stimuli\\visual\\scap\\load3-26.BMP'
g21
I2600
tp39
a(g18
g19
g26
I3
I13
g23
S'C:\\Users\\Jbarrett\\Charlie\\charlie\\stimuli\\visual\\scap\\load3-27.BMP'
S'C:\\Users\\Jbarrett\\Charlie\\charlie\\stimuli\\visual\\scap\\load3-28.BMP'
g23
I1990
tp40
a(g18
g19
g26
I4
I0
g23
S'C:\\Users\\Jbarrett\\Charlie\\charlie\\stimuli\\visual\\scap\\load4-1.BMP'
S'C:\\Users\\Jbarrett\\Charlie\\charlie\\stimuli\\visual\\scap\\load4-2.BMP'
g21
I3230
tp41
a(g18
g19
g26
I4
I1
g21
S'C:\\Users\\Jbarrett\\Charlie\\charlie\\stimuli\\visual\\scap\\load4-3.BMP'
S'C:\\Users\\Jbarrett\\Charlie\\charlie\\stimuli\\visual\\scap\\load4-4.BMP'
g21
I8120
tp42
a(g18
g19
g26
I4
I2
g21
S'C:\\Users\\Jbarrett\\Charlie\\charlie\\stimuli\\visual\\scap\\load4-5.BMP'
S'C:\\Users\\Jbarrett\\Charlie\\charlie\\stimuli\\visual\\scap\\load4-6.BMP'
g21
I17421
tp43
a(g18
g19
g26
I4
I3
g23
S'C:\\Users\\Jbarrett\\Charlie\\charlie\\stimuli\\visual\\scap\\load4-7.BMP'
S'C:\\Users\\Jbarrett\\Charlie\\charlie\\stimuli\\visual\\scap\\load4-8.BMP'
g23
I6490
tp44
a(g18
g19
g26
I4
I4
g23
S'C:\\Users\\Jbarrett\\Charlie\\charlie\\stimuli\\visual\\scap\\load4-9.BMP'
S'C:\\Users\\Jbarrett\\Charlie\\charlie\\stimuli\\visual\\scap\\load4-10.BMP'
g21
I3720
tp45
a(g18
g19
g26
I4
I5
g21
S'C:\\Users\\Jbarrett\\Charlie\\charlie\\stimuli\\visual\\scap\\load4-11.BMP'
S'C:\\Users\\Jbarrett\\Charlie\\charlie\\stimuli\\visual\\scap\\load4-12.BMP'
g23
I5830
tp46
a(g18
g19
g26
I4
I6
g23
S'C:\\Users\\Jbarrett\\Charlie\\charlie\\stimuli\\visual\\scap\\load4-13.BMP'
S'C:\\Users\\Jbarrett\\Charlie\\charlie\\stimuli\\visual\\scap\\load4-14.BMP'
g21
I1140
tp47
a(g18
g19
g26
I4
I7
g21
S'C:\\Users\\Jbarrett\\Charlie\\charlie\\stimuli\\visual\\scap\\load4-15.BMP'
S'C:\\Users\\Jbarrett\\Charlie\\charlie\\stimuli\\visual\\scap\\load4-16.BMP'
g23
I1260
tp48
a(g18
g19
g26
I4
I8
g23
S'C:\\Users\\Jbarrett\\Charlie\\charlie\\stimuli\\visual\\scap\\load4-17.BMP'
S'C:\\Users\\Jbarrett\\Charlie\\charlie\\stimuli\\visual\\scap\\load4-18.BMP'
g21
I1680
tp49
a(g18
g19
g26
I4
I9
g21
S'C:\\Users\\Jbarrett\\Charlie\\charlie\\stimuli\\visual\\scap\\load4-19.BMP'
S'C:\\Users\\Jbarrett\\Charlie\\charlie\\stimuli\\visual\\scap\\load4-20.BMP'
g21
I1370
tp50
a(g18
g19
g26
I4
I10
g21
S'C:\\Users\\Jbarrett\\Charlie\\charlie\\stimuli\\visual\\scap\\load4-21.BMP'
S'C:\\Users\\Jbarrett\\Charlie\\charlie\\stimuli\\visual\\scap\\load4-22.BMP'
g23
I2680
tp51
a(g18
g19
g26
I4
I11
g23
S'C:\\Users\\Jbarrett\\Charlie\\charlie\\stimuli\\visual\\scap\\load4-23.BMP'
S'C:\\Users\\Jbarrett\\Charlie\\charlie\\stimuli\\visual\\scap\\load4-24.BMP'
g21
I2230
tp52
a(g18
g19
g26
I4
I12
g21
S'C:\\Users\\Jbarrett\\Charlie\\charlie\\stimuli\\visual\\scap\\load4-25.BMP'
S'C:\\Users\\Jbarrett\\Charlie\\charlie\\stimuli\\visual\\scap\\load4-26.BMP'
g23
I840
tp53
a(g18
g19
g26
I4
I13
g23
S'C:\\Users\\Jbarrett\\Charlie\\charlie\\stimuli\\visual\\scap\\load4-27.BMP'
S'C:\\Users\\Jbarrett\\Charlie\\charlie\\stimuli\\visual\\scap\\load4-28.BMP'
g23
I5540
tp54
a(g18
g19
g26
I5
I0
g21
S'C:\\Users\\Jbarrett\\Charlie\\charlie\\stimuli\\visual\\scap\\load5-1.BMP'
S'C:\\Users\\Jbarrett\\Charlie\\charlie\\stimuli\\visual\\scap\\load5-2.BMP'
g23
I1130
tp55
a(g18
g19
g26
I5
I1
g21
S'C:\\Users\\Jbarrett\\Charlie\\charlie\\stimuli\\visual\\scap\\load5-3.BMP'
S'C:\\Users\\Jbarrett\\Charlie\\charlie\\stimuli\\visual\\scap\\load5-4.BMP'
g21
I3960
tp56
a(g18
g19
g26
I5
I2
g21
S'C:\\Users\\Jbarrett\\Charlie\\charlie\\stimuli\\visual\\scap\\load5-5.BMP'
S'C:\\Users\\Jbarrett\\Charlie\\charlie\\stimuli\\visual\\scap\\load5-6.BMP'
g21
I2320
tp57
a(g18
g19
g26
I5
I3
g21
S'C:\\Users\\Jbarrett\\Charlie\\charlie\\stimuli\\visual\\scap\\load5-7.BMP'
S'C:\\Users\\Jbarrett\\Charlie\\charlie\\stimuli\\visual\\scap\\load5-8.BMP'
g21
I870
tp58
a(g18
g19
g26
I5
I4
g21
S'C:\\Users\\Jbarrett\\Charlie\\charlie\\stimuli\\visual\\scap\\load5-9.BMP'
S'C:\\Users\\Jbarrett\\Charlie\\charlie\\stimuli\\visual\\scap\\load5-10.BMP'
g21
I2391
tp59
a(g18
g19
g26
I5
I5
g21
S'C:\\Users\\Jbarrett\\Charlie\\charlie\\stimuli\\visual\\scap\\load5-11.BMP'
S'C:\\Users\\Jbarrett\\Charlie\\charlie\\stimuli\\visual\\scap\\load5-12.BMP'
g23
I1850
tp60
a(g18
g19
g26
I5
I6
g23
S'C:\\Users\\Jbarrett\\Charlie\\charlie\\stimuli\\visual\\scap\\load5-13.BMP'
S'C:\\Users\\Jbarrett\\Charlie\\charlie\\stimuli\\visual\\scap\\load5-14.BMP'
g21
I2790
tp61
a(g18
g19
g26
I5
I7
g23
S'C:\\Users\\Jbarrett\\Charlie\\charlie\\stimuli\\visual\\scap\\load5-15.BMP'
S'C:\\Users\\Jbarrett\\Charlie\\charlie\\stimuli\\visual\\scap\\load5-16.BMP'
g21
I4440
tp62
a(g18
g19
g26
I5
I8
g23
S'C:\\Users\\Jbarrett\\Charlie\\charlie\\stimuli\\visual\\scap\\load5-17.BMP'
S'C:\\Users\\Jbarrett\\Charlie\\charlie\\stimuli\\visual\\scap\\load5-18.BMP'
g21
I1940
tp63
a(g18
g19
g26
I5
I9
g23
S'C:\\Users\\Jbarrett\\Charlie\\charlie\\stimuli\\visual\\scap\\load5-19.BMP'
S'C:\\Users\\Jbarrett\\Charlie\\charlie\\stimuli\\visual\\scap\\load5-20.BMP'
g23
I1090
tp64
a(g18
g19
g26
I5
I10
g23
S'C:\\Users\\Jbarrett\\Charlie\\charlie\\stimuli\\visual\\scap\\load5-21.BMP'
S'C:\\Users\\Jbarrett\\Charlie\\charlie\\stimuli\\visual\\scap\\load5-22.BMP'
g23
I1590
tp65
a(g18
g19
g26
I5
I11
g21
S'C:\\Users\\Jbarrett\\Charlie\\charlie\\stimuli\\visual\\scap\\load5-23.BMP'
S'C:\\Users\\Jbarrett\\Charlie\\charlie\\stimuli\\visual\\scap\\load5-24.BMP'
g21
I2220
tp66
a(g18
g19
g26
I5
I12
g23
S'C:\\Users\\Jbarrett\\Charlie\\charlie\\stimuli\\visual\\scap\\load5-25.BMP'
S'C:\\Users\\Jbarrett\\Charlie\\charlie\\stimuli\\visual\\scap\\load5-26.BMP'
g23
I810
tp67
a(g18
g19
g26
I5
I13
g23
S'C:\\Users\\Jbarrett\\Charlie\\charlie\\stimuli\\visual\\scap\\load5-27.BMP'
p68
S'C:\\Users\\Jbarrett\\Charlie\\charlie\\stimuli\\visual\\scap\\load5-28.BMP'
p69
g21
I2750
tp70
asS'output_format'
p71
(lp72
(S'proband_id'
p73
c__builtin__
str
p74
tp75
a(S'test_name'
p76
g74
tp77
a(S'phase'
p78
g74
tp79
a(S'load'
p80
c__builtin__
int
p81
tp82
a(S'trialn'
p83
g81
tp84
a(S'ans'
p85
g74
tp86
a(S'array_f'
p87
g74
tp88
a(S'probe_f'
p89
g74
tp90
a(S'rsp'
p91
g74
tp92
a(S'rt'
p93
g81
tp94
asg73
g18
sS'filename'
p95
S'4427_scap.data'
p96
sS'initialised'
p97
g8
(S'\x07\xdf\x07\x18\r\x15;\x0cX('
tRp98
sS'last_udated'
p99
g8
(S'\x07\xdf\x07\x18\r\x15;\x0cX('
tRp100
sg76
S'scap'
p101
sS'directory'
p102
S'C:\\Users\\Jbarrett\\Charlie\\charlie\\data\\raw'
p103
sS'user_id'
p104
S'barrett'
p105
sS'test_started'
p106
I01
sS'abs_filename'
p107
S'C:\\Users\\Jbarrett\\Charlie\\charlie\\data\\raw\\4427_scap.data'
p108
sS'date_started'
p109
g8
(S'\x07\xdf\x07\x18\r\x16\x1b\x01\x9a('
tRp110
sS'log'
p111
(lp112
(S'2015-07-24 13:21:59.809000'
S'instance created'
p113
tp114
a(S'2015-07-24 13:22:27.116000'
S'instance updated'
p115
tp116
a(S'2015-07-24 13:22:27.126000'
S'pandas DataFrame of data created'
p117
tp118
a(S'2015-07-24 13:22:27.130000'
S'data saved as csv to C:\\Users\\Jbarrett\\Charlie\\charlie\\data\\csv\\4427_scap.csv'
tp119
a(S'2015-07-24 13:22:37.682000'
g115
tp120
a(S'2015-07-24 13:22:37.692000'
g117
tp121
a(S'2015-07-24 13:22:37.696000'
S'data saved as csv to C:\\Users\\Jbarrett\\Charlie\\charlie\\data\\csv\\4427_scap.csv'
tp122
a(S'2015-07-24 13:22:47.808000'
g115
tp123
a(S'2015-07-24 13:22:47.818000'
g117
tp124
a(S'2015-07-24 13:22:47.820000'
S'data saved as csv to C:\\Users\\Jbarrett\\Charlie\\charlie\\data\\csv\\4427_scap.csv'
tp125
a(S'2015-07-24 13:23:03.290000'
g115
tp126
a(S'2015-07-24 13:23:03.300000'
g117
tp127
a(S'2015-07-24 13:23:03.303000'
S'data saved as csv to C:\\Users\\Jbarrett\\Charlie\\charlie\\data\\csv\\4427_scap.csv'
tp128
a(S'2015-07-24 13:23:11.370000'
g115
tp129
a(S'2015-07-24 13:23:11.380000'
g117
tp130
a(S'2015-07-24 13:23:11.384000'
S'data saved as csv to C:\\Users\\Jbarrett\\Charlie\\charlie\\data\\csv\\4427_scap.csv'
tp131
a(S'2015-07-24 13:23:19.814000'
g115
tp132
a(S'2015-07-24 13:23:19.824000'
g117
tp133
a(S'2015-07-24 13:23:19.828000'
S'data saved as csv to C:\\Users\\Jbarrett\\Charlie\\charlie\\data\\csv\\4427_scap.csv'
tp134
a(S'2015-07-24 13:23:27.968000'
g115
tp135
a(S'2015-07-24 13:23:27.979000'
g117
tp136
a(S'2015-07-24 13:23:27.982000'
S'data saved as csv to C:\\Users\\Jbarrett\\Charlie\\charlie\\data\\csv\\4427_scap.csv'
tp137
a(S'2015-07-24 13:23:35.753000'
g115
tp138
a(S'2015-07-24 13:23:35.762000'
g117
tp139
a(S'2015-07-24 13:23:35.764000'
S'data saved as csv to C:\\Users\\Jbarrett\\Charlie\\charlie\\data\\csv\\4427_scap.csv'
tp140
a(S'2015-07-24 13:23:44.233000'
g115
tp141
a(S'2015-07-24 13:23:44.244000'
g117
tp142
a(S'2015-07-24 13:23:44.248000'
S'data saved as csv to C:\\Users\\Jbarrett\\Charlie\\charlie\\data\\csv\\4427_scap.csv'
tp143
a(S'2015-07-24 13:24:03.809000'
g115
tp144
a(S'2015-07-24 13:24:03.817000'
g117
tp145
a(S'2015-07-24 13:24:03.820000'
S'data saved as csv to C:\\Users\\Jbarrett\\Charlie\\charlie\\data\\csv\\4427_scap.csv'
tp146
a(S'2015-07-24 13:24:12.469000'
g115
tp147
a(S'2015-07-24 13:24:12.480000'
g117
tp148
a(S'2015-07-24 13:24:12.483000'
S'data saved as csv to C:\\Users\\Jbarrett\\Charlie\\charlie\\data\\csv\\4427_scap.csv'
tp149
a(S'2015-07-24 13:24:20.041000'
g115
tp150
a(S'2015-07-24 13:24:20.052000'
g117
tp151
a(S'2015-07-24 13:24:20.056000'
S'data saved as csv to C:\\Users\\Jbarrett\\Charlie\\charlie\\data\\csv\\4427_scap.csv'
tp152
a(S'2015-07-24 13:24:28.487000'
g115
tp153
a(S'2015-07-24 13:24:28.498000'
g117
tp154
a(S'2015-07-24 13:24:28.502000'
S'data saved as csv to C:\\Users\\Jbarrett\\Charlie\\charlie\\data\\csv\\4427_scap.csv'
tp155
a(S'2015-07-24 13:24:36.601000'
g115
tp156
a(S'2015-07-24 13:24:36.612000'
g117
tp157
a(S'2015-07-24 13:24:36.616000'
S'data saved as csv to C:\\Users\\Jbarrett\\Charlie\\charlie\\data\\csv\\4427_scap.csv'
tp158
a(S'2015-07-24 13:24:45.167000'
g115
tp159
a(S'2015-07-24 13:24:45.178000'
g117
tp160
a(S'2015-07-24 13:24:45.182000'
S'data saved as csv to C:\\Users\\Jbarrett\\Charlie\\charlie\\data\\csv\\4427_scap.csv'
tp161
a(S'2015-07-24 13:24:53.922000'
g115
tp162
a(S'2015-07-24 13:24:53.933000'
g117
tp163
a(S'2015-07-24 13:24:53.937000'
S'data saved as csv to C:\\Users\\Jbarrett\\Charlie\\charlie\\data\\csv\\4427_scap.csv'
tp164
a(S'2015-07-24 13:25:02.068000'
g115
tp165
a(S'2015-07-24 13:25:02.077000'
g117
tp166
a(S'2015-07-24 13:25:02.080000'
S'data saved as csv to C:\\Users\\Jbarrett\\Charlie\\charlie\\data\\csv\\4427_scap.csv'
tp167
a(S'2015-07-24 13:25:11.448000'
g115
tp168
a(S'2015-07-24 13:25:11.459000'
g117
tp169
a(S'2015-07-24 13:25:11.463000'
S'data saved as csv to C:\\Users\\Jbarrett\\Charlie\\charlie\\data\\csv\\4427_scap.csv'
tp170
a(S'2015-07-24 13:25:25.723000'
g115
tp171
a(S'2015-07-24 13:25:25.734000'
g117
tp172
a(S'2015-07-24 13:25:25.738000'
S'data saved as csv to C:\\Users\\Jbarrett\\Charlie\\charlie\\data\\csv\\4427_scap.csv'
tp173
a(S'2015-07-24 13:25:49.300000'
g115
tp174
a(S'2015-07-24 13:25:49.311000'
g117
tp175
a(S'2015-07-24 13:25:49.315000'
S'data saved as csv to C:\\Users\\Jbarrett\\Charlie\\charlie\\data\\csv\\4427_scap.csv'
tp176
a(S'2015-07-24 13:26:01.946000'
g115
tp177
a(S'2015-07-24 13:26:01.957000'
g117
tp178
a(S'2015-07-24 13:26:01.959000'
S'data saved as csv to C:\\Users\\Jbarrett\\Charlie\\charlie\\data\\csv\\4427_scap.csv'
tp179
a(S'2015-07-24 13:26:11.818000'
g115
tp180
a(S'2015-07-24 13:26:11.828000'
g117
tp181
a(S'2015-07-24 13:26:11.831000'
S'data saved as csv to C:\\Users\\Jbarrett\\Charlie\\charlie\\data\\csv\\4427_scap.csv'
tp182
a(S'2015-07-24 13:26:23.799000'
g115
tp183
a(S'2015-07-24 13:26:23.810000'
g117
tp184
a(S'2015-07-24 13:26:23.814000'
S'data saved as csv to C:\\Users\\Jbarrett\\Charlie\\charlie\\data\\csv\\4427_scap.csv'
tp185
a(S'2015-07-24 13:26:31.094000'
g115
tp186
a(S'2015-07-24 13:26:31.104000'
g117
tp187
a(S'2015-07-24 13:26:31.108000'
S'data saved as csv to C:\\Users\\Jbarrett\\Charlie\\charlie\\data\\csv\\4427_scap.csv'
tp188
a(S'2015-07-24 13:26:38.509000'
g115
tp189
a(S'2015-07-24 13:26:38.520000'
g117
tp190
a(S'2015-07-24 13:26:38.524000'
S'data saved as csv to C:\\Users\\Jbarrett\\Charlie\\charlie\\data\\csv\\4427_scap.csv'
tp191
a(S'2015-07-24 13:26:46.344000'
g115
tp192
a(S'2015-07-24 13:26:46.355000'
g117
tp193
a(S'2015-07-24 13:26:46.360000'
S'data saved as csv to C:\\Users\\Jbarrett\\Charlie\\charlie\\data\\csv\\4427_scap.csv'
tp194
a(S'2015-07-24 13:26:53.870000'
g115
tp195
a(S'2015-07-24 13:26:53.881000'
g117
tp196
a(S'2015-07-24 13:26:53.886000'
S'data saved as csv to C:\\Users\\Jbarrett\\Charlie\\charlie\\data\\csv\\4427_scap.csv'
tp197
a(S'2015-07-24 13:27:02.707000'
g115
tp198
a(S'2015-07-24 13:27:02.714000'
g117
tp199
a(S'2015-07-24 13:27:02.717000'
S'data saved as csv to C:\\Users\\Jbarrett\\Charlie\\charlie\\data\\csv\\4427_scap.csv'
tp200
a(S'2015-07-24 13:27:11.085000'
g115
tp201
a(S'2015-07-24 13:27:11.096000'
g117
tp202
a(S'2015-07-24 13:27:11.100000'
S'data saved as csv to C:\\Users\\Jbarrett\\Charlie\\charlie\\data\\csv\\4427_scap.csv'
tp203
a(S'2015-07-24 13:27:18.081000'
g115
tp204
a(S'2015-07-24 13:27:18.092000'
g117
tp205
a(S'2015-07-24 13:27:18.097000'
S'data saved as csv to C:\\Users\\Jbarrett\\Charlie\\charlie\\data\\csv\\4427_scap.csv'
tp206
a(S'2015-07-24 13:27:29.778000'
g115
tp207
a(S'2015-07-24 13:27:29.789000'
g117
tp208
a(S'2015-07-24 13:27:29.793000'
S'data saved as csv to C:\\Users\\Jbarrett\\Charlie\\charlie\\data\\csv\\4427_scap.csv'
tp209
a(S'2015-07-24 13:27:37.065000'
g115
tp210
a(S'2015-07-24 13:27:37.076000'
g117
tp211
a(S'2015-07-24 13:27:37.080000'
S'data saved as csv to C:\\Users\\Jbarrett\\Charlie\\charlie\\data\\csv\\4427_scap.csv'
tp212
a(S'2015-07-24 13:27:47.182000'
g115
tp213
a(S'2015-07-24 13:27:47.193000'
g117
tp214
a(S'2015-07-24 13:27:47.197000'
S'data saved as csv to C:\\Users\\Jbarrett\\Charlie\\charlie\\data\\csv\\4427_scap.csv'
tp215
a(S'2015-07-24 13:27:55.658000'
g115
tp216
a(S'2015-07-24 13:27:55.666000'
g117
tp217
a(S'2015-07-24 13:27:55.669000'
S'data saved as csv to C:\\Users\\Jbarrett\\Charlie\\charlie\\data\\csv\\4427_scap.csv'
tp218
a(S'2015-07-24 13:28:02.679000'
g115
tp219
a(S'2015-07-24 13:28:02.690000'
g117
tp220
a(S'2015-07-24 13:28:02.694000'
S'data saved as csv to C:\\Users\\Jbarrett\\Charlie\\charlie\\data\\csv\\4427_scap.csv'
tp221
a(S'2015-07-24 13:28:11.225000'
g115
tp222
a(S'2015-07-24 13:28:11.234000'
g117
tp223
a(S'2015-07-24 13:28:11.236000'
S'data saved as csv to C:\\Users\\Jbarrett\\Charlie\\charlie\\data\\csv\\4427_scap.csv'
tp224
a(S'2015-07-24 13:28:22.557000'
g115
tp225
a(S'2015-07-24 13:28:22.569000'
g117
tp226
a(S'2015-07-24 13:28:22.573000'
S'data saved as csv to C:\\Users\\Jbarrett\\Charlie\\charlie\\data\\csv\\4427_scap.csv'
tp227
a(S'2015-07-24 13:28:31.502000'
g115
tp228
a(S'2015-07-24 13:28:31.513000'
g117
tp229
a(S'2015-07-24 13:28:31.515000'
S'data saved as csv to C:\\Users\\Jbarrett\\Charlie\\charlie\\data\\csv\\4427_scap.csv'
tp230
a(S'2015-07-24 13:28:42.096000'
g115
tp231
a(S'2015-07-24 13:28:42.106000'
g117
tp232
a(S'2015-07-24 13:28:42.108000'
S'data saved as csv to C:\\Users\\Jbarrett\\Charlie\\charlie\\data\\csv\\4427_scap.csv'
tp233
a(S'2015-07-24 13:28:50.187000'
g115
tp234
a(S'2015-07-24 13:28:50.198000'
g117
tp235
a(S'2015-07-24 13:28:50.203000'
S'data saved as csv to C:\\Users\\Jbarrett\\Charlie\\charlie\\data\\csv\\4427_scap.csv'
tp236
a(S'2015-07-24 13:28:57.432000'
g115
tp237
a(S'2015-07-24 13:28:57.444000'
g117
tp238
a(S'2015-07-24 13:28:57.448000'
S'data saved as csv to C:\\Users\\Jbarrett\\Charlie\\charlie\\data\\csv\\4427_scap.csv'
tp239
a(S'2015-07-24 13:29:05.180000'
g115
tp240
a(S'2015-07-24 13:29:05.191000'
g117
tp241
a(S'2015-07-24 13:29:05.196000'
S'data saved as csv to C:\\Users\\Jbarrett\\Charlie\\charlie\\data\\csv\\4427_scap.csv'
tp242
a(S'2015-07-24 13:29:13.558000'
g115
tp243
a(S'2015-07-24 13:29:13.570000'
g117
tp244
a(S'2015-07-24 13:29:13.574000'
S'data saved as csv to C:\\Users\\Jbarrett\\Charlie\\charlie\\data\\csv\\4427_scap.csv'
tp245
a(S'2015-07-24 13:29:20.523000'
g115
tp246
a(S'2015-07-24 13:29:20.534000'
g117
tp247
a(S'2015-07-24 13:29:20.537000'
S'data saved as csv to C:\\Users\\Jbarrett\\Charlie\\charlie\\data\\csv\\4427_scap.csv'
tp248
a(S'2015-07-24 13:29:29.427000'
g115
tp249
a(S'2015-07-24 13:29:29.438000'
g117
tp250
a(S'2015-07-24 13:29:29.443000'
S'data saved as csv to C:\\Users\\Jbarrett\\Charlie\\charlie\\data\\csv\\4427_scap.csv'
tp251
asb.