(icharlie.tools.data
Data
p1
(dp2
S'lang'
p3
S'EN'
p4
sS'control'
p5
(lp6
sS'last_updated'
p7
cdatetime
datetime
p8
(S'\x07\xdf\x07\x1b\x0e0\x19\x03z\xa0'
tRp9
sS'last_opened'
p10
g8
(S'\x07\xdf\x07\x1b\x0e&\x13\x0c\x92\xc0'
tRp11
sS'proj_id'
p12
S'connectivity'
p13
sS'date_done'
p14
NsS'test_done'
p15
I01
sS'data'
p16
(lp17
(S'4428'
p18
S'ctrails'
p19
S'number'
p20
S'practice'
p21
I0
I1
S'Correct'
p22
I3931
I29299
tp23
a(g18
g19
g20
g21
I1
I2
g22
I3620
I29299
tp24
a(g18
g19
g20
g21
I2
I3
g22
I3270
I29299
tp25
a(g18
g19
g20
g21
I3
I4
g22
I1450
I29299
tp26
a(g18
g19
g20
g21
I4
I5
g22
I2860
I29299
tp27
a(g18
g19
g20
g21
I5
I6
g22
I820
I29299
tp28
a(g18
g19
g20
g21
I6
I7
g22
I2251
I29299
tp29
a(g18
g19
g20
g21
I7
I8
g22
I2500
I29299
tp30
a(g18
g19
g20
S'test'
p31
I0
I1
g22
I3551
I70172
tp32
a(g18
g19
g20
g31
I1
I2
g22
I2940
I70172
tp33
a(g18
g19
g20
g31
I2
I3
g22
I1850
I70172
tp34
a(g18
g19
g20
g31
I3
I4
g22
I1960
I70172
tp35
a(g18
g19
g20
g31
I4
I5
g22
I2260
I70172
tp36
a(g18
g19
g20
g31
I5
I6
g22
I2120
I70172
tp37
a(g18
g19
g20
g31
I6
I7
g22
I1790
I70172
tp38
a(g18
g19
g20
g31
I7
I8
g22
I1560
I70172
tp39
a(g18
g19
g20
g31
I8
I9
g22
I2311
I70172
tp40
a(g18
g19
g20
g31
I9
I10
g22
I6420
I70172
tp41
a(g18
g19
g20
g31
I10
I11
g22
I2560
I70172
tp42
a(g18
g19
g20
g31
I11
I12
g22
I1660
I70172
tp43
a(g18
g19
g20
g31
I12
I13
g22
I2580
I70172
tp44
a(g18
g19
g20
g31
I13
I14
g22
I3510
I70172
tp45
a(g18
g19
g20
g31
I14
I15
g22
I1581
I70172
tp46
a(g18
g19
g20
g31
I15
I16
g22
I2210
I70172
tp47
a(g18
g19
g20
g31
I16
I17
g22
I2040
I70172
tp48
a(g18
g19
g20
g31
I17
I18
g22
I6380
I70172
tp49
a(g18
g19
g20
g31
I18
I19
g22
I1460
I70172
tp50
a(g18
g19
g20
g31
I19
I20
g22
I1800
I70172
tp51
a(g18
g19
g20
g31
I20
I21
g22
I8591
I70172
tp52
a(g18
g19
g20
g31
I21
I22
g22
I3000
I70172
tp53
a(g18
g19
g20
g31
I22
I23
g22
I2220
I70172
tp54
a(g18
g19
g20
g31
I23
I24
g22
I1720
I70172
tp55
a(g18
g19
g20
g31
I24
I25
g22
I1970
I70172
tp56
a(g18
g19
S'letter'
p57
g21
I0
S'a'
g22
I3290
I19387
tp58
a(g18
g19
g57
g21
I1
S'b'
g22
I3250
I19387
tp59
a(g18
g19
g57
g21
I2
S'c'
g22
I1960
I19387
tp60
a(g18
g19
g57
g21
I3
S'd'
g22
I2230
I19387
tp61
a(g18
g19
g57
g21
I4
S'e'
g22
I2031
I19387
tp62
a(g18
g19
g57
g21
I5
S'f'
g22
I1980
I19387
tp63
a(g18
g19
g57
g21
I6
S'g'
g22
I1990
I19387
tp64
a(g18
g19
g57
g21
I7
S'h'
g22
I530
I19387
tp65
a(g18
g19
g57
g31
I0
S'a'
g22
I8190
I201174
tp66
a(g18
g19
g57
g31
I1
S'b'
g22
I5060
I201174
tp67
a(g18
g19
g57
g31
I2
S'c'
g22
I3231
I201174
tp68
a(g18
g19
g57
g31
I3
S'd'
g22
I3840
I201174
tp69
a(g18
g19
g57
g31
I4
S'e'
g22
I2530
I201174
tp70
a(g18
g19
g57
g31
I5
S'f'
g22
I4980
I201174
tp71
a(g18
g19
g57
g31
I6
S'g'
g22
I10901
I201174
tp72
a(g18
g19
g57
g31
I7
S'h'
g22
I13951
I201174
tp73
a(g18
g19
g57
g31
I8
S'i'
g22
I2090
I201174
tp74
a(g18
g19
g57
g31
I9
S'j'
g22
I1920
I201174
tp75
a(g18
g19
g57
g31
I10
S'k'
g22
I5070
I201174
tp76
a(g18
g19
g57
g31
I11
S'l'
g22
I19991
I201174
tp77
a(g18
g19
g57
g31
I12
S'n'
S'Incorrect'
p78
I5841
I201174
tp79
a(g18
g19
g57
g31
I13
S'o'
g78
I4000
I201174
tp80
a(g18
g19
g57
g31
I14
S'm'
g22
I2290
I201174
tp81
a(g18
g19
g57
g31
I15
S'm'
g78
I820
I201174
tp82
a(g18
g19
g57
g31
I16
S'm'
g78
I800
I201174
tp83
a(g18
g19
g57
g31
I17
S'n'
g22
I5710
I201174
tp84
a(g18
g19
g57
g31
I18
S'o'
g22
I3401
I201174
tp85
a(g18
g19
g57
g31
I19
S'q'
g78
I7370
I201174
tp86
a(g18
g19
g57
g31
I20
S'r'
g78
I4300
I201174
tp87
a(g18
g19
g57
g31
I21
S'p'
g22
I5511
I201174
tp88
a(g18
g19
g57
g31
I22
S'u'
g78
I8610
I201174
tp89
a(g18
g19
g57
g31
I23
S'r'
g78
I7511
I201174
tp90
a(g18
g19
g57
g31
I24
S't'
g78
I1480
I201174
tp91
a(g18
g19
g57
g31
I25
S's'
g78
I780
I201174
tp92
a(g18
g19
g57
g31
I26
S's'
g78
I1250
I201174
tp93
a(g18
g19
g57
g31
I27
S'q'
g22
I8450
I201174
tp94
a(g18
g19
g57
g31
I28
S'r'
g22
I6601
I201174
tp95
a(g18
g19
g57
g31
I29
S's'
g22
I1620
I201174
tp96
a(g18
g19
g57
g31
I30
S't'
g22
I1820
I201174
tp97
a(g18
g19
g57
g31
I31
S'u'
g22
I3410
I201174
tp98
a(g18
g19
g57
g31
I32
S'w'
g78
I4450
I201174
tp99
a(g18
g19
g57
g31
I33
S'v'
g22
I1730
I201174
tp100
a(g18
g19
g57
g31
I34
S'w'
g22
I830
I201174
tp101
a(g18
g19
g57
g31
I35
S'y'
g78
I2690
I201174
tp102
a(g18
g19
g57
g31
I36
S'y'
g78
I8010
I201174
tp103
a(g18
g19
g57
g31
I37
S'x'
g22
I12721
I201174
tp104
a(g18
g19
g57
g31
I38
S'y'
g22
I3100
I201174
tp105
a(g18
g19
S'number-letter'
p106
g21
I0
I1
g22
I13230
I35478
tp107
a(g18
g19
g106
g21
I1
S'a'
g22
I3821
I35478
tp108
a(g18
g19
g106
g21
I2
I2
g22
I2280
I35478
tp109
a(g18
g19
g106
g21
I3
S'b'
g22
I4690
I35478
tp110
a(g18
g19
g106
g21
I4
I3
g22
I4260
I35478
tp111
a(g18
g19
g106
g21
I5
S'c'
g22
I1600
I35478
tp112
a(g18
g19
g106
g21
I6
I4
g22
I3830
I35478
tp113
a(g18
g19
g106
g21
I7
S'd'
g22
I1721
I35478
tp114
a(g18
g19
g106
g31
I0
I1
g22
I7701
I155002
tp115
a(g18
g19
g106
g31
I1
S'a'
g22
I8260
I155002
tp116
a(g18
g19
g106
g31
I2
I2
g22
I5201
I155002
tp117
a(g18
g19
g106
g31
I3
S'b'
g22
I4940
I155002
tp118
a(g18
g19
g106
g31
I4
I3
g22
I3560
I155002
tp119
a(g18
g19
g106
g31
I5
S'c'
g22
I6310
I155002
tp120
a(g18
g19
g106
g31
I6
I4
g22
I14451
I155002
tp121
a(g18
g19
g106
g31
I7
S'd'
g22
I4970
I155002
tp122
a(g18
g19
g106
g31
I8
I5
g22
I2881
I155002
tp123
a(g18
g19
g106
g31
I9
S'e'
g22
I1280
I155002
tp124
a(g18
g19
g106
g31
I10
I6
g22
I3650
I155002
tp125
a(g18
g19
g106
g31
I11
S'f'
g22
I4620
I155002
tp126
a(g18
g19
g106
g31
I12
I7
g22
I3610
I155002
tp127
a(g18
g19
g106
g31
I13
S'g'
g22
I5141
I155002
tp128
a(g18
g19
g106
g31
I14
I8
g22
I2920
I155002
tp129
a(g18
g19
g106
g31
I15
S'h'
g22
I1820
I155002
tp130
a(g18
g19
g106
g31
I16
S'i'
g78
I4761
I155002
tp131
a(g18
g19
g106
g31
I17
S'l'
g78
I2110
I155002
tp132
a(g18
g19
g106
g31
I18
I9
g22
I12171
I155002
tp133
a(g18
g19
g106
g31
I19
S'i'
g22
I1870
I155002
tp134
a(g18
g19
g106
g31
I20
I10
g22
I6171
I155002
tp135
a(g18
g19
g106
g31
I21
S'j'
g22
I6020
I155002
tp136
a(g18
g19
g106
g31
I22
I11
g22
I5100
I155002
tp137
a(g18
g19
g106
g31
I23
S'k'
g22
I1940
I155002
tp138
a(g18
g19
g106
g31
I24
I12
g22
I12601
I155002
tp139
a(g18
g19
g106
g31
I25
S'l'
g22
I3430
I155002
tp140
a(g18
g19
g106
g31
I26
I13
g22
I680
I155002
tp141
asS'output_format'
p142
(lp143
(S'proband_id'
p144
c__builtin__
str
p145
tp146
a(S'test_name'
p147
g145
tp148
a(S'phase'
p149
g145
tp150
a(S'trial_type'
p151
g145
tp152
a(S'n'
c__builtin__
int
p153
tp154
a(S'rsp'
p155
g145
tp156
a(S'corr'
p157
g145
tp158
a(S'rt'
p159
g153
tp160
a(S'total_time'
p161
g153
tp162
asg144
g18
sS'filename'
p163
S'4428_ctrails.data'
p164
sS'initialised'
p165
g8
(S'\x07\xdf\x07\x1b\x0e&\x13\x0c\x92\xc0'
tRp166
sS'last_udated'
p167
g8
(S'\x07\xdf\x07\x1b\x0e&\x13\x0c\x92\xc0'
tRp168
sg147
S'ctrails'
p169
sS'directory'
p170
S'c:\\Charlie\\charlie\\data\\raw'
p171
sS'user_id'
p172
S'sbuccheri'
p173
sS'test_started'
p174
I01
sS'abs_filename'
p175
S'c:\\Charlie\\charlie\\data\\raw\\4428_ctrails.data'
p176
sS'date_started'
p177
g8
(S"\x07\xdf\x07\x1b\x0e'\r\nXp"
tRp178
sS'log'
p179
(lp180
(S'2015-07-27 14:38:19.824000'
S'instance created'
p181
tp182
a(S'2015-07-27 14:39:13.694000'
S'instance updated'
p183
tp184
a(S'2015-07-27 14:39:13.704000'
S'pandas DataFrame of data created'
p185
tp186
a(S'2015-07-27 14:39:13.716000'
S'data saved as csv to c:\\Charlie\\charlie\\data\\csv\\4428_ctrails.csv'
tp187
a(S'2015-07-27 14:40:36.505000'
g183
tp188
a(S'2015-07-27 14:40:36.515000'
g185
tp189
a(S'2015-07-27 14:40:36.519000'
S'data saved as csv to c:\\Charlie\\charlie\\data\\csv\\4428_ctrails.csv'
tp190
a(S'2015-07-27 14:41:04.475000'
g183
tp191
a(S'2015-07-27 14:41:04.485000'
g185
tp192
a(S'2015-07-27 14:41:04.489000'
S'data saved as csv to c:\\Charlie\\charlie\\data\\csv\\4428_ctrails.csv'
tp193
a(S'2015-07-27 14:44:36.698000'
g183
tp194
a(S'2015-07-27 14:44:36.708000'
g185
tp195
a(S'2015-07-27 14:44:36.713000'
S'data saved as csv to c:\\Charlie\\charlie\\data\\csv\\4428_ctrails.csv'
tp196
a(S'2015-07-27 14:45:36.664000'
g183
tp197
a(S'2015-07-27 14:45:36.675000'
g185
tp198
a(S'2015-07-27 14:45:36.680000'
S'data saved as csv to c:\\Charlie\\charlie\\data\\csv\\4428_ctrails.csv'
tp199
a(S'2015-07-27 14:48:25.211000'
g183
tp200
a(S'2015-07-27 14:48:25.222000'
g185
tp201
a(S'2015-07-27 14:48:25.227000'
S'data saved as csv to c:\\Charlie\\charlie\\data\\csv\\4428_ctrails.csv'
tp202
asb.