(icharlie.tools.data
Data
p1
(dp2
S'lang'
p3
S'EN'
p4
sS'control'
p5
(lp6
sS'last_updated'
p7
cdatetime
datetime
p8
(S'\x07\xdf\x07\x1b\n\x15,\x03\x8e('
tRp9
sS'last_opened'
p10
g8
(S'\x07\xdf\x07\x1b\n\x10\x10\x0b;\x00'
tRp11
sS'proj_id'
p12
S'connectivity'
p13
sS'date_done'
p14
g8
(S'\x07\xdf\x07\x1b\n\x15,\x02\xb3h'
tRp15
sS'test_done'
p16
I01
sS'data'
p17
(lp18
(S'4429'
p19
S'cvlt2'
p20
I0
csip
_unpickle_type
p21
(S'PyQt4.QtCore'
p22
S'QString'
(Vtruck
p23
ttRp24
tp25
a(g19
g20
I0
g21
(g22
S'QString'
(Vspinach
p26
ttRp27
tp28
a(g19
g20
I0
g21
(g22
S'QString'
(Vgiraffe
p29
ttRp30
tp31
a(g19
g20
I0
g21
(g22
S'QString'
(Vboat
p32
ttRp33
tp34
a(g19
g20
I0
g21
(g22
S'QString'
(Vcabinet
p35
ttRp36
tp37
a(g19
g20
I0
g21
(g22
S'QString'
(Vintrusion
p38
ttRp39
tp40
a(g19
g20
I1
g21
(g22
S'QString'
(Vcabbage
p41
ttRp42
tp43
a(g19
g20
I1
g21
(g22
S'QString'
(Vbookcase
p44
ttRp45
tp46
a(g19
g20
I1
g21
(g22
S'QString'
(Vdesk
p47
ttRp48
tp49
a(g19
g20
I1
g21
(g22
S'QString'
(Vsubway
p50
ttRp51
tp52
a(g19
g20
I1
g21
(g22
S'QString'
(Vcow
p53
ttRp54
tp55
a(g19
g20
I1
g21
(g22
S'QString'
(Vintrusion
p56
ttRp57
tp58
a(g19
g20
I2
g21
(g22
S'QString'
(Vcabbage
p59
ttRp60
tp61
a(g19
g20
I2
g21
(g22
S'QString'
(Vboat
p62
ttRp63
tp64
a(g19
g20
I2
g21
(g22
S'QString'
(Vcow
p65
ttRp66
tp67
a(g19
g20
I2
g21
(g22
S'QString'
(Vsubway
p68
ttRp69
tp70
a(g19
g20
I2
g21
(g22
S'QString'
(Vintrusion
p71
ttRp72
tp73
a(g19
g20
I2
g21
(g22
S'QString'
(Vlamp
p74
ttRp75
tp76
a(g19
g20
I2
g21
(g22
S'QString'
(Vgiraffe
p77
ttRp78
tp79
a(g19
g20
I2
g21
(g22
S'QString'
(Vdesk
p80
ttRp81
tp82
a(g19
g20
I3
g21
(g22
S'QString'
(Vcabbage
p83
ttRp84
tp85
a(g19
g20
I3
g21
(g22
S'QString'
(Vbookcase
p86
ttRp87
tp88
a(g19
g20
I3
g21
(g22
S'QString'
(Vcelery
p89
ttRp90
tp91
a(g19
g20
I3
g21
(g22
S'QString'
(Vlamp
p92
ttRp93
tp94
a(g19
g20
I3
g21
(g22
S'QString'
(Vcow
p95
ttRp96
tp97
a(g19
g20
I3
g21
(g22
S'QString'
(Vdesk
p98
ttRp99
tp100
a(g19
g20
I4
g21
(g22
S'QString'
(Vtruck
p101
ttRp102
tp103
a(g19
g20
I4
g21
(g22
S'QString'
(Vlamp
p104
ttRp105
tp106
a(g19
g20
I4
g21
(g22
S'QString'
(Vbookcase
p107
ttRp108
tp109
a(g19
g20
I4
g21
(g22
S'QString'
(Vintrusion
p110
ttRp111
tp112
a(g19
g20
I4
g21
(g22
S'QString'
(Vsubway
p113
ttRp114
tp115
a(g19
g20
I4
g21
(g22
S'QString'
(Vsquirrel
p116
ttRp117
tp118
a(g19
g20
I4
g21
(g22
S'QString'
(Vcabbage
p119
ttRp120
tp121
a(g19
g20
I4
g21
(g22
S'QString'
(Vcow
p122
ttRp123
tp124
a(g19
g20
I4
g21
(g22
S'QString'
(Vintrusion
p125
ttRp126
tp127
a(g19
g20
I4
g21
(g22
S'QString'
(Vgiraffe
p128
ttRp129
tp130
a(g19
g20
I4
g21
(g22
S'QString'
(Vdesk
p131
ttRp132
tp133
asS'output_format'
p134
(lp135
(S'proband_id'
p136
c__builtin__
str
p137
tp138
a(S'test_name'
p139
g137
tp140
a(S'trialn'
p141
c__builtin__
int
p142
tp143
a(S'rsp'
p144
g137
tp145
asg136
g19
sS'filename'
p146
S'4429_cvlt2.data'
p147
sS'initialised'
p148
g8
(S'\x07\xdf\x07\x1b\n\x10\x10\x0b;\x00'
tRp149
sS'last_udated'
p150
g8
(S'\x07\xdf\x07\x1b\n\x10\x10\x0b;\x00'
tRp151
sg139
S'cvlt2'
p152
sS'directory'
p153
S'C:\\Users\\Jbarrett\\Charlie\\charlie\\data\\raw'
p154
sS'user_id'
p155
S'barrett'
p156
sS'test_started'
p157
I01
sS'abs_filename'
p158
S'C:\\Users\\Jbarrett\\Charlie\\charlie\\data\\raw\\4429_cvlt2.data'
p159
sS'date_started'
p160
g8
(S'\x07\xdf\x07\x1b\n\x11!\x00\xd2\xf0'
tRp161
sS'log'
p162
(lp163
(S'2015-07-27 10:16:16.736000'
S'instance created'
p164
tp165
a(S'2015-07-27 10:17:33.064000'
S'instance updated'
p166
tp167
a(S'2015-07-27 10:17:33.084000'
S'pandas DataFrame of data created'
p168
tp169
a(S'2015-07-27 10:17:33.088000'
S'data saved as csv to C:\\Users\\Jbarrett\\Charlie\\charlie\\data\\csv\\4429_cvlt2.csv'
tp170
a(S'2015-07-27 10:18:14.872000'
g166
tp171
a(S'2015-07-27 10:18:14.890000'
g168
tp172
a(S'2015-07-27 10:18:14.894000'
S'data saved as csv to C:\\Users\\Jbarrett\\Charlie\\charlie\\data\\csv\\4429_cvlt2.csv'
tp173
a(S'2015-07-27 10:18:31.346000'
g166
tp174
a(S'2015-07-27 10:18:31.370000'
g168
tp175
a(S'2015-07-27 10:18:31.372000'
S'data saved as csv to C:\\Users\\Jbarrett\\Charlie\\charlie\\data\\csv\\4429_cvlt2.csv'
tp176
a(S'2015-07-27 10:19:11.067000'
g166
tp177
a(S'2015-07-27 10:19:11.091000'
g168
tp178
a(S'2015-07-27 10:19:11.093000'
S'data saved as csv to C:\\Users\\Jbarrett\\Charlie\\charlie\\data\\csv\\4429_cvlt2.csv'
tp179
a(S'2015-07-27 10:19:37.843000'
g166
tp180
a(S'2015-07-27 10:19:37.882000'
g168
tp181
a(S'2015-07-27 10:19:37.884000'
S'data saved as csv to C:\\Users\\Jbarrett\\Charlie\\charlie\\data\\csv\\4429_cvlt2.csv'
tp182
a(S'2015-07-27 10:20:19.302000'
g166
tp183
a(S'2015-07-27 10:20:19.313000'
g168
tp184
a(S'2015-07-27 10:20:19.314000'
S'data saved as csv to C:\\Users\\Jbarrett\\Charlie\\charlie\\data\\csv\\4429_cvlt2.csv'
tp185
a(S'2015-07-27 10:20:40.062000'
g166
tp186
a(S'2015-07-27 10:20:40.076000'
g168
tp187
a(S'2015-07-27 10:20:40.077000'
S'data saved as csv to C:\\Users\\Jbarrett\\Charlie\\charlie\\data\\csv\\4429_cvlt2.csv'
tp188
a(S'2015-07-27 10:21:18.374000'
g166
tp189
a(S'2015-07-27 10:21:18.392000'
g168
tp190
a(S'2015-07-27 10:21:18.393000'
S'data saved as csv to C:\\Users\\Jbarrett\\Charlie\\charlie\\data\\csv\\4429_cvlt2.csv'
tp191
a(S'2015-07-27 10:21:44.177000'
g166
tp192
a(S'2015-07-27 10:21:44.231000'
g168
tp193
a(S'2015-07-27 10:21:44.233000'
S'data saved as csv to C:\\Users\\Jbarrett\\Charlie\\charlie\\data\\csv\\4429_cvlt2.csv'
tp194
asb.