(icharlie.tools.data
Data
p1
(dp2
S'lang'
p3
S'EN'
p4
sS'control'
p5
(lp6
sS'last_updated'
p7
cdatetime
datetime
p8
(S'\x07\xdf\x07\x1b\n2\x16\x04|p'
tRp9
sS'last_opened'
p10
g8
(S'\x07\xdf\x07\x1b\n1\x16\x06\\\xe8'
tRp11
sS'proj_id'
p12
S'connectivity'
p13
sS'date_done'
p14
NsS'test_done'
p15
I01
sS'data'
p16
(lp17
(S'4429'
p18
S'face_memory_delay'
p19
S'test'
p20
I0
S'C:\\Users\\Jbarrett\\Charlie\\charlie\\stimuli\\visual\\face_memory_delay\\ddis10.bmp'
S'No'
p21
g21
I20
tp22
a(g18
g19
g20
I1
S'C:\\Users\\Jbarrett\\Charlie\\charlie\\stimuli\\visual\\face_memory_delay\\ddis04.bmp'
g21
S'Yes'
p23
I1940
tp24
a(g18
g19
g20
I2
S'C:\\Users\\Jbarrett\\Charlie\\charlie\\stimuli\\visual\\face_memory_delay\\tar07.bmp'
g23
g23
I930
tp25
a(g18
g19
g20
I3
S'C:\\Users\\Jbarrett\\Charlie\\charlie\\stimuli\\visual\\face_memory_delay\\tar18.bmp'
g23
g23
I790
tp26
a(g18
g19
g20
I4
S'C:\\Users\\Jbarrett\\Charlie\\charlie\\stimuli\\visual\\face_memory_delay\\ddis14.bmp'
g21
g23
I610
tp27
a(g18
g19
g20
I5
S'C:\\Users\\Jbarrett\\Charlie\\charlie\\stimuli\\visual\\face_memory_delay\\tar19.bmp'
g23
g21
I1300
tp28
a(g18
g19
g20
I6
S'C:\\Users\\Jbarrett\\Charlie\\charlie\\stimuli\\visual\\face_memory_delay\\ddis13.bmp'
g21
g21
I1140
tp29
a(g18
g19
g20
I7
S'C:\\Users\\Jbarrett\\Charlie\\charlie\\stimuli\\visual\\face_memory_delay\\tar15.bmp'
g23
g23
I640
tp30
a(g18
g19
g20
I8
S'C:\\Users\\Jbarrett\\Charlie\\charlie\\stimuli\\visual\\face_memory_delay\\tar11.bmp'
g23
g23
I670
tp31
a(g18
g19
g20
I9
S'C:\\Users\\Jbarrett\\Charlie\\charlie\\stimuli\\visual\\face_memory_delay\\ddis05.bmp'
g21
g23
I540
tp32
a(g18
g19
g20
I10
S'C:\\Users\\Jbarrett\\Charlie\\charlie\\stimuli\\visual\\face_memory_delay\\ddis01.bmp'
g21
g21
I950
tp33
a(g18
g19
g20
I11
S'C:\\Users\\Jbarrett\\Charlie\\charlie\\stimuli\\visual\\face_memory_delay\\ddis16.bmp'
g21
g21
I1650
tp34
a(g18
g19
g20
I12
S'C:\\Users\\Jbarrett\\Charlie\\charlie\\stimuli\\visual\\face_memory_delay\\tar02.bmp'
g23
g23
I640
tp35
a(g18
g19
g20
I13
S'C:\\Users\\Jbarrett\\Charlie\\charlie\\stimuli\\visual\\face_memory_delay\\tar08.bmp'
g23
g23
I800
tp36
a(g18
g19
g20
I14
S'C:\\Users\\Jbarrett\\Charlie\\charlie\\stimuli\\visual\\face_memory_delay\\tar13.bmp'
g23
g23
I611
tp37
a(g18
g19
g20
I15
S'C:\\Users\\Jbarrett\\Charlie\\charlie\\stimuli\\visual\\face_memory_delay\\tar20.bmp'
g23
g23
I780
tp38
a(g18
g19
g20
I16
S'C:\\Users\\Jbarrett\\Charlie\\charlie\\stimuli\\visual\\face_memory_delay\\ddis18.bmp'
g21
g23
I1090
tp39
a(g18
g19
g20
I17
S'C:\\Users\\Jbarrett\\Charlie\\charlie\\stimuli\\visual\\face_memory_delay\\tar06.bmp'
g23
g23
I1010
tp40
a(g18
g19
g20
I18
S'C:\\Users\\Jbarrett\\Charlie\\charlie\\stimuli\\visual\\face_memory_delay\\ddis07.bmp'
g21
g23
I1070
tp41
a(g18
g19
g20
I19
S'C:\\Users\\Jbarrett\\Charlie\\charlie\\stimuli\\visual\\face_memory_delay\\ddis08.bmp'
g21
g21
I790
tp42
a(g18
g19
g20
I20
S'C:\\Users\\Jbarrett\\Charlie\\charlie\\stimuli\\visual\\face_memory_delay\\tar12.bmp'
g23
g21
I1050
tp43
a(g18
g19
g20
I21
S'C:\\Users\\Jbarrett\\Charlie\\charlie\\stimuli\\visual\\face_memory_delay\\ddis17.bmp'
g21
g21
I1650
tp44
a(g18
g19
g20
I22
S'C:\\Users\\Jbarrett\\Charlie\\charlie\\stimuli\\visual\\face_memory_delay\\tar05.bmp'
g23
g21
I1660
tp45
a(g18
g19
g20
I23
S'C:\\Users\\Jbarrett\\Charlie\\charlie\\stimuli\\visual\\face_memory_delay\\tar10.bmp'
g23
g23
I790
tp46
a(g18
g19
g20
I24
S'C:\\Users\\Jbarrett\\Charlie\\charlie\\stimuli\\visual\\face_memory_delay\\ddis02.bmp'
g21
g23
I950
tp47
a(g18
g19
g20
I25
S'C:\\Users\\Jbarrett\\Charlie\\charlie\\stimuli\\visual\\face_memory_delay\\ddis20.bmp'
g21
g23
I2060
tp48
a(g18
g19
g20
I26
S'C:\\Users\\Jbarrett\\Charlie\\charlie\\stimuli\\visual\\face_memory_delay\\tar17.bmp'
g23
g23
I750
tp49
a(g18
g19
g20
I27
S'C:\\Users\\Jbarrett\\Charlie\\charlie\\stimuli\\visual\\face_memory_delay\\ddis15.bmp'
g21
g23
I1280
tp50
a(g18
g19
g20
I28
S'C:\\Users\\Jbarrett\\Charlie\\charlie\\stimuli\\visual\\face_memory_delay\\tar03.bmp'
g23
g23
I1121
tp51
a(g18
g19
g20
I29
S'C:\\Users\\Jbarrett\\Charlie\\charlie\\stimuli\\visual\\face_memory_delay\\ddis19.bmp'
g21
g23
I1660
tp52
a(g18
g19
g20
I30
S'C:\\Users\\Jbarrett\\Charlie\\charlie\\stimuli\\visual\\face_memory_delay\\ddis12.bmp'
g21
g21
I710
tp53
a(g18
g19
g20
I31
S'C:\\Users\\Jbarrett\\Charlie\\charlie\\stimuli\\visual\\face_memory_delay\\tar16.bmp'
g23
g23
I1390
tp54
a(g18
g19
g20
I32
S'C:\\Users\\Jbarrett\\Charlie\\charlie\\stimuli\\visual\\face_memory_delay\\tar09.bmp'
g23
g21
I1310
tp55
a(g18
g19
g20
I33
S'C:\\Users\\Jbarrett\\Charlie\\charlie\\stimuli\\visual\\face_memory_delay\\ddis09.bmp'
g21
g21
I910
tp56
a(g18
g19
g20
I34
S'C:\\Users\\Jbarrett\\Charlie\\charlie\\stimuli\\visual\\face_memory_delay\\tar01.bmp'
g23
g23
I850
tp57
a(g18
g19
g20
I35
S'C:\\Users\\Jbarrett\\Charlie\\charlie\\stimuli\\visual\\face_memory_delay\\ddis11.bmp'
g21
g23
I1210
tp58
a(g18
g19
g20
I36
S'C:\\Users\\Jbarrett\\Charlie\\charlie\\stimuli\\visual\\face_memory_delay\\ddis03.bmp'
g21
g23
I630
tp59
a(g18
g19
g20
I37
S'C:\\Users\\Jbarrett\\Charlie\\charlie\\stimuli\\visual\\face_memory_delay\\tar04.bmp'
g23
g23
I760
tp60
a(g18
g19
g20
I38
S'C:\\Users\\Jbarrett\\Charlie\\charlie\\stimuli\\visual\\face_memory_delay\\tar14.bmp'
g23
g21
I1110
tp61
a(g18
g19
g20
I39
S'C:\\Users\\Jbarrett\\Charlie\\charlie\\stimuli\\visual\\face_memory_delay\\ddis06.bmp'
p62
g21
g21
I980
tp63
asS'output_format'
p64
(lp65
(S'proband_id'
p66
c__builtin__
str
p67
tp68
a(S'test_name'
p69
g67
tp70
a(S'phase'
p71
g67
tp72
a(S'trialn'
p73
c__builtin__
int
p74
tp75
a(S'f'
g67
tp76
a(S'ans'
p77
g67
tp78
a(S'rsp'
p79
g67
tp80
a(S'rt'
p81
g74
tp82
asg66
g18
sS'filename'
p83
S'4429_face_memory_delay.data'
p84
sS'initialised'
p85
g8
(S'\x07\xdf\x07\x1b\n1\x16\x06\\\xe8'
tRp86
sS'last_udated'
p87
g8
(S'\x07\xdf\x07\x1b\n1\x16\x06\\\xe8'
tRp88
sg69
S'face_memory_delay'
p89
sS'directory'
p90
S'C:\\Users\\Jbarrett\\Charlie\\charlie\\data\\raw'
p91
sS'user_id'
p92
S'barrett'
p93
sS'test_started'
p94
I01
sS'abs_filename'
p95
S'C:\\Users\\Jbarrett\\Charlie\\charlie\\data\\raw\\4429_face_memory_delay.data'
p96
sS'date_started'
p97
g8
(S'\x07\xdf\x07\x1b\n1$\x00\x0b\xb8'
tRp98
sS'log'
p99
(lp100
(S'2015-07-27 10:49:22.417000'
S'instance created'
p101
tp102
a(S'2015-07-27 10:49:36.013000'
S'instance updated'
p103
tp104
a(S'2015-07-27 10:49:36.022000'
S'pandas DataFrame of data created'
p105
tp106
a(S'2015-07-27 10:49:36.026000'
S'data saved as csv to C:\\Users\\Jbarrett\\Charlie\\charlie\\data\\csv\\4429_face_memory_delay.csv'
tp107
a(S'2015-07-27 10:49:38.095000'
g103
tp108
a(S'2015-07-27 10:49:38.103000'
g105
tp109
a(S'2015-07-27 10:49:38.107000'
S'data saved as csv to C:\\Users\\Jbarrett\\Charlie\\charlie\\data\\csv\\4429_face_memory_delay.csv'
tp110
a(S'2015-07-27 10:49:39.166000'
g103
tp111
a(S'2015-07-27 10:49:39.174000'
g105
tp112
a(S'2015-07-27 10:49:39.178000'
S'data saved as csv to C:\\Users\\Jbarrett\\Charlie\\charlie\\data\\csv\\4429_face_memory_delay.csv'
tp113
a(S'2015-07-27 10:49:40.096000'
g103
tp114
a(S'2015-07-27 10:49:40.105000'
g105
tp115
a(S'2015-07-27 10:49:40.109000'
S'data saved as csv to C:\\Users\\Jbarrett\\Charlie\\charlie\\data\\csv\\4429_face_memory_delay.csv'
tp116
a(S'2015-07-27 10:49:40.848000'
g103
tp117
a(S'2015-07-27 10:49:40.856000'
g105
tp118
a(S'2015-07-27 10:49:40.860000'
S'data saved as csv to C:\\Users\\Jbarrett\\Charlie\\charlie\\data\\csv\\4429_face_memory_delay.csv'
tp119
a(S'2015-07-27 10:49:42.288000'
g103
tp120
a(S'2015-07-27 10:49:42.296000'
g105
tp121
a(S'2015-07-27 10:49:42.300000'
S'data saved as csv to C:\\Users\\Jbarrett\\Charlie\\charlie\\data\\csv\\4429_face_memory_delay.csv'
tp122
a(S'2015-07-27 10:49:43.568000'
g103
tp123
a(S'2015-07-27 10:49:43.577000'
g105
tp124
a(S'2015-07-27 10:49:43.580000'
S'data saved as csv to C:\\Users\\Jbarrett\\Charlie\\charlie\\data\\csv\\4429_face_memory_delay.csv'
tp125
a(S'2015-07-27 10:49:44.348000'
g103
tp126
a(S'2015-07-27 10:49:44.357000'
g105
tp127
a(S'2015-07-27 10:49:44.360000'
S'data saved as csv to C:\\Users\\Jbarrett\\Charlie\\charlie\\data\\csv\\4429_face_memory_delay.csv'
tp128
a(S'2015-07-27 10:49:45.159000'
g103
tp129
a(S'2015-07-27 10:49:45.167000'
g105
tp130
a(S'2015-07-27 10:49:45.171000'
S'data saved as csv to C:\\Users\\Jbarrett\\Charlie\\charlie\\data\\csv\\4429_face_memory_delay.csv'
tp131
a(S'2015-07-27 10:49:45.839000'
g103
tp132
a(S'2015-07-27 10:49:45.847000'
g105
tp133
a(S'2015-07-27 10:49:45.851000'
S'data saved as csv to C:\\Users\\Jbarrett\\Charlie\\charlie\\data\\csv\\4429_face_memory_delay.csv'
tp134
a(S'2015-07-27 10:49:46.929000'
g103
tp135
a(S'2015-07-27 10:49:46.938000'
g105
tp136
a(S'2015-07-27 10:49:46.941000'
S'data saved as csv to C:\\Users\\Jbarrett\\Charlie\\charlie\\data\\csv\\4429_face_memory_delay.csv'
tp137
a(S'2015-07-27 10:49:48.719000'
g103
tp138
a(S'2015-07-27 10:49:48.728000'
g105
tp139
a(S'2015-07-27 10:49:48.731000'
S'data saved as csv to C:\\Users\\Jbarrett\\Charlie\\charlie\\data\\csv\\4429_face_memory_delay.csv'
tp140
a(S'2015-07-27 10:49:49.500000'
g103
tp141
a(S'2015-07-27 10:49:49.509000'
g105
tp142
a(S'2015-07-27 10:49:49.512000'
S'data saved as csv to C:\\Users\\Jbarrett\\Charlie\\charlie\\data\\csv\\4429_face_memory_delay.csv'
tp143
a(S'2015-07-27 10:49:50.441000'
g103
tp144
a(S'2015-07-27 10:49:50.450000'
g105
tp145
a(S'2015-07-27 10:49:50.454000'
S'data saved as csv to C:\\Users\\Jbarrett\\Charlie\\charlie\\data\\csv\\4429_face_memory_delay.csv'
tp146
a(S'2015-07-27 10:49:51.191000'
g103
tp147
a(S'2015-07-27 10:49:51.200000'
g105
tp148
a(S'2015-07-27 10:49:51.204000'
S'data saved as csv to C:\\Users\\Jbarrett\\Charlie\\charlie\\data\\csv\\4429_face_memory_delay.csv'
tp149
a(S'2015-07-27 10:49:52.112000'
g103
tp150
a(S'2015-07-27 10:49:52.121000'
g105
tp151
a(S'2015-07-27 10:49:52.125000'
S'data saved as csv to C:\\Users\\Jbarrett\\Charlie\\charlie\\data\\csv\\4429_face_memory_delay.csv'
tp152
a(S'2015-07-27 10:49:53.343000'
g103
tp153
a(S'2015-07-27 10:49:53.352000'
g105
tp154
a(S'2015-07-27 10:49:53.355000'
S'data saved as csv to C:\\Users\\Jbarrett\\Charlie\\charlie\\data\\csv\\4429_face_memory_delay.csv'
tp155
a(S'2015-07-27 10:49:54.493000'
g103
tp156
a(S'2015-07-27 10:49:54.503000'
g105
tp157
a(S'2015-07-27 10:49:54.505000'
S'data saved as csv to C:\\Users\\Jbarrett\\Charlie\\charlie\\data\\csv\\4429_face_memory_delay.csv'
tp158
a(S'2015-07-27 10:49:55.702000'
g103
tp159
a(S'2015-07-27 10:49:55.711000'
g105
tp160
a(S'2015-07-27 10:49:55.715000'
S'data saved as csv to C:\\Users\\Jbarrett\\Charlie\\charlie\\data\\csv\\4429_face_memory_delay.csv'
tp161
a(S'2015-07-27 10:49:56.633000'
g103
tp162
a(S'2015-07-27 10:49:56.642000'
g105
tp163
a(S'2015-07-27 10:49:56.646000'
S'data saved as csv to C:\\Users\\Jbarrett\\Charlie\\charlie\\data\\csv\\4429_face_memory_delay.csv'
tp164
a(S'2015-07-27 10:49:57.825000'
g103
tp165
a(S'2015-07-27 10:49:57.834000'
g105
tp166
a(S'2015-07-27 10:49:57.838000'
S'data saved as csv to C:\\Users\\Jbarrett\\Charlie\\charlie\\data\\csv\\4429_face_memory_delay.csv'
tp167
a(S'2015-07-27 10:49:59.615000'
g103
tp168
a(S'2015-07-27 10:49:59.624000'
g105
tp169
a(S'2015-07-27 10:49:59.628000'
S'data saved as csv to C:\\Users\\Jbarrett\\Charlie\\charlie\\data\\csv\\4429_face_memory_delay.csv'
tp170
a(S'2015-07-27 10:50:01.415000'
g103
tp171
a(S'2015-07-27 10:50:01.424000'
g105
tp172
a(S'2015-07-27 10:50:01.428000'
S'data saved as csv to C:\\Users\\Jbarrett\\Charlie\\charlie\\data\\csv\\4429_face_memory_delay.csv'
tp173
a(S'2015-07-27 10:50:02.344000'
g103
tp174
a(S'2015-07-27 10:50:02.353000'
g105
tp175
a(S'2015-07-27 10:50:02.357000'
S'data saved as csv to C:\\Users\\Jbarrett\\Charlie\\charlie\\data\\csv\\4429_face_memory_delay.csv'
tp176
a(S'2015-07-27 10:50:03.435000'
g103
tp177
a(S'2015-07-27 10:50:03.444000'
g105
tp178
a(S'2015-07-27 10:50:03.448000'
S'data saved as csv to C:\\Users\\Jbarrett\\Charlie\\charlie\\data\\csv\\4429_face_memory_delay.csv'
tp179
a(S'2015-07-27 10:50:05.637000'
g103
tp180
a(S'2015-07-27 10:50:05.646000'
g105
tp181
a(S'2015-07-27 10:50:05.650000'
S'data saved as csv to C:\\Users\\Jbarrett\\Charlie\\charlie\\data\\csv\\4429_face_memory_delay.csv'
tp182
a(S'2015-07-27 10:50:06.529000'
g103
tp183
a(S'2015-07-27 10:50:06.539000'
g105
tp184
a(S'2015-07-27 10:50:06.543000'
S'data saved as csv to C:\\Users\\Jbarrett\\Charlie\\charlie\\data\\csv\\4429_face_memory_delay.csv'
tp185
a(S'2015-07-27 10:50:07.951000'
g103
tp186
a(S'2015-07-27 10:50:07.960000'
g105
tp187
a(S'2015-07-27 10:50:07.964000'
S'data saved as csv to C:\\Users\\Jbarrett\\Charlie\\charlie\\data\\csv\\4429_face_memory_delay.csv'
tp188
a(S'2015-07-27 10:50:09.210000'
g103
tp189
a(S'2015-07-27 10:50:09.219000'
g105
tp190
a(S'2015-07-27 10:50:09.223000'
S'data saved as csv to C:\\Users\\Jbarrett\\Charlie\\charlie\\data\\csv\\4429_face_memory_delay.csv'
tp191
a(S'2015-07-27 10:50:11.008000'
g103
tp192
a(S'2015-07-27 10:50:11.017000'
g105
tp193
a(S'2015-07-27 10:50:11.021000'
S'data saved as csv to C:\\Users\\Jbarrett\\Charlie\\charlie\\data\\csv\\4429_face_memory_delay.csv'
tp194
a(S'2015-07-27 10:50:11.858000'
g103
tp195
a(S'2015-07-27 10:50:11.867000'
g105
tp196
a(S'2015-07-27 10:50:11.871000'
S'data saved as csv to C:\\Users\\Jbarrett\\Charlie\\charlie\\data\\csv\\4429_face_memory_delay.csv'
tp197
a(S'2015-07-27 10:50:13.389000'
g103
tp198
a(S'2015-07-27 10:50:13.398000'
g105
tp199
a(S'2015-07-27 10:50:13.402000'
S'data saved as csv to C:\\Users\\Jbarrett\\Charlie\\charlie\\data\\csv\\4429_face_memory_delay.csv'
tp200
a(S'2015-07-27 10:50:14.841000'
g103
tp201
a(S'2015-07-27 10:50:14.850000'
g105
tp202
a(S'2015-07-27 10:50:14.854000'
S'data saved as csv to C:\\Users\\Jbarrett\\Charlie\\charlie\\data\\csv\\4429_face_memory_delay.csv'
tp203
a(S'2015-07-27 10:50:15.893000'
g103
tp204
a(S'2015-07-27 10:50:15.902000'
g105
tp205
a(S'2015-07-27 10:50:15.906000'
S'data saved as csv to C:\\Users\\Jbarrett\\Charlie\\charlie\\data\\csv\\4429_face_memory_delay.csv'
tp206
a(S'2015-07-27 10:50:16.883000'
g103
tp207
a(S'2015-07-27 10:50:16.892000'
g105
tp208
a(S'2015-07-27 10:50:16.897000'
S'data saved as csv to C:\\Users\\Jbarrett\\Charlie\\charlie\\data\\csv\\4429_face_memory_delay.csv'
tp209
a(S'2015-07-27 10:50:18.233000'
g103
tp210
a(S'2015-07-27 10:50:18.243000'
g105
tp211
a(S'2015-07-27 10:50:18.246000'
S'data saved as csv to C:\\Users\\Jbarrett\\Charlie\\charlie\\data\\csv\\4429_face_memory_delay.csv'
tp212
a(S'2015-07-27 10:50:19.004000'
g103
tp213
a(S'2015-07-27 10:50:19.014000'
g105
tp214
a(S'2015-07-27 10:50:19.018000'
S'data saved as csv to C:\\Users\\Jbarrett\\Charlie\\charlie\\data\\csv\\4429_face_memory_delay.csv'
tp215
a(S'2015-07-27 10:50:19.906000'
g103
tp216
a(S'2015-07-27 10:50:19.916000'
g105
tp217
a(S'2015-07-27 10:50:19.920000'
S'data saved as csv to C:\\Users\\Jbarrett\\Charlie\\charlie\\data\\csv\\4429_face_memory_delay.csv'
tp218
a(S'2015-07-27 10:50:21.158000'
g103
tp219
a(S'2015-07-27 10:50:21.168000'
g105
tp220
a(S'2015-07-27 10:50:21.172000'
S'data saved as csv to C:\\Users\\Jbarrett\\Charlie\\charlie\\data\\csv\\4429_face_memory_delay.csv'
tp221
a(S'2015-07-27 10:50:22.281000'
g103
tp222
a(S'2015-07-27 10:50:22.291000'
g105
tp223
a(S'2015-07-27 10:50:22.294000'
S'data saved as csv to C:\\Users\\Jbarrett\\Charlie\\charlie\\data\\csv\\4429_face_memory_delay.csv'
tp224
asb.