(icharlie.tools.data
Data
p1
(dp2
S'lang'
p3
S'EN'
p4
sS'control'
p5
(lp6
sS'last_updated'
p7
cdatetime
datetime
p8
(S'\x07\xdf\x07\x1c\x0c\x03\n\x0cD\xa0'
tRp9
sS'last_opened'
p10
g8
(S'\x07\xdf\x07\x1c\x0b;\x1d\n{\x98'
tRp11
sS'proj_id'
p12
S'connectivity'
p13
sS'date_done'
p14
NsS'test_done'
p15
I01
sS'data'
p16
(lp17
(S'4430'
p18
S'digit_symbol'
p19
S'practice'
p20
I0
I2
I2
S'Yes'
p21
S'C:\\Users\\oleach\\Charlie-master\\Charlie-master\\charlie\\stimuli\\visual\\digit_symbol\\sym2.bmp'
g21
I5491
tp22
a(g18
g19
g20
I1
I6
I6
g21
S'C:\\Users\\oleach\\Charlie-master\\Charlie-master\\charlie\\stimuli\\visual\\digit_symbol\\sym6.bmp'
g21
I3360
tp23
a(g18
g19
g20
I2
I8
I4
S'No'
p24
S'C:\\Users\\oleach\\Charlie-master\\Charlie-master\\charlie\\stimuli\\visual\\digit_symbol\\sym4.bmp'
g21
I4500
tp25
a(g18
g19
g20
I3
I4
I4
g21
S'C:\\Users\\oleach\\Charlie-master\\Charlie-master\\charlie\\stimuli\\visual\\digit_symbol\\sym4.bmp'
g21
I4451
tp26
a(g18
g19
g20
I4
I7
I7
g21
S'C:\\Users\\oleach\\Charlie-master\\Charlie-master\\charlie\\stimuli\\visual\\digit_symbol\\sym7.bmp'
g21
I3460
tp27
a(g18
g19
g20
I5
I6
I5
g24
S'C:\\Users\\oleach\\Charlie-master\\Charlie-master\\charlie\\stimuli\\visual\\digit_symbol\\sym5.bmp'
g24
I1240
tp28
a(g18
g19
g20
I6
I2
I8
g24
S'C:\\Users\\oleach\\Charlie-master\\Charlie-master\\charlie\\stimuli\\visual\\digit_symbol\\sym8.bmp'
g21
I4791
tp29
a(g18
g19
g20
I7
I9
I2
g24
S'C:\\Users\\oleach\\Charlie-master\\Charlie-master\\charlie\\stimuli\\visual\\digit_symbol\\sym2.bmp'
g21
I6860
tp30
a(g18
g19
g20
I8
I3
I7
g24
S'C:\\Users\\oleach\\Charlie-master\\Charlie-master\\charlie\\stimuli\\visual\\digit_symbol\\sym7.bmp'
g24
I9761
tp31
a(g18
g19
g20
I9
I5
I6
g24
S'C:\\Users\\oleach\\Charlie-master\\Charlie-master\\charlie\\stimuli\\visual\\digit_symbol\\sym6.bmp'
g24
I2720
tp32
a(g18
g19
S'test'
p33
I0
I8
I8
g21
S'C:\\Users\\oleach\\Charlie-master\\Charlie-master\\charlie\\stimuli\\visual\\digit_symbol\\sym8.bmp'
g21
I2506
tp34
a(g18
g19
g33
I1
I1
I4
g24
S'C:\\Users\\oleach\\Charlie-master\\Charlie-master\\charlie\\stimuli\\visual\\digit_symbol\\sym4.bmp'
g24
I2504
tp35
a(g18
g19
g33
I2
I2
I8
g24
S'C:\\Users\\oleach\\Charlie-master\\Charlie-master\\charlie\\stimuli\\visual\\digit_symbol\\sym8.bmp'
g24
I2103
tp36
a(g18
g19
g33
I3
I6
I2
g24
S'C:\\Users\\oleach\\Charlie-master\\Charlie-master\\charlie\\stimuli\\visual\\digit_symbol\\sym2.bmp'
g24
I2603
tp37
a(g18
g19
g33
I4
I4
I4
g21
S'C:\\Users\\oleach\\Charlie-master\\Charlie-master\\charlie\\stimuli\\visual\\digit_symbol\\sym4.bmp'
g21
I2003
tp38
a(g18
g19
g33
I5
I9
I5
g24
S'C:\\Users\\oleach\\Charlie-master\\Charlie-master\\charlie\\stimuli\\visual\\digit_symbol\\sym5.bmp'
g24
I2803
tp39
a(g18
g19
g33
I6
I5
I6
g24
S'C:\\Users\\oleach\\Charlie-master\\Charlie-master\\charlie\\stimuli\\visual\\digit_symbol\\sym6.bmp'
g24
I2503
tp40
a(g18
g19
g33
I7
I3
I3
g21
S'C:\\Users\\oleach\\Charlie-master\\Charlie-master\\charlie\\stimuli\\visual\\digit_symbol\\sym3.bmp'
g21
I2704
tp41
a(g18
g19
g33
I8
I4
I4
g21
S'C:\\Users\\oleach\\Charlie-master\\Charlie-master\\charlie\\stimuli\\visual\\digit_symbol\\sym4.bmp'
g21
I2203
tp42
a(g18
g19
g33
I9
I9
I9
g21
S'C:\\Users\\oleach\\Charlie-master\\Charlie-master\\charlie\\stimuli\\visual\\digit_symbol\\sym9.bmp'
g21
I4003
tp43
a(g18
g19
g33
I10
I6
I6
g21
S'C:\\Users\\oleach\\Charlie-master\\Charlie-master\\charlie\\stimuli\\visual\\digit_symbol\\sym6.bmp'
g21
I1703
tp44
a(g18
g19
g33
I11
I1
I1
g21
S'C:\\Users\\oleach\\Charlie-master\\Charlie-master\\charlie\\stimuli\\visual\\digit_symbol\\sym1.bmp'
g21
I1803
tp45
a(g18
g19
g33
I12
I2
I2
g21
S'C:\\Users\\oleach\\Charlie-master\\Charlie-master\\charlie\\stimuli\\visual\\digit_symbol\\sym2.bmp'
g21
I1703
tp46
a(g18
g19
g33
I13
I7
I7
g21
S'C:\\Users\\oleach\\Charlie-master\\Charlie-master\\charlie\\stimuli\\visual\\digit_symbol\\sym7.bmp'
g21
I2403
tp47
a(g18
g19
g33
I14
I3
I3
g21
S'C:\\Users\\oleach\\Charlie-master\\Charlie-master\\charlie\\stimuli\\visual\\digit_symbol\\sym3.bmp'
g21
I1603
tp48
a(g18
g19
g33
I15
I8
I8
g21
S'C:\\Users\\oleach\\Charlie-master\\Charlie-master\\charlie\\stimuli\\visual\\digit_symbol\\sym8.bmp'
g21
I3404
tp49
a(g18
g19
g33
I16
I7
I7
g21
S'C:\\Users\\oleach\\Charlie-master\\Charlie-master\\charlie\\stimuli\\visual\\digit_symbol\\sym7.bmp'
g21
I1503
tp50
a(g18
g19
g33
I17
I5
I3
g24
S'C:\\Users\\oleach\\Charlie-master\\Charlie-master\\charlie\\stimuli\\visual\\digit_symbol\\sym3.bmp'
g24
I1904
tp51
a(g18
g19
g33
I18
I1
I5
g24
S'C:\\Users\\oleach\\Charlie-master\\Charlie-master\\charlie\\stimuli\\visual\\digit_symbol\\sym5.bmp'
g24
I1803
tp52
a(g18
g19
g33
I19
I4
I4
g21
S'C:\\Users\\oleach\\Charlie-master\\Charlie-master\\charlie\\stimuli\\visual\\digit_symbol\\sym4.bmp'
g21
I1703
tp53
a(g18
g19
g33
I20
I7
I8
g24
S'C:\\Users\\oleach\\Charlie-master\\Charlie-master\\charlie\\stimuli\\visual\\digit_symbol\\sym8.bmp'
g24
I1603
tp54
a(g18
g19
g33
I21
I4
I4
g21
S'C:\\Users\\oleach\\Charlie-master\\Charlie-master\\charlie\\stimuli\\visual\\digit_symbol\\sym4.bmp'
g21
I2503
tp55
a(g18
g19
g33
I22
I8
I8
g21
S'C:\\Users\\oleach\\Charlie-master\\Charlie-master\\charlie\\stimuli\\visual\\digit_symbol\\sym8.bmp'
g24
I2803
tp56
a(g18
g19
g33
I23
I3
I3
g21
S'C:\\Users\\oleach\\Charlie-master\\Charlie-master\\charlie\\stimuli\\visual\\digit_symbol\\sym3.bmp'
g21
I3104
tp57
a(g18
g19
g33
I24
I5
I5
g21
S'C:\\Users\\oleach\\Charlie-master\\Charlie-master\\charlie\\stimuli\\visual\\digit_symbol\\sym5.bmp'
g21
I2403
tp58
a(g18
g19
g33
I25
I3
I1
g24
S'C:\\Users\\oleach\\Charlie-master\\Charlie-master\\charlie\\stimuli\\visual\\digit_symbol\\sym1.bmp'
g24
I2803
tp59
a(g18
g19
g33
I26
I6
I9
g24
S'C:\\Users\\oleach\\Charlie-master\\Charlie-master\\charlie\\stimuli\\visual\\digit_symbol\\sym9.bmp'
g24
I4803
tp60
a(g18
g19
g33
I27
I2
I2
g21
S'C:\\Users\\oleach\\Charlie-master\\Charlie-master\\charlie\\stimuli\\visual\\digit_symbol\\sym2.bmp'
g21
I2303
tp61
a(g18
g19
g33
I28
I8
I8
g21
S'C:\\Users\\oleach\\Charlie-master\\Charlie-master\\charlie\\stimuli\\visual\\digit_symbol\\sym8.bmp'
g21
I2204
tp62
a(g18
g19
g33
I29
I9
I2
g24
S'C:\\Users\\oleach\\Charlie-master\\Charlie-master\\charlie\\stimuli\\visual\\digit_symbol\\sym2.bmp'
g24
I1803
tp63
a(g18
g19
g33
I30
I1
I6
g24
S'C:\\Users\\oleach\\Charlie-master\\Charlie-master\\charlie\\stimuli\\visual\\digit_symbol\\sym6.bmp'
g24
I2203
tp64
a(g18
g19
g33
I31
I5
I4
g24
S'C:\\Users\\oleach\\Charlie-master\\Charlie-master\\charlie\\stimuli\\visual\\digit_symbol\\sym4.bmp'
g24
I2603
tp65
a(g18
g19
g33
I32
I6
I6
g21
S'C:\\Users\\oleach\\Charlie-master\\Charlie-master\\charlie\\stimuli\\visual\\digit_symbol\\sym6.bmp'
g21
I2102
tp66
a(g18
g19
g33
I33
I2
I2
g21
S'C:\\Users\\oleach\\Charlie-master\\Charlie-master\\charlie\\stimuli\\visual\\digit_symbol\\sym2.bmp'
g21
I3703
tp67
a(g18
g19
g33
I34
I9
I9
g21
S'C:\\Users\\oleach\\Charlie-master\\Charlie-master\\charlie\\stimuli\\visual\\digit_symbol\\sym9.bmp'
g21
I2103
tp68
a(g18
g19
g33
I35
I7
I7
g21
S'C:\\Users\\oleach\\Charlie-master\\Charlie-master\\charlie\\stimuli\\visual\\digit_symbol\\sym7.bmp'
g21
I1803
tp69
asS'output_format'
p70
(lp71
(S'proband_id'
p72
c__builtin__
str
p73
tp74
a(S'test_name'
p75
g73
tp76
a(S'phase'
p77
g73
tp78
a(S'trialn'
p79
c__builtin__
int
p80
tp81
a(S'digit'
p82
g80
tp83
a(S'symbol'
p84
g80
tp85
a(S'ans'
p86
g73
tp87
a(S'f'
g73
tp88
a(S'rsp'
p89
g73
tp90
a(S'rt'
p91
g80
tp92
asg72
g18
sS'filename'
p93
S'4430_digit_symbol.data'
p94
sS'initialised'
p95
g8
(S'\x07\xdf\x07\x1c\x0b;\x1d\n{\x98'
tRp96
sS'last_udated'
p97
g8
(S'\x07\xdf\x07\x1c\x0b;\x1d\n{\x98'
tRp98
sg75
S'digit_symbol'
p99
sS'directory'
p100
S'C:\\Users\\oleach\\Charlie-master\\Charlie-master\\charlie\\data\\raw'
p101
sS'user_id'
p102
S'oleach'
p103
sS'test_started'
p104
I01
sS'abs_filename'
p105
S'C:\\Users\\oleach\\Charlie-master\\Charlie-master\\charlie\\data\\raw\\4430_digit_symbol.data'
p106
sS'date_started'
p107
g8
(S'\x07\xdf\x07\x1c\x0c\x00\x14\x01\xa5\xe0'
tRp108
sS'log'
p109
(lp110
(S'2015-07-28 11:59:29.687000'
S'instance created'
p111
tp112
a(S'2015-07-28 12:00:20.117000'
S'instance updated'
p113
tp114
a(S'2015-07-28 12:00:20.126000'
S'pandas DataFrame of data created'
p115
tp116
a(S'2015-07-28 12:00:20.130000'
S'data saved as csv to C:\\Users\\oleach\\Charlie-master\\Charlie-master\\charlie\\data\\csv\\4430_digit_symbol.csv'
tp117
a(S'2015-07-28 12:00:24.518000'
g113
tp118
a(S'2015-07-28 12:00:24.528000'
g115
tp119
a(S'2015-07-28 12:00:24.532000'
S'data saved as csv to C:\\Users\\oleach\\Charlie-master\\Charlie-master\\charlie\\data\\csv\\4430_digit_symbol.csv'
tp120
a(S'2015-07-28 12:00:30.083000'
g113
tp121
a(S'2015-07-28 12:00:30.093000'
g115
tp122
a(S'2015-07-28 12:00:30.097000'
S'data saved as csv to C:\\Users\\oleach\\Charlie-master\\Charlie-master\\charlie\\data\\csv\\4430_digit_symbol.csv'
tp123
a(S'2015-07-28 12:00:35.575000'
g113
tp124
a(S'2015-07-28 12:00:35.585000'
g115
tp125
a(S'2015-07-28 12:00:35.589000'
S'data saved as csv to C:\\Users\\oleach\\Charlie-master\\Charlie-master\\charlie\\data\\csv\\4430_digit_symbol.csv'
tp126
a(S'2015-07-28 12:00:40.077000'
g113
tp127
a(S'2015-07-28 12:00:40.086000'
g115
tp128
a(S'2015-07-28 12:00:40.090000'
S'data saved as csv to C:\\Users\\oleach\\Charlie-master\\Charlie-master\\charlie\\data\\csv\\4430_digit_symbol.csv'
tp129
a(S'2015-07-28 12:00:47.558000'
g113
tp130
a(S'2015-07-28 12:00:47.569000'
g115
tp131
a(S'2015-07-28 12:00:47.572000'
S'data saved as csv to C:\\Users\\oleach\\Charlie-master\\Charlie-master\\charlie\\data\\csv\\4430_digit_symbol.csv'
tp132
a(S'2015-07-28 12:00:53.389000'
g113
tp133
a(S'2015-07-28 12:00:53.398000'
g115
tp134
a(S'2015-07-28 12:00:53.402000'
S'data saved as csv to C:\\Users\\oleach\\Charlie-master\\Charlie-master\\charlie\\data\\csv\\4430_digit_symbol.csv'
tp135
a(S'2015-07-28 12:01:01.291000'
g113
tp136
a(S'2015-07-28 12:01:01.301000'
g115
tp137
a(S'2015-07-28 12:01:01.304000'
S'data saved as csv to C:\\Users\\oleach\\Charlie-master\\Charlie-master\\charlie\\data\\csv\\4430_digit_symbol.csv'
tp138
a(S'2015-07-28 12:01:12.093000'
g113
tp139
a(S'2015-07-28 12:01:12.103000'
g115
tp140
a(S'2015-07-28 12:01:12.107000'
S'data saved as csv to C:\\Users\\oleach\\Charlie-master\\Charlie-master\\charlie\\data\\csv\\4430_digit_symbol.csv'
tp141
a(S'2015-07-28 12:01:15.855000'
g113
tp142
a(S'2015-07-28 12:01:15.865000'
g115
tp143
a(S'2015-07-28 12:01:15.868000'
S'data saved as csv to C:\\Users\\oleach\\Charlie-master\\Charlie-master\\charlie\\data\\csv\\4430_digit_symbol.csv'
tp144
a(S'2015-07-28 12:03:10.786000'
g113
tp145
a(S'2015-07-28 12:03:10.796000'
g115
tp146
a(S'2015-07-28 12:03:10.801000'
S'data saved as csv to C:\\Users\\oleach\\Charlie-master\\Charlie-master\\charlie\\data\\csv\\4430_digit_symbol.csv'
tp147
asb.