(icharlie.tools.data
Data
p1
(dp2
S'lang'
p3
S'EN'
p4
sS'control'
p5
(lp6
sS'last_updated'
p7
cdatetime
datetime
p8
(S'\x07\xdf\x07\x1c\x0e1\x1c\x002\xc8'
tRp9
sS'last_opened'
p10
g8
(S'\x07\xdf\x07\x1c\x0e-\x19\n\x06h'
tRp11
sS'proj_id'
p12
S'connectivity'
p13
sS'date_done'
p14
NsS'test_done'
p15
I01
sS'data'
p16
(lp17
(S'4430'
p18
S'ctrails'
p19
S'number'
p20
S'practice'
p21
I0
I1
S'Correct'
p22
I2900
I9036
tp23
a(g18
g19
g20
g21
I1
I2
g22
I1320
I9036
tp24
a(g18
g19
g20
g21
I2
I3
g22
I920
I9036
tp25
a(g18
g19
g20
g21
I3
I4
g22
I490
I9036
tp26
a(g18
g19
g20
g21
I4
I5
g22
I790
I9036
tp27
a(g18
g19
g20
g21
I5
I6
g22
I890
I9036
tp28
a(g18
g19
g20
g21
I6
I7
g22
I860
I9036
tp29
a(g18
g19
g20
g21
I7
I8
g22
I820
I9036
tp30
a(g18
g19
g20
S'test'
p31
I0
I1
g22
I2520
I45257
tp32
a(g18
g19
g20
g31
I1
I2
g22
I940
I45257
tp33
a(g18
g19
g20
g31
I2
I3
g22
I1570
I45257
tp34
a(g18
g19
g20
g31
I3
I4
g22
I790
I45257
tp35
a(g18
g19
g20
g31
I4
I5
g22
I750
I45257
tp36
a(g18
g19
g20
g31
I5
I6
g22
I2060
I45257
tp37
a(g18
g19
g20
g31
I6
I7
g22
I860
I45257
tp38
a(g18
g19
g20
g31
I7
I8
g22
I640
I45257
tp39
a(g18
g19
g20
g31
I8
I9
g22
I790
I45257
tp40
a(g18
g19
g20
g31
I9
I10
g22
I890
I45257
tp41
a(g18
g19
g20
g31
I10
I11
g22
I1310
I45257
tp42
a(g18
g19
g20
g31
I11
I12
g22
I661
I45257
tp43
a(g18
g19
g20
g31
I12
I13
g22
I970
I45257
tp44
a(g18
g19
g20
g31
I13
I14
g22
I2570
I45257
tp45
a(g18
g19
g20
g31
I14
I15
g22
I4430
I45257
tp46
a(g18
g19
g20
g31
I15
I16
g22
I4000
I45257
tp47
a(g18
g19
g20
g31
I16
I17
g22
I2470
I45257
tp48
a(g18
g19
g20
g31
I17
I18
g22
I1340
I45257
tp49
a(g18
g19
g20
g31
I18
I19
g22
I660
I45257
tp50
a(g18
g19
g20
g31
I19
I20
g22
I981
I45257
tp51
a(g18
g19
g20
g31
I20
I21
g22
I8880
I45257
tp52
a(g18
g19
g20
g31
I21
I22
g22
I1020
I45257
tp53
a(g18
g19
g20
g31
I22
I23
g22
I1860
I45257
tp54
a(g18
g19
g20
g31
I23
I24
g22
I770
I45257
tp55
a(g18
g19
g20
g31
I24
I25
g22
I1410
I45257
tp56
a(g18
g19
S'letter'
p57
g21
I0
S'a'
g22
I1590
I6972
tp58
a(g18
g19
g57
g21
I1
S'b'
g22
I910
I6972
tp59
a(g18
g19
g57
g21
I2
S'c'
g22
I750
I6972
tp60
a(g18
g19
g57
g21
I3
S'd'
g22
I620
I6972
tp61
a(g18
g19
g57
g21
I4
S'e'
g22
I650
I6972
tp62
a(g18
g19
g57
g21
I5
S'f'
g22
I760
I6972
tp63
a(g18
g19
g57
g21
I6
S'g'
g22
I670
I6972
tp64
a(g18
g19
g57
g21
I7
S'h'
g22
I980
I6972
tp65
a(g18
g19
g57
g31
I0
S'a'
g22
I3090
I30387
tp66
a(g18
g19
g57
g31
I1
S'b'
g22
I1600
I30387
tp67
a(g18
g19
g57
g31
I2
S'c'
g22
I1020
I30387
tp68
a(g18
g19
g57
g31
I3
S'd'
g22
I1080
I30387
tp69
a(g18
g19
g57
g31
I4
S'e'
g22
I530
I30387
tp70
a(g18
g19
g57
g31
I5
S'f'
g22
I450
I30387
tp71
a(g18
g19
g57
g31
I6
S'g'
g22
I1330
I30387
tp72
a(g18
g19
g57
g31
I7
S'h'
g22
I960
I30387
tp73
a(g18
g19
g57
g31
I8
S'i'
g22
I2080
I30387
tp74
a(g18
g19
g57
g31
I9
S'j'
g22
I1640
I30387
tp75
a(g18
g19
g57
g31
I10
S'k'
g22
I851
I30387
tp76
a(g18
g19
g57
g31
I11
S'l'
g22
I2450
I30387
tp77
a(g18
g19
g57
g31
I12
S'm'
g22
I640
I30387
tp78
a(g18
g19
g57
g31
I13
S'n'
g22
I1240
I30387
tp79
a(g18
g19
g57
g31
I14
S'o'
g22
I670
I30387
tp80
a(g18
g19
g57
g31
I15
S'p'
g22
I1670
I30387
tp81
a(g18
g19
g57
g31
I16
S'q'
g22
I1100
I30387
tp82
a(g18
g19
g57
g31
I17
S'r'
g22
I880
I30387
tp83
a(g18
g19
g57
g31
I18
S's'
g22
I660
I30387
tp84
a(g18
g19
g57
g31
I19
S't'
g22
I680
I30387
tp85
a(g18
g19
g57
g31
I20
S'u'
g22
I650
I30387
tp86
a(g18
g19
g57
g31
I21
S'v'
g22
I970
I30387
tp87
a(g18
g19
g57
g31
I22
S'w'
g22
I2420
I30387
tp88
a(g18
g19
g57
g31
I23
S'x'
g22
I820
I30387
tp89
a(g18
g19
g57
g31
I24
S'y'
g22
I790
I30387
tp90
a(g18
g19
S'number-letter'
p91
g21
I0
S'a'
S'Incorrect'
p92
I2101
I10759
tp93
a(g18
g19
g91
g21
I1
I1
g22
I2210
I10759
tp94
a(g18
g19
g91
g21
I2
S'a'
g22
I760
I10759
tp95
a(g18
g19
g91
g21
I3
I2
g22
I1170
I10759
tp96
a(g18
g19
g91
g21
I4
S'b'
g22
I1000
I10759
tp97
a(g18
g19
g91
g21
I5
I3
g22
I1330
I10759
tp98
a(g18
g19
g91
g21
I6
S'c'
g22
I760
I10759
tp99
a(g18
g19
g91
g21
I7
I4
g22
I690
I10759
tp100
a(g18
g19
g91
g21
I8
S'd'
g22
I690
I10759
tp101
a(g18
g19
g91
g31
I0
I1
g22
I1920
I63109
tp102
a(g18
g19
g91
g31
I1
S'a'
g22
I760
I63109
tp103
a(g18
g19
g91
g31
I2
I2
g22
I830
I63109
tp104
a(g18
g19
g91
g31
I3
S'b'
g22
I2570
I63109
tp105
a(g18
g19
g91
g31
I4
I3
g22
I1280
I63109
tp106
a(g18
g19
g91
g31
I5
S'c'
g22
I2690
I63109
tp107
a(g18
g19
g91
g31
I6
I4
g22
I1190
I63109
tp108
a(g18
g19
g91
g31
I7
S'd'
g22
I1020
I63109
tp109
a(g18
g19
g91
g31
I8
I5
g22
I3040
I63109
tp110
a(g18
g19
g91
g31
I9
S'e'
g22
I760
I63109
tp111
a(g18
g19
g91
g31
I10
I6
g22
I4291
I63109
tp112
a(g18
g19
g91
g31
I11
S'f'
g22
I1750
I63109
tp113
a(g18
g19
g91
g31
I12
I7
g22
I3070
I63109
tp114
a(g18
g19
g91
g31
I13
S'g'
g22
I5800
I63109
tp115
a(g18
g19
g91
g31
I14
I8
g22
I6121
I63109
tp116
a(g18
g19
g91
g31
I15
S'h'
g22
I1190
I63109
tp117
a(g18
g19
g91
g31
I16
I9
g22
I1570
I63109
tp118
a(g18
g19
g91
g31
I17
S'i'
g22
I8490
I63109
tp119
a(g18
g19
g91
g31
I18
I10
g22
I3531
I63109
tp120
a(g18
g19
g91
g31
I19
S'j'
g22
I1200
I63109
tp121
a(g18
g19
g91
g31
I20
I11
g22
I1700
I63109
tp122
a(g18
g19
g91
g31
I21
S'k'
g22
I1360
I63109
tp123
a(g18
g19
g91
g31
I22
I12
g22
I3230
I63109
tp124
a(g18
g19
g91
g31
I23
S'l'
g22
I1030
I63109
tp125
a(g18
g19
g91
g31
I24
I13
g22
I2600
I63109
tp126
asS'output_format'
p127
(lp128
(S'proband_id'
p129
c__builtin__
str
p130
tp131
a(S'test_name'
p132
g130
tp133
a(S'phase'
p134
g130
tp135
a(S'trial_type'
p136
g130
tp137
a(S'n'
c__builtin__
int
p138
tp139
a(S'rsp'
p140
g130
tp141
a(S'corr'
p142
g130
tp143
a(S'rt'
p144
g138
tp145
a(S'total_time'
p146
g138
tp147
asg129
g18
sS'filename'
p148
S'4430_ctrails.data'
p149
sS'initialised'
p150
g8
(S'\x07\xdf\x07\x1c\x0e-\x19\n\x06h'
tRp151
sS'last_udated'
p152
g8
(S'\x07\xdf\x07\x1c\x0e-\x19\n\x06h'
tRp153
sg132
S'ctrails'
p154
sS'directory'
p155
S'C:\\Users\\oleach\\Charlie-master\\Charlie-master\\charlie\\data\\raw'
p156
sS'user_id'
p157
S'oleach'
p158
sS'test_started'
p159
I01
sS'abs_filename'
p160
S'C:\\Users\\oleach\\Charlie-master\\Charlie-master\\charlie\\data\\raw\\4430_ctrails.data'
p161
sS'date_started'
p162
g8
(S'\x07\xdf\x07\x1c\x0e-8\x0b>\xe8'
tRp163
sS'log'
p164
(lp165
(S'2015-07-28 14:45:25.657000'
S'instance created'
p166
tp167
a(S'2015-07-28 14:45:56.747000'
S'instance updated'
p168
tp169
a(S'2015-07-28 14:45:56.755000'
S'pandas DataFrame of data created'
p170
tp171
a(S'2015-07-28 14:45:56.760000'
S'data saved as csv to C:\\Users\\oleach\\Charlie-master\\Charlie-master\\charlie\\data\\csv\\4430_ctrails.csv'
tp172
a(S'2015-07-28 14:46:52.967000'
g168
tp173
a(S'2015-07-28 14:46:52.977000'
g170
tp174
a(S'2015-07-28 14:46:52.980000'
S'data saved as csv to C:\\Users\\oleach\\Charlie-master\\Charlie-master\\charlie\\data\\csv\\4430_ctrails.csv'
tp175
a(S'2015-07-28 14:47:09.004000'
g168
tp176
a(S'2015-07-28 14:47:09.013000'
g170
tp177
a(S'2015-07-28 14:47:09.017000'
S'data saved as csv to C:\\Users\\oleach\\Charlie-master\\Charlie-master\\charlie\\data\\csv\\4430_ctrails.csv'
tp178
a(S'2015-07-28 14:47:47.581000'
g168
tp179
a(S'2015-07-28 14:47:47.591000'
g170
tp180
a(S'2015-07-28 14:47:47.595000'
S'data saved as csv to C:\\Users\\oleach\\Charlie-master\\Charlie-master\\charlie\\data\\csv\\4430_ctrails.csv'
tp181
a(S'2015-07-28 14:48:16.483000'
g168
tp182
a(S'2015-07-28 14:48:16.493000'
g170
tp183
a(S'2015-07-28 14:48:16.497000'
S'data saved as csv to C:\\Users\\oleach\\Charlie-master\\Charlie-master\\charlie\\data\\csv\\4430_ctrails.csv'
tp184
a(S'2015-07-28 14:49:27.999000'
g168
tp185
a(S'2015-07-28 14:49:28.009000'
g170
tp186
a(S'2015-07-28 14:49:28.013000'
S'data saved as csv to C:\\Users\\oleach\\Charlie-master\\Charlie-master\\charlie\\data\\csv\\4430_ctrails.csv'
tp187
asb.