(icharlie.tools.data
Data
p1
(dp2
S'lang'
p3
S'EN'
p4
sS'control'
p5
(lp6
sS'last_updated'
p7
cdatetime
datetime
p8
(S'\x07\xdf\x07\x1c\x0e-\x18\nD\xe8'
tRp9
sS'last_opened'
p10
g8
(S"\x07\xdf\x07\x1c\x0e'\x10\x06\x80\x10"
tRp11
sS'proj_id'
p12
S'connectivity'
p13
sS'date_done'
p14
NsS'test_done'
p15
I01
sS'data'
p16
(lp17
(S'4430'
p18
S'scap'
p19
S'practice'
p20
I3
I0
S'Yes'
p21
S'C:\\Users\\oleach\\Charlie-master\\Charlie-master\\charlie\\stimuli\\visual\\scap\\practice-1.BMP'
S'C:\\Users\\oleach\\Charlie-master\\Charlie-master\\charlie\\stimuli\\visual\\scap\\practice-2.BMP'
g21
I950
tp22
a(g18
g19
g20
I4
I1
S'No'
p23
S'C:\\Users\\oleach\\Charlie-master\\Charlie-master\\charlie\\stimuli\\visual\\scap\\practice-3.BMP'
S'C:\\Users\\oleach\\Charlie-master\\Charlie-master\\charlie\\stimuli\\visual\\scap\\practice-4.BMP'
g23
I1150
tp24
a(g18
g19
g20
I5
I2
g21
S'C:\\Users\\oleach\\Charlie-master\\Charlie-master\\charlie\\stimuli\\visual\\scap\\practice-5.BMP'
S'C:\\Users\\oleach\\Charlie-master\\Charlie-master\\charlie\\stimuli\\visual\\scap\\practice-6.BMP'
g21
I1020
tp25
a(g18
g19
S'test'
p26
I3
I0
g21
S'C:\\Users\\oleach\\Charlie-master\\Charlie-master\\charlie\\stimuli\\visual\\scap\\load3-1.BMP'
S'C:\\Users\\oleach\\Charlie-master\\Charlie-master\\charlie\\stimuli\\visual\\scap\\load3-2.BMP'
g23
I1120
tp27
a(g18
g19
g26
I3
I1
g23
S'C:\\Users\\oleach\\Charlie-master\\Charlie-master\\charlie\\stimuli\\visual\\scap\\load3-3.BMP'
S'C:\\Users\\oleach\\Charlie-master\\Charlie-master\\charlie\\stimuli\\visual\\scap\\load3-4.BMP'
g23
I900
tp28
a(g18
g19
g26
I3
I2
g21
S'C:\\Users\\oleach\\Charlie-master\\Charlie-master\\charlie\\stimuli\\visual\\scap\\load3-5.BMP'
S'C:\\Users\\oleach\\Charlie-master\\Charlie-master\\charlie\\stimuli\\visual\\scap\\load3-6.BMP'
g21
I620
tp29
a(g18
g19
g26
I3
I3
g21
S'C:\\Users\\oleach\\Charlie-master\\Charlie-master\\charlie\\stimuli\\visual\\scap\\load3-7.BMP'
S'C:\\Users\\oleach\\Charlie-master\\Charlie-master\\charlie\\stimuli\\visual\\scap\\load3-8.BMP'
g21
I2041
tp30
a(g18
g19
g26
I3
I4
g23
S'C:\\Users\\oleach\\Charlie-master\\Charlie-master\\charlie\\stimuli\\visual\\scap\\load3-9.BMP'
S'C:\\Users\\oleach\\Charlie-master\\Charlie-master\\charlie\\stimuli\\visual\\scap\\load3-10.BMP'
g23
I1090
tp31
a(g18
g19
g26
I3
I5
g21
S'C:\\Users\\oleach\\Charlie-master\\Charlie-master\\charlie\\stimuli\\visual\\scap\\load3-11.BMP'
S'C:\\Users\\oleach\\Charlie-master\\Charlie-master\\charlie\\stimuli\\visual\\scap\\load3-12.BMP'
g21
I1080
tp32
a(g18
g19
g26
I3
I6
g23
S'C:\\Users\\oleach\\Charlie-master\\Charlie-master\\charlie\\stimuli\\visual\\scap\\load3-13.BMP'
S'C:\\Users\\oleach\\Charlie-master\\Charlie-master\\charlie\\stimuli\\visual\\scap\\load3-14.BMP'
g23
I750
tp33
a(g18
g19
g26
I3
I7
g23
S'C:\\Users\\oleach\\Charlie-master\\Charlie-master\\charlie\\stimuli\\visual\\scap\\load3-15.BMP'
S'C:\\Users\\oleach\\Charlie-master\\Charlie-master\\charlie\\stimuli\\visual\\scap\\load3-16.BMP'
g23
I880
tp34
a(g18
g19
g26
I3
I8
g21
S'C:\\Users\\oleach\\Charlie-master\\Charlie-master\\charlie\\stimuli\\visual\\scap\\load3-17.BMP'
S'C:\\Users\\oleach\\Charlie-master\\Charlie-master\\charlie\\stimuli\\visual\\scap\\load3-18.BMP'
g23
I631
tp35
a(g18
g19
g26
I3
I9
g23
S'C:\\Users\\oleach\\Charlie-master\\Charlie-master\\charlie\\stimuli\\visual\\scap\\load3-19.BMP'
S'C:\\Users\\oleach\\Charlie-master\\Charlie-master\\charlie\\stimuli\\visual\\scap\\load3-20.BMP'
g23
I930
tp36
a(g18
g19
g26
I3
I10
g21
S'C:\\Users\\oleach\\Charlie-master\\Charlie-master\\charlie\\stimuli\\visual\\scap\\load3-21.BMP'
S'C:\\Users\\oleach\\Charlie-master\\Charlie-master\\charlie\\stimuli\\visual\\scap\\load3-22.BMP'
g21
I1060
tp37
a(g18
g19
g26
I3
I11
g21
S'C:\\Users\\oleach\\Charlie-master\\Charlie-master\\charlie\\stimuli\\visual\\scap\\load3-23.BMP'
S'C:\\Users\\oleach\\Charlie-master\\Charlie-master\\charlie\\stimuli\\visual\\scap\\load3-24.BMP'
g23
I3050
tp38
a(g18
g19
g26
I3
I12
g23
S'C:\\Users\\oleach\\Charlie-master\\Charlie-master\\charlie\\stimuli\\visual\\scap\\load3-25.BMP'
S'C:\\Users\\oleach\\Charlie-master\\Charlie-master\\charlie\\stimuli\\visual\\scap\\load3-26.BMP'
g23
I820
tp39
a(g18
g19
g26
I3
I13
g23
S'C:\\Users\\oleach\\Charlie-master\\Charlie-master\\charlie\\stimuli\\visual\\scap\\load3-27.BMP'
S'C:\\Users\\oleach\\Charlie-master\\Charlie-master\\charlie\\stimuli\\visual\\scap\\load3-28.BMP'
g23
I750
tp40
a(g18
g19
g26
I4
I0
g23
S'C:\\Users\\oleach\\Charlie-master\\Charlie-master\\charlie\\stimuli\\visual\\scap\\load4-1.BMP'
S'C:\\Users\\oleach\\Charlie-master\\Charlie-master\\charlie\\stimuli\\visual\\scap\\load4-2.BMP'
g23
I780
tp41
a(g18
g19
g26
I4
I1
g21
S'C:\\Users\\oleach\\Charlie-master\\Charlie-master\\charlie\\stimuli\\visual\\scap\\load4-3.BMP'
S'C:\\Users\\oleach\\Charlie-master\\Charlie-master\\charlie\\stimuli\\visual\\scap\\load4-4.BMP'
g21
I940
tp42
a(g18
g19
g26
I4
I2
g21
S'C:\\Users\\oleach\\Charlie-master\\Charlie-master\\charlie\\stimuli\\visual\\scap\\load4-5.BMP'
S'C:\\Users\\oleach\\Charlie-master\\Charlie-master\\charlie\\stimuli\\visual\\scap\\load4-6.BMP'
g21
I810
tp43
a(g18
g19
g26
I4
I3
g23
S'C:\\Users\\oleach\\Charlie-master\\Charlie-master\\charlie\\stimuli\\visual\\scap\\load4-7.BMP'
S'C:\\Users\\oleach\\Charlie-master\\Charlie-master\\charlie\\stimuli\\visual\\scap\\load4-8.BMP'
g23
I690
tp44
a(g18
g19
g26
I4
I4
g23
S'C:\\Users\\oleach\\Charlie-master\\Charlie-master\\charlie\\stimuli\\visual\\scap\\load4-9.BMP'
S'C:\\Users\\oleach\\Charlie-master\\Charlie-master\\charlie\\stimuli\\visual\\scap\\load4-10.BMP'
g23
I690
tp45
a(g18
g19
g26
I4
I5
g21
S'C:\\Users\\oleach\\Charlie-master\\Charlie-master\\charlie\\stimuli\\visual\\scap\\load4-11.BMP'
S'C:\\Users\\oleach\\Charlie-master\\Charlie-master\\charlie\\stimuli\\visual\\scap\\load4-12.BMP'
g21
I2420
tp46
a(g18
g19
g26
I4
I6
g23
S'C:\\Users\\oleach\\Charlie-master\\Charlie-master\\charlie\\stimuli\\visual\\scap\\load4-13.BMP'
S'C:\\Users\\oleach\\Charlie-master\\Charlie-master\\charlie\\stimuli\\visual\\scap\\load4-14.BMP'
g23
I761
tp47
a(g18
g19
g26
I4
I7
g21
S'C:\\Users\\oleach\\Charlie-master\\Charlie-master\\charlie\\stimuli\\visual\\scap\\load4-15.BMP'
S'C:\\Users\\oleach\\Charlie-master\\Charlie-master\\charlie\\stimuli\\visual\\scap\\load4-16.BMP'
g21
I730
tp48
a(g18
g19
g26
I4
I8
g23
S'C:\\Users\\oleach\\Charlie-master\\Charlie-master\\charlie\\stimuli\\visual\\scap\\load4-17.BMP'
S'C:\\Users\\oleach\\Charlie-master\\Charlie-master\\charlie\\stimuli\\visual\\scap\\load4-18.BMP'
g23
I1270
tp49
a(g18
g19
g26
I4
I9
g21
S'C:\\Users\\oleach\\Charlie-master\\Charlie-master\\charlie\\stimuli\\visual\\scap\\load4-19.BMP'
S'C:\\Users\\oleach\\Charlie-master\\Charlie-master\\charlie\\stimuli\\visual\\scap\\load4-20.BMP'
g21
I1160
tp50
a(g18
g19
g26
I4
I10
g21
S'C:\\Users\\oleach\\Charlie-master\\Charlie-master\\charlie\\stimuli\\visual\\scap\\load4-21.BMP'
S'C:\\Users\\oleach\\Charlie-master\\Charlie-master\\charlie\\stimuli\\visual\\scap\\load4-22.BMP'
g21
I1660
tp51
a(g18
g19
g26
I4
I11
g23
S'C:\\Users\\oleach\\Charlie-master\\Charlie-master\\charlie\\stimuli\\visual\\scap\\load4-23.BMP'
S'C:\\Users\\oleach\\Charlie-master\\Charlie-master\\charlie\\stimuli\\visual\\scap\\load4-24.BMP'
g23
I1100
tp52
a(g18
g19
g26
I4
I12
g21
S'C:\\Users\\oleach\\Charlie-master\\Charlie-master\\charlie\\stimuli\\visual\\scap\\load4-25.BMP'
S'C:\\Users\\oleach\\Charlie-master\\Charlie-master\\charlie\\stimuli\\visual\\scap\\load4-26.BMP'
g21
I1740
tp53
a(g18
g19
g26
I4
I13
g23
S'C:\\Users\\oleach\\Charlie-master\\Charlie-master\\charlie\\stimuli\\visual\\scap\\load4-27.BMP'
S'C:\\Users\\oleach\\Charlie-master\\Charlie-master\\charlie\\stimuli\\visual\\scap\\load4-28.BMP'
g21
I1091
tp54
a(g18
g19
g26
I5
I0
g21
S'C:\\Users\\oleach\\Charlie-master\\Charlie-master\\charlie\\stimuli\\visual\\scap\\load5-1.BMP'
S'C:\\Users\\oleach\\Charlie-master\\Charlie-master\\charlie\\stimuli\\visual\\scap\\load5-2.BMP'
g21
I920
tp55
a(g18
g19
g26
I5
I1
g21
S'C:\\Users\\oleach\\Charlie-master\\Charlie-master\\charlie\\stimuli\\visual\\scap\\load5-3.BMP'
S'C:\\Users\\oleach\\Charlie-master\\Charlie-master\\charlie\\stimuli\\visual\\scap\\load5-4.BMP'
g21
I1480
tp56
a(g18
g19
g26
I5
I2
g21
S'C:\\Users\\oleach\\Charlie-master\\Charlie-master\\charlie\\stimuli\\visual\\scap\\load5-5.BMP'
S'C:\\Users\\oleach\\Charlie-master\\Charlie-master\\charlie\\stimuli\\visual\\scap\\load5-6.BMP'
g23
I1280
tp57
a(g18
g19
g26
I5
I3
g21
S'C:\\Users\\oleach\\Charlie-master\\Charlie-master\\charlie\\stimuli\\visual\\scap\\load5-7.BMP'
S'C:\\Users\\oleach\\Charlie-master\\Charlie-master\\charlie\\stimuli\\visual\\scap\\load5-8.BMP'
g21
I910
tp58
a(g18
g19
g26
I5
I4
g21
S'C:\\Users\\oleach\\Charlie-master\\Charlie-master\\charlie\\stimuli\\visual\\scap\\load5-9.BMP'
S'C:\\Users\\oleach\\Charlie-master\\Charlie-master\\charlie\\stimuli\\visual\\scap\\load5-10.BMP'
g21
I880
tp59
a(g18
g19
g26
I5
I5
g21
S'C:\\Users\\oleach\\Charlie-master\\Charlie-master\\charlie\\stimuli\\visual\\scap\\load5-11.BMP'
S'C:\\Users\\oleach\\Charlie-master\\Charlie-master\\charlie\\stimuli\\visual\\scap\\load5-12.BMP'
g21
I980
tp60
a(g18
g19
g26
I5
I6
g23
S'C:\\Users\\oleach\\Charlie-master\\Charlie-master\\charlie\\stimuli\\visual\\scap\\load5-13.BMP'
S'C:\\Users\\oleach\\Charlie-master\\Charlie-master\\charlie\\stimuli\\visual\\scap\\load5-14.BMP'
g23
I830
tp61
a(g18
g19
g26
I5
I7
g23
S'C:\\Users\\oleach\\Charlie-master\\Charlie-master\\charlie\\stimuli\\visual\\scap\\load5-15.BMP'
S'C:\\Users\\oleach\\Charlie-master\\Charlie-master\\charlie\\stimuli\\visual\\scap\\load5-16.BMP'
g23
I800
tp62
a(g18
g19
g26
I5
I8
g23
S'C:\\Users\\oleach\\Charlie-master\\Charlie-master\\charlie\\stimuli\\visual\\scap\\load5-17.BMP'
S'C:\\Users\\oleach\\Charlie-master\\Charlie-master\\charlie\\stimuli\\visual\\scap\\load5-18.BMP'
g23
I820
tp63
a(g18
g19
g26
I5
I9
g23
S'C:\\Users\\oleach\\Charlie-master\\Charlie-master\\charlie\\stimuli\\visual\\scap\\load5-19.BMP'
S'C:\\Users\\oleach\\Charlie-master\\Charlie-master\\charlie\\stimuli\\visual\\scap\\load5-20.BMP'
g23
I630
tp64
a(g18
g19
g26
I5
I10
g23
S'C:\\Users\\oleach\\Charlie-master\\Charlie-master\\charlie\\stimuli\\visual\\scap\\load5-21.BMP'
S'C:\\Users\\oleach\\Charlie-master\\Charlie-master\\charlie\\stimuli\\visual\\scap\\load5-22.BMP'
g23
I1440
tp65
a(g18
g19
g26
I5
I11
g21
S'C:\\Users\\oleach\\Charlie-master\\Charlie-master\\charlie\\stimuli\\visual\\scap\\load5-23.BMP'
S'C:\\Users\\oleach\\Charlie-master\\Charlie-master\\charlie\\stimuli\\visual\\scap\\load5-24.BMP'
g21
I930
tp66
a(g18
g19
g26
I5
I12
g23
S'C:\\Users\\oleach\\Charlie-master\\Charlie-master\\charlie\\stimuli\\visual\\scap\\load5-25.BMP'
S'C:\\Users\\oleach\\Charlie-master\\Charlie-master\\charlie\\stimuli\\visual\\scap\\load5-26.BMP'
g23
I1500
tp67
a(g18
g19
g26
I5
I13
g23
S'C:\\Users\\oleach\\Charlie-master\\Charlie-master\\charlie\\stimuli\\visual\\scap\\load5-27.BMP'
p68
S'C:\\Users\\oleach\\Charlie-master\\Charlie-master\\charlie\\stimuli\\visual\\scap\\load5-28.BMP'
p69
g23
I940
tp70
asS'output_format'
p71
(lp72
(S'proband_id'
p73
c__builtin__
str
p74
tp75
a(S'test_name'
p76
g74
tp77
a(S'phase'
p78
g74
tp79
a(S'load'
p80
c__builtin__
int
p81
tp82
a(S'trialn'
p83
g81
tp84
a(S'ans'
p85
g74
tp86
a(S'array_f'
p87
g74
tp88
a(S'probe_f'
p89
g74
tp90
a(S'rsp'
p91
g74
tp92
a(S'rt'
p93
g81
tp94
asg73
g18
sS'filename'
p95
S'4430_scap.data'
p96
sS'initialised'
p97
g8
(S"\x07\xdf\x07\x1c\x0e'\x10\x06\x80\x10"
tRp98
sS'last_udated'
p99
g8
(S"\x07\xdf\x07\x1c\x0e'\x10\x06\x80\x10"
tRp100
sg76
S'scap'
p101
sS'directory'
p102
S'C:\\Users\\oleach\\Charlie-master\\Charlie-master\\charlie\\data\\raw'
p103
sS'user_id'
p104
S'oleach'
p105
sS'test_started'
p106
I01
sS'abs_filename'
p107
S'C:\\Users\\oleach\\Charlie-master\\Charlie-master\\charlie\\data\\raw\\4430_scap.data'
p108
sS'date_started'
p109
g8
(S"\x07\xdf\x07\x1c\x0e'7\x00\x98X"
tRp110
sS'log'
p111
(lp112
(S'2015-07-28 14:39:16.426000'
S'instance created'
p113
tp114
a(S'2015-07-28 14:39:55.051000'
S'instance updated'
p115
tp116
a(S'2015-07-28 14:39:55.061000'
S'pandas DataFrame of data created'
p117
tp118
a(S'2015-07-28 14:39:55.065000'
S'data saved as csv to C:\\Users\\oleach\\Charlie-master\\Charlie-master\\charlie\\data\\csv\\4430_scap.csv'
tp119
a(S'2015-07-28 14:40:03.258000'
g115
tp120
a(S'2015-07-28 14:40:03.267000'
g117
tp121
a(S'2015-07-28 14:40:03.269000'
S'data saved as csv to C:\\Users\\oleach\\Charlie-master\\Charlie-master\\charlie\\data\\csv\\4430_scap.csv'
tp122
a(S'2015-07-28 14:40:11.333000'
g115
tp123
a(S'2015-07-28 14:40:11.343000'
g117
tp124
a(S'2015-07-28 14:40:11.346000'
S'data saved as csv to C:\\Users\\oleach\\Charlie-master\\Charlie-master\\charlie\\data\\csv\\4430_scap.csv'
tp125
a(S'2015-07-28 14:40:27.425000'
g115
tp126
a(S'2015-07-28 14:40:27.435000'
g117
tp127
a(S'2015-07-28 14:40:27.439000'
S'data saved as csv to C:\\Users\\oleach\\Charlie-master\\Charlie-master\\charlie\\data\\csv\\4430_scap.csv'
tp128
a(S'2015-07-28 14:40:34.482000'
g115
tp129
a(S'2015-07-28 14:40:34.491000'
g117
tp130
a(S'2015-07-28 14:40:34.495000'
S'data saved as csv to C:\\Users\\oleach\\Charlie-master\\Charlie-master\\charlie\\data\\csv\\4430_scap.csv'
tp131
a(S'2015-07-28 14:40:41.258000'
g115
tp132
a(S'2015-07-28 14:40:41.268000'
g117
tp133
a(S'2015-07-28 14:40:41.272000'
S'data saved as csv to C:\\Users\\oleach\\Charlie-master\\Charlie-master\\charlie\\data\\csv\\4430_scap.csv'
tp134
a(S'2015-07-28 14:40:49.455000'
g115
tp135
a(S'2015-07-28 14:40:49.465000'
g117
tp136
a(S'2015-07-28 14:40:49.469000'
S'data saved as csv to C:\\Users\\oleach\\Charlie-master\\Charlie-master\\charlie\\data\\csv\\4430_scap.csv'
tp137
a(S'2015-07-28 14:40:56.701000'
g115
tp138
a(S'2015-07-28 14:40:56.711000'
g117
tp139
a(S'2015-07-28 14:40:56.715000'
S'data saved as csv to C:\\Users\\oleach\\Charlie-master\\Charlie-master\\charlie\\data\\csv\\4430_scap.csv'
tp140
a(S'2015-07-28 14:41:03.938000'
g115
tp141
a(S'2015-07-28 14:41:03.947000'
g117
tp142
a(S'2015-07-28 14:41:03.951000'
S'data saved as csv to C:\\Users\\oleach\\Charlie-master\\Charlie-master\\charlie\\data\\csv\\4430_scap.csv'
tp143
a(S'2015-07-28 14:41:10.844000'
g115
tp144
a(S'2015-07-28 14:41:10.854000'
g117
tp145
a(S'2015-07-28 14:41:10.858000'
S'data saved as csv to C:\\Users\\oleach\\Charlie-master\\Charlie-master\\charlie\\data\\csv\\4430_scap.csv'
tp146
a(S'2015-07-28 14:41:17.882000'
g115
tp147
a(S'2015-07-28 14:41:17.891000'
g117
tp148
a(S'2015-07-28 14:41:17.895000'
S'data saved as csv to C:\\Users\\oleach\\Charlie-master\\Charlie-master\\charlie\\data\\csv\\4430_scap.csv'
tp149
a(S'2015-07-28 14:41:24.668000'
g115
tp150
a(S'2015-07-28 14:41:24.678000'
g117
tp151
a(S'2015-07-28 14:41:24.681000'
S'data saved as csv to C:\\Users\\oleach\\Charlie-master\\Charlie-master\\charlie\\data\\csv\\4430_scap.csv'
tp152
a(S'2015-07-28 14:41:31.754000'
g115
tp153
a(S'2015-07-28 14:41:31.764000'
g117
tp154
a(S'2015-07-28 14:41:31.768000'
S'data saved as csv to C:\\Users\\oleach\\Charlie-master\\Charlie-master\\charlie\\data\\csv\\4430_scap.csv'
tp155
a(S'2015-07-28 14:41:38.972000'
g115
tp156
a(S'2015-07-28 14:41:38.981000'
g117
tp157
a(S'2015-07-28 14:41:38.985000'
S'data saved as csv to C:\\Users\\oleach\\Charlie-master\\Charlie-master\\charlie\\data\\csv\\4430_scap.csv'
tp158
a(S'2015-07-28 14:41:48.180000'
g115
tp159
a(S'2015-07-28 14:41:48.189000'
g117
tp160
a(S'2015-07-28 14:41:48.193000'
S'data saved as csv to C:\\Users\\oleach\\Charlie-master\\Charlie-master\\charlie\\data\\csv\\4430_scap.csv'
tp161
a(S'2015-07-28 14:41:55.158000'
g115
tp162
a(S'2015-07-28 14:41:55.167000'
g117
tp163
a(S'2015-07-28 14:41:55.171000'
S'data saved as csv to C:\\Users\\oleach\\Charlie-master\\Charlie-master\\charlie\\data\\csv\\4430_scap.csv'
tp164
a(S'2015-07-28 14:42:02.064000'
g115
tp165
a(S'2015-07-28 14:42:02.073000'
g117
tp166
a(S'2015-07-28 14:42:02.076000'
S'data saved as csv to C:\\Users\\oleach\\Charlie-master\\Charlie-master\\charlie\\data\\csv\\4430_scap.csv'
tp167
a(S'2015-07-28 14:42:08.997000'
g115
tp168
a(S'2015-07-28 14:42:09.007000'
g117
tp169
a(S'2015-07-28 14:42:09.011000'
S'data saved as csv to C:\\Users\\oleach\\Charlie-master\\Charlie-master\\charlie\\data\\csv\\4430_scap.csv'
tp170
a(S'2015-07-28 14:42:16.095000'
g115
tp171
a(S'2015-07-28 14:42:16.104000'
g117
tp172
a(S'2015-07-28 14:42:16.108000'
S'data saved as csv to C:\\Users\\oleach\\Charlie-master\\Charlie-master\\charlie\\data\\csv\\4430_scap.csv'
tp173
a(S'2015-07-28 14:42:23.061000'
g115
tp174
a(S'2015-07-28 14:42:23.071000'
g117
tp175
a(S'2015-07-28 14:42:23.074000'
S'data saved as csv to C:\\Users\\oleach\\Charlie-master\\Charlie-master\\charlie\\data\\csv\\4430_scap.csv'
tp176
a(S'2015-07-28 14:42:29.907000'
g115
tp177
a(S'2015-07-28 14:42:29.916000'
g117
tp178
a(S'2015-07-28 14:42:29.920000'
S'data saved as csv to C:\\Users\\oleach\\Charlie-master\\Charlie-master\\charlie\\data\\csv\\4430_scap.csv'
tp179
a(S'2015-07-28 14:42:36.754000'
g115
tp180
a(S'2015-07-28 14:42:36.764000'
g117
tp181
a(S'2015-07-28 14:42:36.768000'
S'data saved as csv to C:\\Users\\oleach\\Charlie-master\\Charlie-master\\charlie\\data\\csv\\4430_scap.csv'
tp182
a(S'2015-07-28 14:42:45.330000'
g115
tp183
a(S'2015-07-28 14:42:45.339000'
g117
tp184
a(S'2015-07-28 14:42:45.343000'
S'data saved as csv to C:\\Users\\oleach\\Charlie-master\\Charlie-master\\charlie\\data\\csv\\4430_scap.csv'
tp185
a(S'2015-07-28 14:42:52.247000'
g115
tp186
a(S'2015-07-28 14:42:52.256000'
g117
tp187
a(S'2015-07-28 14:42:52.261000'
S'data saved as csv to C:\\Users\\oleach\\Charlie-master\\Charlie-master\\charlie\\data\\csv\\4430_scap.csv'
tp188
a(S'2015-07-28 14:42:59.135000'
g115
tp189
a(S'2015-07-28 14:42:59.144000'
g117
tp190
a(S'2015-07-28 14:42:59.148000'
S'data saved as csv to C:\\Users\\oleach\\Charlie-master\\Charlie-master\\charlie\\data\\csv\\4430_scap.csv'
tp191
a(S'2015-07-28 14:43:06.563000'
g115
tp192
a(S'2015-07-28 14:43:06.573000'
g117
tp193
a(S'2015-07-28 14:43:06.576000'
S'data saved as csv to C:\\Users\\oleach\\Charlie-master\\Charlie-master\\charlie\\data\\csv\\4430_scap.csv'
tp194
a(S'2015-07-28 14:43:13.878000'
g115
tp195
a(S'2015-07-28 14:43:13.887000'
g117
tp196
a(S'2015-07-28 14:43:13.892000'
S'data saved as csv to C:\\Users\\oleach\\Charlie-master\\Charlie-master\\charlie\\data\\csv\\4430_scap.csv'
tp197
a(S'2015-07-28 14:43:21.696000'
g115
tp198
a(S'2015-07-28 14:43:21.706000'
g117
tp199
a(S'2015-07-28 14:43:21.710000'
S'data saved as csv to C:\\Users\\oleach\\Charlie-master\\Charlie-master\\charlie\\data\\csv\\4430_scap.csv'
tp200
a(S'2015-07-28 14:43:28.954000'
g115
tp201
a(S'2015-07-28 14:43:28.964000'
g117
tp202
a(S'2015-07-28 14:43:28.968000'
S'data saved as csv to C:\\Users\\oleach\\Charlie-master\\Charlie-master\\charlie\\data\\csv\\4430_scap.csv'
tp203
a(S'2015-07-28 14:43:36.853000'
g115
tp204
a(S'2015-07-28 14:43:36.863000'
g117
tp205
a(S'2015-07-28 14:43:36.867000'
S'data saved as csv to C:\\Users\\oleach\\Charlie-master\\Charlie-master\\charlie\\data\\csv\\4430_scap.csv'
tp206
a(S'2015-07-28 14:43:44.101000'
g115
tp207
a(S'2015-07-28 14:43:44.111000'
g117
tp208
a(S'2015-07-28 14:43:44.115000'
S'data saved as csv to C:\\Users\\oleach\\Charlie-master\\Charlie-master\\charlie\\data\\csv\\4430_scap.csv'
tp209
a(S'2015-07-28 14:43:51.179000'
g115
tp210
a(S'2015-07-28 14:43:51.188000'
g117
tp211
a(S'2015-07-28 14:43:51.191000'
S'data saved as csv to C:\\Users\\oleach\\Charlie-master\\Charlie-master\\charlie\\data\\csv\\4430_scap.csv'
tp212
a(S'2015-07-28 14:43:58.815000'
g115
tp213
a(S'2015-07-28 14:43:58.825000'
g117
tp214
a(S'2015-07-28 14:43:58.829000'
S'data saved as csv to C:\\Users\\oleach\\Charlie-master\\Charlie-master\\charlie\\data\\csv\\4430_scap.csv'
tp215
a(S'2015-07-28 14:44:06.254000'
g115
tp216
a(S'2015-07-28 14:44:06.264000'
g117
tp217
a(S'2015-07-28 14:44:06.269000'
S'data saved as csv to C:\\Users\\oleach\\Charlie-master\\Charlie-master\\charlie\\data\\csv\\4430_scap.csv'
tp218
a(S'2015-07-28 14:44:13.322000'
g115
tp219
a(S'2015-07-28 14:44:13.332000'
g117
tp220
a(S'2015-07-28 14:44:13.336000'
S'data saved as csv to C:\\Users\\oleach\\Charlie-master\\Charlie-master\\charlie\\data\\csv\\4430_scap.csv'
tp221
a(S'2015-07-28 14:44:20.361000'
g115
tp222
a(S'2015-07-28 14:44:20.371000'
g117
tp223
a(S'2015-07-28 14:44:20.375000'
S'data saved as csv to C:\\Users\\oleach\\Charlie-master\\Charlie-master\\charlie\\data\\csv\\4430_scap.csv'
tp224
a(S'2015-07-28 14:44:27.500000'
g115
tp225
a(S'2015-07-28 14:44:27.511000'
g117
tp226
a(S'2015-07-28 14:44:27.515000'
S'data saved as csv to C:\\Users\\oleach\\Charlie-master\\Charlie-master\\charlie\\data\\csv\\4430_scap.csv'
tp227
a(S'2015-07-28 14:44:34.490000'
g115
tp228
a(S'2015-07-28 14:44:34.500000'
g117
tp229
a(S'2015-07-28 14:44:34.504000'
S'data saved as csv to C:\\Users\\oleach\\Charlie-master\\Charlie-master\\charlie\\data\\csv\\4430_scap.csv'
tp230
a(S'2015-07-28 14:44:41.448000'
g115
tp231
a(S'2015-07-28 14:44:41.459000'
g117
tp232
a(S'2015-07-28 14:44:41.463000'
S'data saved as csv to C:\\Users\\oleach\\Charlie-master\\Charlie-master\\charlie\\data\\csv\\4430_scap.csv'
tp233
a(S'2015-07-28 14:44:48.429000'
g115
tp234
a(S'2015-07-28 14:44:48.438000'
g117
tp235
a(S'2015-07-28 14:44:48.443000'
S'data saved as csv to C:\\Users\\oleach\\Charlie-master\\Charlie-master\\charlie\\data\\csv\\4430_scap.csv'
tp236
a(S'2015-07-28 14:44:55.218000'
g115
tp237
a(S'2015-07-28 14:44:55.228000'
g117
tp238
a(S'2015-07-28 14:44:55.233000'
S'data saved as csv to C:\\Users\\oleach\\Charlie-master\\Charlie-master\\charlie\\data\\csv\\4430_scap.csv'
tp239
a(S'2015-07-28 14:45:02.815000'
g115
tp240
a(S'2015-07-28 14:45:02.823000'
g117
tp241
a(S'2015-07-28 14:45:02.828000'
S'data saved as csv to C:\\Users\\oleach\\Charlie-master\\Charlie-master\\charlie\\data\\csv\\4430_scap.csv'
tp242
a(S'2015-07-28 14:45:09.901000'
g115
tp243
a(S'2015-07-28 14:45:09.911000'
g117
tp244
a(S'2015-07-28 14:45:09.914000'
S'data saved as csv to C:\\Users\\oleach\\Charlie-master\\Charlie-master\\charlie\\data\\csv\\4430_scap.csv'
tp245
a(S'2015-07-28 14:45:17.559000'
g115
tp246
a(S'2015-07-28 14:45:17.569000'
g117
tp247
a(S'2015-07-28 14:45:17.573000'
S'data saved as csv to C:\\Users\\oleach\\Charlie-master\\Charlie-master\\charlie\\data\\csv\\4430_scap.csv'
tp248
a(S'2015-07-28 14:45:24.659000'
g115
tp249
a(S'2015-07-28 14:45:24.669000'
g117
tp250
a(S'2015-07-28 14:45:24.673000'
S'data saved as csv to C:\\Users\\oleach\\Charlie-master\\Charlie-master\\charlie\\data\\csv\\4430_scap.csv'
tp251
asb.