(icharlie.tools.data
Data
p1
(dp2
S'lang'
p3
S'EN'
p4
sS'control'
p5
(lp6
sS'last_updated'
p7
cdatetime
datetime
p8
(S'\x07\xdf\x07\x1d\n%\x10\x0ec\x98'
tRp9
sS'last_opened'
p10
g8
(S'\x07\xdf\x07\x1d\n"\x0c\x01\x19@'
tRp11
sS'proj_id'
p12
S'connectivity'
p13
sS'date_done'
p14
NsS'test_done'
p15
I01
sS'data'
p16
(lp17
(S'4432'
p18
S'digit_symbol'
p19
S'practice'
p20
I0
I2
I2
S'Yes'
p21
S'C:\\Users\\oleach\\Charlie-master\\Charlie-master\\charlie\\stimuli\\visual\\digit_symbol\\sym2.bmp'
g21
I3700
tp22
a(g18
g19
g20
I1
I6
I6
g21
S'C:\\Users\\oleach\\Charlie-master\\Charlie-master\\charlie\\stimuli\\visual\\digit_symbol\\sym6.bmp'
g21
I1800
tp23
a(g18
g19
g20
I2
I8
I4
S'No'
p24
S'C:\\Users\\oleach\\Charlie-master\\Charlie-master\\charlie\\stimuli\\visual\\digit_symbol\\sym4.bmp'
g24
I2660
tp25
a(g18
g19
g20
I3
I4
I4
g21
S'C:\\Users\\oleach\\Charlie-master\\Charlie-master\\charlie\\stimuli\\visual\\digit_symbol\\sym4.bmp'
g21
I2200
tp26
a(g18
g19
g20
I4
I7
I7
g21
S'C:\\Users\\oleach\\Charlie-master\\Charlie-master\\charlie\\stimuli\\visual\\digit_symbol\\sym7.bmp'
g21
I1530
tp27
a(g18
g19
g20
I5
I6
I5
g24
S'C:\\Users\\oleach\\Charlie-master\\Charlie-master\\charlie\\stimuli\\visual\\digit_symbol\\sym5.bmp'
g24
I2420
tp28
a(g18
g19
g20
I6
I2
I8
g24
S'C:\\Users\\oleach\\Charlie-master\\Charlie-master\\charlie\\stimuli\\visual\\digit_symbol\\sym8.bmp'
g24
I1890
tp29
a(g18
g19
g20
I7
I9
I2
g24
S'C:\\Users\\oleach\\Charlie-master\\Charlie-master\\charlie\\stimuli\\visual\\digit_symbol\\sym2.bmp'
g24
I2000
tp30
a(g18
g19
g20
I8
I3
I7
g24
S'C:\\Users\\oleach\\Charlie-master\\Charlie-master\\charlie\\stimuli\\visual\\digit_symbol\\sym7.bmp'
g24
I1911
tp31
a(g18
g19
g20
I9
I5
I6
g24
S'C:\\Users\\oleach\\Charlie-master\\Charlie-master\\charlie\\stimuli\\visual\\digit_symbol\\sym6.bmp'
g24
I1980
tp32
a(g18
g19
S'test'
p33
I0
I8
I8
g21
S'C:\\Users\\oleach\\Charlie-master\\Charlie-master\\charlie\\stimuli\\visual\\digit_symbol\\sym8.bmp'
g21
I2206
tp34
a(g18
g19
g33
I1
I1
I4
g24
S'C:\\Users\\oleach\\Charlie-master\\Charlie-master\\charlie\\stimuli\\visual\\digit_symbol\\sym4.bmp'
g24
I2203
tp35
a(g18
g19
g33
I2
I2
I8
g24
S'C:\\Users\\oleach\\Charlie-master\\Charlie-master\\charlie\\stimuli\\visual\\digit_symbol\\sym8.bmp'
g24
I1803
tp36
a(g18
g19
g33
I3
I6
I2
g24
S'C:\\Users\\oleach\\Charlie-master\\Charlie-master\\charlie\\stimuli\\visual\\digit_symbol\\sym2.bmp'
g24
I1703
tp37
a(g18
g19
g33
I4
I4
I4
g21
S'C:\\Users\\oleach\\Charlie-master\\Charlie-master\\charlie\\stimuli\\visual\\digit_symbol\\sym4.bmp'
g21
I1604
tp38
a(g18
g19
g33
I5
I9
I5
g24
S'C:\\Users\\oleach\\Charlie-master\\Charlie-master\\charlie\\stimuli\\visual\\digit_symbol\\sym5.bmp'
g24
I1703
tp39
a(g18
g19
g33
I6
I5
I6
g24
S'C:\\Users\\oleach\\Charlie-master\\Charlie-master\\charlie\\stimuli\\visual\\digit_symbol\\sym6.bmp'
g24
I1703
tp40
a(g18
g19
g33
I7
I3
I3
g21
S'C:\\Users\\oleach\\Charlie-master\\Charlie-master\\charlie\\stimuli\\visual\\digit_symbol\\sym3.bmp'
g21
I1803
tp41
a(g18
g19
g33
I8
I4
I4
g21
S'C:\\Users\\oleach\\Charlie-master\\Charlie-master\\charlie\\stimuli\\visual\\digit_symbol\\sym4.bmp'
g21
I1703
tp42
a(g18
g19
g33
I9
I9
I9
g21
S'C:\\Users\\oleach\\Charlie-master\\Charlie-master\\charlie\\stimuli\\visual\\digit_symbol\\sym9.bmp'
g21
I2203
tp43
a(g18
g19
g33
I10
I6
I6
g21
S'C:\\Users\\oleach\\Charlie-master\\Charlie-master\\charlie\\stimuli\\visual\\digit_symbol\\sym6.bmp'
g21
I1703
tp44
a(g18
g19
g33
I11
I1
I1
g21
S'C:\\Users\\oleach\\Charlie-master\\Charlie-master\\charlie\\stimuli\\visual\\digit_symbol\\sym1.bmp'
g21
I1503
tp45
a(g18
g19
g33
I12
I2
I2
g21
S'C:\\Users\\oleach\\Charlie-master\\Charlie-master\\charlie\\stimuli\\visual\\digit_symbol\\sym2.bmp'
g21
I1503
tp46
a(g18
g19
g33
I13
I7
I7
g21
S'C:\\Users\\oleach\\Charlie-master\\Charlie-master\\charlie\\stimuli\\visual\\digit_symbol\\sym7.bmp'
g21
I2404
tp47
a(g18
g19
g33
I14
I3
I3
g21
S'C:\\Users\\oleach\\Charlie-master\\Charlie-master\\charlie\\stimuli\\visual\\digit_symbol\\sym3.bmp'
g21
I1703
tp48
a(g18
g19
g33
I15
I8
I8
g21
S'C:\\Users\\oleach\\Charlie-master\\Charlie-master\\charlie\\stimuli\\visual\\digit_symbol\\sym8.bmp'
g21
I2003
tp49
a(g18
g19
g33
I16
I7
I7
g21
S'C:\\Users\\oleach\\Charlie-master\\Charlie-master\\charlie\\stimuli\\visual\\digit_symbol\\sym7.bmp'
g21
I1603
tp50
a(g18
g19
g33
I17
I5
I3
g24
S'C:\\Users\\oleach\\Charlie-master\\Charlie-master\\charlie\\stimuli\\visual\\digit_symbol\\sym3.bmp'
g24
I2003
tp51
a(g18
g19
g33
I18
I1
I5
g24
S'C:\\Users\\oleach\\Charlie-master\\Charlie-master\\charlie\\stimuli\\visual\\digit_symbol\\sym5.bmp'
g24
I1503
tp52
a(g18
g19
g33
I19
I4
I4
g21
S'C:\\Users\\oleach\\Charlie-master\\Charlie-master\\charlie\\stimuli\\visual\\digit_symbol\\sym4.bmp'
g21
I1703
tp53
a(g18
g19
g33
I20
I7
I8
g24
S'C:\\Users\\oleach\\Charlie-master\\Charlie-master\\charlie\\stimuli\\visual\\digit_symbol\\sym8.bmp'
g24
I2003
tp54
a(g18
g19
g33
I21
I4
I4
g21
S'C:\\Users\\oleach\\Charlie-master\\Charlie-master\\charlie\\stimuli\\visual\\digit_symbol\\sym4.bmp'
g21
I2803
tp55
a(g18
g19
g33
I22
I8
I8
g21
S'C:\\Users\\oleach\\Charlie-master\\Charlie-master\\charlie\\stimuli\\visual\\digit_symbol\\sym8.bmp'
g21
I1604
tp56
a(g18
g19
g33
I23
I3
I3
g21
S'C:\\Users\\oleach\\Charlie-master\\Charlie-master\\charlie\\stimuli\\visual\\digit_symbol\\sym3.bmp'
g21
I1503
tp57
a(g18
g19
g33
I24
I5
I5
g21
S'C:\\Users\\oleach\\Charlie-master\\Charlie-master\\charlie\\stimuli\\visual\\digit_symbol\\sym5.bmp'
g21
I2103
tp58
a(g18
g19
g33
I25
I3
I1
g24
S'C:\\Users\\oleach\\Charlie-master\\Charlie-master\\charlie\\stimuli\\visual\\digit_symbol\\sym1.bmp'
g24
I1603
tp59
a(g18
g19
g33
I26
I6
I9
g24
S'C:\\Users\\oleach\\Charlie-master\\Charlie-master\\charlie\\stimuli\\visual\\digit_symbol\\sym9.bmp'
g24
I3103
tp60
a(g18
g19
g33
I27
I2
I2
g21
S'C:\\Users\\oleach\\Charlie-master\\Charlie-master\\charlie\\stimuli\\visual\\digit_symbol\\sym2.bmp'
g21
I2303
tp61
a(g18
g19
g33
I28
I8
I8
g21
S'C:\\Users\\oleach\\Charlie-master\\Charlie-master\\charlie\\stimuli\\visual\\digit_symbol\\sym8.bmp'
g21
I1703
tp62
a(g18
g19
g33
I29
I9
I2
g24
S'C:\\Users\\oleach\\Charlie-master\\Charlie-master\\charlie\\stimuli\\visual\\digit_symbol\\sym2.bmp'
g24
I1503
tp63
a(g18
g19
g33
I30
I1
I6
g24
S'C:\\Users\\oleach\\Charlie-master\\Charlie-master\\charlie\\stimuli\\visual\\digit_symbol\\sym6.bmp'
g24
I1503
tp64
a(g18
g19
g33
I31
I5
I4
g24
S'C:\\Users\\oleach\\Charlie-master\\Charlie-master\\charlie\\stimuli\\visual\\digit_symbol\\sym4.bmp'
g24
I1604
tp65
a(g18
g19
g33
I32
I6
I6
g21
S'C:\\Users\\oleach\\Charlie-master\\Charlie-master\\charlie\\stimuli\\visual\\digit_symbol\\sym6.bmp'
g21
I1703
tp66
a(g18
g19
g33
I33
I2
I2
g21
S'C:\\Users\\oleach\\Charlie-master\\Charlie-master\\charlie\\stimuli\\visual\\digit_symbol\\sym2.bmp'
g21
I1303
tp67
a(g18
g19
g33
I34
I9
I9
g21
S'C:\\Users\\oleach\\Charlie-master\\Charlie-master\\charlie\\stimuli\\visual\\digit_symbol\\sym9.bmp'
g21
I2303
tp68
a(g18
g19
g33
I35
I7
I7
g21
S'C:\\Users\\oleach\\Charlie-master\\Charlie-master\\charlie\\stimuli\\visual\\digit_symbol\\sym7.bmp'
g21
I1203
tp69
a(g18
g19
g33
I36
I3
I3
g21
S'C:\\Users\\oleach\\Charlie-master\\Charlie-master\\charlie\\stimuli\\visual\\digit_symbol\\sym3.bmp'
g21
I1203
tp70
a(g18
g19
g33
I37
I1
I8
g24
S'C:\\Users\\oleach\\Charlie-master\\Charlie-master\\charlie\\stimuli\\visual\\digit_symbol\\sym8.bmp'
g24
I2303
tp71
a(g18
g19
g33
I38
I6
I6
g21
S'C:\\Users\\oleach\\Charlie-master\\Charlie-master\\charlie\\stimuli\\visual\\digit_symbol\\sym6.bmp'
g21
I1703
tp72
a(g18
g19
g33
I39
I7
I7
g21
S'C:\\Users\\oleach\\Charlie-master\\Charlie-master\\charlie\\stimuli\\visual\\digit_symbol\\sym7.bmp'
g21
I1303
tp73
a(g18
g19
g33
I40
I9
I5
g24
S'C:\\Users\\oleach\\Charlie-master\\Charlie-master\\charlie\\stimuli\\visual\\digit_symbol\\sym5.bmp'
g24
I1603
tp74
a(g18
g19
g33
I41
I7
I9
g24
S'C:\\Users\\oleach\\Charlie-master\\Charlie-master\\charlie\\stimuli\\visual\\digit_symbol\\sym9.bmp'
g24
I1904
tp75
a(g18
g19
g33
I42
I5
I7
g24
S'C:\\Users\\oleach\\Charlie-master\\Charlie-master\\charlie\\stimuli\\visual\\digit_symbol\\sym7.bmp'
g24
I1502
tp76
a(g18
g19
g33
I43
I2
I2
g21
S'C:\\Users\\oleach\\Charlie-master\\Charlie-master\\charlie\\stimuli\\visual\\digit_symbol\\sym2.bmp'
g21
I3003
tp77
a(g18
g19
g33
I44
I1
I1
g21
S'C:\\Users\\oleach\\Charlie-master\\Charlie-master\\charlie\\stimuli\\visual\\digit_symbol\\sym1.bmp'
g21
I1203
tp78
a(g18
g19
g33
I45
I6
I4
g24
S'C:\\Users\\oleach\\Charlie-master\\Charlie-master\\charlie\\stimuli\\visual\\digit_symbol\\sym4.bmp'
g24
I2903
tp79
asS'output_format'
p80
(lp81
(S'proband_id'
p82
c__builtin__
str
p83
tp84
a(S'test_name'
p85
g83
tp86
a(S'phase'
p87
g83
tp88
a(S'trialn'
p89
c__builtin__
int
p90
tp91
a(S'digit'
p92
g90
tp93
a(S'symbol'
p94
g90
tp95
a(S'ans'
p96
g83
tp97
a(S'f'
g83
tp98
a(S'rsp'
p99
g83
tp100
a(S'rt'
p101
g90
tp102
asg82
g18
sS'filename'
p103
S'4432_digit_symbol.data'
p104
sS'initialised'
p105
g8
(S'\x07\xdf\x07\x1d\n"\x0c\x01\x19@'
tRp106
sS'last_udated'
p107
g8
(S'\x07\xdf\x07\x1d\n"\x0c\x01\x19@'
tRp108
sg85
S'digit_symbol'
p109
sS'directory'
p110
S'C:\\Users\\oleach\\Charlie-master\\Charlie-master\\charlie\\data\\raw'
p111
sS'user_id'
p112
S'oleach'
p113
sS'test_started'
p114
I01
sS'abs_filename'
p115
S'C:\\Users\\oleach\\Charlie-master\\Charlie-master\\charlie\\data\\raw\\4432_digit_symbol.data'
p116
sS'date_started'
p117
g8
(S'\x07\xdf\x07\x1d\n"9\x04\xe2\x00'
tRp118
sS'log'
p119
(lp120
(S'2015-07-29 10:34:12.072000'
S'instance created'
p121
tp122
a(S'2015-07-29 10:34:57.329000'
S'instance updated'
p123
tp124
a(S'2015-07-29 10:34:57.339000'
S'pandas DataFrame of data created'
p125
tp126
a(S'2015-07-29 10:34:57.343000'
S'data saved as csv to C:\\Users\\oleach\\Charlie-master\\Charlie-master\\charlie\\data\\csv\\4432_digit_symbol.csv'
tp127
a(S'2015-07-29 10:35:00.171000'
g123
tp128
a(S'2015-07-29 10:35:00.181000'
g125
tp129
a(S'2015-07-29 10:35:00.185000'
S'data saved as csv to C:\\Users\\oleach\\Charlie-master\\Charlie-master\\charlie\\data\\csv\\4432_digit_symbol.csv'
tp130
a(S'2015-07-29 10:35:03.875000'
g123
tp131
a(S'2015-07-29 10:35:03.884000'
g125
tp132
a(S'2015-07-29 10:35:03.888000'
S'data saved as csv to C:\\Users\\oleach\\Charlie-master\\Charlie-master\\charlie\\data\\csv\\4432_digit_symbol.csv'
tp133
a(S'2015-07-29 10:35:07.116000'
g123
tp134
a(S'2015-07-29 10:35:07.126000'
g125
tp135
a(S'2015-07-29 10:35:07.130000'
S'data saved as csv to C:\\Users\\oleach\\Charlie-master\\Charlie-master\\charlie\\data\\csv\\4432_digit_symbol.csv'
tp136
a(S'2015-07-29 10:35:09.689000'
g123
tp137
a(S'2015-07-29 10:35:09.699000'
g125
tp138
a(S'2015-07-29 10:35:09.703000'
S'data saved as csv to C:\\Users\\oleach\\Charlie-master\\Charlie-master\\charlie\\data\\csv\\4432_digit_symbol.csv'
tp139
a(S'2015-07-29 10:35:13.151000'
g123
tp140
a(S'2015-07-29 10:35:13.161000'
g125
tp141
a(S'2015-07-29 10:35:13.165000'
S'data saved as csv to C:\\Users\\oleach\\Charlie-master\\Charlie-master\\charlie\\data\\csv\\4432_digit_symbol.csv'
tp142
a(S'2015-07-29 10:35:16.082000'
g123
tp143
a(S'2015-07-29 10:35:16.092000'
g125
tp144
a(S'2015-07-29 10:35:16.096000'
S'data saved as csv to C:\\Users\\oleach\\Charlie-master\\Charlie-master\\charlie\\data\\csv\\4432_digit_symbol.csv'
tp145
a(S'2015-07-29 10:35:19.124000'
g123
tp146
a(S'2015-07-29 10:35:19.134000'
g125
tp147
a(S'2015-07-29 10:35:19.138000'
S'data saved as csv to C:\\Users\\oleach\\Charlie-master\\Charlie-master\\charlie\\data\\csv\\4432_digit_symbol.csv'
tp148
a(S'2015-07-29 10:35:22.076000'
g123
tp149
a(S'2015-07-29 10:35:22.086000'
g125
tp150
a(S'2015-07-29 10:35:22.090000'
S'data saved as csv to C:\\Users\\oleach\\Charlie-master\\Charlie-master\\charlie\\data\\csv\\4432_digit_symbol.csv'
tp151
a(S'2015-07-29 10:35:25.098000'
g123
tp152
a(S'2015-07-29 10:35:25.108000'
g125
tp153
a(S'2015-07-29 10:35:25.112000'
S'data saved as csv to C:\\Users\\oleach\\Charlie-master\\Charlie-master\\charlie\\data\\csv\\4432_digit_symbol.csv'
tp154
a(S'2015-07-29 10:37:16.924000'
g123
tp155
a(S'2015-07-29 10:37:16.935000'
g125
tp156
a(S'2015-07-29 10:37:16.942000'
S'data saved as csv to C:\\Users\\oleach\\Charlie-master\\Charlie-master\\charlie\\data\\csv\\4432_digit_symbol.csv'
tp157
asb.