(icharlie.tools.data
Data
p1
(dp2
S'lang'
p3
S'EN'
p4
sS'control'
p5
(lp6
sS'last_updated'
p7
cdatetime
datetime
p8
(S'\x07\xdf\x07\x1d\n7-\x03< '
tRp9
sS'last_opened'
p10
g8
(S'\x07\xdf\x07\x1d\n42\x05\xd40'
tRp11
sS'proj_id'
p12
S'connectivity'
p13
sS'date_done'
p14
NsS'test_done'
p15
I01
sS'data'
p16
(lp17
(S'4432'
p18
S'stroop'
p19
S'practice'
p20
I0
S'n/a'
p21
S'C:\\Users\\oleach\\Charlie-master\\Charlie-master\\charlie\\stimuli\\visual\\stroop\\prac_1.png'
S'Right'
p22
g22
I1510
tp23
a(g18
g19
g20
I1
g21
S'C:\\Users\\oleach\\Charlie-master\\Charlie-master\\charlie\\stimuli\\visual\\stroop\\prac_2.png'
S'Left'
p24
g24
I1040
tp25
a(g18
g19
g20
I2
g21
S'C:\\Users\\oleach\\Charlie-master\\Charlie-master\\charlie\\stimuli\\visual\\stroop\\prac_3.png'
g22
g22
I730
tp26
a(g18
g19
g20
I3
g21
S'C:\\Users\\oleach\\Charlie-master\\Charlie-master\\charlie\\stimuli\\visual\\stroop\\prac_4.png'
g22
g22
I740
tp27
a(g18
g19
S'test'
p28
I0
S'Incongruent'
p29
S'C:\\Users\\oleach\\Charlie-master\\Charlie-master\\charlie\\stimuli\\visual\\stroop\\6-Incongruent.png'
g24
g24
I1090
tp30
a(g18
g19
g28
I1
S'Congruent'
p31
S'C:\\Users\\oleach\\Charlie-master\\Charlie-master\\charlie\\stimuli\\visual\\stroop\\30-Congruent.png'
g24
g24
I860
tp32
a(g18
g19
g28
I2
g31
S'C:\\Users\\oleach\\Charlie-master\\Charlie-master\\charlie\\stimuli\\visual\\stroop\\3-Congruent.png'
g22
g22
I780
tp33
a(g18
g19
g28
I3
g29
S'C:\\Users\\oleach\\Charlie-master\\Charlie-master\\charlie\\stimuli\\visual\\stroop\\23-Incongruent.png'
g24
g24
I941
tp34
a(g18
g19
g28
I4
g31
S'C:\\Users\\oleach\\Charlie-master\\Charlie-master\\charlie\\stimuli\\visual\\stroop\\39-Congruent.png'
g24
g24
I1060
tp35
a(g18
g19
g28
I5
g31
S'C:\\Users\\oleach\\Charlie-master\\Charlie-master\\charlie\\stimuli\\visual\\stroop\\45-Congruent.png'
g24
g24
I820
tp36
a(g18
g19
g28
I6
g29
S'C:\\Users\\oleach\\Charlie-master\\Charlie-master\\charlie\\stimuli\\visual\\stroop\\31-Incongruent.png'
g22
g24
I1480
tp37
a(g18
g19
g28
I7
g29
S'C:\\Users\\oleach\\Charlie-master\\Charlie-master\\charlie\\stimuli\\visual\\stroop\\28-Incongruent.png'
g24
g24
I1260
tp38
a(g18
g19
g28
I8
g31
S'C:\\Users\\oleach\\Charlie-master\\Charlie-master\\charlie\\stimuli\\visual\\stroop\\31-Congruent.png'
g24
g24
I850
tp39
a(g18
g19
g28
I9
g31
S'C:\\Users\\oleach\\Charlie-master\\Charlie-master\\charlie\\stimuli\\visual\\stroop\\10-Congruent.png'
g22
g22
I1440
tp40
a(g18
g19
g28
I10
g29
S'C:\\Users\\oleach\\Charlie-master\\Charlie-master\\charlie\\stimuli\\visual\\stroop\\10-Incongruent.png'
g24
g24
I1050
tp41
a(g18
g19
g28
I11
g29
S'C:\\Users\\oleach\\Charlie-master\\Charlie-master\\charlie\\stimuli\\visual\\stroop\\24-Incongruent.png'
g24
g22
I1980
tp42
a(g18
g19
g28
I12
g31
S'C:\\Users\\oleach\\Charlie-master\\Charlie-master\\charlie\\stimuli\\visual\\stroop\\34-Congruent.png'
g24
g24
I800
tp43
a(g18
g19
g28
I13
g31
S'C:\\Users\\oleach\\Charlie-master\\Charlie-master\\charlie\\stimuli\\visual\\stroop\\38-Congruent.png'
g24
g24
I840
tp44
a(g18
g19
g28
I14
g31
S'C:\\Users\\oleach\\Charlie-master\\Charlie-master\\charlie\\stimuli\\visual\\stroop\\42-Congruent.png'
g24
g24
I720
tp45
a(g18
g19
g28
I15
g31
S'C:\\Users\\oleach\\Charlie-master\\Charlie-master\\charlie\\stimuli\\visual\\stroop\\17-Congruent.png'
g22
g22
I910
tp46
a(g18
g19
g28
I16
g29
S'C:\\Users\\oleach\\Charlie-master\\Charlie-master\\charlie\\stimuli\\visual\\stroop\\42-Incongruent.png'
g22
g24
I850
tp47
a(g18
g19
g28
I17
g29
S'C:\\Users\\oleach\\Charlie-master\\Charlie-master\\charlie\\stimuli\\visual\\stroop\\36-Incongruent.png'
g22
g24
I1861
tp48
a(g18
g19
g28
I18
g29
S'C:\\Users\\oleach\\Charlie-master\\Charlie-master\\charlie\\stimuli\\visual\\stroop\\43-Incongruent.png'
g22
g24
I1130
tp49
a(g18
g19
g28
I19
g31
S'C:\\Users\\oleach\\Charlie-master\\Charlie-master\\charlie\\stimuli\\visual\\stroop\\49-Congruent.png'
g24
g24
I970
tp50
a(g18
g19
g28
I20
g31
S'C:\\Users\\oleach\\Charlie-master\\Charlie-master\\charlie\\stimuli\\visual\\stroop\\43-Congruent.png'
g24
g24
I810
tp51
a(g18
g19
g28
I21
g29
S'C:\\Users\\oleach\\Charlie-master\\Charlie-master\\charlie\\stimuli\\visual\\stroop\\15-Incongruent.png'
g24
g24
I1130
tp52
a(g18
g19
g28
I22
g29
S'C:\\Users\\oleach\\Charlie-master\\Charlie-master\\charlie\\stimuli\\visual\\stroop\\35-Incongruent.png'
g22
g24
I870
tp53
a(g18
g19
g28
I23
g29
S'C:\\Users\\oleach\\Charlie-master\\Charlie-master\\charlie\\stimuli\\visual\\stroop\\44-Incongruent.png'
g22
g24
I900
tp54
a(g18
g19
g28
I24
g29
S'C:\\Users\\oleach\\Charlie-master\\Charlie-master\\charlie\\stimuli\\visual\\stroop\\47-Incongruent.png'
g22
g22
I1050
tp55
a(g18
g19
g28
I25
g29
S'C:\\Users\\oleach\\Charlie-master\\Charlie-master\\charlie\\stimuli\\visual\\stroop\\40-Incongruent.png'
g22
g24
I810
tp56
a(g18
g19
g28
I26
g29
S'C:\\Users\\oleach\\Charlie-master\\Charlie-master\\charlie\\stimuli\\visual\\stroop\\25-Incongruent.png'
g24
g22
I1570
tp57
a(g18
g19
g28
I27
g29
S'C:\\Users\\oleach\\Charlie-master\\Charlie-master\\charlie\\stimuli\\visual\\stroop\\27-Incongruent.png'
g24
g24
I1000
tp58
a(g18
g19
g28
I28
g29
S'C:\\Users\\oleach\\Charlie-master\\Charlie-master\\charlie\\stimuli\\visual\\stroop\\56-Incongruent.png'
g22
g22
I1720
tp59
a(g18
g19
g28
I29
g31
S'C:\\Users\\oleach\\Charlie-master\\Charlie-master\\charlie\\stimuli\\visual\\stroop\\2-Congruent.png'
g22
g22
I2030
tp60
a(g18
g19
g28
I30
g29
S'C:\\Users\\oleach\\Charlie-master\\Charlie-master\\charlie\\stimuli\\visual\\stroop\\17-Incongruent.png'
g24
g24
I1651
tp61
a(g18
g19
g28
I31
g31
S'C:\\Users\\oleach\\Charlie-master\\Charlie-master\\charlie\\stimuli\\visual\\stroop\\12-Congruent.png'
g22
g22
I1820
tp62
a(g18
g19
g28
I32
g29
S'C:\\Users\\oleach\\Charlie-master\\Charlie-master\\charlie\\stimuli\\visual\\stroop\\12-Incongruent.png'
g24
g24
I2800
tp63
a(g18
g19
g28
I33
g29
S'C:\\Users\\oleach\\Charlie-master\\Charlie-master\\charlie\\stimuli\\visual\\stroop\\26-Incongruent.png'
g24
g22
I1440
tp64
a(g18
g19
g28
I34
g31
S'C:\\Users\\oleach\\Charlie-master\\Charlie-master\\charlie\\stimuli\\visual\\stroop\\19-Congruent.png'
g22
g22
I1680
tp65
a(g18
g19
g28
I35
g31
S'C:\\Users\\oleach\\Charlie-master\\Charlie-master\\charlie\\stimuli\\visual\\stroop\\23-Congruent.png'
g22
g22
I3110
tp66
a(g18
g19
g28
I36
g31
S'C:\\Users\\oleach\\Charlie-master\\Charlie-master\\charlie\\stimuli\\visual\\stroop\\35-Congruent.png'
g24
g24
I900
tp67
a(g18
g19
g28
I37
g31
S'C:\\Users\\oleach\\Charlie-master\\Charlie-master\\charlie\\stimuli\\visual\\stroop\\46-Congruent.png'
g24
g24
I760
tp68
a(g18
g19
g28
I38
g29
S'C:\\Users\\oleach\\Charlie-master\\Charlie-master\\charlie\\stimuli\\visual\\stroop\\8-Incongruent.png'
g24
g22
I1460
tp69
a(g18
g19
g28
I39
g31
S'C:\\Users\\oleach\\Charlie-master\\Charlie-master\\charlie\\stimuli\\visual\\stroop\\29-Congruent.png'
g24
g24
I860
tp70
a(g18
g19
g28
I40
g31
S'C:\\Users\\oleach\\Charlie-master\\Charlie-master\\charlie\\stimuli\\visual\\stroop\\14-Congruent.png'
g22
g22
I2161
tp71
a(g18
g19
g28
I41
g31
S'C:\\Users\\oleach\\Charlie-master\\Charlie-master\\charlie\\stimuli\\visual\\stroop\\33-Congruent.png'
g24
g24
I640
tp72
a(g18
g19
g28
I42
g29
S'C:\\Users\\oleach\\Charlie-master\\Charlie-master\\charlie\\stimuli\\visual\\stroop\\13-Incongruent.png'
g24
g22
I1230
tp73
a(g18
g19
g28
I43
g29
S'C:\\Users\\oleach\\Charlie-master\\Charlie-master\\charlie\\stimuli\\visual\\stroop\\55-Incongruent.png'
g22
g24
I1670
tp74
a(g18
g19
g28
I44
g31
S'C:\\Users\\oleach\\Charlie-master\\Charlie-master\\charlie\\stimuli\\visual\\stroop\\54-Congruent.png'
g24
g24
I1110
tp75
a(g18
g19
g28
I45
g31
S'C:\\Users\\oleach\\Charlie-master\\Charlie-master\\charlie\\stimuli\\visual\\stroop\\8-Congruent.png'
g22
g22
I1220
tp76
a(g18
g19
g28
I46
g31
S'C:\\Users\\oleach\\Charlie-master\\Charlie-master\\charlie\\stimuli\\visual\\stroop\\13-Congruent.png'
g22
g22
I1610
tp77
a(g18
g19
g28
I47
g31
S'C:\\Users\\oleach\\Charlie-master\\Charlie-master\\charlie\\stimuli\\visual\\stroop\\40-Congruent.png'
g24
g24
I740
tp78
a(g18
g19
g28
I48
g29
S'C:\\Users\\oleach\\Charlie-master\\Charlie-master\\charlie\\stimuli\\visual\\stroop\\9-Incongruent.png'
g24
g22
I830
tp79
a(g18
g19
g28
I49
g31
S'C:\\Users\\oleach\\Charlie-master\\Charlie-master\\charlie\\stimuli\\visual\\stroop\\50-Congruent.png'
g24
g24
I1420
tp80
a(g18
g19
g28
I50
g31
S'C:\\Users\\oleach\\Charlie-master\\Charlie-master\\charlie\\stimuli\\visual\\stroop\\5-Congruent.png'
g22
g22
I690
tp81
a(g18
g19
g28
I51
g29
S'C:\\Users\\oleach\\Charlie-master\\Charlie-master\\charlie\\stimuli\\visual\\stroop\\5-Incongruent.png'
g24
g22
I980
tp82
a(g18
g19
g28
I52
g29
S'C:\\Users\\oleach\\Charlie-master\\Charlie-master\\charlie\\stimuli\\visual\\stroop\\53-Incongruent.png'
g22
g24
I970
tp83
a(g18
g19
g28
I53
g29
S'C:\\Users\\oleach\\Charlie-master\\Charlie-master\\charlie\\stimuli\\visual\\stroop\\1-Incongruent.png'
g24
g22
I1031
tp84
a(g18
g19
g28
I54
g31
S'C:\\Users\\oleach\\Charlie-master\\Charlie-master\\charlie\\stimuli\\visual\\stroop\\28-Congruent.png'
g22
g22
I730
tp85
a(g18
g19
g28
I55
g29
S'C:\\Users\\oleach\\Charlie-master\\Charlie-master\\charlie\\stimuli\\visual\\stroop\\34-Incongruent.png'
g22
g24
I1420
tp86
a(g18
g19
g28
I56
g29
S'C:\\Users\\oleach\\Charlie-master\\Charlie-master\\charlie\\stimuli\\visual\\stroop\\20-Incongruent.png'
g24
g22
I860
tp87
a(g18
g19
g28
I57
g29
S'C:\\Users\\oleach\\Charlie-master\\Charlie-master\\charlie\\stimuli\\visual\\stroop\\38-Incongruent.png'
g22
g24
I1550
tp88
a(g18
g19
g28
I58
g29
S'C:\\Users\\oleach\\Charlie-master\\Charlie-master\\charlie\\stimuli\\visual\\stroop\\32-Incongruent.png'
g22
g24
I860
tp89
a(g18
g19
g28
I59
g31
S'C:\\Users\\oleach\\Charlie-master\\Charlie-master\\charlie\\stimuli\\visual\\stroop\\9-Congruent.png'
g22
g22
I970
tp90
a(g18
g19
g28
I60
g31
S'C:\\Users\\oleach\\Charlie-master\\Charlie-master\\charlie\\stimuli\\visual\\stroop\\55-Congruent.png'
g24
g24
I900
tp91
a(g18
g19
g28
I61
g29
S'C:\\Users\\oleach\\Charlie-master\\Charlie-master\\charlie\\stimuli\\visual\\stroop\\33-Incongruent.png'
g22
g24
I690
tp92
a(g18
g19
g28
I62
g29
S'C:\\Users\\oleach\\Charlie-master\\Charlie-master\\charlie\\stimuli\\visual\\stroop\\49-Incongruent.png'
g22
g24
I720
tp93
a(g18
g19
g28
I63
g31
S'C:\\Users\\oleach\\Charlie-master\\Charlie-master\\charlie\\stimuli\\visual\\stroop\\4-Congruent.png'
g22
g22
I680
tp94
a(g18
g19
g28
I64
g31
S'C:\\Users\\oleach\\Charlie-master\\Charlie-master\\charlie\\stimuli\\visual\\stroop\\6-Congruent.png'
g22
g22
I580
tp95
a(g18
g19
g28
I65
g31
S'C:\\Users\\oleach\\Charlie-master\\Charlie-master\\charlie\\stimuli\\visual\\stroop\\48-Congruent.png'
g24
g24
I630
tp96
a(g18
g19
g28
I66
g31
S'C:\\Users\\oleach\\Charlie-master\\Charlie-master\\charlie\\stimuli\\visual\\stroop\\52-Congruent.png'
g24
g24
I660
tp97
a(g18
g19
g28
I67
g31
S'C:\\Users\\oleach\\Charlie-master\\Charlie-master\\charlie\\stimuli\\visual\\stroop\\51-Congruent.png'
g24
g24
I590
tp98
a(g18
g19
g28
I68
g31
S'C:\\Users\\oleach\\Charlie-master\\Charlie-master\\charlie\\stimuli\\visual\\stroop\\16-Congruent.png'
g22
g22
I720
tp99
a(g18
g19
g28
I69
g31
S'C:\\Users\\oleach\\Charlie-master\\Charlie-master\\charlie\\stimuli\\visual\\stroop\\24-Congruent.png'
g22
g22
I620
tp100
a(g18
g19
g28
I70
g29
S'C:\\Users\\oleach\\Charlie-master\\Charlie-master\\charlie\\stimuli\\visual\\stroop\\41-Incongruent.png'
g22
g24
I630
tp101
a(g18
g19
g28
I71
g29
S'C:\\Users\\oleach\\Charlie-master\\Charlie-master\\charlie\\stimuli\\visual\\stroop\\48-Incongruent.png'
g22
g24
I701
tp102
a(g18
g19
g28
I72
g29
S'C:\\Users\\oleach\\Charlie-master\\Charlie-master\\charlie\\stimuli\\visual\\stroop\\4-Incongruent.png'
g24
g22
I650
tp103
a(g18
g19
g28
I73
g29
S'C:\\Users\\oleach\\Charlie-master\\Charlie-master\\charlie\\stimuli\\visual\\stroop\\54-Incongruent.png'
g22
g24
I750
tp104
a(g18
g19
g28
I74
g29
S'C:\\Users\\oleach\\Charlie-master\\Charlie-master\\charlie\\stimuli\\visual\\stroop\\39-Incongruent.png'
g22
g24
I660
tp105
a(g18
g19
g28
I75
g31
S'C:\\Users\\oleach\\Charlie-master\\Charlie-master\\charlie\\stimuli\\visual\\stroop\\56-Congruent.png'
g24
g24
I590
tp106
a(g18
g19
g28
I76
g29
S'C:\\Users\\oleach\\Charlie-master\\Charlie-master\\charlie\\stimuli\\visual\\stroop\\46-Incongruent.png'
g22
g24
I520
tp107
a(g18
g19
g28
I77
g31
S'C:\\Users\\oleach\\Charlie-master\\Charlie-master\\charlie\\stimuli\\visual\\stroop\\22-Congruent.png'
g22
g22
I760
tp108
a(g18
g19
g28
I78
g29
S'C:\\Users\\oleach\\Charlie-master\\Charlie-master\\charlie\\stimuli\\visual\\stroop\\21-Incongruent.png'
g24
g22
I970
tp109
a(g18
g19
g28
I79
g29
S'C:\\Users\\oleach\\Charlie-master\\Charlie-master\\charlie\\stimuli\\visual\\stroop\\37-Incongruent.png'
g22
g24
I490
tp110
a(g18
g19
g28
I80
g29
S'C:\\Users\\oleach\\Charlie-master\\Charlie-master\\charlie\\stimuli\\visual\\stroop\\2-Incongruent.png'
g24
g22
I740
tp111
a(g18
g19
g28
I81
g31
S'C:\\Users\\oleach\\Charlie-master\\Charlie-master\\charlie\\stimuli\\visual\\stroop\\21-Congruent.png'
g22
g22
I640
tp112
a(g18
g19
g28
I82
g29
S'C:\\Users\\oleach\\Charlie-master\\Charlie-master\\charlie\\stimuli\\visual\\stroop\\7-Incongruent.png'
g24
g22
I700
tp113
a(g18
g19
g28
I83
g31
S'C:\\Users\\oleach\\Charlie-master\\Charlie-master\\charlie\\stimuli\\visual\\stroop\\20-Congruent.png'
g22
g22
I760
tp114
a(g18
g19
g28
I84
g31
S'C:\\Users\\oleach\\Charlie-master\\Charlie-master\\charlie\\stimuli\\visual\\stroop\\15-Congruent.png'
g22
g22
I630
tp115
a(g18
g19
g28
I85
g31
S'C:\\Users\\oleach\\Charlie-master\\Charlie-master\\charlie\\stimuli\\visual\\stroop\\26-Congruent.png'
g22
g22
I730
tp116
a(g18
g19
g28
I86
g29
S'C:\\Users\\oleach\\Charlie-master\\Charlie-master\\charlie\\stimuli\\visual\\stroop\\16-Incongruent.png'
g24
g22
I540
tp117
a(g18
g19
g28
I87
g29
S'C:\\Users\\oleach\\Charlie-master\\Charlie-master\\charlie\\stimuli\\visual\\stroop\\50-Incongruent.png'
g22
g24
I730
tp118
a(g18
g19
g28
I88
g31
S'C:\\Users\\oleach\\Charlie-master\\Charlie-master\\charlie\\stimuli\\visual\\stroop\\41-Congruent.png'
g24
g24
I580
tp119
a(g18
g19
g28
I89
g31
S'C:\\Users\\oleach\\Charlie-master\\Charlie-master\\charlie\\stimuli\\visual\\stroop\\25-Congruent.png'
g22
g22
I600
tp120
a(g18
g19
g28
I90
g31
S'C:\\Users\\oleach\\Charlie-master\\Charlie-master\\charlie\\stimuli\\visual\\stroop\\27-Congruent.png'
g22
g22
I580
tp121
a(g18
g19
g28
I91
g29
S'C:\\Users\\oleach\\Charlie-master\\Charlie-master\\charlie\\stimuli\\visual\\stroop\\18-Incongruent.png'
g24
g22
I750
tp122
a(g18
g19
g28
I92
g29
S'C:\\Users\\oleach\\Charlie-master\\Charlie-master\\charlie\\stimuli\\visual\\stroop\\30-Incongruent.png'
g22
g24
I540
tp123
a(g18
g19
g28
I93
g31
S'C:\\Users\\oleach\\Charlie-master\\Charlie-master\\charlie\\stimuli\\visual\\stroop\\44-Congruent.png'
g24
g24
I571
tp124
a(g18
g19
g28
I94
g31
S'C:\\Users\\oleach\\Charlie-master\\Charlie-master\\charlie\\stimuli\\visual\\stroop\\37-Congruent.png'
g24
g24
I510
tp125
a(g18
g19
g28
I95
g29
S'C:\\Users\\oleach\\Charlie-master\\Charlie-master\\charlie\\stimuli\\visual\\stroop\\11-Incongruent.png'
g24
g22
I1010
tp126
a(g18
g19
g28
I96
g29
S'C:\\Users\\oleach\\Charlie-master\\Charlie-master\\charlie\\stimuli\\visual\\stroop\\29-Incongruent.png'
g22
g24
I780
tp127
a(g18
g19
g28
I97
g29
S'C:\\Users\\oleach\\Charlie-master\\Charlie-master\\charlie\\stimuli\\visual\\stroop\\3-Incongruent.png'
g24
g22
I960
tp128
a(g18
g19
g28
I98
g31
S'C:\\Users\\oleach\\Charlie-master\\Charlie-master\\charlie\\stimuli\\visual\\stroop\\1-Congruent.png'
g22
g22
I750
tp129
a(g18
g19
g28
I99
g29
S'C:\\Users\\oleach\\Charlie-master\\Charlie-master\\charlie\\stimuli\\visual\\stroop\\52-Incongruent.png'
g22
g24
I670
tp130
a(g18
g19
g28
I100
g29
S'C:\\Users\\oleach\\Charlie-master\\Charlie-master\\charlie\\stimuli\\visual\\stroop\\14-Incongruent.png'
g24
g24
I550
tp131
a(g18
g19
g28
I101
g31
S'C:\\Users\\oleach\\Charlie-master\\Charlie-master\\charlie\\stimuli\\visual\\stroop\\47-Congruent.png'
g24
g22
I900
tp132
a(g18
g19
g28
I102
g29
S'C:\\Users\\oleach\\Charlie-master\\Charlie-master\\charlie\\stimuli\\visual\\stroop\\19-Incongruent.png'
g24
g22
I1650
tp133
a(g18
g19
g28
I103
g31
S'C:\\Users\\oleach\\Charlie-master\\Charlie-master\\charlie\\stimuli\\visual\\stroop\\11-Congruent.png'
g22
g22
I880
tp134
a(g18
g19
g28
I104
g29
S'C:\\Users\\oleach\\Charlie-master\\Charlie-master\\charlie\\stimuli\\visual\\stroop\\22-Incongruent.png'
g24
g22
I1210
tp135
a(g18
g19
g28
I105
g31
S'C:\\Users\\oleach\\Charlie-master\\Charlie-master\\charlie\\stimuli\\visual\\stroop\\7-Congruent.png'
g22
g22
I860
tp136
a(g18
g19
g28
I106
g31
S'C:\\Users\\oleach\\Charlie-master\\Charlie-master\\charlie\\stimuli\\visual\\stroop\\53-Congruent.png'
g24
g24
I840
tp137
a(g18
g19
g28
I107
g31
S'C:\\Users\\oleach\\Charlie-master\\Charlie-master\\charlie\\stimuli\\visual\\stroop\\32-Congruent.png'
g24
g24
I670
tp138
a(g18
g19
g28
I108
g29
S'C:\\Users\\oleach\\Charlie-master\\Charlie-master\\charlie\\stimuli\\visual\\stroop\\45-Incongruent.png'
g22
g24
I700
tp139
a(g18
g19
g28
I109
g31
S'C:\\Users\\oleach\\Charlie-master\\Charlie-master\\charlie\\stimuli\\visual\\stroop\\36-Congruent.png'
g24
g24
I670
tp140
a(g18
g19
g28
I110
g29
S'C:\\Users\\oleach\\Charlie-master\\Charlie-master\\charlie\\stimuli\\visual\\stroop\\51-Incongruent.png'
g22
g24
I650
tp141
a(g18
g19
g28
I111
g31
S'C:\\Users\\oleach\\Charlie-master\\Charlie-master\\charlie\\stimuli\\visual\\stroop\\18-Congruent.png'
p142
g22
g22
I641
tp143
asS'output_format'
p144
(lp145
(S'proband_id'
p146
c__builtin__
str
p147
tp148
a(S'test_name'
p149
g147
tp150
a(S'phase'
p151
g147
tp152
a(S'trialn'
p153
c__builtin__
int
p154
tp155
a(S'cong'
p156
g147
tp157
a(S'f'
g147
tp158
a(S'ans'
p159
g147
tp160
a(S'rsp'
p161
g147
tp162
a(S'rt'
p163
g154
tp164
asg146
g18
sS'filename'
p165
S'4432_stroop.data'
p166
sS'initialised'
p167
g8
(S'\x07\xdf\x07\x1d\n42\x05\xd40'
tRp168
sS'last_udated'
p169
g8
(S'\x07\xdf\x07\x1d\n42\x05\xd40'
tRp170
sg149
S'stroop'
p171
sS'directory'
p172
S'C:\\Users\\oleach\\Charlie-master\\Charlie-master\\charlie\\data\\raw'
p173
sS'user_id'
p174
S'oleach'
p175
sS'test_started'
p176
I01
sS'abs_filename'
p177
S'C:\\Users\\oleach\\Charlie-master\\Charlie-master\\charlie\\data\\raw\\4432_stroop.data'
p178
sS'date_started'
p179
g8
(S'\x07\xdf\x07\x1d\n5\x0c\x05\xdc\x00'
tRp180
sS'log'
p181
(lp182
(S'2015-07-29 10:52:50.382000'
S'instance created'
p183
tp184
a(S'2015-07-29 10:53:12.396000'
S'instance updated'
p185
tp186
a(S'2015-07-29 10:53:12.404000'
S'pandas DataFrame of data created'
p187
tp188
a(S'2015-07-29 10:53:12.419000'
S'data saved as csv to C:\\Users\\oleach\\Charlie-master\\Charlie-master\\charlie\\data\\csv\\4432_stroop.csv'
tp189
a(S'2015-07-29 10:53:14.483000'
g185
tp190
a(S'2015-07-29 10:53:14.487000'
g187
tp191
a(S'2015-07-29 10:53:14.489000'
S'data saved as csv to C:\\Users\\oleach\\Charlie-master\\Charlie-master\\charlie\\data\\csv\\4432_stroop.csv'
tp192
a(S'2015-07-29 10:53:16.248000'
g185
tp193
a(S'2015-07-29 10:53:16.256000'
g187
tp194
a(S'2015-07-29 10:53:16.260000'
S'data saved as csv to C:\\Users\\oleach\\Charlie-master\\Charlie-master\\charlie\\data\\csv\\4432_stroop.csv'
tp195
a(S'2015-07-29 10:53:18.032000'
g185
tp196
a(S'2015-07-29 10:53:18.041000'
g187
tp197
a(S'2015-07-29 10:53:18.045000'
S'data saved as csv to C:\\Users\\oleach\\Charlie-master\\Charlie-master\\charlie\\data\\csv\\4432_stroop.csv'
tp198
a(S'2015-07-29 10:53:39.539000'
g185
tp199
a(S'2015-07-29 10:53:39.548000'
g187
tp200
a(S'2015-07-29 10:53:39.552000'
S'data saved as csv to C:\\Users\\oleach\\Charlie-master\\Charlie-master\\charlie\\data\\csv\\4432_stroop.csv'
tp201
a(S'2015-07-29 10:53:40.545000'
g185
tp202
a(S'2015-07-29 10:53:40.554000'
g187
tp203
a(S'2015-07-29 10:53:40.559000'
S'data saved as csv to C:\\Users\\oleach\\Charlie-master\\Charlie-master\\charlie\\data\\csv\\4432_stroop.csv'
tp204
a(S'2015-07-29 10:53:41.473000'
g185
tp205
a(S'2015-07-29 10:53:41.481000'
g187
tp206
a(S'2015-07-29 10:53:41.485000'
S'data saved as csv to C:\\Users\\oleach\\Charlie-master\\Charlie-master\\charlie\\data\\csv\\4432_stroop.csv'
tp207
a(S'2015-07-29 10:53:42.561000'
g185
tp208
a(S'2015-07-29 10:53:42.569000'
g187
tp209
a(S'2015-07-29 10:53:42.573000'
S'data saved as csv to C:\\Users\\oleach\\Charlie-master\\Charlie-master\\charlie\\data\\csv\\4432_stroop.csv'
tp210
a(S'2015-07-29 10:53:43.767000'
g185
tp211
a(S'2015-07-29 10:53:43.776000'
g187
tp212
a(S'2015-07-29 10:53:43.780000'
S'data saved as csv to C:\\Users\\oleach\\Charlie-master\\Charlie-master\\charlie\\data\\csv\\4432_stroop.csv'
tp213
a(S'2015-07-29 10:53:44.734000'
g185
tp214
a(S'2015-07-29 10:53:44.742000'
g187
tp215
a(S'2015-07-29 10:53:44.746000'
S'data saved as csv to C:\\Users\\oleach\\Charlie-master\\Charlie-master\\charlie\\data\\csv\\4432_stroop.csv'
tp216
a(S'2015-07-29 10:53:46.361000'
g185
tp217
a(S'2015-07-29 10:53:46.369000'
g187
tp218
a(S'2015-07-29 10:53:46.373000'
S'data saved as csv to C:\\Users\\oleach\\Charlie-master\\Charlie-master\\charlie\\data\\csv\\4432_stroop.csv'
tp219
a(S'2015-07-29 10:53:47.768000'
g185
tp220
a(S'2015-07-29 10:53:47.777000'
g187
tp221
a(S'2015-07-29 10:53:47.781000'
S'data saved as csv to C:\\Users\\oleach\\Charlie-master\\Charlie-master\\charlie\\data\\csv\\4432_stroop.csv'
tp222
a(S'2015-07-29 10:53:48.764000'
g185
tp223
a(S'2015-07-29 10:53:48.773000'
g187
tp224
a(S'2015-07-29 10:53:48.776000'
S'data saved as csv to C:\\Users\\oleach\\Charlie-master\\Charlie-master\\charlie\\data\\csv\\4432_stroop.csv'
tp225
a(S'2015-07-29 10:53:50.351000'
g185
tp226
a(S'2015-07-29 10:53:50.359000'
g187
tp227
a(S'2015-07-29 10:53:50.363000'
S'data saved as csv to C:\\Users\\oleach\\Charlie-master\\Charlie-master\\charlie\\data\\csv\\4432_stroop.csv'
tp228
a(S'2015-07-29 10:53:51.548000'
g185
tp229
a(S'2015-07-29 10:53:51.557000'
g187
tp230
a(S'2015-07-29 10:53:51.561000'
S'data saved as csv to C:\\Users\\oleach\\Charlie-master\\Charlie-master\\charlie\\data\\csv\\4432_stroop.csv'
tp231
a(S'2015-07-29 10:53:53.678000'
g185
tp232
a(S'2015-07-29 10:53:53.686000'
g187
tp233
a(S'2015-07-29 10:53:53.690000'
S'data saved as csv to C:\\Users\\oleach\\Charlie-master\\Charlie-master\\charlie\\data\\csv\\4432_stroop.csv'
tp234
a(S'2015-07-29 10:53:54.624000'
g185
tp235
a(S'2015-07-29 10:53:54.633000'
g187
tp236
a(S'2015-07-29 10:53:54.636000'
S'data saved as csv to C:\\Users\\oleach\\Charlie-master\\Charlie-master\\charlie\\data\\csv\\4432_stroop.csv'
tp237
a(S'2015-07-29 10:53:55.609000'
g185
tp238
a(S'2015-07-29 10:53:55.614000'
g187
tp239
a(S'2015-07-29 10:53:55.616000'
S'data saved as csv to C:\\Users\\oleach\\Charlie-master\\Charlie-master\\charlie\\data\\csv\\4432_stroop.csv'
tp240
a(S'2015-07-29 10:53:56.468000'
g185
tp241
a(S'2015-07-29 10:53:56.476000'
g187
tp242
a(S'2015-07-29 10:53:56.480000'
S'data saved as csv to C:\\Users\\oleach\\Charlie-master\\Charlie-master\\charlie\\data\\csv\\4432_stroop.csv'
tp243
a(S'2015-07-29 10:53:57.525000'
g185
tp244
a(S'2015-07-29 10:53:57.533000'
g187
tp245
a(S'2015-07-29 10:53:57.537000'
S'data saved as csv to C:\\Users\\oleach\\Charlie-master\\Charlie-master\\charlie\\data\\csv\\4432_stroop.csv'
tp246
a(S'2015-07-29 10:53:58.522000'
g185
tp247
a(S'2015-07-29 10:53:58.530000'
g187
tp248
a(S'2015-07-29 10:53:58.534000'
S'data saved as csv to C:\\Users\\oleach\\Charlie-master\\Charlie-master\\charlie\\data\\csv\\4432_stroop.csv'
tp249
a(S'2015-07-29 10:54:00.530000'
g185
tp250
a(S'2015-07-29 10:54:00.539000'
g187
tp251
a(S'2015-07-29 10:54:00.543000'
S'data saved as csv to C:\\Users\\oleach\\Charlie-master\\Charlie-master\\charlie\\data\\csv\\4432_stroop.csv'
tp252
a(S'2015-07-29 10:54:01.808000'
g185
tp253
a(S'2015-07-29 10:54:01.816000'
g187
tp254
a(S'2015-07-29 10:54:01.820000'
S'data saved as csv to C:\\Users\\oleach\\Charlie-master\\Charlie-master\\charlie\\data\\csv\\4432_stroop.csv'
tp255
a(S'2015-07-29 10:54:02.924000'
g185
tp256
a(S'2015-07-29 10:54:02.932000'
g187
tp257
a(S'2015-07-29 10:54:02.936000'
S'data saved as csv to C:\\Users\\oleach\\Charlie-master\\Charlie-master\\charlie\\data\\csv\\4432_stroop.csv'
tp258
a(S'2015-07-29 10:54:03.881000'
g185
tp259
a(S'2015-07-29 10:54:03.890000'
g187
tp260
a(S'2015-07-29 10:54:03.894000'
S'data saved as csv to C:\\Users\\oleach\\Charlie-master\\Charlie-master\\charlie\\data\\csv\\4432_stroop.csv'
tp261
a(S'2015-07-29 10:54:05.158000'
g185
tp262
a(S'2015-07-29 10:54:05.167000'
g187
tp263
a(S'2015-07-29 10:54:05.171000'
S'data saved as csv to C:\\Users\\oleach\\Charlie-master\\Charlie-master\\charlie\\data\\csv\\4432_stroop.csv'
tp264
a(S'2015-07-29 10:54:06.175000'
g185
tp265
a(S'2015-07-29 10:54:06.179000'
g187
tp266
a(S'2015-07-29 10:54:06.182000'
S'data saved as csv to C:\\Users\\oleach\\Charlie-master\\Charlie-master\\charlie\\data\\csv\\4432_stroop.csv'
tp267
a(S'2015-07-29 10:54:07.214000'
g185
tp268
a(S'2015-07-29 10:54:07.223000'
g187
tp269
a(S'2015-07-29 10:54:07.226000'
S'data saved as csv to C:\\Users\\oleach\\Charlie-master\\Charlie-master\\charlie\\data\\csv\\4432_stroop.csv'
tp270
a(S'2015-07-29 10:54:08.412000'
g185
tp271
a(S'2015-07-29 10:54:08.420000'
g187
tp272
a(S'2015-07-29 10:54:08.424000'
S'data saved as csv to C:\\Users\\oleach\\Charlie-master\\Charlie-master\\charlie\\data\\csv\\4432_stroop.csv'
tp273
a(S'2015-07-29 10:54:09.369000'
g185
tp274
a(S'2015-07-29 10:54:09.379000'
g187
tp275
a(S'2015-07-29 10:54:09.383000'
S'data saved as csv to C:\\Users\\oleach\\Charlie-master\\Charlie-master\\charlie\\data\\csv\\4432_stroop.csv'
tp276
a(S'2015-07-29 10:54:11.088000'
g185
tp277
a(S'2015-07-29 10:54:11.097000'
g187
tp278
a(S'2015-07-29 10:54:11.101000'
S'data saved as csv to C:\\Users\\oleach\\Charlie-master\\Charlie-master\\charlie\\data\\csv\\4432_stroop.csv'
tp279
a(S'2015-07-29 10:54:12.237000'
g185
tp280
a(S'2015-07-29 10:54:12.246000'
g187
tp281
a(S'2015-07-29 10:54:12.250000'
S'data saved as csv to C:\\Users\\oleach\\Charlie-master\\Charlie-master\\charlie\\data\\csv\\4432_stroop.csv'
tp282
a(S'2015-07-29 10:54:14.105000'
g185
tp283
a(S'2015-07-29 10:54:14.114000'
g187
tp284
a(S'2015-07-29 10:54:14.118000'
S'data saved as csv to C:\\Users\\oleach\\Charlie-master\\Charlie-master\\charlie\\data\\csv\\4432_stroop.csv'
tp285
a(S'2015-07-29 10:54:16.282000'
g185
tp286
a(S'2015-07-29 10:54:16.291000'
g187
tp287
a(S'2015-07-29 10:54:16.295000'
S'data saved as csv to C:\\Users\\oleach\\Charlie-master\\Charlie-master\\charlie\\data\\csv\\4432_stroop.csv'
tp288
a(S'2015-07-29 10:54:18.081000'
g185
tp289
a(S'2015-07-29 10:54:18.090000'
g187
tp290
a(S'2015-07-29 10:54:18.094000'
S'data saved as csv to C:\\Users\\oleach\\Charlie-master\\Charlie-master\\charlie\\data\\csv\\4432_stroop.csv'
tp291
a(S'2015-07-29 10:54:20.049000'
g185
tp292
a(S'2015-07-29 10:54:20.058000'
g187
tp293
a(S'2015-07-29 10:54:20.062000'
S'data saved as csv to C:\\Users\\oleach\\Charlie-master\\Charlie-master\\charlie\\data\\csv\\4432_stroop.csv'
tp294
a(S'2015-07-29 10:54:23'
g185
tp295
a(S'2015-07-29 10:54:23.009000'
g187
tp296
a(S'2015-07-29 10:54:23.013000'
S'data saved as csv to C:\\Users\\oleach\\Charlie-master\\Charlie-master\\charlie\\data\\csv\\4432_stroop.csv'
tp297
a(S'2015-07-29 10:54:24.589000'
g185
tp298
a(S'2015-07-29 10:54:24.597000'
g187
tp299
a(S'2015-07-29 10:54:24.602000'
S'data saved as csv to C:\\Users\\oleach\\Charlie-master\\Charlie-master\\charlie\\data\\csv\\4432_stroop.csv'
tp300
a(S'2015-07-29 10:54:26.417000'
g185
tp301
a(S'2015-07-29 10:54:26.426000'
g187
tp302
a(S'2015-07-29 10:54:26.430000'
S'data saved as csv to C:\\Users\\oleach\\Charlie-master\\Charlie-master\\charlie\\data\\csv\\4432_stroop.csv'
tp303
a(S'2015-07-29 10:54:29.676000'
g185
tp304
a(S'2015-07-29 10:54:29.685000'
g187
tp305
a(S'2015-07-29 10:54:29.689000'
S'data saved as csv to C:\\Users\\oleach\\Charlie-master\\Charlie-master\\charlie\\data\\csv\\4432_stroop.csv'
tp306
a(S'2015-07-29 10:54:30.723000'
g185
tp307
a(S'2015-07-29 10:54:30.731000'
g187
tp308
a(S'2015-07-29 10:54:30.735000'
S'data saved as csv to C:\\Users\\oleach\\Charlie-master\\Charlie-master\\charlie\\data\\csv\\4432_stroop.csv'
tp309
a(S'2015-07-29 10:54:31.629000'
g185
tp310
a(S'2015-07-29 10:54:31.638000'
g187
tp311
a(S'2015-07-29 10:54:31.641000'
S'data saved as csv to C:\\Users\\oleach\\Charlie-master\\Charlie-master\\charlie\\data\\csv\\4432_stroop.csv'
tp312
a(S'2015-07-29 10:54:33.236000'
g185
tp313
a(S'2015-07-29 10:54:33.245000'
g187
tp314
a(S'2015-07-29 10:54:33.249000'
S'data saved as csv to C:\\Users\\oleach\\Charlie-master\\Charlie-master\\charlie\\data\\csv\\4432_stroop.csv'
tp315
a(S'2015-07-29 10:54:34.244000'
g185
tp316
a(S'2015-07-29 10:54:34.253000'
g187
tp317
a(S'2015-07-29 10:54:34.258000'
S'data saved as csv to C:\\Users\\oleach\\Charlie-master\\Charlie-master\\charlie\\data\\csv\\4432_stroop.csv'
tp318
a(S'2015-07-29 10:54:36.555000'
g185
tp319
a(S'2015-07-29 10:54:36.564000'
g187
tp320
a(S'2015-07-29 10:54:36.568000'
S'data saved as csv to C:\\Users\\oleach\\Charlie-master\\Charlie-master\\charlie\\data\\csv\\4432_stroop.csv'
tp321
a(S'2015-07-29 10:54:37.343000'
g185
tp322
a(S'2015-07-29 10:54:37.352000'
g187
tp323
a(S'2015-07-29 10:54:37.357000'
S'data saved as csv to C:\\Users\\oleach\\Charlie-master\\Charlie-master\\charlie\\data\\csv\\4432_stroop.csv'
tp324
a(S'2015-07-29 10:54:38.723000'
g185
tp325
a(S'2015-07-29 10:54:38.732000'
g187
tp326
a(S'2015-07-29 10:54:38.736000'
S'data saved as csv to C:\\Users\\oleach\\Charlie-master\\Charlie-master\\charlie\\data\\csv\\4432_stroop.csv'
tp327
a(S'2015-07-29 10:54:40.542000'
g185
tp328
a(S'2015-07-29 10:54:40.551000'
g187
tp329
a(S'2015-07-29 10:54:40.555000'
S'data saved as csv to C:\\Users\\oleach\\Charlie-master\\Charlie-master\\charlie\\data\\csv\\4432_stroop.csv'
tp330
a(S'2015-07-29 10:54:41.801000'
g185
tp331
a(S'2015-07-29 10:54:41.810000'
g187
tp332
a(S'2015-07-29 10:54:41.814000'
S'data saved as csv to C:\\Users\\oleach\\Charlie-master\\Charlie-master\\charlie\\data\\csv\\4432_stroop.csv'
tp333
a(S'2015-07-29 10:54:43.171000'
g185
tp334
a(S'2015-07-29 10:54:43.179000'
g187
tp335
a(S'2015-07-29 10:54:43.184000'
S'data saved as csv to C:\\Users\\oleach\\Charlie-master\\Charlie-master\\charlie\\data\\csv\\4432_stroop.csv'
tp336
a(S'2015-07-29 10:54:44.929000'
g185
tp337
a(S'2015-07-29 10:54:44.939000'
g187
tp338
a(S'2015-07-29 10:54:44.943000'
S'data saved as csv to C:\\Users\\oleach\\Charlie-master\\Charlie-master\\charlie\\data\\csv\\4432_stroop.csv'
tp339
a(S'2015-07-29 10:54:45.818000'
g185
tp340
a(S'2015-07-29 10:54:45.827000'
g187
tp341
a(S'2015-07-29 10:54:45.832000'
S'data saved as csv to C:\\Users\\oleach\\Charlie-master\\Charlie-master\\charlie\\data\\csv\\4432_stroop.csv'
tp342
a(S'2015-07-29 10:54:46.794000'
g185
tp343
a(S'2015-07-29 10:54:46.803000'
g187
tp344
a(S'2015-07-29 10:54:46.807000'
S'data saved as csv to C:\\Users\\oleach\\Charlie-master\\Charlie-master\\charlie\\data\\csv\\4432_stroop.csv'
tp345
a(S'2015-07-29 10:54:48.363000'
g185
tp346
a(S'2015-07-29 10:54:48.372000'
g187
tp347
a(S'2015-07-29 10:54:48.377000'
S'data saved as csv to C:\\Users\\oleach\\Charlie-master\\Charlie-master\\charlie\\data\\csv\\4432_stroop.csv'
tp348
a(S'2015-07-29 10:54:49.203000'
g185
tp349
a(S'2015-07-29 10:54:49.212000'
g187
tp350
a(S'2015-07-29 10:54:49.216000'
S'data saved as csv to C:\\Users\\oleach\\Charlie-master\\Charlie-master\\charlie\\data\\csv\\4432_stroop.csv'
tp351
a(S'2015-07-29 10:54:50.332000'
g185
tp352
a(S'2015-07-29 10:54:50.341000'
g187
tp353
a(S'2015-07-29 10:54:50.346000'
S'data saved as csv to C:\\Users\\oleach\\Charlie-master\\Charlie-master\\charlie\\data\\csv\\4432_stroop.csv'
tp354
a(S'2015-07-29 10:54:51.452000'
g185
tp355
a(S'2015-07-29 10:54:51.462000'
g187
tp356
a(S'2015-07-29 10:54:51.466000'
S'data saved as csv to C:\\Users\\oleach\\Charlie-master\\Charlie-master\\charlie\\data\\csv\\4432_stroop.csv'
tp357
a(S'2015-07-29 10:54:52.633000'
g185
tp358
a(S'2015-07-29 10:54:52.642000'
g187
tp359
a(S'2015-07-29 10:54:52.645000'
S'data saved as csv to C:\\Users\\oleach\\Charlie-master\\Charlie-master\\charlie\\data\\csv\\4432_stroop.csv'
tp360
a(S'2015-07-29 10:54:53.508000'
g185
tp361
a(S'2015-07-29 10:54:53.517000'
g187
tp362
a(S'2015-07-29 10:54:53.521000'
S'data saved as csv to C:\\Users\\oleach\\Charlie-master\\Charlie-master\\charlie\\data\\csv\\4432_stroop.csv'
tp363
a(S'2015-07-29 10:54:55.077000'
g185
tp364
a(S'2015-07-29 10:54:55.086000'
g187
tp365
a(S'2015-07-29 10:54:55.091000'
S'data saved as csv to C:\\Users\\oleach\\Charlie-master\\Charlie-master\\charlie\\data\\csv\\4432_stroop.csv'
tp366
a(S'2015-07-29 10:54:56.087000'
g185
tp367
a(S'2015-07-29 10:54:56.097000'
g187
tp368
a(S'2015-07-29 10:54:56.102000'
S'data saved as csv to C:\\Users\\oleach\\Charlie-master\\Charlie-master\\charlie\\data\\csv\\4432_stroop.csv'
tp369
a(S'2015-07-29 10:54:57.787000'
g185
tp370
a(S'2015-07-29 10:54:57.797000'
g187
tp371
a(S'2015-07-29 10:54:57.801000'
S'data saved as csv to C:\\Users\\oleach\\Charlie-master\\Charlie-master\\charlie\\data\\csv\\4432_stroop.csv'
tp372
a(S'2015-07-29 10:54:58.795000'
g185
tp373
a(S'2015-07-29 10:54:58.804000'
g187
tp374
a(S'2015-07-29 10:54:58.809000'
S'data saved as csv to C:\\Users\\oleach\\Charlie-master\\Charlie-master\\charlie\\data\\csv\\4432_stroop.csv'
tp375
a(S'2015-07-29 10:54:59.915000'
g185
tp376
a(S'2015-07-29 10:54:59.924000'
g187
tp377
a(S'2015-07-29 10:54:59.929000'
S'data saved as csv to C:\\Users\\oleach\\Charlie-master\\Charlie-master\\charlie\\data\\csv\\4432_stroop.csv'
tp378
a(S'2015-07-29 10:55:00.963000'
g185
tp379
a(S'2015-07-29 10:55:00.972000'
g187
tp380
a(S'2015-07-29 10:55:00.977000'
S'data saved as csv to C:\\Users\\oleach\\Charlie-master\\Charlie-master\\charlie\\data\\csv\\4432_stroop.csv'
tp381
a(S'2015-07-29 10:55:01.802000'
g185
tp382
a(S'2015-07-29 10:55:01.811000'
g187
tp383
a(S'2015-07-29 10:55:01.816000'
S'data saved as csv to C:\\Users\\oleach\\Charlie-master\\Charlie-master\\charlie\\data\\csv\\4432_stroop.csv'
tp384
a(S'2015-07-29 10:55:02.673000'
g185
tp385
a(S'2015-07-29 10:55:02.682000'
g187
tp386
a(S'2015-07-29 10:55:02.693000'
S'data saved as csv to C:\\Users\\oleach\\Charlie-master\\Charlie-master\\charlie\\data\\csv\\4432_stroop.csv'
tp387
a(S'2015-07-29 10:55:03.506000'
g185
tp388
a(S'2015-07-29 10:55:03.515000'
g187
tp389
a(S'2015-07-29 10:55:03.520000'
S'data saved as csv to C:\\Users\\oleach\\Charlie-master\\Charlie-master\\charlie\\data\\csv\\4432_stroop.csv'
tp390
a(S'2015-07-29 10:55:04.236000'
g185
tp391
a(S'2015-07-29 10:55:04.246000'
g187
tp392
a(S'2015-07-29 10:55:04.251000'
S'data saved as csv to C:\\Users\\oleach\\Charlie-master\\Charlie-master\\charlie\\data\\csv\\4432_stroop.csv'
tp393
a(S'2015-07-29 10:55:05.015000'
g185
tp394
a(S'2015-07-29 10:55:05.024000'
g187
tp395
a(S'2015-07-29 10:55:05.029000'
S'data saved as csv to C:\\Users\\oleach\\Charlie-master\\Charlie-master\\charlie\\data\\csv\\4432_stroop.csv'
tp396
a(S'2015-07-29 10:55:05.823000'
g185
tp397
a(S'2015-07-29 10:55:05.832000'
g187
tp398
a(S'2015-07-29 10:55:05.837000'
S'data saved as csv to C:\\Users\\oleach\\Charlie-master\\Charlie-master\\charlie\\data\\csv\\4432_stroop.csv'
tp399
a(S'2015-07-29 10:55:06.542000'
g185
tp400
a(S'2015-07-29 10:55:06.545000'
g187
tp401
a(S'2015-07-29 10:55:06.548000'
S'data saved as csv to C:\\Users\\oleach\\Charlie-master\\Charlie-master\\charlie\\data\\csv\\4432_stroop.csv'
tp402
a(S'2015-07-29 10:55:07.400000'
g185
tp403
a(S'2015-07-29 10:55:07.410000'
g187
tp404
a(S'2015-07-29 10:55:07.415000'
S'data saved as csv to C:\\Users\\oleach\\Charlie-master\\Charlie-master\\charlie\\data\\csv\\4432_stroop.csv'
tp405
a(S'2015-07-29 10:55:08.171000'
g185
tp406
a(S'2015-07-29 10:55:08.180000'
g187
tp407
a(S'2015-07-29 10:55:08.184000'
S'data saved as csv to C:\\Users\\oleach\\Charlie-master\\Charlie-master\\charlie\\data\\csv\\4432_stroop.csv'
tp408
a(S'2015-07-29 10:55:08.948000'
g185
tp409
a(S'2015-07-29 10:55:08.957000'
g187
tp410
a(S'2015-07-29 10:55:08.962000'
S'data saved as csv to C:\\Users\\oleach\\Charlie-master\\Charlie-master\\charlie\\data\\csv\\4432_stroop.csv'
tp411
a(S'2015-07-29 10:55:09.795000'
g185
tp412
a(S'2015-07-29 10:55:09.805000'
g187
tp413
a(S'2015-07-29 10:55:09.810000'
S'data saved as csv to C:\\Users\\oleach\\Charlie-master\\Charlie-master\\charlie\\data\\csv\\4432_stroop.csv'
tp414
a(S'2015-07-29 10:55:10.596000'
g185
tp415
a(S'2015-07-29 10:55:10.606000'
g187
tp416
a(S'2015-07-29 10:55:10.611000'
S'data saved as csv to C:\\Users\\oleach\\Charlie-master\\Charlie-master\\charlie\\data\\csv\\4432_stroop.csv'
tp417
a(S'2015-07-29 10:55:11.495000'
g185
tp418
a(S'2015-07-29 10:55:11.505000'
g187
tp419
a(S'2015-07-29 10:55:11.510000'
S'data saved as csv to C:\\Users\\oleach\\Charlie-master\\Charlie-master\\charlie\\data\\csv\\4432_stroop.csv'
tp420
a(S'2015-07-29 10:55:12.307000'
g185
tp421
a(S'2015-07-29 10:55:12.316000'
g187
tp422
a(S'2015-07-29 10:55:12.322000'
S'data saved as csv to C:\\Users\\oleach\\Charlie-master\\Charlie-master\\charlie\\data\\csv\\4432_stroop.csv'
tp423
a(S'2015-07-29 10:55:13.046000'
g185
tp424
a(S'2015-07-29 10:55:13.055000'
g187
tp425
a(S'2015-07-29 10:55:13.060000'
S'data saved as csv to C:\\Users\\oleach\\Charlie-master\\Charlie-master\\charlie\\data\\csv\\4432_stroop.csv'
tp426
a(S'2015-07-29 10:55:13.717000'
g185
tp427
a(S'2015-07-29 10:55:13.726000'
g187
tp428
a(S'2015-07-29 10:55:13.731000'
S'data saved as csv to C:\\Users\\oleach\\Charlie-master\\Charlie-master\\charlie\\data\\csv\\4432_stroop.csv'
tp429
a(S'2015-07-29 10:55:14.627000'
g185
tp430
a(S'2015-07-29 10:55:14.636000'
g187
tp431
a(S'2015-07-29 10:55:14.641000'
S'data saved as csv to C:\\Users\\oleach\\Charlie-master\\Charlie-master\\charlie\\data\\csv\\4432_stroop.csv'
tp432
a(S'2015-07-29 10:55:15.748000'
g185
tp433
a(S'2015-07-29 10:55:15.757000'
g187
tp434
a(S'2015-07-29 10:55:15.762000'
S'data saved as csv to C:\\Users\\oleach\\Charlie-master\\Charlie-master\\charlie\\data\\csv\\4432_stroop.csv'
tp435
a(S'2015-07-29 10:55:16.389000'
g185
tp436
a(S'2015-07-29 10:55:16.399000'
g187
tp437
a(S'2015-07-29 10:55:16.403000'
S'data saved as csv to C:\\Users\\oleach\\Charlie-master\\Charlie-master\\charlie\\data\\csv\\4432_stroop.csv'
tp438
a(S'2015-07-29 10:55:17.278000'
g185
tp439
a(S'2015-07-29 10:55:17.287000'
g187
tp440
a(S'2015-07-29 10:55:17.291000'
S'data saved as csv to C:\\Users\\oleach\\Charlie-master\\Charlie-master\\charlie\\data\\csv\\4432_stroop.csv'
tp441
a(S'2015-07-29 10:55:18.068000'
g185
tp442
a(S'2015-07-29 10:55:18.077000'
g187
tp443
a(S'2015-07-29 10:55:18.082000'
S'data saved as csv to C:\\Users\\oleach\\Charlie-master\\Charlie-master\\charlie\\data\\csv\\4432_stroop.csv'
tp444
a(S'2015-07-29 10:55:18.916000'
g185
tp445
a(S'2015-07-29 10:55:18.926000'
g187
tp446
a(S'2015-07-29 10:55:18.931000'
S'data saved as csv to C:\\Users\\oleach\\Charlie-master\\Charlie-master\\charlie\\data\\csv\\4432_stroop.csv'
tp447
a(S'2015-07-29 10:55:19.827000'
g185
tp448
a(S'2015-07-29 10:55:19.837000'
g187
tp449
a(S'2015-07-29 10:55:19.842000'
S'data saved as csv to C:\\Users\\oleach\\Charlie-master\\Charlie-master\\charlie\\data\\csv\\4432_stroop.csv'
tp450
a(S'2015-07-29 10:55:20.609000'
g185
tp451
a(S'2015-07-29 10:55:20.618000'
g187
tp452
a(S'2015-07-29 10:55:20.629000'
S'data saved as csv to C:\\Users\\oleach\\Charlie-master\\Charlie-master\\charlie\\data\\csv\\4432_stroop.csv'
tp453
a(S'2015-07-29 10:55:21.496000'
g185
tp454
a(S'2015-07-29 10:55:21.504000'
g187
tp455
a(S'2015-07-29 10:55:21.507000'
S'data saved as csv to C:\\Users\\oleach\\Charlie-master\\Charlie-master\\charlie\\data\\csv\\4432_stroop.csv'
tp456
a(S'2015-07-29 10:55:22.182000'
g185
tp457
a(S'2015-07-29 10:55:22.192000'
g187
tp458
a(S'2015-07-29 10:55:22.195000'
S'data saved as csv to C:\\Users\\oleach\\Charlie-master\\Charlie-master\\charlie\\data\\csv\\4432_stroop.csv'
tp459
a(S'2015-07-29 10:55:23.060000'
g185
tp460
a(S'2015-07-29 10:55:23.070000'
g187
tp461
a(S'2015-07-29 10:55:23.075000'
S'data saved as csv to C:\\Users\\oleach\\Charlie-master\\Charlie-master\\charlie\\data\\csv\\4432_stroop.csv'
tp462
a(S'2015-07-29 10:55:23.789000'
g185
tp463
a(S'2015-07-29 10:55:23.799000'
g187
tp464
a(S'2015-07-29 10:55:23.804000'
S'data saved as csv to C:\\Users\\oleach\\Charlie-master\\Charlie-master\\charlie\\data\\csv\\4432_stroop.csv'
tp465
a(S'2015-07-29 10:55:24.541000'
g185
tp466
a(S'2015-07-29 10:55:24.550000'
g187
tp467
a(S'2015-07-29 10:55:24.561000'
S'data saved as csv to C:\\Users\\oleach\\Charlie-master\\Charlie-master\\charlie\\data\\csv\\4432_stroop.csv'
tp468
a(S'2015-07-29 10:55:25.276000'
g185
tp469
a(S'2015-07-29 10:55:25.286000'
g187
tp470
a(S'2015-07-29 10:55:25.291000'
S'data saved as csv to C:\\Users\\oleach\\Charlie-master\\Charlie-master\\charlie\\data\\csv\\4432_stroop.csv'
tp471
a(S'2015-07-29 10:55:26.178000'
g185
tp472
a(S'2015-07-29 10:55:26.187000'
g187
tp473
a(S'2015-07-29 10:55:26.193000'
S'data saved as csv to C:\\Users\\oleach\\Charlie-master\\Charlie-master\\charlie\\data\\csv\\4432_stroop.csv'
tp474
a(S'2015-07-29 10:55:26.870000'
g185
tp475
a(S'2015-07-29 10:55:26.880000'
g187
tp476
a(S'2015-07-29 10:55:26.885000'
S'data saved as csv to C:\\Users\\oleach\\Charlie-master\\Charlie-master\\charlie\\data\\csv\\4432_stroop.csv'
tp477
a(S'2015-07-29 10:55:27.592000'
g185
tp478
a(S'2015-07-29 10:55:27.602000'
g187
tp479
a(S'2015-07-29 10:55:27.607000'
S'data saved as csv to C:\\Users\\oleach\\Charlie-master\\Charlie-master\\charlie\\data\\csv\\4432_stroop.csv'
tp480
a(S'2015-07-29 10:55:28.254000'
g185
tp481
a(S'2015-07-29 10:55:28.264000'
g187
tp482
a(S'2015-07-29 10:55:28.269000'
S'data saved as csv to C:\\Users\\oleach\\Charlie-master\\Charlie-master\\charlie\\data\\csv\\4432_stroop.csv'
tp483
a(S'2015-07-29 10:55:29.417000'
g185
tp484
a(S'2015-07-29 10:55:29.427000'
g187
tp485
a(S'2015-07-29 10:55:29.432000'
S'data saved as csv to C:\\Users\\oleach\\Charlie-master\\Charlie-master\\charlie\\data\\csv\\4432_stroop.csv'
tp486
a(S'2015-07-29 10:55:30.350000'
g185
tp487
a(S'2015-07-29 10:55:30.357000'
g187
tp488
a(S'2015-07-29 10:55:30.360000'
S'data saved as csv to C:\\Users\\oleach\\Charlie-master\\Charlie-master\\charlie\\data\\csv\\4432_stroop.csv'
tp489
a(S'2015-07-29 10:55:31.454000'
g185
tp490
a(S'2015-07-29 10:55:31.464000'
g187
tp491
a(S'2015-07-29 10:55:31.467000'
S'data saved as csv to C:\\Users\\oleach\\Charlie-master\\Charlie-master\\charlie\\data\\csv\\4432_stroop.csv'
tp492
a(S'2015-07-29 10:55:32.352000'
g185
tp493
a(S'2015-07-29 10:55:32.362000'
g187
tp494
a(S'2015-07-29 10:55:32.366000'
S'data saved as csv to C:\\Users\\oleach\\Charlie-master\\Charlie-master\\charlie\\data\\csv\\4432_stroop.csv'
tp495
a(S'2015-07-29 10:55:33.169000'
g185
tp496
a(S'2015-07-29 10:55:33.179000'
g187
tp497
a(S'2015-07-29 10:55:33.184000'
S'data saved as csv to C:\\Users\\oleach\\Charlie-master\\Charlie-master\\charlie\\data\\csv\\4432_stroop.csv'
tp498
a(S'2015-07-29 10:55:33.870000'
g185
tp499
a(S'2015-07-29 10:55:33.880000'
g187
tp500
a(S'2015-07-29 10:55:33.885000'
S'data saved as csv to C:\\Users\\oleach\\Charlie-master\\Charlie-master\\charlie\\data\\csv\\4432_stroop.csv'
tp501
a(S'2015-07-29 10:55:34.919000'
g185
tp502
a(S'2015-07-29 10:55:34.924000'
g187
tp503
a(S'2015-07-29 10:55:34.927000'
S'data saved as csv to C:\\Users\\oleach\\Charlie-master\\Charlie-master\\charlie\\data\\csv\\4432_stroop.csv'
tp504
a(S'2015-07-29 10:55:36.712000'
g185
tp505
a(S'2015-07-29 10:55:36.723000'
g187
tp506
a(S'2015-07-29 10:55:36.728000'
S'data saved as csv to C:\\Users\\oleach\\Charlie-master\\Charlie-master\\charlie\\data\\csv\\4432_stroop.csv'
tp507
a(S'2015-07-29 10:55:37.745000'
g185
tp508
a(S'2015-07-29 10:55:37.755000'
g187
tp509
a(S'2015-07-29 10:55:37.761000'
S'data saved as csv to C:\\Users\\oleach\\Charlie-master\\Charlie-master\\charlie\\data\\csv\\4432_stroop.csv'
tp510
a(S'2015-07-29 10:55:39.107000'
g185
tp511
a(S'2015-07-29 10:55:39.116000'
g187
tp512
a(S'2015-07-29 10:55:39.122000'
S'data saved as csv to C:\\Users\\oleach\\Charlie-master\\Charlie-master\\charlie\\data\\csv\\4432_stroop.csv'
tp513
a(S'2015-07-29 10:55:40.119000'
g185
tp514
a(S'2015-07-29 10:55:40.129000'
g187
tp515
a(S'2015-07-29 10:55:40.134000'
S'data saved as csv to C:\\Users\\oleach\\Charlie-master\\Charlie-master\\charlie\\data\\csv\\4432_stroop.csv'
tp516
a(S'2015-07-29 10:55:41.107000'
g185
tp517
a(S'2015-07-29 10:55:41.117000'
g187
tp518
a(S'2015-07-29 10:55:41.122000'
S'data saved as csv to C:\\Users\\oleach\\Charlie-master\\Charlie-master\\charlie\\data\\csv\\4432_stroop.csv'
tp519
a(S'2015-07-29 10:55:41.927000'
g185
tp520
a(S'2015-07-29 10:55:41.936000'
g187
tp521
a(S'2015-07-29 10:55:41.939000'
S'data saved as csv to C:\\Users\\oleach\\Charlie-master\\Charlie-master\\charlie\\data\\csv\\4432_stroop.csv'
tp522
a(S'2015-07-29 10:55:42.775000'
g185
tp523
a(S'2015-07-29 10:55:42.785000'
g187
tp524
a(S'2015-07-29 10:55:42.790000'
S'data saved as csv to C:\\Users\\oleach\\Charlie-master\\Charlie-master\\charlie\\data\\csv\\4432_stroop.csv'
tp525
a(S'2015-07-29 10:55:43.597000'
g185
tp526
a(S'2015-07-29 10:55:43.607000'
g187
tp527
a(S'2015-07-29 10:55:43.613000'
S'data saved as csv to C:\\Users\\oleach\\Charlie-master\\Charlie-master\\charlie\\data\\csv\\4432_stroop.csv'
tp528
a(S'2015-07-29 10:55:44.401000'
g185
tp529
a(S'2015-07-29 10:55:44.412000'
g187
tp530
a(S'2015-07-29 10:55:44.417000'
S'data saved as csv to C:\\Users\\oleach\\Charlie-master\\Charlie-master\\charlie\\data\\csv\\4432_stroop.csv'
tp531
a(S'2015-07-29 10:55:45.196000'
g185
tp532
a(S'2015-07-29 10:55:45.205000'
g187
tp533
a(S'2015-07-29 10:55:45.211000'
S'data saved as csv to C:\\Users\\oleach\\Charlie-master\\Charlie-master\\charlie\\data\\csv\\4432_stroop.csv'
tp534
asb.