(icharlie.tools.data
Data
p1
(dp2
S'lang'
p3
S'EN'
p4
sS'control'
p5
(lp6
sS'last_updated'
p7
cdatetime
datetime
p8
(S'\x07\xdf\x07\x1d\r\x07\x1f\x00m`'
tRp9
sS'last_opened'
p10
g8
(S'\x07\xdf\x07\x1d\r\x02\x0f\x01\xf7\xe8'
tRp11
sS'proj_id'
p12
S'connectivity'
p13
sS'date_done'
p14
NsS'test_done'
p15
I01
sS'data'
p16
(lp17
(S'4432'
p18
S'pcet'
p19
S'practice'
p20
I0
NI2
I2
I2
I2
S'C:\\Users\\oleach\\Charlie-master\\Charlie-master\\charlie\\stimuli\\visual\\pcet\\000.png'
S'C:\\Users\\oleach\\Charlie-master\\Charlie-master\\charlie\\stimuli\\visual\\pcet\\000.png'
S'C:\\Users\\oleach\\Charlie-master\\Charlie-master\\charlie\\stimuli\\visual\\pcet\\111.png'
S'C:\\Users\\oleach\\Charlie-master\\Charlie-master\\charlie\\stimuli\\visual\\pcet\\000.png'
I2
I361
tp21
a(g18
g19
S'test'
p22
I0
S'thickness'
p23
I3
NNI1
S'C:\\Users\\oleach\\Charlie-master\\Charlie-master\\charlie\\stimuli\\visual\\pcet\\010.png'
S'C:\\Users\\oleach\\Charlie-master\\Charlie-master\\charlie\\stimuli\\visual\\pcet\\000.png'
S'C:\\Users\\oleach\\Charlie-master\\Charlie-master\\charlie\\stimuli\\visual\\pcet\\001.png'
S'C:\\Users\\oleach\\Charlie-master\\Charlie-master\\charlie\\stimuli\\visual\\pcet\\100.png'
I0
I1230
tp24
a(g18
g19
g22
I1
g23
I2
NNI0
S'C:\\Users\\oleach\\Charlie-master\\Charlie-master\\charlie\\stimuli\\visual\\pcet\\110.png'
S'C:\\Users\\oleach\\Charlie-master\\Charlie-master\\charlie\\stimuli\\visual\\pcet\\111.png'
S'C:\\Users\\oleach\\Charlie-master\\Charlie-master\\charlie\\stimuli\\visual\\pcet\\010.png'
S'C:\\Users\\oleach\\Charlie-master\\Charlie-master\\charlie\\stimuli\\visual\\pcet\\100.png'
I3
I2770
tp25
a(g18
g19
g22
I2
g23
I0
NNI3
S'C:\\Users\\oleach\\Charlie-master\\Charlie-master\\charlie\\stimuli\\visual\\pcet\\010.png'
S'C:\\Users\\oleach\\Charlie-master\\Charlie-master\\charlie\\stimuli\\visual\\pcet\\111.png'
S'C:\\Users\\oleach\\Charlie-master\\Charlie-master\\charlie\\stimuli\\visual\\pcet\\100.png'
S'C:\\Users\\oleach\\Charlie-master\\Charlie-master\\charlie\\stimuli\\visual\\pcet\\110.png'
I0
I2581
tp26
a(g18
g19
g22
I3
g23
I3
NNI1
S'C:\\Users\\oleach\\Charlie-master\\Charlie-master\\charlie\\stimuli\\visual\\pcet\\000.png'
S'C:\\Users\\oleach\\Charlie-master\\Charlie-master\\charlie\\stimuli\\visual\\pcet\\010.png'
S'C:\\Users\\oleach\\Charlie-master\\Charlie-master\\charlie\\stimuli\\visual\\pcet\\011.png'
S'C:\\Users\\oleach\\Charlie-master\\Charlie-master\\charlie\\stimuli\\visual\\pcet\\110.png'
I0
I2640
tp27
a(g18
g19
g22
I4
g23
I0
NNI3
S'C:\\Users\\oleach\\Charlie-master\\Charlie-master\\charlie\\stimuli\\visual\\pcet\\011.png'
S'C:\\Users\\oleach\\Charlie-master\\Charlie-master\\charlie\\stimuli\\visual\\pcet\\110.png'
S'C:\\Users\\oleach\\Charlie-master\\Charlie-master\\charlie\\stimuli\\visual\\pcet\\101.png'
S'C:\\Users\\oleach\\Charlie-master\\Charlie-master\\charlie\\stimuli\\visual\\pcet\\111.png'
I0
I2470
tp28
a(g18
g19
g22
I5
g23
I3
NNI1
S'C:\\Users\\oleach\\Charlie-master\\Charlie-master\\charlie\\stimuli\\visual\\pcet\\100.png'
S'C:\\Users\\oleach\\Charlie-master\\Charlie-master\\charlie\\stimuli\\visual\\pcet\\101.png'
S'C:\\Users\\oleach\\Charlie-master\\Charlie-master\\charlie\\stimuli\\visual\\pcet\\111.png'
S'C:\\Users\\oleach\\Charlie-master\\Charlie-master\\charlie\\stimuli\\visual\\pcet\\001.png'
I3
I1450
tp29
a(g18
g19
g22
I6
g23
I1
NNI3
S'C:\\Users\\oleach\\Charlie-master\\Charlie-master\\charlie\\stimuli\\visual\\pcet\\010.png'
S'C:\\Users\\oleach\\Charlie-master\\Charlie-master\\charlie\\stimuli\\visual\\pcet\\100.png'
S'C:\\Users\\oleach\\Charlie-master\\Charlie-master\\charlie\\stimuli\\visual\\pcet\\001.png'
S'C:\\Users\\oleach\\Charlie-master\\Charlie-master\\charlie\\stimuli\\visual\\pcet\\000.png'
I1
I1800
tp30
a(g18
g19
g22
I7
g23
I0
NNI1
S'C:\\Users\\oleach\\Charlie-master\\Charlie-master\\charlie\\stimuli\\visual\\pcet\\101.png'
S'C:\\Users\\oleach\\Charlie-master\\Charlie-master\\charlie\\stimuli\\visual\\pcet\\001.png'
S'C:\\Users\\oleach\\Charlie-master\\Charlie-master\\charlie\\stimuli\\visual\\pcet\\000.png'
S'C:\\Users\\oleach\\Charlie-master\\Charlie-master\\charlie\\stimuli\\visual\\pcet\\011.png'
I0
I1460
tp31
a(g18
g19
g22
I8
g23
I0
NNI1
S'C:\\Users\\oleach\\Charlie-master\\Charlie-master\\charlie\\stimuli\\visual\\pcet\\010.png'
S'C:\\Users\\oleach\\Charlie-master\\Charlie-master\\charlie\\stimuli\\visual\\pcet\\110.png'
S'C:\\Users\\oleach\\Charlie-master\\Charlie-master\\charlie\\stimuli\\visual\\pcet\\111.png'
S'C:\\Users\\oleach\\Charlie-master\\Charlie-master\\charlie\\stimuli\\visual\\pcet\\100.png'
I0
I1551
tp32
a(g18
g19
g22
I9
g23
I1
NNI3
S'C:\\Users\\oleach\\Charlie-master\\Charlie-master\\charlie\\stimuli\\visual\\pcet\\100.png'
S'C:\\Users\\oleach\\Charlie-master\\Charlie-master\\charlie\\stimuli\\visual\\pcet\\010.png'
S'C:\\Users\\oleach\\Charlie-master\\Charlie-master\\charlie\\stimuli\\visual\\pcet\\111.png'
S'C:\\Users\\oleach\\Charlie-master\\Charlie-master\\charlie\\stimuli\\visual\\pcet\\110.png'
I1
I1640
tp33
a(g18
g19
g22
I10
g23
I2
NNI0
S'C:\\Users\\oleach\\Charlie-master\\Charlie-master\\charlie\\stimuli\\visual\\pcet\\111.png'
S'C:\\Users\\oleach\\Charlie-master\\Charlie-master\\charlie\\stimuli\\visual\\pcet\\101.png'
S'C:\\Users\\oleach\\Charlie-master\\Charlie-master\\charlie\\stimuli\\visual\\pcet\\011.png'
S'C:\\Users\\oleach\\Charlie-master\\Charlie-master\\charlie\\stimuli\\visual\\pcet\\110.png'
I2
I1510
tp34
a(g18
g19
g22
I11
g23
I0
NNI1
S'C:\\Users\\oleach\\Charlie-master\\Charlie-master\\charlie\\stimuli\\visual\\pcet\\011.png'
S'C:\\Users\\oleach\\Charlie-master\\Charlie-master\\charlie\\stimuli\\visual\\pcet\\111.png'
S'C:\\Users\\oleach\\Charlie-master\\Charlie-master\\charlie\\stimuli\\visual\\pcet\\101.png'
S'C:\\Users\\oleach\\Charlie-master\\Charlie-master\\charlie\\stimuli\\visual\\pcet\\110.png'
I0
I1110
tp35
a(g18
g19
g22
I12
S'shape'
p36
I0
I3
I2
I1
S'C:\\Users\\oleach\\Charlie-master\\Charlie-master\\charlie\\stimuli\\visual\\pcet\\110.png'
S'C:\\Users\\oleach\\Charlie-master\\Charlie-master\\charlie\\stimuli\\visual\\pcet\\100.png'
S'C:\\Users\\oleach\\Charlie-master\\Charlie-master\\charlie\\stimuli\\visual\\pcet\\101.png'
S'C:\\Users\\oleach\\Charlie-master\\Charlie-master\\charlie\\stimuli\\visual\\pcet\\000.png'
I3
I410
tp37
a(g18
g19
g22
I13
S'shape'
p38
I3
I2
I1
I0
S'C:\\Users\\oleach\\Charlie-master\\Charlie-master\\charlie\\stimuli\\visual\\pcet\\101.png'
S'C:\\Users\\oleach\\Charlie-master\\Charlie-master\\charlie\\stimuli\\visual\\pcet\\100.png'
S'C:\\Users\\oleach\\Charlie-master\\Charlie-master\\charlie\\stimuli\\visual\\pcet\\001.png'
S'C:\\Users\\oleach\\Charlie-master\\Charlie-master\\charlie\\stimuli\\visual\\pcet\\111.png'
I2
I1250
tp39
a(g18
g19
g22
I14
S'shape'
p40
I3
I1
I0
I2
S'C:\\Users\\oleach\\Charlie-master\\Charlie-master\\charlie\\stimuli\\visual\\pcet\\101.png'
S'C:\\Users\\oleach\\Charlie-master\\Charlie-master\\charlie\\stimuli\\visual\\pcet\\000.png'
S'C:\\Users\\oleach\\Charlie-master\\Charlie-master\\charlie\\stimuli\\visual\\pcet\\100.png'
S'C:\\Users\\oleach\\Charlie-master\\Charlie-master\\charlie\\stimuli\\visual\\pcet\\110.png'
I1
I900
tp41
a(g18
g19
g22
I15
S'shape'
p42
I1
I3
I0
I2
S'C:\\Users\\oleach\\Charlie-master\\Charlie-master\\charlie\\stimuli\\visual\\pcet\\101.png'
S'C:\\Users\\oleach\\Charlie-master\\Charlie-master\\charlie\\stimuli\\visual\\pcet\\110.png'
S'C:\\Users\\oleach\\Charlie-master\\Charlie-master\\charlie\\stimuli\\visual\\pcet\\100.png'
S'C:\\Users\\oleach\\Charlie-master\\Charlie-master\\charlie\\stimuli\\visual\\pcet\\000.png'
I3
I1741
tp43
a(g18
g19
g22
I16
S'shape'
p44
I1
I0
I3
I2
S'C:\\Users\\oleach\\Charlie-master\\Charlie-master\\charlie\\stimuli\\visual\\pcet\\111.png'
S'C:\\Users\\oleach\\Charlie-master\\Charlie-master\\charlie\\stimuli\\visual\\pcet\\001.png'
S'C:\\Users\\oleach\\Charlie-master\\Charlie-master\\charlie\\stimuli\\visual\\pcet\\011.png'
S'C:\\Users\\oleach\\Charlie-master\\Charlie-master\\charlie\\stimuli\\visual\\pcet\\010.png'
I1
I3480
tp45
a(g18
g19
g22
I17
S'shape'
p46
I2
I1
I3
I0
S'C:\\Users\\oleach\\Charlie-master\\Charlie-master\\charlie\\stimuli\\visual\\pcet\\111.png'
S'C:\\Users\\oleach\\Charlie-master\\Charlie-master\\charlie\\stimuli\\visual\\pcet\\011.png'
S'C:\\Users\\oleach\\Charlie-master\\Charlie-master\\charlie\\stimuli\\visual\\pcet\\101.png'
S'C:\\Users\\oleach\\Charlie-master\\Charlie-master\\charlie\\stimuli\\visual\\pcet\\110.png'
I1
I3360
tp47
a(g18
g19
g22
I18
S'shape'
p48
I3
I2
I1
I0
S'C:\\Users\\oleach\\Charlie-master\\Charlie-master\\charlie\\stimuli\\visual\\pcet\\010.png'
S'C:\\Users\\oleach\\Charlie-master\\Charlie-master\\charlie\\stimuli\\visual\\pcet\\011.png'
S'C:\\Users\\oleach\\Charlie-master\\Charlie-master\\charlie\\stimuli\\visual\\pcet\\110.png'
S'C:\\Users\\oleach\\Charlie-master\\Charlie-master\\charlie\\stimuli\\visual\\pcet\\000.png'
I3
I1910
tp49
a(g18
g19
g22
I19
S'shape'
p50
I1
I0
I2
I3
S'C:\\Users\\oleach\\Charlie-master\\Charlie-master\\charlie\\stimuli\\visual\\pcet\\000.png'
S'C:\\Users\\oleach\\Charlie-master\\Charlie-master\\charlie\\stimuli\\visual\\pcet\\110.png'
S'C:\\Users\\oleach\\Charlie-master\\Charlie-master\\charlie\\stimuli\\visual\\pcet\\101.png'
S'C:\\Users\\oleach\\Charlie-master\\Charlie-master\\charlie\\stimuli\\visual\\pcet\\100.png'
I0
I1270
tp51
a(g18
g19
g22
I20
S'shape'
p52
I3
I2
I1
I0
S'C:\\Users\\oleach\\Charlie-master\\Charlie-master\\charlie\\stimuli\\visual\\pcet\\101.png'
S'C:\\Users\\oleach\\Charlie-master\\Charlie-master\\charlie\\stimuli\\visual\\pcet\\100.png'
S'C:\\Users\\oleach\\Charlie-master\\Charlie-master\\charlie\\stimuli\\visual\\pcet\\001.png'
S'C:\\Users\\oleach\\Charlie-master\\Charlie-master\\charlie\\stimuli\\visual\\pcet\\111.png'
I2
I1361
tp53
a(g18
g19
g22
I21
S'shape'
p54
I1
I0
I3
I2
S'C:\\Users\\oleach\\Charlie-master\\Charlie-master\\charlie\\stimuli\\visual\\pcet\\010.png'
S'C:\\Users\\oleach\\Charlie-master\\Charlie-master\\charlie\\stimuli\\visual\\pcet\\100.png'
S'C:\\Users\\oleach\\Charlie-master\\Charlie-master\\charlie\\stimuli\\visual\\pcet\\110.png'
S'C:\\Users\\oleach\\Charlie-master\\Charlie-master\\charlie\\stimuli\\visual\\pcet\\111.png'
I0
I2300
tp55
a(g18
g19
g22
I22
S'shape'
p56
I2
I1
I0
I3
S'C:\\Users\\oleach\\Charlie-master\\Charlie-master\\charlie\\stimuli\\visual\\pcet\\000.png'
S'C:\\Users\\oleach\\Charlie-master\\Charlie-master\\charlie\\stimuli\\visual\\pcet\\101.png'
S'C:\\Users\\oleach\\Charlie-master\\Charlie-master\\charlie\\stimuli\\visual\\pcet\\011.png'
S'C:\\Users\\oleach\\Charlie-master\\Charlie-master\\charlie\\stimuli\\visual\\pcet\\001.png'
I0
I7410
tp57
a(g18
g19
g22
I23
S'shape'
p58
I1
I0
I2
I3
S'C:\\Users\\oleach\\Charlie-master\\Charlie-master\\charlie\\stimuli\\visual\\pcet\\100.png'
S'C:\\Users\\oleach\\Charlie-master\\Charlie-master\\charlie\\stimuli\\visual\\pcet\\010.png'
S'C:\\Users\\oleach\\Charlie-master\\Charlie-master\\charlie\\stimuli\\visual\\pcet\\001.png'
S'C:\\Users\\oleach\\Charlie-master\\Charlie-master\\charlie\\stimuli\\visual\\pcet\\000.png'
I1
I3280
tp59
a(g18
g19
g22
I24
S'size'
p60
I0
I2
I3
I1
S'C:\\Users\\oleach\\Charlie-master\\Charlie-master\\charlie\\stimuli\\visual\\pcet\\101.png'
S'C:\\Users\\oleach\\Charlie-master\\Charlie-master\\charlie\\stimuli\\visual\\pcet\\100.png'
S'C:\\Users\\oleach\\Charlie-master\\Charlie-master\\charlie\\stimuli\\visual\\pcet\\110.png'
S'C:\\Users\\oleach\\Charlie-master\\Charlie-master\\charlie\\stimuli\\visual\\pcet\\000.png'
I3
I1610
tp61
a(g18
g19
g22
I25
S'size'
p62
I3
I2
I0
I1
S'C:\\Users\\oleach\\Charlie-master\\Charlie-master\\charlie\\stimuli\\visual\\pcet\\001.png'
S'C:\\Users\\oleach\\Charlie-master\\Charlie-master\\charlie\\stimuli\\visual\\pcet\\101.png'
S'C:\\Users\\oleach\\Charlie-master\\Charlie-master\\charlie\\stimuli\\visual\\pcet\\111.png'
S'C:\\Users\\oleach\\Charlie-master\\Charlie-master\\charlie\\stimuli\\visual\\pcet\\100.png'
I0
I2190
tp63
a(g18
g19
g22
I26
S'size'
p64
I0
I3
I2
I1
S'C:\\Users\\oleach\\Charlie-master\\Charlie-master\\charlie\\stimuli\\visual\\pcet\\000.png'
S'C:\\Users\\oleach\\Charlie-master\\Charlie-master\\charlie\\stimuli\\visual\\pcet\\001.png'
S'C:\\Users\\oleach\\Charlie-master\\Charlie-master\\charlie\\stimuli\\visual\\pcet\\101.png'
S'C:\\Users\\oleach\\Charlie-master\\Charlie-master\\charlie\\stimuli\\visual\\pcet\\011.png'
I3
I1990
tp65
a(g18
g19
g22
I27
S'size'
p66
I1
I2
I3
I0
S'C:\\Users\\oleach\\Charlie-master\\Charlie-master\\charlie\\stimuli\\visual\\pcet\\101.png'
S'C:\\Users\\oleach\\Charlie-master\\Charlie-master\\charlie\\stimuli\\visual\\pcet\\100.png'
S'C:\\Users\\oleach\\Charlie-master\\Charlie-master\\charlie\\stimuli\\visual\\pcet\\111.png'
S'C:\\Users\\oleach\\Charlie-master\\Charlie-master\\charlie\\stimuli\\visual\\pcet\\001.png'
I3
I2840
tp67
a(g18
g19
g22
I28
S'size'
p68
I2
I3
I1
I0
S'C:\\Users\\oleach\\Charlie-master\\Charlie-master\\charlie\\stimuli\\visual\\pcet\\110.png'
S'C:\\Users\\oleach\\Charlie-master\\Charlie-master\\charlie\\stimuli\\visual\\pcet\\010.png'
S'C:\\Users\\oleach\\Charlie-master\\Charlie-master\\charlie\\stimuli\\visual\\pcet\\111.png'
S'C:\\Users\\oleach\\Charlie-master\\Charlie-master\\charlie\\stimuli\\visual\\pcet\\100.png'
I1
I2740
tp69
a(g18
g19
g22
I29
S'size'
p70
I1
I0
I2
I3
S'C:\\Users\\oleach\\Charlie-master\\Charlie-master\\charlie\\stimuli\\visual\\pcet\\111.png'
S'C:\\Users\\oleach\\Charlie-master\\Charlie-master\\charlie\\stimuli\\visual\\pcet\\100.png'
S'C:\\Users\\oleach\\Charlie-master\\Charlie-master\\charlie\\stimuli\\visual\\pcet\\001.png'
S'C:\\Users\\oleach\\Charlie-master\\Charlie-master\\charlie\\stimuli\\visual\\pcet\\101.png'
I2
I3951
tp71
a(g18
g19
g22
I30
S'size'
p72
I0
I1
I2
I3
S'C:\\Users\\oleach\\Charlie-master\\Charlie-master\\charlie\\stimuli\\visual\\pcet\\011.png'
S'C:\\Users\\oleach\\Charlie-master\\Charlie-master\\charlie\\stimuli\\visual\\pcet\\000.png'
S'C:\\Users\\oleach\\Charlie-master\\Charlie-master\\charlie\\stimuli\\visual\\pcet\\110.png'
S'C:\\Users\\oleach\\Charlie-master\\Charlie-master\\charlie\\stimuli\\visual\\pcet\\010.png'
I2
I3390
tp73
a(g18
g19
g22
I31
S'size'
p74
I3
I1
I0
I2
S'C:\\Users\\oleach\\Charlie-master\\Charlie-master\\charlie\\stimuli\\visual\\pcet\\110.png'
S'C:\\Users\\oleach\\Charlie-master\\Charlie-master\\charlie\\stimuli\\visual\\pcet\\000.png'
S'C:\\Users\\oleach\\Charlie-master\\Charlie-master\\charlie\\stimuli\\visual\\pcet\\010.png'
S'C:\\Users\\oleach\\Charlie-master\\Charlie-master\\charlie\\stimuli\\visual\\pcet\\011.png'
I1
I5490
tp75
a(g18
g19
g22
I32
S'size'
p76
I0
I2
I1
I3
S'C:\\Users\\oleach\\Charlie-master\\Charlie-master\\charlie\\stimuli\\visual\\pcet\\000.png'
S'C:\\Users\\oleach\\Charlie-master\\Charlie-master\\charlie\\stimuli\\visual\\pcet\\101.png'
S'C:\\Users\\oleach\\Charlie-master\\Charlie-master\\charlie\\stimuli\\visual\\pcet\\011.png'
S'C:\\Users\\oleach\\Charlie-master\\Charlie-master\\charlie\\stimuli\\visual\\pcet\\001.png'
I0
I4571
tp77
a(g18
g19
g22
I33
S'size'
p78
I3
I1
I2
I0
S'C:\\Users\\oleach\\Charlie-master\\Charlie-master\\charlie\\stimuli\\visual\\pcet\\011.png'
S'C:\\Users\\oleach\\Charlie-master\\Charlie-master\\charlie\\stimuli\\visual\\pcet\\001.png'
S'C:\\Users\\oleach\\Charlie-master\\Charlie-master\\charlie\\stimuli\\visual\\pcet\\111.png'
S'C:\\Users\\oleach\\Charlie-master\\Charlie-master\\charlie\\stimuli\\visual\\pcet\\010.png'
I2
I2780
tp79
a(g18
g19
g22
I34
S'size'
p80
I2
I3
I1
I0
S'C:\\Users\\oleach\\Charlie-master\\Charlie-master\\charlie\\stimuli\\visual\\pcet\\011.png'
S'C:\\Users\\oleach\\Charlie-master\\Charlie-master\\charlie\\stimuli\\visual\\pcet\\111.png'
S'C:\\Users\\oleach\\Charlie-master\\Charlie-master\\charlie\\stimuli\\visual\\pcet\\010.png'
S'C:\\Users\\oleach\\Charlie-master\\Charlie-master\\charlie\\stimuli\\visual\\pcet\\001.png'
I3
I5380
tp81
a(g18
g19
g22
I35
S'size'
p82
I2
I0
I1
I3
S'C:\\Users\\oleach\\Charlie-master\\Charlie-master\\charlie\\stimuli\\visual\\pcet\\010.png'
S'C:\\Users\\oleach\\Charlie-master\\Charlie-master\\charlie\\stimuli\\visual\\pcet\\100.png'
S'C:\\Users\\oleach\\Charlie-master\\Charlie-master\\charlie\\stimuli\\visual\\pcet\\001.png'
S'C:\\Users\\oleach\\Charlie-master\\Charlie-master\\charlie\\stimuli\\visual\\pcet\\000.png'
I0
I1940
tp83
a(g18
g19
g22
I36
g23
I2
I3
I1
I0
S'C:\\Users\\oleach\\Charlie-master\\Charlie-master\\charlie\\stimuli\\visual\\pcet\\010.png'
S'C:\\Users\\oleach\\Charlie-master\\Charlie-master\\charlie\\stimuli\\visual\\pcet\\000.png'
S'C:\\Users\\oleach\\Charlie-master\\Charlie-master\\charlie\\stimuli\\visual\\pcet\\110.png'
S'C:\\Users\\oleach\\Charlie-master\\Charlie-master\\charlie\\stimuli\\visual\\pcet\\011.png'
I1
I4581
tp84
a(g18
g19
g22
I37
g23
I3
I2
I1
I0
S'C:\\Users\\oleach\\Charlie-master\\Charlie-master\\charlie\\stimuli\\visual\\pcet\\101.png'
S'C:\\Users\\oleach\\Charlie-master\\Charlie-master\\charlie\\stimuli\\visual\\pcet\\111.png'
S'C:\\Users\\oleach\\Charlie-master\\Charlie-master\\charlie\\stimuli\\visual\\pcet\\100.png'
S'C:\\Users\\oleach\\Charlie-master\\Charlie-master\\charlie\\stimuli\\visual\\pcet\\001.png'
I3
I1710
tp85
a(g18
g19
g22
I38
g23
I0
I3
I1
I2
S'C:\\Users\\oleach\\Charlie-master\\Charlie-master\\charlie\\stimuli\\visual\\pcet\\100.png'
S'C:\\Users\\oleach\\Charlie-master\\Charlie-master\\charlie\\stimuli\\visual\\pcet\\010.png'
S'C:\\Users\\oleach\\Charlie-master\\Charlie-master\\charlie\\stimuli\\visual\\pcet\\000.png'
S'C:\\Users\\oleach\\Charlie-master\\Charlie-master\\charlie\\stimuli\\visual\\pcet\\001.png'
I1
I2960
tp86
a(g18
g19
g22
I39
g23
I0
I3
I2
I1
S'C:\\Users\\oleach\\Charlie-master\\Charlie-master\\charlie\\stimuli\\visual\\pcet\\010.png'
S'C:\\Users\\oleach\\Charlie-master\\Charlie-master\\charlie\\stimuli\\visual\\pcet\\110.png'
S'C:\\Users\\oleach\\Charlie-master\\Charlie-master\\charlie\\stimuli\\visual\\pcet\\100.png'
S'C:\\Users\\oleach\\Charlie-master\\Charlie-master\\charlie\\stimuli\\visual\\pcet\\111.png'
I0
I5241
tp87
a(g18
g19
g22
I40
g23
I0
I1
I2
I3
S'C:\\Users\\oleach\\Charlie-master\\Charlie-master\\charlie\\stimuli\\visual\\pcet\\001.png'
S'C:\\Users\\oleach\\Charlie-master\\Charlie-master\\charlie\\stimuli\\visual\\pcet\\100.png'
S'C:\\Users\\oleach\\Charlie-master\\Charlie-master\\charlie\\stimuli\\visual\\pcet\\111.png'
S'C:\\Users\\oleach\\Charlie-master\\Charlie-master\\charlie\\stimuli\\visual\\pcet\\101.png'
I0
I4520
tp88
a(g18
g19
g22
I41
g23
I3
I0
I2
I1
S'C:\\Users\\oleach\\Charlie-master\\Charlie-master\\charlie\\stimuli\\visual\\pcet\\111.png'
S'C:\\Users\\oleach\\Charlie-master\\Charlie-master\\charlie\\stimuli\\visual\\pcet\\110.png'
S'C:\\Users\\oleach\\Charlie-master\\Charlie-master\\charlie\\stimuli\\visual\\pcet\\100.png'
S'C:\\Users\\oleach\\Charlie-master\\Charlie-master\\charlie\\stimuli\\visual\\pcet\\010.png'
I3
I3840
tp89
a(g18
g19
g22
I42
g23
I0
I3
I1
I2
S'C:\\Users\\oleach\\Charlie-master\\Charlie-master\\charlie\\stimuli\\visual\\pcet\\110.png'
S'C:\\Users\\oleach\\Charlie-master\\Charlie-master\\charlie\\stimuli\\visual\\pcet\\000.png'
S'C:\\Users\\oleach\\Charlie-master\\Charlie-master\\charlie\\stimuli\\visual\\pcet\\010.png'
S'C:\\Users\\oleach\\Charlie-master\\Charlie-master\\charlie\\stimuli\\visual\\pcet\\011.png'
I1
I5691
tp90
a(g18
g19
g22
I43
g23
I0
I3
I2
I1
S'C:\\Users\\oleach\\Charlie-master\\Charlie-master\\charlie\\stimuli\\visual\\pcet\\000.png'
S'C:\\Users\\oleach\\Charlie-master\\Charlie-master\\charlie\\stimuli\\visual\\pcet\\100.png'
S'C:\\Users\\oleach\\Charlie-master\\Charlie-master\\charlie\\stimuli\\visual\\pcet\\110.png'
S'C:\\Users\\oleach\\Charlie-master\\Charlie-master\\charlie\\stimuli\\visual\\pcet\\101.png'
I0
I3170
tp91
a(g18
g19
g22
I44
g23
I2
I1
I3
I0
S'C:\\Users\\oleach\\Charlie-master\\Charlie-master\\charlie\\stimuli\\visual\\pcet\\010.png'
S'C:\\Users\\oleach\\Charlie-master\\Charlie-master\\charlie\\stimuli\\visual\\pcet\\011.png'
S'C:\\Users\\oleach\\Charlie-master\\Charlie-master\\charlie\\stimuli\\visual\\pcet\\110.png'
S'C:\\Users\\oleach\\Charlie-master\\Charlie-master\\charlie\\stimuli\\visual\\pcet\\000.png'
I2
I4630
tp92
a(g18
g19
g22
I45
g23
I3
I0
I2
I1
S'C:\\Users\\oleach\\Charlie-master\\Charlie-master\\charlie\\stimuli\\visual\\pcet\\011.png'
S'C:\\Users\\oleach\\Charlie-master\\Charlie-master\\charlie\\stimuli\\visual\\pcet\\010.png'
S'C:\\Users\\oleach\\Charlie-master\\Charlie-master\\charlie\\stimuli\\visual\\pcet\\000.png'
S'C:\\Users\\oleach\\Charlie-master\\Charlie-master\\charlie\\stimuli\\visual\\pcet\\110.png'
I3
I4000
tp93
a(g18
g19
g22
I46
g23
I1
I3
I2
I0
S'C:\\Users\\oleach\\Charlie-master\\Charlie-master\\charlie\\stimuli\\visual\\pcet\\101.png'
S'C:\\Users\\oleach\\Charlie-master\\Charlie-master\\charlie\\stimuli\\visual\\pcet\\001.png'
S'C:\\Users\\oleach\\Charlie-master\\Charlie-master\\charlie\\stimuli\\visual\\pcet\\111.png'
S'C:\\Users\\oleach\\Charlie-master\\Charlie-master\\charlie\\stimuli\\visual\\pcet\\100.png'
I1
I2121
tp94
a(g18
g19
g22
I47
g23
I1
I3
I2
I0
S'C:\\Users\\oleach\\Charlie-master\\Charlie-master\\charlie\\stimuli\\visual\\pcet\\010.png'
S'C:\\Users\\oleach\\Charlie-master\\Charlie-master\\charlie\\stimuli\\visual\\pcet\\110.png'
S'C:\\Users\\oleach\\Charlie-master\\Charlie-master\\charlie\\stimuli\\visual\\pcet\\000.png'
S'C:\\Users\\oleach\\Charlie-master\\Charlie-master\\charlie\\stimuli\\visual\\pcet\\011.png'
I1
I1590
tp95
a(g18
g19
g22
I48
S'shape'
p96
I3
I2
I1
I0
S'C:\\Users\\oleach\\Charlie-master\\Charlie-master\\charlie\\stimuli\\visual\\pcet\\110.png'
S'C:\\Users\\oleach\\Charlie-master\\Charlie-master\\charlie\\stimuli\\visual\\pcet\\111.png'
S'C:\\Users\\oleach\\Charlie-master\\Charlie-master\\charlie\\stimuli\\visual\\pcet\\010.png'
S'C:\\Users\\oleach\\Charlie-master\\Charlie-master\\charlie\\stimuli\\visual\\pcet\\100.png'
I2
I1670
tp97
a(g18
g19
g22
I49
S'shape'
p98
I1
I0
I3
I2
S'C:\\Users\\oleach\\Charlie-master\\Charlie-master\\charlie\\stimuli\\visual\\pcet\\101.png'
S'C:\\Users\\oleach\\Charlie-master\\Charlie-master\\charlie\\stimuli\\visual\\pcet\\011.png'
S'C:\\Users\\oleach\\Charlie-master\\Charlie-master\\charlie\\stimuli\\visual\\pcet\\001.png'
S'C:\\Users\\oleach\\Charlie-master\\Charlie-master\\charlie\\stimuli\\visual\\pcet\\000.png'
I1
I2020
tp99
a(g18
g19
g22
I50
S'shape'
p100
I2
I0
I3
I1
S'C:\\Users\\oleach\\Charlie-master\\Charlie-master\\charlie\\stimuli\\visual\\pcet\\101.png'
S'C:\\Users\\oleach\\Charlie-master\\Charlie-master\\charlie\\stimuli\\visual\\pcet\\001.png'
S'C:\\Users\\oleach\\Charlie-master\\Charlie-master\\charlie\\stimuli\\visual\\pcet\\011.png'
S'C:\\Users\\oleach\\Charlie-master\\Charlie-master\\charlie\\stimuli\\visual\\pcet\\000.png'
I0
I2700
tp101
a(g18
g19
g22
I51
S'shape'
p102
I1
I3
I0
I2
S'C:\\Users\\oleach\\Charlie-master\\Charlie-master\\charlie\\stimuli\\visual\\pcet\\111.png'
S'C:\\Users\\oleach\\Charlie-master\\Charlie-master\\charlie\\stimuli\\visual\\pcet\\100.png'
S'C:\\Users\\oleach\\Charlie-master\\Charlie-master\\charlie\\stimuli\\visual\\pcet\\110.png'
S'C:\\Users\\oleach\\Charlie-master\\Charlie-master\\charlie\\stimuli\\visual\\pcet\\010.png'
I3
I2450
tp103
a(g18
g19
g22
I52
S'shape'
p104
I1
I3
I2
I0
S'C:\\Users\\oleach\\Charlie-master\\Charlie-master\\charlie\\stimuli\\visual\\pcet\\100.png'
S'C:\\Users\\oleach\\Charlie-master\\Charlie-master\\charlie\\stimuli\\visual\\pcet\\110.png'
S'C:\\Users\\oleach\\Charlie-master\\Charlie-master\\charlie\\stimuli\\visual\\pcet\\101.png'
S'C:\\Users\\oleach\\Charlie-master\\Charlie-master\\charlie\\stimuli\\visual\\pcet\\000.png'
I3
I2160
tp105
a(g18
g19
g22
I53
S'shape'
p106
I1
I2
I0
I3
S'C:\\Users\\oleach\\Charlie-master\\Charlie-master\\charlie\\stimuli\\visual\\pcet\\001.png'
S'C:\\Users\\oleach\\Charlie-master\\Charlie-master\\charlie\\stimuli\\visual\\pcet\\010.png'
S'C:\\Users\\oleach\\Charlie-master\\Charlie-master\\charlie\\stimuli\\visual\\pcet\\100.png'
S'C:\\Users\\oleach\\Charlie-master\\Charlie-master\\charlie\\stimuli\\visual\\pcet\\000.png'
I2
I2150
tp107
a(g18
g19
g22
I54
S'shape'
p108
I3
I0
I1
I2
S'C:\\Users\\oleach\\Charlie-master\\Charlie-master\\charlie\\stimuli\\visual\\pcet\\010.png'
S'C:\\Users\\oleach\\Charlie-master\\Charlie-master\\charlie\\stimuli\\visual\\pcet\\111.png'
S'C:\\Users\\oleach\\Charlie-master\\Charlie-master\\charlie\\stimuli\\visual\\pcet\\110.png'
S'C:\\Users\\oleach\\Charlie-master\\Charlie-master\\charlie\\stimuli\\visual\\pcet\\100.png'
I0
I3370
tp109
a(g18
g19
g22
I55
S'shape'
p110
I3
I0
I2
I1
S'C:\\Users\\oleach\\Charlie-master\\Charlie-master\\charlie\\stimuli\\visual\\pcet\\001.png'
S'C:\\Users\\oleach\\Charlie-master\\Charlie-master\\charlie\\stimuli\\visual\\pcet\\101.png'
S'C:\\Users\\oleach\\Charlie-master\\Charlie-master\\charlie\\stimuli\\visual\\pcet\\100.png'
S'C:\\Users\\oleach\\Charlie-master\\Charlie-master\\charlie\\stimuli\\visual\\pcet\\111.png'
I3
I3670
tp111
a(g18
g19
g22
I56
S'shape'
p112
I2
I1
I3
I0
S'C:\\Users\\oleach\\Charlie-master\\Charlie-master\\charlie\\stimuli\\visual\\pcet\\001.png'
S'C:\\Users\\oleach\\Charlie-master\\Charlie-master\\charlie\\stimuli\\visual\\pcet\\101.png'
S'C:\\Users\\oleach\\Charlie-master\\Charlie-master\\charlie\\stimuli\\visual\\pcet\\011.png'
S'C:\\Users\\oleach\\Charlie-master\\Charlie-master\\charlie\\stimuli\\visual\\pcet\\000.png'
I2
I1861
tp113
a(g18
g19
g22
I57
S'shape'
p114
I0
I2
I1
I3
S'C:\\Users\\oleach\\Charlie-master\\Charlie-master\\charlie\\stimuli\\visual\\pcet\\100.png'
S'C:\\Users\\oleach\\Charlie-master\\Charlie-master\\charlie\\stimuli\\visual\\pcet\\111.png'
S'C:\\Users\\oleach\\Charlie-master\\Charlie-master\\charlie\\stimuli\\visual\\pcet\\010.png'
S'C:\\Users\\oleach\\Charlie-master\\Charlie-master\\charlie\\stimuli\\visual\\pcet\\110.png'
I0
I1730
tp115
a(g18
g19
g22
I58
S'shape'
p116
I2
I3
I1
I0
S'C:\\Users\\oleach\\Charlie-master\\Charlie-master\\charlie\\stimuli\\visual\\pcet\\001.png'
S'C:\\Users\\oleach\\Charlie-master\\Charlie-master\\charlie\\stimuli\\visual\\pcet\\000.png'
S'C:\\Users\\oleach\\Charlie-master\\Charlie-master\\charlie\\stimuli\\visual\\pcet\\011.png'
S'C:\\Users\\oleach\\Charlie-master\\Charlie-master\\charlie\\stimuli\\visual\\pcet\\101.png'
I2
I1560
tp117
a(g18
g19
g22
I59
S'shape'
p118
I0
I1
I2
I3
S'C:\\Users\\oleach\\Charlie-master\\Charlie-master\\charlie\\stimuli\\visual\\pcet\\111.png'
S'C:\\Users\\oleach\\Charlie-master\\Charlie-master\\charlie\\stimuli\\visual\\pcet\\001.png'
S'C:\\Users\\oleach\\Charlie-master\\Charlie-master\\charlie\\stimuli\\visual\\pcet\\100.png'
S'C:\\Users\\oleach\\Charlie-master\\Charlie-master\\charlie\\stimuli\\visual\\pcet\\101.png'
I1
I3120
tp119
a(g18
g19
g22
I60
S'size'
p120
I0
I2
I1
I3
S'C:\\Users\\oleach\\Charlie-master\\Charlie-master\\charlie\\stimuli\\visual\\pcet\\101.png'
S'C:\\Users\\oleach\\Charlie-master\\Charlie-master\\charlie\\stimuli\\visual\\pcet\\000.png'
S'C:\\Users\\oleach\\Charlie-master\\Charlie-master\\charlie\\stimuli\\visual\\pcet\\110.png'
S'C:\\Users\\oleach\\Charlie-master\\Charlie-master\\charlie\\stimuli\\visual\\pcet\\100.png'
I2
I3920
tp121
a(g18
g19
g22
I61
S'size'
p122
I2
I3
I0
I1
S'C:\\Users\\oleach\\Charlie-master\\Charlie-master\\charlie\\stimuli\\visual\\pcet\\100.png'
S'C:\\Users\\oleach\\Charlie-master\\Charlie-master\\charlie\\stimuli\\visual\\pcet\\000.png'
S'C:\\Users\\oleach\\Charlie-master\\Charlie-master\\charlie\\stimuli\\visual\\pcet\\001.png'
S'C:\\Users\\oleach\\Charlie-master\\Charlie-master\\charlie\\stimuli\\visual\\pcet\\010.png'
I0
I2101
tp123
a(g18
g19
g22
I62
S'size'
p124
I2
I0
I1
I3
S'C:\\Users\\oleach\\Charlie-master\\Charlie-master\\charlie\\stimuli\\visual\\pcet\\111.png'
S'C:\\Users\\oleach\\Charlie-master\\Charlie-master\\charlie\\stimuli\\visual\\pcet\\001.png'
S'C:\\Users\\oleach\\Charlie-master\\Charlie-master\\charlie\\stimuli\\visual\\pcet\\100.png'
S'C:\\Users\\oleach\\Charlie-master\\Charlie-master\\charlie\\stimuli\\visual\\pcet\\101.png'
I0
I1370
tp125
a(g18
g19
g22
I63
S'size'
p126
I1
I0
I3
I2
S'C:\\Users\\oleach\\Charlie-master\\Charlie-master\\charlie\\stimuli\\visual\\pcet\\010.png'
S'C:\\Users\\oleach\\Charlie-master\\Charlie-master\\charlie\\stimuli\\visual\\pcet\\001.png'
S'C:\\Users\\oleach\\Charlie-master\\Charlie-master\\charlie\\stimuli\\visual\\pcet\\000.png'
S'C:\\Users\\oleach\\Charlie-master\\Charlie-master\\charlie\\stimuli\\visual\\pcet\\100.png'
I3
I2100
tp127
a(g18
g19
g22
I64
S'size'
p128
I0
I2
I3
I1
S'C:\\Users\\oleach\\Charlie-master\\Charlie-master\\charlie\\stimuli\\visual\\pcet\\110.png'
S'C:\\Users\\oleach\\Charlie-master\\Charlie-master\\charlie\\stimuli\\visual\\pcet\\111.png'
S'C:\\Users\\oleach\\Charlie-master\\Charlie-master\\charlie\\stimuli\\visual\\pcet\\101.png'
S'C:\\Users\\oleach\\Charlie-master\\Charlie-master\\charlie\\stimuli\\visual\\pcet\\011.png'
I2
I2810
tp129
a(g18
g19
g22
I65
S'size'
p130
I3
I1
I0
I2
S'C:\\Users\\oleach\\Charlie-master\\Charlie-master\\charlie\\stimuli\\visual\\pcet\\100.png'
S'C:\\Users\\oleach\\Charlie-master\\Charlie-master\\charlie\\stimuli\\visual\\pcet\\010.png'
S'C:\\Users\\oleach\\Charlie-master\\Charlie-master\\charlie\\stimuli\\visual\\pcet\\000.png'
S'C:\\Users\\oleach\\Charlie-master\\Charlie-master\\charlie\\stimuli\\visual\\pcet\\001.png'
I1
I4280
tp131
a(g18
g19
g22
I66
S'size'
p132
I3
I1
I2
I0
S'C:\\Users\\oleach\\Charlie-master\\Charlie-master\\charlie\\stimuli\\visual\\pcet\\011.png'
S'C:\\Users\\oleach\\Charlie-master\\Charlie-master\\charlie\\stimuli\\visual\\pcet\\001.png'
S'C:\\Users\\oleach\\Charlie-master\\Charlie-master\\charlie\\stimuli\\visual\\pcet\\111.png'
S'C:\\Users\\oleach\\Charlie-master\\Charlie-master\\charlie\\stimuli\\visual\\pcet\\010.png'
I2
I3661
tp133
a(g18
g19
g22
I67
S'size'
p134
I1
I2
I3
I0
S'C:\\Users\\oleach\\Charlie-master\\Charlie-master\\charlie\\stimuli\\visual\\pcet\\011.png'
S'C:\\Users\\oleach\\Charlie-master\\Charlie-master\\charlie\\stimuli\\visual\\pcet\\010.png'
S'C:\\Users\\oleach\\Charlie-master\\Charlie-master\\charlie\\stimuli\\visual\\pcet\\001.png'
S'C:\\Users\\oleach\\Charlie-master\\Charlie-master\\charlie\\stimuli\\visual\\pcet\\111.png'
I2
I1790
tp135
a(g18
g19
g22
I68
S'size'
p136
I0
I2
I3
I1
S'C:\\Users\\oleach\\Charlie-master\\Charlie-master\\charlie\\stimuli\\visual\\pcet\\100.png'
S'C:\\Users\\oleach\\Charlie-master\\Charlie-master\\charlie\\stimuli\\visual\\pcet\\101.png'
S'C:\\Users\\oleach\\Charlie-master\\Charlie-master\\charlie\\stimuli\\visual\\pcet\\111.png'
S'C:\\Users\\oleach\\Charlie-master\\Charlie-master\\charlie\\stimuli\\visual\\pcet\\001.png'
I3
I2200
tp137
a(g18
g19
g22
I69
S'size'
p138
I0
I1
I2
I3
S'C:\\Users\\oleach\\Charlie-master\\Charlie-master\\charlie\\stimuli\\visual\\pcet\\100.png'
S'C:\\Users\\oleach\\Charlie-master\\Charlie-master\\charlie\\stimuli\\visual\\pcet\\111.png'
S'C:\\Users\\oleach\\Charlie-master\\Charlie-master\\charlie\\stimuli\\visual\\pcet\\001.png'
S'C:\\Users\\oleach\\Charlie-master\\Charlie-master\\charlie\\stimuli\\visual\\pcet\\101.png'
I1
I2410
tp139
a(g18
g19
g22
I70
S'size'
p140
I1
I0
I3
I2
S'C:\\Users\\oleach\\Charlie-master\\Charlie-master\\charlie\\stimuli\\visual\\pcet\\111.png'
S'C:\\Users\\oleach\\Charlie-master\\Charlie-master\\charlie\\stimuli\\visual\\pcet\\100.png'
S'C:\\Users\\oleach\\Charlie-master\\Charlie-master\\charlie\\stimuli\\visual\\pcet\\101.png'
S'C:\\Users\\oleach\\Charlie-master\\Charlie-master\\charlie\\stimuli\\visual\\pcet\\001.png'
I3
I2850
tp141
a(g18
g19
g22
I71
S'size'
p142
I1
I2
I3
I0
S'C:\\Users\\oleach\\Charlie-master\\Charlie-master\\charlie\\stimuli\\visual\\pcet\\010.png'
p143
S'C:\\Users\\oleach\\Charlie-master\\Charlie-master\\charlie\\stimuli\\visual\\pcet\\011.png'
p144
S'C:\\Users\\oleach\\Charlie-master\\Charlie-master\\charlie\\stimuli\\visual\\pcet\\000.png'
p145
S'C:\\Users\\oleach\\Charlie-master\\Charlie-master\\charlie\\stimuli\\visual\\pcet\\110.png'
p146
I2
I2120
tp147
asS'output_format'
p148
(lp149
(S'proband_id'
p150
c__builtin__
str
p151
tp152
a(S'test_name'
p153
g151
tp154
a(S'phase'
p155
g151
tp156
a(S'trialn'
p157
c__builtin__
int
p158
tp159
a(S'rule'
p160
g151
tp161
a(S'ans'
p162
g151
tp163
a(S'pers'
p164
g151
tp165
a(S'other'
p166
g151
tp167
a(S'lapse'
p168
g151
tp169
a(S'f1'
p170
g151
tp171
a(S'f2'
p172
g151
tp173
a(S'f3'
p174
g151
tp175
a(S'f4'
p176
g151
tp177
a(S'rsp'
p178
g151
tp179
a(S'rt'
p180
g158
tp181
asg150
g18
sS'filename'
p182
S'4432_pcet.data'
p183
sS'initialised'
p184
g8
(S'\x07\xdf\x07\x1d\r\x02\x0f\x01\xf7\xe8'
tRp185
sS'last_udated'
p186
g8
(S'\x07\xdf\x07\x1d\r\x02\x0f\x01\xf7\xe8'
tRp187
sg153
S'pcet'
p188
sS'directory'
p189
S'C:\\Users\\oleach\\Charlie-master\\Charlie-master\\charlie\\data\\raw'
p190
sS'user_id'
p191
S'oleach'
p192
sS'test_started'
p193
I01
sS'abs_filename'
p194
S'C:\\Users\\oleach\\Charlie-master\\Charlie-master\\charlie\\data\\raw\\4432_pcet.data'
p195
sS'date_started'
p196
g8
(S'\x07\xdf\x07\x1d\r\x020\x08=`'
tRp197
sS'log'
p198
(lp199
(S'2015-07-29 13:02:15.129000'
S'instance created'
p200
tp201
a(S'2015-07-29 13:02:48.552000'
S'instance updated'
p202
tp203
a(S'2015-07-29 13:02:48.565000'
S'pandas DataFrame of data created'
p204
tp205
a(S'2015-07-29 13:02:48.569000'
S'data saved as csv to C:\\Users\\oleach\\Charlie-master\\Charlie-master\\charlie\\data\\csv\\4432_pcet.csv'
tp206
a(S'2015-07-29 13:02:58.807000'
g202
tp207
a(S'2015-07-29 13:02:58.818000'
g204
tp208
a(S'2015-07-29 13:02:58.822000'
S'data saved as csv to C:\\Users\\oleach\\Charlie-master\\Charlie-master\\charlie\\data\\csv\\4432_pcet.csv'
tp209
a(S'2015-07-29 13:03:02.683000'
g202
tp210
a(S'2015-07-29 13:03:02.695000'
g204
tp211
a(S'2015-07-29 13:03:02.699000'
S'data saved as csv to C:\\Users\\oleach\\Charlie-master\\Charlie-master\\charlie\\data\\csv\\4432_pcet.csv'
tp212
a(S'2015-07-29 13:03:06.370000'
g202
tp213
a(S'2015-07-29 13:03:06.382000'
g204
tp214
a(S'2015-07-29 13:03:06.386000'
S'data saved as csv to C:\\Users\\oleach\\Charlie-master\\Charlie-master\\charlie\\data\\csv\\4432_pcet.csv'
tp215
a(S'2015-07-29 13:03:10.113000'
g202
tp216
a(S'2015-07-29 13:03:10.126000'
g204
tp217
a(S'2015-07-29 13:03:10.129000'
S'data saved as csv to C:\\Users\\oleach\\Charlie-master\\Charlie-master\\charlie\\data\\csv\\4432_pcet.csv'
tp218
a(S'2015-07-29 13:03:13.689000'
g202
tp219
a(S'2015-07-29 13:03:13.701000'
g204
tp220
a(S'2015-07-29 13:03:13.705000'
S'data saved as csv to C:\\Users\\oleach\\Charlie-master\\Charlie-master\\charlie\\data\\csv\\4432_pcet.csv'
tp221
a(S'2015-07-29 13:03:16.253000'
g202
tp222
a(S'2015-07-29 13:03:16.266000'
g204
tp223
a(S'2015-07-29 13:03:16.270000'
S'data saved as csv to C:\\Users\\oleach\\Charlie-master\\Charlie-master\\charlie\\data\\csv\\4432_pcet.csv'
tp224
a(S'2015-07-29 13:03:19.150000'
g202
tp225
a(S'2015-07-29 13:03:19.161000'
g204
tp226
a(S'2015-07-29 13:03:19.163000'
S'data saved as csv to C:\\Users\\oleach\\Charlie-master\\Charlie-master\\charlie\\data\\csv\\4432_pcet.csv'
tp227
a(S'2015-07-29 13:03:21.710000'
g202
tp228
a(S'2015-07-29 13:03:21.722000'
g204
tp229
a(S'2015-07-29 13:03:21.726000'
S'data saved as csv to C:\\Users\\oleach\\Charlie-master\\Charlie-master\\charlie\\data\\csv\\4432_pcet.csv'
tp230
a(S'2015-07-29 13:03:24.366000'
g202
tp231
a(S'2015-07-29 13:03:24.378000'
g204
tp232
a(S'2015-07-29 13:03:24.381000'
S'data saved as csv to C:\\Users\\oleach\\Charlie-master\\Charlie-master\\charlie\\data\\csv\\4432_pcet.csv'
tp233
a(S'2015-07-29 13:03:27.103000'
g202
tp234
a(S'2015-07-29 13:03:27.112000'
g204
tp235
a(S'2015-07-29 13:03:27.114000'
S'data saved as csv to C:\\Users\\oleach\\Charlie-master\\Charlie-master\\charlie\\data\\csv\\4432_pcet.csv'
tp236
a(S'2015-07-29 13:03:29.716000'
g202
tp237
a(S'2015-07-29 13:03:29.728000'
g204
tp238
a(S'2015-07-29 13:03:29.732000'
S'data saved as csv to C:\\Users\\oleach\\Charlie-master\\Charlie-master\\charlie\\data\\csv\\4432_pcet.csv'
tp239
a(S'2015-07-29 13:03:31.940000'
g202
tp240
a(S'2015-07-29 13:03:31.952000'
g204
tp241
a(S'2015-07-29 13:03:31.956000'
S'data saved as csv to C:\\Users\\oleach\\Charlie-master\\Charlie-master\\charlie\\data\\csv\\4432_pcet.csv'
tp242
a(S'2015-07-29 13:03:34.630000'
g202
tp243
a(S'2015-07-29 13:03:34.641000'
g204
tp244
a(S'2015-07-29 13:03:34.666000'
S'data saved as csv to C:\\Users\\oleach\\Charlie-master\\Charlie-master\\charlie\\data\\csv\\4432_pcet.csv'
tp245
a(S'2015-07-29 13:03:37.005000'
g202
tp246
a(S'2015-07-29 13:03:37.017000'
g204
tp247
a(S'2015-07-29 13:03:37.021000'
S'data saved as csv to C:\\Users\\oleach\\Charlie-master\\Charlie-master\\charlie\\data\\csv\\4432_pcet.csv'
tp248
a(S'2015-07-29 13:03:39.006000'
g202
tp249
a(S'2015-07-29 13:03:39.019000'
g204
tp250
a(S'2015-07-29 13:03:39.021000'
S'data saved as csv to C:\\Users\\oleach\\Charlie-master\\Charlie-master\\charlie\\data\\csv\\4432_pcet.csv'
tp251
a(S'2015-07-29 13:03:41.839000'
g202
tp252
a(S'2015-07-29 13:03:41.851000'
g204
tp253
a(S'2015-07-29 13:03:41.855000'
S'data saved as csv to C:\\Users\\oleach\\Charlie-master\\Charlie-master\\charlie\\data\\csv\\4432_pcet.csv'
tp254
a(S'2015-07-29 13:03:46.430000'
g202
tp255
a(S'2015-07-29 13:03:46.442000'
g204
tp256
a(S'2015-07-29 13:03:46.446000'
S'data saved as csv to C:\\Users\\oleach\\Charlie-master\\Charlie-master\\charlie\\data\\csv\\4432_pcet.csv'
tp257
a(S'2015-07-29 13:03:50.901000'
g202
tp258
a(S'2015-07-29 13:03:50.913000'
g204
tp259
a(S'2015-07-29 13:03:50.917000'
S'data saved as csv to C:\\Users\\oleach\\Charlie-master\\Charlie-master\\charlie\\data\\csv\\4432_pcet.csv'
tp260
a(S'2015-07-29 13:03:53.912000'
g202
tp261
a(S'2015-07-29 13:03:53.925000'
g204
tp262
a(S'2015-07-29 13:03:53.929000'
S'data saved as csv to C:\\Users\\oleach\\Charlie-master\\Charlie-master\\charlie\\data\\csv\\4432_pcet.csv'
tp263
a(S'2015-07-29 13:03:56.285000'
g202
tp264
a(S'2015-07-29 13:03:56.297000'
g204
tp265
a(S'2015-07-29 13:03:56.300000'
S'data saved as csv to C:\\Users\\oleach\\Charlie-master\\Charlie-master\\charlie\\data\\csv\\4432_pcet.csv'
tp266
a(S'2015-07-29 13:03:58.749000'
g202
tp267
a(S'2015-07-29 13:03:58.759000'
g204
tp268
a(S'2015-07-29 13:03:58.762000'
S'data saved as csv to C:\\Users\\oleach\\Charlie-master\\Charlie-master\\charlie\\data\\csv\\4432_pcet.csv'
tp269
a(S'2015-07-29 13:04:02.145000'
g202
tp270
a(S'2015-07-29 13:04:02.158000'
g204
tp271
a(S'2015-07-29 13:04:02.162000'
S'data saved as csv to C:\\Users\\oleach\\Charlie-master\\Charlie-master\\charlie\\data\\csv\\4432_pcet.csv'
tp272
a(S'2015-07-29 13:04:10.666000'
g202
tp273
a(S'2015-07-29 13:04:10.678000'
g204
tp274
a(S'2015-07-29 13:04:10.683000'
S'data saved as csv to C:\\Users\\oleach\\Charlie-master\\Charlie-master\\charlie\\data\\csv\\4432_pcet.csv'
tp275
a(S'2015-07-29 13:04:15.045000'
g202
tp276
a(S'2015-07-29 13:04:15.057000'
g204
tp277
a(S'2015-07-29 13:04:15.061000'
S'data saved as csv to C:\\Users\\oleach\\Charlie-master\\Charlie-master\\charlie\\data\\csv\\4432_pcet.csv'
tp278
a(S'2015-07-29 13:04:17.758000'
g202
tp279
a(S'2015-07-29 13:04:17.771000'
g204
tp280
a(S'2015-07-29 13:04:17.781000'
S'data saved as csv to C:\\Users\\oleach\\Charlie-master\\Charlie-master\\charlie\\data\\csv\\4432_pcet.csv'
tp281
a(S'2015-07-29 13:04:21.060000'
g202
tp282
a(S'2015-07-29 13:04:21.076000'
g204
tp283
a(S'2015-07-29 13:04:21.078000'
S'data saved as csv to C:\\Users\\oleach\\Charlie-master\\Charlie-master\\charlie\\data\\csv\\4432_pcet.csv'
tp284
a(S'2015-07-29 13:04:24.154000'
g202
tp285
a(S'2015-07-29 13:04:24.166000'
g204
tp286
a(S'2015-07-29 13:04:24.169000'
S'data saved as csv to C:\\Users\\oleach\\Charlie-master\\Charlie-master\\charlie\\data\\csv\\4432_pcet.csv'
tp287
a(S'2015-07-29 13:04:28.097000'
g202
tp288
a(S'2015-07-29 13:04:28.109000'
g204
tp289
a(S'2015-07-29 13:04:28.114000'
S'data saved as csv to C:\\Users\\oleach\\Charlie-master\\Charlie-master\\charlie\\data\\csv\\4432_pcet.csv'
tp290
a(S'2015-07-29 13:04:31.941000'
g202
tp291
a(S'2015-07-29 13:04:31.954000'
g204
tp292
a(S'2015-07-29 13:04:31.959000'
S'data saved as csv to C:\\Users\\oleach\\Charlie-master\\Charlie-master\\charlie\\data\\csv\\4432_pcet.csv'
tp293
a(S'2015-07-29 13:04:37.001000'
g202
tp294
a(S'2015-07-29 13:04:37.013000'
g204
tp295
a(S'2015-07-29 13:04:37.018000'
S'data saved as csv to C:\\Users\\oleach\\Charlie-master\\Charlie-master\\charlie\\data\\csv\\4432_pcet.csv'
tp296
a(S'2015-07-29 13:04:41.495000'
g202
tp297
a(S'2015-07-29 13:04:41.507000'
g204
tp298
a(S'2015-07-29 13:04:41.512000'
S'data saved as csv to C:\\Users\\oleach\\Charlie-master\\Charlie-master\\charlie\\data\\csv\\4432_pcet.csv'
tp299
a(S'2015-07-29 13:04:48.091000'
g202
tp300
a(S'2015-07-29 13:04:48.103000'
g204
tp301
a(S'2015-07-29 13:04:48.106000'
S'data saved as csv to C:\\Users\\oleach\\Charlie-master\\Charlie-master\\charlie\\data\\csv\\4432_pcet.csv'
tp302
a(S'2015-07-29 13:04:53.760000'
g202
tp303
a(S'2015-07-29 13:04:53.774000'
g204
tp304
a(S'2015-07-29 13:04:53.778000'
S'data saved as csv to C:\\Users\\oleach\\Charlie-master\\Charlie-master\\charlie\\data\\csv\\4432_pcet.csv'
tp305
a(S'2015-07-29 13:04:57.660000'
g202
tp306
a(S'2015-07-29 13:04:57.673000'
g204
tp307
a(S'2015-07-29 13:04:57.676000'
S'data saved as csv to C:\\Users\\oleach\\Charlie-master\\Charlie-master\\charlie\\data\\csv\\4432_pcet.csv'
tp308
a(S'2015-07-29 13:05:04.144000'
g202
tp309
a(S'2015-07-29 13:05:04.155000'
g204
tp310
a(S'2015-07-29 13:05:04.158000'
S'data saved as csv to C:\\Users\\oleach\\Charlie-master\\Charlie-master\\charlie\\data\\csv\\4432_pcet.csv'
tp311
a(S'2015-07-29 13:05:07.176000'
g202
tp312
a(S'2015-07-29 13:05:07.186000'
g204
tp313
a(S'2015-07-29 13:05:07.189000'
S'data saved as csv to C:\\Users\\oleach\\Charlie-master\\Charlie-master\\charlie\\data\\csv\\4432_pcet.csv'
tp314
a(S'2015-07-29 13:05:12.849000'
g202
tp315
a(S'2015-07-29 13:05:12.862000'
g204
tp316
a(S'2015-07-29 13:05:12.867000'
S'data saved as csv to C:\\Users\\oleach\\Charlie-master\\Charlie-master\\charlie\\data\\csv\\4432_pcet.csv'
tp317
a(S'2015-07-29 13:05:15.673000'
g202
tp318
a(S'2015-07-29 13:05:15.686000'
g204
tp319
a(S'2015-07-29 13:05:15.691000'
S'data saved as csv to C:\\Users\\oleach\\Charlie-master\\Charlie-master\\charlie\\data\\csv\\4432_pcet.csv'
tp320
a(S'2015-07-29 13:05:19.732000'
g202
tp321
a(S'2015-07-29 13:05:19.745000'
g204
tp322
a(S'2015-07-29 13:05:19.750000'
S'data saved as csv to C:\\Users\\oleach\\Charlie-master\\Charlie-master\\charlie\\data\\csv\\4432_pcet.csv'
tp323
a(S'2015-07-29 13:05:26.075000'
g202
tp324
a(S'2015-07-29 13:05:26.088000'
g204
tp325
a(S'2015-07-29 13:05:26.093000'
S'data saved as csv to C:\\Users\\oleach\\Charlie-master\\Charlie-master\\charlie\\data\\csv\\4432_pcet.csv'
tp326
a(S'2015-07-29 13:05:31.711000'
g202
tp327
a(S'2015-07-29 13:05:31.723000'
g204
tp328
a(S'2015-07-29 13:05:31.726000'
S'data saved as csv to C:\\Users\\oleach\\Charlie-master\\Charlie-master\\charlie\\data\\csv\\4432_pcet.csv'
tp329
a(S'2015-07-29 13:05:36.649000'
g202
tp330
a(S'2015-07-29 13:05:36.662000'
g204
tp331
a(S'2015-07-29 13:05:36.668000'
S'data saved as csv to C:\\Users\\oleach\\Charlie-master\\Charlie-master\\charlie\\data\\csv\\4432_pcet.csv'
tp332
a(S'2015-07-29 13:05:43.441000'
g202
tp333
a(S'2015-07-29 13:05:43.453000'
g204
tp334
a(S'2015-07-29 13:05:43.456000'
S'data saved as csv to C:\\Users\\oleach\\Charlie-master\\Charlie-master\\charlie\\data\\csv\\4432_pcet.csv'
tp335
a(S'2015-07-29 13:05:47.706000'
g202
tp336
a(S'2015-07-29 13:05:47.719000'
g204
tp337
a(S'2015-07-29 13:05:47.724000'
S'data saved as csv to C:\\Users\\oleach\\Charlie-master\\Charlie-master\\charlie\\data\\csv\\4432_pcet.csv'
tp338
a(S'2015-07-29 13:05:53.443000'
g202
tp339
a(S'2015-07-29 13:05:53.456000'
g204
tp340
a(S'2015-07-29 13:05:53.461000'
S'data saved as csv to C:\\Users\\oleach\\Charlie-master\\Charlie-master\\charlie\\data\\csv\\4432_pcet.csv'
tp341
a(S'2015-07-29 13:05:58.551000'
g202
tp342
a(S'2015-07-29 13:05:58.564000'
g204
tp343
a(S'2015-07-29 13:05:58.569000'
S'data saved as csv to C:\\Users\\oleach\\Charlie-master\\Charlie-master\\charlie\\data\\csv\\4432_pcet.csv'
tp344
a(S'2015-07-29 13:06:01.788000'
g202
tp345
a(S'2015-07-29 13:06:01.801000'
g204
tp346
a(S'2015-07-29 13:06:01.807000'
S'data saved as csv to C:\\Users\\oleach\\Charlie-master\\Charlie-master\\charlie\\data\\csv\\4432_pcet.csv'
tp347
a(S'2015-07-29 13:06:04.479000'
g202
tp348
a(S'2015-07-29 13:06:04.492000'
g204
tp349
a(S'2015-07-29 13:06:04.497000'
S'data saved as csv to C:\\Users\\oleach\\Charlie-master\\Charlie-master\\charlie\\data\\csv\\4432_pcet.csv'
tp350
a(S'2015-07-29 13:06:07.257000'
g202
tp351
a(S'2015-07-29 13:06:07.270000'
g204
tp352
a(S'2015-07-29 13:06:07.273000'
S'data saved as csv to C:\\Users\\oleach\\Charlie-master\\Charlie-master\\charlie\\data\\csv\\4432_pcet.csv'
tp353
a(S'2015-07-29 13:06:10.379000'
g202
tp354
a(S'2015-07-29 13:06:10.393000'
g204
tp355
a(S'2015-07-29 13:06:10.398000'
S'data saved as csv to C:\\Users\\oleach\\Charlie-master\\Charlie-master\\charlie\\data\\csv\\4432_pcet.csv'
tp356
a(S'2015-07-29 13:06:14.193000'
g202
tp357
a(S'2015-07-29 13:06:14.206000'
g204
tp358
a(S'2015-07-29 13:06:14.211000'
S'data saved as csv to C:\\Users\\oleach\\Charlie-master\\Charlie-master\\charlie\\data\\csv\\4432_pcet.csv'
tp359
a(S'2015-07-29 13:06:17.753000'
g202
tp360
a(S'2015-07-29 13:06:17.765000'
g204
tp361
a(S'2015-07-29 13:06:17.770000'
S'data saved as csv to C:\\Users\\oleach\\Charlie-master\\Charlie-master\\charlie\\data\\csv\\4432_pcet.csv'
tp362
a(S'2015-07-29 13:06:21'
g202
tp363
a(S'2015-07-29 13:06:21.009000'
g204
tp364
a(S'2015-07-29 13:06:21.011000'
S'data saved as csv to C:\\Users\\oleach\\Charlie-master\\Charlie-master\\charlie\\data\\csv\\4432_pcet.csv'
tp365
a(S'2015-07-29 13:06:24.237000'
g202
tp366
a(S'2015-07-29 13:06:24.249000'
g204
tp367
a(S'2015-07-29 13:06:24.252000'
S'data saved as csv to C:\\Users\\oleach\\Charlie-master\\Charlie-master\\charlie\\data\\csv\\4432_pcet.csv'
tp368
a(S'2015-07-29 13:06:28.704000'
g202
tp369
a(S'2015-07-29 13:06:28.717000'
g204
tp370
a(S'2015-07-29 13:06:28.721000'
S'data saved as csv to C:\\Users\\oleach\\Charlie-master\\Charlie-master\\charlie\\data\\csv\\4432_pcet.csv'
tp371
a(S'2015-07-29 13:06:33.481000'
g202
tp372
a(S'2015-07-29 13:06:33.491000'
g204
tp373
a(S'2015-07-29 13:06:33.495000'
S'data saved as csv to C:\\Users\\oleach\\Charlie-master\\Charlie-master\\charlie\\data\\csv\\4432_pcet.csv'
tp374
a(S'2015-07-29 13:06:36.441000'
g202
tp375
a(S'2015-07-29 13:06:36.454000'
g204
tp376
a(S'2015-07-29 13:06:36.459000'
S'data saved as csv to C:\\Users\\oleach\\Charlie-master\\Charlie-master\\charlie\\data\\csv\\4432_pcet.csv'
tp377
a(S'2015-07-29 13:06:39.272000'
g202
tp378
a(S'2015-07-29 13:06:39.284000'
g204
tp379
a(S'2015-07-29 13:06:39.290000'
S'data saved as csv to C:\\Users\\oleach\\Charlie-master\\Charlie-master\\charlie\\data\\csv\\4432_pcet.csv'
tp380
a(S'2015-07-29 13:06:41.944000'
g202
tp381
a(S'2015-07-29 13:06:41.957000'
g204
tp382
a(S'2015-07-29 13:06:41.963000'
S'data saved as csv to C:\\Users\\oleach\\Charlie-master\\Charlie-master\\charlie\\data\\csv\\4432_pcet.csv'
tp383
a(S'2015-07-29 13:06:46.178000'
g202
tp384
a(S'2015-07-29 13:06:46.190000'
g204
tp385
a(S'2015-07-29 13:06:46.196000'
S'data saved as csv to C:\\Users\\oleach\\Charlie-master\\Charlie-master\\charlie\\data\\csv\\4432_pcet.csv'
tp386
a(S'2015-07-29 13:06:51.200000'
g202
tp387
a(S'2015-07-29 13:06:51.213000'
g204
tp388
a(S'2015-07-29 13:06:51.218000'
S'data saved as csv to C:\\Users\\oleach\\Charlie-master\\Charlie-master\\charlie\\data\\csv\\4432_pcet.csv'
tp389
a(S'2015-07-29 13:06:54.393000'
g202
tp390
a(S'2015-07-29 13:06:54.406000'
g204
tp391
a(S'2015-07-29 13:06:54.412000'
S'data saved as csv to C:\\Users\\oleach\\Charlie-master\\Charlie-master\\charlie\\data\\csv\\4432_pcet.csv'
tp392
a(S'2015-07-29 13:06:56.877000'
g202
tp393
a(S'2015-07-29 13:06:56.889000'
g204
tp394
a(S'2015-07-29 13:06:56.892000'
S'data saved as csv to C:\\Users\\oleach\\Charlie-master\\Charlie-master\\charlie\\data\\csv\\4432_pcet.csv'
tp395
a(S'2015-07-29 13:07:00.069000'
g202
tp396
a(S'2015-07-29 13:07:00.081000'
g204
tp397
a(S'2015-07-29 13:07:00.087000'
S'data saved as csv to C:\\Users\\oleach\\Charlie-master\\Charlie-master\\charlie\\data\\csv\\4432_pcet.csv'
tp398
a(S'2015-07-29 13:07:03.994000'
g202
tp399
a(S'2015-07-29 13:07:04.007000'
g204
tp400
a(S'2015-07-29 13:07:04.013000'
S'data saved as csv to C:\\Users\\oleach\\Charlie-master\\Charlie-master\\charlie\\data\\csv\\4432_pcet.csv'
tp401
a(S'2015-07-29 13:07:09.377000'
g202
tp402
a(S'2015-07-29 13:07:09.391000'
g204
tp403
a(S'2015-07-29 13:07:09.397000'
S'data saved as csv to C:\\Users\\oleach\\Charlie-master\\Charlie-master\\charlie\\data\\csv\\4432_pcet.csv'
tp404
a(S'2015-07-29 13:07:14.146000'
g202
tp405
a(S'2015-07-29 13:07:14.159000'
g204
tp406
a(S'2015-07-29 13:07:14.165000'
S'data saved as csv to C:\\Users\\oleach\\Charlie-master\\Charlie-master\\charlie\\data\\csv\\4432_pcet.csv'
tp407
a(S'2015-07-29 13:07:17.041000'
g202
tp408
a(S'2015-07-29 13:07:17.053000'
g204
tp409
a(S'2015-07-29 13:07:17.058000'
S'data saved as csv to C:\\Users\\oleach\\Charlie-master\\Charlie-master\\charlie\\data\\csv\\4432_pcet.csv'
tp410
a(S'2015-07-29 13:07:20.333000'
g202
tp411
a(S'2015-07-29 13:07:20.341000'
g204
tp412
a(S'2015-07-29 13:07:20.344000'
S'data saved as csv to C:\\Users\\oleach\\Charlie-master\\Charlie-master\\charlie\\data\\csv\\4432_pcet.csv'
tp413
a(S'2015-07-29 13:07:23.833000'
g202
tp414
a(S'2015-07-29 13:07:23.841000'
g204
tp415
a(S'2015-07-29 13:07:23.845000'
S'data saved as csv to C:\\Users\\oleach\\Charlie-master\\Charlie-master\\charlie\\data\\csv\\4432_pcet.csv'
tp416
a(S'2015-07-29 13:07:27.785000'
g202
tp417
a(S'2015-07-29 13:07:27.798000'
g204
tp418
a(S'2015-07-29 13:07:27.804000'
S'data saved as csv to C:\\Users\\oleach\\Charlie-master\\Charlie-master\\charlie\\data\\csv\\4432_pcet.csv'
tp419
a(S'2015-07-29 13:07:31.009000'
g202
tp420
a(S'2015-07-29 13:07:31.021000'
g204
tp421
a(S'2015-07-29 13:07:31.027000'
S'data saved as csv to C:\\Users\\oleach\\Charlie-master\\Charlie-master\\charlie\\data\\csv\\4432_pcet.csv'
tp422
asb.