(icharlie.tools.data
Data
p1
(dp2
S'lang'
p3
S'EN'
p4
sS'control'
p5
(lp6
sS'last_updated'
p7
S'2015-08-20 09:50:18.796000'
p8
sS'last_opened'
p9
cdatetime
datetime
p10
(S'\x07\xdf\x08\x14\t1\t\x0e\x9e0'
tRp11
sS'proj_id'
p12
S'connectivity'
p13
sS'date_done'
p14
g10
(S'\x07\xdf\x08\x14\t2\x12\x0c!x'
tRp15
sS'test_done'
p16
I01
sS'data'
p17
(lp18
(S'4433'
p19
S'face_memory_delay'
p20
S'test'
p21
I0
S'C:\\Users\\Jbarrett\\Charlie\\charlie\\stimuli\\visual\\face_memory_delay\\ddis10.bmp'
S'No'
p22
g22
I2060
tp23
a(g19
g20
g21
I1
S'C:\\Users\\Jbarrett\\Charlie\\charlie\\stimuli\\visual\\face_memory_delay\\ddis04.bmp'
g22
g22
I1360
tp24
a(g19
g20
g21
I2
S'C:\\Users\\Jbarrett\\Charlie\\charlie\\stimuli\\visual\\face_memory_delay\\tar07.bmp'
S'Yes'
p25
g25
I731
tp26
a(g19
g20
g21
I3
S'C:\\Users\\Jbarrett\\Charlie\\charlie\\stimuli\\visual\\face_memory_delay\\tar18.bmp'
g25
g25
I770
tp27
a(g19
g20
g21
I4
S'C:\\Users\\Jbarrett\\Charlie\\charlie\\stimuli\\visual\\face_memory_delay\\ddis14.bmp'
g22
g25
I720
tp28
a(g19
g20
g21
I5
S'C:\\Users\\Jbarrett\\Charlie\\charlie\\stimuli\\visual\\face_memory_delay\\tar19.bmp'
g25
g25
I920
tp29
a(g19
g20
g21
I6
S'C:\\Users\\Jbarrett\\Charlie\\charlie\\stimuli\\visual\\face_memory_delay\\ddis13.bmp'
g22
g22
I1110
tp30
a(g19
g20
g21
I7
S'C:\\Users\\Jbarrett\\Charlie\\charlie\\stimuli\\visual\\face_memory_delay\\tar15.bmp'
g25
g25
I830
tp31
a(g19
g20
g21
I8
S'C:\\Users\\Jbarrett\\Charlie\\charlie\\stimuli\\visual\\face_memory_delay\\tar11.bmp'
g25
g25
I790
tp32
a(g19
g20
g21
I9
S'C:\\Users\\Jbarrett\\Charlie\\charlie\\stimuli\\visual\\face_memory_delay\\ddis05.bmp'
g22
g22
I1550
tp33
a(g19
g20
g21
I10
S'C:\\Users\\Jbarrett\\Charlie\\charlie\\stimuli\\visual\\face_memory_delay\\ddis01.bmp'
g22
g25
I860
tp34
a(g19
g20
g21
I11
S'C:\\Users\\Jbarrett\\Charlie\\charlie\\stimuli\\visual\\face_memory_delay\\ddis16.bmp'
g22
g22
I1730
tp35
a(g19
g20
g21
I12
S'C:\\Users\\Jbarrett\\Charlie\\charlie\\stimuli\\visual\\face_memory_delay\\tar02.bmp'
g25
g25
I820
tp36
a(g19
g20
g21
I13
S'C:\\Users\\Jbarrett\\Charlie\\charlie\\stimuli\\visual\\face_memory_delay\\tar08.bmp'
g25
g25
I930
tp37
a(g19
g20
g21
I14
S'C:\\Users\\Jbarrett\\Charlie\\charlie\\stimuli\\visual\\face_memory_delay\\tar13.bmp'
g25
g25
I1390
tp38
a(g19
g20
g21
I15
S'C:\\Users\\Jbarrett\\Charlie\\charlie\\stimuli\\visual\\face_memory_delay\\tar20.bmp'
g25
g25
I920
tp39
a(g19
g20
g21
I16
S'C:\\Users\\Jbarrett\\Charlie\\charlie\\stimuli\\visual\\face_memory_delay\\ddis18.bmp'
g22
g22
I1150
tp40
a(g19
g20
g21
I17
S'C:\\Users\\Jbarrett\\Charlie\\charlie\\stimuli\\visual\\face_memory_delay\\tar06.bmp'
g25
g25
I971
tp41
a(g19
g20
g21
I18
S'C:\\Users\\Jbarrett\\Charlie\\charlie\\stimuli\\visual\\face_memory_delay\\ddis07.bmp'
g22
g22
I2120
tp42
a(g19
g20
g21
I19
S'C:\\Users\\Jbarrett\\Charlie\\charlie\\stimuli\\visual\\face_memory_delay\\ddis08.bmp'
g22
g25
I1480
tp43
a(g19
g20
g21
I20
S'C:\\Users\\Jbarrett\\Charlie\\charlie\\stimuli\\visual\\face_memory_delay\\tar12.bmp'
g25
g25
I1200
tp44
a(g19
g20
g21
I21
S'C:\\Users\\Jbarrett\\Charlie\\charlie\\stimuli\\visual\\face_memory_delay\\ddis17.bmp'
g22
g25
I910
tp45
a(g19
g20
g21
I22
S'C:\\Users\\Jbarrett\\Charlie\\charlie\\stimuli\\visual\\face_memory_delay\\tar05.bmp'
g25
g25
I860
tp46
a(g19
g20
g21
I23
S'C:\\Users\\Jbarrett\\Charlie\\charlie\\stimuli\\visual\\face_memory_delay\\tar10.bmp'
g25
g22
I980
tp47
a(g19
g20
g21
I24
S'C:\\Users\\Jbarrett\\Charlie\\charlie\\stimuli\\visual\\face_memory_delay\\ddis02.bmp'
g22
g22
I800
tp48
a(g19
g20
g21
I25
S'C:\\Users\\Jbarrett\\Charlie\\charlie\\stimuli\\visual\\face_memory_delay\\ddis20.bmp'
g22
g22
I1210
tp49
a(g19
g20
g21
I26
S'C:\\Users\\Jbarrett\\Charlie\\charlie\\stimuli\\visual\\face_memory_delay\\tar17.bmp'
g25
g25
I700
tp50
a(g19
g20
g21
I27
S'C:\\Users\\Jbarrett\\Charlie\\charlie\\stimuli\\visual\\face_memory_delay\\ddis15.bmp'
g22
g22
I950
tp51
a(g19
g20
g21
I28
S'C:\\Users\\Jbarrett\\Charlie\\charlie\\stimuli\\visual\\face_memory_delay\\tar03.bmp'
g25
g25
I800
tp52
a(g19
g20
g21
I29
S'C:\\Users\\Jbarrett\\Charlie\\charlie\\stimuli\\visual\\face_memory_delay\\ddis19.bmp'
g22
g22
I1090
tp53
a(g19
g20
g21
I30
S'C:\\Users\\Jbarrett\\Charlie\\charlie\\stimuli\\visual\\face_memory_delay\\ddis12.bmp'
g22
g25
I950
tp54
a(g19
g20
g21
I31
S'C:\\Users\\Jbarrett\\Charlie\\charlie\\stimuli\\visual\\face_memory_delay\\tar16.bmp'
g25
g25
I831
tp55
a(g19
g20
g21
I32
S'C:\\Users\\Jbarrett\\Charlie\\charlie\\stimuli\\visual\\face_memory_delay\\tar09.bmp'
g25
g22
I1320
tp56
a(g19
g20
g21
I33
S'C:\\Users\\Jbarrett\\Charlie\\charlie\\stimuli\\visual\\face_memory_delay\\ddis09.bmp'
g22
g25
I1040
tp57
a(g19
g20
g21
I34
S'C:\\Users\\Jbarrett\\Charlie\\charlie\\stimuli\\visual\\face_memory_delay\\tar01.bmp'
g25
g25
I820
tp58
a(g19
g20
g21
I35
S'C:\\Users\\Jbarrett\\Charlie\\charlie\\stimuli\\visual\\face_memory_delay\\ddis11.bmp'
g22
g22
I930
tp59
a(g19
g20
g21
I36
S'C:\\Users\\Jbarrett\\Charlie\\charlie\\stimuli\\visual\\face_memory_delay\\ddis03.bmp'
g22
g25
I690
tp60
a(g19
g20
g21
I37
S'C:\\Users\\Jbarrett\\Charlie\\charlie\\stimuli\\visual\\face_memory_delay\\tar04.bmp'
g25
g25
I1090
tp61
a(g19
g20
g21
I38
S'C:\\Users\\Jbarrett\\Charlie\\charlie\\stimuli\\visual\\face_memory_delay\\tar14.bmp'
g25
g25
I1160
tp62
a(g19
g20
g21
I39
S'C:\\Users\\Jbarrett\\Charlie\\charlie\\stimuli\\visual\\face_memory_delay\\ddis06.bmp'
p63
g22
g22
I2570
tp64
asS'output_format'
p65
(lp66
(S'proband_id'
p67
c__builtin__
str
p68
tp69
a(S'test_name'
p70
g68
tp71
a(S'phase'
p72
g68
tp73
a(S'trialn'
p74
c__builtin__
int
p75
tp76
a(S'f'
g68
tp77
a(S'ans'
p78
g68
tp79
a(S'rsp'
p80
g68
tp81
a(S'rt'
p82
g75
tp83
asg67
g19
sS'filename'
p84
S'4433_face_memory_delay.data'
p85
sS'initialised'
p86
g10
(S'\x07\xdf\x08\x14\t1\t\x0e\x9e0'
tRp87
sg70
S'face_memory_delay'
p88
sS'directory'
p89
S'C:\\Users\\Jbarrett\\Charlie\\charlie\\data\\raw'
p90
sS'user_id'
p91
S'barrett'
p92
sS'test_started'
p93
I01
sS'abs_filename'
p94
S'C:\\Users\\Jbarrett\\Charlie\\charlie\\data\\raw\\4433_face_memory_delay.data'
p95
sS'date_started'
p96
g10
(S'\x07\xdf\x08\x14\t1\x1d\r\x88\xd8'
tRp97
sS'log'
p98
(lp99
(S'2015-08-20 09:49:09.958000'
S'instance created'
p100
tp101
a(S'2015-08-20 09:49:29.890000'
S'instance updated'
p102
tp103
a(S'2015-08-20 09:49:29.895000'
S'pandas DataFrame of data created'
p104
tp105
a(S'2015-08-20 09:49:29.898000'
g102
tp106
a(S'2015-08-20 09:49:29.899000'
S'data saved as csv to C:\\Users\\Jbarrett\\Charlie\\charlie\\data\\csv\\4433_face_memory_delay.csv'
tp107
a(S'2015-08-20 09:49:31.368000'
g102
tp108
a(S'2015-08-20 09:49:31.377000'
g104
tp109
a(S'2015-08-20 09:49:31.379000'
g102
tp110
a(S'2015-08-20 09:49:31.380000'
S'data saved as csv to C:\\Users\\Jbarrett\\Charlie\\charlie\\data\\csv\\4433_face_memory_delay.csv'
tp111
a(S'2015-08-20 09:49:32.218000'
g102
tp112
a(S'2015-08-20 09:49:32.229000'
g104
tp113
a(S'2015-08-20 09:49:32.232000'
g102
tp114
a(S'2015-08-20 09:49:32.232000'
S'data saved as csv to C:\\Users\\Jbarrett\\Charlie\\charlie\\data\\csv\\4433_face_memory_delay.csv'
tp115
a(S'2015-08-20 09:49:33.111000'
g102
tp116
a(S'2015-08-20 09:49:33.126000'
g104
tp117
a(S'2015-08-20 09:49:33.128000'
g102
tp118
a(S'2015-08-20 09:49:33.129000'
S'data saved as csv to C:\\Users\\Jbarrett\\Charlie\\charlie\\data\\csv\\4433_face_memory_delay.csv'
tp119
a(S'2015-08-20 09:49:33.957000'
g102
tp120
a(S'2015-08-20 09:49:33.974000'
g104
tp121
a(S'2015-08-20 09:49:33.977000'
g102
tp122
a(S'2015-08-20 09:49:33.977000'
S'data saved as csv to C:\\Users\\Jbarrett\\Charlie\\charlie\\data\\csv\\4433_face_memory_delay.csv'
tp123
a(S'2015-08-20 09:49:35.006000'
g102
tp124
a(S'2015-08-20 09:49:35.026000'
g104
tp125
a(S'2015-08-20 09:49:35.028000'
g102
tp126
a(S'2015-08-20 09:49:35.029000'
S'data saved as csv to C:\\Users\\Jbarrett\\Charlie\\charlie\\data\\csv\\4433_face_memory_delay.csv'
tp127
a(S'2015-08-20 09:49:36.248000'
g102
tp128
a(S'2015-08-20 09:49:36.271000'
g104
tp129
a(S'2015-08-20 09:49:36.273000'
g102
tp130
a(S'2015-08-20 09:49:36.274000'
S'data saved as csv to C:\\Users\\Jbarrett\\Charlie\\charlie\\data\\csv\\4433_face_memory_delay.csv'
tp131
a(S'2015-08-20 09:49:37.212000'
g102
tp132
a(S'2015-08-20 09:49:37.238000'
g104
tp133
a(S'2015-08-20 09:49:37.240000'
g102
tp134
a(S'2015-08-20 09:49:37.241000'
S'data saved as csv to C:\\Users\\Jbarrett\\Charlie\\charlie\\data\\csv\\4433_face_memory_delay.csv'
tp135
a(S'2015-08-20 09:49:38.140000'
g102
tp136
a(S'2015-08-20 09:49:38.169000'
g104
tp137
a(S'2015-08-20 09:49:38.171000'
g102
tp138
a(S'2015-08-20 09:49:38.172000'
S'data saved as csv to C:\\Users\\Jbarrett\\Charlie\\charlie\\data\\csv\\4433_face_memory_delay.csv'
tp139
a(S'2015-08-20 09:49:39.830000'
g102
tp140
a(S'2015-08-20 09:49:39.862000'
g104
tp141
a(S'2015-08-20 09:49:39.864000'
g102
tp142
a(S'2015-08-20 09:49:39.865000'
S'data saved as csv to C:\\Users\\Jbarrett\\Charlie\\charlie\\data\\csv\\4433_face_memory_delay.csv'
tp143
a(S'2015-08-20 09:49:40.833000'
g102
tp144
a(S'2015-08-20 09:49:40.867000'
g104
tp145
a(S'2015-08-20 09:49:40.869000'
g102
tp146
a(S'2015-08-20 09:49:40.870000'
S'data saved as csv to C:\\Users\\Jbarrett\\Charlie\\charlie\\data\\csv\\4433_face_memory_delay.csv'
tp147
a(S'2015-08-20 09:49:42.708000'
g102
tp148
a(S'2015-08-20 09:49:42.746000'
g104
tp149
a(S'2015-08-20 09:49:42.748000'
g102
tp150
a(S'2015-08-20 09:49:42.749000'
S'data saved as csv to C:\\Users\\Jbarrett\\Charlie\\charlie\\data\\csv\\4433_face_memory_delay.csv'
tp151
a(S'2015-08-20 09:49:43.677000'
g102
tp152
a(S'2015-08-20 09:49:43.718000'
g104
tp153
a(S'2015-08-20 09:49:43.720000'
g102
tp154
a(S'2015-08-20 09:49:43.721000'
S'data saved as csv to C:\\Users\\Jbarrett\\Charlie\\charlie\\data\\csv\\4433_face_memory_delay.csv'
tp155
a(S'2015-08-20 09:49:44.759000'
g102
tp156
a(S'2015-08-20 09:49:44.802000'
g104
tp157
a(S'2015-08-20 09:49:44.805000'
g102
tp158
a(S'2015-08-20 09:49:44.806000'
S'data saved as csv to C:\\Users\\Jbarrett\\Charlie\\charlie\\data\\csv\\4433_face_memory_delay.csv'
tp159
a(S'2015-08-20 09:49:46.304000'
g102
tp160
a(S'2015-08-20 09:49:46.351000'
g104
tp161
a(S'2015-08-20 09:49:46.353000'
g102
tp162
a(S'2015-08-20 09:49:46.354000'
S'data saved as csv to C:\\Users\\Jbarrett\\Charlie\\charlie\\data\\csv\\4433_face_memory_delay.csv'
tp163
a(S'2015-08-20 09:49:47.382000'
g102
tp164
a(S'2015-08-20 09:49:47.432000'
g104
tp165
a(S'2015-08-20 09:49:47.434000'
g102
tp166
a(S'2015-08-20 09:49:47.435000'
S'data saved as csv to C:\\Users\\Jbarrett\\Charlie\\charlie\\data\\csv\\4433_face_memory_delay.csv'
tp167
a(S'2015-08-20 09:49:48.693000'
g102
tp168
a(S'2015-08-20 09:49:48.746000'
g104
tp169
a(S'2015-08-20 09:49:48.748000'
g102
tp170
a(S'2015-08-20 09:49:48.749000'
S'data saved as csv to C:\\Users\\Jbarrett\\Charlie\\charlie\\data\\csv\\4433_face_memory_delay.csv'
tp171
a(S'2015-08-20 09:49:49.827000'
g102
tp172
a(S'2015-08-20 09:49:49.882000'
g104
tp173
a(S'2015-08-20 09:49:49.884000'
g102
tp174
a(S'2015-08-20 09:49:49.885000'
S'data saved as csv to C:\\Users\\Jbarrett\\Charlie\\charlie\\data\\csv\\4433_face_memory_delay.csv'
tp175
a(S'2015-08-20 09:49:52.114000'
g102
tp176
a(S'2015-08-20 09:49:52.171000'
g104
tp177
a(S'2015-08-20 09:49:52.174000'
g102
tp178
a(S'2015-08-20 09:49:52.174000'
S'data saved as csv to C:\\Users\\Jbarrett\\Charlie\\charlie\\data\\csv\\4433_face_memory_delay.csv'
tp179
a(S'2015-08-20 09:49:53.763000'
g102
tp180
a(S'2015-08-20 09:49:53.824000'
g104
tp181
a(S'2015-08-20 09:49:53.827000'
g102
tp182
a(S'2015-08-20 09:49:53.828000'
S'data saved as csv to C:\\Users\\Jbarrett\\Charlie\\charlie\\data\\csv\\4433_face_memory_delay.csv'
tp183
a(S'2015-08-20 09:49:55.136000'
g102
tp184
a(S'2015-08-20 09:49:55.200000'
g104
tp185
a(S'2015-08-20 09:49:55.203000'
g102
tp186
a(S'2015-08-20 09:49:55.203000'
S'data saved as csv to C:\\Users\\Jbarrett\\Charlie\\charlie\\data\\csv\\4433_face_memory_delay.csv'
tp187
a(S'2015-08-20 09:49:56.222000'
g102
tp188
a(S'2015-08-20 09:49:56.289000'
g104
tp189
a(S'2015-08-20 09:49:56.291000'
g102
tp190
a(S'2015-08-20 09:49:56.292000'
S'data saved as csv to C:\\Users\\Jbarrett\\Charlie\\charlie\\data\\csv\\4433_face_memory_delay.csv'
tp191
a(S'2015-08-20 09:49:57.261000'
g102
tp192
a(S'2015-08-20 09:49:57.331000'
g104
tp193
a(S'2015-08-20 09:49:57.333000'
g102
tp194
a(S'2015-08-20 09:49:57.334000'
S'data saved as csv to C:\\Users\\Jbarrett\\Charlie\\charlie\\data\\csv\\4433_face_memory_delay.csv'
tp195
a(S'2015-08-20 09:49:58.422000'
g102
tp196
a(S'2015-08-20 09:49:58.494000'
g104
tp197
a(S'2015-08-20 09:49:58.497000'
g102
tp198
a(S'2015-08-20 09:49:58.498000'
S'data saved as csv to C:\\Users\\Jbarrett\\Charlie\\charlie\\data\\csv\\4433_face_memory_delay.csv'
tp199
a(S'2015-08-20 09:49:59.406000'
g102
tp200
a(S'2015-08-20 09:49:59.482000'
g104
tp201
a(S'2015-08-20 09:49:59.484000'
g102
tp202
a(S'2015-08-20 09:49:59.485000'
S'data saved as csv to C:\\Users\\Jbarrett\\Charlie\\charlie\\data\\csv\\4433_face_memory_delay.csv'
tp203
a(S'2015-08-20 09:50:00.803000'
g102
tp204
a(S'2015-08-20 09:50:00.881000'
g104
tp205
a(S'2015-08-20 09:50:00.883000'
g102
tp206
a(S'2015-08-20 09:50:00.884000'
S'data saved as csv to C:\\Users\\Jbarrett\\Charlie\\charlie\\data\\csv\\4433_face_memory_delay.csv'
tp207
a(S'2015-08-20 09:50:01.693000'
g102
tp208
a(S'2015-08-20 09:50:01.774000'
g104
tp209
a(S'2015-08-20 09:50:01.777000'
g102
tp210
a(S'2015-08-20 09:50:01.778000'
S'data saved as csv to C:\\Users\\Jbarrett\\Charlie\\charlie\\data\\csv\\4433_face_memory_delay.csv'
tp211
a(S'2015-08-20 09:50:02.836000'
g102
tp212
a(S'2015-08-20 09:50:02.920000'
g104
tp213
a(S'2015-08-20 09:50:02.922000'
g102
tp214
a(S'2015-08-20 09:50:02.923000'
S'data saved as csv to C:\\Users\\Jbarrett\\Charlie\\charlie\\data\\csv\\4433_face_memory_delay.csv'
tp215
a(S'2015-08-20 09:50:03.831000'
g102
tp216
a(S'2015-08-20 09:50:03.918000'
g104
tp217
a(S'2015-08-20 09:50:03.921000'
g102
tp218
a(S'2015-08-20 09:50:03.922000'
S'data saved as csv to C:\\Users\\Jbarrett\\Charlie\\charlie\\data\\csv\\4433_face_memory_delay.csv'
tp219
a(S'2015-08-20 09:50:05.120000'
g102
tp220
a(S'2015-08-20 09:50:05.210000'
g104
tp221
a(S'2015-08-20 09:50:05.212000'
g102
tp222
a(S'2015-08-20 09:50:05.213000'
S'data saved as csv to C:\\Users\\Jbarrett\\Charlie\\charlie\\data\\csv\\4433_face_memory_delay.csv'
tp223
a(S'2015-08-20 09:50:06.272000'
g102
tp224
a(S'2015-08-20 09:50:06.366000'
g104
tp225
a(S'2015-08-20 09:50:06.368000'
g102
tp226
a(S'2015-08-20 09:50:06.369000'
S'data saved as csv to C:\\Users\\Jbarrett\\Charlie\\charlie\\data\\csv\\4433_face_memory_delay.csv'
tp227
a(S'2015-08-20 09:50:07.307000'
g102
tp228
a(S'2015-08-20 09:50:07.403000'
g104
tp229
a(S'2015-08-20 09:50:07.405000'
g102
tp230
a(S'2015-08-20 09:50:07.406000'
S'data saved as csv to C:\\Users\\Jbarrett\\Charlie\\charlie\\data\\csv\\4433_face_memory_delay.csv'
tp231
a(S'2015-08-20 09:50:08.835000'
g102
tp232
a(S'2015-08-20 09:50:08.934000'
g104
tp233
a(S'2015-08-20 09:50:08.936000'
g102
tp234
a(S'2015-08-20 09:50:08.937000'
S'data saved as csv to C:\\Users\\Jbarrett\\Charlie\\charlie\\data\\csv\\4433_face_memory_delay.csv'
tp235
a(S'2015-08-20 09:50:10.086000'
g102
tp236
a(S'2015-08-20 09:50:10.187000'
g104
tp237
a(S'2015-08-20 09:50:10.190000'
g102
tp238
a(S'2015-08-20 09:50:10.191000'
S'data saved as csv to C:\\Users\\Jbarrett\\Charlie\\charlie\\data\\csv\\4433_face_memory_delay.csv'
tp239
a(S'2015-08-20 09:50:11.119000'
g102
tp240
a(S'2015-08-20 09:50:11.223000'
g104
tp241
a(S'2015-08-20 09:50:11.225000'
g102
tp242
a(S'2015-08-20 09:50:11.226000'
S'data saved as csv to C:\\Users\\Jbarrett\\Charlie\\charlie\\data\\csv\\4433_face_memory_delay.csv'
tp243
a(S'2015-08-20 09:50:12.265000'
g102
tp244
a(S'2015-08-20 09:50:12.372000'
g104
tp245
a(S'2015-08-20 09:50:12.375000'
g102
tp246
a(S'2015-08-20 09:50:12.376000'
S'data saved as csv to C:\\Users\\Jbarrett\\Charlie\\charlie\\data\\csv\\4433_face_memory_delay.csv'
tp247
a(S'2015-08-20 09:50:13.174000'
g102
tp248
a(S'2015-08-20 09:50:13.285000'
g104
tp249
a(S'2015-08-20 09:50:13.287000'
g102
tp250
a(S'2015-08-20 09:50:13.288000'
S'data saved as csv to C:\\Users\\Jbarrett\\Charlie\\charlie\\data\\csv\\4433_face_memory_delay.csv'
tp251
a(S'2015-08-20 09:50:14.487000'
g102
tp252
a(S'2015-08-20 09:50:14.600000'
g104
tp253
a(S'2015-08-20 09:50:14.603000'
g102
tp254
a(S'2015-08-20 09:50:14.604000'
S'data saved as csv to C:\\Users\\Jbarrett\\Charlie\\charlie\\data\\csv\\4433_face_memory_delay.csv'
tp255
a(S'2015-08-20 09:50:15.872000'
g102
tp256
a(S'2015-08-20 09:50:15.987000'
g104
tp257
a(S'2015-08-20 09:50:15.990000'
g102
tp258
a(S'2015-08-20 09:50:15.991000'
S'data saved as csv to C:\\Users\\Jbarrett\\Charlie\\charlie\\data\\csv\\4433_face_memory_delay.csv'
tp259
a(S'2015-08-20 09:50:18.670000'
g102
tp260
a(S'2015-08-20 09:50:18.789000'
g104
tp261
a(S'2015-08-20 09:50:18.792000'
g102
tp262
a(S'2015-08-20 09:50:18.793000'
S'data saved as csv to C:\\Users\\Jbarrett\\Charlie\\charlie\\data\\csv\\4433_face_memory_delay.csv'
tp263
a(S'2015-08-20 09:50:18.795000'
g102
tp264
asb.