(icharlie.tools.data
Data
p1
(dp2
S'lang'
p3
S'EN'
p4
sS'control'
p5
(lp6
sS'last_updated'
p7
S'2015-08-20 10:39:19.451000'
p8
sS'last_opened'
p9
cdatetime
datetime
p10
(S"\x07\xdf\x08\x14\n '\x04\xed\xb8"
tRp11
sS'proj_id'
p12
S'connectivity'
p13
sS'date_done'
p14
g10
(S"\x07\xdf\x08\x14\n'\x13\x06\xe1\xb8"
tRp15
sS'test_done'
p16
I01
sS'data'
p17
(lp18
(S'4433'
p19
S'pcet'
p20
S'practice'
p21
I0
NI2
I2
I2
I2
S'C:\\Users\\Jbarrett\\Charlie\\charlie\\stimuli\\visual\\pcet\\000.png'
S'C:\\Users\\Jbarrett\\Charlie\\charlie\\stimuli\\visual\\pcet\\000.png'
S'C:\\Users\\Jbarrett\\Charlie\\charlie\\stimuli\\visual\\pcet\\111.png'
S'C:\\Users\\Jbarrett\\Charlie\\charlie\\stimuli\\visual\\pcet\\000.png'
I2
I6081
tp22
a(g19
g20
S'test'
p23
I0
S'thickness'
p24
I3
NNI1
S'C:\\Users\\Jbarrett\\Charlie\\charlie\\stimuli\\visual\\pcet\\010.png'
S'C:\\Users\\Jbarrett\\Charlie\\charlie\\stimuli\\visual\\pcet\\000.png'
S'C:\\Users\\Jbarrett\\Charlie\\charlie\\stimuli\\visual\\pcet\\001.png'
S'C:\\Users\\Jbarrett\\Charlie\\charlie\\stimuli\\visual\\pcet\\100.png'
I2
I7161
tp25
a(g19
g20
g23
I1
g24
I2
NNI0
S'C:\\Users\\Jbarrett\\Charlie\\charlie\\stimuli\\visual\\pcet\\110.png'
S'C:\\Users\\Jbarrett\\Charlie\\charlie\\stimuli\\visual\\pcet\\111.png'
S'C:\\Users\\Jbarrett\\Charlie\\charlie\\stimuli\\visual\\pcet\\010.png'
S'C:\\Users\\Jbarrett\\Charlie\\charlie\\stimuli\\visual\\pcet\\100.png'
I3
I5170
tp26
a(g19
g20
g23
I2
g24
I0
NNI3
S'C:\\Users\\Jbarrett\\Charlie\\charlie\\stimuli\\visual\\pcet\\010.png'
S'C:\\Users\\Jbarrett\\Charlie\\charlie\\stimuli\\visual\\pcet\\111.png'
S'C:\\Users\\Jbarrett\\Charlie\\charlie\\stimuli\\visual\\pcet\\100.png'
S'C:\\Users\\Jbarrett\\Charlie\\charlie\\stimuli\\visual\\pcet\\110.png'
I0
I6790
tp27
a(g19
g20
g23
I3
g24
I3
NNI1
S'C:\\Users\\Jbarrett\\Charlie\\charlie\\stimuli\\visual\\pcet\\000.png'
S'C:\\Users\\Jbarrett\\Charlie\\charlie\\stimuli\\visual\\pcet\\010.png'
S'C:\\Users\\Jbarrett\\Charlie\\charlie\\stimuli\\visual\\pcet\\011.png'
S'C:\\Users\\Jbarrett\\Charlie\\charlie\\stimuli\\visual\\pcet\\110.png'
I3
I3981
tp28
a(g19
g20
g23
I4
g24
I0
NNI3
S'C:\\Users\\Jbarrett\\Charlie\\charlie\\stimuli\\visual\\pcet\\011.png'
S'C:\\Users\\Jbarrett\\Charlie\\charlie\\stimuli\\visual\\pcet\\110.png'
S'C:\\Users\\Jbarrett\\Charlie\\charlie\\stimuli\\visual\\pcet\\101.png'
S'C:\\Users\\Jbarrett\\Charlie\\charlie\\stimuli\\visual\\pcet\\111.png'
I0
I5530
tp29
a(g19
g20
g23
I5
g24
I3
NNI1
S'C:\\Users\\Jbarrett\\Charlie\\charlie\\stimuli\\visual\\pcet\\100.png'
S'C:\\Users\\Jbarrett\\Charlie\\charlie\\stimuli\\visual\\pcet\\101.png'
S'C:\\Users\\Jbarrett\\Charlie\\charlie\\stimuli\\visual\\pcet\\111.png'
S'C:\\Users\\Jbarrett\\Charlie\\charlie\\stimuli\\visual\\pcet\\001.png'
I3
I3620
tp30
a(g19
g20
g23
I6
g24
I1
NNI3
S'C:\\Users\\Jbarrett\\Charlie\\charlie\\stimuli\\visual\\pcet\\010.png'
S'C:\\Users\\Jbarrett\\Charlie\\charlie\\stimuli\\visual\\pcet\\100.png'
S'C:\\Users\\Jbarrett\\Charlie\\charlie\\stimuli\\visual\\pcet\\001.png'
S'C:\\Users\\Jbarrett\\Charlie\\charlie\\stimuli\\visual\\pcet\\000.png'
I2
I2521
tp31
a(g19
g20
g23
I7
g24
I0
NNI1
S'C:\\Users\\Jbarrett\\Charlie\\charlie\\stimuli\\visual\\pcet\\101.png'
S'C:\\Users\\Jbarrett\\Charlie\\charlie\\stimuli\\visual\\pcet\\001.png'
S'C:\\Users\\Jbarrett\\Charlie\\charlie\\stimuli\\visual\\pcet\\000.png'
S'C:\\Users\\Jbarrett\\Charlie\\charlie\\stimuli\\visual\\pcet\\011.png'
I3
I5070
tp32
a(g19
g20
g23
I8
g24
I0
NNI1
S'C:\\Users\\Jbarrett\\Charlie\\charlie\\stimuli\\visual\\pcet\\010.png'
S'C:\\Users\\Jbarrett\\Charlie\\charlie\\stimuli\\visual\\pcet\\110.png'
S'C:\\Users\\Jbarrett\\Charlie\\charlie\\stimuli\\visual\\pcet\\111.png'
S'C:\\Users\\Jbarrett\\Charlie\\charlie\\stimuli\\visual\\pcet\\100.png'
I0
I3480
tp33
a(g19
g20
g23
I9
g24
I1
NNI3
S'C:\\Users\\Jbarrett\\Charlie\\charlie\\stimuli\\visual\\pcet\\100.png'
S'C:\\Users\\Jbarrett\\Charlie\\charlie\\stimuli\\visual\\pcet\\010.png'
S'C:\\Users\\Jbarrett\\Charlie\\charlie\\stimuli\\visual\\pcet\\111.png'
S'C:\\Users\\Jbarrett\\Charlie\\charlie\\stimuli\\visual\\pcet\\110.png'
I1
I2240
tp34
a(g19
g20
g23
I10
g24
I2
NNI0
S'C:\\Users\\Jbarrett\\Charlie\\charlie\\stimuli\\visual\\pcet\\111.png'
S'C:\\Users\\Jbarrett\\Charlie\\charlie\\stimuli\\visual\\pcet\\101.png'
S'C:\\Users\\Jbarrett\\Charlie\\charlie\\stimuli\\visual\\pcet\\011.png'
S'C:\\Users\\Jbarrett\\Charlie\\charlie\\stimuli\\visual\\pcet\\110.png'
I2
I1950
tp35
a(g19
g20
g23
I11
g24
I0
NNI1
S'C:\\Users\\Jbarrett\\Charlie\\charlie\\stimuli\\visual\\pcet\\011.png'
S'C:\\Users\\Jbarrett\\Charlie\\charlie\\stimuli\\visual\\pcet\\111.png'
S'C:\\Users\\Jbarrett\\Charlie\\charlie\\stimuli\\visual\\pcet\\101.png'
S'C:\\Users\\Jbarrett\\Charlie\\charlie\\stimuli\\visual\\pcet\\110.png'
I0
I2800
tp36
a(g19
g20
g23
I12
S'shape'
p37
I0
I3
I2
I1
S'C:\\Users\\Jbarrett\\Charlie\\charlie\\stimuli\\visual\\pcet\\110.png'
S'C:\\Users\\Jbarrett\\Charlie\\charlie\\stimuli\\visual\\pcet\\100.png'
S'C:\\Users\\Jbarrett\\Charlie\\charlie\\stimuli\\visual\\pcet\\101.png'
S'C:\\Users\\Jbarrett\\Charlie\\charlie\\stimuli\\visual\\pcet\\000.png'
I3
I2240
tp38
a(g19
g20
g23
I13
S'shape'
p39
I3
I2
I1
I0
S'C:\\Users\\Jbarrett\\Charlie\\charlie\\stimuli\\visual\\pcet\\101.png'
S'C:\\Users\\Jbarrett\\Charlie\\charlie\\stimuli\\visual\\pcet\\100.png'
S'C:\\Users\\Jbarrett\\Charlie\\charlie\\stimuli\\visual\\pcet\\001.png'
S'C:\\Users\\Jbarrett\\Charlie\\charlie\\stimuli\\visual\\pcet\\111.png'
I2
I5260
tp40
a(g19
g20
g23
I14
S'shape'
p41
I3
I1
I0
I2
S'C:\\Users\\Jbarrett\\Charlie\\charlie\\stimuli\\visual\\pcet\\101.png'
S'C:\\Users\\Jbarrett\\Charlie\\charlie\\stimuli\\visual\\pcet\\000.png'
S'C:\\Users\\Jbarrett\\Charlie\\charlie\\stimuli\\visual\\pcet\\100.png'
S'C:\\Users\\Jbarrett\\Charlie\\charlie\\stimuli\\visual\\pcet\\110.png'
I1
I4731
tp42
a(g19
g20
g23
I15
S'shape'
p43
I1
I3
I0
I2
S'C:\\Users\\Jbarrett\\Charlie\\charlie\\stimuli\\visual\\pcet\\101.png'
S'C:\\Users\\Jbarrett\\Charlie\\charlie\\stimuli\\visual\\pcet\\110.png'
S'C:\\Users\\Jbarrett\\Charlie\\charlie\\stimuli\\visual\\pcet\\100.png'
S'C:\\Users\\Jbarrett\\Charlie\\charlie\\stimuli\\visual\\pcet\\000.png'
I3
I2860
tp44
a(g19
g20
g23
I16
S'shape'
p45
I1
I0
I3
I2
S'C:\\Users\\Jbarrett\\Charlie\\charlie\\stimuli\\visual\\pcet\\111.png'
S'C:\\Users\\Jbarrett\\Charlie\\charlie\\stimuli\\visual\\pcet\\001.png'
S'C:\\Users\\Jbarrett\\Charlie\\charlie\\stimuli\\visual\\pcet\\011.png'
S'C:\\Users\\Jbarrett\\Charlie\\charlie\\stimuli\\visual\\pcet\\010.png'
I3
I4550
tp46
a(g19
g20
g23
I17
S'shape'
p47
I2
I1
I3
I0
S'C:\\Users\\Jbarrett\\Charlie\\charlie\\stimuli\\visual\\pcet\\111.png'
S'C:\\Users\\Jbarrett\\Charlie\\charlie\\stimuli\\visual\\pcet\\011.png'
S'C:\\Users\\Jbarrett\\Charlie\\charlie\\stimuli\\visual\\pcet\\101.png'
S'C:\\Users\\Jbarrett\\Charlie\\charlie\\stimuli\\visual\\pcet\\110.png'
I2
I3320
tp48
a(g19
g20
g23
I18
S'shape'
p49
I3
I2
I1
I0
S'C:\\Users\\Jbarrett\\Charlie\\charlie\\stimuli\\visual\\pcet\\010.png'
S'C:\\Users\\Jbarrett\\Charlie\\charlie\\stimuli\\visual\\pcet\\011.png'
S'C:\\Users\\Jbarrett\\Charlie\\charlie\\stimuli\\visual\\pcet\\110.png'
S'C:\\Users\\Jbarrett\\Charlie\\charlie\\stimuli\\visual\\pcet\\000.png'
I3
I2421
tp50
a(g19
g20
g23
I19
S'shape'
p51
I1
I0
I2
I3
S'C:\\Users\\Jbarrett\\Charlie\\charlie\\stimuli\\visual\\pcet\\000.png'
S'C:\\Users\\Jbarrett\\Charlie\\charlie\\stimuli\\visual\\pcet\\110.png'
S'C:\\Users\\Jbarrett\\Charlie\\charlie\\stimuli\\visual\\pcet\\101.png'
S'C:\\Users\\Jbarrett\\Charlie\\charlie\\stimuli\\visual\\pcet\\100.png'
I0
I5750
tp52
a(g19
g20
g23
I20
S'shape'
p53
I3
I2
I1
I0
S'C:\\Users\\Jbarrett\\Charlie\\charlie\\stimuli\\visual\\pcet\\101.png'
S'C:\\Users\\Jbarrett\\Charlie\\charlie\\stimuli\\visual\\pcet\\100.png'
S'C:\\Users\\Jbarrett\\Charlie\\charlie\\stimuli\\visual\\pcet\\001.png'
S'C:\\Users\\Jbarrett\\Charlie\\charlie\\stimuli\\visual\\pcet\\111.png'
I2
I2700
tp54
a(g19
g20
g23
I21
S'shape'
p55
I1
I0
I3
I2
S'C:\\Users\\Jbarrett\\Charlie\\charlie\\stimuli\\visual\\pcet\\010.png'
S'C:\\Users\\Jbarrett\\Charlie\\charlie\\stimuli\\visual\\pcet\\100.png'
S'C:\\Users\\Jbarrett\\Charlie\\charlie\\stimuli\\visual\\pcet\\110.png'
S'C:\\Users\\Jbarrett\\Charlie\\charlie\\stimuli\\visual\\pcet\\111.png'
I0
I2970
tp56
a(g19
g20
g23
I22
S'shape'
p57
I2
I1
I0
I3
S'C:\\Users\\Jbarrett\\Charlie\\charlie\\stimuli\\visual\\pcet\\000.png'
S'C:\\Users\\Jbarrett\\Charlie\\charlie\\stimuli\\visual\\pcet\\101.png'
S'C:\\Users\\Jbarrett\\Charlie\\charlie\\stimuli\\visual\\pcet\\011.png'
S'C:\\Users\\Jbarrett\\Charlie\\charlie\\stimuli\\visual\\pcet\\001.png'
I2
I3930
tp58
a(g19
g20
g23
I23
S'shape'
p59
I1
I0
I2
I3
S'C:\\Users\\Jbarrett\\Charlie\\charlie\\stimuli\\visual\\pcet\\100.png'
S'C:\\Users\\Jbarrett\\Charlie\\charlie\\stimuli\\visual\\pcet\\010.png'
S'C:\\Users\\Jbarrett\\Charlie\\charlie\\stimuli\\visual\\pcet\\001.png'
S'C:\\Users\\Jbarrett\\Charlie\\charlie\\stimuli\\visual\\pcet\\000.png'
I1
I7450
tp60
a(g19
g20
g23
I24
S'size'
p61
I0
I2
I3
I1
S'C:\\Users\\Jbarrett\\Charlie\\charlie\\stimuli\\visual\\pcet\\101.png'
S'C:\\Users\\Jbarrett\\Charlie\\charlie\\stimuli\\visual\\pcet\\100.png'
S'C:\\Users\\Jbarrett\\Charlie\\charlie\\stimuli\\visual\\pcet\\110.png'
S'C:\\Users\\Jbarrett\\Charlie\\charlie\\stimuli\\visual\\pcet\\000.png'
I3
I3871
tp62
a(g19
g20
g23
I25
S'size'
p63
I3
I2
I0
I1
S'C:\\Users\\Jbarrett\\Charlie\\charlie\\stimuli\\visual\\pcet\\001.png'
S'C:\\Users\\Jbarrett\\Charlie\\charlie\\stimuli\\visual\\pcet\\101.png'
S'C:\\Users\\Jbarrett\\Charlie\\charlie\\stimuli\\visual\\pcet\\111.png'
S'C:\\Users\\Jbarrett\\Charlie\\charlie\\stimuli\\visual\\pcet\\100.png'
I3
I4710
tp64
a(g19
g20
g23
I26
S'size'
p65
I0
I3
I2
I1
S'C:\\Users\\Jbarrett\\Charlie\\charlie\\stimuli\\visual\\pcet\\000.png'
S'C:\\Users\\Jbarrett\\Charlie\\charlie\\stimuli\\visual\\pcet\\001.png'
S'C:\\Users\\Jbarrett\\Charlie\\charlie\\stimuli\\visual\\pcet\\101.png'
S'C:\\Users\\Jbarrett\\Charlie\\charlie\\stimuli\\visual\\pcet\\011.png'
I0
I3750
tp66
a(g19
g20
g23
I27
S'size'
p67
I1
I2
I3
I0
S'C:\\Users\\Jbarrett\\Charlie\\charlie\\stimuli\\visual\\pcet\\101.png'
S'C:\\Users\\Jbarrett\\Charlie\\charlie\\stimuli\\visual\\pcet\\100.png'
S'C:\\Users\\Jbarrett\\Charlie\\charlie\\stimuli\\visual\\pcet\\111.png'
S'C:\\Users\\Jbarrett\\Charlie\\charlie\\stimuli\\visual\\pcet\\001.png'
I3
I1830
tp68
a(g19
g20
g23
I28
S'size'
p69
I2
I3
I1
I0
S'C:\\Users\\Jbarrett\\Charlie\\charlie\\stimuli\\visual\\pcet\\110.png'
S'C:\\Users\\Jbarrett\\Charlie\\charlie\\stimuli\\visual\\pcet\\010.png'
S'C:\\Users\\Jbarrett\\Charlie\\charlie\\stimuli\\visual\\pcet\\111.png'
S'C:\\Users\\Jbarrett\\Charlie\\charlie\\stimuli\\visual\\pcet\\100.png'
I1
I3611
tp70
a(g19
g20
g23
I29
S'size'
p71
I1
I0
I2
I3
S'C:\\Users\\Jbarrett\\Charlie\\charlie\\stimuli\\visual\\pcet\\111.png'
S'C:\\Users\\Jbarrett\\Charlie\\charlie\\stimuli\\visual\\pcet\\100.png'
S'C:\\Users\\Jbarrett\\Charlie\\charlie\\stimuli\\visual\\pcet\\001.png'
S'C:\\Users\\Jbarrett\\Charlie\\charlie\\stimuli\\visual\\pcet\\101.png'
I0
I6360
tp72
a(g19
g20
g23
I30
S'size'
p73
I0
I1
I2
I3
S'C:\\Users\\Jbarrett\\Charlie\\charlie\\stimuli\\visual\\pcet\\011.png'
S'C:\\Users\\Jbarrett\\Charlie\\charlie\\stimuli\\visual\\pcet\\000.png'
S'C:\\Users\\Jbarrett\\Charlie\\charlie\\stimuli\\visual\\pcet\\110.png'
S'C:\\Users\\Jbarrett\\Charlie\\charlie\\stimuli\\visual\\pcet\\010.png'
I1
I2910
tp74
a(g19
g20
g23
I31
S'size'
p75
I3
I1
I0
I2
S'C:\\Users\\Jbarrett\\Charlie\\charlie\\stimuli\\visual\\pcet\\110.png'
S'C:\\Users\\Jbarrett\\Charlie\\charlie\\stimuli\\visual\\pcet\\000.png'
S'C:\\Users\\Jbarrett\\Charlie\\charlie\\stimuli\\visual\\pcet\\010.png'
S'C:\\Users\\Jbarrett\\Charlie\\charlie\\stimuli\\visual\\pcet\\011.png'
I1
I2701
tp76
a(g19
g20
g23
I32
S'size'
p77
I0
I2
I1
I3
S'C:\\Users\\Jbarrett\\Charlie\\charlie\\stimuli\\visual\\pcet\\000.png'
S'C:\\Users\\Jbarrett\\Charlie\\charlie\\stimuli\\visual\\pcet\\101.png'
S'C:\\Users\\Jbarrett\\Charlie\\charlie\\stimuli\\visual\\pcet\\011.png'
S'C:\\Users\\Jbarrett\\Charlie\\charlie\\stimuli\\visual\\pcet\\001.png'
I2
I2750
tp78
a(g19
g20
g23
I33
S'size'
p79
I3
I1
I2
I0
S'C:\\Users\\Jbarrett\\Charlie\\charlie\\stimuli\\visual\\pcet\\011.png'
S'C:\\Users\\Jbarrett\\Charlie\\charlie\\stimuli\\visual\\pcet\\001.png'
S'C:\\Users\\Jbarrett\\Charlie\\charlie\\stimuli\\visual\\pcet\\111.png'
S'C:\\Users\\Jbarrett\\Charlie\\charlie\\stimuli\\visual\\pcet\\010.png'
I1
I5030
tp80
a(g19
g20
g23
I34
S'size'
p81
I2
I3
I1
I0
S'C:\\Users\\Jbarrett\\Charlie\\charlie\\stimuli\\visual\\pcet\\011.png'
S'C:\\Users\\Jbarrett\\Charlie\\charlie\\stimuli\\visual\\pcet\\111.png'
S'C:\\Users\\Jbarrett\\Charlie\\charlie\\stimuli\\visual\\pcet\\010.png'
S'C:\\Users\\Jbarrett\\Charlie\\charlie\\stimuli\\visual\\pcet\\001.png'
I3
I4480
tp82
a(g19
g20
g23
I35
S'size'
p83
I2
I0
I1
I3
S'C:\\Users\\Jbarrett\\Charlie\\charlie\\stimuli\\visual\\pcet\\010.png'
S'C:\\Users\\Jbarrett\\Charlie\\charlie\\stimuli\\visual\\pcet\\100.png'
S'C:\\Users\\Jbarrett\\Charlie\\charlie\\stimuli\\visual\\pcet\\001.png'
S'C:\\Users\\Jbarrett\\Charlie\\charlie\\stimuli\\visual\\pcet\\000.png'
I2
I4660
tp84
a(g19
g20
g23
I36
g24
I2
I3
I1
I0
S'C:\\Users\\Jbarrett\\Charlie\\charlie\\stimuli\\visual\\pcet\\010.png'
S'C:\\Users\\Jbarrett\\Charlie\\charlie\\stimuli\\visual\\pcet\\000.png'
S'C:\\Users\\Jbarrett\\Charlie\\charlie\\stimuli\\visual\\pcet\\110.png'
S'C:\\Users\\Jbarrett\\Charlie\\charlie\\stimuli\\visual\\pcet\\011.png'
I2
I4250
tp85
a(g19
g20
g23
I37
g24
I3
I2
I1
I0
S'C:\\Users\\Jbarrett\\Charlie\\charlie\\stimuli\\visual\\pcet\\101.png'
S'C:\\Users\\Jbarrett\\Charlie\\charlie\\stimuli\\visual\\pcet\\111.png'
S'C:\\Users\\Jbarrett\\Charlie\\charlie\\stimuli\\visual\\pcet\\100.png'
S'C:\\Users\\Jbarrett\\Charlie\\charlie\\stimuli\\visual\\pcet\\001.png'
I3
I2400
tp86
a(g19
g20
g23
I38
g24
I0
I3
I1
I2
S'C:\\Users\\Jbarrett\\Charlie\\charlie\\stimuli\\visual\\pcet\\100.png'
S'C:\\Users\\Jbarrett\\Charlie\\charlie\\stimuli\\visual\\pcet\\010.png'
S'C:\\Users\\Jbarrett\\Charlie\\charlie\\stimuli\\visual\\pcet\\000.png'
S'C:\\Users\\Jbarrett\\Charlie\\charlie\\stimuli\\visual\\pcet\\001.png'
I1
I4841
tp87
a(g19
g20
g23
I39
g24
I0
I3
I2
I1
S'C:\\Users\\Jbarrett\\Charlie\\charlie\\stimuli\\visual\\pcet\\010.png'
S'C:\\Users\\Jbarrett\\Charlie\\charlie\\stimuli\\visual\\pcet\\110.png'
S'C:\\Users\\Jbarrett\\Charlie\\charlie\\stimuli\\visual\\pcet\\100.png'
S'C:\\Users\\Jbarrett\\Charlie\\charlie\\stimuli\\visual\\pcet\\111.png'
I0
I6220
tp88
a(g19
g20
g23
I40
g24
I0
I1
I2
I3
S'C:\\Users\\Jbarrett\\Charlie\\charlie\\stimuli\\visual\\pcet\\001.png'
S'C:\\Users\\Jbarrett\\Charlie\\charlie\\stimuli\\visual\\pcet\\100.png'
S'C:\\Users\\Jbarrett\\Charlie\\charlie\\stimuli\\visual\\pcet\\111.png'
S'C:\\Users\\Jbarrett\\Charlie\\charlie\\stimuli\\visual\\pcet\\101.png'
I0
I2720
tp89
a(g19
g20
g23
I41
g24
I3
I0
I2
I1
S'C:\\Users\\Jbarrett\\Charlie\\charlie\\stimuli\\visual\\pcet\\111.png'
S'C:\\Users\\Jbarrett\\Charlie\\charlie\\stimuli\\visual\\pcet\\110.png'
S'C:\\Users\\Jbarrett\\Charlie\\charlie\\stimuli\\visual\\pcet\\100.png'
S'C:\\Users\\Jbarrett\\Charlie\\charlie\\stimuli\\visual\\pcet\\010.png'
I3
I9741
tp90
a(g19
g20
g23
I42
g24
I0
I3
I1
I2
S'C:\\Users\\Jbarrett\\Charlie\\charlie\\stimuli\\visual\\pcet\\110.png'
S'C:\\Users\\Jbarrett\\Charlie\\charlie\\stimuli\\visual\\pcet\\000.png'
S'C:\\Users\\Jbarrett\\Charlie\\charlie\\stimuli\\visual\\pcet\\010.png'
S'C:\\Users\\Jbarrett\\Charlie\\charlie\\stimuli\\visual\\pcet\\011.png'
I1
I9801
tp91
a(g19
g20
g23
I43
g24
I0
I3
I2
I1
S'C:\\Users\\Jbarrett\\Charlie\\charlie\\stimuli\\visual\\pcet\\000.png'
S'C:\\Users\\Jbarrett\\Charlie\\charlie\\stimuli\\visual\\pcet\\100.png'
S'C:\\Users\\Jbarrett\\Charlie\\charlie\\stimuli\\visual\\pcet\\110.png'
S'C:\\Users\\Jbarrett\\Charlie\\charlie\\stimuli\\visual\\pcet\\101.png'
I0
I4820
tp92
a(g19
g20
g23
I44
g24
I2
I1
I3
I0
S'C:\\Users\\Jbarrett\\Charlie\\charlie\\stimuli\\visual\\pcet\\010.png'
S'C:\\Users\\Jbarrett\\Charlie\\charlie\\stimuli\\visual\\pcet\\011.png'
S'C:\\Users\\Jbarrett\\Charlie\\charlie\\stimuli\\visual\\pcet\\110.png'
S'C:\\Users\\Jbarrett\\Charlie\\charlie\\stimuli\\visual\\pcet\\000.png'
I3
I6090
tp93
a(g19
g20
g23
I45
g24
I3
I0
I2
I1
S'C:\\Users\\Jbarrett\\Charlie\\charlie\\stimuli\\visual\\pcet\\011.png'
S'C:\\Users\\Jbarrett\\Charlie\\charlie\\stimuli\\visual\\pcet\\010.png'
S'C:\\Users\\Jbarrett\\Charlie\\charlie\\stimuli\\visual\\pcet\\000.png'
S'C:\\Users\\Jbarrett\\Charlie\\charlie\\stimuli\\visual\\pcet\\110.png'
I3
I5001
tp94
a(g19
g20
g23
I46
g24
I1
I3
I2
I0
S'C:\\Users\\Jbarrett\\Charlie\\charlie\\stimuli\\visual\\pcet\\101.png'
S'C:\\Users\\Jbarrett\\Charlie\\charlie\\stimuli\\visual\\pcet\\001.png'
S'C:\\Users\\Jbarrett\\Charlie\\charlie\\stimuli\\visual\\pcet\\111.png'
S'C:\\Users\\Jbarrett\\Charlie\\charlie\\stimuli\\visual\\pcet\\100.png'
I1
I2490
tp95
a(g19
g20
g23
I47
g24
I1
I3
I2
I0
S'C:\\Users\\Jbarrett\\Charlie\\charlie\\stimuli\\visual\\pcet\\010.png'
S'C:\\Users\\Jbarrett\\Charlie\\charlie\\stimuli\\visual\\pcet\\110.png'
S'C:\\Users\\Jbarrett\\Charlie\\charlie\\stimuli\\visual\\pcet\\000.png'
S'C:\\Users\\Jbarrett\\Charlie\\charlie\\stimuli\\visual\\pcet\\011.png'
I2
I3100
tp96
a(g19
g20
g23
I48
S'shape'
p97
I3
I2
I1
I0
S'C:\\Users\\Jbarrett\\Charlie\\charlie\\stimuli\\visual\\pcet\\110.png'
S'C:\\Users\\Jbarrett\\Charlie\\charlie\\stimuli\\visual\\pcet\\111.png'
S'C:\\Users\\Jbarrett\\Charlie\\charlie\\stimuli\\visual\\pcet\\010.png'
S'C:\\Users\\Jbarrett\\Charlie\\charlie\\stimuli\\visual\\pcet\\100.png'
I2
I1430
tp98
a(g19
g20
g23
I49
S'shape'
p99
I1
I0
I3
I2
S'C:\\Users\\Jbarrett\\Charlie\\charlie\\stimuli\\visual\\pcet\\101.png'
S'C:\\Users\\Jbarrett\\Charlie\\charlie\\stimuli\\visual\\pcet\\011.png'
S'C:\\Users\\Jbarrett\\Charlie\\charlie\\stimuli\\visual\\pcet\\001.png'
S'C:\\Users\\Jbarrett\\Charlie\\charlie\\stimuli\\visual\\pcet\\000.png'
I3
I2971
tp100
a(g19
g20
g23
I50
S'shape'
p101
I2
I0
I3
I1
S'C:\\Users\\Jbarrett\\Charlie\\charlie\\stimuli\\visual\\pcet\\101.png'
S'C:\\Users\\Jbarrett\\Charlie\\charlie\\stimuli\\visual\\pcet\\001.png'
S'C:\\Users\\Jbarrett\\Charlie\\charlie\\stimuli\\visual\\pcet\\011.png'
S'C:\\Users\\Jbarrett\\Charlie\\charlie\\stimuli\\visual\\pcet\\000.png'
I3
I3570
tp102
a(g19
g20
g23
I51
S'shape'
p103
I1
I3
I0
I2
S'C:\\Users\\Jbarrett\\Charlie\\charlie\\stimuli\\visual\\pcet\\111.png'
S'C:\\Users\\Jbarrett\\Charlie\\charlie\\stimuli\\visual\\pcet\\100.png'
S'C:\\Users\\Jbarrett\\Charlie\\charlie\\stimuli\\visual\\pcet\\110.png'
S'C:\\Users\\Jbarrett\\Charlie\\charlie\\stimuli\\visual\\pcet\\010.png'
I3
I2430
tp104
a(g19
g20
g23
I52
S'shape'
p105
I1
I3
I2
I0
S'C:\\Users\\Jbarrett\\Charlie\\charlie\\stimuli\\visual\\pcet\\100.png'
S'C:\\Users\\Jbarrett\\Charlie\\charlie\\stimuli\\visual\\pcet\\110.png'
S'C:\\Users\\Jbarrett\\Charlie\\charlie\\stimuli\\visual\\pcet\\101.png'
S'C:\\Users\\Jbarrett\\Charlie\\charlie\\stimuli\\visual\\pcet\\000.png'
I3
I2920
tp106
a(g19
g20
g23
I53
S'shape'
p107
I1
I2
I0
I3
S'C:\\Users\\Jbarrett\\Charlie\\charlie\\stimuli\\visual\\pcet\\001.png'
S'C:\\Users\\Jbarrett\\Charlie\\charlie\\stimuli\\visual\\pcet\\010.png'
S'C:\\Users\\Jbarrett\\Charlie\\charlie\\stimuli\\visual\\pcet\\100.png'
S'C:\\Users\\Jbarrett\\Charlie\\charlie\\stimuli\\visual\\pcet\\000.png'
I1
I3841
tp108
a(g19
g20
g23
I54
S'shape'
p109
I3
I0
I1
I2
S'C:\\Users\\Jbarrett\\Charlie\\charlie\\stimuli\\visual\\pcet\\010.png'
S'C:\\Users\\Jbarrett\\Charlie\\charlie\\stimuli\\visual\\pcet\\111.png'
S'C:\\Users\\Jbarrett\\Charlie\\charlie\\stimuli\\visual\\pcet\\110.png'
S'C:\\Users\\Jbarrett\\Charlie\\charlie\\stimuli\\visual\\pcet\\100.png'
I1
I2070
tp110
a(g19
g20
g23
I55
S'shape'
p111
I3
I0
I2
I1
S'C:\\Users\\Jbarrett\\Charlie\\charlie\\stimuli\\visual\\pcet\\001.png'
S'C:\\Users\\Jbarrett\\Charlie\\charlie\\stimuli\\visual\\pcet\\101.png'
S'C:\\Users\\Jbarrett\\Charlie\\charlie\\stimuli\\visual\\pcet\\100.png'
S'C:\\Users\\Jbarrett\\Charlie\\charlie\\stimuli\\visual\\pcet\\111.png'
I0
I2480
tp112
a(g19
g20
g23
I56
S'shape'
p113
I2
I1
I3
I0
S'C:\\Users\\Jbarrett\\Charlie\\charlie\\stimuli\\visual\\pcet\\001.png'
S'C:\\Users\\Jbarrett\\Charlie\\charlie\\stimuli\\visual\\pcet\\101.png'
S'C:\\Users\\Jbarrett\\Charlie\\charlie\\stimuli\\visual\\pcet\\011.png'
S'C:\\Users\\Jbarrett\\Charlie\\charlie\\stimuli\\visual\\pcet\\000.png'
I2
I4470
tp114
a(g19
g20
g23
I57
S'shape'
p115
I0
I2
I1
I3
S'C:\\Users\\Jbarrett\\Charlie\\charlie\\stimuli\\visual\\pcet\\100.png'
S'C:\\Users\\Jbarrett\\Charlie\\charlie\\stimuli\\visual\\pcet\\111.png'
S'C:\\Users\\Jbarrett\\Charlie\\charlie\\stimuli\\visual\\pcet\\010.png'
S'C:\\Users\\Jbarrett\\Charlie\\charlie\\stimuli\\visual\\pcet\\110.png'
I2
I771
tp116
a(g19
g20
g23
I58
S'shape'
p117
I2
I3
I1
I0
S'C:\\Users\\Jbarrett\\Charlie\\charlie\\stimuli\\visual\\pcet\\001.png'
S'C:\\Users\\Jbarrett\\Charlie\\charlie\\stimuli\\visual\\pcet\\000.png'
S'C:\\Users\\Jbarrett\\Charlie\\charlie\\stimuli\\visual\\pcet\\011.png'
S'C:\\Users\\Jbarrett\\Charlie\\charlie\\stimuli\\visual\\pcet\\101.png'
I1
I3390
tp118
a(g19
g20
g23
I59
S'shape'
p119
I0
I1
I2
I3
S'C:\\Users\\Jbarrett\\Charlie\\charlie\\stimuli\\visual\\pcet\\111.png'
S'C:\\Users\\Jbarrett\\Charlie\\charlie\\stimuli\\visual\\pcet\\001.png'
S'C:\\Users\\Jbarrett\\Charlie\\charlie\\stimuli\\visual\\pcet\\100.png'
S'C:\\Users\\Jbarrett\\Charlie\\charlie\\stimuli\\visual\\pcet\\101.png'
I0
I3840
tp120
a(g19
g20
g23
I60
S'size'
p121
I0
I2
I1
I3
S'C:\\Users\\Jbarrett\\Charlie\\charlie\\stimuli\\visual\\pcet\\101.png'
S'C:\\Users\\Jbarrett\\Charlie\\charlie\\stimuli\\visual\\pcet\\000.png'
S'C:\\Users\\Jbarrett\\Charlie\\charlie\\stimuli\\visual\\pcet\\110.png'
S'C:\\Users\\Jbarrett\\Charlie\\charlie\\stimuli\\visual\\pcet\\100.png'
I2
I3110
tp122
a(g19
g20
g23
I61
S'size'
p123
I2
I3
I0
I1
S'C:\\Users\\Jbarrett\\Charlie\\charlie\\stimuli\\visual\\pcet\\100.png'
S'C:\\Users\\Jbarrett\\Charlie\\charlie\\stimuli\\visual\\pcet\\000.png'
S'C:\\Users\\Jbarrett\\Charlie\\charlie\\stimuli\\visual\\pcet\\001.png'
S'C:\\Users\\Jbarrett\\Charlie\\charlie\\stimuli\\visual\\pcet\\010.png'
I3
I3481
tp124
a(g19
g20
g23
I62
S'size'
p125
I2
I0
I1
I3
S'C:\\Users\\Jbarrett\\Charlie\\charlie\\stimuli\\visual\\pcet\\111.png'
S'C:\\Users\\Jbarrett\\Charlie\\charlie\\stimuli\\visual\\pcet\\001.png'
S'C:\\Users\\Jbarrett\\Charlie\\charlie\\stimuli\\visual\\pcet\\100.png'
S'C:\\Users\\Jbarrett\\Charlie\\charlie\\stimuli\\visual\\pcet\\101.png'
I0
I3990
tp126
a(g19
g20
g23
I63
S'size'
p127
I1
I0
I3
I2
S'C:\\Users\\Jbarrett\\Charlie\\charlie\\stimuli\\visual\\pcet\\010.png'
S'C:\\Users\\Jbarrett\\Charlie\\charlie\\stimuli\\visual\\pcet\\001.png'
S'C:\\Users\\Jbarrett\\Charlie\\charlie\\stimuli\\visual\\pcet\\000.png'
S'C:\\Users\\Jbarrett\\Charlie\\charlie\\stimuli\\visual\\pcet\\100.png'
I1
I2600
tp128
a(g19
g20
g23
I64
S'size'
p129
I0
I2
I3
I1
S'C:\\Users\\Jbarrett\\Charlie\\charlie\\stimuli\\visual\\pcet\\110.png'
S'C:\\Users\\Jbarrett\\Charlie\\charlie\\stimuli\\visual\\pcet\\111.png'
S'C:\\Users\\Jbarrett\\Charlie\\charlie\\stimuli\\visual\\pcet\\101.png'
S'C:\\Users\\Jbarrett\\Charlie\\charlie\\stimuli\\visual\\pcet\\011.png'
I2
I1820
tp130
a(g19
g20
g23
I65
S'size'
p131
I3
I1
I0
I2
S'C:\\Users\\Jbarrett\\Charlie\\charlie\\stimuli\\visual\\pcet\\100.png'
S'C:\\Users\\Jbarrett\\Charlie\\charlie\\stimuli\\visual\\pcet\\010.png'
S'C:\\Users\\Jbarrett\\Charlie\\charlie\\stimuli\\visual\\pcet\\000.png'
S'C:\\Users\\Jbarrett\\Charlie\\charlie\\stimuli\\visual\\pcet\\001.png'
I1
I3691
tp132
a(g19
g20
g23
I66
S'size'
p133
I3
I1
I2
I0
S'C:\\Users\\Jbarrett\\Charlie\\charlie\\stimuli\\visual\\pcet\\011.png'
S'C:\\Users\\Jbarrett\\Charlie\\charlie\\stimuli\\visual\\pcet\\001.png'
S'C:\\Users\\Jbarrett\\Charlie\\charlie\\stimuli\\visual\\pcet\\111.png'
S'C:\\Users\\Jbarrett\\Charlie\\charlie\\stimuli\\visual\\pcet\\010.png'
I3
I4970
tp134
a(g19
g20
g23
I67
S'size'
p135
I1
I2
I3
I0
S'C:\\Users\\Jbarrett\\Charlie\\charlie\\stimuli\\visual\\pcet\\011.png'
S'C:\\Users\\Jbarrett\\Charlie\\charlie\\stimuli\\visual\\pcet\\010.png'
S'C:\\Users\\Jbarrett\\Charlie\\charlie\\stimuli\\visual\\pcet\\001.png'
S'C:\\Users\\Jbarrett\\Charlie\\charlie\\stimuli\\visual\\pcet\\111.png'
I1
I3210
tp136
a(g19
g20
g23
I68
S'size'
p137
I0
I2
I3
I1
S'C:\\Users\\Jbarrett\\Charlie\\charlie\\stimuli\\visual\\pcet\\100.png'
S'C:\\Users\\Jbarrett\\Charlie\\charlie\\stimuli\\visual\\pcet\\101.png'
S'C:\\Users\\Jbarrett\\Charlie\\charlie\\stimuli\\visual\\pcet\\111.png'
S'C:\\Users\\Jbarrett\\Charlie\\charlie\\stimuli\\visual\\pcet\\001.png'
I0
I2411
tp138
a(g19
g20
g23
I69
S'size'
p139
I0
I1
I2
I3
S'C:\\Users\\Jbarrett\\Charlie\\charlie\\stimuli\\visual\\pcet\\100.png'
S'C:\\Users\\Jbarrett\\Charlie\\charlie\\stimuli\\visual\\pcet\\111.png'
S'C:\\Users\\Jbarrett\\Charlie\\charlie\\stimuli\\visual\\pcet\\001.png'
S'C:\\Users\\Jbarrett\\Charlie\\charlie\\stimuli\\visual\\pcet\\101.png'
I0
I1240
tp140
a(g19
g20
g23
I70
S'size'
p141
I1
I0
I3
I2
S'C:\\Users\\Jbarrett\\Charlie\\charlie\\stimuli\\visual\\pcet\\111.png'
S'C:\\Users\\Jbarrett\\Charlie\\charlie\\stimuli\\visual\\pcet\\100.png'
S'C:\\Users\\Jbarrett\\Charlie\\charlie\\stimuli\\visual\\pcet\\101.png'
S'C:\\Users\\Jbarrett\\Charlie\\charlie\\stimuli\\visual\\pcet\\001.png'
I3
I4060
tp142
a(g19
g20
g23
I71
S'size'
p143
I1
I2
I3
I0
S'C:\\Users\\Jbarrett\\Charlie\\charlie\\stimuli\\visual\\pcet\\010.png'
p144
S'C:\\Users\\Jbarrett\\Charlie\\charlie\\stimuli\\visual\\pcet\\011.png'
p145
S'C:\\Users\\Jbarrett\\Charlie\\charlie\\stimuli\\visual\\pcet\\000.png'
p146
S'C:\\Users\\Jbarrett\\Charlie\\charlie\\stimuli\\visual\\pcet\\110.png'
p147
I2
I3650
tp148
asS'output_format'
p149
(lp150
(S'proband_id'
p151
c__builtin__
str
p152
tp153
a(S'test_name'
p154
g152
tp155
a(S'phase'
p156
g152
tp157
a(S'trialn'
p158
c__builtin__
int
p159
tp160
a(S'rule'
p161
g152
tp162
a(S'ans'
p163
g152
tp164
a(S'pers'
p165
g152
tp166
a(S'other'
p167
g152
tp168
a(S'lapse'
p169
g152
tp170
a(S'f1'
p171
g152
tp172
a(S'f2'
p173
g152
tp174
a(S'f3'
p175
g152
tp176
a(S'f4'
p177
g152
tp178
a(S'rsp'
p179
g152
tp180
a(S'rt'
p181
g159
tp182
asg151
g19
sS'filename'
p183
S'4433_pcet.data'
p184
sS'initialised'
p185
g10
(S"\x07\xdf\x08\x14\n '\x04\xed\xb8"
tRp186
sg154
S'pcet'
p187
sS'directory'
p188
S'C:\\Users\\Jbarrett\\Charlie\\charlie\\data\\raw'
p189
sS'user_id'
p190
S'barrett'
p191
sS'test_started'
p192
I01
sS'abs_filename'
p193
S'C:\\Users\\Jbarrett\\Charlie\\charlie\\data\\raw\\4433_pcet.data'
p194
sS'date_started'
p195
g10
(S'\x07\xdf\x08\x14\n :\x02\xe2H'
tRp196
sS'log'
p197
(lp198
(S'2015-08-20 10:32:39.323000'
S'instance created'
p199
tp200
a(S'2015-08-20 10:32:58.192000'
S'instance updated'
p201
tp202
a(S'2015-08-20 10:32:58.202000'
S'pandas DataFrame of data created'
p203
tp204
a(S'2015-08-20 10:32:58.205000'
g201
tp205
a(S'2015-08-20 10:32:58.206000'
S'data saved as csv to C:\\Users\\Jbarrett\\Charlie\\charlie\\data\\csv\\4433_pcet.csv'
tp206
a(S'2015-08-20 10:33:15.998000'
g201
tp207
a(S'2015-08-20 10:33:16.015000'
g203
tp208
a(S'2015-08-20 10:33:16.018000'
g201
tp209
a(S'2015-08-20 10:33:16.019000'
S'data saved as csv to C:\\Users\\Jbarrett\\Charlie\\charlie\\data\\csv\\4433_pcet.csv'
tp210
a(S'2015-08-20 10:33:22.213000'
g201
tp211
a(S'2015-08-20 10:33:22.236000'
g203
tp212
a(S'2015-08-20 10:33:22.239000'
g201
tp213
a(S'2015-08-20 10:33:22.240000'
S'data saved as csv to C:\\Users\\Jbarrett\\Charlie\\charlie\\data\\csv\\4433_pcet.csv'
tp214
a(S'2015-08-20 10:33:30.055000'
g201
tp215
a(S'2015-08-20 10:33:30.085000'
g203
tp216
a(S'2015-08-20 10:33:30.088000'
g201
tp217
a(S'2015-08-20 10:33:30.089000'
S'data saved as csv to C:\\Users\\Jbarrett\\Charlie\\charlie\\data\\csv\\4433_pcet.csv'
tp218
a(S'2015-08-20 10:33:35.092000'
g201
tp219
a(S'2015-08-20 10:33:35.129000'
g203
tp220
a(S'2015-08-20 10:33:35.132000'
g201
tp221
a(S'2015-08-20 10:33:35.133000'
S'data saved as csv to C:\\Users\\Jbarrett\\Charlie\\charlie\\data\\csv\\4433_pcet.csv'
tp222
a(S'2015-08-20 10:33:41.690000'
g201
tp223
a(S'2015-08-20 10:33:41.734000'
g203
tp224
a(S'2015-08-20 10:33:41.737000'
g201
tp225
a(S'2015-08-20 10:33:41.738000'
S'data saved as csv to C:\\Users\\Jbarrett\\Charlie\\charlie\\data\\csv\\4433_pcet.csv'
tp226
a(S'2015-08-20 10:33:46.385000'
g201
tp227
a(S'2015-08-20 10:33:46.437000'
g203
tp228
a(S'2015-08-20 10:33:46.440000'
g201
tp229
a(S'2015-08-20 10:33:46.440000'
S'data saved as csv to C:\\Users\\Jbarrett\\Charlie\\charlie\\data\\csv\\4433_pcet.csv'
tp230
a(S'2015-08-20 10:33:49.983000'
g201
tp231
a(S'2015-08-20 10:33:50.041000'
g203
tp232
a(S'2015-08-20 10:33:50.043000'
g201
tp233
a(S'2015-08-20 10:33:50.044000'
S'data saved as csv to C:\\Users\\Jbarrett\\Charlie\\charlie\\data\\csv\\4433_pcet.csv'
tp234
a(S'2015-08-20 10:33:56.139000'
g201
tp235
a(S'2015-08-20 10:33:56.204000'
g203
tp236
a(S'2015-08-20 10:33:56.207000'
g201
tp237
a(S'2015-08-20 10:33:56.208000'
S'data saved as csv to C:\\Users\\Jbarrett\\Charlie\\charlie\\data\\csv\\4433_pcet.csv'
tp238
a(S'2015-08-20 10:34:00.712000'
g201
tp239
a(S'2015-08-20 10:34:00.784000'
g203
tp240
a(S'2015-08-20 10:34:00.787000'
g201
tp241
a(S'2015-08-20 10:34:00.788000'
S'data saved as csv to C:\\Users\\Jbarrett\\Charlie\\charlie\\data\\csv\\4433_pcet.csv'
tp242
a(S'2015-08-20 10:34:04.053000'
g201
tp243
a(S'2015-08-20 10:34:04.132000'
g203
tp244
a(S'2015-08-20 10:34:04.135000'
g201
tp245
a(S'2015-08-20 10:34:04.136000'
S'data saved as csv to C:\\Users\\Jbarrett\\Charlie\\charlie\\data\\csv\\4433_pcet.csv'
tp246
a(S'2015-08-20 10:34:07.113000'
g201
tp247
a(S'2015-08-20 10:34:07.199000'
g203
tp248
a(S'2015-08-20 10:34:07.202000'
g201
tp249
a(S'2015-08-20 10:34:07.203000'
S'data saved as csv to C:\\Users\\Jbarrett\\Charlie\\charlie\\data\\csv\\4433_pcet.csv'
tp250
a(S'2015-08-20 10:34:11.030000'
g201
tp251
a(S'2015-08-20 10:34:11.122000'
g203
tp252
a(S'2015-08-20 10:34:11.125000'
g201
tp253
a(S'2015-08-20 10:34:11.126000'
S'data saved as csv to C:\\Users\\Jbarrett\\Charlie\\charlie\\data\\csv\\4433_pcet.csv'
tp254
a(S'2015-08-20 10:34:14.390000'
g201
tp255
a(S'2015-08-20 10:34:14.489000'
g203
tp256
a(S'2015-08-20 10:34:14.492000'
g201
tp257
a(S'2015-08-20 10:34:14.493000'
S'data saved as csv to C:\\Users\\Jbarrett\\Charlie\\charlie\\data\\csv\\4433_pcet.csv'
tp258
a(S'2015-08-20 10:34:20.779000'
g201
tp259
a(S'2015-08-20 10:34:20.884000'
g203
tp260
a(S'2015-08-20 10:34:20.887000'
g201
tp261
a(S'2015-08-20 10:34:20.888000'
S'data saved as csv to C:\\Users\\Jbarrett\\Charlie\\charlie\\data\\csv\\4433_pcet.csv'
tp262
a(S'2015-08-20 10:34:26.640000'
g201
tp263
a(S'2015-08-20 10:34:26.752000'
g203
tp264
a(S'2015-08-20 10:34:26.755000'
g201
tp265
a(S'2015-08-20 10:34:26.756000'
S'data saved as csv to C:\\Users\\Jbarrett\\Charlie\\charlie\\data\\csv\\4433_pcet.csv'
tp266
a(S'2015-08-20 10:34:30.639000'
g201
tp267
a(S'2015-08-20 10:34:30.757000'
g203
tp268
a(S'2015-08-20 10:34:30.760000'
g201
tp269
a(S'2015-08-20 10:34:30.761000'
S'data saved as csv to C:\\Users\\Jbarrett\\Charlie\\charlie\\data\\csv\\4433_pcet.csv'
tp270
a(S'2015-08-20 10:34:36.337000'
g201
tp271
a(S'2015-08-20 10:34:36.464000'
g203
tp272
a(S'2015-08-20 10:34:36.467000'
g201
tp273
a(S'2015-08-20 10:34:36.468000'
S'data saved as csv to C:\\Users\\Jbarrett\\Charlie\\charlie\\data\\csv\\4433_pcet.csv'
tp274
a(S'2015-08-20 10:34:40.815000'
g201
tp275
a(S'2015-08-20 10:34:40.947000'
g203
tp276
a(S'2015-08-20 10:34:40.950000'
g201
tp277
a(S'2015-08-20 10:34:40.951000'
S'data saved as csv to C:\\Users\\Jbarrett\\Charlie\\charlie\\data\\csv\\4433_pcet.csv'
tp278
a(S'2015-08-20 10:34:44.395000'
g201
tp279
a(S'2015-08-20 10:34:44.533000'
g203
tp280
a(S'2015-08-20 10:34:44.536000'
g201
tp281
a(S'2015-08-20 10:34:44.537000'
S'data saved as csv to C:\\Users\\Jbarrett\\Charlie\\charlie\\data\\csv\\4433_pcet.csv'
tp282
a(S'2015-08-20 10:34:51.310000'
g201
tp283
a(S'2015-08-20 10:34:51.455000'
g203
tp284
a(S'2015-08-20 10:34:51.458000'
g201
tp285
a(S'2015-08-20 10:34:51.459000'
S'data saved as csv to C:\\Users\\Jbarrett\\Charlie\\charlie\\data\\csv\\4433_pcet.csv'
tp286
a(S'2015-08-20 10:34:55.186000'
g201
tp287
a(S'2015-08-20 10:34:55.337000'
g203
tp288
a(S'2015-08-20 10:34:55.340000'
g201
tp289
a(S'2015-08-20 10:34:55.341000'
S'data saved as csv to C:\\Users\\Jbarrett\\Charlie\\charlie\\data\\csv\\4433_pcet.csv'
tp290
a(S'2015-08-20 10:34:59.336000'
g201
tp291
a(S'2015-08-20 10:34:59.494000'
g203
tp292
a(S'2015-08-20 10:34:59.497000'
g201
tp293
a(S'2015-08-20 10:34:59.498000'
S'data saved as csv to C:\\Users\\Jbarrett\\Charlie\\charlie\\data\\csv\\4433_pcet.csv'
tp294
a(S'2015-08-20 10:35:04.453000'
g201
tp295
a(S'2015-08-20 10:35:04.621000'
g203
tp296
a(S'2015-08-20 10:35:04.624000'
g201
tp297
a(S'2015-08-20 10:35:04.625000'
S'data saved as csv to C:\\Users\\Jbarrett\\Charlie\\charlie\\data\\csv\\4433_pcet.csv'
tp298
a(S'2015-08-20 10:35:13.098000'
g201
tp299
a(S'2015-08-20 10:35:13.268000'
g203
tp300
a(S'2015-08-20 10:35:13.271000'
g201
tp301
a(S'2015-08-20 10:35:13.272000'
S'data saved as csv to C:\\Users\\Jbarrett\\Charlie\\charlie\\data\\csv\\4433_pcet.csv'
tp302
a(S'2015-08-20 10:35:18.165000'
g201
tp303
a(S'2015-08-20 10:35:18.346000'
g203
tp304
a(S'2015-08-20 10:35:18.350000'
g201
tp305
a(S'2015-08-20 10:35:18.351000'
S'data saved as csv to C:\\Users\\Jbarrett\\Charlie\\charlie\\data\\csv\\4433_pcet.csv'
tp306
a(S'2015-08-20 10:35:24.087000'
g201
tp307
a(S'2015-08-20 10:35:24.275000'
g203
tp308
a(S'2015-08-20 10:35:24.278000'
g201
tp309
a(S'2015-08-20 10:35:24.279000'
S'data saved as csv to C:\\Users\\Jbarrett\\Charlie\\charlie\\data\\csv\\4433_pcet.csv'
tp310
a(S'2015-08-20 10:35:29.054000'
g201
tp311
a(S'2015-08-20 10:35:29.249000'
g203
tp312
a(S'2015-08-20 10:35:29.253000'
g201
tp313
a(S'2015-08-20 10:35:29.254000'
S'data saved as csv to C:\\Users\\Jbarrett\\Charlie\\charlie\\data\\csv\\4433_pcet.csv'
tp314
a(S'2015-08-20 10:35:32.109000'
g201
tp315
a(S'2015-08-20 10:35:32.311000'
g203
tp316
a(S'2015-08-20 10:35:32.314000'
g201
tp317
a(S'2015-08-20 10:35:32.316000'
S'data saved as csv to C:\\Users\\Jbarrett\\Charlie\\charlie\\data\\csv\\4433_pcet.csv'
tp318
a(S'2015-08-20 10:35:36.950000'
g201
tp319
a(S'2015-08-20 10:35:37.159000'
g203
tp320
a(S'2015-08-20 10:35:37.162000'
g201
tp321
a(S'2015-08-20 10:35:37.163000'
S'data saved as csv to C:\\Users\\Jbarrett\\Charlie\\charlie\\data\\csv\\4433_pcet.csv'
tp322
a(S'2015-08-20 10:35:44.548000'
g201
tp323
a(S'2015-08-20 10:35:44.758000'
g203
tp324
a(S'2015-08-20 10:35:44.761000'
g201
tp325
a(S'2015-08-20 10:35:44.763000'
S'data saved as csv to C:\\Users\\Jbarrett\\Charlie\\charlie\\data\\csv\\4433_pcet.csv'
tp326
a(S'2015-08-20 10:35:48.696000'
g201
tp327
a(S'2015-08-20 10:35:48.918000'
g203
tp328
a(S'2015-08-20 10:35:48.921000'
g201
tp329
a(S'2015-08-20 10:35:48.922000'
S'data saved as csv to C:\\Users\\Jbarrett\\Charlie\\charlie\\data\\csv\\4433_pcet.csv'
tp330
a(S'2015-08-20 10:35:52.646000'
g201
tp331
a(S'2015-08-20 10:35:52.873000'
g203
tp332
a(S'2015-08-20 10:35:52.877000'
g201
tp333
a(S'2015-08-20 10:35:52.878000'
S'data saved as csv to C:\\Users\\Jbarrett\\Charlie\\charlie\\data\\csv\\4433_pcet.csv'
tp334
a(S'2015-08-20 10:35:56.653000'
g201
tp335
a(S'2015-08-20 10:35:56.887000'
g203
tp336
a(S'2015-08-20 10:35:56.890000'
g201
tp337
a(S'2015-08-20 10:35:56.891000'
S'data saved as csv to C:\\Users\\Jbarrett\\Charlie\\charlie\\data\\csv\\4433_pcet.csv'
tp338
a(S'2015-08-20 10:36:02.948000'
g201
tp339
a(S'2015-08-20 10:36:03.186000'
g203
tp340
a(S'2015-08-20 10:36:03.189000'
g201
tp341
a(S'2015-08-20 10:36:03.190000'
S'data saved as csv to C:\\Users\\Jbarrett\\Charlie\\charlie\\data\\csv\\4433_pcet.csv'
tp342
a(S'2015-08-20 10:36:08.697000'
g201
tp343
a(S'2015-08-20 10:36:08.944000'
g203
tp344
a(S'2015-08-20 10:36:08.948000'
g201
tp345
a(S'2015-08-20 10:36:08.949000'
S'data saved as csv to C:\\Users\\Jbarrett\\Charlie\\charlie\\data\\csv\\4433_pcet.csv'
tp346
a(S'2015-08-20 10:36:14.632000'
g201
tp347
a(S'2015-08-20 10:36:14.882000'
g203
tp348
a(S'2015-08-20 10:36:14.885000'
g201
tp349
a(S'2015-08-20 10:36:14.886000'
S'data saved as csv to C:\\Users\\Jbarrett\\Charlie\\charlie\\data\\csv\\4433_pcet.csv'
tp350
a(S'2015-08-20 10:36:20.159000'
g201
tp351
a(S'2015-08-20 10:36:20.421000'
g203
tp352
a(S'2015-08-20 10:36:20.424000'
g201
tp353
a(S'2015-08-20 10:36:20.425000'
S'data saved as csv to C:\\Users\\Jbarrett\\Charlie\\charlie\\data\\csv\\4433_pcet.csv'
tp354
a(S'2015-08-20 10:36:23.852000'
g201
tp355
a(S'2015-08-20 10:36:24.119000'
g203
tp356
a(S'2015-08-20 10:36:24.122000'
g201
tp357
a(S'2015-08-20 10:36:24.124000'
S'data saved as csv to C:\\Users\\Jbarrett\\Charlie\\charlie\\data\\csv\\4433_pcet.csv'
tp358
a(S'2015-08-20 10:36:29.986000'
g201
tp359
a(S'2015-08-20 10:36:30.257000'
g203
tp360
a(S'2015-08-20 10:36:30.261000'
g201
tp361
a(S'2015-08-20 10:36:30.262000'
S'data saved as csv to C:\\Users\\Jbarrett\\Charlie\\charlie\\data\\csv\\4433_pcet.csv'
tp362
a(S'2015-08-20 10:36:37.506000'
g201
tp363
a(S'2015-08-20 10:36:37.784000'
g203
tp364
a(S'2015-08-20 10:36:37.787000'
g201
tp365
a(S'2015-08-20 10:36:37.788000'
S'data saved as csv to C:\\Users\\Jbarrett\\Charlie\\charlie\\data\\csv\\4433_pcet.csv'
tp366
a(S'2015-08-20 10:36:41.535000'
g201
tp367
a(S'2015-08-20 10:36:41.823000'
g203
tp368
a(S'2015-08-20 10:36:41.827000'
g201
tp369
a(S'2015-08-20 10:36:41.828000'
S'data saved as csv to C:\\Users\\Jbarrett\\Charlie\\charlie\\data\\csv\\4433_pcet.csv'
tp370
a(S'2015-08-20 10:36:52.593000'
g201
tp371
a(S'2015-08-20 10:36:52.888000'
g203
tp372
a(S'2015-08-20 10:36:52.891000'
g201
tp373
a(S'2015-08-20 10:36:52.892000'
S'data saved as csv to C:\\Users\\Jbarrett\\Charlie\\charlie\\data\\csv\\4433_pcet.csv'
tp374
a(S'2015-08-20 10:37:03.715000'
g201
tp375
a(S'2015-08-20 10:37:04.015000'
g203
tp376
a(S'2015-08-20 10:37:04.019000'
g201
tp377
a(S'2015-08-20 10:37:04.020000'
S'data saved as csv to C:\\Users\\Jbarrett\\Charlie\\charlie\\data\\csv\\4433_pcet.csv'
tp378
a(S'2015-08-20 10:37:09.865000'
g201
tp379
a(S'2015-08-20 10:37:10.170000'
g203
tp380
a(S'2015-08-20 10:37:10.173000'
g201
tp381
a(S'2015-08-20 10:37:10.174000'
S'data saved as csv to C:\\Users\\Jbarrett\\Charlie\\charlie\\data\\csv\\4433_pcet.csv'
tp382
a(S'2015-08-20 10:37:17.287000'
g201
tp383
a(S'2015-08-20 10:37:17.602000'
g203
tp384
a(S'2015-08-20 10:37:17.605000'
g201
tp385
a(S'2015-08-20 10:37:17.606000'
S'data saved as csv to C:\\Users\\Jbarrett\\Charlie\\charlie\\data\\csv\\4433_pcet.csv'
tp386
a(S'2015-08-20 10:37:23.630000'
g201
tp387
a(S'2015-08-20 10:37:23.952000'
g203
tp388
a(S'2015-08-20 10:37:23.955000'
g201
tp389
a(S'2015-08-20 10:37:23.956000'
S'data saved as csv to C:\\Users\\Jbarrett\\Charlie\\charlie\\data\\csv\\4433_pcet.csv'
tp390
a(S'2015-08-20 10:37:27.473000'
g201
tp391
a(S'2015-08-20 10:37:27.802000'
g203
tp392
a(S'2015-08-20 10:37:27.806000'
g201
tp393
a(S'2015-08-20 10:37:27.807000'
S'data saved as csv to C:\\Users\\Jbarrett\\Charlie\\charlie\\data\\csv\\4433_pcet.csv'
tp394
a(S'2015-08-20 10:37:31.930000'
g201
tp395
a(S'2015-08-20 10:37:32.264000'
g203
tp396
a(S'2015-08-20 10:37:32.267000'
g201
tp397
a(S'2015-08-20 10:37:32.268000'
S'data saved as csv to C:\\Users\\Jbarrett\\Charlie\\charlie\\data\\csv\\4433_pcet.csv'
tp398
a(S'2015-08-20 10:37:34.723000'
g201
tp399
a(S'2015-08-20 10:37:35.064000'
g203
tp400
a(S'2015-08-20 10:37:35.067000'
g201
tp401
a(S'2015-08-20 10:37:35.068000'
S'data saved as csv to C:\\Users\\Jbarrett\\Charlie\\charlie\\data\\csv\\4433_pcet.csv'
tp402
a(S'2015-08-20 10:37:39.063000'
g201
tp403
a(S'2015-08-20 10:37:39.409000'
g203
tp404
a(S'2015-08-20 10:37:39.412000'
g201
tp405
a(S'2015-08-20 10:37:39.413000'
S'data saved as csv to C:\\Users\\Jbarrett\\Charlie\\charlie\\data\\csv\\4433_pcet.csv'
tp406
a(S'2015-08-20 10:37:44.009000'
g201
tp407
a(S'2015-08-20 10:37:44.371000'
g203
tp408
a(S'2015-08-20 10:37:44.374000'
g201
tp409
a(S'2015-08-20 10:37:44.375000'
S'data saved as csv to C:\\Users\\Jbarrett\\Charlie\\charlie\\data\\csv\\4433_pcet.csv'
tp410
a(S'2015-08-20 10:37:47.832000'
g201
tp411
a(S'2015-08-20 10:37:48.196000'
g203
tp412
a(S'2015-08-20 10:37:48.199000'
g201
tp413
a(S'2015-08-20 10:37:48.201000'
S'data saved as csv to C:\\Users\\Jbarrett\\Charlie\\charlie\\data\\csv\\4433_pcet.csv'
tp414
a(S'2015-08-20 10:37:52.145000'
g201
tp415
a(S'2015-08-20 10:37:52.516000'
g203
tp416
a(S'2015-08-20 10:37:52.519000'
g201
tp417
a(S'2015-08-20 10:37:52.521000'
S'data saved as csv to C:\\Users\\Jbarrett\\Charlie\\charlie\\data\\csv\\4433_pcet.csv'
tp418
a(S'2015-08-20 10:37:57.384000'
g201
tp419
a(S'2015-08-20 10:37:57.758000'
g203
tp420
a(S'2015-08-20 10:37:57.761000'
g201
tp421
a(S'2015-08-20 10:37:57.763000'
S'data saved as csv to C:\\Users\\Jbarrett\\Charlie\\charlie\\data\\csv\\4433_pcet.csv'
tp422
a(S'2015-08-20 10:38:00.857000'
g201
tp423
a(S'2015-08-20 10:38:01.240000'
g203
tp424
a(S'2015-08-20 10:38:01.244000'
g201
tp425
a(S'2015-08-20 10:38:01.245000'
S'data saved as csv to C:\\Users\\Jbarrett\\Charlie\\charlie\\data\\csv\\4433_pcet.csv'
tp426
a(S'2015-08-20 10:38:04.751000'
g201
tp427
a(S'2015-08-20 10:38:05.141000'
g203
tp428
a(S'2015-08-20 10:38:05.145000'
g201
tp429
a(S'2015-08-20 10:38:05.146000'
S'data saved as csv to C:\\Users\\Jbarrett\\Charlie\\charlie\\data\\csv\\4433_pcet.csv'
tp430
a(S'2015-08-20 10:38:10.641000'
g201
tp431
a(S'2015-08-20 10:38:11.036000'
g203
tp432
a(S'2015-08-20 10:38:11.040000'
g201
tp433
a(S'2015-08-20 10:38:11.041000'
S'data saved as csv to C:\\Users\\Jbarrett\\Charlie\\charlie\\data\\csv\\4433_pcet.csv'
tp434
a(S'2015-08-20 10:38:12.836000'
g201
tp435
a(S'2015-08-20 10:38:13.236000'
g203
tp436
a(S'2015-08-20 10:38:13.239000'
g201
tp437
a(S'2015-08-20 10:38:13.240000'
S'data saved as csv to C:\\Users\\Jbarrett\\Charlie\\charlie\\data\\csv\\4433_pcet.csv'
tp438
a(S'2015-08-20 10:38:17.655000'
g201
tp439
a(S'2015-08-20 10:38:18.063000'
g203
tp440
a(S'2015-08-20 10:38:18.066000'
g201
tp441
a(S'2015-08-20 10:38:18.067000'
S'data saved as csv to C:\\Users\\Jbarrett\\Charlie\\charlie\\data\\csv\\4433_pcet.csv'
tp442
a(S'2015-08-20 10:38:22.934000'
g201
tp443
a(S'2015-08-20 10:38:23.349000'
g203
tp444
a(S'2015-08-20 10:38:23.352000'
g201
tp445
a(S'2015-08-20 10:38:23.354000'
S'data saved as csv to C:\\Users\\Jbarrett\\Charlie\\charlie\\data\\csv\\4433_pcet.csv'
tp446
a(S'2015-08-20 10:38:27.487000'
g201
tp447
a(S'2015-08-20 10:38:27.909000'
g203
tp448
a(S'2015-08-20 10:38:27.913000'
g201
tp449
a(S'2015-08-20 10:38:27.914000'
S'data saved as csv to C:\\Users\\Jbarrett\\Charlie\\charlie\\data\\csv\\4433_pcet.csv'
tp450
a(S'2015-08-20 10:38:32.417000'
g201
tp451
a(S'2015-08-20 10:38:32.842000'
g203
tp452
a(S'2015-08-20 10:38:32.846000'
g201
tp453
a(S'2015-08-20 10:38:32.847000'
S'data saved as csv to C:\\Users\\Jbarrett\\Charlie\\charlie\\data\\csv\\4433_pcet.csv'
tp454
a(S'2015-08-20 10:38:37.862000'
g201
tp455
a(S'2015-08-20 10:38:38.298000'
g203
tp456
a(S'2015-08-20 10:38:38.301000'
g201
tp457
a(S'2015-08-20 10:38:38.303000'
S'data saved as csv to C:\\Users\\Jbarrett\\Charlie\\charlie\\data\\csv\\4433_pcet.csv'
tp458
a(S'2015-08-20 10:38:41.925000'
g201
tp459
a(S'2015-08-20 10:38:42.367000'
g203
tp460
a(S'2015-08-20 10:38:42.371000'
g201
tp461
a(S'2015-08-20 10:38:42.372000'
S'data saved as csv to C:\\Users\\Jbarrett\\Charlie\\charlie\\data\\csv\\4433_pcet.csv'
tp462
a(S'2015-08-20 10:38:45.222000'
g201
tp463
a(S'2015-08-20 10:38:45.672000'
g203
tp464
a(S'2015-08-20 10:38:45.675000'
g201
tp465
a(S'2015-08-20 10:38:45.676000'
S'data saved as csv to C:\\Users\\Jbarrett\\Charlie\\charlie\\data\\csv\\4433_pcet.csv'
tp466
a(S'2015-08-20 10:38:50.389000'
g201
tp467
a(S'2015-08-20 10:38:50.846000'
g203
tp468
a(S'2015-08-20 10:38:50.849000'
g201
tp469
a(S'2015-08-20 10:38:50.851000'
S'data saved as csv to C:\\Users\\Jbarrett\\Charlie\\charlie\\data\\csv\\4433_pcet.csv'
tp470
a(S'2015-08-20 10:38:56.847000'
g201
tp471
a(S'2015-08-20 10:38:57.306000'
g203
tp472
a(S'2015-08-20 10:38:57.309000'
g201
tp473
a(S'2015-08-20 10:38:57.310000'
S'data saved as csv to C:\\Users\\Jbarrett\\Charlie\\charlie\\data\\csv\\4433_pcet.csv'
tp474
a(S'2015-08-20 10:39:01.547000'
g201
tp475
a(S'2015-08-20 10:39:02.012000'
g203
tp476
a(S'2015-08-20 10:39:02.015000'
g201
tp477
a(S'2015-08-20 10:39:02.017000'
S'data saved as csv to C:\\Users\\Jbarrett\\Charlie\\charlie\\data\\csv\\4433_pcet.csv'
tp478
a(S'2015-08-20 10:39:05.453000'
g201
tp479
a(S'2015-08-20 10:39:05.924000'
g203
tp480
a(S'2015-08-20 10:39:05.927000'
g201
tp481
a(S'2015-08-20 10:39:05.929000'
S'data saved as csv to C:\\Users\\Jbarrett\\Charlie\\charlie\\data\\csv\\4433_pcet.csv'
tp482
a(S'2015-08-20 10:39:08.195000'
g201
tp483
a(S'2015-08-20 10:39:08.677000'
g203
tp484
a(S'2015-08-20 10:39:08.680000'
g201
tp485
a(S'2015-08-20 10:39:08.681000'
S'data saved as csv to C:\\Users\\Jbarrett\\Charlie\\charlie\\data\\csv\\4433_pcet.csv'
tp486
a(S'2015-08-20 10:39:13.768000'
g201
tp487
a(S'2015-08-20 10:39:14.257000'
g203
tp488
a(S'2015-08-20 10:39:14.260000'
g201
tp489
a(S'2015-08-20 10:39:14.261000'
S'data saved as csv to C:\\Users\\Jbarrett\\Charlie\\charlie\\data\\csv\\4433_pcet.csv'
tp490
a(S'2015-08-20 10:39:18.936000'
g201
tp491
a(S'2015-08-20 10:39:19.443000'
g203
tp492
a(S'2015-08-20 10:39:19.447000'
g201
tp493
a(S'2015-08-20 10:39:19.448000'
S'data saved as csv to C:\\Users\\Jbarrett\\Charlie\\charlie\\data\\csv\\4433_pcet.csv'
tp494
a(S'2015-08-20 10:39:19.451000'
g201
tp495
asb.