(icharlie.tools.data
Data
p1
(dp2
S'lang'
p3
S'EN'
p4
sS'control'
p5
(lp6
sS'last_updated'
p7
cdatetime
datetime
p8
(S'\x07\xdf\x08\x03\r\x19\x04\x0bJ\xa0'
tRp9
sS'last_opened'
p10
g8
(S'\x07\xdf\x08\x03\r\x159\x01\xcc\xf0'
tRp11
sS'proj_id'
p12
S'connectivity'
p13
sS'date_done'
p14
NsS'test_done'
p15
I01
sS'data'
p16
(lp17
(S'4434'
p18
S'ctrails'
p19
S'number'
p20
S'practice'
p21
I0
I1
S'Correct'
p22
I2130
I7237
tp23
a(g18
g19
g20
g21
I1
I2
g22
I880
I7237
tp24
a(g18
g19
g20
g21
I2
I3
g22
I1040
I7237
tp25
a(g18
g19
g20
g21
I3
I4
g22
I660
I7237
tp26
a(g18
g19
g20
g21
I4
I5
g22
I620
I7237
tp27
a(g18
g19
g20
g21
I5
I6
g22
I670
I7237
tp28
a(g18
g19
g20
g21
I6
I7
g22
I640
I7237
tp29
a(g18
g19
g20
g21
I7
I8
g22
I550
I7237
tp30
a(g18
g19
g20
S'test'
p31
I0
I1
g22
I1100
I24431
tp32
a(g18
g19
g20
g31
I1
I2
g22
I960
I24431
tp33
a(g18
g19
g20
g31
I2
I3
g22
I700
I24431
tp34
a(g18
g19
g20
g31
I3
I4
g22
I790
I24431
tp35
a(g18
g19
g20
g31
I4
I5
g22
I600
I24431
tp36
a(g18
g19
g20
g31
I5
I6
g22
I990
I24431
tp37
a(g18
g19
g20
g31
I6
I7
g22
I580
I24431
tp38
a(g18
g19
g20
g31
I7
I8
g22
I670
I24431
tp39
a(g18
g19
g20
g31
I8
I9
g22
I960
I24431
tp40
a(g18
g19
g20
g31
I9
I10
g22
I1290
I24431
tp41
a(g18
g19
g20
g31
I10
I11
g22
I570
I24431
tp42
a(g18
g19
g20
g31
I11
I12
g22
I3800
I24431
tp43
a(g18
g19
g20
g31
I12
I13
g22
I850
I24431
tp44
a(g18
g19
g20
g31
I13
I14
g22
I560
I24431
tp45
a(g18
g19
g20
g31
I14
I15
g22
I860
I24431
tp46
a(g18
g19
g20
g31
I15
I16
g22
I701
I24431
tp47
a(g18
g19
g20
g31
I16
I17
g22
I790
I24431
tp48
a(g18
g19
g20
g31
I17
I18
g22
I660
I24431
tp49
a(g18
g19
g20
g31
I18
I19
g22
I580
I24431
tp50
a(g18
g19
g20
g31
I19
I20
g22
I640
I24431
tp51
a(g18
g19
g20
g31
I20
I21
g22
I600
I24431
tp52
a(g18
g19
g20
g31
I21
I22
g22
I2170
I24431
tp53
a(g18
g19
g20
g31
I22
I23
g22
I680
I24431
tp54
a(g18
g19
g20
g31
I23
I24
g22
I710
I24431
tp55
a(g18
g19
g20
g31
I24
I25
g22
I780
I24431
tp56
a(g18
g19
S'letter'
p57
g21
I0
S'a'
g22
I1411
I6588
tp58
a(g18
g19
g57
g21
I1
S'b'
g22
I880
I6588
tp59
a(g18
g19
g57
g21
I2
S'c'
g22
I550
I6588
tp60
a(g18
g19
g57
g21
I3
S'd'
g22
I920
I6588
tp61
a(g18
g19
g57
g21
I4
S'e'
g22
I550
I6588
tp62
a(g18
g19
g57
g21
I5
S'f'
g22
I540
I6588
tp63
a(g18
g19
g57
g21
I6
S'g'
g22
I310
I6588
tp64
a(g18
g19
g57
g21
I7
S'h'
g22
I700
I6588
tp65
a(g18
g19
g57
g31
I0
S'a'
g22
I3791
I36423
tp66
a(g18
g19
g57
g31
I1
S'b'
g22
I3700
I36423
tp67
a(g18
g19
g57
g31
I2
S'c'
g22
I970
I36423
tp68
a(g18
g19
g57
g31
I3
S'd'
g22
I950
I36423
tp69
a(g18
g19
g57
g31
I4
S'e'
g22
I860
I36423
tp70
a(g18
g19
g57
g31
I5
S'f'
g22
I900
I36423
tp71
a(g18
g19
g57
g31
I6
S'g'
g22
I950
I36423
tp72
a(g18
g19
g57
g31
I7
S'h'
g22
I870
I36423
tp73
a(g18
g19
g57
g31
I8
S'i'
g22
I870
I36423
tp74
a(g18
g19
g57
g31
I9
S'j'
g22
I950
I36423
tp75
a(g18
g19
g57
g31
I10
S'k'
g22
I980
I36423
tp76
a(g18
g19
g57
g31
I11
S'l'
g22
I850
I36423
tp77
a(g18
g19
g57
g31
I12
S'm'
g22
I840
I36423
tp78
a(g18
g19
g57
g31
I13
S'n'
g22
I740
I36423
tp79
a(g18
g19
g57
g31
I14
S'p'
S'Incorrect'
p80
I1450
I36423
tp81
a(g18
g19
g57
g31
I15
S'p'
g80
I1351
I36423
tp82
a(g18
g19
g57
g31
I16
S'o'
g22
I6170
I36423
tp83
a(g18
g19
g57
g31
I17
S'p'
g22
I860
I36423
tp84
a(g18
g19
g57
g31
I18
S'q'
g22
I940
I36423
tp85
a(g18
g19
g57
g31
I19
S'r'
g22
I590
I36423
tp86
a(g18
g19
g57
g31
I20
S's'
g22
I570
I36423
tp87
a(g18
g19
g57
g31
I21
S't'
g22
I680
I36423
tp88
a(g18
g19
g57
g31
I22
S'u'
g22
I910
I36423
tp89
a(g18
g19
g57
g31
I23
S'v'
g22
I680
I36423
tp90
a(g18
g19
g57
g31
I24
S'w'
g22
I650
I36423
tp91
a(g18
g19
g57
g31
I25
S'x'
g22
I1740
I36423
tp92
a(g18
g19
g57
g31
I26
S'y'
g22
I810
I36423
tp93
a(g18
g19
S'number-letter'
p94
g21
I0
I1
g22
I1940
I8267
tp95
a(g18
g19
g94
g21
I1
S'a'
g22
I720
I8267
tp96
a(g18
g19
g94
g21
I2
I2
g22
I1100
I8267
tp97
a(g18
g19
g94
g21
I3
S'b'
g22
I911
I8267
tp98
a(g18
g19
g94
g21
I4
I3
g22
I770
I8267
tp99
a(g18
g19
g94
g21
I5
S'c'
g22
I910
I8267
tp100
a(g18
g19
g94
g21
I6
I4
g22
I1250
I8267
tp101
a(g18
g19
g94
g21
I7
S'd'
g22
I620
I8267
tp102
a(g18
g19
g94
g31
I0
I1
g22
I3530
I35059
tp103
a(g18
g19
g94
g31
I1
S'a'
g22
I920
I35059
tp104
a(g18
g19
g94
g31
I2
I2
g22
I1131
I35059
tp105
a(g18
g19
g94
g31
I3
S'b'
g22
I1060
I35059
tp106
a(g18
g19
g94
g31
I4
I3
g22
I740
I35059
tp107
a(g18
g19
g94
g31
I5
S'c'
g22
I670
I35059
tp108
a(g18
g19
g94
g31
I6
I4
g22
I620
I35059
tp109
a(g18
g19
g94
g31
I7
S'd'
g22
I590
I35059
tp110
a(g18
g19
g94
g31
I8
I5
g22
I1360
I35059
tp111
a(g18
g19
g94
g31
I9
S'e'
g22
I1050
I35059
tp112
a(g18
g19
g94
g31
I10
I6
g22
I1950
I35059
tp113
a(g18
g19
g94
g31
I11
S'f'
g22
I1420
I35059
tp114
a(g18
g19
g94
g31
I12
I7
g22
I2440
I35059
tp115
a(g18
g19
g94
g31
I13
S'g'
g22
I3510
I35059
tp116
a(g18
g19
g94
g31
I14
I8
g22
I3761
I35059
tp117
a(g18
g19
g94
g31
I15
S'h'
g22
I1490
I35059
tp118
a(g18
g19
g94
g31
I16
I9
g22
I780
I35059
tp119
a(g18
g19
g94
g31
I17
S'i'
g22
I1260
I35059
tp120
a(g18
g19
g94
g31
I18
I10
g22
I580
I35059
tp121
a(g18
g19
g94
g31
I19
S'j'
g22
I950
I35059
tp122
a(g18
g19
g94
g31
I20
I11
g22
I790
I35059
tp123
a(g18
g19
g94
g31
I21
S'k'
g22
I1050
I35059
tp124
a(g18
g19
g94
g31
I22
I12
g22
I1860
I35059
tp125
a(g18
g19
g94
g31
I23
S'l'
g22
I760
I35059
tp126
a(g18
g19
g94
g31
I24
I13
g22
I680
I35059
tp127
asS'output_format'
p128
(lp129
(S'proband_id'
p130
c__builtin__
str
p131
tp132
a(S'test_name'
p133
g131
tp134
a(S'phase'
p135
g131
tp136
a(S'trial_type'
p137
g131
tp138
a(S'n'
c__builtin__
int
p139
tp140
a(S'rsp'
p141
g131
tp142
a(S'corr'
p143
g131
tp144
a(S'rt'
p145
g139
tp146
a(S'total_time'
p147
g139
tp148
asg130
g18
sS'filename'
p149
S'4434_ctrails.data'
p150
sS'initialised'
p151
g8
(S'\x07\xdf\x08\x03\r\x159\x01\xcc\xf0'
tRp152
sS'last_udated'
p153
g8
(S'\x07\xdf\x08\x03\r\x159\x01\xcc\xf0'
tRp154
sg133
S'ctrails'
p155
sS'directory'
p156
S'C:\\Users\\oleach\\Charlie-master\\Charlie-master\\charlie\\data\\raw'
p157
sS'user_id'
p158
S'oleach'
p159
sS'test_started'
p160
I01
sS'abs_filename'
p161
S'C:\\Users\\oleach\\Charlie-master\\Charlie-master\\charlie\\data\\raw\\4434_ctrails.data'
p162
sS'date_started'
p163
g8
(S'\x07\xdf\x08\x03\r\x16\x19\x00.\xe0'
tRp164
sS'log'
p165
(lp166
(S'2015-08-03 13:21:57.118000'
S'instance created'
p167
tp168
a(S'2015-08-03 13:22:25.021000'
S'instance updated'
p169
tp170
a(S'2015-08-03 13:22:25.031000'
S'pandas DataFrame of data created'
p171
tp172
a(S'2015-08-03 13:22:25.035000'
S'data saved as csv to C:\\Users\\oleach\\Charlie-master\\Charlie-master\\charlie\\data\\csv\\4434_ctrails.csv'
tp173
a(S'2015-08-03 13:22:57.882000'
g169
tp174
a(S'2015-08-03 13:22:57.891000'
g171
tp175
a(S'2015-08-03 13:22:57.895000'
S'data saved as csv to C:\\Users\\oleach\\Charlie-master\\Charlie-master\\charlie\\data\\csv\\4434_ctrails.csv'
tp176
a(S'2015-08-03 13:23:13.931000'
g169
tp177
a(S'2015-08-03 13:23:13.942000'
g171
tp178
a(S'2015-08-03 13:23:13.946000'
S'data saved as csv to C:\\Users\\oleach\\Charlie-master\\Charlie-master\\charlie\\data\\csv\\4434_ctrails.csv'
tp179
a(S'2015-08-03 13:23:58.377000'
g169
tp180
a(S'2015-08-03 13:23:58.387000'
g171
tp181
a(S'2015-08-03 13:23:58.391000'
S'data saved as csv to C:\\Users\\oleach\\Charlie-master\\Charlie-master\\charlie\\data\\csv\\4434_ctrails.csv'
tp182
a(S'2015-08-03 13:24:21.913000'
g169
tp183
a(S'2015-08-03 13:24:21.923000'
g171
tp184
a(S'2015-08-03 13:24:21.927000'
S'data saved as csv to C:\\Users\\oleach\\Charlie-master\\Charlie-master\\charlie\\data\\csv\\4434_ctrails.csv'
tp185
a(S'2015-08-03 13:25:04.725000'
g169
tp186
a(S'2015-08-03 13:25:04.735000'
g171
tp187
a(S'2015-08-03 13:25:04.739000'
S'data saved as csv to C:\\Users\\oleach\\Charlie-master\\Charlie-master\\charlie\\data\\csv\\4434_ctrails.csv'
tp188
asb.