(icharlie.tools.data
Data
p1
(dp2
S'lang'
p3
S'EN'
p4
sS'control'
p5
(lp6
sS'last_updated'
p7
cdatetime
datetime
p8
(S'\x07\xdf\x08\x03\t2\x19\x0f\x0fx'
tRp9
sS'last_opened'
p10
g8
(S'\x07\xdf\x08\x03\t/\x14\x01\xb5\x80'
tRp11
sS'proj_id'
p12
S'connectivity'
p13
sS'date_done'
p14
NsS'test_done'
p15
I01
sS'data'
p16
(lp17
(S'4434'
p18
S'digit_symbol'
p19
S'practice'
p20
I0
I2
I2
S'Yes'
p21
S'C:\\Users\\oleach\\Charlie-master\\Charlie-master\\charlie\\stimuli\\visual\\digit_symbol\\sym2.bmp'
g21
I4681
tp22
a(g18
g19
g20
I1
I6
I6
g21
S'C:\\Users\\oleach\\Charlie-master\\Charlie-master\\charlie\\stimuli\\visual\\digit_symbol\\sym6.bmp'
g21
I1940
tp23
a(g18
g19
g20
I2
I8
I4
S'No'
p24
S'C:\\Users\\oleach\\Charlie-master\\Charlie-master\\charlie\\stimuli\\visual\\digit_symbol\\sym4.bmp'
g24
I1710
tp25
a(g18
g19
g20
I3
I4
I4
g21
S'C:\\Users\\oleach\\Charlie-master\\Charlie-master\\charlie\\stimuli\\visual\\digit_symbol\\sym4.bmp'
g21
I1490
tp26
a(g18
g19
g20
I4
I7
I7
g21
S'C:\\Users\\oleach\\Charlie-master\\Charlie-master\\charlie\\stimuli\\visual\\digit_symbol\\sym7.bmp'
g21
I1450
tp27
a(g18
g19
g20
I5
I6
I5
g24
S'C:\\Users\\oleach\\Charlie-master\\Charlie-master\\charlie\\stimuli\\visual\\digit_symbol\\sym5.bmp'
g21
I2070
tp28
a(g18
g19
g20
I6
I2
I8
g24
S'C:\\Users\\oleach\\Charlie-master\\Charlie-master\\charlie\\stimuli\\visual\\digit_symbol\\sym8.bmp'
g24
I3460
tp29
a(g18
g19
g20
I7
I9
I2
g24
S'C:\\Users\\oleach\\Charlie-master\\Charlie-master\\charlie\\stimuli\\visual\\digit_symbol\\sym2.bmp'
g24
I1770
tp30
a(g18
g19
g20
I8
I3
I7
g24
S'C:\\Users\\oleach\\Charlie-master\\Charlie-master\\charlie\\stimuli\\visual\\digit_symbol\\sym7.bmp'
g24
I1550
tp31
a(g18
g19
g20
I9
I5
I6
g24
S'C:\\Users\\oleach\\Charlie-master\\Charlie-master\\charlie\\stimuli\\visual\\digit_symbol\\sym6.bmp'
g24
I2020
tp32
a(g18
g19
S'test'
p33
I0
I8
I8
g21
S'C:\\Users\\oleach\\Charlie-master\\Charlie-master\\charlie\\stimuli\\visual\\digit_symbol\\sym8.bmp'
g21
I1706
tp34
a(g18
g19
g33
I1
I1
I4
g24
S'C:\\Users\\oleach\\Charlie-master\\Charlie-master\\charlie\\stimuli\\visual\\digit_symbol\\sym4.bmp'
g24
I1904
tp35
a(g18
g19
g33
I2
I2
I8
g24
S'C:\\Users\\oleach\\Charlie-master\\Charlie-master\\charlie\\stimuli\\visual\\digit_symbol\\sym8.bmp'
g24
I1403
tp36
a(g18
g19
g33
I3
I6
I2
g24
S'C:\\Users\\oleach\\Charlie-master\\Charlie-master\\charlie\\stimuli\\visual\\digit_symbol\\sym2.bmp'
g24
I1603
tp37
a(g18
g19
g33
I4
I4
I4
g21
S'C:\\Users\\oleach\\Charlie-master\\Charlie-master\\charlie\\stimuli\\visual\\digit_symbol\\sym4.bmp'
g21
I1003
tp38
a(g18
g19
g33
I5
I9
I5
g24
S'C:\\Users\\oleach\\Charlie-master\\Charlie-master\\charlie\\stimuli\\visual\\digit_symbol\\sym5.bmp'
g24
I2003
tp39
a(g18
g19
g33
I6
I5
I6
g24
S'C:\\Users\\oleach\\Charlie-master\\Charlie-master\\charlie\\stimuli\\visual\\digit_symbol\\sym6.bmp'
g24
I1603
tp40
a(g18
g19
g33
I7
I3
I3
g21
S'C:\\Users\\oleach\\Charlie-master\\Charlie-master\\charlie\\stimuli\\visual\\digit_symbol\\sym3.bmp'
g21
I1203
tp41
a(g18
g19
g33
I8
I4
I4
g21
S'C:\\Users\\oleach\\Charlie-master\\Charlie-master\\charlie\\stimuli\\visual\\digit_symbol\\sym4.bmp'
g21
I1203
tp42
a(g18
g19
g33
I9
I9
I9
g21
S'C:\\Users\\oleach\\Charlie-master\\Charlie-master\\charlie\\stimuli\\visual\\digit_symbol\\sym9.bmp'
g21
I1303
tp43
a(g18
g19
g33
I10
I6
I6
g21
S'C:\\Users\\oleach\\Charlie-master\\Charlie-master\\charlie\\stimuli\\visual\\digit_symbol\\sym6.bmp'
g21
I1103
tp44
a(g18
g19
g33
I11
I1
I1
g21
S'C:\\Users\\oleach\\Charlie-master\\Charlie-master\\charlie\\stimuli\\visual\\digit_symbol\\sym1.bmp'
g21
I1103
tp45
a(g18
g19
g33
I12
I2
I2
g21
S'C:\\Users\\oleach\\Charlie-master\\Charlie-master\\charlie\\stimuli\\visual\\digit_symbol\\sym2.bmp'
g21
I1103
tp46
a(g18
g19
g33
I13
I7
I7
g21
S'C:\\Users\\oleach\\Charlie-master\\Charlie-master\\charlie\\stimuli\\visual\\digit_symbol\\sym7.bmp'
g21
I1203
tp47
a(g18
g19
g33
I14
I3
I3
g21
S'C:\\Users\\oleach\\Charlie-master\\Charlie-master\\charlie\\stimuli\\visual\\digit_symbol\\sym3.bmp'
g21
I1303
tp48
a(g18
g19
g33
I15
I8
I8
g21
S'C:\\Users\\oleach\\Charlie-master\\Charlie-master\\charlie\\stimuli\\visual\\digit_symbol\\sym8.bmp'
g21
I1203
tp49
a(g18
g19
g33
I16
I7
I7
g21
S'C:\\Users\\oleach\\Charlie-master\\Charlie-master\\charlie\\stimuli\\visual\\digit_symbol\\sym7.bmp'
g21
I2504
tp50
a(g18
g19
g33
I17
I5
I3
g24
S'C:\\Users\\oleach\\Charlie-master\\Charlie-master\\charlie\\stimuli\\visual\\digit_symbol\\sym3.bmp'
g24
I1403
tp51
a(g18
g19
g33
I18
I1
I5
g24
S'C:\\Users\\oleach\\Charlie-master\\Charlie-master\\charlie\\stimuli\\visual\\digit_symbol\\sym5.bmp'
g24
I1403
tp52
a(g18
g19
g33
I19
I4
I4
g21
S'C:\\Users\\oleach\\Charlie-master\\Charlie-master\\charlie\\stimuli\\visual\\digit_symbol\\sym4.bmp'
g21
I1203
tp53
a(g18
g19
g33
I20
I7
I8
g24
S'C:\\Users\\oleach\\Charlie-master\\Charlie-master\\charlie\\stimuli\\visual\\digit_symbol\\sym8.bmp'
g24
I1603
tp54
a(g18
g19
g33
I21
I4
I4
g21
S'C:\\Users\\oleach\\Charlie-master\\Charlie-master\\charlie\\stimuli\\visual\\digit_symbol\\sym4.bmp'
g21
I1204
tp55
a(g18
g19
g33
I22
I8
I8
g21
S'C:\\Users\\oleach\\Charlie-master\\Charlie-master\\charlie\\stimuli\\visual\\digit_symbol\\sym8.bmp'
g21
I1703
tp56
a(g18
g19
g33
I23
I3
I3
g21
S'C:\\Users\\oleach\\Charlie-master\\Charlie-master\\charlie\\stimuli\\visual\\digit_symbol\\sym3.bmp'
g21
I1203
tp57
a(g18
g19
g33
I24
I5
I5
g21
S'C:\\Users\\oleach\\Charlie-master\\Charlie-master\\charlie\\stimuli\\visual\\digit_symbol\\sym5.bmp'
g21
I1304
tp58
a(g18
g19
g33
I25
I3
I1
g24
S'C:\\Users\\oleach\\Charlie-master\\Charlie-master\\charlie\\stimuli\\visual\\digit_symbol\\sym1.bmp'
g24
I1303
tp59
a(g18
g19
g33
I26
I6
I9
g24
S'C:\\Users\\oleach\\Charlie-master\\Charlie-master\\charlie\\stimuli\\visual\\digit_symbol\\sym9.bmp'
g24
I2003
tp60
a(g18
g19
g33
I27
I2
I2
g21
S'C:\\Users\\oleach\\Charlie-master\\Charlie-master\\charlie\\stimuli\\visual\\digit_symbol\\sym2.bmp'
g21
I1103
tp61
a(g18
g19
g33
I28
I8
I8
g21
S'C:\\Users\\oleach\\Charlie-master\\Charlie-master\\charlie\\stimuli\\visual\\digit_symbol\\sym8.bmp'
g21
I1204
tp62
a(g18
g19
g33
I29
I9
I2
g24
S'C:\\Users\\oleach\\Charlie-master\\Charlie-master\\charlie\\stimuli\\visual\\digit_symbol\\sym2.bmp'
g24
I1303
tp63
a(g18
g19
g33
I30
I1
I6
g24
S'C:\\Users\\oleach\\Charlie-master\\Charlie-master\\charlie\\stimuli\\visual\\digit_symbol\\sym6.bmp'
g24
I1203
tp64
a(g18
g19
g33
I31
I5
I4
g24
S'C:\\Users\\oleach\\Charlie-master\\Charlie-master\\charlie\\stimuli\\visual\\digit_symbol\\sym4.bmp'
g24
I1303
tp65
a(g18
g19
g33
I32
I6
I6
g21
S'C:\\Users\\oleach\\Charlie-master\\Charlie-master\\charlie\\stimuli\\visual\\digit_symbol\\sym6.bmp'
g21
I1403
tp66
a(g18
g19
g33
I33
I2
I2
g21
S'C:\\Users\\oleach\\Charlie-master\\Charlie-master\\charlie\\stimuli\\visual\\digit_symbol\\sym2.bmp'
g21
I1303
tp67
a(g18
g19
g33
I34
I9
I9
g21
S'C:\\Users\\oleach\\Charlie-master\\Charlie-master\\charlie\\stimuli\\visual\\digit_symbol\\sym9.bmp'
g21
I1203
tp68
a(g18
g19
g33
I35
I7
I7
g21
S'C:\\Users\\oleach\\Charlie-master\\Charlie-master\\charlie\\stimuli\\visual\\digit_symbol\\sym7.bmp'
g21
I1303
tp69
a(g18
g19
g33
I36
I3
I3
g21
S'C:\\Users\\oleach\\Charlie-master\\Charlie-master\\charlie\\stimuli\\visual\\digit_symbol\\sym3.bmp'
g21
I1104
tp70
a(g18
g19
g33
I37
I1
I8
g24
S'C:\\Users\\oleach\\Charlie-master\\Charlie-master\\charlie\\stimuli\\visual\\digit_symbol\\sym8.bmp'
g24
I1102
tp71
a(g18
g19
g33
I38
I6
I6
g21
S'C:\\Users\\oleach\\Charlie-master\\Charlie-master\\charlie\\stimuli\\visual\\digit_symbol\\sym6.bmp'
g21
I1303
tp72
a(g18
g19
g33
I39
I7
I7
g21
S'C:\\Users\\oleach\\Charlie-master\\Charlie-master\\charlie\\stimuli\\visual\\digit_symbol\\sym7.bmp'
g21
I1603
tp73
a(g18
g19
g33
I40
I9
I5
g24
S'C:\\Users\\oleach\\Charlie-master\\Charlie-master\\charlie\\stimuli\\visual\\digit_symbol\\sym5.bmp'
g24
I1303
tp74
a(g18
g19
g33
I41
I7
I9
g24
S'C:\\Users\\oleach\\Charlie-master\\Charlie-master\\charlie\\stimuli\\visual\\digit_symbol\\sym9.bmp'
g24
I1303
tp75
a(g18
g19
g33
I42
I5
I7
g24
S'C:\\Users\\oleach\\Charlie-master\\Charlie-master\\charlie\\stimuli\\visual\\digit_symbol\\sym7.bmp'
g24
I1403
tp76
a(g18
g19
g33
I43
I2
I2
g21
S'C:\\Users\\oleach\\Charlie-master\\Charlie-master\\charlie\\stimuli\\visual\\digit_symbol\\sym2.bmp'
g21
I1203
tp77
a(g18
g19
g33
I44
I1
I1
g21
S'C:\\Users\\oleach\\Charlie-master\\Charlie-master\\charlie\\stimuli\\visual\\digit_symbol\\sym1.bmp'
g21
I1003
tp78
a(g18
g19
g33
I45
I6
I4
g24
S'C:\\Users\\oleach\\Charlie-master\\Charlie-master\\charlie\\stimuli\\visual\\digit_symbol\\sym4.bmp'
g24
I1303
tp79
a(g18
g19
g33
I46
I8
I3
g24
S'C:\\Users\\oleach\\Charlie-master\\Charlie-master\\charlie\\stimuli\\visual\\digit_symbol\\sym3.bmp'
g24
I1303
tp80
a(g18
g19
g33
I47
I2
I2
g21
S'C:\\Users\\oleach\\Charlie-master\\Charlie-master\\charlie\\stimuli\\visual\\digit_symbol\\sym2.bmp'
g21
I1203
tp81
a(g18
g19
g33
I48
I4
I4
g21
S'C:\\Users\\oleach\\Charlie-master\\Charlie-master\\charlie\\stimuli\\visual\\digit_symbol\\sym4.bmp'
g21
I1203
tp82
a(g18
g19
g33
I49
I9
I1
g24
S'C:\\Users\\oleach\\Charlie-master\\Charlie-master\\charlie\\stimuli\\visual\\digit_symbol\\sym1.bmp'
g24
I1504
tp83
a(g18
g19
g33
I50
I4
I4
g21
S'C:\\Users\\oleach\\Charlie-master\\Charlie-master\\charlie\\stimuli\\visual\\digit_symbol\\sym4.bmp'
g21
I1103
tp84
a(g18
g19
g33
I51
I5
I5
g21
S'C:\\Users\\oleach\\Charlie-master\\Charlie-master\\charlie\\stimuli\\visual\\digit_symbol\\sym5.bmp'
g21
I1103
tp85
a(g18
g19
g33
I52
I3
I3
g21
S'C:\\Users\\oleach\\Charlie-master\\Charlie-master\\charlie\\stimuli\\visual\\digit_symbol\\sym3.bmp'
g21
I1003
tp86
a(g18
g19
g33
I53
I8
I8
g21
S'C:\\Users\\oleach\\Charlie-master\\Charlie-master\\charlie\\stimuli\\visual\\digit_symbol\\sym8.bmp'
g21
I1203
tp87
a(g18
g19
g33
I54
I9
I9
g21
S'C:\\Users\\oleach\\Charlie-master\\Charlie-master\\charlie\\stimuli\\visual\\digit_symbol\\sym9.bmp'
g24
I1103
tp88
a(g18
g19
g33
I55
I7
I7
g21
S'C:\\Users\\oleach\\Charlie-master\\Charlie-master\\charlie\\stimuli\\visual\\digit_symbol\\sym7.bmp'
g21
I2003
tp89
a(g18
g19
g33
I56
I3
I1
g24
S'C:\\Users\\oleach\\Charlie-master\\Charlie-master\\charlie\\stimuli\\visual\\digit_symbol\\sym1.bmp'
g24
I1303
tp90
a(g18
g19
g33
I57
I9
I7
g24
S'C:\\Users\\oleach\\Charlie-master\\Charlie-master\\charlie\\stimuli\\visual\\digit_symbol\\sym7.bmp'
g24
I1403
tp91
a(g18
g19
g33
I58
I1
I8
g24
S'C:\\Users\\oleach\\Charlie-master\\Charlie-master\\charlie\\stimuli\\visual\\digit_symbol\\sym8.bmp'
g24
I1203
tp92
a(g18
g19
g33
I59
I8
I9
g24
S'C:\\Users\\oleach\\Charlie-master\\Charlie-master\\charlie\\stimuli\\visual\\digit_symbol\\sym9.bmp'
g24
I1203
tp93
a(g18
g19
g33
I60
I4
I2
g24
S'C:\\Users\\oleach\\Charlie-master\\Charlie-master\\charlie\\stimuli\\visual\\digit_symbol\\sym2.bmp'
g24
I1203
tp94
a(g18
g19
g33
I61
I2
I6
g24
S'C:\\Users\\oleach\\Charlie-master\\Charlie-master\\charlie\\stimuli\\visual\\digit_symbol\\sym6.bmp'
g24
I1303
tp95
asS'output_format'
p96
(lp97
(S'proband_id'
p98
c__builtin__
str
p99
tp100
a(S'test_name'
p101
g99
tp102
a(S'phase'
p103
g99
tp104
a(S'trialn'
p105
c__builtin__
int
p106
tp107
a(S'digit'
p108
g106
tp109
a(S'symbol'
p110
g106
tp111
a(S'ans'
p112
g99
tp113
a(S'f'
g99
tp114
a(S'rsp'
p115
g99
tp116
a(S'rt'
p117
g106
tp118
asg98
g18
sS'filename'
p119
S'4434_digit_symbol.data'
p120
sS'initialised'
p121
g8
(S'\x07\xdf\x08\x03\t/\x14\x01\xb5\x80'
tRp122
sS'last_udated'
p123
g8
(S'\x07\xdf\x08\x03\t/\x14\x01\xb5\x80'
tRp124
sg101
S'digit_symbol'
p125
sS'directory'
p126
S'C:\\Users\\oleach\\Charlie-master\\Charlie-master\\charlie\\data\\raw'
p127
sS'user_id'
p128
S'oleach'
p129
sS'test_started'
p130
I01
sS'abs_filename'
p131
S'C:\\Users\\oleach\\Charlie-master\\Charlie-master\\charlie\\data\\raw\\4434_digit_symbol.data'
p132
sS'date_started'
p133
g8
(S'\x07\xdf\x08\x03\t0\x08\x04\x1a\xc8'
tRp134
sS'log'
p135
(lp136
(S'2015-08-03 09:47:20.112000'
S'instance created'
p137
tp138
a(S'2015-08-03 09:48:08.278000'
S'instance updated'
p139
tp140
a(S'2015-08-03 09:48:08.287000'
S'pandas DataFrame of data created'
p141
tp142
a(S'2015-08-03 09:48:08.292000'
S'data saved as csv to C:\\Users\\oleach\\Charlie-master\\Charlie-master\\charlie\\data\\csv\\4434_digit_symbol.csv'
tp143
a(S'2015-08-03 09:48:11.260000'
g139
tp144
a(S'2015-08-03 09:48:11.270000'
g141
tp145
a(S'2015-08-03 09:48:11.274000'
S'data saved as csv to C:\\Users\\oleach\\Charlie-master\\Charlie-master\\charlie\\data\\csv\\4434_digit_symbol.csv'
tp146
a(S'2015-08-03 09:48:14.011000'
g139
tp147
a(S'2015-08-03 09:48:14.021000'
g141
tp148
a(S'2015-08-03 09:48:14.025000'
S'data saved as csv to C:\\Users\\oleach\\Charlie-master\\Charlie-master\\charlie\\data\\csv\\4434_digit_symbol.csv'
tp149
a(S'2015-08-03 09:48:16.544000'
g139
tp150
a(S'2015-08-03 09:48:16.554000'
g141
tp151
a(S'2015-08-03 09:48:16.558000'
S'data saved as csv to C:\\Users\\oleach\\Charlie-master\\Charlie-master\\charlie\\data\\csv\\4434_digit_symbol.csv'
tp152
a(S'2015-08-03 09:48:19.036000'
g139
tp153
a(S'2015-08-03 09:48:19.047000'
g141
tp154
a(S'2015-08-03 09:48:19.051000'
S'data saved as csv to C:\\Users\\oleach\\Charlie-master\\Charlie-master\\charlie\\data\\csv\\4434_digit_symbol.csv'
tp155
a(S'2015-08-03 09:48:22.160000'
g139
tp156
a(S'2015-08-03 09:48:22.170000'
g141
tp157
a(S'2015-08-03 09:48:22.174000'
S'data saved as csv to C:\\Users\\oleach\\Charlie-master\\Charlie-master\\charlie\\data\\csv\\4434_digit_symbol.csv'
tp158
a(S'2015-08-03 09:48:26.664000'
g139
tp159
a(S'2015-08-03 09:48:26.674000'
g141
tp160
a(S'2015-08-03 09:48:26.678000'
S'data saved as csv to C:\\Users\\oleach\\Charlie-master\\Charlie-master\\charlie\\data\\csv\\4434_digit_symbol.csv'
tp161
a(S'2015-08-03 09:48:29.475000'
g139
tp162
a(S'2015-08-03 09:48:29.485000'
g141
tp163
a(S'2015-08-03 09:48:29.489000'
S'data saved as csv to C:\\Users\\oleach\\Charlie-master\\Charlie-master\\charlie\\data\\csv\\4434_digit_symbol.csv'
tp164
a(S'2015-08-03 09:48:32.067000'
g139
tp165
a(S'2015-08-03 09:48:32.077000'
g141
tp166
a(S'2015-08-03 09:48:32.081000'
S'data saved as csv to C:\\Users\\oleach\\Charlie-master\\Charlie-master\\charlie\\data\\csv\\4434_digit_symbol.csv'
tp167
a(S'2015-08-03 09:48:35.129000'
g139
tp168
a(S'2015-08-03 09:48:35.139000'
g141
tp169
a(S'2015-08-03 09:48:35.143000'
S'data saved as csv to C:\\Users\\oleach\\Charlie-master\\Charlie-master\\charlie\\data\\csv\\4434_digit_symbol.csv'
tp170
a(S'2015-08-03 09:50:25.969000'
g139
tp171
a(S'2015-08-03 09:50:25.980000'
g141
tp172
a(S'2015-08-03 09:50:25.986000'
S'data saved as csv to C:\\Users\\oleach\\Charlie-master\\Charlie-master\\charlie\\data\\csv\\4434_digit_symbol.csv'
tp173
asb.