(icharlie.tools.data
Data
p1
(dp2
S'lang'
p3
S'EN'
p4
sS'control'
p5
(lp6
sS'last_updated'
p7
cdatetime
datetime
p8
(S'\x07\xdf\x08\x04\n"\x06\x04*h'
tRp9
sS'last_opened'
p10
g8
(S'\x07\xdf\x08\x04\n\x1b(\x06\xfd\x10'
tRp11
sS'proj_id'
p12
S'connectivity'
p13
sS'date_done'
p14
NsS'test_done'
p15
I01
sS'data'
p16
(lp17
(S'4435'
p18
S'scap'
p19
S'practice'
p20
I3
I0
S'Yes'
p21
S'c:\\Charlie\\charlie\\stimuli\\visual\\scap\\practice-1.BMP'
S'c:\\Charlie\\charlie\\stimuli\\visual\\scap\\practice-2.BMP'
g21
I7670
tp22
a(g18
g19
g20
I4
I1
S'No'
p23
S'c:\\Charlie\\charlie\\stimuli\\visual\\scap\\practice-3.BMP'
S'c:\\Charlie\\charlie\\stimuli\\visual\\scap\\practice-4.BMP'
g21
I2201
tp24
a(g18
g19
g20
I5
I2
g21
S'c:\\Charlie\\charlie\\stimuli\\visual\\scap\\practice-5.BMP'
S'c:\\Charlie\\charlie\\stimuli\\visual\\scap\\practice-6.BMP'
g21
I960
tp25
a(g18
g19
S'test'
p26
I3
I0
g21
S'c:\\Charlie\\charlie\\stimuli\\visual\\scap\\load3-1.BMP'
S'c:\\Charlie\\charlie\\stimuli\\visual\\scap\\load3-2.BMP'
g21
I1000
tp27
a(g18
g19
g26
I3
I1
g23
S'c:\\Charlie\\charlie\\stimuli\\visual\\scap\\load3-3.BMP'
S'c:\\Charlie\\charlie\\stimuli\\visual\\scap\\load3-4.BMP'
g23
I1180
tp28
a(g18
g19
g26
I3
I2
g21
S'c:\\Charlie\\charlie\\stimuli\\visual\\scap\\load3-5.BMP'
S'c:\\Charlie\\charlie\\stimuli\\visual\\scap\\load3-6.BMP'
g21
I990
tp29
a(g18
g19
g26
I3
I3
g21
S'c:\\Charlie\\charlie\\stimuli\\visual\\scap\\load3-7.BMP'
S'c:\\Charlie\\charlie\\stimuli\\visual\\scap\\load3-8.BMP'
g23
I1310
tp30
a(g18
g19
g26
I3
I4
g23
S'c:\\Charlie\\charlie\\stimuli\\visual\\scap\\load3-9.BMP'
S'c:\\Charlie\\charlie\\stimuli\\visual\\scap\\load3-10.BMP'
g23
I1300
tp31
a(g18
g19
g26
I3
I5
g21
S'c:\\Charlie\\charlie\\stimuli\\visual\\scap\\load3-11.BMP'
S'c:\\Charlie\\charlie\\stimuli\\visual\\scap\\load3-12.BMP'
g21
I1420
tp32
a(g18
g19
g26
I3
I6
g23
S'c:\\Charlie\\charlie\\stimuli\\visual\\scap\\load3-13.BMP'
S'c:\\Charlie\\charlie\\stimuli\\visual\\scap\\load3-14.BMP'
g23
I1270
tp33
a(g18
g19
g26
I3
I7
g23
S'c:\\Charlie\\charlie\\stimuli\\visual\\scap\\load3-15.BMP'
S'c:\\Charlie\\charlie\\stimuli\\visual\\scap\\load3-16.BMP'
g23
I2150
tp34
a(g18
g19
g26
I3
I8
g21
S'c:\\Charlie\\charlie\\stimuli\\visual\\scap\\load3-17.BMP'
S'c:\\Charlie\\charlie\\stimuli\\visual\\scap\\load3-18.BMP'
g21
I1270
tp35
a(g18
g19
g26
I3
I9
g23
S'c:\\Charlie\\charlie\\stimuli\\visual\\scap\\load3-19.BMP'
S'c:\\Charlie\\charlie\\stimuli\\visual\\scap\\load3-20.BMP'
g23
I920
tp36
a(g18
g19
g26
I3
I10
g21
S'c:\\Charlie\\charlie\\stimuli\\visual\\scap\\load3-21.BMP'
S'c:\\Charlie\\charlie\\stimuli\\visual\\scap\\load3-22.BMP'
g21
I1270
tp37
a(g18
g19
g26
I3
I11
g21
S'c:\\Charlie\\charlie\\stimuli\\visual\\scap\\load3-23.BMP'
S'c:\\Charlie\\charlie\\stimuli\\visual\\scap\\load3-24.BMP'
g21
I1320
tp38
a(g18
g19
g26
I3
I12
g23
S'c:\\Charlie\\charlie\\stimuli\\visual\\scap\\load3-25.BMP'
S'c:\\Charlie\\charlie\\stimuli\\visual\\scap\\load3-26.BMP'
g23
I1040
tp39
a(g18
g19
g26
I3
I13
g23
S'c:\\Charlie\\charlie\\stimuli\\visual\\scap\\load3-27.BMP'
S'c:\\Charlie\\charlie\\stimuli\\visual\\scap\\load3-28.BMP'
g23
I1320
tp40
a(g18
g19
g26
I4
I0
g23
S'c:\\Charlie\\charlie\\stimuli\\visual\\scap\\load4-1.BMP'
S'c:\\Charlie\\charlie\\stimuli\\visual\\scap\\load4-2.BMP'
g23
I1120
tp41
a(g18
g19
g26
I4
I1
g21
S'c:\\Charlie\\charlie\\stimuli\\visual\\scap\\load4-3.BMP'
S'c:\\Charlie\\charlie\\stimuli\\visual\\scap\\load4-4.BMP'
g21
I1241
tp42
a(g18
g19
g26
I4
I2
g21
S'c:\\Charlie\\charlie\\stimuli\\visual\\scap\\load4-5.BMP'
S'c:\\Charlie\\charlie\\stimuli\\visual\\scap\\load4-6.BMP'
g21
I1000
tp43
a(g18
g19
g26
I4
I3
g23
S'c:\\Charlie\\charlie\\stimuli\\visual\\scap\\load4-7.BMP'
S'c:\\Charlie\\charlie\\stimuli\\visual\\scap\\load4-8.BMP'
g23
I900
tp44
a(g18
g19
g26
I4
I4
g23
S'c:\\Charlie\\charlie\\stimuli\\visual\\scap\\load4-9.BMP'
S'c:\\Charlie\\charlie\\stimuli\\visual\\scap\\load4-10.BMP'
g23
I1190
tp45
a(g18
g19
g26
I4
I5
g21
S'c:\\Charlie\\charlie\\stimuli\\visual\\scap\\load4-11.BMP'
S'c:\\Charlie\\charlie\\stimuli\\visual\\scap\\load4-12.BMP'
g23
I1330
tp46
a(g18
g19
g26
I4
I6
g23
S'c:\\Charlie\\charlie\\stimuli\\visual\\scap\\load4-13.BMP'
S'c:\\Charlie\\charlie\\stimuli\\visual\\scap\\load4-14.BMP'
g23
I2440
tp47
a(g18
g19
g26
I4
I7
g21
S'c:\\Charlie\\charlie\\stimuli\\visual\\scap\\load4-15.BMP'
S'c:\\Charlie\\charlie\\stimuli\\visual\\scap\\load4-16.BMP'
g23
I7730
tp48
a(g18
g19
g26
I4
I8
g23
S'c:\\Charlie\\charlie\\stimuli\\visual\\scap\\load4-17.BMP'
S'c:\\Charlie\\charlie\\stimuli\\visual\\scap\\load4-18.BMP'
g23
I1110
tp49
a(g18
g19
g26
I4
I9
g21
S'c:\\Charlie\\charlie\\stimuli\\visual\\scap\\load4-19.BMP'
S'c:\\Charlie\\charlie\\stimuli\\visual\\scap\\load4-20.BMP'
g21
I1130
tp50
a(g18
g19
g26
I4
I10
g21
S'c:\\Charlie\\charlie\\stimuli\\visual\\scap\\load4-21.BMP'
S'c:\\Charlie\\charlie\\stimuli\\visual\\scap\\load4-22.BMP'
g21
I2610
tp51
a(g18
g19
g26
I4
I11
g23
S'c:\\Charlie\\charlie\\stimuli\\visual\\scap\\load4-23.BMP'
S'c:\\Charlie\\charlie\\stimuli\\visual\\scap\\load4-24.BMP'
g21
I2440
tp52
a(g18
g19
g26
I4
I12
g21
S'c:\\Charlie\\charlie\\stimuli\\visual\\scap\\load4-25.BMP'
S'c:\\Charlie\\charlie\\stimuli\\visual\\scap\\load4-26.BMP'
g21
I1530
tp53
a(g18
g19
g26
I4
I13
g23
S'c:\\Charlie\\charlie\\stimuli\\visual\\scap\\load4-27.BMP'
S'c:\\Charlie\\charlie\\stimuli\\visual\\scap\\load4-28.BMP'
g23
I490
tp54
a(g18
g19
g26
I5
I0
g21
S'c:\\Charlie\\charlie\\stimuli\\visual\\scap\\load5-1.BMP'
S'c:\\Charlie\\charlie\\stimuli\\visual\\scap\\load5-2.BMP'
g21
I851
tp55
a(g18
g19
g26
I5
I1
g21
S'c:\\Charlie\\charlie\\stimuli\\visual\\scap\\load5-3.BMP'
S'c:\\Charlie\\charlie\\stimuli\\visual\\scap\\load5-4.BMP'
g21
I1380
tp56
a(g18
g19
g26
I5
I2
g21
S'c:\\Charlie\\charlie\\stimuli\\visual\\scap\\load5-5.BMP'
S'c:\\Charlie\\charlie\\stimuli\\visual\\scap\\load5-6.BMP'
g21
I1130
tp57
a(g18
g19
g26
I5
I3
g21
S'c:\\Charlie\\charlie\\stimuli\\visual\\scap\\load5-7.BMP'
S'c:\\Charlie\\charlie\\stimuli\\visual\\scap\\load5-8.BMP'
g21
I880
tp58
a(g18
g19
g26
I5
I4
g21
S'c:\\Charlie\\charlie\\stimuli\\visual\\scap\\load5-9.BMP'
S'c:\\Charlie\\charlie\\stimuli\\visual\\scap\\load5-10.BMP'
g21
I750
tp59
a(g18
g19
g26
I5
I5
g21
S'c:\\Charlie\\charlie\\stimuli\\visual\\scap\\load5-11.BMP'
S'c:\\Charlie\\charlie\\stimuli\\visual\\scap\\load5-12.BMP'
g23
I1960
tp60
a(g18
g19
g26
I5
I6
g23
S'c:\\Charlie\\charlie\\stimuli\\visual\\scap\\load5-13.BMP'
S'c:\\Charlie\\charlie\\stimuli\\visual\\scap\\load5-14.BMP'
g23
I1150
tp61
a(g18
g19
g26
I5
I7
g23
S'c:\\Charlie\\charlie\\stimuli\\visual\\scap\\load5-15.BMP'
S'c:\\Charlie\\charlie\\stimuli\\visual\\scap\\load5-16.BMP'
g23
I1350
tp62
a(g18
g19
g26
I5
I8
g23
S'c:\\Charlie\\charlie\\stimuli\\visual\\scap\\load5-17.BMP'
S'c:\\Charlie\\charlie\\stimuli\\visual\\scap\\load5-18.BMP'
g21
I1160
tp63
a(g18
g19
g26
I5
I9
g23
S'c:\\Charlie\\charlie\\stimuli\\visual\\scap\\load5-19.BMP'
S'c:\\Charlie\\charlie\\stimuli\\visual\\scap\\load5-20.BMP'
g21
I1440
tp64
a(g18
g19
g26
I5
I10
g23
S'c:\\Charlie\\charlie\\stimuli\\visual\\scap\\load5-21.BMP'
S'c:\\Charlie\\charlie\\stimuli\\visual\\scap\\load5-22.BMP'
g21
I1240
tp65
a(g18
g19
g26
I5
I11
g21
S'c:\\Charlie\\charlie\\stimuli\\visual\\scap\\load5-23.BMP'
S'c:\\Charlie\\charlie\\stimuli\\visual\\scap\\load5-24.BMP'
g21
I1010
tp66
a(g18
g19
g26
I5
I12
g23
S'c:\\Charlie\\charlie\\stimuli\\visual\\scap\\load5-25.BMP'
S'c:\\Charlie\\charlie\\stimuli\\visual\\scap\\load5-26.BMP'
g23
I1060
tp67
a(g18
g19
g26
I5
I13
g23
S'c:\\Charlie\\charlie\\stimuli\\visual\\scap\\load5-27.BMP'
p68
S'c:\\Charlie\\charlie\\stimuli\\visual\\scap\\load5-28.BMP'
p69
g23
I1260
tp70
asS'output_format'
p71
(lp72
(S'proband_id'
p73
c__builtin__
str
p74
tp75
a(S'test_name'
p76
g74
tp77
a(S'phase'
p78
g74
tp79
a(S'load'
p80
c__builtin__
int
p81
tp82
a(S'trialn'
p83
g81
tp84
a(S'ans'
p85
g74
tp86
a(S'array_f'
p87
g74
tp88
a(S'probe_f'
p89
g74
tp90
a(S'rsp'
p91
g74
tp92
a(S'rt'
p93
g81
tp94
asg73
g18
sS'filename'
p95
S'4435_scap.data'
p96
sS'initialised'
p97
g8
(S'\x07\xdf\x08\x04\n\x1b(\x06\xfd\x10'
tRp98
sS'last_udated'
p99
g8
(S'\x07\xdf\x08\x04\n\x1b(\x06\xfd\x10'
tRp100
sg76
S'scap'
p101
sS'directory'
p102
S'c:\\Charlie\\charlie\\data\\raw'
p103
sS'user_id'
p104
S'sbuccheri'
p105
sS'test_started'
p106
I01
sS'abs_filename'
p107
S'c:\\Charlie\\charlie\\data\\raw\\4435_scap.data'
p108
sS'date_started'
p109
g8
(S'\x07\xdf\x08\x04\n\x1c\x12\x07\xf7\x10'
tRp110
sS'log'
p111
(lp112
(S'2015-08-04 10:27:40.458000'
S'instance created'
p113
tp114
a(S'2015-08-04 10:28:18.540000'
S'instance updated'
p115
tp116
a(S'2015-08-04 10:28:18.550000'
S'pandas DataFrame of data created'
p117
tp118
a(S'2015-08-04 10:28:18.559000'
S'data saved as csv to c:\\Charlie\\charlie\\data\\csv\\4435_scap.csv'
tp119
a(S'2015-08-04 10:28:27.795000'
g115
tp120
a(S'2015-08-04 10:28:27.805000'
g117
tp121
a(S'2015-08-04 10:28:27.809000'
S'data saved as csv to c:\\Charlie\\charlie\\data\\csv\\4435_scap.csv'
tp122
a(S'2015-08-04 10:28:35.808000'
g115
tp123
a(S'2015-08-04 10:28:35.819000'
g117
tp124
a(S'2015-08-04 10:28:35.822000'
S'data saved as csv to c:\\Charlie\\charlie\\data\\csv\\4435_scap.csv'
tp125
a(S'2015-08-04 10:28:54.441000'
g115
tp126
a(S'2015-08-04 10:28:54.452000'
g117
tp127
a(S'2015-08-04 10:28:54.456000'
S'data saved as csv to c:\\Charlie\\charlie\\data\\csv\\4435_scap.csv'
tp128
a(S'2015-08-04 10:29:01.772000'
g115
tp129
a(S'2015-08-04 10:29:01.783000'
g117
tp130
a(S'2015-08-04 10:29:01.786000'
S'data saved as csv to c:\\Charlie\\charlie\\data\\csv\\4435_scap.csv'
tp131
a(S'2015-08-04 10:29:08.913000'
g115
tp132
a(S'2015-08-04 10:29:08.924000'
g117
tp133
a(S'2015-08-04 10:29:08.928000'
S'data saved as csv to c:\\Charlie\\charlie\\data\\csv\\4435_scap.csv'
tp134
a(S'2015-08-04 10:29:16.374000'
g115
tp135
a(S'2015-08-04 10:29:16.385000'
g117
tp136
a(S'2015-08-04 10:29:16.389000'
S'data saved as csv to c:\\Charlie\\charlie\\data\\csv\\4435_scap.csv'
tp137
a(S'2015-08-04 10:29:23.824000'
g115
tp138
a(S'2015-08-04 10:29:23.835000'
g117
tp139
a(S'2015-08-04 10:29:23.839000'
S'data saved as csv to c:\\Charlie\\charlie\\data\\csv\\4435_scap.csv'
tp140
a(S'2015-08-04 10:29:31.395000'
g115
tp141
a(S'2015-08-04 10:29:31.406000'
g117
tp142
a(S'2015-08-04 10:29:31.410000'
S'data saved as csv to c:\\Charlie\\charlie\\data\\csv\\4435_scap.csv'
tp143
a(S'2015-08-04 10:29:38.816000'
g115
tp144
a(S'2015-08-04 10:29:38.826000'
g117
tp145
a(S'2015-08-04 10:29:38.830000'
S'data saved as csv to c:\\Charlie\\charlie\\data\\csv\\4435_scap.csv'
tp146
a(S'2015-08-04 10:29:47.115000'
g115
tp147
a(S'2015-08-04 10:29:47.126000'
g117
tp148
a(S'2015-08-04 10:29:47.130000'
S'data saved as csv to c:\\Charlie\\charlie\\data\\csv\\4435_scap.csv'
tp149
a(S'2015-08-04 10:29:54.536000'
g115
tp150
a(S'2015-08-04 10:29:54.546000'
g117
tp151
a(S'2015-08-04 10:29:54.550000'
S'data saved as csv to c:\\Charlie\\charlie\\data\\csv\\4435_scap.csv'
tp152
a(S'2015-08-04 10:30:01.605000'
g115
tp153
a(S'2015-08-04 10:30:01.615000'
g117
tp154
a(S'2015-08-04 10:30:01.619000'
S'data saved as csv to c:\\Charlie\\charlie\\data\\csv\\4435_scap.csv'
tp155
a(S'2015-08-04 10:30:09.027000'
g115
tp156
a(S'2015-08-04 10:30:09.037000'
g117
tp157
a(S'2015-08-04 10:30:09.040000'
S'data saved as csv to c:\\Charlie\\charlie\\data\\csv\\4435_scap.csv'
tp158
a(S'2015-08-04 10:30:16.495000'
g115
tp159
a(S'2015-08-04 10:30:16.506000'
g117
tp160
a(S'2015-08-04 10:30:16.510000'
S'data saved as csv to c:\\Charlie\\charlie\\data\\csv\\4435_scap.csv'
tp161
a(S'2015-08-04 10:30:23.686000'
g115
tp162
a(S'2015-08-04 10:30:23.697000'
g117
tp163
a(S'2015-08-04 10:30:23.701000'
S'data saved as csv to c:\\Charlie\\charlie\\data\\csv\\4435_scap.csv'
tp164
a(S'2015-08-04 10:30:31.157000'
g115
tp165
a(S'2015-08-04 10:30:31.168000'
g117
tp166
a(S'2015-08-04 10:30:31.172000'
S'data saved as csv to c:\\Charlie\\charlie\\data\\csv\\4435_scap.csv'
tp167
a(S'2015-08-04 10:30:38.428000'
g115
tp168
a(S'2015-08-04 10:30:38.438000'
g117
tp169
a(S'2015-08-04 10:30:38.441000'
S'data saved as csv to c:\\Charlie\\charlie\\data\\csv\\4435_scap.csv'
tp170
a(S'2015-08-04 10:30:45.817000'
g115
tp171
a(S'2015-08-04 10:30:45.828000'
g117
tp172
a(S'2015-08-04 10:30:45.832000'
S'data saved as csv to c:\\Charlie\\charlie\\data\\csv\\4435_scap.csv'
tp173
a(S'2015-08-04 10:30:52.970000'
g115
tp174
a(S'2015-08-04 10:30:52.980000'
g117
tp175
a(S'2015-08-04 10:30:52.984000'
S'data saved as csv to c:\\Charlie\\charlie\\data\\csv\\4435_scap.csv'
tp176
a(S'2015-08-04 10:31:00.020000'
g115
tp177
a(S'2015-08-04 10:31:00.031000'
g117
tp178
a(S'2015-08-04 10:31:00.035000'
S'data saved as csv to c:\\Charlie\\charlie\\data\\csv\\4435_scap.csv'
tp179
a(S'2015-08-04 10:31:07.360000'
g115
tp180
a(S'2015-08-04 10:31:07.371000'
g117
tp181
a(S'2015-08-04 10:31:07.375000'
S'data saved as csv to c:\\Charlie\\charlie\\data\\csv\\4435_scap.csv'
tp182
a(S'2015-08-04 10:31:14.843000'
g115
tp183
a(S'2015-08-04 10:31:14.854000'
g117
tp184
a(S'2015-08-04 10:31:14.857000'
S'data saved as csv to c:\\Charlie\\charlie\\data\\csv\\4435_scap.csv'
tp185
a(S'2015-08-04 10:31:23.432000'
g115
tp186
a(S'2015-08-04 10:31:23.443000'
g117
tp187
a(S'2015-08-04 10:31:23.447000'
S'data saved as csv to c:\\Charlie\\charlie\\data\\csv\\4435_scap.csv'
tp188
a(S'2015-08-04 10:31:37.314000'
g115
tp189
a(S'2015-08-04 10:31:37.324000'
g117
tp190
a(S'2015-08-04 10:31:37.326000'
S'data saved as csv to c:\\Charlie\\charlie\\data\\csv\\4435_scap.csv'
tp191
a(S'2015-08-04 10:31:44.571000'
g115
tp192
a(S'2015-08-04 10:31:44.582000'
g117
tp193
a(S'2015-08-04 10:31:44.585000'
S'data saved as csv to c:\\Charlie\\charlie\\data\\csv\\4435_scap.csv'
tp194
a(S'2015-08-04 10:31:51.851000'
g115
tp195
a(S'2015-08-04 10:31:51.861000'
g117
tp196
a(S'2015-08-04 10:31:51.866000'
S'data saved as csv to c:\\Charlie\\charlie\\data\\csv\\4435_scap.csv'
tp197
a(S'2015-08-04 10:32:00.613000'
g115
tp198
a(S'2015-08-04 10:32:00.624000'
g117
tp199
a(S'2015-08-04 10:32:00.628000'
S'data saved as csv to c:\\Charlie\\charlie\\data\\csv\\4435_scap.csv'
tp200
a(S'2015-08-04 10:32:09.205000'
g115
tp201
a(S'2015-08-04 10:32:09.216000'
g117
tp202
a(S'2015-08-04 10:32:09.221000'
S'data saved as csv to c:\\Charlie\\charlie\\data\\csv\\4435_scap.csv'
tp203
a(S'2015-08-04 10:32:16.887000'
g115
tp204
a(S'2015-08-04 10:32:16.899000'
g117
tp205
a(S'2015-08-04 10:32:16.903000'
S'data saved as csv to c:\\Charlie\\charlie\\data\\csv\\4435_scap.csv'
tp206
a(S'2015-08-04 10:32:23.530000'
g115
tp207
a(S'2015-08-04 10:32:23.541000'
g117
tp208
a(S'2015-08-04 10:32:23.545000'
S'data saved as csv to c:\\Charlie\\charlie\\data\\csv\\4435_scap.csv'
tp209
a(S'2015-08-04 10:32:30.533000'
g115
tp210
a(S'2015-08-04 10:32:30.544000'
g117
tp211
a(S'2015-08-04 10:32:30.548000'
S'data saved as csv to c:\\Charlie\\charlie\\data\\csv\\4435_scap.csv'
tp212
a(S'2015-08-04 10:32:38.046000'
g115
tp213
a(S'2015-08-04 10:32:38.049000'
g117
tp214
a(S'2015-08-04 10:32:38.050000'
S'data saved as csv to c:\\Charlie\\charlie\\data\\csv\\4435_scap.csv'
tp215
a(S'2015-08-04 10:32:45.315000'
g115
tp216
a(S'2015-08-04 10:32:45.326000'
g117
tp217
a(S'2015-08-04 10:32:45.330000'
S'data saved as csv to c:\\Charlie\\charlie\\data\\csv\\4435_scap.csv'
tp218
a(S'2015-08-04 10:32:52.348000'
g115
tp219
a(S'2015-08-04 10:32:52.359000'
g117
tp220
a(S'2015-08-04 10:32:52.364000'
S'data saved as csv to c:\\Charlie\\charlie\\data\\csv\\4435_scap.csv'
tp221
a(S'2015-08-04 10:32:59.251000'
g115
tp222
a(S'2015-08-04 10:32:59.262000'
g117
tp223
a(S'2015-08-04 10:32:59.266000'
S'data saved as csv to c:\\Charlie\\charlie\\data\\csv\\4435_scap.csv'
tp224
a(S'2015-08-04 10:33:07.364000'
g115
tp225
a(S'2015-08-04 10:33:07.375000'
g117
tp226
a(S'2015-08-04 10:33:07.379000'
S'data saved as csv to c:\\Charlie\\charlie\\data\\csv\\4435_scap.csv'
tp227
a(S'2015-08-04 10:33:14.665000'
g115
tp228
a(S'2015-08-04 10:33:14.676000'
g117
tp229
a(S'2015-08-04 10:33:14.681000'
S'data saved as csv to c:\\Charlie\\charlie\\data\\csv\\4435_scap.csv'
tp230
a(S'2015-08-04 10:33:22.168000'
g115
tp231
a(S'2015-08-04 10:33:22.179000'
g117
tp232
a(S'2015-08-04 10:33:22.184000'
S'data saved as csv to c:\\Charlie\\charlie\\data\\csv\\4435_scap.csv'
tp233
a(S'2015-08-04 10:33:29.481000'
g115
tp234
a(S'2015-08-04 10:33:29.492000'
g117
tp235
a(S'2015-08-04 10:33:29.497000'
S'data saved as csv to c:\\Charlie\\charlie\\data\\csv\\4435_scap.csv'
tp236
a(S'2015-08-04 10:33:37.074000'
g115
tp237
a(S'2015-08-04 10:33:37.085000'
g117
tp238
a(S'2015-08-04 10:33:37.090000'
S'data saved as csv to c:\\Charlie\\charlie\\data\\csv\\4435_scap.csv'
tp239
a(S'2015-08-04 10:33:44.467000'
g115
tp240
a(S'2015-08-04 10:33:44.478000'
g117
tp241
a(S'2015-08-04 10:33:44.483000'
S'data saved as csv to c:\\Charlie\\charlie\\data\\csv\\4435_scap.csv'
tp242
a(S'2015-08-04 10:33:51.630000'
g115
tp243
a(S'2015-08-04 10:33:51.642000'
g117
tp244
a(S'2015-08-04 10:33:51.646000'
S'data saved as csv to c:\\Charlie\\charlie\\data\\csv\\4435_scap.csv'
tp245
a(S'2015-08-04 10:33:58.844000'
g115
tp246
a(S'2015-08-04 10:33:58.855000'
g117
tp247
a(S'2015-08-04 10:33:58.860000'
S'data saved as csv to c:\\Charlie\\charlie\\data\\csv\\4435_scap.csv'
tp248
a(S'2015-08-04 10:34:06.257000'
g115
tp249
a(S'2015-08-04 10:34:06.268000'
g117
tp250
a(S'2015-08-04 10:34:06.272000'
S'data saved as csv to c:\\Charlie\\charlie\\data\\csv\\4435_scap.csv'
tp251
asb.