(icharlie.tools.data
Data
p1
(dp2
S'lang'
p3
S'EN'
p4
sS'control'
p5
(lp6
sS'last_updated'
p7
cdatetime
datetime
p8
(S'\x07\xdf\x08\x04\x0e\x15"\x00J8'
tRp9
sS'last_opened'
p10
g8
(S'\x07\xdf\x08\x04\x0e\x0e\x11\x01\xdc\x90'
tRp11
sS'proj_id'
p12
S'connectivity'
p13
sS'date_done'
p14
NsS'test_done'
p15
I01
sS'data'
p16
(lp17
(S'4436'
p18
S'scap'
p19
S'practice'
p20
I3
I0
S'Yes'
p21
S'C:\\Users\\oleach\\Charlie-master\\Charlie-master\\charlie\\stimuli\\visual\\scap\\practice-1.BMP'
S'C:\\Users\\oleach\\Charlie-master\\Charlie-master\\charlie\\stimuli\\visual\\scap\\practice-2.BMP'
S'No'
p22
I3020
tp23
a(g18
g19
g20
I4
I1
g22
S'C:\\Users\\oleach\\Charlie-master\\Charlie-master\\charlie\\stimuli\\visual\\scap\\practice-3.BMP'
S'C:\\Users\\oleach\\Charlie-master\\Charlie-master\\charlie\\stimuli\\visual\\scap\\practice-4.BMP'
g22
I3190
tp24
a(g18
g19
g20
I5
I2
g21
S'C:\\Users\\oleach\\Charlie-master\\Charlie-master\\charlie\\stimuli\\visual\\scap\\practice-5.BMP'
S'C:\\Users\\oleach\\Charlie-master\\Charlie-master\\charlie\\stimuli\\visual\\scap\\practice-6.BMP'
g22
I1440
tp25
a(g18
g19
S'test'
p26
I3
I0
g21
S'C:\\Users\\oleach\\Charlie-master\\Charlie-master\\charlie\\stimuli\\visual\\scap\\load3-1.BMP'
S'C:\\Users\\oleach\\Charlie-master\\Charlie-master\\charlie\\stimuli\\visual\\scap\\load3-2.BMP'
g22
I800
tp27
a(g18
g19
g26
I3
I1
g22
S'C:\\Users\\oleach\\Charlie-master\\Charlie-master\\charlie\\stimuli\\visual\\scap\\load3-3.BMP'
S'C:\\Users\\oleach\\Charlie-master\\Charlie-master\\charlie\\stimuli\\visual\\scap\\load3-4.BMP'
g21
I2240
tp28
a(g18
g19
g26
I3
I2
g21
S'C:\\Users\\oleach\\Charlie-master\\Charlie-master\\charlie\\stimuli\\visual\\scap\\load3-5.BMP'
S'C:\\Users\\oleach\\Charlie-master\\Charlie-master\\charlie\\stimuli\\visual\\scap\\load3-6.BMP'
g22
I2970
tp29
a(g18
g19
g26
I3
I3
g21
S'C:\\Users\\oleach\\Charlie-master\\Charlie-master\\charlie\\stimuli\\visual\\scap\\load3-7.BMP'
S'C:\\Users\\oleach\\Charlie-master\\Charlie-master\\charlie\\stimuli\\visual\\scap\\load3-8.BMP'
g22
I2450
tp30
a(g18
g19
g26
I3
I4
g22
S'C:\\Users\\oleach\\Charlie-master\\Charlie-master\\charlie\\stimuli\\visual\\scap\\load3-9.BMP'
S'C:\\Users\\oleach\\Charlie-master\\Charlie-master\\charlie\\stimuli\\visual\\scap\\load3-10.BMP'
g22
I1680
tp31
a(g18
g19
g26
I3
I5
g21
S'C:\\Users\\oleach\\Charlie-master\\Charlie-master\\charlie\\stimuli\\visual\\scap\\load3-11.BMP'
S'C:\\Users\\oleach\\Charlie-master\\Charlie-master\\charlie\\stimuli\\visual\\scap\\load3-12.BMP'
g22
I3140
tp32
a(g18
g19
g26
I3
I6
g22
S'C:\\Users\\oleach\\Charlie-master\\Charlie-master\\charlie\\stimuli\\visual\\scap\\load3-13.BMP'
S'C:\\Users\\oleach\\Charlie-master\\Charlie-master\\charlie\\stimuli\\visual\\scap\\load3-14.BMP'
g22
I2750
tp33
a(g18
g19
g26
I3
I7
g22
S'C:\\Users\\oleach\\Charlie-master\\Charlie-master\\charlie\\stimuli\\visual\\scap\\load3-15.BMP'
S'C:\\Users\\oleach\\Charlie-master\\Charlie-master\\charlie\\stimuli\\visual\\scap\\load3-16.BMP'
g22
I1870
tp34
a(g18
g19
g26
I3
I8
g21
S'C:\\Users\\oleach\\Charlie-master\\Charlie-master\\charlie\\stimuli\\visual\\scap\\load3-17.BMP'
S'C:\\Users\\oleach\\Charlie-master\\Charlie-master\\charlie\\stimuli\\visual\\scap\\load3-18.BMP'
g21
I2070
tp35
a(g18
g19
g26
I3
I9
g22
S'C:\\Users\\oleach\\Charlie-master\\Charlie-master\\charlie\\stimuli\\visual\\scap\\load3-19.BMP'
S'C:\\Users\\oleach\\Charlie-master\\Charlie-master\\charlie\\stimuli\\visual\\scap\\load3-20.BMP'
g22
I1520
tp36
a(g18
g19
g26
I3
I10
g21
S'C:\\Users\\oleach\\Charlie-master\\Charlie-master\\charlie\\stimuli\\visual\\scap\\load3-21.BMP'
S'C:\\Users\\oleach\\Charlie-master\\Charlie-master\\charlie\\stimuli\\visual\\scap\\load3-22.BMP'
g22
I2611
tp37
a(g18
g19
g26
I3
I11
g21
S'C:\\Users\\oleach\\Charlie-master\\Charlie-master\\charlie\\stimuli\\visual\\scap\\load3-23.BMP'
S'C:\\Users\\oleach\\Charlie-master\\Charlie-master\\charlie\\stimuli\\visual\\scap\\load3-24.BMP'
g22
I1130
tp38
a(g18
g19
g26
I3
I12
g22
S'C:\\Users\\oleach\\Charlie-master\\Charlie-master\\charlie\\stimuli\\visual\\scap\\load3-25.BMP'
S'C:\\Users\\oleach\\Charlie-master\\Charlie-master\\charlie\\stimuli\\visual\\scap\\load3-26.BMP'
g22
I2060
tp39
a(g18
g19
g26
I3
I13
g22
S'C:\\Users\\oleach\\Charlie-master\\Charlie-master\\charlie\\stimuli\\visual\\scap\\load3-27.BMP'
S'C:\\Users\\oleach\\Charlie-master\\Charlie-master\\charlie\\stimuli\\visual\\scap\\load3-28.BMP'
g21
I4920
tp40
a(g18
g19
g26
I4
I0
g22
S'C:\\Users\\oleach\\Charlie-master\\Charlie-master\\charlie\\stimuli\\visual\\scap\\load4-1.BMP'
S'C:\\Users\\oleach\\Charlie-master\\Charlie-master\\charlie\\stimuli\\visual\\scap\\load4-2.BMP'
g22
I1971
tp41
a(g18
g19
g26
I4
I1
g21
S'C:\\Users\\oleach\\Charlie-master\\Charlie-master\\charlie\\stimuli\\visual\\scap\\load4-3.BMP'
S'C:\\Users\\oleach\\Charlie-master\\Charlie-master\\charlie\\stimuli\\visual\\scap\\load4-4.BMP'
g21
I4620
tp42
a(g18
g19
g26
I4
I2
g21
S'C:\\Users\\oleach\\Charlie-master\\Charlie-master\\charlie\\stimuli\\visual\\scap\\load4-5.BMP'
S'C:\\Users\\oleach\\Charlie-master\\Charlie-master\\charlie\\stimuli\\visual\\scap\\load4-6.BMP'
g21
I9460
tp43
a(g18
g19
g26
I4
I3
g22
S'C:\\Users\\oleach\\Charlie-master\\Charlie-master\\charlie\\stimuli\\visual\\scap\\load4-7.BMP'
S'C:\\Users\\oleach\\Charlie-master\\Charlie-master\\charlie\\stimuli\\visual\\scap\\load4-8.BMP'
g22
I1911
tp44
a(g18
g19
g26
I4
I4
g22
S'C:\\Users\\oleach\\Charlie-master\\Charlie-master\\charlie\\stimuli\\visual\\scap\\load4-9.BMP'
S'C:\\Users\\oleach\\Charlie-master\\Charlie-master\\charlie\\stimuli\\visual\\scap\\load4-10.BMP'
g21
I1940
tp45
a(g18
g19
g26
I4
I5
g21
S'C:\\Users\\oleach\\Charlie-master\\Charlie-master\\charlie\\stimuli\\visual\\scap\\load4-11.BMP'
S'C:\\Users\\oleach\\Charlie-master\\Charlie-master\\charlie\\stimuli\\visual\\scap\\load4-12.BMP'
g22
I480
tp46
a(g18
g19
g26
I4
I6
g22
S'C:\\Users\\oleach\\Charlie-master\\Charlie-master\\charlie\\stimuli\\visual\\scap\\load4-13.BMP'
S'C:\\Users\\oleach\\Charlie-master\\Charlie-master\\charlie\\stimuli\\visual\\scap\\load4-14.BMP'
g21
I1710
tp47
a(g18
g19
g26
I4
I7
g21
S'C:\\Users\\oleach\\Charlie-master\\Charlie-master\\charlie\\stimuli\\visual\\scap\\load4-15.BMP'
S'C:\\Users\\oleach\\Charlie-master\\Charlie-master\\charlie\\stimuli\\visual\\scap\\load4-16.BMP'
g22
I870
tp48
a(g18
g19
g26
I4
I8
g22
S'C:\\Users\\oleach\\Charlie-master\\Charlie-master\\charlie\\stimuli\\visual\\scap\\load4-17.BMP'
S'C:\\Users\\oleach\\Charlie-master\\Charlie-master\\charlie\\stimuli\\visual\\scap\\load4-18.BMP'
g21
I3490
tp49
a(g18
g19
g26
I4
I9
g21
S'C:\\Users\\oleach\\Charlie-master\\Charlie-master\\charlie\\stimuli\\visual\\scap\\load4-19.BMP'
S'C:\\Users\\oleach\\Charlie-master\\Charlie-master\\charlie\\stimuli\\visual\\scap\\load4-20.BMP'
g22
I80
tp50
a(g18
g19
g26
I4
I10
g21
S'C:\\Users\\oleach\\Charlie-master\\Charlie-master\\charlie\\stimuli\\visual\\scap\\load4-21.BMP'
S'C:\\Users\\oleach\\Charlie-master\\Charlie-master\\charlie\\stimuli\\visual\\scap\\load4-22.BMP'
g22
I2690
tp51
a(g18
g19
g26
I4
I11
g22
S'C:\\Users\\oleach\\Charlie-master\\Charlie-master\\charlie\\stimuli\\visual\\scap\\load4-23.BMP'
S'C:\\Users\\oleach\\Charlie-master\\Charlie-master\\charlie\\stimuli\\visual\\scap\\load4-24.BMP'
g21
I1840
tp52
a(g18
g19
g26
I4
I12
g21
S'C:\\Users\\oleach\\Charlie-master\\Charlie-master\\charlie\\stimuli\\visual\\scap\\load4-25.BMP'
S'C:\\Users\\oleach\\Charlie-master\\Charlie-master\\charlie\\stimuli\\visual\\scap\\load4-26.BMP'
g21
I2381
tp53
a(g18
g19
g26
I4
I13
g22
S'C:\\Users\\oleach\\Charlie-master\\Charlie-master\\charlie\\stimuli\\visual\\scap\\load4-27.BMP'
S'C:\\Users\\oleach\\Charlie-master\\Charlie-master\\charlie\\stimuli\\visual\\scap\\load4-28.BMP'
g21
I3170
tp54
a(g18
g19
g26
I5
I0
g21
S'C:\\Users\\oleach\\Charlie-master\\Charlie-master\\charlie\\stimuli\\visual\\scap\\load5-1.BMP'
S'C:\\Users\\oleach\\Charlie-master\\Charlie-master\\charlie\\stimuli\\visual\\scap\\load5-2.BMP'
g21
I1821
tp55
a(g18
g19
g26
I5
I1
g21
S'C:\\Users\\oleach\\Charlie-master\\Charlie-master\\charlie\\stimuli\\visual\\scap\\load5-3.BMP'
S'C:\\Users\\oleach\\Charlie-master\\Charlie-master\\charlie\\stimuli\\visual\\scap\\load5-4.BMP'
g22
I2100
tp56
a(g18
g19
g26
I5
I2
g21
S'C:\\Users\\oleach\\Charlie-master\\Charlie-master\\charlie\\stimuli\\visual\\scap\\load5-5.BMP'
S'C:\\Users\\oleach\\Charlie-master\\Charlie-master\\charlie\\stimuli\\visual\\scap\\load5-6.BMP'
g22
I4641
tp57
a(g18
g19
g26
I5
I3
g21
S'C:\\Users\\oleach\\Charlie-master\\Charlie-master\\charlie\\stimuli\\visual\\scap\\load5-7.BMP'
S'C:\\Users\\oleach\\Charlie-master\\Charlie-master\\charlie\\stimuli\\visual\\scap\\load5-8.BMP'
g22
I770
tp58
a(g18
g19
g26
I5
I4
g21
S'C:\\Users\\oleach\\Charlie-master\\Charlie-master\\charlie\\stimuli\\visual\\scap\\load5-9.BMP'
S'C:\\Users\\oleach\\Charlie-master\\Charlie-master\\charlie\\stimuli\\visual\\scap\\load5-10.BMP'
g22
I4091
tp59
a(g18
g19
g26
I5
I5
g21
S'C:\\Users\\oleach\\Charlie-master\\Charlie-master\\charlie\\stimuli\\visual\\scap\\load5-11.BMP'
S'C:\\Users\\oleach\\Charlie-master\\Charlie-master\\charlie\\stimuli\\visual\\scap\\load5-12.BMP'
g22
I1770
tp60
a(g18
g19
g26
I5
I6
g22
S'C:\\Users\\oleach\\Charlie-master\\Charlie-master\\charlie\\stimuli\\visual\\scap\\load5-13.BMP'
S'C:\\Users\\oleach\\Charlie-master\\Charlie-master\\charlie\\stimuli\\visual\\scap\\load5-14.BMP'
g22
I10411
tp61
a(g18
g19
g26
I5
I7
g22
S'C:\\Users\\oleach\\Charlie-master\\Charlie-master\\charlie\\stimuli\\visual\\scap\\load5-15.BMP'
S'C:\\Users\\oleach\\Charlie-master\\Charlie-master\\charlie\\stimuli\\visual\\scap\\load5-16.BMP'
g22
I3801
tp62
a(g18
g19
g26
I5
I8
g22
S'C:\\Users\\oleach\\Charlie-master\\Charlie-master\\charlie\\stimuli\\visual\\scap\\load5-17.BMP'
S'C:\\Users\\oleach\\Charlie-master\\Charlie-master\\charlie\\stimuli\\visual\\scap\\load5-18.BMP'
g22
I6910
tp63
a(g18
g19
g26
I5
I9
g22
S'C:\\Users\\oleach\\Charlie-master\\Charlie-master\\charlie\\stimuli\\visual\\scap\\load5-19.BMP'
S'C:\\Users\\oleach\\Charlie-master\\Charlie-master\\charlie\\stimuli\\visual\\scap\\load5-20.BMP'
g22
I790
tp64
a(g18
g19
g26
I5
I10
g22
S'C:\\Users\\oleach\\Charlie-master\\Charlie-master\\charlie\\stimuli\\visual\\scap\\load5-21.BMP'
S'C:\\Users\\oleach\\Charlie-master\\Charlie-master\\charlie\\stimuli\\visual\\scap\\load5-22.BMP'
g21
I830
tp65
a(g18
g19
g26
I5
I11
g21
S'C:\\Users\\oleach\\Charlie-master\\Charlie-master\\charlie\\stimuli\\visual\\scap\\load5-23.BMP'
S'C:\\Users\\oleach\\Charlie-master\\Charlie-master\\charlie\\stimuli\\visual\\scap\\load5-24.BMP'
g21
I2990
tp66
a(g18
g19
g26
I5
I12
g22
S'C:\\Users\\oleach\\Charlie-master\\Charlie-master\\charlie\\stimuli\\visual\\scap\\load5-25.BMP'
S'C:\\Users\\oleach\\Charlie-master\\Charlie-master\\charlie\\stimuli\\visual\\scap\\load5-26.BMP'
g22
I1660
tp67
a(g18
g19
g26
I5
I13
g22
S'C:\\Users\\oleach\\Charlie-master\\Charlie-master\\charlie\\stimuli\\visual\\scap\\load5-27.BMP'
p68
S'C:\\Users\\oleach\\Charlie-master\\Charlie-master\\charlie\\stimuli\\visual\\scap\\load5-28.BMP'
p69
g22
I2591
tp70
asS'output_format'
p71
(lp72
(S'proband_id'
p73
c__builtin__
str
p74
tp75
a(S'test_name'
p76
g74
tp77
a(S'phase'
p78
g74
tp79
a(S'load'
p80
c__builtin__
int
p81
tp82
a(S'trialn'
p83
g81
tp84
a(S'ans'
p85
g74
tp86
a(S'array_f'
p87
g74
tp88
a(S'probe_f'
p89
g74
tp90
a(S'rsp'
p91
g74
tp92
a(S'rt'
p93
g81
tp94
asg73
g18
sS'filename'
p95
S'4436_scap.data'
p96
sS'initialised'
p97
g8
(S'\x07\xdf\x08\x04\x0e\x0e\x11\x01\xdc\x90'
tRp98
sS'last_udated'
p99
g8
(S'\x07\xdf\x08\x04\x0e\x0e\x11\x01\xdc\x90'
tRp100
sg76
S'scap'
p101
sS'directory'
p102
S'C:\\Users\\oleach\\Charlie-master\\Charlie-master\\charlie\\data\\raw'
p103
sS'user_id'
p104
S'oleach'
p105
sS'test_started'
p106
I01
sS'abs_filename'
p107
S'C:\\Users\\oleach\\Charlie-master\\Charlie-master\\charlie\\data\\raw\\4436_scap.data'
p108
sS'date_started'
p109
g8
(S'\x07\xdf\x08\x04\x0e\x0e8\r\xc7X'
tRp110
sS'log'
p111
(lp112
(S'2015-08-04 14:14:17.122000'
S'instance created'
p113
tp114
a(S'2015-08-04 14:14:56.913000'
S'instance updated'
p115
tp116
a(S'2015-08-04 14:14:56.922000'
S'pandas DataFrame of data created'
p117
tp118
a(S'2015-08-04 14:14:56.926000'
S'data saved as csv to C:\\Users\\oleach\\Charlie-master\\Charlie-master\\charlie\\data\\csv\\4436_scap.csv'
tp119
a(S'2015-08-04 14:15:07.161000'
g115
tp120
a(S'2015-08-04 14:15:07.170000'
g117
tp121
a(S'2015-08-04 14:15:07.174000'
S'data saved as csv to C:\\Users\\oleach\\Charlie-master\\Charlie-master\\charlie\\data\\csv\\4436_scap.csv'
tp122
a(S'2015-08-04 14:15:15.658000'
g115
tp123
a(S'2015-08-04 14:15:15.667000'
g117
tp124
a(S'2015-08-04 14:15:15.671000'
S'data saved as csv to C:\\Users\\oleach\\Charlie-master\\Charlie-master\\charlie\\data\\csv\\4436_scap.csv'
tp125
a(S'2015-08-04 14:15:28.674000'
g115
tp126
a(S'2015-08-04 14:15:28.684000'
g117
tp127
a(S'2015-08-04 14:15:28.687000'
S'data saved as csv to C:\\Users\\oleach\\Charlie-master\\Charlie-master\\charlie\\data\\csv\\4436_scap.csv'
tp128
a(S'2015-08-04 14:15:37.068000'
g115
tp129
a(S'2015-08-04 14:15:37.078000'
g117
tp130
a(S'2015-08-04 14:15:37.082000'
S'data saved as csv to C:\\Users\\oleach\\Charlie-master\\Charlie-master\\charlie\\data\\csv\\4436_scap.csv'
tp131
a(S'2015-08-04 14:15:46.194000'
g115
tp132
a(S'2015-08-04 14:15:46.203000'
g117
tp133
a(S'2015-08-04 14:15:46.206000'
S'data saved as csv to C:\\Users\\oleach\\Charlie-master\\Charlie-master\\charlie\\data\\csv\\4436_scap.csv'
tp134
a(S'2015-08-04 14:15:54.797000'
g115
tp135
a(S'2015-08-04 14:15:54.807000'
g117
tp136
a(S'2015-08-04 14:15:54.811000'
S'data saved as csv to C:\\Users\\oleach\\Charlie-master\\Charlie-master\\charlie\\data\\csv\\4436_scap.csv'
tp137
a(S'2015-08-04 14:16:02.633000'
g115
tp138
a(S'2015-08-04 14:16:02.643000'
g117
tp139
a(S'2015-08-04 14:16:02.645000'
S'data saved as csv to C:\\Users\\oleach\\Charlie-master\\Charlie-master\\charlie\\data\\csv\\4436_scap.csv'
tp140
a(S'2015-08-04 14:16:11.926000'
g115
tp141
a(S'2015-08-04 14:16:11.935000'
g117
tp142
a(S'2015-08-04 14:16:11.939000'
S'data saved as csv to C:\\Users\\oleach\\Charlie-master\\Charlie-master\\charlie\\data\\csv\\4436_scap.csv'
tp143
a(S'2015-08-04 14:16:20.832000'
g115
tp144
a(S'2015-08-04 14:16:20.841000'
g117
tp145
a(S'2015-08-04 14:16:20.845000'
S'data saved as csv to C:\\Users\\oleach\\Charlie-master\\Charlie-master\\charlie\\data\\csv\\4436_scap.csv'
tp146
a(S'2015-08-04 14:16:28.858000'
g115
tp147
a(S'2015-08-04 14:16:28.868000'
g117
tp148
a(S'2015-08-04 14:16:28.872000'
S'data saved as csv to C:\\Users\\oleach\\Charlie-master\\Charlie-master\\charlie\\data\\csv\\4436_scap.csv'
tp149
a(S'2015-08-04 14:16:37.085000'
g115
tp150
a(S'2015-08-04 14:16:37.094000'
g117
tp151
a(S'2015-08-04 14:16:37.098000'
S'data saved as csv to C:\\Users\\oleach\\Charlie-master\\Charlie-master\\charlie\\data\\csv\\4436_scap.csv'
tp152
a(S'2015-08-04 14:16:44.760000'
g115
tp153
a(S'2015-08-04 14:16:44.770000'
g117
tp154
a(S'2015-08-04 14:16:44.774000'
S'data saved as csv to C:\\Users\\oleach\\Charlie-master\\Charlie-master\\charlie\\data\\csv\\4436_scap.csv'
tp155
a(S'2015-08-04 14:16:53.528000'
g115
tp156
a(S'2015-08-04 14:16:53.538000'
g117
tp157
a(S'2015-08-04 14:16:53.541000'
S'data saved as csv to C:\\Users\\oleach\\Charlie-master\\Charlie-master\\charlie\\data\\csv\\4436_scap.csv'
tp158
a(S'2015-08-04 14:17:00.815000'
g115
tp159
a(S'2015-08-04 14:17:00.824000'
g117
tp160
a(S'2015-08-04 14:17:00.828000'
S'data saved as csv to C:\\Users\\oleach\\Charlie-master\\Charlie-master\\charlie\\data\\csv\\4436_scap.csv'
tp161
a(S'2015-08-04 14:17:09.032000'
g115
tp162
a(S'2015-08-04 14:17:09.042000'
g117
tp163
a(S'2015-08-04 14:17:09.045000'
S'data saved as csv to C:\\Users\\oleach\\Charlie-master\\Charlie-master\\charlie\\data\\csv\\4436_scap.csv'
tp164
a(S'2015-08-04 14:17:20.109000'
g115
tp165
a(S'2015-08-04 14:17:20.118000'
g117
tp166
a(S'2015-08-04 14:17:20.122000'
S'data saved as csv to C:\\Users\\oleach\\Charlie-master\\Charlie-master\\charlie\\data\\csv\\4436_scap.csv'
tp167
a(S'2015-08-04 14:17:28.235000'
g115
tp168
a(S'2015-08-04 14:17:28.245000'
g117
tp169
a(S'2015-08-04 14:17:28.249000'
S'data saved as csv to C:\\Users\\oleach\\Charlie-master\\Charlie-master\\charlie\\data\\csv\\4436_scap.csv'
tp170
a(S'2015-08-04 14:17:39.013000'
g115
tp171
a(S'2015-08-04 14:17:39.023000'
g117
tp172
a(S'2015-08-04 14:17:39.027000'
S'data saved as csv to C:\\Users\\oleach\\Charlie-master\\Charlie-master\\charlie\\data\\csv\\4436_scap.csv'
tp173
a(S'2015-08-04 14:17:54.629000'
g115
tp174
a(S'2015-08-04 14:17:54.639000'
g117
tp175
a(S'2015-08-04 14:17:54.643000'
S'data saved as csv to C:\\Users\\oleach\\Charlie-master\\Charlie-master\\charlie\\data\\csv\\4436_scap.csv'
tp176
a(S'2015-08-04 14:18:02.697000'
g115
tp177
a(S'2015-08-04 14:18:02.707000'
g117
tp178
a(S'2015-08-04 14:18:02.711000'
S'data saved as csv to C:\\Users\\oleach\\Charlie-master\\Charlie-master\\charlie\\data\\csv\\4436_scap.csv'
tp179
a(S'2015-08-04 14:18:10.779000'
g115
tp180
a(S'2015-08-04 14:18:10.785000'
g117
tp181
a(S'2015-08-04 14:18:10.788000'
S'data saved as csv to C:\\Users\\oleach\\Charlie-master\\Charlie-master\\charlie\\data\\csv\\4436_scap.csv'
tp182
a(S'2015-08-04 14:18:17.395000'
g115
tp183
a(S'2015-08-04 14:18:17.401000'
g117
tp184
a(S'2015-08-04 14:18:17.404000'
S'data saved as csv to C:\\Users\\oleach\\Charlie-master\\Charlie-master\\charlie\\data\\csv\\4436_scap.csv'
tp185
a(S'2015-08-04 14:18:25.245000'
g115
tp186
a(S'2015-08-04 14:18:25.252000'
g117
tp187
a(S'2015-08-04 14:18:25.255000'
S'data saved as csv to C:\\Users\\oleach\\Charlie-master\\Charlie-master\\charlie\\data\\csv\\4436_scap.csv'
tp188
a(S'2015-08-04 14:18:32.240000'
g115
tp189
a(S'2015-08-04 14:18:32.242000'
g117
tp190
a(S'2015-08-04 14:18:32.244000'
S'data saved as csv to C:\\Users\\oleach\\Charlie-master\\Charlie-master\\charlie\\data\\csv\\4436_scap.csv'
tp191
a(S'2015-08-04 14:18:41.864000'
g115
tp192
a(S'2015-08-04 14:18:41.872000'
g117
tp193
a(S'2015-08-04 14:18:41.875000'
S'data saved as csv to C:\\Users\\oleach\\Charlie-master\\Charlie-master\\charlie\\data\\csv\\4436_scap.csv'
tp194
a(S'2015-08-04 14:18:48.092000'
g115
tp195
a(S'2015-08-04 14:18:48.099000'
g117
tp196
a(S'2015-08-04 14:18:48.102000'
S'data saved as csv to C:\\Users\\oleach\\Charlie-master\\Charlie-master\\charlie\\data\\csv\\4436_scap.csv'
tp197
a(S'2015-08-04 14:18:56.931000'
g115
tp198
a(S'2015-08-04 14:18:56.941000'
g117
tp199
a(S'2015-08-04 14:18:56.945000'
S'data saved as csv to C:\\Users\\oleach\\Charlie-master\\Charlie-master\\charlie\\data\\csv\\4436_scap.csv'
tp200
a(S'2015-08-04 14:19:04.902000'
g115
tp201
a(S'2015-08-04 14:19:04.905000'
g117
tp202
a(S'2015-08-04 14:19:04.906000'
S'data saved as csv to C:\\Users\\oleach\\Charlie-master\\Charlie-master\\charlie\\data\\csv\\4436_scap.csv'
tp203
a(S'2015-08-04 14:19:13.411000'
g115
tp204
a(S'2015-08-04 14:19:13.420000'
g117
tp205
a(S'2015-08-04 14:19:13.424000'
S'data saved as csv to C:\\Users\\oleach\\Charlie-master\\Charlie-master\\charlie\\data\\csv\\4436_scap.csv'
tp206
a(S'2015-08-04 14:19:22.733000'
g115
tp207
a(S'2015-08-04 14:19:22.739000'
g117
tp208
a(S'2015-08-04 14:19:22.742000'
S'data saved as csv to C:\\Users\\oleach\\Charlie-master\\Charlie-master\\charlie\\data\\csv\\4436_scap.csv'
tp209
a(S'2015-08-04 14:19:30.703000'
g115
tp210
a(S'2015-08-04 14:19:30.712000'
g117
tp211
a(S'2015-08-04 14:19:30.715000'
S'data saved as csv to C:\\Users\\oleach\\Charlie-master\\Charlie-master\\charlie\\data\\csv\\4436_scap.csv'
tp212
a(S'2015-08-04 14:19:38.954000'
g115
tp213
a(S'2015-08-04 14:19:38.965000'
g117
tp214
a(S'2015-08-04 14:19:38.969000'
S'data saved as csv to C:\\Users\\oleach\\Charlie-master\\Charlie-master\\charlie\\data\\csv\\4436_scap.csv'
tp215
a(S'2015-08-04 14:19:49.726000'
g115
tp216
a(S'2015-08-04 14:19:49.729000'
g117
tp217
a(S'2015-08-04 14:19:49.730000'
S'data saved as csv to C:\\Users\\oleach\\Charlie-master\\Charlie-master\\charlie\\data\\csv\\4436_scap.csv'
tp218
a(S'2015-08-04 14:19:56.614000'
g115
tp219
a(S'2015-08-04 14:19:56.616000'
g117
tp220
a(S'2015-08-04 14:19:56.618000'
S'data saved as csv to C:\\Users\\oleach\\Charlie-master\\Charlie-master\\charlie\\data\\csv\\4436_scap.csv'
tp221
a(S'2015-08-04 14:20:06.826000'
g115
tp222
a(S'2015-08-04 14:20:06.829000'
g117
tp223
a(S'2015-08-04 14:20:06.830000'
S'data saved as csv to C:\\Users\\oleach\\Charlie-master\\Charlie-master\\charlie\\data\\csv\\4436_scap.csv'
tp224
a(S'2015-08-04 14:20:14.741000'
g115
tp225
a(S'2015-08-04 14:20:14.750000'
g117
tp226
a(S'2015-08-04 14:20:14.753000'
S'data saved as csv to C:\\Users\\oleach\\Charlie-master\\Charlie-master\\charlie\\data\\csv\\4436_scap.csv'
tp227
a(S'2015-08-04 14:20:31.303000'
g115
tp228
a(S'2015-08-04 14:20:31.314000'
g117
tp229
a(S'2015-08-04 14:20:31.318000'
S'data saved as csv to C:\\Users\\oleach\\Charlie-master\\Charlie-master\\charlie\\data\\csv\\4436_scap.csv'
tp230
a(S'2015-08-04 14:20:41.262000'
g115
tp231
a(S'2015-08-04 14:20:41.273000'
g117
tp232
a(S'2015-08-04 14:20:41.277000'
S'data saved as csv to C:\\Users\\oleach\\Charlie-master\\Charlie-master\\charlie\\data\\csv\\4436_scap.csv'
tp233
a(S'2015-08-04 14:20:54.335000'
g115
tp234
a(S'2015-08-04 14:20:54.345000'
g117
tp235
a(S'2015-08-04 14:20:54.350000'
S'data saved as csv to C:\\Users\\oleach\\Charlie-master\\Charlie-master\\charlie\\data\\csv\\4436_scap.csv'
tp236
a(S'2015-08-04 14:21:01.285000'
g115
tp237
a(S'2015-08-04 14:21:01.295000'
g117
tp238
a(S'2015-08-04 14:21:01.300000'
S'data saved as csv to C:\\Users\\oleach\\Charlie-master\\Charlie-master\\charlie\\data\\csv\\4436_scap.csv'
tp239
a(S'2015-08-04 14:21:08.277000'
g115
tp240
a(S'2015-08-04 14:21:08.287000'
g117
tp241
a(S'2015-08-04 14:21:08.292000'
S'data saved as csv to C:\\Users\\oleach\\Charlie-master\\Charlie-master\\charlie\\data\\csv\\4436_scap.csv'
tp242
a(S'2015-08-04 14:21:17.428000'
g115
tp243
a(S'2015-08-04 14:21:17.438000'
g117
tp244
a(S'2015-08-04 14:21:17.444000'
S'data saved as csv to C:\\Users\\oleach\\Charlie-master\\Charlie-master\\charlie\\data\\csv\\4436_scap.csv'
tp245
a(S'2015-08-04 14:21:25.251000'
g115
tp246
a(S'2015-08-04 14:21:25.261000'
g117
tp247
a(S'2015-08-04 14:21:25.266000'
S'data saved as csv to C:\\Users\\oleach\\Charlie-master\\Charlie-master\\charlie\\data\\csv\\4436_scap.csv'
tp248
a(S'2015-08-04 14:21:34.003000'
g115
tp249
a(S'2015-08-04 14:21:34.013000'
g117
tp250
a(S'2015-08-04 14:21:34.018000'
S'data saved as csv to C:\\Users\\oleach\\Charlie-master\\Charlie-master\\charlie\\data\\csv\\4436_scap.csv'
tp251
asb.