(icharlie.tools.data
Data
p1
(dp2
S'lang'
p3
S'EN'
p4
sS'control'
p5
(lp6
sS'last_updated'
p7
cdatetime
datetime
p8
(S'\x07\xdf\x08\x04\x0e\x0c&\x02"\xe0'
tRp9
sS'last_opened'
p10
g8
(S'\x07\xdf\x08\x04\x0e\x05.\x03\xc0\xf0'
tRp11
sS'proj_id'
p12
S'connectivity'
p13
sS'date_done'
p14
g8
(S'\x07\xdf\x08\x04\x0e\x0c&\x01\xff\xb8'
tRp15
sS'test_done'
p16
I01
sS'data'
p17
(lp18
(S'4436'
p19
S'verbal_fluency'
p20
I0
S'True'
p21
tp22
a(g19
g20
I0
g21
tp23
a(g19
g20
I0
g21
tp24
a(g19
g20
I0
g21
tp25
a(g19
g20
I0
g21
tp26
a(g19
g20
I0
g21
tp27
a(g19
g20
I0
g21
tp28
a(g19
g20
I0
g21
tp29
a(g19
g20
I0
g21
tp30
a(g19
g20
I0
g21
tp31
a(g19
g20
I0
g21
tp32
a(g19
g20
I0
g21
tp33
a(g19
g20
I0
g21
tp34
a(g19
g20
I0
g21
tp35
a(g19
g20
I0
g21
tp36
a(g19
g20
I0
g21
tp37
a(g19
g20
I0
g21
tp38
a(g19
g20
I0
g21
tp39
a(g19
g20
I0
S'False'
p40
tp41
a(g19
g20
I0
g21
tp42
a(g19
g20
I0
g21
tp43
a(g19
g20
I1
g21
tp44
a(g19
g20
I1
g21
tp45
a(g19
g20
I1
g21
tp46
a(g19
g20
I1
g21
tp47
a(g19
g20
I1
g21
tp48
a(g19
g20
I1
g21
tp49
a(g19
g20
I1
g21
tp50
a(g19
g20
I1
g21
tp51
a(g19
g20
I1
g21
tp52
a(g19
g20
I1
g21
tp53
a(g19
g20
I1
g21
tp54
a(g19
g20
I1
g21
tp55
a(g19
g20
I1
g21
tp56
a(g19
g20
I1
g21
tp57
a(g19
g20
I1
g21
tp58
a(g19
g20
I1
g40
tp59
a(g19
g20
I1
g21
tp60
a(g19
g20
I1
g21
tp61
a(g19
g20
I1
g21
tp62
a(g19
g20
I2
g21
tp63
a(g19
g20
I2
g21
tp64
a(g19
g20
I2
g21
tp65
a(g19
g20
I2
g21
tp66
a(g19
g20
I2
g21
tp67
a(g19
g20
I2
g21
tp68
a(g19
g20
I2
g40
tp69
a(g19
g20
I2
g21
tp70
a(g19
g20
I2
g21
tp71
a(g19
g20
I2
g21
tp72
a(g19
g20
I2
g21
tp73
a(g19
g20
I2
g21
tp74
a(g19
g20
I2
g21
tp75
a(g19
g20
I2
g21
tp76
a(g19
g20
I2
g21
tp77
a(g19
g20
I2
g21
tp78
a(g19
g20
I2
g21
tp79
a(g19
g20
I2
g21
tp80
a(g19
g20
I2
g21
tp81
a(g19
g20
I2
g21
tp82
a(g19
g20
I2
g21
tp83
a(g19
g20
I2
g21
tp84
a(g19
g20
I2
g21
tp85
a(g19
g20
I3
g21
tp86
a(g19
g20
I3
g21
tp87
a(g19
g20
I3
g21
tp88
a(g19
g20
I3
g21
tp89
a(g19
g20
I3
g21
tp90
a(g19
g20
I3
g21
tp91
a(g19
g20
I3
g21
tp92
a(g19
g20
I3
g21
tp93
a(g19
g20
I3
g21
tp94
a(g19
g20
I3
g21
tp95
a(g19
g20
I3
g21
tp96
a(g19
g20
I3
g21
tp97
a(g19
g20
I3
g21
tp98
a(g19
g20
I3
g21
tp99
a(g19
g20
I3
g21
tp100
a(g19
g20
I3
g21
tp101
a(g19
g20
I3
g21
tp102
a(g19
g20
I3
g21
tp103
a(g19
g20
I3
g21
tp104
a(g19
g20
I3
g21
tp105
a(g19
g20
I3
g21
tp106
a(g19
g20
I3
g21
tp107
a(g19
g20
I3
g21
tp108
a(g19
g20
I3
g21
tp109
a(g19
g20
I3
g21
tp110
a(g19
g20
I3
g21
tp111
a(g19
g20
I3
g21
tp112
asS'output_format'
p113
(lp114
(S'proband_id'
p115
c__builtin__
str
p116
tp117
a(S'test_name'
p118
g116
tp119
a(S'trialn'
p120
c__builtin__
int
p121
tp122
a(S'rsp'
p123
g116
tp124
asg115
g19
sS'filename'
p125
S'4436_verbal_fluency.data'
p126
sS'initialised'
p127
g8
(S'\x07\xdf\x08\x04\x0e\x05.\x03\xc0\xf0'
tRp128
sS'last_udated'
p129
g8
(S'\x07\xdf\x08\x04\x0e\x05.\x03\xc0\xf0'
tRp130
sg118
S'verbal_fluency'
p131
sS'directory'
p132
S'C:\\Users\\oleach\\Charlie-master\\Charlie-master\\charlie\\data\\raw'
p133
sS'user_id'
p134
S'oleach'
p135
sS'test_started'
p136
I01
sS'abs_filename'
p137
S'C:\\Users\\oleach\\Charlie-master\\Charlie-master\\charlie\\data\\raw\\4436_verbal_fluency.data'
p138
sS'date_started'
p139
g8
(S'\x07\xdf\x08\x04\x0e\t\x01\x07\xe3\x88'
tRp140
sS'log'
p141
(lp142
(S'2015-08-04 14:05:46.246000'
S'instance created'
p143
tp144
a(S'2015-08-04 14:09:01.527000'
S'instance updated'
p145
tp146
a(S'2015-08-04 14:09:01.531000'
S'pandas DataFrame of data created'
p147
tp148
a(S'2015-08-04 14:09:01.536000'
S'data saved as csv to C:\\Users\\oleach\\Charlie-master\\Charlie-master\\charlie\\data\\csv\\4436_verbal_fluency.csv'
tp149
a(S'2015-08-04 14:09:05.524000'
g145
tp150
a(S'2015-08-04 14:09:05.529000'
g147
tp151
a(S'2015-08-04 14:09:05.533000'
S'data saved as csv to C:\\Users\\oleach\\Charlie-master\\Charlie-master\\charlie\\data\\csv\\4436_verbal_fluency.csv'
tp152
a(S'2015-08-04 14:10:10.722000'
g145
tp153
a(S'2015-08-04 14:10:10.727000'
g147
tp154
a(S'2015-08-04 14:10:10.730000'
S'data saved as csv to C:\\Users\\oleach\\Charlie-master\\Charlie-master\\charlie\\data\\csv\\4436_verbal_fluency.csv'
tp155
a(S'2015-08-04 14:10:15.201000'
g145
tp156
a(S'2015-08-04 14:10:15.205000'
g147
tp157
a(S'2015-08-04 14:10:15.209000'
S'data saved as csv to C:\\Users\\oleach\\Charlie-master\\Charlie-master\\charlie\\data\\csv\\4436_verbal_fluency.csv'
tp158
a(S'2015-08-04 14:11:20.678000'
g145
tp159
a(S'2015-08-04 14:11:20.683000'
g147
tp160
a(S'2015-08-04 14:11:20.687000'
S'data saved as csv to C:\\Users\\oleach\\Charlie-master\\Charlie-master\\charlie\\data\\csv\\4436_verbal_fluency.csv'
tp161
a(S'2015-08-04 14:11:32.612000'
g145
tp162
a(S'2015-08-04 14:11:32.617000'
g147
tp163
a(S'2015-08-04 14:11:32.620000'
S'data saved as csv to C:\\Users\\oleach\\Charlie-master\\Charlie-master\\charlie\\data\\csv\\4436_verbal_fluency.csv'
tp164
a(S'2015-08-04 14:12:38.130000'
g145
tp165
a(S'2015-08-04 14:12:38.136000'
g147
tp166
a(S'2015-08-04 14:12:38.140000'
S'data saved as csv to C:\\Users\\oleach\\Charlie-master\\Charlie-master\\charlie\\data\\csv\\4436_verbal_fluency.csv'
tp167
asb.