(icharlie.tools.data
Data
p1
(dp2
S'lang'
p3
S'EN'
p4
sS'control'
p5
(lp6
sS'last_updated'
p7
cdatetime
datetime
p8
(S'\x07\xdf\x08\x04\x0f\x03.\x03~\x88'
tRp9
sS'last_opened'
p10
g8
(S'\x07\xdf\x08\x04\x0e;\n\x03,\x80'
tRp11
sS'proj_id'
p12
S'connectivity'
p13
sS'date_done'
p14
NsS'test_done'
p15
I01
sS'data'
p16
(lp17
(S'4436'
p18
S'pcet'
p19
S'practice'
p20
I0
NI2
I2
I2
I2
S'C:\\Users\\oleach\\Charlie-master\\Charlie-master\\charlie\\stimuli\\visual\\pcet\\000.png'
S'C:\\Users\\oleach\\Charlie-master\\Charlie-master\\charlie\\stimuli\\visual\\pcet\\000.png'
S'C:\\Users\\oleach\\Charlie-master\\Charlie-master\\charlie\\stimuli\\visual\\pcet\\111.png'
S'C:\\Users\\oleach\\Charlie-master\\Charlie-master\\charlie\\stimuli\\visual\\pcet\\000.png'
I2
I2290
tp21
a(g18
g19
S'test'
p22
I0
S'thickness'
p23
I3
NNI1
S'C:\\Users\\oleach\\Charlie-master\\Charlie-master\\charlie\\stimuli\\visual\\pcet\\010.png'
S'C:\\Users\\oleach\\Charlie-master\\Charlie-master\\charlie\\stimuli\\visual\\pcet\\000.png'
S'C:\\Users\\oleach\\Charlie-master\\Charlie-master\\charlie\\stimuli\\visual\\pcet\\001.png'
S'C:\\Users\\oleach\\Charlie-master\\Charlie-master\\charlie\\stimuli\\visual\\pcet\\100.png'
I0
I2280
tp24
a(g18
g19
g22
I1
g23
I2
NNI0
S'C:\\Users\\oleach\\Charlie-master\\Charlie-master\\charlie\\stimuli\\visual\\pcet\\110.png'
S'C:\\Users\\oleach\\Charlie-master\\Charlie-master\\charlie\\stimuli\\visual\\pcet\\111.png'
S'C:\\Users\\oleach\\Charlie-master\\Charlie-master\\charlie\\stimuli\\visual\\pcet\\010.png'
S'C:\\Users\\oleach\\Charlie-master\\Charlie-master\\charlie\\stimuli\\visual\\pcet\\100.png'
I3
I2271
tp25
a(g18
g19
g22
I2
g23
I0
NNI3
S'C:\\Users\\oleach\\Charlie-master\\Charlie-master\\charlie\\stimuli\\visual\\pcet\\010.png'
S'C:\\Users\\oleach\\Charlie-master\\Charlie-master\\charlie\\stimuli\\visual\\pcet\\111.png'
S'C:\\Users\\oleach\\Charlie-master\\Charlie-master\\charlie\\stimuli\\visual\\pcet\\100.png'
S'C:\\Users\\oleach\\Charlie-master\\Charlie-master\\charlie\\stimuli\\visual\\pcet\\110.png'
I2
I1260
tp26
a(g18
g19
g22
I3
g23
I3
NNI1
S'C:\\Users\\oleach\\Charlie-master\\Charlie-master\\charlie\\stimuli\\visual\\pcet\\000.png'
S'C:\\Users\\oleach\\Charlie-master\\Charlie-master\\charlie\\stimuli\\visual\\pcet\\010.png'
S'C:\\Users\\oleach\\Charlie-master\\Charlie-master\\charlie\\stimuli\\visual\\pcet\\011.png'
S'C:\\Users\\oleach\\Charlie-master\\Charlie-master\\charlie\\stimuli\\visual\\pcet\\110.png'
I0
I1410
tp27
a(g18
g19
g22
I4
g23
I0
NNI3
S'C:\\Users\\oleach\\Charlie-master\\Charlie-master\\charlie\\stimuli\\visual\\pcet\\011.png'
S'C:\\Users\\oleach\\Charlie-master\\Charlie-master\\charlie\\stimuli\\visual\\pcet\\110.png'
S'C:\\Users\\oleach\\Charlie-master\\Charlie-master\\charlie\\stimuli\\visual\\pcet\\101.png'
S'C:\\Users\\oleach\\Charlie-master\\Charlie-master\\charlie\\stimuli\\visual\\pcet\\111.png'
I2
I980
tp28
a(g18
g19
g22
I5
g23
I3
NNI1
S'C:\\Users\\oleach\\Charlie-master\\Charlie-master\\charlie\\stimuli\\visual\\pcet\\100.png'
S'C:\\Users\\oleach\\Charlie-master\\Charlie-master\\charlie\\stimuli\\visual\\pcet\\101.png'
S'C:\\Users\\oleach\\Charlie-master\\Charlie-master\\charlie\\stimuli\\visual\\pcet\\111.png'
S'C:\\Users\\oleach\\Charlie-master\\Charlie-master\\charlie\\stimuli\\visual\\pcet\\001.png'
I2
I1590
tp29
a(g18
g19
g22
I6
g23
I1
NNI3
S'C:\\Users\\oleach\\Charlie-master\\Charlie-master\\charlie\\stimuli\\visual\\pcet\\010.png'
S'C:\\Users\\oleach\\Charlie-master\\Charlie-master\\charlie\\stimuli\\visual\\pcet\\100.png'
S'C:\\Users\\oleach\\Charlie-master\\Charlie-master\\charlie\\stimuli\\visual\\pcet\\001.png'
S'C:\\Users\\oleach\\Charlie-master\\Charlie-master\\charlie\\stimuli\\visual\\pcet\\000.png'
I0
I1900
tp30
a(g18
g19
g22
I7
g23
I0
NNI1
S'C:\\Users\\oleach\\Charlie-master\\Charlie-master\\charlie\\stimuli\\visual\\pcet\\101.png'
S'C:\\Users\\oleach\\Charlie-master\\Charlie-master\\charlie\\stimuli\\visual\\pcet\\001.png'
S'C:\\Users\\oleach\\Charlie-master\\Charlie-master\\charlie\\stimuli\\visual\\pcet\\000.png'
S'C:\\Users\\oleach\\Charlie-master\\Charlie-master\\charlie\\stimuli\\visual\\pcet\\011.png'
I3
I910
tp31
a(g18
g19
g22
I8
g23
I0
NNI1
S'C:\\Users\\oleach\\Charlie-master\\Charlie-master\\charlie\\stimuli\\visual\\pcet\\010.png'
S'C:\\Users\\oleach\\Charlie-master\\Charlie-master\\charlie\\stimuli\\visual\\pcet\\110.png'
S'C:\\Users\\oleach\\Charlie-master\\Charlie-master\\charlie\\stimuli\\visual\\pcet\\111.png'
S'C:\\Users\\oleach\\Charlie-master\\Charlie-master\\charlie\\stimuli\\visual\\pcet\\100.png'
I3
I3291
tp32
a(g18
g19
g22
I9
g23
I1
NNI3
S'C:\\Users\\oleach\\Charlie-master\\Charlie-master\\charlie\\stimuli\\visual\\pcet\\100.png'
S'C:\\Users\\oleach\\Charlie-master\\Charlie-master\\charlie\\stimuli\\visual\\pcet\\010.png'
S'C:\\Users\\oleach\\Charlie-master\\Charlie-master\\charlie\\stimuli\\visual\\pcet\\111.png'
S'C:\\Users\\oleach\\Charlie-master\\Charlie-master\\charlie\\stimuli\\visual\\pcet\\110.png'
I0
I1340
tp33
a(g18
g19
g22
I10
g23
I2
NNI0
S'C:\\Users\\oleach\\Charlie-master\\Charlie-master\\charlie\\stimuli\\visual\\pcet\\111.png'
S'C:\\Users\\oleach\\Charlie-master\\Charlie-master\\charlie\\stimuli\\visual\\pcet\\101.png'
S'C:\\Users\\oleach\\Charlie-master\\Charlie-master\\charlie\\stimuli\\visual\\pcet\\011.png'
S'C:\\Users\\oleach\\Charlie-master\\Charlie-master\\charlie\\stimuli\\visual\\pcet\\110.png'
I1
I1020
tp34
a(g18
g19
g22
I11
g23
I0
NNI1
S'C:\\Users\\oleach\\Charlie-master\\Charlie-master\\charlie\\stimuli\\visual\\pcet\\011.png'
S'C:\\Users\\oleach\\Charlie-master\\Charlie-master\\charlie\\stimuli\\visual\\pcet\\111.png'
S'C:\\Users\\oleach\\Charlie-master\\Charlie-master\\charlie\\stimuli\\visual\\pcet\\101.png'
S'C:\\Users\\oleach\\Charlie-master\\Charlie-master\\charlie\\stimuli\\visual\\pcet\\110.png'
I2
I820
tp35
a(g18
g19
g22
I12
S'shape'
p36
I0
I3
I2
I1
S'C:\\Users\\oleach\\Charlie-master\\Charlie-master\\charlie\\stimuli\\visual\\pcet\\110.png'
S'C:\\Users\\oleach\\Charlie-master\\Charlie-master\\charlie\\stimuli\\visual\\pcet\\100.png'
S'C:\\Users\\oleach\\Charlie-master\\Charlie-master\\charlie\\stimuli\\visual\\pcet\\101.png'
S'C:\\Users\\oleach\\Charlie-master\\Charlie-master\\charlie\\stimuli\\visual\\pcet\\000.png'
I0
I1990
tp37
a(g18
g19
g22
I13
S'shape'
p38
I3
I2
I1
I0
S'C:\\Users\\oleach\\Charlie-master\\Charlie-master\\charlie\\stimuli\\visual\\pcet\\101.png'
S'C:\\Users\\oleach\\Charlie-master\\Charlie-master\\charlie\\stimuli\\visual\\pcet\\100.png'
S'C:\\Users\\oleach\\Charlie-master\\Charlie-master\\charlie\\stimuli\\visual\\pcet\\001.png'
S'C:\\Users\\oleach\\Charlie-master\\Charlie-master\\charlie\\stimuli\\visual\\pcet\\111.png'
I3
I3801
tp39
a(g18
g19
g22
I14
S'shape'
p40
I3
I1
I0
I2
S'C:\\Users\\oleach\\Charlie-master\\Charlie-master\\charlie\\stimuli\\visual\\pcet\\101.png'
S'C:\\Users\\oleach\\Charlie-master\\Charlie-master\\charlie\\stimuli\\visual\\pcet\\000.png'
S'C:\\Users\\oleach\\Charlie-master\\Charlie-master\\charlie\\stimuli\\visual\\pcet\\100.png'
S'C:\\Users\\oleach\\Charlie-master\\Charlie-master\\charlie\\stimuli\\visual\\pcet\\110.png'
I3
I2240
tp41
a(g18
g19
g22
I15
S'shape'
p42
I1
I3
I0
I2
S'C:\\Users\\oleach\\Charlie-master\\Charlie-master\\charlie\\stimuli\\visual\\pcet\\101.png'
S'C:\\Users\\oleach\\Charlie-master\\Charlie-master\\charlie\\stimuli\\visual\\pcet\\110.png'
S'C:\\Users\\oleach\\Charlie-master\\Charlie-master\\charlie\\stimuli\\visual\\pcet\\100.png'
S'C:\\Users\\oleach\\Charlie-master\\Charlie-master\\charlie\\stimuli\\visual\\pcet\\000.png'
I1
I1510
tp43
a(g18
g19
g22
I16
S'shape'
p44
I1
I0
I3
I2
S'C:\\Users\\oleach\\Charlie-master\\Charlie-master\\charlie\\stimuli\\visual\\pcet\\111.png'
S'C:\\Users\\oleach\\Charlie-master\\Charlie-master\\charlie\\stimuli\\visual\\pcet\\001.png'
S'C:\\Users\\oleach\\Charlie-master\\Charlie-master\\charlie\\stimuli\\visual\\pcet\\011.png'
S'C:\\Users\\oleach\\Charlie-master\\Charlie-master\\charlie\\stimuli\\visual\\pcet\\010.png'
I1
I2700
tp45
a(g18
g19
g22
I17
S'shape'
p46
I2
I1
I3
I0
S'C:\\Users\\oleach\\Charlie-master\\Charlie-master\\charlie\\stimuli\\visual\\pcet\\111.png'
S'C:\\Users\\oleach\\Charlie-master\\Charlie-master\\charlie\\stimuli\\visual\\pcet\\011.png'
S'C:\\Users\\oleach\\Charlie-master\\Charlie-master\\charlie\\stimuli\\visual\\pcet\\101.png'
S'C:\\Users\\oleach\\Charlie-master\\Charlie-master\\charlie\\stimuli\\visual\\pcet\\110.png'
I2
I3490
tp47
a(g18
g19
g22
I18
S'shape'
p48
I3
I2
I1
I0
S'C:\\Users\\oleach\\Charlie-master\\Charlie-master\\charlie\\stimuli\\visual\\pcet\\010.png'
S'C:\\Users\\oleach\\Charlie-master\\Charlie-master\\charlie\\stimuli\\visual\\pcet\\011.png'
S'C:\\Users\\oleach\\Charlie-master\\Charlie-master\\charlie\\stimuli\\visual\\pcet\\110.png'
S'C:\\Users\\oleach\\Charlie-master\\Charlie-master\\charlie\\stimuli\\visual\\pcet\\000.png'
I3
I3031
tp49
a(g18
g19
g22
I19
S'shape'
p50
I1
I0
I2
I3
S'C:\\Users\\oleach\\Charlie-master\\Charlie-master\\charlie\\stimuli\\visual\\pcet\\000.png'
S'C:\\Users\\oleach\\Charlie-master\\Charlie-master\\charlie\\stimuli\\visual\\pcet\\110.png'
S'C:\\Users\\oleach\\Charlie-master\\Charlie-master\\charlie\\stimuli\\visual\\pcet\\101.png'
S'C:\\Users\\oleach\\Charlie-master\\Charlie-master\\charlie\\stimuli\\visual\\pcet\\100.png'
I1
I1160
tp51
a(g18
g19
g22
I20
S'shape'
p52
I3
I2
I1
I0
S'C:\\Users\\oleach\\Charlie-master\\Charlie-master\\charlie\\stimuli\\visual\\pcet\\101.png'
S'C:\\Users\\oleach\\Charlie-master\\Charlie-master\\charlie\\stimuli\\visual\\pcet\\100.png'
S'C:\\Users\\oleach\\Charlie-master\\Charlie-master\\charlie\\stimuli\\visual\\pcet\\001.png'
S'C:\\Users\\oleach\\Charlie-master\\Charlie-master\\charlie\\stimuli\\visual\\pcet\\111.png'
I3
I1360
tp53
a(g18
g19
g22
I21
S'shape'
p54
I1
I0
I3
I2
S'C:\\Users\\oleach\\Charlie-master\\Charlie-master\\charlie\\stimuli\\visual\\pcet\\010.png'
S'C:\\Users\\oleach\\Charlie-master\\Charlie-master\\charlie\\stimuli\\visual\\pcet\\100.png'
S'C:\\Users\\oleach\\Charlie-master\\Charlie-master\\charlie\\stimuli\\visual\\pcet\\110.png'
S'C:\\Users\\oleach\\Charlie-master\\Charlie-master\\charlie\\stimuli\\visual\\pcet\\111.png'
I1
I1540
tp55
a(g18
g19
g22
I22
S'shape'
p56
I2
I1
I0
I3
S'C:\\Users\\oleach\\Charlie-master\\Charlie-master\\charlie\\stimuli\\visual\\pcet\\000.png'
S'C:\\Users\\oleach\\Charlie-master\\Charlie-master\\charlie\\stimuli\\visual\\pcet\\101.png'
S'C:\\Users\\oleach\\Charlie-master\\Charlie-master\\charlie\\stimuli\\visual\\pcet\\011.png'
S'C:\\Users\\oleach\\Charlie-master\\Charlie-master\\charlie\\stimuli\\visual\\pcet\\001.png'
I2
I1290
tp57
a(g18
g19
g22
I23
S'shape'
p58
I1
I0
I2
I3
S'C:\\Users\\oleach\\Charlie-master\\Charlie-master\\charlie\\stimuli\\visual\\pcet\\100.png'
S'C:\\Users\\oleach\\Charlie-master\\Charlie-master\\charlie\\stimuli\\visual\\pcet\\010.png'
S'C:\\Users\\oleach\\Charlie-master\\Charlie-master\\charlie\\stimuli\\visual\\pcet\\001.png'
S'C:\\Users\\oleach\\Charlie-master\\Charlie-master\\charlie\\stimuli\\visual\\pcet\\000.png'
I1
I1370
tp59
a(g18
g19
g22
I24
S'size'
p60
I0
I2
I3
I1
S'C:\\Users\\oleach\\Charlie-master\\Charlie-master\\charlie\\stimuli\\visual\\pcet\\101.png'
S'C:\\Users\\oleach\\Charlie-master\\Charlie-master\\charlie\\stimuli\\visual\\pcet\\100.png'
S'C:\\Users\\oleach\\Charlie-master\\Charlie-master\\charlie\\stimuli\\visual\\pcet\\110.png'
S'C:\\Users\\oleach\\Charlie-master\\Charlie-master\\charlie\\stimuli\\visual\\pcet\\000.png'
I2
I2431
tp61
a(g18
g19
g22
I25
S'size'
p62
I3
I2
I0
I1
S'C:\\Users\\oleach\\Charlie-master\\Charlie-master\\charlie\\stimuli\\visual\\pcet\\001.png'
S'C:\\Users\\oleach\\Charlie-master\\Charlie-master\\charlie\\stimuli\\visual\\pcet\\101.png'
S'C:\\Users\\oleach\\Charlie-master\\Charlie-master\\charlie\\stimuli\\visual\\pcet\\111.png'
S'C:\\Users\\oleach\\Charlie-master\\Charlie-master\\charlie\\stimuli\\visual\\pcet\\100.png'
I2
I2800
tp63
a(g18
g19
g22
I26
S'size'
p64
I0
I3
I2
I1
S'C:\\Users\\oleach\\Charlie-master\\Charlie-master\\charlie\\stimuli\\visual\\pcet\\000.png'
S'C:\\Users\\oleach\\Charlie-master\\Charlie-master\\charlie\\stimuli\\visual\\pcet\\001.png'
S'C:\\Users\\oleach\\Charlie-master\\Charlie-master\\charlie\\stimuli\\visual\\pcet\\101.png'
S'C:\\Users\\oleach\\Charlie-master\\Charlie-master\\charlie\\stimuli\\visual\\pcet\\011.png'
I3
I4500
tp65
a(g18
g19
g22
I27
S'size'
p66
I1
I2
I3
I0
S'C:\\Users\\oleach\\Charlie-master\\Charlie-master\\charlie\\stimuli\\visual\\pcet\\101.png'
S'C:\\Users\\oleach\\Charlie-master\\Charlie-master\\charlie\\stimuli\\visual\\pcet\\100.png'
S'C:\\Users\\oleach\\Charlie-master\\Charlie-master\\charlie\\stimuli\\visual\\pcet\\111.png'
S'C:\\Users\\oleach\\Charlie-master\\Charlie-master\\charlie\\stimuli\\visual\\pcet\\001.png'
I3
I1390
tp67
a(g18
g19
g22
I28
S'size'
p68
I2
I3
I1
I0
S'C:\\Users\\oleach\\Charlie-master\\Charlie-master\\charlie\\stimuli\\visual\\pcet\\110.png'
S'C:\\Users\\oleach\\Charlie-master\\Charlie-master\\charlie\\stimuli\\visual\\pcet\\010.png'
S'C:\\Users\\oleach\\Charlie-master\\Charlie-master\\charlie\\stimuli\\visual\\pcet\\111.png'
S'C:\\Users\\oleach\\Charlie-master\\Charlie-master\\charlie\\stimuli\\visual\\pcet\\100.png'
I3
I2460
tp69
a(g18
g19
g22
I29
S'size'
p70
I1
I0
I2
I3
S'C:\\Users\\oleach\\Charlie-master\\Charlie-master\\charlie\\stimuli\\visual\\pcet\\111.png'
S'C:\\Users\\oleach\\Charlie-master\\Charlie-master\\charlie\\stimuli\\visual\\pcet\\100.png'
S'C:\\Users\\oleach\\Charlie-master\\Charlie-master\\charlie\\stimuli\\visual\\pcet\\001.png'
S'C:\\Users\\oleach\\Charlie-master\\Charlie-master\\charlie\\stimuli\\visual\\pcet\\101.png'
I0
I3791
tp71
a(g18
g19
g22
I30
S'size'
p72
I0
I1
I2
I3
S'C:\\Users\\oleach\\Charlie-master\\Charlie-master\\charlie\\stimuli\\visual\\pcet\\011.png'
S'C:\\Users\\oleach\\Charlie-master\\Charlie-master\\charlie\\stimuli\\visual\\pcet\\000.png'
S'C:\\Users\\oleach\\Charlie-master\\Charlie-master\\charlie\\stimuli\\visual\\pcet\\110.png'
S'C:\\Users\\oleach\\Charlie-master\\Charlie-master\\charlie\\stimuli\\visual\\pcet\\010.png'
I2
I2930
tp73
a(g18
g19
g22
I31
S'size'
p74
I3
I1
I0
I2
S'C:\\Users\\oleach\\Charlie-master\\Charlie-master\\charlie\\stimuli\\visual\\pcet\\110.png'
S'C:\\Users\\oleach\\Charlie-master\\Charlie-master\\charlie\\stimuli\\visual\\pcet\\000.png'
S'C:\\Users\\oleach\\Charlie-master\\Charlie-master\\charlie\\stimuli\\visual\\pcet\\010.png'
S'C:\\Users\\oleach\\Charlie-master\\Charlie-master\\charlie\\stimuli\\visual\\pcet\\011.png'
I1
I1350
tp75
a(g18
g19
g22
I32
S'size'
p76
I0
I2
I1
I3
S'C:\\Users\\oleach\\Charlie-master\\Charlie-master\\charlie\\stimuli\\visual\\pcet\\000.png'
S'C:\\Users\\oleach\\Charlie-master\\Charlie-master\\charlie\\stimuli\\visual\\pcet\\101.png'
S'C:\\Users\\oleach\\Charlie-master\\Charlie-master\\charlie\\stimuli\\visual\\pcet\\011.png'
S'C:\\Users\\oleach\\Charlie-master\\Charlie-master\\charlie\\stimuli\\visual\\pcet\\001.png'
I2
I3890
tp77
a(g18
g19
g22
I33
S'size'
p78
I3
I1
I2
I0
S'C:\\Users\\oleach\\Charlie-master\\Charlie-master\\charlie\\stimuli\\visual\\pcet\\011.png'
S'C:\\Users\\oleach\\Charlie-master\\Charlie-master\\charlie\\stimuli\\visual\\pcet\\001.png'
S'C:\\Users\\oleach\\Charlie-master\\Charlie-master\\charlie\\stimuli\\visual\\pcet\\111.png'
S'C:\\Users\\oleach\\Charlie-master\\Charlie-master\\charlie\\stimuli\\visual\\pcet\\010.png'
I2
I2470
tp79
a(g18
g19
g22
I34
S'size'
p80
I2
I3
I1
I0
S'C:\\Users\\oleach\\Charlie-master\\Charlie-master\\charlie\\stimuli\\visual\\pcet\\011.png'
S'C:\\Users\\oleach\\Charlie-master\\Charlie-master\\charlie\\stimuli\\visual\\pcet\\111.png'
S'C:\\Users\\oleach\\Charlie-master\\Charlie-master\\charlie\\stimuli\\visual\\pcet\\010.png'
S'C:\\Users\\oleach\\Charlie-master\\Charlie-master\\charlie\\stimuli\\visual\\pcet\\001.png'
I3
I1420
tp81
a(g18
g19
g22
I35
S'size'
p82
I2
I0
I1
I3
S'C:\\Users\\oleach\\Charlie-master\\Charlie-master\\charlie\\stimuli\\visual\\pcet\\010.png'
S'C:\\Users\\oleach\\Charlie-master\\Charlie-master\\charlie\\stimuli\\visual\\pcet\\100.png'
S'C:\\Users\\oleach\\Charlie-master\\Charlie-master\\charlie\\stimuli\\visual\\pcet\\001.png'
S'C:\\Users\\oleach\\Charlie-master\\Charlie-master\\charlie\\stimuli\\visual\\pcet\\000.png'
I0
I1900
tp83
a(g18
g19
g22
I36
g23
I2
I3
I1
I0
S'C:\\Users\\oleach\\Charlie-master\\Charlie-master\\charlie\\stimuli\\visual\\pcet\\010.png'
S'C:\\Users\\oleach\\Charlie-master\\Charlie-master\\charlie\\stimuli\\visual\\pcet\\000.png'
S'C:\\Users\\oleach\\Charlie-master\\Charlie-master\\charlie\\stimuli\\visual\\pcet\\110.png'
S'C:\\Users\\oleach\\Charlie-master\\Charlie-master\\charlie\\stimuli\\visual\\pcet\\011.png'
I1
I1780
tp84
a(g18
g19
g22
I37
g23
I3
I2
I1
I0
S'C:\\Users\\oleach\\Charlie-master\\Charlie-master\\charlie\\stimuli\\visual\\pcet\\101.png'
S'C:\\Users\\oleach\\Charlie-master\\Charlie-master\\charlie\\stimuli\\visual\\pcet\\111.png'
S'C:\\Users\\oleach\\Charlie-master\\Charlie-master\\charlie\\stimuli\\visual\\pcet\\100.png'
S'C:\\Users\\oleach\\Charlie-master\\Charlie-master\\charlie\\stimuli\\visual\\pcet\\001.png'
I3
I620
tp85
a(g18
g19
g22
I38
g23
I0
I3
I1
I2
S'C:\\Users\\oleach\\Charlie-master\\Charlie-master\\charlie\\stimuli\\visual\\pcet\\100.png'
S'C:\\Users\\oleach\\Charlie-master\\Charlie-master\\charlie\\stimuli\\visual\\pcet\\010.png'
S'C:\\Users\\oleach\\Charlie-master\\Charlie-master\\charlie\\stimuli\\visual\\pcet\\000.png'
S'C:\\Users\\oleach\\Charlie-master\\Charlie-master\\charlie\\stimuli\\visual\\pcet\\001.png'
I3
I2350
tp86
a(g18
g19
g22
I39
g23
I0
I3
I2
I1
S'C:\\Users\\oleach\\Charlie-master\\Charlie-master\\charlie\\stimuli\\visual\\pcet\\010.png'
S'C:\\Users\\oleach\\Charlie-master\\Charlie-master\\charlie\\stimuli\\visual\\pcet\\110.png'
S'C:\\Users\\oleach\\Charlie-master\\Charlie-master\\charlie\\stimuli\\visual\\pcet\\100.png'
S'C:\\Users\\oleach\\Charlie-master\\Charlie-master\\charlie\\stimuli\\visual\\pcet\\111.png'
I1
I1040
tp87
a(g18
g19
g22
I40
g23
I0
I1
I2
I3
S'C:\\Users\\oleach\\Charlie-master\\Charlie-master\\charlie\\stimuli\\visual\\pcet\\001.png'
S'C:\\Users\\oleach\\Charlie-master\\Charlie-master\\charlie\\stimuli\\visual\\pcet\\100.png'
S'C:\\Users\\oleach\\Charlie-master\\Charlie-master\\charlie\\stimuli\\visual\\pcet\\111.png'
S'C:\\Users\\oleach\\Charlie-master\\Charlie-master\\charlie\\stimuli\\visual\\pcet\\101.png'
I2
I3071
tp88
a(g18
g19
g22
I41
g23
I3
I0
I2
I1
S'C:\\Users\\oleach\\Charlie-master\\Charlie-master\\charlie\\stimuli\\visual\\pcet\\111.png'
S'C:\\Users\\oleach\\Charlie-master\\Charlie-master\\charlie\\stimuli\\visual\\pcet\\110.png'
S'C:\\Users\\oleach\\Charlie-master\\Charlie-master\\charlie\\stimuli\\visual\\pcet\\100.png'
S'C:\\Users\\oleach\\Charlie-master\\Charlie-master\\charlie\\stimuli\\visual\\pcet\\010.png'
I3
I1940
tp89
a(g18
g19
g22
I42
g23
I0
I3
I1
I2
S'C:\\Users\\oleach\\Charlie-master\\Charlie-master\\charlie\\stimuli\\visual\\pcet\\110.png'
S'C:\\Users\\oleach\\Charlie-master\\Charlie-master\\charlie\\stimuli\\visual\\pcet\\000.png'
S'C:\\Users\\oleach\\Charlie-master\\Charlie-master\\charlie\\stimuli\\visual\\pcet\\010.png'
S'C:\\Users\\oleach\\Charlie-master\\Charlie-master\\charlie\\stimuli\\visual\\pcet\\011.png'
I1
I3860
tp90
a(g18
g19
g22
I43
g23
I0
I3
I2
I1
S'C:\\Users\\oleach\\Charlie-master\\Charlie-master\\charlie\\stimuli\\visual\\pcet\\000.png'
S'C:\\Users\\oleach\\Charlie-master\\Charlie-master\\charlie\\stimuli\\visual\\pcet\\100.png'
S'C:\\Users\\oleach\\Charlie-master\\Charlie-master\\charlie\\stimuli\\visual\\pcet\\110.png'
S'C:\\Users\\oleach\\Charlie-master\\Charlie-master\\charlie\\stimuli\\visual\\pcet\\101.png'
I2
I2040
tp91
a(g18
g19
g22
I44
g23
I2
I1
I3
I0
S'C:\\Users\\oleach\\Charlie-master\\Charlie-master\\charlie\\stimuli\\visual\\pcet\\010.png'
S'C:\\Users\\oleach\\Charlie-master\\Charlie-master\\charlie\\stimuli\\visual\\pcet\\011.png'
S'C:\\Users\\oleach\\Charlie-master\\Charlie-master\\charlie\\stimuli\\visual\\pcet\\110.png'
S'C:\\Users\\oleach\\Charlie-master\\Charlie-master\\charlie\\stimuli\\visual\\pcet\\000.png'
I3
I1300
tp92
a(g18
g19
g22
I45
g23
I3
I0
I2
I1
S'C:\\Users\\oleach\\Charlie-master\\Charlie-master\\charlie\\stimuli\\visual\\pcet\\011.png'
S'C:\\Users\\oleach\\Charlie-master\\Charlie-master\\charlie\\stimuli\\visual\\pcet\\010.png'
S'C:\\Users\\oleach\\Charlie-master\\Charlie-master\\charlie\\stimuli\\visual\\pcet\\000.png'
S'C:\\Users\\oleach\\Charlie-master\\Charlie-master\\charlie\\stimuli\\visual\\pcet\\110.png'
I2
I2141
tp93
a(g18
g19
g22
I46
g23
I1
I3
I2
I0
S'C:\\Users\\oleach\\Charlie-master\\Charlie-master\\charlie\\stimuli\\visual\\pcet\\101.png'
S'C:\\Users\\oleach\\Charlie-master\\Charlie-master\\charlie\\stimuli\\visual\\pcet\\001.png'
S'C:\\Users\\oleach\\Charlie-master\\Charlie-master\\charlie\\stimuli\\visual\\pcet\\111.png'
S'C:\\Users\\oleach\\Charlie-master\\Charlie-master\\charlie\\stimuli\\visual\\pcet\\100.png'
I2
I1720
tp94
a(g18
g19
g22
I47
g23
I1
I3
I2
I0
S'C:\\Users\\oleach\\Charlie-master\\Charlie-master\\charlie\\stimuli\\visual\\pcet\\010.png'
S'C:\\Users\\oleach\\Charlie-master\\Charlie-master\\charlie\\stimuli\\visual\\pcet\\110.png'
S'C:\\Users\\oleach\\Charlie-master\\Charlie-master\\charlie\\stimuli\\visual\\pcet\\000.png'
S'C:\\Users\\oleach\\Charlie-master\\Charlie-master\\charlie\\stimuli\\visual\\pcet\\011.png'
I2
I1260
tp95
a(g18
g19
g22
I48
S'shape'
p96
I3
I2
I1
I0
S'C:\\Users\\oleach\\Charlie-master\\Charlie-master\\charlie\\stimuli\\visual\\pcet\\110.png'
S'C:\\Users\\oleach\\Charlie-master\\Charlie-master\\charlie\\stimuli\\visual\\pcet\\111.png'
S'C:\\Users\\oleach\\Charlie-master\\Charlie-master\\charlie\\stimuli\\visual\\pcet\\010.png'
S'C:\\Users\\oleach\\Charlie-master\\Charlie-master\\charlie\\stimuli\\visual\\pcet\\100.png'
I3
I980
tp97
a(g18
g19
g22
I49
S'shape'
p98
I1
I0
I3
I2
S'C:\\Users\\oleach\\Charlie-master\\Charlie-master\\charlie\\stimuli\\visual\\pcet\\101.png'
S'C:\\Users\\oleach\\Charlie-master\\Charlie-master\\charlie\\stimuli\\visual\\pcet\\011.png'
S'C:\\Users\\oleach\\Charlie-master\\Charlie-master\\charlie\\stimuli\\visual\\pcet\\001.png'
S'C:\\Users\\oleach\\Charlie-master\\Charlie-master\\charlie\\stimuli\\visual\\pcet\\000.png'
I0
I5390
tp99
a(g18
g19
g22
I50
S'shape'
p100
I2
I0
I3
I1
S'C:\\Users\\oleach\\Charlie-master\\Charlie-master\\charlie\\stimuli\\visual\\pcet\\101.png'
S'C:\\Users\\oleach\\Charlie-master\\Charlie-master\\charlie\\stimuli\\visual\\pcet\\001.png'
S'C:\\Users\\oleach\\Charlie-master\\Charlie-master\\charlie\\stimuli\\visual\\pcet\\011.png'
S'C:\\Users\\oleach\\Charlie-master\\Charlie-master\\charlie\\stimuli\\visual\\pcet\\000.png'
I3
I2871
tp101
a(g18
g19
g22
I51
S'shape'
p102
I1
I3
I0
I2
S'C:\\Users\\oleach\\Charlie-master\\Charlie-master\\charlie\\stimuli\\visual\\pcet\\111.png'
S'C:\\Users\\oleach\\Charlie-master\\Charlie-master\\charlie\\stimuli\\visual\\pcet\\100.png'
S'C:\\Users\\oleach\\Charlie-master\\Charlie-master\\charlie\\stimuli\\visual\\pcet\\110.png'
S'C:\\Users\\oleach\\Charlie-master\\Charlie-master\\charlie\\stimuli\\visual\\pcet\\010.png'
I1
I1820
tp103
a(g18
g19
g22
I52
S'shape'
p104
I1
I3
I2
I0
S'C:\\Users\\oleach\\Charlie-master\\Charlie-master\\charlie\\stimuli\\visual\\pcet\\100.png'
S'C:\\Users\\oleach\\Charlie-master\\Charlie-master\\charlie\\stimuli\\visual\\pcet\\110.png'
S'C:\\Users\\oleach\\Charlie-master\\Charlie-master\\charlie\\stimuli\\visual\\pcet\\101.png'
S'C:\\Users\\oleach\\Charlie-master\\Charlie-master\\charlie\\stimuli\\visual\\pcet\\000.png'
I1
I2730
tp105
a(g18
g19
g22
I53
S'shape'
p106
I1
I2
I0
I3
S'C:\\Users\\oleach\\Charlie-master\\Charlie-master\\charlie\\stimuli\\visual\\pcet\\001.png'
S'C:\\Users\\oleach\\Charlie-master\\Charlie-master\\charlie\\stimuli\\visual\\pcet\\010.png'
S'C:\\Users\\oleach\\Charlie-master\\Charlie-master\\charlie\\stimuli\\visual\\pcet\\100.png'
S'C:\\Users\\oleach\\Charlie-master\\Charlie-master\\charlie\\stimuli\\visual\\pcet\\000.png'
I1
I1170
tp107
a(g18
g19
g22
I54
S'shape'
p108
I3
I0
I1
I2
S'C:\\Users\\oleach\\Charlie-master\\Charlie-master\\charlie\\stimuli\\visual\\pcet\\010.png'
S'C:\\Users\\oleach\\Charlie-master\\Charlie-master\\charlie\\stimuli\\visual\\pcet\\111.png'
S'C:\\Users\\oleach\\Charlie-master\\Charlie-master\\charlie\\stimuli\\visual\\pcet\\110.png'
S'C:\\Users\\oleach\\Charlie-master\\Charlie-master\\charlie\\stimuli\\visual\\pcet\\100.png'
I0
I2750
tp109
a(g18
g19
g22
I55
S'shape'
p110
I3
I0
I2
I1
S'C:\\Users\\oleach\\Charlie-master\\Charlie-master\\charlie\\stimuli\\visual\\pcet\\001.png'
S'C:\\Users\\oleach\\Charlie-master\\Charlie-master\\charlie\\stimuli\\visual\\pcet\\101.png'
S'C:\\Users\\oleach\\Charlie-master\\Charlie-master\\charlie\\stimuli\\visual\\pcet\\100.png'
S'C:\\Users\\oleach\\Charlie-master\\Charlie-master\\charlie\\stimuli\\visual\\pcet\\111.png'
I3
I5031
tp111
a(g18
g19
g22
I56
S'shape'
p112
I2
I1
I3
I0
S'C:\\Users\\oleach\\Charlie-master\\Charlie-master\\charlie\\stimuli\\visual\\pcet\\001.png'
S'C:\\Users\\oleach\\Charlie-master\\Charlie-master\\charlie\\stimuli\\visual\\pcet\\101.png'
S'C:\\Users\\oleach\\Charlie-master\\Charlie-master\\charlie\\stimuli\\visual\\pcet\\011.png'
S'C:\\Users\\oleach\\Charlie-master\\Charlie-master\\charlie\\stimuli\\visual\\pcet\\000.png'
I2
I2440
tp113
a(g18
g19
g22
I57
S'shape'
p114
I0
I2
I1
I3
S'C:\\Users\\oleach\\Charlie-master\\Charlie-master\\charlie\\stimuli\\visual\\pcet\\100.png'
S'C:\\Users\\oleach\\Charlie-master\\Charlie-master\\charlie\\stimuli\\visual\\pcet\\111.png'
S'C:\\Users\\oleach\\Charlie-master\\Charlie-master\\charlie\\stimuli\\visual\\pcet\\010.png'
S'C:\\Users\\oleach\\Charlie-master\\Charlie-master\\charlie\\stimuli\\visual\\pcet\\110.png'
I2
I510
tp115
a(g18
g19
g22
I58
S'shape'
p116
I2
I3
I1
I0
S'C:\\Users\\oleach\\Charlie-master\\Charlie-master\\charlie\\stimuli\\visual\\pcet\\001.png'
S'C:\\Users\\oleach\\Charlie-master\\Charlie-master\\charlie\\stimuli\\visual\\pcet\\000.png'
S'C:\\Users\\oleach\\Charlie-master\\Charlie-master\\charlie\\stimuli\\visual\\pcet\\011.png'
S'C:\\Users\\oleach\\Charlie-master\\Charlie-master\\charlie\\stimuli\\visual\\pcet\\101.png'
I3
I960
tp117
a(g18
g19
g22
I59
S'shape'
p118
I0
I1
I2
I3
S'C:\\Users\\oleach\\Charlie-master\\Charlie-master\\charlie\\stimuli\\visual\\pcet\\111.png'
S'C:\\Users\\oleach\\Charlie-master\\Charlie-master\\charlie\\stimuli\\visual\\pcet\\001.png'
S'C:\\Users\\oleach\\Charlie-master\\Charlie-master\\charlie\\stimuli\\visual\\pcet\\100.png'
S'C:\\Users\\oleach\\Charlie-master\\Charlie-master\\charlie\\stimuli\\visual\\pcet\\101.png'
I0
I1080
tp119
a(g18
g19
g22
I60
S'size'
p120
I0
I2
I1
I3
S'C:\\Users\\oleach\\Charlie-master\\Charlie-master\\charlie\\stimuli\\visual\\pcet\\101.png'
S'C:\\Users\\oleach\\Charlie-master\\Charlie-master\\charlie\\stimuli\\visual\\pcet\\000.png'
S'C:\\Users\\oleach\\Charlie-master\\Charlie-master\\charlie\\stimuli\\visual\\pcet\\110.png'
S'C:\\Users\\oleach\\Charlie-master\\Charlie-master\\charlie\\stimuli\\visual\\pcet\\100.png'
I2
I1720
tp121
a(g18
g19
g22
I61
S'size'
p122
I2
I3
I0
I1
S'C:\\Users\\oleach\\Charlie-master\\Charlie-master\\charlie\\stimuli\\visual\\pcet\\100.png'
S'C:\\Users\\oleach\\Charlie-master\\Charlie-master\\charlie\\stimuli\\visual\\pcet\\000.png'
S'C:\\Users\\oleach\\Charlie-master\\Charlie-master\\charlie\\stimuli\\visual\\pcet\\001.png'
S'C:\\Users\\oleach\\Charlie-master\\Charlie-master\\charlie\\stimuli\\visual\\pcet\\010.png'
I3
I3411
tp123
a(g18
g19
g22
I62
S'size'
p124
I2
I0
I1
I3
S'C:\\Users\\oleach\\Charlie-master\\Charlie-master\\charlie\\stimuli\\visual\\pcet\\111.png'
S'C:\\Users\\oleach\\Charlie-master\\Charlie-master\\charlie\\stimuli\\visual\\pcet\\001.png'
S'C:\\Users\\oleach\\Charlie-master\\Charlie-master\\charlie\\stimuli\\visual\\pcet\\100.png'
S'C:\\Users\\oleach\\Charlie-master\\Charlie-master\\charlie\\stimuli\\visual\\pcet\\101.png'
I1
I3830
tp125
a(g18
g19
g22
I63
S'size'
p126
I1
I0
I3
I2
S'C:\\Users\\oleach\\Charlie-master\\Charlie-master\\charlie\\stimuli\\visual\\pcet\\010.png'
S'C:\\Users\\oleach\\Charlie-master\\Charlie-master\\charlie\\stimuli\\visual\\pcet\\001.png'
S'C:\\Users\\oleach\\Charlie-master\\Charlie-master\\charlie\\stimuli\\visual\\pcet\\000.png'
S'C:\\Users\\oleach\\Charlie-master\\Charlie-master\\charlie\\stimuli\\visual\\pcet\\100.png'
I0
I1890
tp127
a(g18
g19
g22
I64
S'size'
p128
I0
I2
I3
I1
S'C:\\Users\\oleach\\Charlie-master\\Charlie-master\\charlie\\stimuli\\visual\\pcet\\110.png'
S'C:\\Users\\oleach\\Charlie-master\\Charlie-master\\charlie\\stimuli\\visual\\pcet\\111.png'
S'C:\\Users\\oleach\\Charlie-master\\Charlie-master\\charlie\\stimuli\\visual\\pcet\\101.png'
S'C:\\Users\\oleach\\Charlie-master\\Charlie-master\\charlie\\stimuli\\visual\\pcet\\011.png'
I3
I840
tp129
a(g18
g19
g22
I65
S'size'
p130
I3
I1
I0
I2
S'C:\\Users\\oleach\\Charlie-master\\Charlie-master\\charlie\\stimuli\\visual\\pcet\\100.png'
S'C:\\Users\\oleach\\Charlie-master\\Charlie-master\\charlie\\stimuli\\visual\\pcet\\010.png'
S'C:\\Users\\oleach\\Charlie-master\\Charlie-master\\charlie\\stimuli\\visual\\pcet\\000.png'
S'C:\\Users\\oleach\\Charlie-master\\Charlie-master\\charlie\\stimuli\\visual\\pcet\\001.png'
I1
I1100
tp131
a(g18
g19
g22
I66
S'size'
p132
I3
I1
I2
I0
S'C:\\Users\\oleach\\Charlie-master\\Charlie-master\\charlie\\stimuli\\visual\\pcet\\011.png'
S'C:\\Users\\oleach\\Charlie-master\\Charlie-master\\charlie\\stimuli\\visual\\pcet\\001.png'
S'C:\\Users\\oleach\\Charlie-master\\Charlie-master\\charlie\\stimuli\\visual\\pcet\\111.png'
S'C:\\Users\\oleach\\Charlie-master\\Charlie-master\\charlie\\stimuli\\visual\\pcet\\010.png'
I2
I1701
tp133
a(g18
g19
g22
I67
S'size'
p134
I1
I2
I3
I0
S'C:\\Users\\oleach\\Charlie-master\\Charlie-master\\charlie\\stimuli\\visual\\pcet\\011.png'
S'C:\\Users\\oleach\\Charlie-master\\Charlie-master\\charlie\\stimuli\\visual\\pcet\\010.png'
S'C:\\Users\\oleach\\Charlie-master\\Charlie-master\\charlie\\stimuli\\visual\\pcet\\001.png'
S'C:\\Users\\oleach\\Charlie-master\\Charlie-master\\charlie\\stimuli\\visual\\pcet\\111.png'
I3
I1160
tp135
a(g18
g19
g22
I68
S'size'
p136
I0
I2
I3
I1
S'C:\\Users\\oleach\\Charlie-master\\Charlie-master\\charlie\\stimuli\\visual\\pcet\\100.png'
S'C:\\Users\\oleach\\Charlie-master\\Charlie-master\\charlie\\stimuli\\visual\\pcet\\101.png'
S'C:\\Users\\oleach\\Charlie-master\\Charlie-master\\charlie\\stimuli\\visual\\pcet\\111.png'
S'C:\\Users\\oleach\\Charlie-master\\Charlie-master\\charlie\\stimuli\\visual\\pcet\\001.png'
I3
I1240
tp137
a(g18
g19
g22
I69
S'size'
p138
I0
I1
I2
I3
S'C:\\Users\\oleach\\Charlie-master\\Charlie-master\\charlie\\stimuli\\visual\\pcet\\100.png'
S'C:\\Users\\oleach\\Charlie-master\\Charlie-master\\charlie\\stimuli\\visual\\pcet\\111.png'
S'C:\\Users\\oleach\\Charlie-master\\Charlie-master\\charlie\\stimuli\\visual\\pcet\\001.png'
S'C:\\Users\\oleach\\Charlie-master\\Charlie-master\\charlie\\stimuli\\visual\\pcet\\101.png'
I1
I3290
tp139
a(g18
g19
g22
I70
S'size'
p140
I1
I0
I3
I2
S'C:\\Users\\oleach\\Charlie-master\\Charlie-master\\charlie\\stimuli\\visual\\pcet\\111.png'
S'C:\\Users\\oleach\\Charlie-master\\Charlie-master\\charlie\\stimuli\\visual\\pcet\\100.png'
S'C:\\Users\\oleach\\Charlie-master\\Charlie-master\\charlie\\stimuli\\visual\\pcet\\101.png'
S'C:\\Users\\oleach\\Charlie-master\\Charlie-master\\charlie\\stimuli\\visual\\pcet\\001.png'
I3
I2540
tp141
a(g18
g19
g22
I71
S'size'
p142
I1
I2
I3
I0
S'C:\\Users\\oleach\\Charlie-master\\Charlie-master\\charlie\\stimuli\\visual\\pcet\\010.png'
p143
S'C:\\Users\\oleach\\Charlie-master\\Charlie-master\\charlie\\stimuli\\visual\\pcet\\011.png'
p144
S'C:\\Users\\oleach\\Charlie-master\\Charlie-master\\charlie\\stimuli\\visual\\pcet\\000.png'
p145
S'C:\\Users\\oleach\\Charlie-master\\Charlie-master\\charlie\\stimuli\\visual\\pcet\\110.png'
p146
I3
I2290
tp147
asS'output_format'
p148
(lp149
(S'proband_id'
p150
c__builtin__
str
p151
tp152
a(S'test_name'
p153
g151
tp154
a(S'phase'
p155
g151
tp156
a(S'trialn'
p157
c__builtin__
int
p158
tp159
a(S'rule'
p160
g151
tp161
a(S'ans'
p162
g151
tp163
a(S'pers'
p164
g151
tp165
a(S'other'
p166
g151
tp167
a(S'lapse'
p168
g151
tp169
a(S'f1'
p170
g151
tp171
a(S'f2'
p172
g151
tp173
a(S'f3'
p174
g151
tp175
a(S'f4'
p176
g151
tp177
a(S'rsp'
p178
g151
tp179
a(S'rt'
p180
g158
tp181
asg150
g18
sS'filename'
p182
S'4436_pcet.data'
p183
sS'initialised'
p184
g8
(S'\x07\xdf\x08\x04\x0e;\n\x03,\x80'
tRp185
sS'last_udated'
p186
g8
(S'\x07\xdf\x08\x04\x0e;\n\x03,\x80'
tRp187
sg153
S'pcet'
p188
sS'directory'
p189
S'C:\\Users\\oleach\\Charlie-master\\Charlie-master\\charlie\\data\\raw'
p190
sS'user_id'
p191
S'oleach'
p192
sS'test_started'
p193
I01
sS'abs_filename'
p194
S'C:\\Users\\oleach\\Charlie-master\\Charlie-master\\charlie\\data\\raw\\4436_pcet.data'
p195
sS'date_started'
p196
g8
(S'\x07\xdf\x08\x04\x0e;.\x04a\x18'
tRp197
sS'log'
p198
(lp199
(S'2015-08-04 14:59:10.208000'
S'instance created'
p200
tp201
a(S'2015-08-04 14:59:46.299000'
S'instance updated'
p202
tp203
a(S'2015-08-04 14:59:46.312000'
S'pandas DataFrame of data created'
p204
tp205
a(S'2015-08-04 14:59:46.316000'
S'data saved as csv to C:\\Users\\oleach\\Charlie-master\\Charlie-master\\charlie\\data\\csv\\4436_pcet.csv'
tp206
a(S'2015-08-04 14:59:58.505000'
g202
tp207
a(S'2015-08-04 14:59:58.517000'
g204
tp208
a(S'2015-08-04 14:59:58.519000'
S'data saved as csv to C:\\Users\\oleach\\Charlie-master\\Charlie-master\\charlie\\data\\csv\\4436_pcet.csv'
tp209
a(S'2015-08-04 15:00:01.870000'
g202
tp210
a(S'2015-08-04 15:00:01.881000'
g204
tp211
a(S'2015-08-04 15:00:01.885000'
S'data saved as csv to C:\\Users\\oleach\\Charlie-master\\Charlie-master\\charlie\\data\\csv\\4436_pcet.csv'
tp212
a(S'2015-08-04 15:00:04.235000'
g202
tp213
a(S'2015-08-04 15:00:04.246000'
g204
tp214
a(S'2015-08-04 15:00:04.248000'
S'data saved as csv to C:\\Users\\oleach\\Charlie-master\\Charlie-master\\charlie\\data\\csv\\4436_pcet.csv'
tp215
a(S'2015-08-04 15:00:06.716000'
g202
tp216
a(S'2015-08-04 15:00:06.722000'
g204
tp217
a(S'2015-08-04 15:00:06.724000'
S'data saved as csv to C:\\Users\\oleach\\Charlie-master\\Charlie-master\\charlie\\data\\csv\\4436_pcet.csv'
tp218
a(S'2015-08-04 15:00:08.795000'
g202
tp219
a(S'2015-08-04 15:00:08.807000'
g204
tp220
a(S'2015-08-04 15:00:08.809000'
S'data saved as csv to C:\\Users\\oleach\\Charlie-master\\Charlie-master\\charlie\\data\\csv\\4436_pcet.csv'
tp221
a(S'2015-08-04 15:00:11.487000'
g202
tp222
a(S'2015-08-04 15:00:11.498000'
g204
tp223
a(S'2015-08-04 15:00:11.502000'
S'data saved as csv to C:\\Users\\oleach\\Charlie-master\\Charlie-master\\charlie\\data\\csv\\4436_pcet.csv'
tp224
a(S'2015-08-04 15:00:14.481000'
g202
tp225
a(S'2015-08-04 15:00:14.492000'
g204
tp226
a(S'2015-08-04 15:00:14.496000'
S'data saved as csv to C:\\Users\\oleach\\Charlie-master\\Charlie-master\\charlie\\data\\csv\\4436_pcet.csv'
tp227
a(S'2015-08-04 15:00:16.495000'
g202
tp228
a(S'2015-08-04 15:00:16.507000'
g204
tp229
a(S'2015-08-04 15:00:16.511000'
S'data saved as csv to C:\\Users\\oleach\\Charlie-master\\Charlie-master\\charlie\\data\\csv\\4436_pcet.csv'
tp230
a(S'2015-08-04 15:00:20.888000'
g202
tp231
a(S'2015-08-04 15:00:20.899000'
g204
tp232
a(S'2015-08-04 15:00:20.901000'
S'data saved as csv to C:\\Users\\oleach\\Charlie-master\\Charlie-master\\charlie\\data\\csv\\4436_pcet.csv'
tp233
a(S'2015-08-04 15:00:23.325000'
g202
tp234
a(S'2015-08-04 15:00:23.337000'
g204
tp235
a(S'2015-08-04 15:00:23.341000'
S'data saved as csv to C:\\Users\\oleach\\Charlie-master\\Charlie-master\\charlie\\data\\csv\\4436_pcet.csv'
tp236
a(S'2015-08-04 15:00:25.460000'
g202
tp237
a(S'2015-08-04 15:00:25.472000'
g204
tp238
a(S'2015-08-04 15:00:25.476000'
S'data saved as csv to C:\\Users\\oleach\\Charlie-master\\Charlie-master\\charlie\\data\\csv\\4436_pcet.csv'
tp239
a(S'2015-08-04 15:00:27.390000'
g202
tp240
a(S'2015-08-04 15:00:27.401000'
g204
tp241
a(S'2015-08-04 15:00:27.406000'
S'data saved as csv to C:\\Users\\oleach\\Charlie-master\\Charlie-master\\charlie\\data\\csv\\4436_pcet.csv'
tp242
a(S'2015-08-04 15:00:30.477000'
g202
tp243
a(S'2015-08-04 15:00:30.488000'
g204
tp244
a(S'2015-08-04 15:00:30.492000'
S'data saved as csv to C:\\Users\\oleach\\Charlie-master\\Charlie-master\\charlie\\data\\csv\\4436_pcet.csv'
tp245
a(S'2015-08-04 15:00:35.383000'
g202
tp246
a(S'2015-08-04 15:00:35.394000'
g204
tp247
a(S'2015-08-04 15:00:35.398000'
S'data saved as csv to C:\\Users\\oleach\\Charlie-master\\Charlie-master\\charlie\\data\\csv\\4436_pcet.csv'
tp248
a(S'2015-08-04 15:00:38.727000'
g202
tp249
a(S'2015-08-04 15:00:38.738000'
g204
tp250
a(S'2015-08-04 15:00:38.743000'
S'data saved as csv to C:\\Users\\oleach\\Charlie-master\\Charlie-master\\charlie\\data\\csv\\4436_pcet.csv'
tp251
a(S'2015-08-04 15:00:41.334000'
g202
tp252
a(S'2015-08-04 15:00:41.346000'
g204
tp253
a(S'2015-08-04 15:00:41.350000'
S'data saved as csv to C:\\Users\\oleach\\Charlie-master\\Charlie-master\\charlie\\data\\csv\\4436_pcet.csv'
tp254
a(S'2015-08-04 15:00:45.141000'
g202
tp255
a(S'2015-08-04 15:00:45.153000'
g204
tp256
a(S'2015-08-04 15:00:45.157000'
S'data saved as csv to C:\\Users\\oleach\\Charlie-master\\Charlie-master\\charlie\\data\\csv\\4436_pcet.csv'
tp257
a(S'2015-08-04 15:00:49.745000'
g202
tp258
a(S'2015-08-04 15:00:49.756000'
g204
tp259
a(S'2015-08-04 15:00:49.760000'
S'data saved as csv to C:\\Users\\oleach\\Charlie-master\\Charlie-master\\charlie\\data\\csv\\4436_pcet.csv'
tp260
a(S'2015-08-04 15:00:53.871000'
g202
tp261
a(S'2015-08-04 15:00:53.883000'
g204
tp262
a(S'2015-08-04 15:00:53.887000'
S'data saved as csv to C:\\Users\\oleach\\Charlie-master\\Charlie-master\\charlie\\data\\csv\\4436_pcet.csv'
tp263
a(S'2015-08-04 15:00:56.132000'
g202
tp264
a(S'2015-08-04 15:00:56.144000'
g204
tp265
a(S'2015-08-04 15:00:56.148000'
S'data saved as csv to C:\\Users\\oleach\\Charlie-master\\Charlie-master\\charlie\\data\\csv\\4436_pcet.csv'
tp266
a(S'2015-08-04 15:00:58.597000'
g202
tp267
a(S'2015-08-04 15:00:58.609000'
g204
tp268
a(S'2015-08-04 15:00:58.611000'
S'data saved as csv to C:\\Users\\oleach\\Charlie-master\\Charlie-master\\charlie\\data\\csv\\4436_pcet.csv'
tp269
a(S'2015-08-04 15:01:01.235000'
g202
tp270
a(S'2015-08-04 15:01:01.246000'
g204
tp271
a(S'2015-08-04 15:01:01.250000'
S'data saved as csv to C:\\Users\\oleach\\Charlie-master\\Charlie-master\\charlie\\data\\csv\\4436_pcet.csv'
tp272
a(S'2015-08-04 15:01:03.626000'
g202
tp273
a(S'2015-08-04 15:01:03.638000'
g204
tp274
a(S'2015-08-04 15:01:03.642000'
S'data saved as csv to C:\\Users\\oleach\\Charlie-master\\Charlie-master\\charlie\\data\\csv\\4436_pcet.csv'
tp275
a(S'2015-08-04 15:01:06.091000'
g202
tp276
a(S'2015-08-04 15:01:06.103000'
g204
tp277
a(S'2015-08-04 15:01:06.107000'
S'data saved as csv to C:\\Users\\oleach\\Charlie-master\\Charlie-master\\charlie\\data\\csv\\4436_pcet.csv'
tp278
a(S'2015-08-04 15:01:09.618000'
g202
tp279
a(S'2015-08-04 15:01:09.630000'
g204
tp280
a(S'2015-08-04 15:01:09.635000'
S'data saved as csv to C:\\Users\\oleach\\Charlie-master\\Charlie-master\\charlie\\data\\csv\\4436_pcet.csv'
tp281
a(S'2015-08-04 15:01:13.531000'
g202
tp282
a(S'2015-08-04 15:01:13.543000'
g204
tp283
a(S'2015-08-04 15:01:13.548000'
S'data saved as csv to C:\\Users\\oleach\\Charlie-master\\Charlie-master\\charlie\\data\\csv\\4436_pcet.csv'
tp284
a(S'2015-08-04 15:01:19.133000'
g202
tp285
a(S'2015-08-04 15:01:19.145000'
g204
tp286
a(S'2015-08-04 15:01:19.150000'
S'data saved as csv to C:\\Users\\oleach\\Charlie-master\\Charlie-master\\charlie\\data\\csv\\4436_pcet.csv'
tp287
a(S'2015-08-04 15:01:21.633000'
g202
tp288
a(S'2015-08-04 15:01:21.645000'
g204
tp289
a(S'2015-08-04 15:01:21.650000'
S'data saved as csv to C:\\Users\\oleach\\Charlie-master\\Charlie-master\\charlie\\data\\csv\\4436_pcet.csv'
tp290
a(S'2015-08-04 15:01:25.192000'
g202
tp291
a(S'2015-08-04 15:01:25.204000'
g204
tp292
a(S'2015-08-04 15:01:25.208000'
S'data saved as csv to C:\\Users\\oleach\\Charlie-master\\Charlie-master\\charlie\\data\\csv\\4436_pcet.csv'
tp293
a(S'2015-08-04 15:01:30.095000'
g202
tp294
a(S'2015-08-04 15:01:30.108000'
g204
tp295
a(S'2015-08-04 15:01:30.111000'
S'data saved as csv to C:\\Users\\oleach\\Charlie-master\\Charlie-master\\charlie\\data\\csv\\4436_pcet.csv'
tp296
a(S'2015-08-04 15:01:34.120000'
g202
tp297
a(S'2015-08-04 15:01:34.131000'
g204
tp298
a(S'2015-08-04 15:01:34.134000'
S'data saved as csv to C:\\Users\\oleach\\Charlie-master\\Charlie-master\\charlie\\data\\csv\\4436_pcet.csv'
tp299
a(S'2015-08-04 15:01:36.564000'
g202
tp300
a(S'2015-08-04 15:01:36.576000'
g204
tp301
a(S'2015-08-04 15:01:36.581000'
S'data saved as csv to C:\\Users\\oleach\\Charlie-master\\Charlie-master\\charlie\\data\\csv\\4436_pcet.csv'
tp302
a(S'2015-08-04 15:01:41.561000'
g202
tp303
a(S'2015-08-04 15:01:41.572000'
g204
tp304
a(S'2015-08-04 15:01:41.575000'
S'data saved as csv to C:\\Users\\oleach\\Charlie-master\\Charlie-master\\charlie\\data\\csv\\4436_pcet.csv'
tp305
a(S'2015-08-04 15:01:45.136000'
g202
tp306
a(S'2015-08-04 15:01:45.148000'
g204
tp307
a(S'2015-08-04 15:01:45.153000'
S'data saved as csv to C:\\Users\\oleach\\Charlie-master\\Charlie-master\\charlie\\data\\csv\\4436_pcet.csv'
tp308
a(S'2015-08-04 15:01:47.672000'
g202
tp309
a(S'2015-08-04 15:01:47.685000'
g204
tp310
a(S'2015-08-04 15:01:47.690000'
S'data saved as csv to C:\\Users\\oleach\\Charlie-master\\Charlie-master\\charlie\\data\\csv\\4436_pcet.csv'
tp311
a(S'2015-08-04 15:01:50.668000'
g202
tp312
a(S'2015-08-04 15:01:50.680000'
g204
tp313
a(S'2015-08-04 15:01:50.685000'
S'data saved as csv to C:\\Users\\oleach\\Charlie-master\\Charlie-master\\charlie\\data\\csv\\4436_pcet.csv'
tp314
a(S'2015-08-04 15:01:53.547000'
g202
tp315
a(S'2015-08-04 15:01:53.560000'
g204
tp316
a(S'2015-08-04 15:01:53.565000'
S'data saved as csv to C:\\Users\\oleach\\Charlie-master\\Charlie-master\\charlie\\data\\csv\\4436_pcet.csv'
tp317
a(S'2015-08-04 15:01:55.274000'
g202
tp318
a(S'2015-08-04 15:01:55.284000'
g204
tp319
a(S'2015-08-04 15:01:55.287000'
S'data saved as csv to C:\\Users\\oleach\\Charlie-master\\Charlie-master\\charlie\\data\\csv\\4436_pcet.csv'
tp320
a(S'2015-08-04 15:01:58.716000'
g202
tp321
a(S'2015-08-04 15:01:58.729000'
g204
tp322
a(S'2015-08-04 15:01:58.733000'
S'data saved as csv to C:\\Users\\oleach\\Charlie-master\\Charlie-master\\charlie\\data\\csv\\4436_pcet.csv'
tp323
a(S'2015-08-04 15:02:00.856000'
g202
tp324
a(S'2015-08-04 15:02:00.869000'
g204
tp325
a(S'2015-08-04 15:02:00.874000'
S'data saved as csv to C:\\Users\\oleach\\Charlie-master\\Charlie-master\\charlie\\data\\csv\\4436_pcet.csv'
tp326
a(S'2015-08-04 15:02:05.041000'
g202
tp327
a(S'2015-08-04 15:02:05.054000'
g204
tp328
a(S'2015-08-04 15:02:05.059000'
S'data saved as csv to C:\\Users\\oleach\\Charlie-master\\Charlie-master\\charlie\\data\\csv\\4436_pcet.csv'
tp329
a(S'2015-08-04 15:02:08.082000'
g202
tp330
a(S'2015-08-04 15:02:08.095000'
g204
tp331
a(S'2015-08-04 15:02:08.100000'
S'data saved as csv to C:\\Users\\oleach\\Charlie-master\\Charlie-master\\charlie\\data\\csv\\4436_pcet.csv'
tp332
a(S'2015-08-04 15:02:13.051000'
g202
tp333
a(S'2015-08-04 15:02:13.064000'
g204
tp334
a(S'2015-08-04 15:02:13.069000'
S'data saved as csv to C:\\Users\\oleach\\Charlie-master\\Charlie-master\\charlie\\data\\csv\\4436_pcet.csv'
tp335
a(S'2015-08-04 15:02:16.188000'
g202
tp336
a(S'2015-08-04 15:02:16.201000'
g204
tp337
a(S'2015-08-04 15:02:16.206000'
S'data saved as csv to C:\\Users\\oleach\\Charlie-master\\Charlie-master\\charlie\\data\\csv\\4436_pcet.csv'
tp338
a(S'2015-08-04 15:02:18.594000'
g202
tp339
a(S'2015-08-04 15:02:18.606000'
g204
tp340
a(S'2015-08-04 15:02:18.611000'
S'data saved as csv to C:\\Users\\oleach\\Charlie-master\\Charlie-master\\charlie\\data\\csv\\4436_pcet.csv'
tp341
a(S'2015-08-04 15:02:21.837000'
g202
tp342
a(S'2015-08-04 15:02:21.849000'
g204
tp343
a(S'2015-08-04 15:02:21.855000'
S'data saved as csv to C:\\Users\\oleach\\Charlie-master\\Charlie-master\\charlie\\data\\csv\\4436_pcet.csv'
tp344
a(S'2015-08-04 15:02:24.667000'
g202
tp345
a(S'2015-08-04 15:02:24.679000'
g204
tp346
a(S'2015-08-04 15:02:24.683000'
S'data saved as csv to C:\\Users\\oleach\\Charlie-master\\Charlie-master\\charlie\\data\\csv\\4436_pcet.csv'
tp347
a(S'2015-08-04 15:02:27.023000'
g202
tp348
a(S'2015-08-04 15:02:27.035000'
g204
tp349
a(S'2015-08-04 15:02:27.041000'
S'data saved as csv to C:\\Users\\oleach\\Charlie-master\\Charlie-master\\charlie\\data\\csv\\4436_pcet.csv'
tp350
a(S'2015-08-04 15:02:29.111000'
g202
tp351
a(S'2015-08-04 15:02:29.123000'
g204
tp352
a(S'2015-08-04 15:02:29.126000'
S'data saved as csv to C:\\Users\\oleach\\Charlie-master\\Charlie-master\\charlie\\data\\csv\\4436_pcet.csv'
tp353
a(S'2015-08-04 15:02:35.602000'
g202
tp354
a(S'2015-08-04 15:02:35.614000'
g204
tp355
a(S'2015-08-04 15:02:35.620000'
S'data saved as csv to C:\\Users\\oleach\\Charlie-master\\Charlie-master\\charlie\\data\\csv\\4436_pcet.csv'
tp356
a(S'2015-08-04 15:02:39.584000'
g202
tp357
a(S'2015-08-04 15:02:39.594000'
g204
tp358
a(S'2015-08-04 15:02:39.598000'
S'data saved as csv to C:\\Users\\oleach\\Charlie-master\\Charlie-master\\charlie\\data\\csv\\4436_pcet.csv'
tp359
a(S'2015-08-04 15:02:42.502000'
g202
tp360
a(S'2015-08-04 15:02:42.515000'
g204
tp361
a(S'2015-08-04 15:02:42.521000'
S'data saved as csv to C:\\Users\\oleach\\Charlie-master\\Charlie-master\\charlie\\data\\csv\\4436_pcet.csv'
tp362
a(S'2015-08-04 15:02:46.335000'
g202
tp363
a(S'2015-08-04 15:02:46.345000'
g204
tp364
a(S'2015-08-04 15:02:46.348000'
S'data saved as csv to C:\\Users\\oleach\\Charlie-master\\Charlie-master\\charlie\\data\\csv\\4436_pcet.csv'
tp365
a(S'2015-08-04 15:02:48.597000'
g202
tp366
a(S'2015-08-04 15:02:48.609000'
g204
tp367
a(S'2015-08-04 15:02:48.615000'
S'data saved as csv to C:\\Users\\oleach\\Charlie-master\\Charlie-master\\charlie\\data\\csv\\4436_pcet.csv'
tp368
a(S'2015-08-04 15:02:52.452000'
g202
tp369
a(S'2015-08-04 15:02:52.465000'
g204
tp370
a(S'2015-08-04 15:02:52.471000'
S'data saved as csv to C:\\Users\\oleach\\Charlie-master\\Charlie-master\\charlie\\data\\csv\\4436_pcet.csv'
tp371
a(S'2015-08-04 15:02:58.603000'
g202
tp372
a(S'2015-08-04 15:02:58.615000'
g204
tp373
a(S'2015-08-04 15:02:58.618000'
S'data saved as csv to C:\\Users\\oleach\\Charlie-master\\Charlie-master\\charlie\\data\\csv\\4436_pcet.csv'
tp374
a(S'2015-08-04 15:03:02.144000'
g202
tp375
a(S'2015-08-04 15:03:02.156000'
g204
tp376
a(S'2015-08-04 15:03:02.159000'
S'data saved as csv to C:\\Users\\oleach\\Charlie-master\\Charlie-master\\charlie\\data\\csv\\4436_pcet.csv'
tp377
a(S'2015-08-04 15:03:03.753000'
g202
tp378
a(S'2015-08-04 15:03:03.765000'
g204
tp379
a(S'2015-08-04 15:03:03.771000'
S'data saved as csv to C:\\Users\\oleach\\Charlie-master\\Charlie-master\\charlie\\data\\csv\\4436_pcet.csv'
tp380
a(S'2015-08-04 15:03:05.817000'
g202
tp381
a(S'2015-08-04 15:03:05.830000'
g204
tp382
a(S'2015-08-04 15:03:05.836000'
S'data saved as csv to C:\\Users\\oleach\\Charlie-master\\Charlie-master\\charlie\\data\\csv\\4436_pcet.csv'
tp383
a(S'2015-08-04 15:03:07.996000'
g202
tp384
a(S'2015-08-04 15:03:08.006000'
g204
tp385
a(S'2015-08-04 15:03:08.010000'
S'data saved as csv to C:\\Users\\oleach\\Charlie-master\\Charlie-master\\charlie\\data\\csv\\4436_pcet.csv'
tp386
a(S'2015-08-04 15:03:10.810000'
g202
tp387
a(S'2015-08-04 15:03:10.823000'
g204
tp388
a(S'2015-08-04 15:03:10.827000'
S'data saved as csv to C:\\Users\\oleach\\Charlie-master\\Charlie-master\\charlie\\data\\csv\\4436_pcet.csv'
tp389
a(S'2015-08-04 15:03:15.314000'
g202
tp390
a(S'2015-08-04 15:03:15.325000'
g204
tp391
a(S'2015-08-04 15:03:15.328000'
S'data saved as csv to C:\\Users\\oleach\\Charlie-master\\Charlie-master\\charlie\\data\\csv\\4436_pcet.csv'
tp392
a(S'2015-08-04 15:03:20.249000'
g202
tp393
a(S'2015-08-04 15:03:20.261000'
g204
tp394
a(S'2015-08-04 15:03:20.267000'
S'data saved as csv to C:\\Users\\oleach\\Charlie-master\\Charlie-master\\charlie\\data\\csv\\4436_pcet.csv'
tp395
a(S'2015-08-04 15:03:23.236000'
g202
tp396
a(S'2015-08-04 15:03:23.248000'
g204
tp397
a(S'2015-08-04 15:03:23.251000'
S'data saved as csv to C:\\Users\\oleach\\Charlie-master\\Charlie-master\\charlie\\data\\csv\\4436_pcet.csv'
tp398
a(S'2015-08-04 15:03:25.184000'
g202
tp399
a(S'2015-08-04 15:03:25.196000'
g204
tp400
a(S'2015-08-04 15:03:25.199000'
S'data saved as csv to C:\\Users\\oleach\\Charlie-master\\Charlie-master\\charlie\\data\\csv\\4436_pcet.csv'
tp401
a(S'2015-08-04 15:03:27.376000'
g202
tp402
a(S'2015-08-04 15:03:27.387000'
g204
tp403
a(S'2015-08-04 15:03:27.391000'
S'data saved as csv to C:\\Users\\oleach\\Charlie-master\\Charlie-master\\charlie\\data\\csv\\4436_pcet.csv'
tp404
a(S'2015-08-04 15:03:30.164000'
g202
tp405
a(S'2015-08-04 15:03:30.172000'
g204
tp406
a(S'2015-08-04 15:03:30.176000'
S'data saved as csv to C:\\Users\\oleach\\Charlie-master\\Charlie-master\\charlie\\data\\csv\\4436_pcet.csv'
tp407
a(S'2015-08-04 15:03:32.425000'
g202
tp408
a(S'2015-08-04 15:03:32.438000'
g204
tp409
a(S'2015-08-04 15:03:32.444000'
S'data saved as csv to C:\\Users\\oleach\\Charlie-master\\Charlie-master\\charlie\\data\\csv\\4436_pcet.csv'
tp410
a(S'2015-08-04 15:03:34.777000'
g202
tp411
a(S'2015-08-04 15:03:34.790000'
g204
tp412
a(S'2015-08-04 15:03:34.795000'
S'data saved as csv to C:\\Users\\oleach\\Charlie-master\\Charlie-master\\charlie\\data\\csv\\4436_pcet.csv'
tp413
a(S'2015-08-04 15:03:39.175000'
g202
tp414
a(S'2015-08-04 15:03:39.187000'
g204
tp415
a(S'2015-08-04 15:03:39.193000'
S'data saved as csv to C:\\Users\\oleach\\Charlie-master\\Charlie-master\\charlie\\data\\csv\\4436_pcet.csv'
tp416
a(S'2015-08-04 15:03:42.828000'
g202
tp417
a(S'2015-08-04 15:03:42.838000'
g204
tp418
a(S'2015-08-04 15:03:42.842000'
S'data saved as csv to C:\\Users\\oleach\\Charlie-master\\Charlie-master\\charlie\\data\\csv\\4436_pcet.csv'
tp419
a(S'2015-08-04 15:03:46.212000'
g202
tp420
a(S'2015-08-04 15:03:46.225000'
g204
tp421
a(S'2015-08-04 15:03:46.228000'
S'data saved as csv to C:\\Users\\oleach\\Charlie-master\\Charlie-master\\charlie\\data\\csv\\4436_pcet.csv'
tp422
asb.