(icharlie.tools.data
Data
p1
(dp2
S'lang'
p3
S'EN'
p4
sS'control'
p5
(lp6
sS'last_updated'
p7
cdatetime
datetime
p8
(S'\x07\xdf\x08\x04\x0e\x05-\x07\xd3\xe8'
tRp9
sS'last_opened'
p10
g8
(S'\x07\xdf\x08\x04\x0e\x00:\x01\xad\xb0'
tRp11
sS'proj_id'
p12
S'connectivity'
p13
sS'date_done'
p14
NsS'test_done'
p15
I01
sS'data'
p16
(lp17
(S'4436'
p18
S'stroop'
p19
S'practice'
p20
I0
S'n/a'
p21
S'C:\\Users\\oleach\\Charlie-master\\Charlie-master\\charlie\\stimuli\\visual\\stroop\\prac_1.png'
S'Right'
p22
g22
I1920
tp23
a(g18
g19
g20
I1
g21
S'C:\\Users\\oleach\\Charlie-master\\Charlie-master\\charlie\\stimuli\\visual\\stroop\\prac_2.png'
S'Left'
p24
g24
I1530
tp25
a(g18
g19
g20
I2
g21
S'C:\\Users\\oleach\\Charlie-master\\Charlie-master\\charlie\\stimuli\\visual\\stroop\\prac_3.png'
g22
g22
I1050
tp26
a(g18
g19
g20
I3
g21
S'C:\\Users\\oleach\\Charlie-master\\Charlie-master\\charlie\\stimuli\\visual\\stroop\\prac_4.png'
g22
g24
I1020
tp27
a(g18
g19
S'test'
p28
I0
S'Incongruent'
p29
S'C:\\Users\\oleach\\Charlie-master\\Charlie-master\\charlie\\stimuli\\visual\\stroop\\6-Incongruent.png'
g24
g24
I2940
tp30
a(g18
g19
g28
I1
S'Congruent'
p31
S'C:\\Users\\oleach\\Charlie-master\\Charlie-master\\charlie\\stimuli\\visual\\stroop\\30-Congruent.png'
g24
g24
I9941
tp32
a(g18
g19
g28
I2
g31
S'C:\\Users\\oleach\\Charlie-master\\Charlie-master\\charlie\\stimuli\\visual\\stroop\\3-Congruent.png'
g22
g22
I2820
tp33
a(g18
g19
g28
I3
g29
S'C:\\Users\\oleach\\Charlie-master\\Charlie-master\\charlie\\stimuli\\visual\\stroop\\23-Incongruent.png'
g24
g24
I1560
tp34
a(g18
g19
g28
I4
g31
S'C:\\Users\\oleach\\Charlie-master\\Charlie-master\\charlie\\stimuli\\visual\\stroop\\39-Congruent.png'
g24
g24
I1620
tp35
a(g18
g19
g28
I5
g31
S'C:\\Users\\oleach\\Charlie-master\\Charlie-master\\charlie\\stimuli\\visual\\stroop\\45-Congruent.png'
g24
g24
I3110
tp36
a(g18
g19
g28
I6
g29
S'C:\\Users\\oleach\\Charlie-master\\Charlie-master\\charlie\\stimuli\\visual\\stroop\\31-Incongruent.png'
g22
g22
I5301
tp37
a(g18
g19
g28
I7
g29
S'C:\\Users\\oleach\\Charlie-master\\Charlie-master\\charlie\\stimuli\\visual\\stroop\\28-Incongruent.png'
g24
g24
I3220
tp38
a(g18
g19
g28
I8
g31
S'C:\\Users\\oleach\\Charlie-master\\Charlie-master\\charlie\\stimuli\\visual\\stroop\\31-Congruent.png'
g24
g22
I3400
tp39
a(g18
g19
g28
I9
g31
S'C:\\Users\\oleach\\Charlie-master\\Charlie-master\\charlie\\stimuli\\visual\\stroop\\10-Congruent.png'
g22
g22
I2300
tp40
a(g18
g19
g28
I10
g29
S'C:\\Users\\oleach\\Charlie-master\\Charlie-master\\charlie\\stimuli\\visual\\stroop\\10-Incongruent.png'
g24
g22
I1220
tp41
a(g18
g19
g28
I11
g29
S'C:\\Users\\oleach\\Charlie-master\\Charlie-master\\charlie\\stimuli\\visual\\stroop\\24-Incongruent.png'
g24
g22
I2810
tp42
a(g18
g19
g28
I12
g31
S'C:\\Users\\oleach\\Charlie-master\\Charlie-master\\charlie\\stimuli\\visual\\stroop\\34-Congruent.png'
g24
g24
I3250
tp43
a(g18
g19
g28
I13
g31
S'C:\\Users\\oleach\\Charlie-master\\Charlie-master\\charlie\\stimuli\\visual\\stroop\\38-Congruent.png'
g24
g22
I4601
tp44
a(g18
g19
g28
I14
g31
S'C:\\Users\\oleach\\Charlie-master\\Charlie-master\\charlie\\stimuli\\visual\\stroop\\42-Congruent.png'
g24
g22
I110
tp45
a(g18
g19
g28
I15
g31
S'C:\\Users\\oleach\\Charlie-master\\Charlie-master\\charlie\\stimuli\\visual\\stroop\\17-Congruent.png'
g22
g24
I2160
tp46
a(g18
g19
g28
I16
g29
S'C:\\Users\\oleach\\Charlie-master\\Charlie-master\\charlie\\stimuli\\visual\\stroop\\42-Incongruent.png'
g22
g22
I1390
tp47
a(g18
g19
g28
I17
g29
S'C:\\Users\\oleach\\Charlie-master\\Charlie-master\\charlie\\stimuli\\visual\\stroop\\36-Incongruent.png'
g22
g22
I2690
tp48
a(g18
g19
g28
I18
g29
S'C:\\Users\\oleach\\Charlie-master\\Charlie-master\\charlie\\stimuli\\visual\\stroop\\43-Incongruent.png'
g22
g24
I3430
tp49
a(g18
g19
g28
I19
g31
S'C:\\Users\\oleach\\Charlie-master\\Charlie-master\\charlie\\stimuli\\visual\\stroop\\49-Congruent.png'
g24
g22
I6511
tp50
a(g18
g19
g28
I20
g31
S'C:\\Users\\oleach\\Charlie-master\\Charlie-master\\charlie\\stimuli\\visual\\stroop\\43-Congruent.png'
g24
g22
I60
tp51
a(g18
g19
g28
I21
g29
S'C:\\Users\\oleach\\Charlie-master\\Charlie-master\\charlie\\stimuli\\visual\\stroop\\15-Incongruent.png'
g24
g24
I1850
tp52
a(g18
g19
g28
I22
g29
S'C:\\Users\\oleach\\Charlie-master\\Charlie-master\\charlie\\stimuli\\visual\\stroop\\35-Incongruent.png'
g22
g22
I2440
tp53
a(g18
g19
g28
I23
g29
S'C:\\Users\\oleach\\Charlie-master\\Charlie-master\\charlie\\stimuli\\visual\\stroop\\44-Incongruent.png'
g22
g22
I1170
tp54
a(g18
g19
g28
I24
g29
S'C:\\Users\\oleach\\Charlie-master\\Charlie-master\\charlie\\stimuli\\visual\\stroop\\47-Incongruent.png'
g22
g22
I1820
tp55
a(g18
g19
g28
I25
g29
S'C:\\Users\\oleach\\Charlie-master\\Charlie-master\\charlie\\stimuli\\visual\\stroop\\40-Incongruent.png'
g22
g22
I80
tp56
a(g18
g19
g28
I26
g29
S'C:\\Users\\oleach\\Charlie-master\\Charlie-master\\charlie\\stimuli\\visual\\stroop\\25-Incongruent.png'
g24
g24
I2070
tp57
a(g18
g19
g28
I27
g29
S'C:\\Users\\oleach\\Charlie-master\\Charlie-master\\charlie\\stimuli\\visual\\stroop\\27-Incongruent.png'
g24
g24
I1130
tp58
a(g18
g19
g28
I28
g29
S'C:\\Users\\oleach\\Charlie-master\\Charlie-master\\charlie\\stimuli\\visual\\stroop\\56-Incongruent.png'
g22
g22
I1791
tp59
a(g18
g19
g28
I29
g31
S'C:\\Users\\oleach\\Charlie-master\\Charlie-master\\charlie\\stimuli\\visual\\stroop\\2-Congruent.png'
g22
g22
I6700
tp60
a(g18
g19
g28
I30
g29
S'C:\\Users\\oleach\\Charlie-master\\Charlie-master\\charlie\\stimuli\\visual\\stroop\\17-Incongruent.png'
g24
g24
I3510
tp61
a(g18
g19
g28
I31
g31
S'C:\\Users\\oleach\\Charlie-master\\Charlie-master\\charlie\\stimuli\\visual\\stroop\\12-Congruent.png'
g22
g24
I1340
tp62
a(g18
g19
g28
I32
g29
S'C:\\Users\\oleach\\Charlie-master\\Charlie-master\\charlie\\stimuli\\visual\\stroop\\12-Incongruent.png'
g24
g24
I900
tp63
a(g18
g19
g28
I33
g29
S'C:\\Users\\oleach\\Charlie-master\\Charlie-master\\charlie\\stimuli\\visual\\stroop\\26-Incongruent.png'
g24
g24
I90
tp64
a(g18
g19
g28
I34
g31
S'C:\\Users\\oleach\\Charlie-master\\Charlie-master\\charlie\\stimuli\\visual\\stroop\\19-Congruent.png'
g22
g24
I1010
tp65
a(g18
g19
g28
I35
g31
S'C:\\Users\\oleach\\Charlie-master\\Charlie-master\\charlie\\stimuli\\visual\\stroop\\23-Congruent.png'
g22
g24
I830
tp66
a(g18
g19
g28
I36
g31
S'C:\\Users\\oleach\\Charlie-master\\Charlie-master\\charlie\\stimuli\\visual\\stroop\\35-Congruent.png'
g24
g22
I1250
tp67
a(g18
g19
g28
I37
g31
S'C:\\Users\\oleach\\Charlie-master\\Charlie-master\\charlie\\stimuli\\visual\\stroop\\46-Congruent.png'
g24
g22
I1441
tp68
a(g18
g19
g28
I38
g29
S'C:\\Users\\oleach\\Charlie-master\\Charlie-master\\charlie\\stimuli\\visual\\stroop\\8-Incongruent.png'
g24
g24
I1780
tp69
a(g18
g19
g28
I39
g31
S'C:\\Users\\oleach\\Charlie-master\\Charlie-master\\charlie\\stimuli\\visual\\stroop\\29-Congruent.png'
g24
g22
I1140
tp70
a(g18
g19
g28
I40
g31
S'C:\\Users\\oleach\\Charlie-master\\Charlie-master\\charlie\\stimuli\\visual\\stroop\\14-Congruent.png'
g22
g24
I1600
tp71
a(g18
g19
g28
I41
g31
S'C:\\Users\\oleach\\Charlie-master\\Charlie-master\\charlie\\stimuli\\visual\\stroop\\33-Congruent.png'
g24
g22
I1720
tp72
a(g18
g19
g28
I42
g29
S'C:\\Users\\oleach\\Charlie-master\\Charlie-master\\charlie\\stimuli\\visual\\stroop\\13-Incongruent.png'
g24
g24
I3420
tp73
a(g18
g19
g28
I43
g29
S'C:\\Users\\oleach\\Charlie-master\\Charlie-master\\charlie\\stimuli\\visual\\stroop\\55-Incongruent.png'
g22
g22
I870
tp74
a(g18
g19
g28
I44
g31
S'C:\\Users\\oleach\\Charlie-master\\Charlie-master\\charlie\\stimuli\\visual\\stroop\\54-Congruent.png'
g24
g22
I2520
tp75
a(g18
g19
g28
I45
g31
S'C:\\Users\\oleach\\Charlie-master\\Charlie-master\\charlie\\stimuli\\visual\\stroop\\8-Congruent.png'
g22
g24
I1330
tp76
a(g18
g19
g28
I46
g31
S'C:\\Users\\oleach\\Charlie-master\\Charlie-master\\charlie\\stimuli\\visual\\stroop\\13-Congruent.png'
g22
g24
I1661
tp77
a(g18
g19
g28
I47
g31
S'C:\\Users\\oleach\\Charlie-master\\Charlie-master\\charlie\\stimuli\\visual\\stroop\\40-Congruent.png'
g24
g22
I2500
tp78
a(g18
g19
g28
I48
g29
S'C:\\Users\\oleach\\Charlie-master\\Charlie-master\\charlie\\stimuli\\visual\\stroop\\9-Incongruent.png'
g24
g24
I7300
tp79
a(g18
g19
g28
I49
g31
S'C:\\Users\\oleach\\Charlie-master\\Charlie-master\\charlie\\stimuli\\visual\\stroop\\50-Congruent.png'
g24
g22
I1560
tp80
a(g18
g19
g28
I50
g31
S'C:\\Users\\oleach\\Charlie-master\\Charlie-master\\charlie\\stimuli\\visual\\stroop\\5-Congruent.png'
g22
g24
I830
tp81
a(g18
g19
g28
I51
g29
S'C:\\Users\\oleach\\Charlie-master\\Charlie-master\\charlie\\stimuli\\visual\\stroop\\5-Incongruent.png'
g24
g24
I970
tp82
a(g18
g19
g28
I52
g29
S'C:\\Users\\oleach\\Charlie-master\\Charlie-master\\charlie\\stimuli\\visual\\stroop\\53-Incongruent.png'
g22
g22
I940
tp83
a(g18
g19
g28
I53
g29
S'C:\\Users\\oleach\\Charlie-master\\Charlie-master\\charlie\\stimuli\\visual\\stroop\\1-Incongruent.png'
g24
g24
I1070
tp84
a(g18
g19
g28
I54
g31
S'C:\\Users\\oleach\\Charlie-master\\Charlie-master\\charlie\\stimuli\\visual\\stroop\\28-Congruent.png'
g22
g24
I960
tp85
a(g18
g19
g28
I55
g29
S'C:\\Users\\oleach\\Charlie-master\\Charlie-master\\charlie\\stimuli\\visual\\stroop\\34-Incongruent.png'
g22
g22
I1720
tp86
a(g18
g19
g28
I56
g29
S'C:\\Users\\oleach\\Charlie-master\\Charlie-master\\charlie\\stimuli\\visual\\stroop\\20-Incongruent.png'
g24
g24
I1130
tp87
a(g18
g19
g28
I57
g29
S'C:\\Users\\oleach\\Charlie-master\\Charlie-master\\charlie\\stimuli\\visual\\stroop\\38-Incongruent.png'
g22
g22
I1080
tp88
a(g18
g19
g28
I58
g29
S'C:\\Users\\oleach\\Charlie-master\\Charlie-master\\charlie\\stimuli\\visual\\stroop\\32-Incongruent.png'
g22
g22
I1160
tp89
a(g18
g19
g28
I59
g31
S'C:\\Users\\oleach\\Charlie-master\\Charlie-master\\charlie\\stimuli\\visual\\stroop\\9-Congruent.png'
g22
g24
I1010
tp90
a(g18
g19
g28
I60
g31
S'C:\\Users\\oleach\\Charlie-master\\Charlie-master\\charlie\\stimuli\\visual\\stroop\\55-Congruent.png'
g24
g22
I3690
tp91
a(g18
g19
g28
I61
g29
S'C:\\Users\\oleach\\Charlie-master\\Charlie-master\\charlie\\stimuli\\visual\\stroop\\33-Incongruent.png'
g22
g22
I1490
tp92
a(g18
g19
g28
I62
g29
S'C:\\Users\\oleach\\Charlie-master\\Charlie-master\\charlie\\stimuli\\visual\\stroop\\49-Incongruent.png'
g22
g22
I110
tp93
a(g18
g19
g28
I63
g31
S'C:\\Users\\oleach\\Charlie-master\\Charlie-master\\charlie\\stimuli\\visual\\stroop\\4-Congruent.png'
g22
g24
I1550
tp94
a(g18
g19
g28
I64
g31
S'C:\\Users\\oleach\\Charlie-master\\Charlie-master\\charlie\\stimuli\\visual\\stroop\\6-Congruent.png'
g22
g24
I810
tp95
a(g18
g19
g28
I65
g31
S'C:\\Users\\oleach\\Charlie-master\\Charlie-master\\charlie\\stimuli\\visual\\stroop\\48-Congruent.png'
g24
g22
I5911
tp96
a(g18
g19
g28
I66
g31
S'C:\\Users\\oleach\\Charlie-master\\Charlie-master\\charlie\\stimuli\\visual\\stroop\\52-Congruent.png'
g24
g22
I2460
tp97
a(g18
g19
g28
I67
g31
S'C:\\Users\\oleach\\Charlie-master\\Charlie-master\\charlie\\stimuli\\visual\\stroop\\51-Congruent.png'
g24
g22
I980
tp98
a(g18
g19
g28
I68
g31
S'C:\\Users\\oleach\\Charlie-master\\Charlie-master\\charlie\\stimuli\\visual\\stroop\\16-Congruent.png'
g22
g22
I370
tp99
a(g18
g19
g28
I69
g31
S'C:\\Users\\oleach\\Charlie-master\\Charlie-master\\charlie\\stimuli\\visual\\stroop\\24-Congruent.png'
g22
g24
I1480
tp100
a(g18
g19
g28
I70
g29
S'C:\\Users\\oleach\\Charlie-master\\Charlie-master\\charlie\\stimuli\\visual\\stroop\\41-Incongruent.png'
g22
g24
I2790
tp101
a(g18
g19
g28
I71
g29
S'C:\\Users\\oleach\\Charlie-master\\Charlie-master\\charlie\\stimuli\\visual\\stroop\\48-Incongruent.png'
g22
g22
I50
tp102
a(g18
g19
g28
I72
g29
S'C:\\Users\\oleach\\Charlie-master\\Charlie-master\\charlie\\stimuli\\visual\\stroop\\4-Incongruent.png'
g24
g22
I170
tp103
a(g18
g19
g28
I73
g29
S'C:\\Users\\oleach\\Charlie-master\\Charlie-master\\charlie\\stimuli\\visual\\stroop\\54-Incongruent.png'
g22
g22
I4271
tp104
a(g18
g19
g28
I74
g29
S'C:\\Users\\oleach\\Charlie-master\\Charlie-master\\charlie\\stimuli\\visual\\stroop\\39-Incongruent.png'
g22
g22
I1330
tp105
a(g18
g19
g28
I75
g31
S'C:\\Users\\oleach\\Charlie-master\\Charlie-master\\charlie\\stimuli\\visual\\stroop\\56-Congruent.png'
g24
g22
I890
tp106
a(g18
g19
g28
I76
g29
S'C:\\Users\\oleach\\Charlie-master\\Charlie-master\\charlie\\stimuli\\visual\\stroop\\46-Incongruent.png'
g22
g22
I760
tp107
a(g18
g19
g28
I77
g31
S'C:\\Users\\oleach\\Charlie-master\\Charlie-master\\charlie\\stimuli\\visual\\stroop\\22-Congruent.png'
g22
g24
I1050
tp108
a(g18
g19
g28
I78
g29
S'C:\\Users\\oleach\\Charlie-master\\Charlie-master\\charlie\\stimuli\\visual\\stroop\\21-Incongruent.png'
g24
g24
I1930
tp109
a(g18
g19
g28
I79
g29
S'C:\\Users\\oleach\\Charlie-master\\Charlie-master\\charlie\\stimuli\\visual\\stroop\\37-Incongruent.png'
g22
g24
I1070
tp110
a(g18
g19
g28
I80
g29
S'C:\\Users\\oleach\\Charlie-master\\Charlie-master\\charlie\\stimuli\\visual\\stroop\\2-Incongruent.png'
g24
g24
I2460
tp111
a(g18
g19
g28
I81
g31
S'C:\\Users\\oleach\\Charlie-master\\Charlie-master\\charlie\\stimuli\\visual\\stroop\\21-Congruent.png'
g22
g24
I750
tp112
a(g18
g19
g28
I82
g29
S'C:\\Users\\oleach\\Charlie-master\\Charlie-master\\charlie\\stimuli\\visual\\stroop\\7-Incongruent.png'
g24
g24
I1300
tp113
a(g18
g19
g28
I83
g31
S'C:\\Users\\oleach\\Charlie-master\\Charlie-master\\charlie\\stimuli\\visual\\stroop\\20-Congruent.png'
g22
g24
I590
tp114
a(g18
g19
g28
I84
g31
S'C:\\Users\\oleach\\Charlie-master\\Charlie-master\\charlie\\stimuli\\visual\\stroop\\15-Congruent.png'
g22
g24
I830
tp115
a(g18
g19
g28
I85
g31
S'C:\\Users\\oleach\\Charlie-master\\Charlie-master\\charlie\\stimuli\\visual\\stroop\\26-Congruent.png'
g22
g24
I5461
tp116
a(g18
g19
g28
I86
g29
S'C:\\Users\\oleach\\Charlie-master\\Charlie-master\\charlie\\stimuli\\visual\\stroop\\16-Incongruent.png'
g24
g24
I1050
tp117
a(g18
g19
g28
I87
g29
S'C:\\Users\\oleach\\Charlie-master\\Charlie-master\\charlie\\stimuli\\visual\\stroop\\50-Incongruent.png'
g22
g22
I1010
tp118
a(g18
g19
g28
I88
g31
S'C:\\Users\\oleach\\Charlie-master\\Charlie-master\\charlie\\stimuli\\visual\\stroop\\41-Congruent.png'
g24
g22
I1040
tp119
a(g18
g19
g28
I89
g31
S'C:\\Users\\oleach\\Charlie-master\\Charlie-master\\charlie\\stimuli\\visual\\stroop\\25-Congruent.png'
g22
g24
I1480
tp120
a(g18
g19
g28
I90
g31
S'C:\\Users\\oleach\\Charlie-master\\Charlie-master\\charlie\\stimuli\\visual\\stroop\\27-Congruent.png'
g22
g24
I2940
tp121
a(g18
g19
g28
I91
g29
S'C:\\Users\\oleach\\Charlie-master\\Charlie-master\\charlie\\stimuli\\visual\\stroop\\18-Incongruent.png'
g24
g24
I1100
tp122
a(g18
g19
g28
I92
g29
S'C:\\Users\\oleach\\Charlie-master\\Charlie-master\\charlie\\stimuli\\visual\\stroop\\30-Incongruent.png'
g22
g22
I1010
tp123
a(g18
g19
g28
I93
g31
S'C:\\Users\\oleach\\Charlie-master\\Charlie-master\\charlie\\stimuli\\visual\\stroop\\44-Congruent.png'
g24
g22
I800
tp124
a(g18
g19
g28
I94
g31
S'C:\\Users\\oleach\\Charlie-master\\Charlie-master\\charlie\\stimuli\\visual\\stroop\\37-Congruent.png'
g24
g22
I110
tp125
a(g18
g19
g28
I95
g29
S'C:\\Users\\oleach\\Charlie-master\\Charlie-master\\charlie\\stimuli\\visual\\stroop\\11-Incongruent.png'
g24
g24
I5931
tp126
a(g18
g19
g28
I96
g29
S'C:\\Users\\oleach\\Charlie-master\\Charlie-master\\charlie\\stimuli\\visual\\stroop\\29-Incongruent.png'
g22
g22
I1070
tp127
a(g18
g19
g28
I97
g29
S'C:\\Users\\oleach\\Charlie-master\\Charlie-master\\charlie\\stimuli\\visual\\stroop\\3-Incongruent.png'
g24
g24
I1170
tp128
a(g18
g19
g28
I98
g31
S'C:\\Users\\oleach\\Charlie-master\\Charlie-master\\charlie\\stimuli\\visual\\stroop\\1-Congruent.png'
g22
g24
I1440
tp129
a(g18
g19
g28
I99
g29
S'C:\\Users\\oleach\\Charlie-master\\Charlie-master\\charlie\\stimuli\\visual\\stroop\\52-Incongruent.png'
g22
g22
I1590
tp130
a(g18
g19
g28
I100
g29
S'C:\\Users\\oleach\\Charlie-master\\Charlie-master\\charlie\\stimuli\\visual\\stroop\\14-Incongruent.png'
g24
g24
I1510
tp131
a(g18
g19
g28
I101
g31
S'C:\\Users\\oleach\\Charlie-master\\Charlie-master\\charlie\\stimuli\\visual\\stroop\\47-Congruent.png'
g24
g22
I1880
tp132
a(g18
g19
g28
I102
g29
S'C:\\Users\\oleach\\Charlie-master\\Charlie-master\\charlie\\stimuli\\visual\\stroop\\19-Incongruent.png'
g24
g24
I2020
tp133
a(g18
g19
g28
I103
g31
S'C:\\Users\\oleach\\Charlie-master\\Charlie-master\\charlie\\stimuli\\visual\\stroop\\11-Congruent.png'
g22
g24
I3351
tp134
a(g18
g19
g28
I104
g29
S'C:\\Users\\oleach\\Charlie-master\\Charlie-master\\charlie\\stimuli\\visual\\stroop\\22-Incongruent.png'
g24
g24
I1180
tp135
a(g18
g19
g28
I105
g31
S'C:\\Users\\oleach\\Charlie-master\\Charlie-master\\charlie\\stimuli\\visual\\stroop\\7-Congruent.png'
g22
g24
I1020
tp136
a(g18
g19
g28
I106
g31
S'C:\\Users\\oleach\\Charlie-master\\Charlie-master\\charlie\\stimuli\\visual\\stroop\\53-Congruent.png'
g24
g22
I870
tp137
a(g18
g19
g28
I107
g31
S'C:\\Users\\oleach\\Charlie-master\\Charlie-master\\charlie\\stimuli\\visual\\stroop\\32-Congruent.png'
g24
g22
I820
tp138
a(g18
g19
g28
I108
g29
S'C:\\Users\\oleach\\Charlie-master\\Charlie-master\\charlie\\stimuli\\visual\\stroop\\45-Incongruent.png'
g22
g22
I3240
tp139
a(g18
g19
g28
I109
g31
S'C:\\Users\\oleach\\Charlie-master\\Charlie-master\\charlie\\stimuli\\visual\\stroop\\36-Congruent.png'
g24
g24
I690
tp140
a(g18
g19
g28
I110
g29
S'C:\\Users\\oleach\\Charlie-master\\Charlie-master\\charlie\\stimuli\\visual\\stroop\\51-Incongruent.png'
g22
g22
I3300
tp141
a(g18
g19
g28
I111
g31
S'C:\\Users\\oleach\\Charlie-master\\Charlie-master\\charlie\\stimuli\\visual\\stroop\\18-Congruent.png'
p142
g22
g24
I1220
tp143
asS'output_format'
p144
(lp145
(S'proband_id'
p146
c__builtin__
str
p147
tp148
a(S'test_name'
p149
g147
tp150
a(S'phase'
p151
g147
tp152
a(S'trialn'
p153
c__builtin__
int
p154
tp155
a(S'cong'
p156
g147
tp157
a(S'f'
g147
tp158
a(S'ans'
p159
g147
tp160
a(S'rsp'
p161
g147
tp162
a(S'rt'
p163
g154
tp164
asg146
g18
sS'filename'
p165
S'4436_stroop.data'
p166
sS'initialised'
p167
g8
(S'\x07\xdf\x08\x04\x0e\x00:\x01\xad\xb0'
tRp168
sS'last_udated'
p169
g8
(S'\x07\xdf\x08\x04\x0e\x00:\x01\xad\xb0'
tRp170
sg149
S'stroop'
p171
sS'directory'
p172
S'C:\\Users\\oleach\\Charlie-master\\Charlie-master\\charlie\\data\\raw'
p173
sS'user_id'
p174
S'oleach'
p175
sS'test_started'
p176
I01
sS'abs_filename'
p177
S'C:\\Users\\oleach\\Charlie-master\\Charlie-master\\charlie\\data\\raw\\4436_stroop.data'
p178
sS'date_started'
p179
g8
(S'\x07\xdf\x08\x04\x0e\x01\x15\x05r\x88'
tRp180
sS'log'
p181
(lp182
(S'2015-08-04 14:00:58.110000'
S'instance created'
p183
tp184
a(S'2015-08-04 14:01:21.368000'
S'instance updated'
p185
tp186
a(S'2015-08-04 14:01:21.376000'
S'pandas DataFrame of data created'
p187
tp188
a(S'2015-08-04 14:01:21.380000'
S'data saved as csv to C:\\Users\\oleach\\Charlie-master\\Charlie-master\\charlie\\data\\csv\\4436_stroop.csv'
tp189
a(S'2015-08-04 14:01:23.944000'
g185
tp190
a(S'2015-08-04 14:01:23.953000'
g187
tp191
a(S'2015-08-04 14:01:23.957000'
S'data saved as csv to C:\\Users\\oleach\\Charlie-master\\Charlie-master\\charlie\\data\\csv\\4436_stroop.csv'
tp192
a(S'2015-08-04 14:01:26.040000'
g185
tp193
a(S'2015-08-04 14:01:26.048000'
g187
tp194
a(S'2015-08-04 14:01:26.051000'
S'data saved as csv to C:\\Users\\oleach\\Charlie-master\\Charlie-master\\charlie\\data\\csv\\4436_stroop.csv'
tp195
a(S'2015-08-04 14:01:28.119000'
g185
tp196
a(S'2015-08-04 14:01:28.128000'
g187
tp197
a(S'2015-08-04 14:01:28.132000'
S'data saved as csv to C:\\Users\\oleach\\Charlie-master\\Charlie-master\\charlie\\data\\csv\\4436_stroop.csv'
tp198
a(S'2015-08-04 14:01:52.565000'
g185
tp199
a(S'2015-08-04 14:01:52.574000'
g187
tp200
a(S'2015-08-04 14:01:52.577000'
S'data saved as csv to C:\\Users\\oleach\\Charlie-master\\Charlie-master\\charlie\\data\\csv\\4436_stroop.csv'
tp201
a(S'2015-08-04 14:02:02.653000'
g185
tp202
a(S'2015-08-04 14:02:02.662000'
g187
tp203
a(S'2015-08-04 14:02:02.665000'
S'data saved as csv to C:\\Users\\oleach\\Charlie-master\\Charlie-master\\charlie\\data\\csv\\4436_stroop.csv'
tp204
a(S'2015-08-04 14:02:05.622000'
g185
tp205
a(S'2015-08-04 14:02:05.630000'
g187
tp206
a(S'2015-08-04 14:02:05.633000'
S'data saved as csv to C:\\Users\\oleach\\Charlie-master\\Charlie-master\\charlie\\data\\csv\\4436_stroop.csv'
tp207
a(S'2015-08-04 14:02:07.328000'
g185
tp208
a(S'2015-08-04 14:02:07.336000'
g187
tp209
a(S'2015-08-04 14:02:07.339000'
S'data saved as csv to C:\\Users\\oleach\\Charlie-master\\Charlie-master\\charlie\\data\\csv\\4436_stroop.csv'
tp210
a(S'2015-08-04 14:02:09.093000'
g185
tp211
a(S'2015-08-04 14:02:09.102000'
g187
tp212
a(S'2015-08-04 14:02:09.106000'
S'data saved as csv to C:\\Users\\oleach\\Charlie-master\\Charlie-master\\charlie\\data\\csv\\4436_stroop.csv'
tp213
a(S'2015-08-04 14:02:12.352000'
g185
tp214
a(S'2015-08-04 14:02:12.360000'
g187
tp215
a(S'2015-08-04 14:02:12.364000'
S'data saved as csv to C:\\Users\\oleach\\Charlie-master\\Charlie-master\\charlie\\data\\csv\\4436_stroop.csv'
tp216
a(S'2015-08-04 14:02:17.801000'
g185
tp217
a(S'2015-08-04 14:02:17.810000'
g187
tp218
a(S'2015-08-04 14:02:17.814000'
S'data saved as csv to C:\\Users\\oleach\\Charlie-master\\Charlie-master\\charlie\\data\\csv\\4436_stroop.csv'
tp219
a(S'2015-08-04 14:02:21.170000'
g185
tp220
a(S'2015-08-04 14:02:21.178000'
g187
tp221
a(S'2015-08-04 14:02:21.182000'
S'data saved as csv to C:\\Users\\oleach\\Charlie-master\\Charlie-master\\charlie\\data\\csv\\4436_stroop.csv'
tp222
a(S'2015-08-04 14:02:24.719000'
g185
tp223
a(S'2015-08-04 14:02:24.727000'
g187
tp224
a(S'2015-08-04 14:02:24.731000'
S'data saved as csv to C:\\Users\\oleach\\Charlie-master\\Charlie-master\\charlie\\data\\csv\\4436_stroop.csv'
tp225
a(S'2015-08-04 14:02:27.165000'
g185
tp226
a(S'2015-08-04 14:02:27.174000'
g187
tp227
a(S'2015-08-04 14:02:27.178000'
S'data saved as csv to C:\\Users\\oleach\\Charlie-master\\Charlie-master\\charlie\\data\\csv\\4436_stroop.csv'
tp228
a(S'2015-08-04 14:02:28.533000'
g185
tp229
a(S'2015-08-04 14:02:28.541000'
g187
tp230
a(S'2015-08-04 14:02:28.546000'
S'data saved as csv to C:\\Users\\oleach\\Charlie-master\\Charlie-master\\charlie\\data\\csv\\4436_stroop.csv'
tp231
a(S'2015-08-04 14:02:31.489000'
g185
tp232
a(S'2015-08-04 14:02:31.498000'
g187
tp233
a(S'2015-08-04 14:02:31.502000'
S'data saved as csv to C:\\Users\\oleach\\Charlie-master\\Charlie-master\\charlie\\data\\csv\\4436_stroop.csv'
tp234
a(S'2015-08-04 14:02:34.889000'
g185
tp235
a(S'2015-08-04 14:02:34.897000'
g187
tp236
a(S'2015-08-04 14:02:34.901000'
S'data saved as csv to C:\\Users\\oleach\\Charlie-master\\Charlie-master\\charlie\\data\\csv\\4436_stroop.csv'
tp237
a(S'2015-08-04 14:02:39.625000'
g185
tp238
a(S'2015-08-04 14:02:39.629000'
g187
tp239
a(S'2015-08-04 14:02:39.632000'
S'data saved as csv to C:\\Users\\oleach\\Charlie-master\\Charlie-master\\charlie\\data\\csv\\4436_stroop.csv'
tp240
a(S'2015-08-04 14:02:39.872000'
g185
tp241
a(S'2015-08-04 14:02:39.880000'
g187
tp242
a(S'2015-08-04 14:02:39.884000'
S'data saved as csv to C:\\Users\\oleach\\Charlie-master\\Charlie-master\\charlie\\data\\csv\\4436_stroop.csv'
tp243
a(S'2015-08-04 14:02:42.177000'
g185
tp244
a(S'2015-08-04 14:02:42.186000'
g187
tp245
a(S'2015-08-04 14:02:42.190000'
S'data saved as csv to C:\\Users\\oleach\\Charlie-master\\Charlie-master\\charlie\\data\\csv\\4436_stroop.csv'
tp246
a(S'2015-08-04 14:02:43.714000'
g185
tp247
a(S'2015-08-04 14:02:43.722000'
g187
tp248
a(S'2015-08-04 14:02:43.725000'
S'data saved as csv to C:\\Users\\oleach\\Charlie-master\\Charlie-master\\charlie\\data\\csv\\4436_stroop.csv'
tp249
a(S'2015-08-04 14:02:46.550000'
g185
tp250
a(S'2015-08-04 14:02:46.559000'
g187
tp251
a(S'2015-08-04 14:02:46.563000'
S'data saved as csv to C:\\Users\\oleach\\Charlie-master\\Charlie-master\\charlie\\data\\csv\\4436_stroop.csv'
tp252
a(S'2015-08-04 14:02:50.128000'
g185
tp253
a(S'2015-08-04 14:02:50.137000'
g187
tp254
a(S'2015-08-04 14:02:50.141000'
S'data saved as csv to C:\\Users\\oleach\\Charlie-master\\Charlie-master\\charlie\\data\\csv\\4436_stroop.csv'
tp255
a(S'2015-08-04 14:02:56.786000'
g185
tp256
a(S'2015-08-04 14:02:56.795000'
g187
tp257
a(S'2015-08-04 14:02:56.799000'
S'data saved as csv to C:\\Users\\oleach\\Charlie-master\\Charlie-master\\charlie\\data\\csv\\4436_stroop.csv'
tp258
a(S'2015-08-04 14:02:56.993000'
g185
tp259
a(S'2015-08-04 14:02:57.002000'
g187
tp260
a(S'2015-08-04 14:02:57.005000'
S'data saved as csv to C:\\Users\\oleach\\Charlie-master\\Charlie-master\\charlie\\data\\csv\\4436_stroop.csv'
tp261
a(S'2015-08-04 14:02:58.990000'
g185
tp262
a(S'2015-08-04 14:02:58.998000'
g187
tp263
a(S'2015-08-04 14:02:59.003000'
S'data saved as csv to C:\\Users\\oleach\\Charlie-master\\Charlie-master\\charlie\\data\\csv\\4436_stroop.csv'
tp264
a(S'2015-08-04 14:03:01.578000'
g185
tp265
a(S'2015-08-04 14:03:01.587000'
g187
tp266
a(S'2015-08-04 14:03:01.591000'
S'data saved as csv to C:\\Users\\oleach\\Charlie-master\\Charlie-master\\charlie\\data\\csv\\4436_stroop.csv'
tp267
a(S'2015-08-04 14:03:02.897000'
g185
tp268
a(S'2015-08-04 14:03:02.906000'
g187
tp269
a(S'2015-08-04 14:03:02.909000'
S'data saved as csv to C:\\Users\\oleach\\Charlie-master\\Charlie-master\\charlie\\data\\csv\\4436_stroop.csv'
tp270
a(S'2015-08-04 14:03:04.865000'
g185
tp271
a(S'2015-08-04 14:03:04.874000'
g187
tp272
a(S'2015-08-04 14:03:04.878000'
S'data saved as csv to C:\\Users\\oleach\\Charlie-master\\Charlie-master\\charlie\\data\\csv\\4436_stroop.csv'
tp273
a(S'2015-08-04 14:03:05.094000'
g185
tp274
a(S'2015-08-04 14:03:05.103000'
g187
tp275
a(S'2015-08-04 14:03:05.107000'
S'data saved as csv to C:\\Users\\oleach\\Charlie-master\\Charlie-master\\charlie\\data\\csv\\4436_stroop.csv'
tp276
a(S'2015-08-04 14:03:07.312000'
g185
tp277
a(S'2015-08-04 14:03:07.321000'
g187
tp278
a(S'2015-08-04 14:03:07.325000'
S'data saved as csv to C:\\Users\\oleach\\Charlie-master\\Charlie-master\\charlie\\data\\csv\\4436_stroop.csv'
tp279
a(S'2015-08-04 14:03:08.591000'
g185
tp280
a(S'2015-08-04 14:03:08.600000'
g187
tp281
a(S'2015-08-04 14:03:08.604000'
S'data saved as csv to C:\\Users\\oleach\\Charlie-master\\Charlie-master\\charlie\\data\\csv\\4436_stroop.csv'
tp282
a(S'2015-08-04 14:03:10.530000'
g185
tp283
a(S'2015-08-04 14:03:10.539000'
g187
tp284
a(S'2015-08-04 14:03:10.543000'
S'data saved as csv to C:\\Users\\oleach\\Charlie-master\\Charlie-master\\charlie\\data\\csv\\4436_stroop.csv'
tp285
a(S'2015-08-04 14:03:17.377000'
g185
tp286
a(S'2015-08-04 14:03:17.387000'
g187
tp287
a(S'2015-08-04 14:03:17.391000'
S'data saved as csv to C:\\Users\\oleach\\Charlie-master\\Charlie-master\\charlie\\data\\csv\\4436_stroop.csv'
tp288
a(S'2015-08-04 14:03:21.015000'
g185
tp289
a(S'2015-08-04 14:03:21.017000'
g187
tp290
a(S'2015-08-04 14:03:21.018000'
S'data saved as csv to C:\\Users\\oleach\\Charlie-master\\Charlie-master\\charlie\\data\\csv\\4436_stroop.csv'
tp291
a(S'2015-08-04 14:03:22.489000'
g185
tp292
a(S'2015-08-04 14:03:22.498000'
g187
tp293
a(S'2015-08-04 14:03:22.502000'
S'data saved as csv to C:\\Users\\oleach\\Charlie-master\\Charlie-master\\charlie\\data\\csv\\4436_stroop.csv'
tp294
a(S'2015-08-04 14:03:23.537000'
g185
tp295
a(S'2015-08-04 14:03:23.547000'
g187
tp296
a(S'2015-08-04 14:03:23.551000'
S'data saved as csv to C:\\Users\\oleach\\Charlie-master\\Charlie-master\\charlie\\data\\csv\\4436_stroop.csv'
tp297
a(S'2015-08-04 14:03:23.776000'
g185
tp298
a(S'2015-08-04 14:03:23.783000'
g187
tp299
a(S'2015-08-04 14:03:23.786000'
S'data saved as csv to C:\\Users\\oleach\\Charlie-master\\Charlie-master\\charlie\\data\\csv\\4436_stroop.csv'
tp300
a(S'2015-08-04 14:03:24.909000'
g185
tp301
a(S'2015-08-04 14:03:24.912000'
g187
tp302
a(S'2015-08-04 14:03:24.913000'
S'data saved as csv to C:\\Users\\oleach\\Charlie-master\\Charlie-master\\charlie\\data\\csv\\4436_stroop.csv'
tp303
a(S'2015-08-04 14:03:25.874000'
g185
tp304
a(S'2015-08-04 14:03:25.883000'
g187
tp305
a(S'2015-08-04 14:03:25.887000'
S'data saved as csv to C:\\Users\\oleach\\Charlie-master\\Charlie-master\\charlie\\data\\csv\\4436_stroop.csv'
tp306
a(S'2015-08-04 14:03:27.272000'
g185
tp307
a(S'2015-08-04 14:03:27.281000'
g187
tp308
a(S'2015-08-04 14:03:27.286000'
S'data saved as csv to C:\\Users\\oleach\\Charlie-master\\Charlie-master\\charlie\\data\\csv\\4436_stroop.csv'
tp309
a(S'2015-08-04 14:03:28.858000'
g185
tp310
a(S'2015-08-04 14:03:28.867000'
g187
tp311
a(S'2015-08-04 14:03:28.872000'
S'data saved as csv to C:\\Users\\oleach\\Charlie-master\\Charlie-master\\charlie\\data\\csv\\4436_stroop.csv'
tp312
a(S'2015-08-04 14:03:30.786000'
g185
tp313
a(S'2015-08-04 14:03:30.795000'
g187
tp314
a(S'2015-08-04 14:03:30.797000'
S'data saved as csv to C:\\Users\\oleach\\Charlie-master\\Charlie-master\\charlie\\data\\csv\\4436_stroop.csv'
tp315
a(S'2015-08-04 14:03:32.071000'
g185
tp316
a(S'2015-08-04 14:03:32.080000'
g187
tp317
a(S'2015-08-04 14:03:32.084000'
S'data saved as csv to C:\\Users\\oleach\\Charlie-master\\Charlie-master\\charlie\\data\\csv\\4436_stroop.csv'
tp318
a(S'2015-08-04 14:03:33.818000'
g185
tp319
a(S'2015-08-04 14:03:33.826000'
g187
tp320
a(S'2015-08-04 14:03:33.829000'
S'data saved as csv to C:\\Users\\oleach\\Charlie-master\\Charlie-master\\charlie\\data\\csv\\4436_stroop.csv'
tp321
a(S'2015-08-04 14:03:35.683000'
g185
tp322
a(S'2015-08-04 14:03:35.692000'
g187
tp323
a(S'2015-08-04 14:03:35.697000'
S'data saved as csv to C:\\Users\\oleach\\Charlie-master\\Charlie-master\\charlie\\data\\csv\\4436_stroop.csv'
tp324
a(S'2015-08-04 14:03:39.253000'
g185
tp325
a(S'2015-08-04 14:03:39.262000'
g187
tp326
a(S'2015-08-04 14:03:39.266000'
S'data saved as csv to C:\\Users\\oleach\\Charlie-master\\Charlie-master\\charlie\\data\\csv\\4436_stroop.csv'
tp327
a(S'2015-08-04 14:03:40.272000'
g185
tp328
a(S'2015-08-04 14:03:40.281000'
g187
tp329
a(S'2015-08-04 14:03:40.285000'
S'data saved as csv to C:\\Users\\oleach\\Charlie-master\\Charlie-master\\charlie\\data\\csv\\4436_stroop.csv'
tp330
a(S'2015-08-04 14:03:42.941000'
g185
tp331
a(S'2015-08-04 14:03:42.950000'
g187
tp332
a(S'2015-08-04 14:03:42.954000'
S'data saved as csv to C:\\Users\\oleach\\Charlie-master\\Charlie-master\\charlie\\data\\csv\\4436_stroop.csv'
tp333
a(S'2015-08-04 14:03:44.420000'
g185
tp334
a(S'2015-08-04 14:03:44.429000'
g187
tp335
a(S'2015-08-04 14:03:44.433000'
S'data saved as csv to C:\\Users\\oleach\\Charlie-master\\Charlie-master\\charlie\\data\\csv\\4436_stroop.csv'
tp336
a(S'2015-08-04 14:03:46.228000'
g185
tp337
a(S'2015-08-04 14:03:46.238000'
g187
tp338
a(S'2015-08-04 14:03:46.242000'
S'data saved as csv to C:\\Users\\oleach\\Charlie-master\\Charlie-master\\charlie\\data\\csv\\4436_stroop.csv'
tp339
a(S'2015-08-04 14:03:48.877000'
g185
tp340
a(S'2015-08-04 14:03:48.885000'
g187
tp341
a(S'2015-08-04 14:03:48.887000'
S'data saved as csv to C:\\Users\\oleach\\Charlie-master\\Charlie-master\\charlie\\data\\csv\\4436_stroop.csv'
tp342
a(S'2015-08-04 14:03:56.321000'
g185
tp343
a(S'2015-08-04 14:03:56.331000'
g187
tp344
a(S'2015-08-04 14:03:56.335000'
S'data saved as csv to C:\\Users\\oleach\\Charlie-master\\Charlie-master\\charlie\\data\\csv\\4436_stroop.csv'
tp345
a(S'2015-08-04 14:03:58.030000'
g185
tp346
a(S'2015-08-04 14:03:58.039000'
g187
tp347
a(S'2015-08-04 14:03:58.044000'
S'data saved as csv to C:\\Users\\oleach\\Charlie-master\\Charlie-master\\charlie\\data\\csv\\4436_stroop.csv'
tp348
a(S'2015-08-04 14:03:59.009000'
g185
tp349
a(S'2015-08-04 14:03:59.019000'
g187
tp350
a(S'2015-08-04 14:03:59.023000'
S'data saved as csv to C:\\Users\\oleach\\Charlie-master\\Charlie-master\\charlie\\data\\csv\\4436_stroop.csv'
tp351
a(S'2015-08-04 14:04:00.126000'
g185
tp352
a(S'2015-08-04 14:04:00.134000'
g187
tp353
a(S'2015-08-04 14:04:00.137000'
S'data saved as csv to C:\\Users\\oleach\\Charlie-master\\Charlie-master\\charlie\\data\\csv\\4436_stroop.csv'
tp354
a(S'2015-08-04 14:04:01.211000'
g185
tp355
a(S'2015-08-04 14:04:01.220000'
g187
tp356
a(S'2015-08-04 14:04:01.225000'
S'data saved as csv to C:\\Users\\oleach\\Charlie-master\\Charlie-master\\charlie\\data\\csv\\4436_stroop.csv'
tp357
a(S'2015-08-04 14:04:02.429000'
g185
tp358
a(S'2015-08-04 14:04:02.438000'
g187
tp359
a(S'2015-08-04 14:04:02.442000'
S'data saved as csv to C:\\Users\\oleach\\Charlie-master\\Charlie-master\\charlie\\data\\csv\\4436_stroop.csv'
tp360
a(S'2015-08-04 14:04:03.530000'
g185
tp361
a(S'2015-08-04 14:04:03.536000'
g187
tp362
a(S'2015-08-04 14:04:03.540000'
S'data saved as csv to C:\\Users\\oleach\\Charlie-master\\Charlie-master\\charlie\\data\\csv\\4436_stroop.csv'
tp363
a(S'2015-08-04 14:04:05.382000'
g185
tp364
a(S'2015-08-04 14:04:05.384000'
g187
tp365
a(S'2015-08-04 14:04:05.385000'
S'data saved as csv to C:\\Users\\oleach\\Charlie-master\\Charlie-master\\charlie\\data\\csv\\4436_stroop.csv'
tp366
a(S'2015-08-04 14:04:06.647000'
g185
tp367
a(S'2015-08-04 14:04:06.656000'
g187
tp368
a(S'2015-08-04 14:04:06.661000'
S'data saved as csv to C:\\Users\\oleach\\Charlie-master\\Charlie-master\\charlie\\data\\csv\\4436_stroop.csv'
tp369
a(S'2015-08-04 14:04:07.876000'
g185
tp370
a(S'2015-08-04 14:04:07.886000'
g187
tp371
a(S'2015-08-04 14:04:07.890000'
S'data saved as csv to C:\\Users\\oleach\\Charlie-master\\Charlie-master\\charlie\\data\\csv\\4436_stroop.csv'
tp372
a(S'2015-08-04 14:04:09.186000'
g185
tp373
a(S'2015-08-04 14:04:09.196000'
g187
tp374
a(S'2015-08-04 14:04:09.200000'
S'data saved as csv to C:\\Users\\oleach\\Charlie-master\\Charlie-master\\charlie\\data\\csv\\4436_stroop.csv'
tp375
a(S'2015-08-04 14:04:10.346000'
g185
tp376
a(S'2015-08-04 14:04:10.356000'
g187
tp377
a(S'2015-08-04 14:04:10.360000'
S'data saved as csv to C:\\Users\\oleach\\Charlie-master\\Charlie-master\\charlie\\data\\csv\\4436_stroop.csv'
tp378
a(S'2015-08-04 14:04:14.183000'
g185
tp379
a(S'2015-08-04 14:04:14.192000'
g187
tp380
a(S'2015-08-04 14:04:14.197000'
S'data saved as csv to C:\\Users\\oleach\\Charlie-master\\Charlie-master\\charlie\\data\\csv\\4436_stroop.csv'
tp381
a(S'2015-08-04 14:04:15.823000'
g185
tp382
a(S'2015-08-04 14:04:15.832000'
g187
tp383
a(S'2015-08-04 14:04:15.837000'
S'data saved as csv to C:\\Users\\oleach\\Charlie-master\\Charlie-master\\charlie\\data\\csv\\4436_stroop.csv'
tp384
a(S'2015-08-04 14:04:16.084000'
g185
tp385
a(S'2015-08-04 14:04:16.091000'
g187
tp386
a(S'2015-08-04 14:04:16.094000'
S'data saved as csv to C:\\Users\\oleach\\Charlie-master\\Charlie-master\\charlie\\data\\csv\\4436_stroop.csv'
tp387
a(S'2015-08-04 14:04:17.777000'
g185
tp388
a(S'2015-08-04 14:04:17.787000'
g187
tp389
a(S'2015-08-04 14:04:17.792000'
S'data saved as csv to C:\\Users\\oleach\\Charlie-master\\Charlie-master\\charlie\\data\\csv\\4436_stroop.csv'
tp390
a(S'2015-08-04 14:04:18.737000'
g185
tp391
a(S'2015-08-04 14:04:18.746000'
g187
tp392
a(S'2015-08-04 14:04:18.751000'
S'data saved as csv to C:\\Users\\oleach\\Charlie-master\\Charlie-master\\charlie\\data\\csv\\4436_stroop.csv'
tp393
a(S'2015-08-04 14:04:24.797000'
g185
tp394
a(S'2015-08-04 14:04:24.806000'
g187
tp395
a(S'2015-08-04 14:04:24.811000'
S'data saved as csv to C:\\Users\\oleach\\Charlie-master\\Charlie-master\\charlie\\data\\csv\\4436_stroop.csv'
tp396
a(S'2015-08-04 14:04:27.406000'
g185
tp397
a(S'2015-08-04 14:04:27.416000'
g187
tp398
a(S'2015-08-04 14:04:27.420000'
S'data saved as csv to C:\\Users\\oleach\\Charlie-master\\Charlie-master\\charlie\\data\\csv\\4436_stroop.csv'
tp399
a(S'2015-08-04 14:04:28.535000'
g185
tp400
a(S'2015-08-04 14:04:28.545000'
g187
tp401
a(S'2015-08-04 14:04:28.550000'
S'data saved as csv to C:\\Users\\oleach\\Charlie-master\\Charlie-master\\charlie\\data\\csv\\4436_stroop.csv'
tp402
a(S'2015-08-04 14:04:29.055000'
g185
tp403
a(S'2015-08-04 14:04:29.065000'
g187
tp404
a(S'2015-08-04 14:04:29.070000'
S'data saved as csv to C:\\Users\\oleach\\Charlie-master\\Charlie-master\\charlie\\data\\csv\\4436_stroop.csv'
tp405
a(S'2015-08-04 14:04:30.684000'
g185
tp406
a(S'2015-08-04 14:04:30.693000'
g187
tp407
a(S'2015-08-04 14:04:30.696000'
S'data saved as csv to C:\\Users\\oleach\\Charlie-master\\Charlie-master\\charlie\\data\\csv\\4436_stroop.csv'
tp408
a(S'2015-08-04 14:04:33.620000'
g185
tp409
a(S'2015-08-04 14:04:33.629000'
g187
tp410
a(S'2015-08-04 14:04:33.634000'
S'data saved as csv to C:\\Users\\oleach\\Charlie-master\\Charlie-master\\charlie\\data\\csv\\4436_stroop.csv'
tp411
a(S'2015-08-04 14:04:33.816000'
g185
tp412
a(S'2015-08-04 14:04:33.823000'
g187
tp413
a(S'2015-08-04 14:04:33.826000'
S'data saved as csv to C:\\Users\\oleach\\Charlie-master\\Charlie-master\\charlie\\data\\csv\\4436_stroop.csv'
tp414
a(S'2015-08-04 14:04:34.131000'
g185
tp415
a(S'2015-08-04 14:04:34.141000'
g187
tp416
a(S'2015-08-04 14:04:34.144000'
S'data saved as csv to C:\\Users\\oleach\\Charlie-master\\Charlie-master\\charlie\\data\\csv\\4436_stroop.csv'
tp417
a(S'2015-08-04 14:04:38.548000'
g185
tp418
a(S'2015-08-04 14:04:38.558000'
g187
tp419
a(S'2015-08-04 14:04:38.563000'
S'data saved as csv to C:\\Users\\oleach\\Charlie-master\\Charlie-master\\charlie\\data\\csv\\4436_stroop.csv'
tp420
a(S'2015-08-04 14:04:40.017000'
g185
tp421
a(S'2015-08-04 14:04:40.021000'
g187
tp422
a(S'2015-08-04 14:04:40.023000'
S'data saved as csv to C:\\Users\\oleach\\Charlie-master\\Charlie-master\\charlie\\data\\csv\\4436_stroop.csv'
tp423
a(S'2015-08-04 14:04:41.045000'
g185
tp424
a(S'2015-08-04 14:04:41.055000'
g187
tp425
a(S'2015-08-04 14:04:41.060000'
S'data saved as csv to C:\\Users\\oleach\\Charlie-master\\Charlie-master\\charlie\\data\\csv\\4436_stroop.csv'
tp426
a(S'2015-08-04 14:04:41.956000'
g185
tp427
a(S'2015-08-04 14:04:41.966000'
g187
tp428
a(S'2015-08-04 14:04:41.970000'
S'data saved as csv to C:\\Users\\oleach\\Charlie-master\\Charlie-master\\charlie\\data\\csv\\4436_stroop.csv'
tp429
a(S'2015-08-04 14:04:43.154000'
g185
tp430
a(S'2015-08-04 14:04:43.164000'
g187
tp431
a(S'2015-08-04 14:04:43.169000'
S'data saved as csv to C:\\Users\\oleach\\Charlie-master\\Charlie-master\\charlie\\data\\csv\\4436_stroop.csv'
tp432
a(S'2015-08-04 14:04:45.234000'
g185
tp433
a(S'2015-08-04 14:04:45.242000'
g187
tp434
a(S'2015-08-04 14:04:45.245000'
S'data saved as csv to C:\\Users\\oleach\\Charlie-master\\Charlie-master\\charlie\\data\\csv\\4436_stroop.csv'
tp435
a(S'2015-08-04 14:04:46.449000'
g185
tp436
a(S'2015-08-04 14:04:46.459000'
g187
tp437
a(S'2015-08-04 14:04:46.464000'
S'data saved as csv to C:\\Users\\oleach\\Charlie-master\\Charlie-master\\charlie\\data\\csv\\4436_stroop.csv'
tp438
a(S'2015-08-04 14:04:49.060000'
g185
tp439
a(S'2015-08-04 14:04:49.070000'
g187
tp440
a(S'2015-08-04 14:04:49.075000'
S'data saved as csv to C:\\Users\\oleach\\Charlie-master\\Charlie-master\\charlie\\data\\csv\\4436_stroop.csv'
tp441
a(S'2015-08-04 14:04:49.961000'
g185
tp442
a(S'2015-08-04 14:04:49.970000'
g187
tp443
a(S'2015-08-04 14:04:49.975000'
S'data saved as csv to C:\\Users\\oleach\\Charlie-master\\Charlie-master\\charlie\\data\\csv\\4436_stroop.csv'
tp444
a(S'2015-08-04 14:04:51.411000'
g185
tp445
a(S'2015-08-04 14:04:51.420000'
g187
tp446
a(S'2015-08-04 14:04:51.423000'
S'data saved as csv to C:\\Users\\oleach\\Charlie-master\\Charlie-master\\charlie\\data\\csv\\4436_stroop.csv'
tp447
a(S'2015-08-04 14:04:52.146000'
g185
tp448
a(S'2015-08-04 14:04:52.156000'
g187
tp449
a(S'2015-08-04 14:04:52.161000'
S'data saved as csv to C:\\Users\\oleach\\Charlie-master\\Charlie-master\\charlie\\data\\csv\\4436_stroop.csv'
tp450
a(S'2015-08-04 14:04:53.128000'
g185
tp451
a(S'2015-08-04 14:04:53.138000'
g187
tp452
a(S'2015-08-04 14:04:53.143000'
S'data saved as csv to C:\\Users\\oleach\\Charlie-master\\Charlie-master\\charlie\\data\\csv\\4436_stroop.csv'
tp453
a(S'2015-08-04 14:04:58.740000'
g185
tp454
a(S'2015-08-04 14:04:58.750000'
g187
tp455
a(S'2015-08-04 14:04:58.755000'
S'data saved as csv to C:\\Users\\oleach\\Charlie-master\\Charlie-master\\charlie\\data\\csv\\4436_stroop.csv'
tp456
a(S'2015-08-04 14:04:59.942000'
g185
tp457
a(S'2015-08-04 14:04:59.952000'
g187
tp458
a(S'2015-08-04 14:04:59.957000'
S'data saved as csv to C:\\Users\\oleach\\Charlie-master\\Charlie-master\\charlie\\data\\csv\\4436_stroop.csv'
tp459
a(S'2015-08-04 14:05:01.104000'
g185
tp460
a(S'2015-08-04 14:05:01.114000'
g187
tp461
a(S'2015-08-04 14:05:01.119000'
S'data saved as csv to C:\\Users\\oleach\\Charlie-master\\Charlie-master\\charlie\\data\\csv\\4436_stroop.csv'
tp462
a(S'2015-08-04 14:05:02.295000'
g185
tp463
a(S'2015-08-04 14:05:02.304000'
g187
tp464
a(S'2015-08-04 14:05:02.307000'
S'data saved as csv to C:\\Users\\oleach\\Charlie-master\\Charlie-master\\charlie\\data\\csv\\4436_stroop.csv'
tp465
a(S'2015-08-04 14:05:03.922000'
g185
tp466
a(S'2015-08-04 14:05:03.932000'
g187
tp467
a(S'2015-08-04 14:05:03.937000'
S'data saved as csv to C:\\Users\\oleach\\Charlie-master\\Charlie-master\\charlie\\data\\csv\\4436_stroop.csv'
tp468
a(S'2015-08-04 14:05:07.014000'
g185
tp469
a(S'2015-08-04 14:05:07.024000'
g187
tp470
a(S'2015-08-04 14:05:07.029000'
S'data saved as csv to C:\\Users\\oleach\\Charlie-master\\Charlie-master\\charlie\\data\\csv\\4436_stroop.csv'
tp471
a(S'2015-08-04 14:05:08.266000'
g185
tp472
a(S'2015-08-04 14:05:08.275000'
g187
tp473
a(S'2015-08-04 14:05:08.278000'
S'data saved as csv to C:\\Users\\oleach\\Charlie-master\\Charlie-master\\charlie\\data\\csv\\4436_stroop.csv'
tp474
a(S'2015-08-04 14:05:09.422000'
g185
tp475
a(S'2015-08-04 14:05:09.432000'
g187
tp476
a(S'2015-08-04 14:05:09.437000'
S'data saved as csv to C:\\Users\\oleach\\Charlie-master\\Charlie-master\\charlie\\data\\csv\\4436_stroop.csv'
tp477
a(S'2015-08-04 14:05:10.374000'
g185
tp478
a(S'2015-08-04 14:05:10.384000'
g187
tp479
a(S'2015-08-04 14:05:10.389000'
S'data saved as csv to C:\\Users\\oleach\\Charlie-master\\Charlie-master\\charlie\\data\\csv\\4436_stroop.csv'
tp480
a(S'2015-08-04 14:05:10.636000'
g185
tp481
a(S'2015-08-04 14:05:10.645000'
g187
tp482
a(S'2015-08-04 14:05:10.648000'
S'data saved as csv to C:\\Users\\oleach\\Charlie-master\\Charlie-master\\charlie\\data\\csv\\4436_stroop.csv'
tp483
a(S'2015-08-04 14:05:16.713000'
g185
tp484
a(S'2015-08-04 14:05:16.723000'
g187
tp485
a(S'2015-08-04 14:05:16.727000'
S'data saved as csv to C:\\Users\\oleach\\Charlie-master\\Charlie-master\\charlie\\data\\csv\\4436_stroop.csv'
tp486
a(S'2015-08-04 14:05:17.933000'
g185
tp487
a(S'2015-08-04 14:05:17.943000'
g187
tp488
a(S'2015-08-04 14:05:17.948000'
S'data saved as csv to C:\\Users\\oleach\\Charlie-master\\Charlie-master\\charlie\\data\\csv\\4436_stroop.csv'
tp489
a(S'2015-08-04 14:05:19.255000'
g185
tp490
a(S'2015-08-04 14:05:19.265000'
g187
tp491
a(S'2015-08-04 14:05:19.270000'
S'data saved as csv to C:\\Users\\oleach\\Charlie-master\\Charlie-master\\charlie\\data\\csv\\4436_stroop.csv'
tp492
a(S'2015-08-04 14:05:20.847000'
g185
tp493
a(S'2015-08-04 14:05:20.856000'
g187
tp494
a(S'2015-08-04 14:05:20.860000'
S'data saved as csv to C:\\Users\\oleach\\Charlie-master\\Charlie-master\\charlie\\data\\csv\\4436_stroop.csv'
tp495
a(S'2015-08-04 14:05:22.587000'
g185
tp496
a(S'2015-08-04 14:05:22.596000'
g187
tp497
a(S'2015-08-04 14:05:22.602000'
S'data saved as csv to C:\\Users\\oleach\\Charlie-master\\Charlie-master\\charlie\\data\\csv\\4436_stroop.csv'
tp498
a(S'2015-08-04 14:05:24.250000'
g185
tp499
a(S'2015-08-04 14:05:24.259000'
g187
tp500
a(S'2015-08-04 14:05:24.262000'
S'data saved as csv to C:\\Users\\oleach\\Charlie-master\\Charlie-master\\charlie\\data\\csv\\4436_stroop.csv'
tp501
a(S'2015-08-04 14:05:26.278000'
g185
tp502
a(S'2015-08-04 14:05:26.288000'
g187
tp503
a(S'2015-08-04 14:05:26.294000'
S'data saved as csv to C:\\Users\\oleach\\Charlie-master\\Charlie-master\\charlie\\data\\csv\\4436_stroop.csv'
tp504
a(S'2015-08-04 14:05:28.451000'
g185
tp505
a(S'2015-08-04 14:05:28.460000'
g187
tp506
a(S'2015-08-04 14:05:28.463000'
S'data saved as csv to C:\\Users\\oleach\\Charlie-master\\Charlie-master\\charlie\\data\\csv\\4436_stroop.csv'
tp507
a(S'2015-08-04 14:05:31.947000'
g185
tp508
a(S'2015-08-04 14:05:31.958000'
g187
tp509
a(S'2015-08-04 14:05:31.963000'
S'data saved as csv to C:\\Users\\oleach\\Charlie-master\\Charlie-master\\charlie\\data\\csv\\4436_stroop.csv'
tp510
a(S'2015-08-04 14:05:33.280000'
g185
tp511
a(S'2015-08-04 14:05:33.288000'
g187
tp512
a(S'2015-08-04 14:05:33.291000'
S'data saved as csv to C:\\Users\\oleach\\Charlie-master\\Charlie-master\\charlie\\data\\csv\\4436_stroop.csv'
tp513
a(S'2015-08-04 14:05:34.446000'
g185
tp514
a(S'2015-08-04 14:05:34.457000'
g187
tp515
a(S'2015-08-04 14:05:34.459000'
S'data saved as csv to C:\\Users\\oleach\\Charlie-master\\Charlie-master\\charlie\\data\\csv\\4436_stroop.csv'
tp516
a(S'2015-08-04 14:05:35.463000'
g185
tp517
a(S'2015-08-04 14:05:35.473000'
g187
tp518
a(S'2015-08-04 14:05:35.478000'
S'data saved as csv to C:\\Users\\oleach\\Charlie-master\\Charlie-master\\charlie\\data\\csv\\4436_stroop.csv'
tp519
a(S'2015-08-04 14:05:36.432000'
g185
tp520
a(S'2015-08-04 14:05:36.443000'
g187
tp521
a(S'2015-08-04 14:05:36.448000'
S'data saved as csv to C:\\Users\\oleach\\Charlie-master\\Charlie-master\\charlie\\data\\csv\\4436_stroop.csv'
tp522
a(S'2015-08-04 14:05:39.826000'
g185
tp523
a(S'2015-08-04 14:05:39.837000'
g187
tp524
a(S'2015-08-04 14:05:39.843000'
S'data saved as csv to C:\\Users\\oleach\\Charlie-master\\Charlie-master\\charlie\\data\\csv\\4436_stroop.csv'
tp525
a(S'2015-08-04 14:05:40.670000'
g185
tp526
a(S'2015-08-04 14:05:40.680000'
g187
tp527
a(S'2015-08-04 14:05:40.686000'
S'data saved as csv to C:\\Users\\oleach\\Charlie-master\\Charlie-master\\charlie\\data\\csv\\4436_stroop.csv'
tp528
a(S'2015-08-04 14:05:44.124000'
g185
tp529
a(S'2015-08-04 14:05:44.134000'
g187
tp530
a(S'2015-08-04 14:05:44.140000'
S'data saved as csv to C:\\Users\\oleach\\Charlie-master\\Charlie-master\\charlie\\data\\csv\\4436_stroop.csv'
tp531
a(S'2015-08-04 14:05:45.496000'
g185
tp532
a(S'2015-08-04 14:05:45.507000'
g187
tp533
a(S'2015-08-04 14:05:45.512000'
S'data saved as csv to C:\\Users\\oleach\\Charlie-master\\Charlie-master\\charlie\\data\\csv\\4436_stroop.csv'
tp534
asb.