(icharlie.tools.data
Data
p1
(dp2
S'lang'
p3
S'EN'
p4
sS'control'
p5
(lp6
sS'last_updated'
p7
cdatetime
datetime
p8
(S'\x07\xdf\x08\x04\x0e\x1d:\t#\xd8'
tRp9
sS'last_opened'
p10
g8
(S'\x07\xdf\x08\x04\x0e\x15"\x0bi\xe0'
tRp11
sS'proj_id'
p12
S'connectivity'
p13
sS'date_done'
p14
NsS'test_done'
p15
I01
sS'data'
p16
(lp17
(S'4436'
p18
S'ctrails'
p19
S'number'
p20
S'practice'
p21
I0
I1
S'Correct'
p22
I2651
I11319
tp23
a(g18
g19
g20
g21
I1
I2
g22
I1481
I11319
tp24
a(g18
g19
g20
g21
I2
I3
g22
I990
I11319
tp25
a(g18
g19
g20
g21
I3
I4
g22
I850
I11319
tp26
a(g18
g19
g20
g21
I4
I5
g22
I1700
I11319
tp27
a(g18
g19
g20
g21
I5
I6
g22
I570
I11319
tp28
a(g18
g19
g20
g21
I6
I7
g22
I490
I11319
tp29
a(g18
g19
g20
g21
I7
I8
g22
I950
I11319
tp30
a(g18
g19
g20
S'test'
p31
I0
I1
g22
I4340
I87884
tp32
a(g18
g19
g20
g31
I1
I2
g22
I1240
I87884
tp33
a(g18
g19
g20
g31
I2
I3
g22
I1250
I87884
tp34
a(g18
g19
g20
g31
I3
I4
g22
I3080
I87884
tp35
a(g18
g19
g20
g31
I4
I5
g22
I3731
I87884
tp36
a(g18
g19
g20
g31
I5
I6
g22
I1780
I87884
tp37
a(g18
g19
g20
g31
I6
I7
g22
I880
I87884
tp38
a(g18
g19
g20
g31
I7
I8
g22
I990
I87884
tp39
a(g18
g19
g20
g31
I8
I9
g22
I1650
I87884
tp40
a(g18
g19
g20
g31
I9
I10
g22
I1930
I87884
tp41
a(g18
g19
g20
g31
I10
I11
g22
I2360
I87884
tp42
a(g18
g19
g20
g31
I11
I12
g22
I8181
I87884
tp43
a(g18
g19
g20
g31
I12
I13
g22
I990
I87884
tp44
a(g18
g19
g20
g31
I13
I14
g22
I1130
I87884
tp45
a(g18
g19
g20
g31
I14
I15
g22
I590
I87884
tp46
a(g18
g19
g20
g31
I15
I16
g22
I7700
I87884
tp47
a(g18
g19
g20
g31
I16
I17
g22
I1150
I87884
tp48
a(g18
g19
g20
g31
I17
I18
g22
I1260
I87884
tp49
a(g18
g19
g20
g31
I18
I19
g22
I6671
I87884
tp50
a(g18
g19
g20
g31
I19
I20
g22
I990
I87884
tp51
a(g18
g19
g20
g31
I20
I24
S'Incorrect'
p52
I9850
I87884
tp53
a(g18
g19
g20
g31
I21
I1
g52
I4111
I87884
tp54
a(g18
g19
g20
g31
I22
I21
g22
I15430
I87884
tp55
a(g18
g19
g20
g31
I23
I22
g22
I2921
I87884
tp56
a(g18
g19
g20
g31
I24
I23
g22
I1500
I87884
tp57
a(g18
g19
g20
g31
I25
I24
g22
I1100
I87884
tp58
a(g18
g19
g20
g31
I26
I25
g22
I950
I87884
tp59
a(g18
g19
S'letter'
p60
g21
I0
S'a'
g22
I2060
I10037
tp61
a(g18
g19
g60
g21
I1
S'b'
g22
I821
I10037
tp62
a(g18
g19
g60
g21
I2
S'c'
g22
I910
I10037
tp63
a(g18
g19
g60
g21
I3
S'd'
g22
I1230
I10037
tp64
a(g18
g19
g60
g21
I4
S'e'
g22
I1190
I10037
tp65
a(g18
g19
g60
g21
I5
S'f'
g22
I1100
I10037
tp66
a(g18
g19
g60
g21
I6
S'g'
g22
I1340
I10037
tp67
a(g18
g19
g60
g21
I7
S'h'
g22
I1340
I10037
tp68
a(g18
g19
g60
g31
I0
S'a'
g22
I4591
I59674
tp69
a(g18
g19
g60
g31
I1
S'b'
g22
I920
I59674
tp70
a(g18
g19
g60
g31
I2
S'c'
g22
I1420
I59674
tp71
a(g18
g19
g60
g31
I3
S'd'
g22
I1520
I59674
tp72
a(g18
g19
g60
g31
I4
S'e'
g22
I1570
I59674
tp73
a(g18
g19
g60
g31
I5
S'f'
g22
I9231
I59674
tp74
a(g18
g19
g60
g31
I6
S'g'
g22
I1130
I59674
tp75
a(g18
g19
g60
g31
I7
S'h'
g22
I2850
I59674
tp76
a(g18
g19
g60
g31
I8
S'i'
g22
I1430
I59674
tp77
a(g18
g19
g60
g31
I9
S'j'
g22
I1020
I59674
tp78
a(g18
g19
g60
g31
I10
S'k'
g22
I1060
I59674
tp79
a(g18
g19
g60
g31
I11
S'l'
g22
I10351
I59674
tp80
a(g18
g19
g60
g31
I12
S'm'
g22
I7310
I59674
tp81
a(g18
g19
g60
g31
I13
S'n'
g22
I1660
I59674
tp82
a(g18
g19
g60
g31
I14
S'o'
g22
I730
I59674
tp83
a(g18
g19
g60
g31
I15
S'p'
g22
I880
I59674
tp84
a(g18
g19
g60
g31
I16
S'q'
g22
I1350
I59674
tp85
a(g18
g19
g60
g31
I17
S'r'
g22
I700
I59674
tp86
a(g18
g19
g60
g31
I18
S's'
g22
I700
I59674
tp87
a(g18
g19
g60
g31
I19
S't'
g22
I820
I59674
tp88
a(g18
g19
g60
g31
I20
S'u'
g22
I841
I59674
tp89
a(g18
g19
g60
g31
I21
S'v'
g22
I2490
I59674
tp90
a(g18
g19
g60
g31
I22
S'w'
g22
I790
I59674
tp91
a(g18
g19
g60
g31
I23
S'x'
g22
I2220
I59674
tp92
a(g18
g19
g60
g31
I24
S'y'
g22
I950
I59674
tp93
a(g18
g19
S'number-letter'
p94
g21
I0
S'a'
g52
I3080
I17857
tp95
a(g18
g19
g94
g21
I1
I1
g22
I2820
I17857
tp96
a(g18
g19
g94
g21
I2
S'a'
g22
I820
I17857
tp97
a(g18
g19
g94
g21
I3
I2
g22
I2860
I17857
tp98
a(g18
g19
g94
g21
I4
S'b'
g22
I1320
I17857
tp99
a(g18
g19
g94
g21
I5
I3
g22
I1180
I17857
tp100
a(g18
g19
g94
g21
I6
S'c'
g22
I1950
I17857
tp101
a(g18
g19
g94
g21
I7
I4
g22
I1450
I17857
tp102
a(g18
g19
g94
g21
I8
S'd'
g22
I2331
I17857
tp103
a(g18
g19
g94
g31
I0
S'l'
g52
I7831
I217283
tp104
a(g18
g19
g94
g31
I1
S'a'
g52
I1740
I217283
tp105
a(g18
g19
g94
g31
I2
I1
g22
I7560
I217283
tp106
a(g18
g19
g94
g31
I3
S'a'
g22
I1340
I217283
tp107
a(g18
g19
g94
g31
I4
I2
g22
I1140
I217283
tp108
a(g18
g19
g94
g31
I5
S'b'
g22
I3620
I217283
tp109
a(g18
g19
g94
g31
I6
I3
g22
I4411
I217283
tp110
a(g18
g19
g94
g31
I7
S'c'
g22
I2810
I217283
tp111
a(g18
g19
g94
g31
I8
I5
g52
I19501
I217283
tp112
a(g18
g19
g94
g31
I9
I1
g52
I2190
I217283
tp113
a(g18
g19
g94
g31
I10
I3
g52
I9951
I217283
tp114
a(g18
g19
g94
g31
I11
I3
g52
I3320
I217283
tp115
a(g18
g19
g94
g31
I12
I4
g22
I7040
I217283
tp116
a(g18
g19
g94
g31
I13
S'd'
g22
I770
I217283
tp117
a(g18
g19
g94
g31
I14
I5
g22
I2500
I217283
tp118
a(g18
g19
g94
g31
I15
S'e'
g22
I720
I217283
tp119
a(g18
g19
g94
g31
I16
I6
g22
I2831
I217283
tp120
a(g18
g19
g94
g31
I17
S'f'
g22
I3130
I217283
tp121
a(g18
g19
g94
g31
I18
I7
g22
I8390
I217283
tp122
a(g18
g19
g94
g31
I19
S'g'
g22
I3940
I217283
tp123
a(g18
g19
g94
g31
I20
I9
g52
I14291
I217283
tp124
a(g18
g19
g94
g31
I21
I8
g22
I7461
I217283
tp125
a(g18
g19
g94
g31
I22
S'h'
g22
I7160
I217283
tp126
a(g18
g19
g94
g31
I23
I9
g22
I5140
I217283
tp127
a(g18
g19
g94
g31
I24
I9
g52
I2151
I217283
tp128
a(g18
g19
g94
g31
I25
I9
g52
I1210
I217283
tp129
a(g18
g19
g94
g31
I26
S'i'
g22
I3020
I217283
tp130
a(g18
g19
g94
g31
I27
I10
g22
I3820
I217283
tp131
a(g18
g19
g94
g31
I28
I11
g52
I8561
I217283
tp132
a(g18
g19
g94
g31
I29
I10
g52
I3400
I217283
tp133
a(g18
g19
g94
g31
I30
S'j'
g22
I2050
I217283
tp134
a(g18
g19
g94
g31
I31
I11
g22
I3770
I217283
tp135
a(g18
g19
g94
g31
I32
S'k'
g22
I1650
I217283
tp136
a(g18
g19
g94
g31
I33
I12
g22
I6331
I217283
tp137
a(g18
g19
g94
g31
I34
I13
g52
I8740
I217283
tp138
a(g18
g19
g94
g31
I35
I12
g52
I1850
I217283
tp139
a(g18
g19
g94
g31
I36
S'j'
g52
I7321
I217283
tp140
a(g18
g19
g94
g31
I37
S'l'
g22
I7780
I217283
tp141
a(g18
g19
g94
g31
I38
S'l'
g52
I17041
I217283
tp142
a(g18
g19
g94
g31
I39
I13
g22
I5040
I217283
tp143
asS'output_format'
p144
(lp145
(S'proband_id'
p146
c__builtin__
str
p147
tp148
a(S'test_name'
p149
g147
tp150
a(S'phase'
p151
g147
tp152
a(S'trial_type'
p153
g147
tp154
a(S'n'
c__builtin__
int
p155
tp156
a(S'rsp'
p157
g147
tp158
a(S'corr'
p159
g147
tp160
a(S'rt'
p161
g155
tp162
a(S'total_time'
p163
g155
tp164
asg146
g18
sS'filename'
p165
S'4436_ctrails.data'
p166
sS'initialised'
p167
g8
(S'\x07\xdf\x08\x04\x0e\x15"\x0bi\xe0'
tRp168
sS'last_udated'
p169
g8
(S'\x07\xdf\x08\x04\x0e\x15"\x0bi\xe0'
tRp170
sg149
S'ctrails'
p171
sS'directory'
p172
S'C:\\Users\\oleach\\Charlie-master\\Charlie-master\\charlie\\data\\raw'
p173
sS'user_id'
p174
S'oleach'
p175
sS'test_started'
p176
I01
sS'abs_filename'
p177
S'C:\\Users\\oleach\\Charlie-master\\Charlie-master\\charlie\\data\\raw\\4436_ctrails.data'
p178
sS'date_started'
p179
g8
(S'\x07\xdf\x08\x04\x0e\x16\x0e\x0c\r\xf0'
tRp180
sS'log'
p181
(lp182
(S'2015-08-04 14:21:34.748000'
S'instance created'
p183
tp184
a(S'2015-08-04 14:22:14.799000'
S'instance updated'
p185
tp186
a(S'2015-08-04 14:22:14.809000'
S'pandas DataFrame of data created'
p187
tp188
a(S'2015-08-04 14:22:14.813000'
S'data saved as csv to C:\\Users\\oleach\\Charlie-master\\Charlie-master\\charlie\\data\\csv\\4436_ctrails.csv'
tp189
a(S'2015-08-04 14:23:56.479000'
g185
tp190
a(S'2015-08-04 14:23:56.489000'
g187
tp191
a(S'2015-08-04 14:23:56.493000'
S'data saved as csv to C:\\Users\\oleach\\Charlie-master\\Charlie-master\\charlie\\data\\csv\\4436_ctrails.csv'
tp192
a(S'2015-08-04 14:24:16.276000'
g185
tp193
a(S'2015-08-04 14:24:16.285000'
g187
tp194
a(S'2015-08-04 14:24:16.289000'
S'data saved as csv to C:\\Users\\oleach\\Charlie-master\\Charlie-master\\charlie\\data\\csv\\4436_ctrails.csv'
tp195
a(S'2015-08-04 14:25:25.537000'
g185
tp196
a(S'2015-08-04 14:25:25.547000'
g187
tp197
a(S'2015-08-04 14:25:25.551000'
S'data saved as csv to C:\\Users\\oleach\\Charlie-master\\Charlie-master\\charlie\\data\\csv\\4436_ctrails.csv'
tp198
a(S'2015-08-04 14:26:12.868000'
g185
tp199
a(S'2015-08-04 14:26:12.878000'
g187
tp200
a(S'2015-08-04 14:26:12.882000'
S'data saved as csv to C:\\Users\\oleach\\Charlie-master\\Charlie-master\\charlie\\data\\csv\\4436_ctrails.csv'
tp201
a(S'2015-08-04 14:29:58.583000'
g185
tp202
a(S'2015-08-04 14:29:58.593000'
g187
tp203
a(S'2015-08-04 14:29:58.598000'
S'data saved as csv to C:\\Users\\oleach\\Charlie-master\\Charlie-master\\charlie\\data\\csv\\4436_ctrails.csv'
tp204
asb.