(icharlie.tools.data
Data
p1
(dp2
S'lang'
p3
S'EN'
p4
sS'control'
p5
(lp6
sS'last_updated'
p7
cdatetime
datetime
p8
(S'\x07\xdf\x08\x06\r(4\x03\x15\x10'
tRp9
sS'last_opened'
p10
g8
(S"\x07\xdf\x08\x06\r'-\x0b'x"
tRp11
sS'proj_id'
p12
S'connectivity'
p13
sS'date_done'
p14
NsS'test_done'
p15
I01
sS'data'
p16
(lp17
(S'4439'
p18
S'face_memory_delay'
p19
S'test'
p20
I0
S'c:\\Charlie\\charlie\\stimuli\\visual\\face_memory_delay\\ddis10.bmp'
S'No'
p21
g21
I1190
tp22
a(g18
g19
g20
I1
S'c:\\Charlie\\charlie\\stimuli\\visual\\face_memory_delay\\ddis04.bmp'
g21
g21
I940
tp23
a(g18
g19
g20
I2
S'c:\\Charlie\\charlie\\stimuli\\visual\\face_memory_delay\\tar07.bmp'
S'Yes'
p24
g24
I1040
tp25
a(g18
g19
g20
I3
S'c:\\Charlie\\charlie\\stimuli\\visual\\face_memory_delay\\tar18.bmp'
g24
g24
I1590
tp26
a(g18
g19
g20
I4
S'c:\\Charlie\\charlie\\stimuli\\visual\\face_memory_delay\\ddis14.bmp'
g21
g24
I710
tp27
a(g18
g19
g20
I5
S'c:\\Charlie\\charlie\\stimuli\\visual\\face_memory_delay\\tar19.bmp'
g24
g24
I911
tp28
a(g18
g19
g20
I6
S'c:\\Charlie\\charlie\\stimuli\\visual\\face_memory_delay\\ddis13.bmp'
g21
g21
I930
tp29
a(g18
g19
g20
I7
S'c:\\Charlie\\charlie\\stimuli\\visual\\face_memory_delay\\tar15.bmp'
g24
g24
I640
tp30
a(g18
g19
g20
I8
S'c:\\Charlie\\charlie\\stimuli\\visual\\face_memory_delay\\tar11.bmp'
g24
g24
I840
tp31
a(g18
g19
g20
I9
S'c:\\Charlie\\charlie\\stimuli\\visual\\face_memory_delay\\ddis05.bmp'
g21
g21
I790
tp32
a(g18
g19
g20
I10
S'c:\\Charlie\\charlie\\stimuli\\visual\\face_memory_delay\\ddis01.bmp'
g21
g24
I680
tp33
a(g18
g19
g20
I11
S'c:\\Charlie\\charlie\\stimuli\\visual\\face_memory_delay\\ddis16.bmp'
g21
g21
I1080
tp34
a(g18
g19
g20
I12
S'c:\\Charlie\\charlie\\stimuli\\visual\\face_memory_delay\\tar02.bmp'
g24
g21
I1420
tp35
a(g18
g19
g20
I13
S'c:\\Charlie\\charlie\\stimuli\\visual\\face_memory_delay\\tar08.bmp'
g24
g24
I720
tp36
a(g18
g19
g20
I14
S'c:\\Charlie\\charlie\\stimuli\\visual\\face_memory_delay\\tar13.bmp'
g24
g21
I1310
tp37
a(g18
g19
g20
I15
S'c:\\Charlie\\charlie\\stimuli\\visual\\face_memory_delay\\tar20.bmp'
g24
g24
I630
tp38
a(g18
g19
g20
I16
S'c:\\Charlie\\charlie\\stimuli\\visual\\face_memory_delay\\ddis18.bmp'
g21
g21
I810
tp39
a(g18
g19
g20
I17
S'c:\\Charlie\\charlie\\stimuli\\visual\\face_memory_delay\\tar06.bmp'
g24
g24
I950
tp40
a(g18
g19
g20
I18
S'c:\\Charlie\\charlie\\stimuli\\visual\\face_memory_delay\\ddis07.bmp'
g21
g21
I780
tp41
a(g18
g19
g20
I19
S'c:\\Charlie\\charlie\\stimuli\\visual\\face_memory_delay\\ddis08.bmp'
g21
g21
I1350
tp42
a(g18
g19
g20
I20
S'c:\\Charlie\\charlie\\stimuli\\visual\\face_memory_delay\\tar12.bmp'
g24
g24
I930
tp43
a(g18
g19
g20
I21
S'c:\\Charlie\\charlie\\stimuli\\visual\\face_memory_delay\\ddis17.bmp'
g21
g21
I1621
tp44
a(g18
g19
g20
I22
S'c:\\Charlie\\charlie\\stimuli\\visual\\face_memory_delay\\tar05.bmp'
g24
g24
I670
tp45
a(g18
g19
g20
I23
S'c:\\Charlie\\charlie\\stimuli\\visual\\face_memory_delay\\tar10.bmp'
g24
g24
I1730
tp46
a(g18
g19
g20
I24
S'c:\\Charlie\\charlie\\stimuli\\visual\\face_memory_delay\\ddis02.bmp'
g21
g21
I840
tp47
a(g18
g19
g20
I25
S'c:\\Charlie\\charlie\\stimuli\\visual\\face_memory_delay\\ddis20.bmp'
g21
g21
I860
tp48
a(g18
g19
g20
I26
S'c:\\Charlie\\charlie\\stimuli\\visual\\face_memory_delay\\tar17.bmp'
g24
g24
I1100
tp49
a(g18
g19
g20
I27
S'c:\\Charlie\\charlie\\stimuli\\visual\\face_memory_delay\\ddis15.bmp'
g21
g21
I1120
tp50
a(g18
g19
g20
I28
S'c:\\Charlie\\charlie\\stimuli\\visual\\face_memory_delay\\tar03.bmp'
g24
g24
I920
tp51
a(g18
g19
g20
I29
S'c:\\Charlie\\charlie\\stimuli\\visual\\face_memory_delay\\ddis19.bmp'
g21
g21
I1860
tp52
a(g18
g19
g20
I30
S'c:\\Charlie\\charlie\\stimuli\\visual\\face_memory_delay\\ddis12.bmp'
g21
g21
I830
tp53
a(g18
g19
g20
I31
S'c:\\Charlie\\charlie\\stimuli\\visual\\face_memory_delay\\tar16.bmp'
g24
g24
I860
tp54
a(g18
g19
g20
I32
S'c:\\Charlie\\charlie\\stimuli\\visual\\face_memory_delay\\tar09.bmp'
g24
g24
I2140
tp55
a(g18
g19
g20
I33
S'c:\\Charlie\\charlie\\stimuli\\visual\\face_memory_delay\\ddis09.bmp'
g21
g21
I720
tp56
a(g18
g19
g20
I34
S'c:\\Charlie\\charlie\\stimuli\\visual\\face_memory_delay\\tar01.bmp'
g24
g24
I760
tp57
a(g18
g19
g20
I35
S'c:\\Charlie\\charlie\\stimuli\\visual\\face_memory_delay\\ddis11.bmp'
g21
g21
I1801
tp58
a(g18
g19
g20
I36
S'c:\\Charlie\\charlie\\stimuli\\visual\\face_memory_delay\\ddis03.bmp'
g21
g24
I1460
tp59
a(g18
g19
g20
I37
S'c:\\Charlie\\charlie\\stimuli\\visual\\face_memory_delay\\tar04.bmp'
g24
g24
I1120
tp60
a(g18
g19
g20
I38
S'c:\\Charlie\\charlie\\stimuli\\visual\\face_memory_delay\\tar14.bmp'
g24
g24
I1990
tp61
a(g18
g19
g20
I39
S'c:\\Charlie\\charlie\\stimuli\\visual\\face_memory_delay\\ddis06.bmp'
p62
g21
g21
I1730
tp63
asS'output_format'
p64
(lp65
(S'proband_id'
p66
c__builtin__
str
p67
tp68
a(S'test_name'
p69
g67
tp70
a(S'phase'
p71
g67
tp72
a(S'trialn'
p73
c__builtin__
int
p74
tp75
a(S'f'
g67
tp76
a(S'ans'
p77
g67
tp78
a(S'rsp'
p79
g67
tp80
a(S'rt'
p81
g74
tp82
asg66
g18
sS'filename'
p83
S'4439_face_memory_delay.data'
p84
sS'initialised'
p85
g8
(S"\x07\xdf\x08\x06\r'-\x0b'x"
tRp86
sS'last_udated'
p87
g8
(S"\x07\xdf\x08\x06\r'-\x0b'x"
tRp88
sg69
S'face_memory_delay'
p89
sS'directory'
p90
S'c:\\Charlie\\charlie\\data\\raw'
p91
sS'user_id'
p92
S'sbuccheri'
p93
sS'test_started'
p94
I01
sS'abs_filename'
p95
S'c:\\Charlie\\charlie\\data\\raw\\4439_face_memory_delay.data'
p96
sS'date_started'
p97
g8
(S'\x07\xdf\x08\x06\r(\x03\x07K0'
tRp98
sS'log'
p99
(lp100
(S'2015-08-06 13:39:45.731000'
S'instance created'
p101
tp102
a(S'2015-08-06 13:40:03.495000'
S'instance updated'
p103
tp104
a(S'2015-08-06 13:40:03.504000'
S'pandas DataFrame of data created'
p105
tp106
a(S'2015-08-06 13:40:03.516000'
S'data saved as csv to c:\\Charlie\\charlie\\data\\csv\\4439_face_memory_delay.csv'
tp107
a(S'2015-08-06 13:40:04.583000'
g103
tp108
a(S'2015-08-06 13:40:04.592000'
g105
tp109
a(S'2015-08-06 13:40:04.596000'
S'data saved as csv to c:\\Charlie\\charlie\\data\\csv\\4439_face_memory_delay.csv'
tp110
a(S'2015-08-06 13:40:05.764000'
g103
tp111
a(S'2015-08-06 13:40:05.772000'
g105
tp112
a(S'2015-08-06 13:40:05.776000'
S'data saved as csv to c:\\Charlie\\charlie\\data\\csv\\4439_face_memory_delay.csv'
tp113
a(S'2015-08-06 13:40:07.494000'
g103
tp114
a(S'2015-08-06 13:40:07.502000'
g105
tp115
a(S'2015-08-06 13:40:07.506000'
S'data saved as csv to c:\\Charlie\\charlie\\data\\csv\\4439_face_memory_delay.csv'
tp116
a(S'2015-08-06 13:40:08.344000'
g103
tp117
a(S'2015-08-06 13:40:08.352000'
g105
tp118
a(S'2015-08-06 13:40:08.356000'
S'data saved as csv to c:\\Charlie\\charlie\\data\\csv\\4439_face_memory_delay.csv'
tp119
a(S'2015-08-06 13:40:09.394000'
g103
tp120
a(S'2015-08-06 13:40:09.402000'
g105
tp121
a(S'2015-08-06 13:40:09.406000'
S'data saved as csv to c:\\Charlie\\charlie\\data\\csv\\4439_face_memory_delay.csv'
tp122
a(S'2015-08-06 13:40:10.464000'
g103
tp123
a(S'2015-08-06 13:40:10.473000'
g105
tp124
a(S'2015-08-06 13:40:10.477000'
S'data saved as csv to c:\\Charlie\\charlie\\data\\csv\\4439_face_memory_delay.csv'
tp125
a(S'2015-08-06 13:40:11.245000'
g103
tp126
a(S'2015-08-06 13:40:11.254000'
g105
tp127
a(S'2015-08-06 13:40:11.258000'
S'data saved as csv to c:\\Charlie\\charlie\\data\\csv\\4439_face_memory_delay.csv'
tp128
a(S'2015-08-06 13:40:12.226000'
g103
tp129
a(S'2015-08-06 13:40:12.235000'
g105
tp130
a(S'2015-08-06 13:40:12.238000'
S'data saved as csv to c:\\Charlie\\charlie\\data\\csv\\4439_face_memory_delay.csv'
tp131
a(S'2015-08-06 13:40:13.157000'
g103
tp132
a(S'2015-08-06 13:40:13.165000'
g105
tp133
a(S'2015-08-06 13:40:13.169000'
S'data saved as csv to c:\\Charlie\\charlie\\data\\csv\\4439_face_memory_delay.csv'
tp134
a(S'2015-08-06 13:40:13.977000'
g103
tp135
a(S'2015-08-06 13:40:13.986000'
g105
tp136
a(S'2015-08-06 13:40:13.990000'
S'data saved as csv to c:\\Charlie\\charlie\\data\\csv\\4439_face_memory_delay.csv'
tp137
a(S'2015-08-06 13:40:15.198000'
g103
tp138
a(S'2015-08-06 13:40:15.206000'
g105
tp139
a(S'2015-08-06 13:40:15.210000'
S'data saved as csv to c:\\Charlie\\charlie\\data\\csv\\4439_face_memory_delay.csv'
tp140
a(S'2015-08-06 13:40:16.759000'
g103
tp141
a(S'2015-08-06 13:40:16.768000'
g105
tp142
a(S'2015-08-06 13:40:16.772000'
S'data saved as csv to c:\\Charlie\\charlie\\data\\csv\\4439_face_memory_delay.csv'
tp143
a(S'2015-08-06 13:40:17.620000'
g103
tp144
a(S'2015-08-06 13:40:17.629000'
g105
tp145
a(S'2015-08-06 13:40:17.633000'
S'data saved as csv to c:\\Charlie\\charlie\\data\\csv\\4439_face_memory_delay.csv'
tp146
a(S'2015-08-06 13:40:19.071000'
g103
tp147
a(S'2015-08-06 13:40:19.080000'
g105
tp148
a(S'2015-08-06 13:40:19.084000'
S'data saved as csv to c:\\Charlie\\charlie\\data\\csv\\4439_face_memory_delay.csv'
tp149
a(S'2015-08-06 13:40:19.842000'
g103
tp150
a(S'2015-08-06 13:40:19.851000'
g105
tp151
a(S'2015-08-06 13:40:19.855000'
S'data saved as csv to c:\\Charlie\\charlie\\data\\csv\\4439_face_memory_delay.csv'
tp152
a(S'2015-08-06 13:40:20.793000'
g103
tp153
a(S'2015-08-06 13:40:20.802000'
g105
tp154
a(S'2015-08-06 13:40:20.806000'
S'data saved as csv to c:\\Charlie\\charlie\\data\\csv\\4439_face_memory_delay.csv'
tp155
a(S'2015-08-06 13:40:21.884000'
g103
tp156
a(S'2015-08-06 13:40:21.893000'
g105
tp157
a(S'2015-08-06 13:40:21.897000'
S'data saved as csv to c:\\Charlie\\charlie\\data\\csv\\4439_face_memory_delay.csv'
tp158
a(S'2015-08-06 13:40:22.805000'
g103
tp159
a(S'2015-08-06 13:40:22.814000'
g105
tp160
a(S'2015-08-06 13:40:22.818000'
S'data saved as csv to c:\\Charlie\\charlie\\data\\csv\\4439_face_memory_delay.csv'
tp161
a(S'2015-08-06 13:40:24.296000'
g103
tp162
a(S'2015-08-06 13:40:24.305000'
g105
tp163
a(S'2015-08-06 13:40:24.309000'
S'data saved as csv to c:\\Charlie\\charlie\\data\\csv\\4439_face_memory_delay.csv'
tp164
a(S'2015-08-06 13:40:25.368000'
g103
tp165
a(S'2015-08-06 13:40:25.377000'
g105
tp166
a(S'2015-08-06 13:40:25.381000'
S'data saved as csv to c:\\Charlie\\charlie\\data\\csv\\4439_face_memory_delay.csv'
tp167
a(S'2015-08-06 13:40:27.129000'
g103
tp168
a(S'2015-08-06 13:40:27.138000'
g105
tp169
a(S'2015-08-06 13:40:27.142000'
S'data saved as csv to c:\\Charlie\\charlie\\data\\csv\\4439_face_memory_delay.csv'
tp170
a(S'2015-08-06 13:40:27.940000'
g103
tp171
a(S'2015-08-06 13:40:27.949000'
g105
tp172
a(S'2015-08-06 13:40:27.953000'
S'data saved as csv to c:\\Charlie\\charlie\\data\\csv\\4439_face_memory_delay.csv'
tp173
a(S'2015-08-06 13:40:29.811000'
g103
tp174
a(S'2015-08-06 13:40:29.821000'
g105
tp175
a(S'2015-08-06 13:40:29.825000'
S'data saved as csv to c:\\Charlie\\charlie\\data\\csv\\4439_face_memory_delay.csv'
tp176
a(S'2015-08-06 13:40:30.793000'
g103
tp177
a(S'2015-08-06 13:40:30.803000'
g105
tp178
a(S'2015-08-06 13:40:30.807000'
S'data saved as csv to c:\\Charlie\\charlie\\data\\csv\\4439_face_memory_delay.csv'
tp179
a(S'2015-08-06 13:40:31.796000'
g103
tp180
a(S'2015-08-06 13:40:31.805000'
g105
tp181
a(S'2015-08-06 13:40:31.808000'
S'data saved as csv to c:\\Charlie\\charlie\\data\\csv\\4439_face_memory_delay.csv'
tp182
a(S'2015-08-06 13:40:33.034000'
g103
tp183
a(S'2015-08-06 13:40:33.043000'
g105
tp184
a(S'2015-08-06 13:40:33.047000'
S'data saved as csv to c:\\Charlie\\charlie\\data\\csv\\4439_face_memory_delay.csv'
tp185
a(S'2015-08-06 13:40:34.295000'
g103
tp186
a(S'2015-08-06 13:40:34.305000'
g105
tp187
a(S'2015-08-06 13:40:34.309000'
S'data saved as csv to c:\\Charlie\\charlie\\data\\csv\\4439_face_memory_delay.csv'
tp188
a(S'2015-08-06 13:40:35.358000'
g103
tp189
a(S'2015-08-06 13:40:35.366000'
g105
tp190
a(S'2015-08-06 13:40:35.370000'
S'data saved as csv to c:\\Charlie\\charlie\\data\\csv\\4439_face_memory_delay.csv'
tp191
a(S'2015-08-06 13:40:37.361000'
g103
tp192
a(S'2015-08-06 13:40:37.370000'
g105
tp193
a(S'2015-08-06 13:40:37.374000'
S'data saved as csv to c:\\Charlie\\charlie\\data\\csv\\4439_face_memory_delay.csv'
tp194
a(S'2015-08-06 13:40:38.332000'
g103
tp195
a(S'2015-08-06 13:40:38.341000'
g105
tp196
a(S'2015-08-06 13:40:38.346000'
S'data saved as csv to c:\\Charlie\\charlie\\data\\csv\\4439_face_memory_delay.csv'
tp197
a(S'2015-08-06 13:40:39.335000'
g103
tp198
a(S'2015-08-06 13:40:39.344000'
g105
tp199
a(S'2015-08-06 13:40:39.348000'
S'data saved as csv to c:\\Charlie\\charlie\\data\\csv\\4439_face_memory_delay.csv'
tp200
a(S'2015-08-06 13:40:41.618000'
g103
tp201
a(S'2015-08-06 13:40:41.627000'
g105
tp202
a(S'2015-08-06 13:40:41.631000'
S'data saved as csv to c:\\Charlie\\charlie\\data\\csv\\4439_face_memory_delay.csv'
tp203
a(S'2015-08-06 13:40:42.480000'
g103
tp204
a(S'2015-08-06 13:40:42.489000'
g105
tp205
a(S'2015-08-06 13:40:42.494000'
S'data saved as csv to c:\\Charlie\\charlie\\data\\csv\\4439_face_memory_delay.csv'
tp206
a(S'2015-08-06 13:40:43.382000'
g103
tp207
a(S'2015-08-06 13:40:43.392000'
g105
tp208
a(S'2015-08-06 13:40:43.396000'
S'data saved as csv to c:\\Charlie\\charlie\\data\\csv\\4439_face_memory_delay.csv'
tp209
a(S'2015-08-06 13:40:45.325000'
g103
tp210
a(S'2015-08-06 13:40:45.334000'
g105
tp211
a(S'2015-08-06 13:40:45.338000'
S'data saved as csv to c:\\Charlie\\charlie\\data\\csv\\4439_face_memory_delay.csv'
tp212
a(S'2015-08-06 13:40:46.926000'
g103
tp213
a(S'2015-08-06 13:40:46.936000'
g105
tp214
a(S'2015-08-06 13:40:46.940000'
S'data saved as csv to c:\\Charlie\\charlie\\data\\csv\\4439_face_memory_delay.csv'
tp215
a(S'2015-08-06 13:40:48.189000'
g103
tp216
a(S'2015-08-06 13:40:48.198000'
g105
tp217
a(S'2015-08-06 13:40:48.202000'
S'data saved as csv to c:\\Charlie\\charlie\\data\\csv\\4439_face_memory_delay.csv'
tp218
a(S'2015-08-06 13:40:50.320000'
g103
tp219
a(S'2015-08-06 13:40:50.327000'
g105
tp220
a(S'2015-08-06 13:40:50.330000'
S'data saved as csv to c:\\Charlie\\charlie\\data\\csv\\4439_face_memory_delay.csv'
tp221
a(S'2015-08-06 13:40:52.187000'
g103
tp222
a(S'2015-08-06 13:40:52.197000'
g105
tp223
a(S'2015-08-06 13:40:52.201000'
S'data saved as csv to c:\\Charlie\\charlie\\data\\csv\\4439_face_memory_delay.csv'
tp224
asb.