(icharlie.tools.data
Data
p1
(dp2
S'lang'
p3
S'EN'
p4
sS'control'
p5
(lp6
sS'last_updated'
p7
cdatetime
datetime
p8
(S'\x07\xdf\x08\n\r\x13#\x07jp'
tRp9
sS'last_opened'
p10
g8
(S'\x07\xdf\x08\n\r\x0f,\x0b\x00h'
tRp11
sS'proj_id'
p12
S'connectivity'
p13
sS'date_done'
p14
g8
(S'\x07\xdf\x08\n\r\x13#\x07GH'
tRp15
sS'test_done'
p16
I01
sS'data'
p17
(lp18
(S'4440'
p19
S'verbal_fluency'
p20
I0
S'True'
p21
tp22
a(g19
g20
I0
g21
tp23
a(g19
g20
I0
g21
tp24
a(g19
g20
I0
g21
tp25
a(g19
g20
I0
g21
tp26
a(g19
g20
I0
g21
tp27
a(g19
g20
I0
g21
tp28
a(g19
g20
I0
S'False'
p29
tp30
a(g19
g20
I1
g21
tp31
a(g19
g20
I1
g21
tp32
a(g19
g20
I1
g21
tp33
a(g19
g20
I1
g21
tp34
a(g19
g20
I1
g21
tp35
a(g19
g20
I1
g21
tp36
a(g19
g20
I1
g29
tp37
a(g19
g20
I1
g29
tp38
a(g19
g20
I1
g21
tp39
a(g19
g20
I1
g21
tp40
a(g19
g20
I2
g21
tp41
a(g19
g20
I2
g21
tp42
a(g19
g20
I2
g21
tp43
a(g19
g20
I2
g21
tp44
a(g19
g20
I2
g21
tp45
a(g19
g20
I2
g21
tp46
a(g19
g20
I2
g21
tp47
a(g19
g20
I2
g21
tp48
a(g19
g20
I2
g21
tp49
a(g19
g20
I2
g21
tp50
a(g19
g20
I2
g21
tp51
a(g19
g20
I2
g21
tp52
a(g19
g20
I3
g21
tp53
a(g19
g20
I3
g21
tp54
a(g19
g20
I3
g21
tp55
a(g19
g20
I3
g21
tp56
a(g19
g20
I3
g21
tp57
a(g19
g20
I3
g21
tp58
a(g19
g20
I3
g21
tp59
a(g19
g20
I3
g21
tp60
a(g19
g20
I3
g21
tp61
a(g19
g20
I3
g21
tp62
a(g19
g20
I3
g21
tp63
a(g19
g20
I3
g21
tp64
a(g19
g20
I3
g21
tp65
a(g19
g20
I3
g21
tp66
a(g19
g20
I3
g21
tp67
a(g19
g20
I3
g21
tp68
a(g19
g20
I3
g21
tp69
asS'output_format'
p70
(lp71
(S'proband_id'
p72
c__builtin__
str
p73
tp74
a(S'test_name'
p75
g73
tp76
a(S'trialn'
p77
c__builtin__
int
p78
tp79
a(S'rsp'
p80
g73
tp81
asg72
g19
sS'filename'
p82
S'4440_verbal_fluency.data'
p83
sS'initialised'
p84
g8
(S'\x07\xdf\x08\n\r\x0f,\x0b\x00h'
tRp85
sS'last_udated'
p86
g8
(S'\x07\xdf\x08\n\r\x0f,\x0b\x00h'
tRp87
sg75
S'verbal_fluency'
p88
sS'directory'
p89
S'c:\\Charlie\\charlie\\data\\raw'
p90
sS'user_id'
p91
S'sbuccheri'
p92
sS'test_started'
p93
I01
sS'abs_filename'
p94
S'c:\\Charlie\\charlie\\data\\raw\\4440_verbal_fluency.data'
p95
sS'date_started'
p96
g8
(S'\x07\xdf\x08\n\r\x11\x0b\t\xd7\x88'
tRp97
sS'log'
p98
(lp99
(S'2015-08-10 13:15:44.721000'
S'instance created'
p100
tp101
a(S'2015-08-10 13:17:11.662000'
S'instance updated'
p102
tp103
a(S'2015-08-10 13:17:11.668000'
S'pandas DataFrame of data created'
p104
tp105
a(S'2015-08-10 13:17:11.683000'
S'data saved as csv to c:\\Charlie\\charlie\\data\\csv\\4440_verbal_fluency.csv'
tp106
a(S'2015-08-10 13:17:14.662000'
g102
tp107
a(S'2015-08-10 13:17:14.667000'
g104
tp108
a(S'2015-08-10 13:17:14.671000'
S'data saved as csv to c:\\Charlie\\charlie\\data\\csv\\4440_verbal_fluency.csv'
tp109
a(S'2015-08-10 13:18:05.290000'
g102
tp110
a(S'2015-08-10 13:18:05.295000'
g104
tp111
a(S'2015-08-10 13:18:05.299000'
S'data saved as csv to c:\\Charlie\\charlie\\data\\csv\\4440_verbal_fluency.csv'
tp112
a(S'2015-08-10 13:18:07.994000'
g102
tp113
a(S'2015-08-10 13:18:07.999000'
g104
tp114
a(S'2015-08-10 13:18:08.010000'
S'data saved as csv to c:\\Charlie\\charlie\\data\\csv\\4440_verbal_fluency.csv'
tp115
a(S'2015-08-10 13:18:43.696000'
g102
tp116
a(S'2015-08-10 13:18:43.701000'
g104
tp117
a(S'2015-08-10 13:18:43.704000'
S'data saved as csv to c:\\Charlie\\charlie\\data\\csv\\4440_verbal_fluency.csv'
tp118
a(S'2015-08-10 13:18:51.359000'
g102
tp119
a(S'2015-08-10 13:18:51.365000'
g104
tp120
a(S'2015-08-10 13:18:51.368000'
S'data saved as csv to c:\\Charlie\\charlie\\data\\csv\\4440_verbal_fluency.csv'
tp121
a(S'2015-08-10 13:19:35.477000'
g102
tp122
a(S'2015-08-10 13:19:35.482000'
g104
tp123
a(S'2015-08-10 13:19:35.486000'
S'data saved as csv to c:\\Charlie\\charlie\\data\\csv\\4440_verbal_fluency.csv'
tp124
asb.