(icharlie.tools.data
Data
p1
(dp2
S'lang'
p3
S'EN'
p4
sS'control'
p5
(lp6
sS'last_updated'
p7
cdatetime
datetime
p8
(S'\x07\xdf\x08\n\r\x1a2\x08\xf4\xf8'
tRp9
sS'last_opened'
p10
g8
(S'\x07\xdf\x08\n\r\x14+\x02\x8cX'
tRp11
sS'proj_id'
p12
S'connectivity'
p13
sS'date_done'
p14
NsS'test_done'
p15
I01
sS'data'
p16
(lp17
(S'4440'
p18
S'scap'
p19
S'practice'
p20
I3
I0
S'Yes'
p21
S'c:\\Charlie\\charlie\\stimuli\\visual\\scap\\practice-1.BMP'
S'c:\\Charlie\\charlie\\stimuli\\visual\\scap\\practice-2.BMP'
S'No'
p22
I1560
tp23
a(g18
g19
g20
I4
I1
g22
S'c:\\Charlie\\charlie\\stimuli\\visual\\scap\\practice-3.BMP'
S'c:\\Charlie\\charlie\\stimuli\\visual\\scap\\practice-4.BMP'
g22
I2350
tp24
a(g18
g19
g20
I5
I2
g21
S'c:\\Charlie\\charlie\\stimuli\\visual\\scap\\practice-5.BMP'
S'c:\\Charlie\\charlie\\stimuli\\visual\\scap\\practice-6.BMP'
g21
I1390
tp25
a(g18
g19
S'test'
p26
I3
I0
g21
S'c:\\Charlie\\charlie\\stimuli\\visual\\scap\\load3-1.BMP'
S'c:\\Charlie\\charlie\\stimuli\\visual\\scap\\load3-2.BMP'
g21
I1420
tp27
a(g18
g19
g26
I3
I1
g22
S'c:\\Charlie\\charlie\\stimuli\\visual\\scap\\load3-3.BMP'
S'c:\\Charlie\\charlie\\stimuli\\visual\\scap\\load3-4.BMP'
g22
I1700
tp28
a(g18
g19
g26
I3
I2
g21
S'c:\\Charlie\\charlie\\stimuli\\visual\\scap\\load3-5.BMP'
S'c:\\Charlie\\charlie\\stimuli\\visual\\scap\\load3-6.BMP'
g21
I730
tp29
a(g18
g19
g26
I3
I3
g21
S'c:\\Charlie\\charlie\\stimuli\\visual\\scap\\load3-7.BMP'
S'c:\\Charlie\\charlie\\stimuli\\visual\\scap\\load3-8.BMP'
g22
I1140
tp30
a(g18
g19
g26
I3
I4
g22
S'c:\\Charlie\\charlie\\stimuli\\visual\\scap\\load3-9.BMP'
S'c:\\Charlie\\charlie\\stimuli\\visual\\scap\\load3-10.BMP'
g22
I1320
tp31
a(g18
g19
g26
I3
I5
g21
S'c:\\Charlie\\charlie\\stimuli\\visual\\scap\\load3-11.BMP'
S'c:\\Charlie\\charlie\\stimuli\\visual\\scap\\load3-12.BMP'
g21
I960
tp32
a(g18
g19
g26
I3
I6
g22
S'c:\\Charlie\\charlie\\stimuli\\visual\\scap\\load3-13.BMP'
S'c:\\Charlie\\charlie\\stimuli\\visual\\scap\\load3-14.BMP'
g22
I780
tp33
a(g18
g19
g26
I3
I7
g22
S'c:\\Charlie\\charlie\\stimuli\\visual\\scap\\load3-15.BMP'
S'c:\\Charlie\\charlie\\stimuli\\visual\\scap\\load3-16.BMP'
g22
I1730
tp34
a(g18
g19
g26
I3
I8
g21
S'c:\\Charlie\\charlie\\stimuli\\visual\\scap\\load3-17.BMP'
S'c:\\Charlie\\charlie\\stimuli\\visual\\scap\\load3-18.BMP'
g21
I951
tp35
a(g18
g19
g26
I3
I9
g22
S'c:\\Charlie\\charlie\\stimuli\\visual\\scap\\load3-19.BMP'
S'c:\\Charlie\\charlie\\stimuli\\visual\\scap\\load3-20.BMP'
g22
I1490
tp36
a(g18
g19
g26
I3
I10
g21
S'c:\\Charlie\\charlie\\stimuli\\visual\\scap\\load3-21.BMP'
S'c:\\Charlie\\charlie\\stimuli\\visual\\scap\\load3-22.BMP'
g21
I1580
tp37
a(g18
g19
g26
I3
I11
g21
S'c:\\Charlie\\charlie\\stimuli\\visual\\scap\\load3-23.BMP'
S'c:\\Charlie\\charlie\\stimuli\\visual\\scap\\load3-24.BMP'
g21
I1870
tp38
a(g18
g19
g26
I3
I12
g22
S'c:\\Charlie\\charlie\\stimuli\\visual\\scap\\load3-25.BMP'
S'c:\\Charlie\\charlie\\stimuli\\visual\\scap\\load3-26.BMP'
g22
I1250
tp39
a(g18
g19
g26
I3
I13
g22
S'c:\\Charlie\\charlie\\stimuli\\visual\\scap\\load3-27.BMP'
S'c:\\Charlie\\charlie\\stimuli\\visual\\scap\\load3-28.BMP'
g22
I1850
tp40
a(g18
g19
g26
I4
I0
g22
S'c:\\Charlie\\charlie\\stimuli\\visual\\scap\\load4-1.BMP'
S'c:\\Charlie\\charlie\\stimuli\\visual\\scap\\load4-2.BMP'
g22
I1270
tp41
a(g18
g19
g26
I4
I1
g21
S'c:\\Charlie\\charlie\\stimuli\\visual\\scap\\load4-3.BMP'
S'c:\\Charlie\\charlie\\stimuli\\visual\\scap\\load4-4.BMP'
g21
I1080
tp42
a(g18
g19
g26
I4
I2
g21
S'c:\\Charlie\\charlie\\stimuli\\visual\\scap\\load4-5.BMP'
S'c:\\Charlie\\charlie\\stimuli\\visual\\scap\\load4-6.BMP'
g22
I1360
tp43
a(g18
g19
g26
I4
I3
g22
S'c:\\Charlie\\charlie\\stimuli\\visual\\scap\\load4-7.BMP'
S'c:\\Charlie\\charlie\\stimuli\\visual\\scap\\load4-8.BMP'
g22
I1180
tp44
a(g18
g19
g26
I4
I4
g22
S'c:\\Charlie\\charlie\\stimuli\\visual\\scap\\load4-9.BMP'
S'c:\\Charlie\\charlie\\stimuli\\visual\\scap\\load4-10.BMP'
g22
I1430
tp45
a(g18
g19
g26
I4
I5
g21
S'c:\\Charlie\\charlie\\stimuli\\visual\\scap\\load4-11.BMP'
S'c:\\Charlie\\charlie\\stimuli\\visual\\scap\\load4-12.BMP'
g22
I1440
tp46
a(g18
g19
g26
I4
I6
g22
S'c:\\Charlie\\charlie\\stimuli\\visual\\scap\\load4-13.BMP'
S'c:\\Charlie\\charlie\\stimuli\\visual\\scap\\load4-14.BMP'
g21
I1140
tp47
a(g18
g19
g26
I4
I7
g21
S'c:\\Charlie\\charlie\\stimuli\\visual\\scap\\load4-15.BMP'
S'c:\\Charlie\\charlie\\stimuli\\visual\\scap\\load4-16.BMP'
g21
I1420
tp48
a(g18
g19
g26
I4
I8
g22
S'c:\\Charlie\\charlie\\stimuli\\visual\\scap\\load4-17.BMP'
S'c:\\Charlie\\charlie\\stimuli\\visual\\scap\\load4-18.BMP'
g21
I1231
tp49
a(g18
g19
g26
I4
I9
g21
S'c:\\Charlie\\charlie\\stimuli\\visual\\scap\\load4-19.BMP'
S'c:\\Charlie\\charlie\\stimuli\\visual\\scap\\load4-20.BMP'
g21
I930
tp50
a(g18
g19
g26
I4
I10
g21
S'c:\\Charlie\\charlie\\stimuli\\visual\\scap\\load4-21.BMP'
S'c:\\Charlie\\charlie\\stimuli\\visual\\scap\\load4-22.BMP'
g22
I1520
tp51
a(g18
g19
g26
I4
I11
g22
S'c:\\Charlie\\charlie\\stimuli\\visual\\scap\\load4-23.BMP'
S'c:\\Charlie\\charlie\\stimuli\\visual\\scap\\load4-24.BMP'
g21
I1040
tp52
a(g18
g19
g26
I4
I12
g21
S'c:\\Charlie\\charlie\\stimuli\\visual\\scap\\load4-25.BMP'
S'c:\\Charlie\\charlie\\stimuli\\visual\\scap\\load4-26.BMP'
g21
I1030
tp53
a(g18
g19
g26
I4
I13
g22
S'c:\\Charlie\\charlie\\stimuli\\visual\\scap\\load4-27.BMP'
S'c:\\Charlie\\charlie\\stimuli\\visual\\scap\\load4-28.BMP'
g22
I1240
tp54
a(g18
g19
g26
I5
I0
g21
S'c:\\Charlie\\charlie\\stimuli\\visual\\scap\\load5-1.BMP'
S'c:\\Charlie\\charlie\\stimuli\\visual\\scap\\load5-2.BMP'
g21
I1550
tp55
a(g18
g19
g26
I5
I1
g21
S'c:\\Charlie\\charlie\\stimuli\\visual\\scap\\load5-3.BMP'
S'c:\\Charlie\\charlie\\stimuli\\visual\\scap\\load5-4.BMP'
g21
I1111
tp56
a(g18
g19
g26
I5
I2
g21
S'c:\\Charlie\\charlie\\stimuli\\visual\\scap\\load5-5.BMP'
S'c:\\Charlie\\charlie\\stimuli\\visual\\scap\\load5-6.BMP'
g21
I790
tp57
a(g18
g19
g26
I5
I3
g21
S'c:\\Charlie\\charlie\\stimuli\\visual\\scap\\load5-7.BMP'
S'c:\\Charlie\\charlie\\stimuli\\visual\\scap\\load5-8.BMP'
g21
I840
tp58
a(g18
g19
g26
I5
I4
g21
S'c:\\Charlie\\charlie\\stimuli\\visual\\scap\\load5-9.BMP'
S'c:\\Charlie\\charlie\\stimuli\\visual\\scap\\load5-10.BMP'
g22
I2130
tp59
a(g18
g19
g26
I5
I5
g21
S'c:\\Charlie\\charlie\\stimuli\\visual\\scap\\load5-11.BMP'
S'c:\\Charlie\\charlie\\stimuli\\visual\\scap\\load5-12.BMP'
g21
I890
tp60
a(g18
g19
g26
I5
I6
g22
S'c:\\Charlie\\charlie\\stimuli\\visual\\scap\\load5-13.BMP'
S'c:\\Charlie\\charlie\\stimuli\\visual\\scap\\load5-14.BMP'
g22
I1200
tp61
a(g18
g19
g26
I5
I7
g22
S'c:\\Charlie\\charlie\\stimuli\\visual\\scap\\load5-15.BMP'
S'c:\\Charlie\\charlie\\stimuli\\visual\\scap\\load5-16.BMP'
g22
I1220
tp62
a(g18
g19
g26
I5
I8
g22
S'c:\\Charlie\\charlie\\stimuli\\visual\\scap\\load5-17.BMP'
S'c:\\Charlie\\charlie\\stimuli\\visual\\scap\\load5-18.BMP'
g22
I1630
tp63
a(g18
g19
g26
I5
I9
g22
S'c:\\Charlie\\charlie\\stimuli\\visual\\scap\\load5-19.BMP'
S'c:\\Charlie\\charlie\\stimuli\\visual\\scap\\load5-20.BMP'
g22
I1400
tp64
a(g18
g19
g26
I5
I10
g22
S'c:\\Charlie\\charlie\\stimuli\\visual\\scap\\load5-21.BMP'
S'c:\\Charlie\\charlie\\stimuli\\visual\\scap\\load5-22.BMP'
g21
I1410
tp65
a(g18
g19
g26
I5
I11
g21
S'c:\\Charlie\\charlie\\stimuli\\visual\\scap\\load5-23.BMP'
S'c:\\Charlie\\charlie\\stimuli\\visual\\scap\\load5-24.BMP'
g21
I740
tp66
a(g18
g19
g26
I5
I12
g22
S'c:\\Charlie\\charlie\\stimuli\\visual\\scap\\load5-25.BMP'
S'c:\\Charlie\\charlie\\stimuli\\visual\\scap\\load5-26.BMP'
g22
I990
tp67
a(g18
g19
g26
I5
I13
g22
S'c:\\Charlie\\charlie\\stimuli\\visual\\scap\\load5-27.BMP'
p68
S'c:\\Charlie\\charlie\\stimuli\\visual\\scap\\load5-28.BMP'
p69
g22
I1361
tp70
asS'output_format'
p71
(lp72
(S'proband_id'
p73
c__builtin__
str
p74
tp75
a(S'test_name'
p76
g74
tp77
a(S'phase'
p78
g74
tp79
a(S'load'
p80
c__builtin__
int
p81
tp82
a(S'trialn'
p83
g81
tp84
a(S'ans'
p85
g74
tp86
a(S'array_f'
p87
g74
tp88
a(S'probe_f'
p89
g74
tp90
a(S'rsp'
p91
g74
tp92
a(S'rt'
p93
g81
tp94
asg73
g18
sS'filename'
p95
S'4440_scap.data'
p96
sS'initialised'
p97
g8
(S'\x07\xdf\x08\n\r\x14+\x02\x88p'
tRp98
sS'last_udated'
p99
g8
(S'\x07\xdf\x08\n\r\x14+\x02\x8cX'
tRp100
sg76
S'scap'
p101
sS'directory'
p102
S'c:\\Charlie\\charlie\\data\\raw'
p103
sS'user_id'
p104
S'sbuccheri'
p105
sS'test_started'
p106
I01
sS'abs_filename'
p107
S'c:\\Charlie\\charlie\\data\\raw\\4440_scap.data'
p108
sS'date_started'
p109
g8
(S'\x07\xdf\x08\n\r\x15\x0b\t\xee\xf8'
tRp110
sS'log'
p111
(lp112
(S'2015-08-10 13:20:43.167000'
S'instance created'
p113
tp114
a(S'2015-08-10 13:21:11.669000'
S'instance updated'
p115
tp116
a(S'2015-08-10 13:21:11.679000'
S'pandas DataFrame of data created'
p117
tp118
a(S'2015-08-10 13:21:11.690000'
S'data saved as csv to c:\\Charlie\\charlie\\data\\csv\\4440_scap.csv'
tp119
a(S'2015-08-10 13:21:21.077000'
g115
tp120
a(S'2015-08-10 13:21:21.087000'
g117
tp121
a(S'2015-08-10 13:21:21.091000'
S'data saved as csv to c:\\Charlie\\charlie\\data\\csv\\4440_scap.csv'
tp122
a(S'2015-08-10 13:21:29.519000'
g115
tp123
a(S'2015-08-10 13:21:29.529000'
g117
tp124
a(S'2015-08-10 13:21:29.533000'
S'data saved as csv to c:\\Charlie\\charlie\\data\\csv\\4440_scap.csv'
tp125
a(S'2015-08-10 13:21:46.461000'
g115
tp126
a(S'2015-08-10 13:21:46.472000'
g117
tp127
a(S'2015-08-10 13:21:46.476000'
S'data saved as csv to c:\\Charlie\\charlie\\data\\csv\\4440_scap.csv'
tp128
a(S'2015-08-10 13:21:54.312000'
g115
tp129
a(S'2015-08-10 13:21:54.322000'
g117
tp130
a(S'2015-08-10 13:21:54.326000'
S'data saved as csv to c:\\Charlie\\charlie\\data\\csv\\4440_scap.csv'
tp131
a(S'2015-08-10 13:22:01.192000'
g115
tp132
a(S'2015-08-10 13:22:01.203000'
g117
tp133
a(S'2015-08-10 13:22:01.207000'
S'data saved as csv to c:\\Charlie\\charlie\\data\\csv\\4440_scap.csv'
tp134
a(S'2015-08-10 13:22:08.483000'
g115
tp135
a(S'2015-08-10 13:22:08.493000'
g117
tp136
a(S'2015-08-10 13:22:08.497000'
S'data saved as csv to c:\\Charlie\\charlie\\data\\csv\\4440_scap.csv'
tp137
a(S'2015-08-10 13:22:15.953000'
g115
tp138
a(S'2015-08-10 13:22:15.964000'
g117
tp139
a(S'2015-08-10 13:22:15.968000'
S'data saved as csv to c:\\Charlie\\charlie\\data\\csv\\4440_scap.csv'
tp140
a(S'2015-08-10 13:22:23.064000'
g115
tp141
a(S'2015-08-10 13:22:23.075000'
g117
tp142
a(S'2015-08-10 13:22:23.078000'
S'data saved as csv to c:\\Charlie\\charlie\\data\\csv\\4440_scap.csv'
tp143
a(S'2015-08-10 13:22:29.995000'
g115
tp144
a(S'2015-08-10 13:22:30.005000'
g117
tp145
a(S'2015-08-10 13:22:30.009000'
S'data saved as csv to c:\\Charlie\\charlie\\data\\csv\\4440_scap.csv'
tp146
a(S'2015-08-10 13:22:37.876000'
g115
tp147
a(S'2015-08-10 13:22:37.886000'
g117
tp148
a(S'2015-08-10 13:22:37.890000'
S'data saved as csv to c:\\Charlie\\charlie\\data\\csv\\4440_scap.csv'
tp149
a(S'2015-08-10 13:22:44.977000'
g115
tp150
a(S'2015-08-10 13:22:44.988000'
g117
tp151
a(S'2015-08-10 13:22:44.992000'
S'data saved as csv to c:\\Charlie\\charlie\\data\\csv\\4440_scap.csv'
tp152
a(S'2015-08-10 13:22:52.619000'
g115
tp153
a(S'2015-08-10 13:22:52.629000'
g117
tp154
a(S'2015-08-10 13:22:52.633000'
S'data saved as csv to c:\\Charlie\\charlie\\data\\csv\\4440_scap.csv'
tp155
a(S'2015-08-10 13:23:00.349000'
g115
tp156
a(S'2015-08-10 13:23:00.359000'
g117
tp157
a(S'2015-08-10 13:23:00.363000'
S'data saved as csv to c:\\Charlie\\charlie\\data\\csv\\4440_scap.csv'
tp158
a(S'2015-08-10 13:23:08.370000'
g115
tp159
a(S'2015-08-10 13:23:08.381000'
g117
tp160
a(S'2015-08-10 13:23:08.384000'
S'data saved as csv to c:\\Charlie\\charlie\\data\\csv\\4440_scap.csv'
tp161
a(S'2015-08-10 13:23:15.768000'
g115
tp162
a(S'2015-08-10 13:23:15.779000'
g117
tp163
a(S'2015-08-10 13:23:15.783000'
S'data saved as csv to c:\\Charlie\\charlie\\data\\csv\\4440_scap.csv'
tp164
a(S'2015-08-10 13:23:23.769000'
g115
tp165
a(S'2015-08-10 13:23:23.780000'
g117
tp166
a(S'2015-08-10 13:23:23.784000'
S'data saved as csv to c:\\Charlie\\charlie\\data\\csv\\4440_scap.csv'
tp167
a(S'2015-08-10 13:23:31.190000'
g115
tp168
a(S'2015-08-10 13:23:31.201000'
g117
tp169
a(S'2015-08-10 13:23:31.206000'
S'data saved as csv to c:\\Charlie\\charlie\\data\\csv\\4440_scap.csv'
tp170
a(S'2015-08-10 13:23:38.423000'
g115
tp171
a(S'2015-08-10 13:23:38.433000'
g117
tp172
a(S'2015-08-10 13:23:38.437000'
S'data saved as csv to c:\\Charlie\\charlie\\data\\csv\\4440_scap.csv'
tp173
a(S'2015-08-10 13:23:45.933000'
g115
tp174
a(S'2015-08-10 13:23:45.944000'
g117
tp175
a(S'2015-08-10 13:23:45.949000'
S'data saved as csv to c:\\Charlie\\charlie\\data\\csv\\4440_scap.csv'
tp176
a(S'2015-08-10 13:23:53.265000'
g115
tp177
a(S'2015-08-10 13:23:53.276000'
g117
tp178
a(S'2015-08-10 13:23:53.281000'
S'data saved as csv to c:\\Charlie\\charlie\\data\\csv\\4440_scap.csv'
tp179
a(S'2015-08-10 13:24:00.847000'
g115
tp180
a(S'2015-08-10 13:24:00.858000'
g117
tp181
a(S'2015-08-10 13:24:00.863000'
S'data saved as csv to c:\\Charlie\\charlie\\data\\csv\\4440_scap.csv'
tp182
a(S'2015-08-10 13:24:08.440000'
g115
tp183
a(S'2015-08-10 13:24:08.451000'
g117
tp184
a(S'2015-08-10 13:24:08.455000'
S'data saved as csv to c:\\Charlie\\charlie\\data\\csv\\4440_scap.csv'
tp185
a(S'2015-08-10 13:24:15.731000'
g115
tp186
a(S'2015-08-10 13:24:15.743000'
g117
tp187
a(S'2015-08-10 13:24:15.747000'
S'data saved as csv to c:\\Charlie\\charlie\\data\\csv\\4440_scap.csv'
tp188
a(S'2015-08-10 13:24:23.304000'
g115
tp189
a(S'2015-08-10 13:24:23.314000'
g117
tp190
a(S'2015-08-10 13:24:23.318000'
S'data saved as csv to c:\\Charlie\\charlie\\data\\csv\\4440_scap.csv'
tp191
a(S'2015-08-10 13:24:30.686000'
g115
tp192
a(S'2015-08-10 13:24:30.697000'
g117
tp193
a(S'2015-08-10 13:24:30.699000'
S'data saved as csv to c:\\Charlie\\charlie\\data\\csv\\4440_scap.csv'
tp194
a(S'2015-08-10 13:24:37.765000'
g115
tp195
a(S'2015-08-10 13:24:37.776000'
g117
tp196
a(S'2015-08-10 13:24:37.780000'
S'data saved as csv to c:\\Charlie\\charlie\\data\\csv\\4440_scap.csv'
tp197
a(S'2015-08-10 13:24:45.438000'
g115
tp198
a(S'2015-08-10 13:24:45.448000'
g117
tp199
a(S'2015-08-10 13:24:45.453000'
S'data saved as csv to c:\\Charlie\\charlie\\data\\csv\\4440_scap.csv'
tp200
a(S'2015-08-10 13:24:52.628000'
g115
tp201
a(S'2015-08-10 13:24:52.639000'
g117
tp202
a(S'2015-08-10 13:24:52.643000'
S'data saved as csv to c:\\Charlie\\charlie\\data\\csv\\4440_scap.csv'
tp203
a(S'2015-08-10 13:24:59.811000'
g115
tp204
a(S'2015-08-10 13:24:59.822000'
g117
tp205
a(S'2015-08-10 13:24:59.826000'
S'data saved as csv to c:\\Charlie\\charlie\\data\\csv\\4440_scap.csv'
tp206
a(S'2015-08-10 13:25:07.204000'
g115
tp207
a(S'2015-08-10 13:25:07.214000'
g117
tp208
a(S'2015-08-10 13:25:07.219000'
S'data saved as csv to c:\\Charlie\\charlie\\data\\csv\\4440_scap.csv'
tp209
a(S'2015-08-10 13:25:14.906000'
g115
tp210
a(S'2015-08-10 13:25:14.917000'
g117
tp211
a(S'2015-08-10 13:25:14.921000'
S'data saved as csv to c:\\Charlie\\charlie\\data\\csv\\4440_scap.csv'
tp212
a(S'2015-08-10 13:25:22.169000'
g115
tp213
a(S'2015-08-10 13:25:22.180000'
g117
tp214
a(S'2015-08-10 13:25:22.184000'
S'data saved as csv to c:\\Charlie\\charlie\\data\\csv\\4440_scap.csv'
tp215
a(S'2015-08-10 13:25:29.112000'
g115
tp216
a(S'2015-08-10 13:25:29.123000'
g117
tp217
a(S'2015-08-10 13:25:29.127000'
S'data saved as csv to c:\\Charlie\\charlie\\data\\csv\\4440_scap.csv'
tp218
a(S'2015-08-10 13:25:36.105000'
g115
tp219
a(S'2015-08-10 13:25:36.116000'
g117
tp220
a(S'2015-08-10 13:25:36.121000'
S'data saved as csv to c:\\Charlie\\charlie\\data\\csv\\4440_scap.csv'
tp221
a(S'2015-08-10 13:25:44.387000'
g115
tp222
a(S'2015-08-10 13:25:44.398000'
g117
tp223
a(S'2015-08-10 13:25:44.402000'
S'data saved as csv to c:\\Charlie\\charlie\\data\\csv\\4440_scap.csv'
tp224
a(S'2015-08-10 13:25:51.428000'
g115
tp225
a(S'2015-08-10 13:25:51.439000'
g117
tp226
a(S'2015-08-10 13:25:51.444000'
S'data saved as csv to c:\\Charlie\\charlie\\data\\csv\\4440_scap.csv'
tp227
a(S'2015-08-10 13:25:58.781000'
g115
tp228
a(S'2015-08-10 13:25:58.792000'
g117
tp229
a(S'2015-08-10 13:25:58.797000'
S'data saved as csv to c:\\Charlie\\charlie\\data\\csv\\4440_scap.csv'
tp230
a(S'2015-08-10 13:26:06.137000'
g115
tp231
a(S'2015-08-10 13:26:06.140000'
g117
tp232
a(S'2015-08-10 13:26:06.141000'
S'data saved as csv to c:\\Charlie\\charlie\\data\\csv\\4440_scap.csv'
tp233
a(S'2015-08-10 13:26:13.906000'
g115
tp234
a(S'2015-08-10 13:26:13.917000'
g117
tp235
a(S'2015-08-10 13:26:13.921000'
S'data saved as csv to c:\\Charlie\\charlie\\data\\csv\\4440_scap.csv'
tp236
a(S'2015-08-10 13:26:21.456000'
g115
tp237
a(S'2015-08-10 13:26:21.468000'
g117
tp238
a(S'2015-08-10 13:26:21.472000'
S'data saved as csv to c:\\Charlie\\charlie\\data\\csv\\4440_scap.csv'
tp239
a(S'2015-08-10 13:26:29.020000'
g115
tp240
a(S'2015-08-10 13:26:29.031000'
g117
tp241
a(S'2015-08-10 13:26:29.036000'
S'data saved as csv to c:\\Charlie\\charlie\\data\\csv\\4440_scap.csv'
tp242
a(S'2015-08-10 13:26:35.913000'
g115
tp243
a(S'2015-08-10 13:26:35.924000'
g117
tp244
a(S'2015-08-10 13:26:35.929000'
S'data saved as csv to c:\\Charlie\\charlie\\data\\csv\\4440_scap.csv'
tp245
a(S'2015-08-10 13:26:43.056000'
g115
tp246
a(S'2015-08-10 13:26:43.067000'
g117
tp247
a(S'2015-08-10 13:26:43.072000'
S'data saved as csv to c:\\Charlie\\charlie\\data\\csv\\4440_scap.csv'
tp248
a(S'2015-08-10 13:26:50.570000'
g115
tp249
a(S'2015-08-10 13:26:50.582000'
g117
tp250
a(S'2015-08-10 13:26:50.586000'
S'data saved as csv to c:\\Charlie\\charlie\\data\\csv\\4440_scap.csv'
tp251
asb.