(icharlie.tools.data
Data
p1
(dp2
S'lang'
p3
S'EN'
p4
sS'control'
p5
(lp6
sS'last_updated'
p7
cdatetime
datetime
p8
(S'\x07\xdf\x08\n\r-\x07\x02\x17('
tRp9
sS'last_opened'
p10
g8
(S'\x07\xdf\x08\n\r%\x17\x0c\x11\xd8'
tRp11
sS'proj_id'
p12
S'connectivity'
p13
sS'date_done'
p14
NsS'test_done'
p15
I01
sS'data'
p16
(lp17
(S'4440'
p18
S'switching'
p19
S'practice'
p20
I0
S'Position'
p21
S'Left'
p22
S'Right'
p23
S'n/a'
p24
S'Incongruent'
p25
S'c:\\Charlie\\charlie\\stimuli\\visual\\switching\\arrow_blue_right.png'
g22
S'Left'
p26
I11011
tp27
a(g18
g19
g20
I1
g21
g22
g23
S'Non-switch'
p28
g25
S'c:\\Charlie\\charlie\\stimuli\\visual\\switching\\arrow_blue_right.png'
g22
g26
I2720
tp29
a(g18
g19
g20
I2
S'Direction'
p30
g22
g23
S'Switch'
p31
g25
S'c:\\Charlie\\charlie\\stimuli\\visual\\switching\\arrow_red_right.png'
g23
S'Right'
p32
I4361
tp33
a(g18
g19
g20
I3
g30
g23
g22
g28
g25
S'c:\\Charlie\\charlie\\stimuli\\visual\\switching\\arrow_red_left.png'
g22
g26
I4170
tp34
a(g18
g19
g20
I4
g21
g23
g23
g31
S'Congruent'
p35
S'c:\\Charlie\\charlie\\stimuli\\visual\\switching\\arrow_blue_right.png'
g23
g32
I3840
tp36
a(g18
g19
g20
I5
g21
g23
g22
g28
g25
S'c:\\Charlie\\charlie\\stimuli\\visual\\switching\\arrow_blue_left.png'
g23
g32
I1350
tp37
a(g18
g19
g20
I6
g30
g22
g22
g31
g35
S'c:\\Charlie\\charlie\\stimuli\\visual\\switching\\arrow_red_left.png'
g22
g26
I2780
tp38
a(g18
g19
g20
I7
g30
g23
g22
g28
g25
S'c:\\Charlie\\charlie\\stimuli\\visual\\switching\\arrow_red_left.png'
g22
g32
I1420
tp39
a(g18
g19
g20
I8
g21
g22
g22
g31
g35
S'c:\\Charlie\\charlie\\stimuli\\visual\\switching\\arrow_blue_left.png'
g22
g26
I6070
tp40
a(g18
g19
S'predictable'
p41
I0
g21
g22
g22
g24
g35
S'c:\\Charlie\\charlie\\stimuli\\visual\\switching\\arrow_blue_left.png'
g22
g26
I1840
tp42
a(g18
g19
g41
I1
g21
g22
g22
g28
g35
S'c:\\Charlie\\charlie\\stimuli\\visual\\switching\\arrow_blue_left.png'
g22
g26
I800
tp43
a(g18
g19
g41
I2
g30
g22
g22
g31
g35
S'c:\\Charlie\\charlie\\stimuli\\visual\\switching\\arrow_red_left.png'
g22
g26
I1970
tp44
a(g18
g19
g41
I3
g30
g23
g23
g28
g35
S'c:\\Charlie\\charlie\\stimuli\\visual\\switching\\arrow_red_right.png'
g23
g32
I980
tp45
a(g18
g19
g41
I4
g21
g22
g23
g31
g25
S'c:\\Charlie\\charlie\\stimuli\\visual\\switching\\arrow_blue_right.png'
g22
g32
I2950
tp46
a(g18
g19
g41
I5
g21
g22
g23
g28
g25
S'c:\\Charlie\\charlie\\stimuli\\visual\\switching\\arrow_blue_right.png'
g22
g26
I1141
tp47
a(g18
g19
g41
I6
g30
g23
g23
g31
g35
S'c:\\Charlie\\charlie\\stimuli\\visual\\switching\\arrow_red_right.png'
g23
g32
I2370
tp48
a(g18
g19
g41
I7
g30
g22
g23
g28
g25
S'c:\\Charlie\\charlie\\stimuli\\visual\\switching\\arrow_red_right.png'
g23
g32
I1210
tp49
a(g18
g19
g41
I8
g21
g23
g23
g31
g35
S'c:\\Charlie\\charlie\\stimuli\\visual\\switching\\arrow_blue_right.png'
g23
g32
I1820
tp50
a(g18
g19
g41
I9
g21
g23
g23
g28
g35
S'c:\\Charlie\\charlie\\stimuli\\visual\\switching\\arrow_blue_right.png'
g23
g32
I970
tp51
a(g18
g19
g41
I10
g30
g22
g23
g31
g25
S'c:\\Charlie\\charlie\\stimuli\\visual\\switching\\arrow_red_right.png'
g23
g32
I1690
tp52
a(g18
g19
g41
I11
g30
g22
g22
g28
g35
S'c:\\Charlie\\charlie\\stimuli\\visual\\switching\\arrow_red_left.png'
g22
g26
I1120
tp53
a(g18
g19
g41
I12
g21
g23
g23
g31
g35
S'c:\\Charlie\\charlie\\stimuli\\visual\\switching\\arrow_blue_right.png'
g23
g32
I2300
tp54
a(g18
g19
g41
I13
g21
g22
g22
g28
g35
S'c:\\Charlie\\charlie\\stimuli\\visual\\switching\\arrow_blue_left.png'
g22
g26
I970
tp55
a(g18
g19
g41
I14
g30
g23
g23
g31
g35
S'c:\\Charlie\\charlie\\stimuli\\visual\\switching\\arrow_red_right.png'
g23
g32
I2070
tp56
a(g18
g19
g41
I15
g30
g22
g23
g28
g25
S'c:\\Charlie\\charlie\\stimuli\\visual\\switching\\arrow_red_right.png'
g23
g32
I1081
tp57
a(g18
g19
g41
I16
g21
g23
g23
g31
g35
S'c:\\Charlie\\charlie\\stimuli\\visual\\switching\\arrow_blue_right.png'
g23
g32
I1620
tp58
a(g18
g19
g41
I17
g21
g22
g23
g28
g25
S'c:\\Charlie\\charlie\\stimuli\\visual\\switching\\arrow_blue_right.png'
g22
g26
I2120
tp59
a(g18
g19
g41
I18
g30
g22
g22
g31
g35
S'c:\\Charlie\\charlie\\stimuli\\visual\\switching\\arrow_red_left.png'
g22
g26
I1640
tp60
a(g18
g19
g41
I19
g30
g22
g22
g28
g35
S'c:\\Charlie\\charlie\\stimuli\\visual\\switching\\arrow_red_left.png'
g22
g26
I560
tp61
a(g18
g19
g41
I20
g21
g22
g23
g31
g25
S'c:\\Charlie\\charlie\\stimuli\\visual\\switching\\arrow_blue_right.png'
g22
g26
I2060
tp62
a(g18
g19
g41
I21
g21
g22
g23
g28
g25
S'c:\\Charlie\\charlie\\stimuli\\visual\\switching\\arrow_blue_right.png'
g22
g26
I1210
tp63
a(g18
g19
g41
I22
g30
g23
g23
g31
g35
S'c:\\Charlie\\charlie\\stimuli\\visual\\switching\\arrow_red_right.png'
g23
g32
I1260
tp64
a(g18
g19
g41
I23
g30
g23
g22
g28
g25
S'c:\\Charlie\\charlie\\stimuli\\visual\\switching\\arrow_red_left.png'
g22
g26
I2440
tp65
a(g18
g19
g41
I24
g21
g23
g22
g31
g25
S'c:\\Charlie\\charlie\\stimuli\\visual\\switching\\arrow_blue_left.png'
g23
g32
I2450
tp66
a(g18
g19
g41
I25
g21
g22
g22
g28
g35
S'c:\\Charlie\\charlie\\stimuli\\visual\\switching\\arrow_blue_left.png'
g22
g26
I961
tp67
a(g18
g19
g41
I26
g30
g22
g22
g31
g35
S'c:\\Charlie\\charlie\\stimuli\\visual\\switching\\arrow_red_left.png'
g22
g26
I1920
tp68
a(g18
g19
g41
I27
g30
g22
g22
g28
g35
S'c:\\Charlie\\charlie\\stimuli\\visual\\switching\\arrow_red_left.png'
g22
g26
I1130
tp69
a(g18
g19
g41
I28
g21
g22
g23
g31
g25
S'c:\\Charlie\\charlie\\stimuli\\visual\\switching\\arrow_blue_right.png'
g22
g32
I2220
tp70
a(g18
g19
g41
I29
g21
g23
g22
g28
g25
S'c:\\Charlie\\charlie\\stimuli\\visual\\switching\\arrow_blue_left.png'
g23
g26
I890
tp71
a(g18
g19
g41
I30
g30
g22
g22
g31
g35
S'c:\\Charlie\\charlie\\stimuli\\visual\\switching\\arrow_red_left.png'
g22
g26
I1340
tp72
a(g18
g19
g41
I31
g30
g22
g22
g28
g35
S'c:\\Charlie\\charlie\\stimuli\\visual\\switching\\arrow_red_left.png'
g22
g26
I920
tp73
a(g18
g19
g41
I32
g21
g23
g23
g31
g35
S'c:\\Charlie\\charlie\\stimuli\\visual\\switching\\arrow_blue_right.png'
g23
g32
I1000
tp74
a(g18
g19
g41
I33
g21
g23
g23
g28
g35
S'c:\\Charlie\\charlie\\stimuli\\visual\\switching\\arrow_blue_right.png'
g23
g32
I1090
tp75
a(g18
g19
g41
I34
g30
g23
g22
g31
g25
S'c:\\Charlie\\charlie\\stimuli\\visual\\switching\\arrow_red_left.png'
g22
g26
I1520
tp76
a(g18
g19
g41
I35
g30
g23
g23
g28
g35
S'c:\\Charlie\\charlie\\stimuli\\visual\\switching\\arrow_red_right.png'
g23
g32
I1070
tp77
a(g18
g19
g41
I36
g21
g22
g23
g31
g25
S'c:\\Charlie\\charlie\\stimuli\\visual\\switching\\arrow_blue_right.png'
g22
g26
I1900
tp78
a(g18
g19
g41
I37
g21
g23
g23
g28
g35
S'c:\\Charlie\\charlie\\stimuli\\visual\\switching\\arrow_blue_right.png'
g23
g32
I1241
tp79
a(g18
g19
g41
I38
g30
g22
g23
g31
g25
S'c:\\Charlie\\charlie\\stimuli\\visual\\switching\\arrow_red_right.png'
g23
g32
I1510
tp80
a(g18
g19
g41
I39
g30
g23
g22
g28
g25
S'c:\\Charlie\\charlie\\stimuli\\visual\\switching\\arrow_red_left.png'
g22
g26
I1040
tp81
a(g18
g19
g41
I40
g21
g23
g23
g31
g35
S'c:\\Charlie\\charlie\\stimuli\\visual\\switching\\arrow_blue_right.png'
g23
g32
I1880
tp82
a(g18
g19
g41
I41
g21
g23
g22
g28
g25
S'c:\\Charlie\\charlie\\stimuli\\visual\\switching\\arrow_blue_left.png'
g23
g32
I1620
tp83
a(g18
g19
g41
I42
g30
g22
g22
g31
g35
S'c:\\Charlie\\charlie\\stimuli\\visual\\switching\\arrow_red_left.png'
g22
g26
I1870
tp84
a(g18
g19
g41
I43
g30
g22
g22
g28
g35
S'c:\\Charlie\\charlie\\stimuli\\visual\\switching\\arrow_red_left.png'
g22
g26
I1120
tp85
a(g18
g19
g41
I44
g21
g23
g22
g31
g25
S'c:\\Charlie\\charlie\\stimuli\\visual\\switching\\arrow_blue_left.png'
g23
g32
I2540
tp86
a(g18
g19
g41
I45
g21
g23
g22
g28
g25
S'c:\\Charlie\\charlie\\stimuli\\visual\\switching\\arrow_blue_left.png'
g23
g32
I1590
tp87
a(g18
g19
g41
I46
g30
g23
g22
g31
g25
S'c:\\Charlie\\charlie\\stimuli\\visual\\switching\\arrow_red_left.png'
g22
g26
I2861
tp88
a(g18
g19
g41
I47
g30
g22
g22
g28
g35
S'c:\\Charlie\\charlie\\stimuli\\visual\\switching\\arrow_red_left.png'
g22
g26
I1390
tp89
a(g18
g19
g41
I48
g21
g23
g22
g31
g25
S'c:\\Charlie\\charlie\\stimuli\\visual\\switching\\arrow_blue_left.png'
g23
g32
I2230
tp90
a(g18
g19
g41
I49
g21
g22
g23
g28
g25
S'c:\\Charlie\\charlie\\stimuli\\visual\\switching\\arrow_blue_right.png'
g22
g26
I2840
tp91
a(g18
g19
g41
I50
g30
g23
g22
g31
g25
S'c:\\Charlie\\charlie\\stimuli\\visual\\switching\\arrow_red_left.png'
g22
g26
I2420
tp92
a(g18
g19
g41
I51
g30
g22
g22
g28
g35
S'c:\\Charlie\\charlie\\stimuli\\visual\\switching\\arrow_red_left.png'
g22
g26
I1260
tp93
a(g18
g19
g41
I52
g21
g23
g22
g31
g25
S'c:\\Charlie\\charlie\\stimuli\\visual\\switching\\arrow_blue_left.png'
g23
g32
I2070
tp94
a(g18
g19
g41
I53
g21
g23
g22
g28
g25
S'c:\\Charlie\\charlie\\stimuli\\visual\\switching\\arrow_blue_left.png'
g23
g32
I1170
tp95
a(g18
g19
g41
I54
g30
g23
g22
g31
g25
S'c:\\Charlie\\charlie\\stimuli\\visual\\switching\\arrow_red_left.png'
g22
g32
I1760
tp96
a(g18
g19
g41
I55
g30
g23
g23
g28
g35
S'c:\\Charlie\\charlie\\stimuli\\visual\\switching\\arrow_red_right.png'
g23
g32
I2231
tp97
a(g18
g19
g41
I56
g21
g22
g23
g31
g25
S'c:\\Charlie\\charlie\\stimuli\\visual\\switching\\arrow_blue_right.png'
g22
g26
I3900
tp98
a(g18
g19
g41
I57
g21
g22
g23
g28
g25
S'c:\\Charlie\\charlie\\stimuli\\visual\\switching\\arrow_blue_right.png'
g22
g26
I720
tp99
a(g18
g19
g41
I58
g30
g23
g23
g31
g35
S'c:\\Charlie\\charlie\\stimuli\\visual\\switching\\arrow_red_right.png'
g23
g32
I1550
tp100
a(g18
g19
g41
I59
g30
g22
g22
g28
g35
S'c:\\Charlie\\charlie\\stimuli\\visual\\switching\\arrow_red_left.png'
g22
g26
I1290
tp101
a(g18
g19
g41
I60
g21
g22
g22
g31
g35
S'c:\\Charlie\\charlie\\stimuli\\visual\\switching\\arrow_blue_left.png'
g22
g26
I1110
tp102
a(g18
g19
g41
I61
g21
g22
g22
g28
g35
S'c:\\Charlie\\charlie\\stimuli\\visual\\switching\\arrow_blue_left.png'
g22
g26
I1110
tp103
a(g18
g19
g41
I62
g30
g23
g23
g31
g35
S'c:\\Charlie\\charlie\\stimuli\\visual\\switching\\arrow_red_right.png'
g23
g32
I1210
tp104
a(g18
g19
g41
I63
g30
g23
g23
g28
g35
S'c:\\Charlie\\charlie\\stimuli\\visual\\switching\\arrow_red_right.png'
g23
g32
I1140
tp105
a(g18
g19
g41
I64
g21
g23
g23
g31
g35
S'c:\\Charlie\\charlie\\stimuli\\visual\\switching\\arrow_blue_right.png'
g23
g32
I1440
tp106
a(g18
g19
g41
I65
g21
g22
g23
g28
g25
S'c:\\Charlie\\charlie\\stimuli\\visual\\switching\\arrow_blue_right.png'
g22
g26
I1511
tp107
a(g18
g19
g41
I66
g30
g23
g23
g31
g35
S'c:\\Charlie\\charlie\\stimuli\\visual\\switching\\arrow_red_right.png'
g23
g32
I1150
tp108
a(g18
g19
g41
I67
g30
g22
g23
g28
g25
S'c:\\Charlie\\charlie\\stimuli\\visual\\switching\\arrow_red_right.png'
g23
g32
I2120
tp109
a(g18
g19
g41
I68
g21
g22
g22
g31
g35
S'c:\\Charlie\\charlie\\stimuli\\visual\\switching\\arrow_blue_left.png'
g22
g26
I1610
tp110
a(g18
g19
g41
I69
g21
g23
g22
g28
g25
S'c:\\Charlie\\charlie\\stimuli\\visual\\switching\\arrow_blue_left.png'
g23
g26
I3100
tp111
a(g18
g19
g41
I70
g30
g23
g22
g31
g25
S'c:\\Charlie\\charlie\\stimuli\\visual\\switching\\arrow_red_left.png'
g22
g26
I1750
tp112
a(g18
g19
g41
I71
g30
g23
g22
g28
g25
S'c:\\Charlie\\charlie\\stimuli\\visual\\switching\\arrow_red_left.png'
g22
g26
I990
tp113
a(g18
g19
g41
I72
g21
g23
g22
g31
g25
S'c:\\Charlie\\charlie\\stimuli\\visual\\switching\\arrow_blue_left.png'
g23
g26
I1540
tp114
a(g18
g19
g41
I73
g21
g22
g23
g28
g25
S'c:\\Charlie\\charlie\\stimuli\\visual\\switching\\arrow_blue_right.png'
g22
g32
I1310
tp115
a(g18
g19
g41
I74
g30
g23
g23
g31
g35
S'c:\\Charlie\\charlie\\stimuli\\visual\\switching\\arrow_red_right.png'
g23
g32
I1300
tp116
a(g18
g19
g41
I75
g30
g23
g23
g28
g35
S'c:\\Charlie\\charlie\\stimuli\\visual\\switching\\arrow_red_right.png'
g23
g32
I1130
tp117
a(g18
g19
g41
I76
g21
g23
g23
g31
g35
S'c:\\Charlie\\charlie\\stimuli\\visual\\switching\\arrow_blue_right.png'
g23
g32
I1380
tp118
a(g18
g19
g41
I77
g21
g22
g23
g28
g25
S'c:\\Charlie\\charlie\\stimuli\\visual\\switching\\arrow_blue_right.png'
g22
g26
I1930
tp119
a(g18
g19
g41
I78
g30
g22
g22
g31
g35
S'c:\\Charlie\\charlie\\stimuli\\visual\\switching\\arrow_red_left.png'
g22
g26
I1560
tp120
a(g18
g19
g41
I79
g30
g22
g23
g28
g25
S'c:\\Charlie\\charlie\\stimuli\\visual\\switching\\arrow_red_right.png'
g23
g32
I1270
tp121
a(g18
g19
g41
I80
g21
g23
g22
g31
g25
S'c:\\Charlie\\charlie\\stimuli\\visual\\switching\\arrow_blue_left.png'
g23
g26
I2030
tp122
a(g18
g19
g41
I81
g21
g22
g22
g28
g35
S'c:\\Charlie\\charlie\\stimuli\\visual\\switching\\arrow_blue_left.png'
g22
g26
I2820
tp123
a(g18
g19
g41
I82
g30
g22
g22
g31
g35
S'c:\\Charlie\\charlie\\stimuli\\visual\\switching\\arrow_red_left.png'
g22
g26
I1760
tp124
a(g18
g19
g41
I83
g30
g23
g23
g28
g35
S'c:\\Charlie\\charlie\\stimuli\\visual\\switching\\arrow_red_right.png'
g23
g32
I1160
tp125
a(g18
g19
g41
I84
g21
g23
g22
g31
g25
S'c:\\Charlie\\charlie\\stimuli\\visual\\switching\\arrow_blue_left.png'
g23
g26
I1081
tp126
a(g18
g19
g41
I85
g21
g23
g22
g28
g25
S'c:\\Charlie\\charlie\\stimuli\\visual\\switching\\arrow_blue_left.png'
g23
g26
I1100
tp127
a(g18
g19
g41
I86
g30
g23
g23
g31
g35
S'c:\\Charlie\\charlie\\stimuli\\visual\\switching\\arrow_red_right.png'
g23
g32
I1250
tp128
a(g18
g19
g41
I87
g30
g23
g23
g28
g35
S'c:\\Charlie\\charlie\\stimuli\\visual\\switching\\arrow_red_right.png'
g23
g32
I1180
tp129
a(g18
g19
g41
I88
g21
g23
g23
g31
g35
S'c:\\Charlie\\charlie\\stimuli\\visual\\switching\\arrow_blue_right.png'
g23
g32
I1500
tp130
a(g18
g19
g41
I89
g21
g22
g23
g28
g25
S'c:\\Charlie\\charlie\\stimuli\\visual\\switching\\arrow_blue_right.png'
g22
g26
I1210
tp131
a(g18
g19
g41
I90
g30
g23
g23
g31
g35
S'c:\\Charlie\\charlie\\stimuli\\visual\\switching\\arrow_red_right.png'
g23
g32
I1060
tp132
a(g18
g19
g41
I91
g30
g22
g22
g28
g35
S'c:\\Charlie\\charlie\\stimuli\\visual\\switching\\arrow_red_left.png'
g22
g26
I2240
tp133
a(g18
g19
g41
I92
g21
g22
g22
g31
g35
S'c:\\Charlie\\charlie\\stimuli\\visual\\switching\\arrow_blue_left.png'
g22
g26
I880
tp134
a(g18
g19
g41
I93
g21
g23
g23
g28
g35
S'c:\\Charlie\\charlie\\stimuli\\visual\\switching\\arrow_blue_right.png'
g23
g32
I890
tp135
a(g18
g19
g41
I94
g30
g22
g22
g31
g35
S'c:\\Charlie\\charlie\\stimuli\\visual\\switching\\arrow_red_left.png'
g22
g26
I870
tp136
a(g18
g19
g41
I95
g30
g22
g22
g28
g35
S'c:\\Charlie\\charlie\\stimuli\\visual\\switching\\arrow_red_left.png'
g22
g26
I880
tp137
a(g18
g19
g41
I96
g21
g22
g22
g31
g35
S'c:\\Charlie\\charlie\\stimuli\\visual\\switching\\arrow_blue_left.png'
g22
g26
I820
tp138
a(g18
g19
g41
I97
g21
g23
g23
g28
g35
S'c:\\Charlie\\charlie\\stimuli\\visual\\switching\\arrow_blue_right.png'
g23
g32
I800
tp139
a(g18
g19
g41
I98
g30
g22
g22
g31
g35
S'c:\\Charlie\\charlie\\stimuli\\visual\\switching\\arrow_red_left.png'
g22
g26
I721
tp140
a(g18
g19
g41
I99
g30
g22
g23
g28
g25
S'c:\\Charlie\\charlie\\stimuli\\visual\\switching\\arrow_red_right.png'
g23
g32
I1020
tp141
a(g18
g19
g41
I100
g21
g22
g22
g31
g35
S'c:\\Charlie\\charlie\\stimuli\\visual\\switching\\arrow_blue_left.png'
g22
g26
I1050
tp142
a(g18
g19
S'random'
p143
I0
g21
g23
g23
g24
g35
S'c:\\Charlie\\charlie\\stimuli\\visual\\switching\\arrow_blue_right.png'
g23
g32
I1730
tp144
a(g18
g19
g143
I1
g21
g22
g22
g28
g35
S'c:\\Charlie\\charlie\\stimuli\\visual\\switching\\arrow_blue_left.png'
g22
g26
I1510
tp145
a(g18
g19
g143
I2
g21
g23
g23
g28
g35
S'c:\\Charlie\\charlie\\stimuli\\visual\\switching\\arrow_blue_right.png'
g23
g32
I1300
tp146
a(g18
g19
g143
I3
g30
g22
g22
g31
g35
S'c:\\Charlie\\charlie\\stimuli\\visual\\switching\\arrow_red_left.png'
g22
g26
I1680
tp147
a(g18
g19
g143
I4
g21
g23
g22
g31
g25
S'c:\\Charlie\\charlie\\stimuli\\visual\\switching\\arrow_blue_left.png'
g23
g32
I1460
tp148
a(g18
g19
g143
I5
g21
g23
g22
g28
g25
S'c:\\Charlie\\charlie\\stimuli\\visual\\switching\\arrow_blue_left.png'
g23
g32
I740
tp149
a(g18
g19
g143
I6
g21
g22
g23
g28
g25
S'c:\\Charlie\\charlie\\stimuli\\visual\\switching\\arrow_blue_right.png'
g22
g26
I1060
tp150
a(g18
g19
g143
I7
g30
g22
g23
g31
g25
S'c:\\Charlie\\charlie\\stimuli\\visual\\switching\\arrow_red_right.png'
g23
g26
I1370
tp151
a(g18
g19
g143
I8
g30
g22
g22
g28
g35
S'c:\\Charlie\\charlie\\stimuli\\visual\\switching\\arrow_red_left.png'
g22
g32
I2140
tp152
a(g18
g19
g143
I9
g30
g23
g23
g28
g35
S'c:\\Charlie\\charlie\\stimuli\\visual\\switching\\arrow_red_right.png'
g23
g32
I1520
tp153
a(g18
g19
g143
I10
g21
g23
g23
g31
g35
S'c:\\Charlie\\charlie\\stimuli\\visual\\switching\\arrow_blue_right.png'
g23
g32
I1651
tp154
a(g18
g19
g143
I11
g21
g23
g22
g28
g25
S'c:\\Charlie\\charlie\\stimuli\\visual\\switching\\arrow_blue_left.png'
g23
g32
I1710
tp155
a(g18
g19
g143
I12
g21
g22
g23
g28
g25
S'c:\\Charlie\\charlie\\stimuli\\visual\\switching\\arrow_blue_right.png'
g22
g26
I1650
tp156
a(g18
g19
g143
I13
g21
g22
g22
g28
g35
S'c:\\Charlie\\charlie\\stimuli\\visual\\switching\\arrow_blue_left.png'
g22
g26
I1390
tp157
a(g18
g19
g143
I14
g30
g23
g22
g31
g25
S'c:\\Charlie\\charlie\\stimuli\\visual\\switching\\arrow_red_left.png'
g22
g26
I2570
tp158
a(g18
g19
g143
I15
g30
g22
g23
g28
g25
S'c:\\Charlie\\charlie\\stimuli\\visual\\switching\\arrow_red_right.png'
g23
g32
I1460
tp159
a(g18
g19
g143
I16
g30
g23
g23
g28
g35
S'c:\\Charlie\\charlie\\stimuli\\visual\\switching\\arrow_red_right.png'
g23
g32
I1690
tp160
a(g18
g19
g143
I17
g21
g23
g22
g31
g25
S'c:\\Charlie\\charlie\\stimuli\\visual\\switching\\arrow_blue_left.png'
g23
g26
I1460
tp161
a(g18
g19
g143
I18
g30
g23
g22
g31
g25
S'c:\\Charlie\\charlie\\stimuli\\visual\\switching\\arrow_red_left.png'
g22
g32
I1520
tp162
a(g18
g19
g143
I19
g30
g22
g23
g28
g25
S'c:\\Charlie\\charlie\\stimuli\\visual\\switching\\arrow_red_right.png'
g23
g26
I1681
tp163
a(g18
g19
g143
I20
g30
g22
g22
g28
g35
S'c:\\Charlie\\charlie\\stimuli\\visual\\switching\\arrow_red_left.png'
g22
g32
I1240
tp164
a(g18
g19
g143
I21
g21
g22
g23
g31
g25
S'c:\\Charlie\\charlie\\stimuli\\visual\\switching\\arrow_blue_right.png'
g22
g26
I1660
tp165
a(g18
g19
g143
I22
g21
g23
g23
g28
g35
S'c:\\Charlie\\charlie\\stimuli\\visual\\switching\\arrow_blue_right.png'
g23
g32
I2330
tp166
a(g18
g19
g143
I23
g30
g23
g22
g31
g25
S'c:\\Charlie\\charlie\\stimuli\\visual\\switching\\arrow_red_left.png'
g22
g26
I3050
tp167
a(g18
g19
g143
I24
g21
g22
g22
g31
g35
S'c:\\Charlie\\charlie\\stimuli\\visual\\switching\\arrow_blue_left.png'
g22
g26
I1920
tp168
a(g18
g19
g143
I25
g30
g23
g23
g31
g35
S'c:\\Charlie\\charlie\\stimuli\\visual\\switching\\arrow_red_right.png'
g23
g32
I2040
tp169
a(g18
g19
g143
I26
g30
g23
g22
g28
g25
S'c:\\Charlie\\charlie\\stimuli\\visual\\switching\\arrow_red_left.png'
g22
g26
I1070
tp170
a(g18
g19
g143
I27
g30
g23
g23
g28
g35
S'c:\\Charlie\\charlie\\stimuli\\visual\\switching\\arrow_red_right.png'
g23
g32
I950
tp171
a(g18
g19
g143
I28
g21
g23
g23
g31
g35
S'c:\\Charlie\\charlie\\stimuli\\visual\\switching\\arrow_blue_right.png'
g23
g32
I1381
tp172
a(g18
g19
g143
I29
g30
g22
g23
g31
g25
S'c:\\Charlie\\charlie\\stimuli\\visual\\switching\\arrow_red_right.png'
g23
g26
I1390
tp173
a(g18
g19
g143
I30
g30
g23
g23
g28
g35
S'c:\\Charlie\\charlie\\stimuli\\visual\\switching\\arrow_red_right.png'
g23
g32
I2730
tp174
a(g18
g19
g143
I31
g30
g23
g23
g28
g35
S'c:\\Charlie\\charlie\\stimuli\\visual\\switching\\arrow_red_right.png'
g23
g32
I960
tp175
a(g18
g19
g143
I32
g30
g22
g22
g28
g35
S'c:\\Charlie\\charlie\\stimuli\\visual\\switching\\arrow_red_left.png'
g22
g26
I1120
tp176
a(g18
g19
g143
I33
g30
g23
g22
g28
g25
S'c:\\Charlie\\charlie\\stimuli\\visual\\switching\\arrow_red_left.png'
g22
g32
I1610
tp177
a(g18
g19
g143
I34
g21
g23
g23
g31
g35
S'c:\\Charlie\\charlie\\stimuli\\visual\\switching\\arrow_blue_right.png'
g23
g32
I2250
tp178
a(g18
g19
g143
I35
g30
g22
g23
g31
g25
S'c:\\Charlie\\charlie\\stimuli\\visual\\switching\\arrow_red_right.png'
g23
g32
I2420
tp179
a(g18
g19
g143
I36
g21
g23
g22
g31
g25
S'c:\\Charlie\\charlie\\stimuli\\visual\\switching\\arrow_blue_left.png'
g23
g26
I1140
tp180
a(g18
g19
g143
I37
g21
g23
g23
g28
g35
S'c:\\Charlie\\charlie\\stimuli\\visual\\switching\\arrow_blue_right.png'
g23
g32
I2190
tp181
a(g18
g19
g143
I38
g21
g23
g23
g28
g35
S'c:\\Charlie\\charlie\\stimuli\\visual\\switching\\arrow_blue_right.png'
g23
g32
I991
tp182
a(g18
g19
g143
I39
g21
g22
g22
g28
g35
S'c:\\Charlie\\charlie\\stimuli\\visual\\switching\\arrow_blue_left.png'
g22
g26
I1010
tp183
a(g18
g19
g143
I40
g30
g22
g22
g31
g35
S'c:\\Charlie\\charlie\\stimuli\\visual\\switching\\arrow_red_left.png'
g22
g26
I980
tp184
a(g18
g19
g143
I41
g21
g23
g23
g31
g35
S'c:\\Charlie\\charlie\\stimuli\\visual\\switching\\arrow_blue_right.png'
g23
g32
I1020
tp185
a(g18
g19
g143
I42
g30
g22
g23
g31
g25
S'c:\\Charlie\\charlie\\stimuli\\visual\\switching\\arrow_red_right.png'
g23
g26
I1050
tp186
a(g18
g19
g143
I43
g21
g22
g23
g31
g25
S'c:\\Charlie\\charlie\\stimuli\\visual\\switching\\arrow_blue_right.png'
g22
g26
I1050
tp187
a(g18
g19
g143
I44
g30
g22
g23
g31
g25
S'c:\\Charlie\\charlie\\stimuli\\visual\\switching\\arrow_red_right.png'
g23
g26
I1060
tp188
a(g18
g19
g143
I45
g21
g23
g22
g31
g25
S'c:\\Charlie\\charlie\\stimuli\\visual\\switching\\arrow_blue_left.png'
g23
g32
I1110
tp189
a(g18
g19
g143
I46
g21
g22
g22
g28
g35
S'c:\\Charlie\\charlie\\stimuli\\visual\\switching\\arrow_blue_left.png'
g22
g26
I1120
tp190
a(g18
g19
g143
I47
g21
g22
g22
g28
g35
S'c:\\Charlie\\charlie\\stimuli\\visual\\switching\\arrow_blue_left.png'
g22
g26
I1060
tp191
a(g18
g19
g143
I48
g30
g22
g22
g31
g35
S'c:\\Charlie\\charlie\\stimuli\\visual\\switching\\arrow_red_left.png'
g22
g26
I1110
tp192
a(g18
g19
g143
I49
g30
g22
g22
g28
g35
S'c:\\Charlie\\charlie\\stimuli\\visual\\switching\\arrow_red_left.png'
g22
g26
I1050
tp193
a(g18
g19
g143
I50
g30
g23
g23
g28
g35
S'c:\\Charlie\\charlie\\stimuli\\visual\\switching\\arrow_red_right.png'
g23
g32
I1080
tp194
a(g18
g19
g143
I51
g30
g23
g22
g28
g25
S'c:\\Charlie\\charlie\\stimuli\\visual\\switching\\arrow_red_left.png'
g22
g26
I1080
tp195
a(g18
g19
g143
I52
g30
g22
g23
g28
g25
S'c:\\Charlie\\charlie\\stimuli\\visual\\switching\\arrow_red_right.png'
g23
g32
I1611
tp196
a(g18
g19
g143
I53
g30
g23
g23
g28
g35
S'c:\\Charlie\\charlie\\stimuli\\visual\\switching\\arrow_red_right.png'
g23
g32
I1220
tp197
a(g18
g19
g143
I54
g21
g23
g22
g31
g25
S'c:\\Charlie\\charlie\\stimuli\\visual\\switching\\arrow_blue_left.png'
g23
g32
I2050
tp198
a(g18
g19
g143
I55
g21
g22
g22
g28
g35
S'c:\\Charlie\\charlie\\stimuli\\visual\\switching\\arrow_blue_left.png'
g22
g26
I1190
tp199
a(g18
g19
g143
I56
g30
g22
g22
g31
g35
S'c:\\Charlie\\charlie\\stimuli\\visual\\switching\\arrow_red_left.png'
g22
g26
I1050
tp200
a(g18
g19
g143
I57
g21
g22
g22
g31
g35
S'c:\\Charlie\\charlie\\stimuli\\visual\\switching\\arrow_blue_left.png'
g22
g26
I1140
tp201
a(g18
g19
g143
I58
g21
g22
g23
g28
g25
S'c:\\Charlie\\charlie\\stimuli\\visual\\switching\\arrow_blue_right.png'
g22
g26
I2090
tp202
a(g18
g19
g143
I59
g30
g22
g22
g31
g35
S'c:\\Charlie\\charlie\\stimuli\\visual\\switching\\arrow_red_left.png'
g22
g26
I1260
tp203
a(g18
g19
g143
I60
g21
g22
g23
g31
g25
S'c:\\Charlie\\charlie\\stimuli\\visual\\switching\\arrow_blue_right.png'
g22
g26
I1200
tp204
a(g18
g19
g143
I61
g21
g23
g23
g28
g35
S'c:\\Charlie\\charlie\\stimuli\\visual\\switching\\arrow_blue_right.png'
g23
g32
I1500
tp205
a(g18
g19
g143
I62
g30
g23
g22
g31
g25
S'c:\\Charlie\\charlie\\stimuli\\visual\\switching\\arrow_red_left.png'
g22
g26
I1640
tp206
a(g18
g19
g143
I63
g21
g23
g23
g31
g35
S'c:\\Charlie\\charlie\\stimuli\\visual\\switching\\arrow_blue_right.png'
g23
g32
I1731
tp207
a(g18
g19
g143
I64
g30
g22
g22
g31
g35
S'c:\\Charlie\\charlie\\stimuli\\visual\\switching\\arrow_red_left.png'
g22
g26
I6450
tp208
a(g18
g19
g143
I65
g30
g23
g22
g28
g25
S'c:\\Charlie\\charlie\\stimuli\\visual\\switching\\arrow_red_left.png'
g22
g32
I2670
tp209
a(g18
g19
g143
I66
g21
g22
g23
g31
g25
S'c:\\Charlie\\charlie\\stimuli\\visual\\switching\\arrow_blue_right.png'
g22
g26
I3370
tp210
a(g18
g19
g143
I67
g21
g22
g23
g28
g25
S'c:\\Charlie\\charlie\\stimuli\\visual\\switching\\arrow_blue_right.png'
g22
g26
I1540
tp211
a(g18
g19
g143
I68
g30
g22
g22
g31
g35
S'c:\\Charlie\\charlie\\stimuli\\visual\\switching\\arrow_red_left.png'
g22
g26
I1392
tp212
a(g18
g19
g143
I69
g30
g23
g22
g28
g25
S'c:\\Charlie\\charlie\\stimuli\\visual\\switching\\arrow_red_left.png'
g22
g32
I2920
tp213
a(g18
g19
g143
I70
g30
g23
g22
g28
g25
S'c:\\Charlie\\charlie\\stimuli\\visual\\switching\\arrow_red_left.png'
g22
g32
I1270
tp214
a(g18
g19
g143
I71
g30
g23
g23
g28
g35
S'c:\\Charlie\\charlie\\stimuli\\visual\\switching\\arrow_red_right.png'
g23
g32
I2040
tp215
a(g18
g19
g143
I72
g21
g22
g22
g31
g35
S'c:\\Charlie\\charlie\\stimuli\\visual\\switching\\arrow_blue_left.png'
g22
g26
I1050
tp216
a(g18
g19
g143
I73
g21
g22
g23
g28
g25
S'c:\\Charlie\\charlie\\stimuli\\visual\\switching\\arrow_blue_right.png'
g22
g26
I1060
tp217
a(g18
g19
g143
I74
g30
g22
g23
g31
g25
S'c:\\Charlie\\charlie\\stimuli\\visual\\switching\\arrow_red_right.png'
g23
g26
I1080
tp218
a(g18
g19
g143
I75
g21
g22
g22
g31
g35
S'c:\\Charlie\\charlie\\stimuli\\visual\\switching\\arrow_blue_left.png'
g22
g26
I1270
tp219
a(g18
g19
g143
I76
g30
g22
g22
g31
g35
S'c:\\Charlie\\charlie\\stimuli\\visual\\switching\\arrow_red_left.png'
g22
g26
I810
tp220
a(g18
g19
g143
I77
g21
g22
g23
g31
g25
S'c:\\Charlie\\charlie\\stimuli\\visual\\switching\\arrow_blue_right.png'
g22
g26
I1470
tp221
a(g18
g19
g143
I78
g21
g22
g23
g28
g25
S'c:\\Charlie\\charlie\\stimuli\\visual\\switching\\arrow_blue_right.png'
g22
g26
I880
tp222
a(g18
g19
g143
I79
g30
g22
g22
g31
g35
S'c:\\Charlie\\charlie\\stimuli\\visual\\switching\\arrow_red_left.png'
g22
g26
I910
tp223
a(g18
g19
g143
I80
g21
g23
g22
g31
g25
S'c:\\Charlie\\charlie\\stimuli\\visual\\switching\\arrow_blue_left.png'
g23
g32
I2011
tp224
a(g18
g19
g143
I81
g30
g23
g22
g31
g25
S'c:\\Charlie\\charlie\\stimuli\\visual\\switching\\arrow_red_left.png'
g22
g32
I1010
tp225
a(g18
g19
g143
I82
g30
g23
g22
g28
g25
S'c:\\Charlie\\charlie\\stimuli\\visual\\switching\\arrow_red_left.png'
g22
g26
I1630
tp226
a(g18
g19
g143
I83
g21
g23
g23
g31
g35
S'c:\\Charlie\\charlie\\stimuli\\visual\\switching\\arrow_blue_right.png'
g23
g32
I2070
tp227
a(g18
g19
g143
I84
g30
g23
g22
g31
g25
S'c:\\Charlie\\charlie\\stimuli\\visual\\switching\\arrow_red_left.png'
g22
g26
I1190
tp228
a(g18
g19
g143
I85
g30
g22
g23
g28
g25
S'c:\\Charlie\\charlie\\stimuli\\visual\\switching\\arrow_red_right.png'
g23
g32
I1140
tp229
a(g18
g19
g143
I86
g21
g22
g23
g31
g25
S'c:\\Charlie\\charlie\\stimuli\\visual\\switching\\arrow_blue_right.png'
g22
g26
I1710
tp230
a(g18
g19
g143
I87
g30
g23
g23
g31
g35
S'c:\\Charlie\\charlie\\stimuli\\visual\\switching\\arrow_red_right.png'
g23
g32
I1110
tp231
a(g18
g19
g143
I88
g30
g23
g23
g28
g35
S'c:\\Charlie\\charlie\\stimuli\\visual\\switching\\arrow_red_right.png'
g23
g32
I1140
tp232
a(g18
g19
g143
I89
g21
g23
g22
g31
g25
S'c:\\Charlie\\charlie\\stimuli\\visual\\switching\\arrow_blue_left.png'
g23
g32
I2050
tp233
a(g18
g19
g143
I90
g21
g22
g23
g28
g25
S'c:\\Charlie\\charlie\\stimuli\\visual\\switching\\arrow_blue_right.png'
g22
g26
I1460
tp234
a(g18
g19
g143
I91
g21
g23
g22
g28
g25
S'c:\\Charlie\\charlie\\stimuli\\visual\\switching\\arrow_blue_left.png'
g23
g32
I1051
tp235
a(g18
g19
g143
I92
g30
g22
g22
g31
g35
S'c:\\Charlie\\charlie\\stimuli\\visual\\switching\\arrow_red_left.png'
g22
g26
I1410
tp236
a(g18
g19
g143
I93
g21
g23
g23
g31
g35
S'c:\\Charlie\\charlie\\stimuli\\visual\\switching\\arrow_blue_right.png'
g23
g32
I1490
tp237
a(g18
g19
g143
I94
g30
g23
g23
g31
g35
S'c:\\Charlie\\charlie\\stimuli\\visual\\switching\\arrow_red_right.png'
g23
g32
I1100
tp238
a(g18
g19
g143
I95
g30
g22
g22
g28
g35
S'c:\\Charlie\\charlie\\stimuli\\visual\\switching\\arrow_red_left.png'
g22
g26
I1450
tp239
a(g18
g19
g143
I96
g21
g23
g23
g31
g35
S'c:\\Charlie\\charlie\\stimuli\\visual\\switching\\arrow_blue_right.png'
g23
g32
I1210
tp240
a(g18
g19
g143
I97
g21
g22
g22
g28
g35
S'c:\\Charlie\\charlie\\stimuli\\visual\\switching\\arrow_blue_left.png'
g22
g26
I1260
tp241
a(g18
g19
g143
I98
g21
g23
g23
g28
g35
S'c:\\Charlie\\charlie\\stimuli\\visual\\switching\\arrow_blue_right.png'
g23
g32
I1330
tp242
a(g18
g19
g143
I99
g21
g22
g22
g28
g35
S'c:\\Charlie\\charlie\\stimuli\\visual\\switching\\arrow_blue_left.png'
g22
g26
I1070
tp243
a(g18
g19
g143
I100
g21
g23
g23
g28
g35
S'c:\\Charlie\\charlie\\stimuli\\visual\\switching\\arrow_blue_right.png'
p244
g23
g32
I1010
tp245
asS'output_format'
p246
(lp247
(S'proband_id'
p248
c__builtin__
str
p249
tp250
a(S'test_name'
p251
g249
tp252
a(S'phase'
p253
g249
tp254
a(S'trialn'
p255
c__builtin__
int
p256
tp257
a(S'task'
p258
g249
tp259
a(S'pos'
p260
g249
tp261
a(S'dir'
p262
g249
tp263
a(S'switch'
p264
g249
tp265
a(S'cong'
p266
g249
tp267
a(S'f'
g249
tp268
a(S'ans'
p269
g249
tp270
a(S'rsp'
p271
g249
tp272
a(S'rt'
p273
g256
tp274
asg248
g18
sS'filename'
p275
S'4440_switching.data'
p276
sS'initialised'
p277
g8
(S'\x07\xdf\x08\n\r%\x17\x0c\x11\xd8'
tRp278
sS'last_udated'
p279
g8
(S'\x07\xdf\x08\n\r%\x17\x0c\x11\xd8'
tRp280
sg251
S'switching'
p281
sS'directory'
p282
S'c:\\Charlie\\charlie\\data\\raw'
p283
sS'user_id'
p284
S'sbuccheri'
p285
sS'test_started'
p286
I01
sS'abs_filename'
p287
S'c:\\Charlie\\charlie\\data\\raw\\4440_switching.data'
p288
sS'date_started'
p289
g8
(S'\x07\xdf\x08\n\r&\x15\x01\xb9h'
tRp290
sS'log'
p291
(lp292
(S'2015-08-10 13:37:23.791000'
S'instance created'
p293
tp294
a(S'2015-08-10 13:38:21.135000'
S'instance updated'
p295
tp296
a(S'2015-08-10 13:38:21.143000'
S'pandas DataFrame of data created'
p297
tp298
a(S'2015-08-10 13:38:21.150000'
S'data saved as csv to c:\\Charlie\\charlie\\data\\csv\\4440_switching.csv'
tp299
a(S'2015-08-10 13:38:24.902000'
g295
tp300
a(S'2015-08-10 13:38:24.914000'
g297
tp301
a(S'2015-08-10 13:38:24.918000'
S'data saved as csv to c:\\Charlie\\charlie\\data\\csv\\4440_switching.csv'
tp302
a(S'2015-08-10 13:38:30.310000'
g295
tp303
a(S'2015-08-10 13:38:30.321000'
g297
tp304
a(S'2015-08-10 13:38:30.323000'
S'data saved as csv to c:\\Charlie\\charlie\\data\\csv\\4440_switching.csv'
tp305
a(S'2015-08-10 13:38:35.525000'
g295
tp306
a(S'2015-08-10 13:38:35.537000'
g297
tp307
a(S'2015-08-10 13:38:35.541000'
S'data saved as csv to c:\\Charlie\\charlie\\data\\csv\\4440_switching.csv'
tp308
a(S'2015-08-10 13:38:40.413000'
g295
tp309
a(S'2015-08-10 13:38:40.425000'
g297
tp310
a(S'2015-08-10 13:38:40.429000'
S'data saved as csv to c:\\Charlie\\charlie\\data\\csv\\4440_switching.csv'
tp311
a(S'2015-08-10 13:38:42.810000'
g295
tp312
a(S'2015-08-10 13:38:42.823000'
g297
tp313
a(S'2015-08-10 13:38:42.826000'
S'data saved as csv to c:\\Charlie\\charlie\\data\\csv\\4440_switching.csv'
tp314
a(S'2015-08-10 13:38:46.638000'
g295
tp315
a(S'2015-08-10 13:38:46.650000'
g297
tp316
a(S'2015-08-10 13:38:46.654000'
S'data saved as csv to c:\\Charlie\\charlie\\data\\csv\\4440_switching.csv'
tp317
a(S'2015-08-10 13:38:49.108000'
g295
tp318
a(S'2015-08-10 13:38:49.120000'
g297
tp319
a(S'2015-08-10 13:38:49.124000'
S'data saved as csv to c:\\Charlie\\charlie\\data\\csv\\4440_switching.csv'
tp320
a(S'2015-08-10 13:38:56.227000'
g295
tp321
a(S'2015-08-10 13:38:56.238000'
g297
tp322
a(S'2015-08-10 13:38:56.240000'
S'data saved as csv to c:\\Charlie\\charlie\\data\\csv\\4440_switching.csv'
tp323
a(S'2015-08-10 13:39:13.039000'
g295
tp324
a(S'2015-08-10 13:39:13.051000'
g297
tp325
a(S'2015-08-10 13:39:13.055000'
S'data saved as csv to c:\\Charlie\\charlie\\data\\csv\\4440_switching.csv'
tp326
a(S'2015-08-10 13:39:13.991000'
g295
tp327
a(S'2015-08-10 13:39:14.003000'
g297
tp328
a(S'2015-08-10 13:39:14.007000'
S'data saved as csv to c:\\Charlie\\charlie\\data\\csv\\4440_switching.csv'
tp329
a(S'2015-08-10 13:39:16.113000'
g295
tp330
a(S'2015-08-10 13:39:16.125000'
g297
tp331
a(S'2015-08-10 13:39:16.127000'
S'data saved as csv to c:\\Charlie\\charlie\\data\\csv\\4440_switching.csv'
tp332
a(S'2015-08-10 13:39:17.240000'
g295
tp333
a(S'2015-08-10 13:39:17.253000'
g297
tp334
a(S'2015-08-10 13:39:17.257000'
S'data saved as csv to c:\\Charlie\\charlie\\data\\csv\\4440_switching.csv'
tp335
a(S'2015-08-10 13:39:20.343000'
g295
tp336
a(S'2015-08-10 13:39:20.356000'
g297
tp337
a(S'2015-08-10 13:39:20.357000'
S'data saved as csv to c:\\Charlie\\charlie\\data\\csv\\4440_switching.csv'
tp338
a(S'2015-08-10 13:39:21.632000'
g295
tp339
a(S'2015-08-10 13:39:21.644000'
g297
tp340
a(S'2015-08-10 13:39:21.647000'
S'data saved as csv to c:\\Charlie\\charlie\\data\\csv\\4440_switching.csv'
tp341
a(S'2015-08-10 13:39:24.151000'
g295
tp342
a(S'2015-08-10 13:39:24.163000'
g297
tp343
a(S'2015-08-10 13:39:24.166000'
S'data saved as csv to c:\\Charlie\\charlie\\data\\csv\\4440_switching.csv'
tp344
a(S'2015-08-10 13:39:25.511000'
g295
tp345
a(S'2015-08-10 13:39:25.520000'
g297
tp346
a(S'2015-08-10 13:39:25.522000'
S'data saved as csv to c:\\Charlie\\charlie\\data\\csv\\4440_switching.csv'
tp347
a(S'2015-08-10 13:39:27.476000'
g295
tp348
a(S'2015-08-10 13:39:27.488000'
g297
tp349
a(S'2015-08-10 13:39:27.493000'
S'data saved as csv to c:\\Charlie\\charlie\\data\\csv\\4440_switching.csv'
tp350
a(S'2015-08-10 13:39:28.598000'
g295
tp351
a(S'2015-08-10 13:39:28.610000'
g297
tp352
a(S'2015-08-10 13:39:28.614000'
S'data saved as csv to c:\\Charlie\\charlie\\data\\csv\\4440_switching.csv'
tp353
a(S'2015-08-10 13:39:30.439000'
g295
tp354
a(S'2015-08-10 13:39:30.452000'
g297
tp355
a(S'2015-08-10 13:39:30.456000'
S'data saved as csv to c:\\Charlie\\charlie\\data\\csv\\4440_switching.csv'
tp356
a(S'2015-08-10 13:39:31.711000'
g295
tp357
a(S'2015-08-10 13:39:31.725000'
g297
tp358
a(S'2015-08-10 13:39:31.727000'
S'data saved as csv to c:\\Charlie\\charlie\\data\\csv\\4440_switching.csv'
tp359
a(S'2015-08-10 13:39:34.161000'
g295
tp360
a(S'2015-08-10 13:39:34.174000'
g297
tp361
a(S'2015-08-10 13:39:34.178000'
S'data saved as csv to c:\\Charlie\\charlie\\data\\csv\\4440_switching.csv'
tp362
a(S'2015-08-10 13:39:35.283000'
g295
tp363
a(S'2015-08-10 13:39:35.295000'
g297
tp364
a(S'2015-08-10 13:39:35.297000'
S'data saved as csv to c:\\Charlie\\charlie\\data\\csv\\4440_switching.csv'
tp365
a(S'2015-08-10 13:39:37.502000'
g295
tp366
a(S'2015-08-10 13:39:37.515000'
g297
tp367
a(S'2015-08-10 13:39:37.517000'
S'data saved as csv to c:\\Charlie\\charlie\\data\\csv\\4440_switching.csv'
tp368
a(S'2015-08-10 13:39:38.731000'
g295
tp369
a(S'2015-08-10 13:39:38.744000'
g297
tp370
a(S'2015-08-10 13:39:38.746000'
S'data saved as csv to c:\\Charlie\\charlie\\data\\csv\\4440_switching.csv'
tp371
a(S'2015-08-10 13:39:40.500000'
g295
tp372
a(S'2015-08-10 13:39:40.513000'
g297
tp373
a(S'2015-08-10 13:39:40.516000'
S'data saved as csv to c:\\Charlie\\charlie\\data\\csv\\4440_switching.csv'
tp374
a(S'2015-08-10 13:39:42.771000'
g295
tp375
a(S'2015-08-10 13:39:42.783000'
g297
tp376
a(S'2015-08-10 13:39:42.787000'
S'data saved as csv to c:\\Charlie\\charlie\\data\\csv\\4440_switching.csv'
tp377
a(S'2015-08-10 13:39:44.563000'
g295
tp378
a(S'2015-08-10 13:39:44.576000'
g297
tp379
a(S'2015-08-10 13:39:44.580000'
S'data saved as csv to c:\\Charlie\\charlie\\data\\csv\\4440_switching.csv'
tp380
a(S'2015-08-10 13:39:45.275000'
g295
tp381
a(S'2015-08-10 13:39:45.287000'
g297
tp382
a(S'2015-08-10 13:39:45.289000'
S'data saved as csv to c:\\Charlie\\charlie\\data\\csv\\4440_switching.csv'
tp383
a(S'2015-08-10 13:39:47.483000'
g295
tp384
a(S'2015-08-10 13:39:47.496000'
g297
tp385
a(S'2015-08-10 13:39:47.500000'
S'data saved as csv to c:\\Charlie\\charlie\\data\\csv\\4440_switching.csv'
tp386
a(S'2015-08-10 13:39:48.846000'
g295
tp387
a(S'2015-08-10 13:39:48.857000'
g297
tp388
a(S'2015-08-10 13:39:48.859000'
S'data saved as csv to c:\\Charlie\\charlie\\data\\csv\\4440_switching.csv'
tp389
a(S'2015-08-10 13:39:50.253000'
g295
tp390
a(S'2015-08-10 13:39:50.265000'
g297
tp391
a(S'2015-08-10 13:39:50.267000'
S'data saved as csv to c:\\Charlie\\charlie\\data\\csv\\4440_switching.csv'
tp392
a(S'2015-08-10 13:39:52.842000'
g295
tp393
a(S'2015-08-10 13:39:52.856000'
g297
tp394
a(S'2015-08-10 13:39:52.860000'
S'data saved as csv to c:\\Charlie\\charlie\\data\\csv\\4440_switching.csv'
tp395
a(S'2015-08-10 13:39:55.446000'
g295
tp396
a(S'2015-08-10 13:39:55.457000'
g297
tp397
a(S'2015-08-10 13:39:55.459000'
S'data saved as csv to c:\\Charlie\\charlie\\data\\csv\\4440_switching.csv'
tp398
a(S'2015-08-10 13:39:56.554000'
g295
tp399
a(S'2015-08-10 13:39:56.565000'
g297
tp400
a(S'2015-08-10 13:39:56.567000'
S'data saved as csv to c:\\Charlie\\charlie\\data\\csv\\4440_switching.csv'
tp401
a(S'2015-08-10 13:39:58.621000'
g295
tp402
a(S'2015-08-10 13:39:58.634000'
g297
tp403
a(S'2015-08-10 13:39:58.636000'
S'data saved as csv to c:\\Charlie\\charlie\\data\\csv\\4440_switching.csv'
tp404
a(S'2015-08-10 13:39:59.901000'
g295
tp405
a(S'2015-08-10 13:39:59.914000'
g297
tp406
a(S'2015-08-10 13:39:59.918000'
S'data saved as csv to c:\\Charlie\\charlie\\data\\csv\\4440_switching.csv'
tp407
a(S'2015-08-10 13:40:02.276000'
g295
tp408
a(S'2015-08-10 13:40:02.288000'
g297
tp409
a(S'2015-08-10 13:40:02.293000'
S'data saved as csv to c:\\Charlie\\charlie\\data\\csv\\4440_switching.csv'
tp410
a(S'2015-08-10 13:40:03.318000'
g295
tp411
a(S'2015-08-10 13:40:03.331000'
g297
tp412
a(S'2015-08-10 13:40:03.335000'
S'data saved as csv to c:\\Charlie\\charlie\\data\\csv\\4440_switching.csv'
tp413
a(S'2015-08-10 13:40:04.810000'
g295
tp414
a(S'2015-08-10 13:40:04.823000'
g297
tp415
a(S'2015-08-10 13:40:04.828000'
S'data saved as csv to c:\\Charlie\\charlie\\data\\csv\\4440_switching.csv'
tp416
a(S'2015-08-10 13:40:05.884000'
g295
tp417
a(S'2015-08-10 13:40:05.897000'
g297
tp418
a(S'2015-08-10 13:40:05.901000'
S'data saved as csv to c:\\Charlie\\charlie\\data\\csv\\4440_switching.csv'
tp419
a(S'2015-08-10 13:40:07.037000'
g295
tp420
a(S'2015-08-10 13:40:07.049000'
g297
tp421
a(S'2015-08-10 13:40:07.054000'
S'data saved as csv to c:\\Charlie\\charlie\\data\\csv\\4440_switching.csv'
tp422
a(S'2015-08-10 13:40:08.280000'
g295
tp423
a(S'2015-08-10 13:40:08.293000'
g297
tp424
a(S'2015-08-10 13:40:08.295000'
S'data saved as csv to c:\\Charlie\\charlie\\data\\csv\\4440_switching.csv'
tp425
a(S'2015-08-10 13:40:09.950000'
g295
tp426
a(S'2015-08-10 13:40:09.962000'
g297
tp427
a(S'2015-08-10 13:40:09.967000'
S'data saved as csv to c:\\Charlie\\charlie\\data\\csv\\4440_switching.csv'
tp428
a(S'2015-08-10 13:40:11.173000'
g295
tp429
a(S'2015-08-10 13:40:11.187000'
g297
tp430
a(S'2015-08-10 13:40:11.192000'
S'data saved as csv to c:\\Charlie\\charlie\\data\\csv\\4440_switching.csv'
tp431
a(S'2015-08-10 13:40:13.229000'
g295
tp432
a(S'2015-08-10 13:40:13.242000'
g297
tp433
a(S'2015-08-10 13:40:13.245000'
S'data saved as csv to c:\\Charlie\\charlie\\data\\csv\\4440_switching.csv'
tp434
a(S'2015-08-10 13:40:14.620000'
g295
tp435
a(S'2015-08-10 13:40:14.629000'
g297
tp436
a(S'2015-08-10 13:40:14.631000'
S'data saved as csv to c:\\Charlie\\charlie\\data\\csv\\4440_switching.csv'
tp437
a(S'2015-08-10 13:40:16.276000'
g295
tp438
a(S'2015-08-10 13:40:16.289000'
g297
tp439
a(S'2015-08-10 13:40:16.293000'
S'data saved as csv to c:\\Charlie\\charlie\\data\\csv\\4440_switching.csv'
tp440
a(S'2015-08-10 13:40:17.470000'
g295
tp441
a(S'2015-08-10 13:40:17.484000'
g297
tp442
a(S'2015-08-10 13:40:17.488000'
S'data saved as csv to c:\\Charlie\\charlie\\data\\csv\\4440_switching.csv'
tp443
a(S'2015-08-10 13:40:19.506000'
g295
tp444
a(S'2015-08-10 13:40:19.519000'
g297
tp445
a(S'2015-08-10 13:40:19.524000'
S'data saved as csv to c:\\Charlie\\charlie\\data\\csv\\4440_switching.csv'
tp446
a(S'2015-08-10 13:40:21.280000'
g295
tp447
a(S'2015-08-10 13:40:21.288000'
g297
tp448
a(S'2015-08-10 13:40:21.291000'
S'data saved as csv to c:\\Charlie\\charlie\\data\\csv\\4440_switching.csv'
tp449
a(S'2015-08-10 13:40:23.296000'
g295
tp450
a(S'2015-08-10 13:40:23.310000'
g297
tp451
a(S'2015-08-10 13:40:23.315000'
S'data saved as csv to c:\\Charlie\\charlie\\data\\csv\\4440_switching.csv'
tp452
a(S'2015-08-10 13:40:24.571000'
g295
tp453
a(S'2015-08-10 13:40:24.583000'
g297
tp454
a(S'2015-08-10 13:40:24.585000'
S'data saved as csv to c:\\Charlie\\charlie\\data\\csv\\4440_switching.csv'
tp455
a(S'2015-08-10 13:40:27.261000'
g295
tp456
a(S'2015-08-10 13:40:27.275000'
g297
tp457
a(S'2015-08-10 13:40:27.280000'
S'data saved as csv to c:\\Charlie\\charlie\\data\\csv\\4440_switching.csv'
tp458
a(S'2015-08-10 13:40:29.005000'
g295
tp459
a(S'2015-08-10 13:40:29.018000'
g297
tp460
a(S'2015-08-10 13:40:29.022000'
S'data saved as csv to c:\\Charlie\\charlie\\data\\csv\\4440_switching.csv'
tp461
a(S'2015-08-10 13:40:32.018000'
g295
tp462
a(S'2015-08-10 13:40:32.032000'
g297
tp463
a(S'2015-08-10 13:40:32.037000'
S'data saved as csv to c:\\Charlie\\charlie\\data\\csv\\4440_switching.csv'
tp464
a(S'2015-08-10 13:40:33.563000'
g295
tp465
a(S'2015-08-10 13:40:33.576000'
g297
tp466
a(S'2015-08-10 13:40:33.581000'
S'data saved as csv to c:\\Charlie\\charlie\\data\\csv\\4440_switching.csv'
tp467
a(S'2015-08-10 13:40:35.947000'
g295
tp468
a(S'2015-08-10 13:40:35.957000'
g297
tp469
a(S'2015-08-10 13:40:35.959000'
S'data saved as csv to c:\\Charlie\\charlie\\data\\csv\\4440_switching.csv'
tp470
a(S'2015-08-10 13:40:38.935000'
g295
tp471
a(S'2015-08-10 13:40:38.949000'
g297
tp472
a(S'2015-08-10 13:40:38.953000'
S'data saved as csv to c:\\Charlie\\charlie\\data\\csv\\4440_switching.csv'
tp473
a(S'2015-08-10 13:40:41.508000'
g295
tp474
a(S'2015-08-10 13:40:41.521000'
g297
tp475
a(S'2015-08-10 13:40:41.526000'
S'data saved as csv to c:\\Charlie\\charlie\\data\\csv\\4440_switching.csv'
tp476
a(S'2015-08-10 13:40:42.923000'
g295
tp477
a(S'2015-08-10 13:40:42.936000'
g297
tp478
a(S'2015-08-10 13:40:42.941000'
S'data saved as csv to c:\\Charlie\\charlie\\data\\csv\\4440_switching.csv'
tp479
a(S'2015-08-10 13:40:45.147000'
g295
tp480
a(S'2015-08-10 13:40:45.160000'
g297
tp481
a(S'2015-08-10 13:40:45.163000'
S'data saved as csv to c:\\Charlie\\charlie\\data\\csv\\4440_switching.csv'
tp482
a(S'2015-08-10 13:40:46.468000'
g295
tp483
a(S'2015-08-10 13:40:46.481000'
g297
tp484
a(S'2015-08-10 13:40:46.483000'
S'data saved as csv to c:\\Charlie\\charlie\\data\\csv\\4440_switching.csv'
tp485
a(S'2015-08-10 13:40:48.379000'
g295
tp486
a(S'2015-08-10 13:40:48.393000'
g297
tp487
a(S'2015-08-10 13:40:48.398000'
S'data saved as csv to c:\\Charlie\\charlie\\data\\csv\\4440_switching.csv'
tp488
a(S'2015-08-10 13:40:50.765000'
g295
tp489
a(S'2015-08-10 13:40:50.775000'
g297
tp490
a(S'2015-08-10 13:40:50.778000'
S'data saved as csv to c:\\Charlie\\charlie\\data\\csv\\4440_switching.csv'
tp491
a(S'2015-08-10 13:40:54.814000'
g295
tp492
a(S'2015-08-10 13:40:54.828000'
g297
tp493
a(S'2015-08-10 13:40:54.833000'
S'data saved as csv to c:\\Charlie\\charlie\\data\\csv\\4440_switching.csv'
tp494
a(S'2015-08-10 13:40:55.691000'
g295
tp495
a(S'2015-08-10 13:40:55.704000'
g297
tp496
a(S'2015-08-10 13:40:55.709000'
S'data saved as csv to c:\\Charlie\\charlie\\data\\csv\\4440_switching.csv'
tp497
a(S'2015-08-10 13:40:57.396000'
g295
tp498
a(S'2015-08-10 13:40:57.405000'
g297
tp499
a(S'2015-08-10 13:40:57.408000'
S'data saved as csv to c:\\Charlie\\charlie\\data\\csv\\4440_switching.csv'
tp500
a(S'2015-08-10 13:40:58.833000'
g295
tp501
a(S'2015-08-10 13:40:58.847000'
g297
tp502
a(S'2015-08-10 13:40:58.853000'
S'data saved as csv to c:\\Charlie\\charlie\\data\\csv\\4440_switching.csv'
tp503
a(S'2015-08-10 13:41:00.099000'
g295
tp504
a(S'2015-08-10 13:41:00.107000'
g297
tp505
a(S'2015-08-10 13:41:00.110000'
S'data saved as csv to c:\\Charlie\\charlie\\data\\csv\\4440_switching.csv'
tp506
a(S'2015-08-10 13:41:01.355000'
g295
tp507
a(S'2015-08-10 13:41:01.365000'
g297
tp508
a(S'2015-08-10 13:41:01.368000'
S'data saved as csv to c:\\Charlie\\charlie\\data\\csv\\4440_switching.csv'
tp509
a(S'2015-08-10 13:41:02.712000'
g295
tp510
a(S'2015-08-10 13:41:02.726000'
g297
tp511
a(S'2015-08-10 13:41:02.731000'
S'data saved as csv to c:\\Charlie\\charlie\\data\\csv\\4440_switching.csv'
tp512
a(S'2015-08-10 13:41:04.008000'
g295
tp513
a(S'2015-08-10 13:41:04.021000'
g297
tp514
a(S'2015-08-10 13:41:04.027000'
S'data saved as csv to c:\\Charlie\\charlie\\data\\csv\\4440_switching.csv'
tp515
a(S'2015-08-10 13:41:05.602000'
g295
tp516
a(S'2015-08-10 13:41:05.616000'
g297
tp517
a(S'2015-08-10 13:41:05.620000'
S'data saved as csv to c:\\Charlie\\charlie\\data\\csv\\4440_switching.csv'
tp518
a(S'2015-08-10 13:41:07.266000'
g295
tp519
a(S'2015-08-10 13:41:07.275000'
g297
tp520
a(S'2015-08-10 13:41:07.278000'
S'data saved as csv to c:\\Charlie\\charlie\\data\\csv\\4440_switching.csv'
tp521
a(S'2015-08-10 13:41:08.564000'
g295
tp522
a(S'2015-08-10 13:41:08.577000'
g297
tp523
a(S'2015-08-10 13:41:08.582000'
S'data saved as csv to c:\\Charlie\\charlie\\data\\csv\\4440_switching.csv'
tp524
a(S'2015-08-10 13:41:10.840000'
g295
tp525
a(S'2015-08-10 13:41:10.854000'
g297
tp526
a(S'2015-08-10 13:41:10.859000'
S'data saved as csv to c:\\Charlie\\charlie\\data\\csv\\4440_switching.csv'
tp527
a(S'2015-08-10 13:41:12.605000'
g295
tp528
a(S'2015-08-10 13:41:12.615000'
g297
tp529
a(S'2015-08-10 13:41:12.618000'
S'data saved as csv to c:\\Charlie\\charlie\\data\\csv\\4440_switching.csv'
tp530
a(S'2015-08-10 13:41:15.854000'
g295
tp531
a(S'2015-08-10 13:41:15.867000'
g297
tp532
a(S'2015-08-10 13:41:15.873000'
S'data saved as csv to c:\\Charlie\\charlie\\data\\csv\\4440_switching.csv'
tp533
a(S'2015-08-10 13:41:17.759000'
g295
tp534
a(S'2015-08-10 13:41:17.771000'
g297
tp535
a(S'2015-08-10 13:41:17.774000'
S'data saved as csv to c:\\Charlie\\charlie\\data\\csv\\4440_switching.csv'
tp536
a(S'2015-08-10 13:41:18.899000'
g295
tp537
a(S'2015-08-10 13:41:18.910000'
g297
tp538
a(S'2015-08-10 13:41:18.913000'
S'data saved as csv to c:\\Charlie\\charlie\\data\\csv\\4440_switching.csv'
tp539
a(S'2015-08-10 13:41:20.587000'
g295
tp540
a(S'2015-08-10 13:41:20.601000'
g297
tp541
a(S'2015-08-10 13:41:20.606000'
S'data saved as csv to c:\\Charlie\\charlie\\data\\csv\\4440_switching.csv'
tp542
a(S'2015-08-10 13:41:22.053000'
g295
tp543
a(S'2015-08-10 13:41:22.063000'
g297
tp544
a(S'2015-08-10 13:41:22.066000'
S'data saved as csv to c:\\Charlie\\charlie\\data\\csv\\4440_switching.csv'
tp545
a(S'2015-08-10 13:41:23.502000'
g295
tp546
a(S'2015-08-10 13:41:23.515000'
g297
tp547
a(S'2015-08-10 13:41:23.521000'
S'data saved as csv to c:\\Charlie\\charlie\\data\\csv\\4440_switching.csv'
tp548
a(S'2015-08-10 13:41:24.788000'
g295
tp549
a(S'2015-08-10 13:41:24.802000'
g297
tp550
a(S'2015-08-10 13:41:24.807000'
S'data saved as csv to c:\\Charlie\\charlie\\data\\csv\\4440_switching.csv'
tp551
a(S'2015-08-10 13:41:26.324000'
g295
tp552
a(S'2015-08-10 13:41:26.337000'
g297
tp553
a(S'2015-08-10 13:41:26.343000'
S'data saved as csv to c:\\Charlie\\charlie\\data\\csv\\4440_switching.csv'
tp554
a(S'2015-08-10 13:41:28.411000'
g295
tp555
a(S'2015-08-10 13:41:28.422000'
g297
tp556
a(S'2015-08-10 13:41:28.425000'
S'data saved as csv to c:\\Charlie\\charlie\\data\\csv\\4440_switching.csv'
tp557
a(S'2015-08-10 13:41:30.119000'
g295
tp558
a(S'2015-08-10 13:41:30.130000'
g297
tp559
a(S'2015-08-10 13:41:30.133000'
S'data saved as csv to c:\\Charlie\\charlie\\data\\csv\\4440_switching.csv'
tp560
a(S'2015-08-10 13:41:31.542000'
g295
tp561
a(S'2015-08-10 13:41:31.556000'
g297
tp562
a(S'2015-08-10 13:41:31.561000'
S'data saved as csv to c:\\Charlie\\charlie\\data\\csv\\4440_switching.csv'
tp563
a(S'2015-08-10 13:41:33.729000'
g295
tp564
a(S'2015-08-10 13:41:33.744000'
g297
tp565
a(S'2015-08-10 13:41:33.749000'
S'data saved as csv to c:\\Charlie\\charlie\\data\\csv\\4440_switching.csv'
tp566
a(S'2015-08-10 13:41:36.707000'
g295
tp567
a(S'2015-08-10 13:41:36.722000'
g297
tp568
a(S'2015-08-10 13:41:36.727000'
S'data saved as csv to c:\\Charlie\\charlie\\data\\csv\\4440_switching.csv'
tp569
a(S'2015-08-10 13:41:38.622000'
g295
tp570
a(S'2015-08-10 13:41:38.636000'
g297
tp571
a(S'2015-08-10 13:41:38.642000'
S'data saved as csv to c:\\Charlie\\charlie\\data\\csv\\4440_switching.csv'
tp572
a(S'2015-08-10 13:41:39.939000'
g295
tp573
a(S'2015-08-10 13:41:39.953000'
g297
tp574
a(S'2015-08-10 13:41:39.959000'
S'data saved as csv to c:\\Charlie\\charlie\\data\\csv\\4440_switching.csv'
tp575
a(S'2015-08-10 13:41:41.176000'
g295
tp576
a(S'2015-08-10 13:41:41.190000'
g297
tp577
a(S'2015-08-10 13:41:41.195000'
S'data saved as csv to c:\\Charlie\\charlie\\data\\csv\\4440_switching.csv'
tp578
a(S'2015-08-10 13:41:42.432000'
g295
tp579
a(S'2015-08-10 13:41:42.447000'
g297
tp580
a(S'2015-08-10 13:41:42.452000'
S'data saved as csv to c:\\Charlie\\charlie\\data\\csv\\4440_switching.csv'
tp581
a(S'2015-08-10 13:41:43.839000'
g295
tp582
a(S'2015-08-10 13:41:43.853000'
g297
tp583
a(S'2015-08-10 13:41:43.859000'
S'data saved as csv to c:\\Charlie\\charlie\\data\\csv\\4440_switching.csv'
tp584
a(S'2015-08-10 13:41:45.176000'
g295
tp585
a(S'2015-08-10 13:41:45.189000'
g297
tp586
a(S'2015-08-10 13:41:45.192000'
S'data saved as csv to c:\\Charlie\\charlie\\data\\csv\\4440_switching.csv'
tp587
a(S'2015-08-10 13:41:46.827000'
g295
tp588
a(S'2015-08-10 13:41:46.839000'
g297
tp589
a(S'2015-08-10 13:41:46.842000'
S'data saved as csv to c:\\Charlie\\charlie\\data\\csv\\4440_switching.csv'
tp590
a(S'2015-08-10 13:41:48.187000'
g295
tp591
a(S'2015-08-10 13:41:48.202000'
g297
tp592
a(S'2015-08-10 13:41:48.207000'
S'data saved as csv to c:\\Charlie\\charlie\\data\\csv\\4440_switching.csv'
tp593
a(S'2015-08-10 13:41:49.404000'
g295
tp594
a(S'2015-08-10 13:41:49.418000'
g297
tp595
a(S'2015-08-10 13:41:49.421000'
S'data saved as csv to c:\\Charlie\\charlie\\data\\csv\\4440_switching.csv'
tp596
a(S'2015-08-10 13:41:51.797000'
g295
tp597
a(S'2015-08-10 13:41:51.811000'
g297
tp598
a(S'2015-08-10 13:41:51.816000'
S'data saved as csv to c:\\Charlie\\charlie\\data\\csv\\4440_switching.csv'
tp599
a(S'2015-08-10 13:41:52.831000'
g295
tp600
a(S'2015-08-10 13:41:52.842000'
g297
tp601
a(S'2015-08-10 13:41:52.845000'
S'data saved as csv to c:\\Charlie\\charlie\\data\\csv\\4440_switching.csv'
tp602
a(S'2015-08-10 13:41:53.870000'
g295
tp603
a(S'2015-08-10 13:41:53.884000'
g297
tp604
a(S'2015-08-10 13:41:53.888000'
S'data saved as csv to c:\\Charlie\\charlie\\data\\csv\\4440_switching.csv'
tp605
a(S'2015-08-10 13:41:54.893000'
g295
tp606
a(S'2015-08-10 13:41:54.907000'
g297
tp607
a(S'2015-08-10 13:41:54.910000'
S'data saved as csv to c:\\Charlie\\charlie\\data\\csv\\4440_switching.csv'
tp608
a(S'2015-08-10 13:41:55.925000'
g295
tp609
a(S'2015-08-10 13:41:55.940000'
g297
tp610
a(S'2015-08-10 13:41:55.945000'
S'data saved as csv to c:\\Charlie\\charlie\\data\\csv\\4440_switching.csv'
tp611
a(S'2015-08-10 13:41:56.903000'
g295
tp612
a(S'2015-08-10 13:41:56.917000'
g297
tp613
a(S'2015-08-10 13:41:56.920000'
S'data saved as csv to c:\\Charlie\\charlie\\data\\csv\\4440_switching.csv'
tp614
a(S'2015-08-10 13:41:57.847000'
g295
tp615
a(S'2015-08-10 13:41:57.852000'
g297
tp616
a(S'2015-08-10 13:41:57.855000'
S'data saved as csv to c:\\Charlie\\charlie\\data\\csv\\4440_switching.csv'
tp617
a(S'2015-08-10 13:41:58.711000'
g295
tp618
a(S'2015-08-10 13:41:58.725000'
g297
tp619
a(S'2015-08-10 13:41:58.731000'
S'data saved as csv to c:\\Charlie\\charlie\\data\\csv\\4440_switching.csv'
tp620
a(S'2015-08-10 13:41:59.889000'
g295
tp621
a(S'2015-08-10 13:41:59.903000'
g297
tp622
a(S'2015-08-10 13:41:59.909000'
S'data saved as csv to c:\\Charlie\\charlie\\data\\csv\\4440_switching.csv'
tp623
a(S'2015-08-10 13:42:01.096000'
g295
tp624
a(S'2015-08-10 13:42:01.110000'
g297
tp625
a(S'2015-08-10 13:42:01.116000'
S'data saved as csv to c:\\Charlie\\charlie\\data\\csv\\4440_switching.csv'
tp626
a(S'2015-08-10 13:42:19.082000'
g295
tp627
a(S'2015-08-10 13:42:19.092000'
g297
tp628
a(S'2015-08-10 13:42:19.095000'
S'data saved as csv to c:\\Charlie\\charlie\\data\\csv\\4440_switching.csv'
tp629
a(S'2015-08-10 13:42:20.741000'
g295
tp630
a(S'2015-08-10 13:42:20.755000'
g297
tp631
a(S'2015-08-10 13:42:20.761000'
S'data saved as csv to c:\\Charlie\\charlie\\data\\csv\\4440_switching.csv'
tp632
a(S'2015-08-10 13:42:22.199000'
g295
tp633
a(S'2015-08-10 13:42:22.210000'
g297
tp634
a(S'2015-08-10 13:42:22.213000'
S'data saved as csv to c:\\Charlie\\charlie\\data\\csv\\4440_switching.csv'
tp635
a(S'2015-08-10 13:42:24.029000'
g295
tp636
a(S'2015-08-10 13:42:24.041000'
g297
tp637
a(S'2015-08-10 13:42:24.045000'
S'data saved as csv to c:\\Charlie\\charlie\\data\\csv\\4440_switching.csv'
tp638
a(S'2015-08-10 13:42:25.641000'
g295
tp639
a(S'2015-08-10 13:42:25.655000'
g297
tp640
a(S'2015-08-10 13:42:25.658000'
S'data saved as csv to c:\\Charlie\\charlie\\data\\csv\\4440_switching.csv'
tp641
a(S'2015-08-10 13:42:26.535000'
g295
tp642
a(S'2015-08-10 13:42:26.549000'
g297
tp643
a(S'2015-08-10 13:42:26.556000'
S'data saved as csv to c:\\Charlie\\charlie\\data\\csv\\4440_switching.csv'
tp644
a(S'2015-08-10 13:42:27.751000'
g295
tp645
a(S'2015-08-10 13:42:27.766000'
g297
tp646
a(S'2015-08-10 13:42:27.772000'
S'data saved as csv to c:\\Charlie\\charlie\\data\\csv\\4440_switching.csv'
tp647
a(S'2015-08-10 13:42:29.279000'
g295
tp648
a(S'2015-08-10 13:42:29.294000'
g297
tp649
a(S'2015-08-10 13:42:29.300000'
S'data saved as csv to c:\\Charlie\\charlie\\data\\csv\\4440_switching.csv'
tp650
a(S'2015-08-10 13:42:31.578000'
g295
tp651
a(S'2015-08-10 13:42:31.592000'
g297
tp652
a(S'2015-08-10 13:42:31.596000'
S'data saved as csv to c:\\Charlie\\charlie\\data\\csv\\4440_switching.csv'
tp653
a(S'2015-08-10 13:42:33.253000'
g295
tp654
a(S'2015-08-10 13:42:33.268000'
g297
tp655
a(S'2015-08-10 13:42:33.274000'
S'data saved as csv to c:\\Charlie\\charlie\\data\\csv\\4440_switching.csv'
tp656
a(S'2015-08-10 13:42:35.059000'
g295
tp657
a(S'2015-08-10 13:42:35.073000'
g297
tp658
a(S'2015-08-10 13:42:35.077000'
S'data saved as csv to c:\\Charlie\\charlie\\data\\csv\\4440_switching.csv'
tp659
a(S'2015-08-10 13:42:36.923000'
g295
tp660
a(S'2015-08-10 13:42:36.936000'
g297
tp661
a(S'2015-08-10 13:42:36.939000'
S'data saved as csv to c:\\Charlie\\charlie\\data\\csv\\4440_switching.csv'
tp662
a(S'2015-08-10 13:42:38.724000'
g295
tp663
a(S'2015-08-10 13:42:38.737000'
g297
tp664
a(S'2015-08-10 13:42:38.739000'
S'data saved as csv to c:\\Charlie\\charlie\\data\\csv\\4440_switching.csv'
tp665
a(S'2015-08-10 13:42:40.265000'
g295
tp666
a(S'2015-08-10 13:42:40.275000'
g297
tp667
a(S'2015-08-10 13:42:40.279000'
S'data saved as csv to c:\\Charlie\\charlie\\data\\csv\\4440_switching.csv'
tp668
a(S'2015-08-10 13:42:42.986000'
g295
tp669
a(S'2015-08-10 13:42:42.998000'
g297
tp670
a(S'2015-08-10 13:42:43.001000'
S'data saved as csv to c:\\Charlie\\charlie\\data\\csv\\4440_switching.csv'
tp671
a(S'2015-08-10 13:42:44.598000'
g295
tp672
a(S'2015-08-10 13:42:44.612000'
g297
tp673
a(S'2015-08-10 13:42:44.616000'
S'data saved as csv to c:\\Charlie\\charlie\\data\\csv\\4440_switching.csv'
tp674
a(S'2015-08-10 13:42:46.443000'
g295
tp675
a(S'2015-08-10 13:42:46.457000'
g297
tp676
a(S'2015-08-10 13:42:46.463000'
S'data saved as csv to c:\\Charlie\\charlie\\data\\csv\\4440_switching.csv'
tp677
a(S'2015-08-10 13:42:48.060000'
g295
tp678
a(S'2015-08-10 13:42:48.070000'
g297
tp679
a(S'2015-08-10 13:42:48.073000'
S'data saved as csv to c:\\Charlie\\charlie\\data\\csv\\4440_switching.csv'
tp680
a(S'2015-08-10 13:42:49.729000'
g295
tp681
a(S'2015-08-10 13:42:49.744000'
g297
tp682
a(S'2015-08-10 13:42:49.746000'
S'data saved as csv to c:\\Charlie\\charlie\\data\\csv\\4440_switching.csv'
tp683
a(S'2015-08-10 13:42:51.563000'
g295
tp684
a(S'2015-08-10 13:42:51.576000'
g297
tp685
a(S'2015-08-10 13:42:51.580000'
S'data saved as csv to c:\\Charlie\\charlie\\data\\csv\\4440_switching.csv'
tp686
a(S'2015-08-10 13:42:52.955000'
g295
tp687
a(S'2015-08-10 13:42:52.970000'
g297
tp688
a(S'2015-08-10 13:42:52.977000'
S'data saved as csv to c:\\Charlie\\charlie\\data\\csv\\4440_switching.csv'
tp689
a(S'2015-08-10 13:42:54.774000'
g295
tp690
a(S'2015-08-10 13:42:54.787000'
g297
tp691
a(S'2015-08-10 13:42:54.790000'
S'data saved as csv to c:\\Charlie\\charlie\\data\\csv\\4440_switching.csv'
tp692
a(S'2015-08-10 13:42:57.258000'
g295
tp693
a(S'2015-08-10 13:42:57.272000'
g297
tp694
a(S'2015-08-10 13:42:57.276000'
S'data saved as csv to c:\\Charlie\\charlie\\data\\csv\\4440_switching.csv'
tp695
a(S'2015-08-10 13:43:00.462000'
g295
tp696
a(S'2015-08-10 13:43:00.477000'
g297
tp697
a(S'2015-08-10 13:43:00.483000'
S'data saved as csv to c:\\Charlie\\charlie\\data\\csv\\4440_switching.csv'
tp698
a(S'2015-08-10 13:43:02.540000'
g295
tp699
a(S'2015-08-10 13:43:02.554000'
g297
tp700
a(S'2015-08-10 13:43:02.557000'
S'data saved as csv to c:\\Charlie\\charlie\\data\\csv\\4440_switching.csv'
tp701
a(S'2015-08-10 13:43:04.734000'
g295
tp702
a(S'2015-08-10 13:43:04.749000'
g297
tp703
a(S'2015-08-10 13:43:04.756000'
S'data saved as csv to c:\\Charlie\\charlie\\data\\csv\\4440_switching.csv'
tp704
a(S'2015-08-10 13:43:05.964000'
g295
tp705
a(S'2015-08-10 13:43:05.975000'
g297
tp706
a(S'2015-08-10 13:43:05.978000'
S'data saved as csv to c:\\Charlie\\charlie\\data\\csv\\4440_switching.csv'
tp707
a(S'2015-08-10 13:43:07.065000'
g295
tp708
a(S'2015-08-10 13:43:07.080000'
g297
tp709
a(S'2015-08-10 13:43:07.084000'
S'data saved as csv to c:\\Charlie\\charlie\\data\\csv\\4440_switching.csv'
tp710
a(S'2015-08-10 13:43:08.601000'
g295
tp711
a(S'2015-08-10 13:43:08.614000'
g297
tp712
a(S'2015-08-10 13:43:08.618000'
S'data saved as csv to c:\\Charlie\\charlie\\data\\csv\\4440_switching.csv'
tp713
a(S'2015-08-10 13:43:10.143000'
g295
tp714
a(S'2015-08-10 13:43:10.152000'
g297
tp715
a(S'2015-08-10 13:43:10.155000'
S'data saved as csv to c:\\Charlie\\charlie\\data\\csv\\4440_switching.csv'
tp716
a(S'2015-08-10 13:43:13.023000'
g295
tp717
a(S'2015-08-10 13:43:13.038000'
g297
tp718
a(S'2015-08-10 13:43:13.045000'
S'data saved as csv to c:\\Charlie\\charlie\\data\\csv\\4440_switching.csv'
tp719
a(S'2015-08-10 13:43:14.143000'
g295
tp720
a(S'2015-08-10 13:43:14.158000'
g297
tp721
a(S'2015-08-10 13:43:14.163000'
S'data saved as csv to c:\\Charlie\\charlie\\data\\csv\\4440_switching.csv'
tp722
a(S'2015-08-10 13:43:15.419000'
g295
tp723
a(S'2015-08-10 13:43:15.433000'
g297
tp724
a(S'2015-08-10 13:43:15.440000'
S'data saved as csv to c:\\Charlie\\charlie\\data\\csv\\4440_switching.csv'
tp725
a(S'2015-08-10 13:43:17.188000'
g295
tp726
a(S'2015-08-10 13:43:17.198000'
g297
tp727
a(S'2015-08-10 13:43:17.201000'
S'data saved as csv to c:\\Charlie\\charlie\\data\\csv\\4440_switching.csv'
tp728
a(S'2015-08-10 13:43:19.589000'
g295
tp729
a(S'2015-08-10 13:43:19.599000'
g297
tp730
a(S'2015-08-10 13:43:19.603000'
S'data saved as csv to c:\\Charlie\\charlie\\data\\csv\\4440_switching.csv'
tp731
a(S'2015-08-10 13:43:22.160000'
g295
tp732
a(S'2015-08-10 13:43:22.174000'
g297
tp733
a(S'2015-08-10 13:43:22.177000'
S'data saved as csv to c:\\Charlie\\charlie\\data\\csv\\4440_switching.csv'
tp734
a(S'2015-08-10 13:43:23.453000'
g295
tp735
a(S'2015-08-10 13:43:23.465000'
g297
tp736
a(S'2015-08-10 13:43:23.468000'
S'data saved as csv to c:\\Charlie\\charlie\\data\\csv\\4440_switching.csv'
tp737
a(S'2015-08-10 13:43:25.795000'
g295
tp738
a(S'2015-08-10 13:43:25.806000'
g297
tp739
a(S'2015-08-10 13:43:25.810000'
S'data saved as csv to c:\\Charlie\\charlie\\data\\csv\\4440_switching.csv'
tp740
a(S'2015-08-10 13:43:26.937000'
g295
tp741
a(S'2015-08-10 13:43:26.951000'
g297
tp742
a(S'2015-08-10 13:43:26.958000'
S'data saved as csv to c:\\Charlie\\charlie\\data\\csv\\4440_switching.csv'
tp743
a(S'2015-08-10 13:43:28.106000'
g295
tp744
a(S'2015-08-10 13:43:28.121000'
g297
tp745
a(S'2015-08-10 13:43:28.128000'
S'data saved as csv to c:\\Charlie\\charlie\\data\\csv\\4440_switching.csv'
tp746
a(S'2015-08-10 13:43:29.246000'
g295
tp747
a(S'2015-08-10 13:43:29.257000'
g297
tp748
a(S'2015-08-10 13:43:29.260000'
S'data saved as csv to c:\\Charlie\\charlie\\data\\csv\\4440_switching.csv'
tp749
a(S'2015-08-10 13:43:30.417000'
g295
tp750
a(S'2015-08-10 13:43:30.432000'
g297
tp751
a(S'2015-08-10 13:43:30.439000'
S'data saved as csv to c:\\Charlie\\charlie\\data\\csv\\4440_switching.csv'
tp752
a(S'2015-08-10 13:43:31.627000'
g295
tp753
a(S'2015-08-10 13:43:31.643000'
g297
tp754
a(S'2015-08-10 13:43:31.649000'
S'data saved as csv to c:\\Charlie\\charlie\\data\\csv\\4440_switching.csv'
tp755
a(S'2015-08-10 13:43:32.837000'
g295
tp756
a(S'2015-08-10 13:43:32.852000'
g297
tp757
a(S'2015-08-10 13:43:32.855000'
S'data saved as csv to c:\\Charlie\\charlie\\data\\csv\\4440_switching.csv'
tp758
a(S'2015-08-10 13:43:34.051000'
g295
tp759
a(S'2015-08-10 13:43:34.062000'
g297
tp760
a(S'2015-08-10 13:43:34.066000'
S'data saved as csv to c:\\Charlie\\charlie\\data\\csv\\4440_switching.csv'
tp761
a(S'2015-08-10 13:43:35.313000'
g295
tp762
a(S'2015-08-10 13:43:35.328000'
g297
tp763
a(S'2015-08-10 13:43:35.335000'
S'data saved as csv to c:\\Charlie\\charlie\\data\\csv\\4440_switching.csv'
tp764
a(S'2015-08-10 13:43:36.593000'
g295
tp765
a(S'2015-08-10 13:43:36.605000'
g297
tp766
a(S'2015-08-10 13:43:36.609000'
S'data saved as csv to c:\\Charlie\\charlie\\data\\csv\\4440_switching.csv'
tp767
a(S'2015-08-10 13:43:37.807000'
g295
tp768
a(S'2015-08-10 13:43:37.823000'
g297
tp769
a(S'2015-08-10 13:43:37.830000'
S'data saved as csv to c:\\Charlie\\charlie\\data\\csv\\4440_switching.csv'
tp770
a(S'2015-08-10 13:43:39.078000'
g295
tp771
a(S'2015-08-10 13:43:39.092000'
g297
tp772
a(S'2015-08-10 13:43:39.095000'
S'data saved as csv to c:\\Charlie\\charlie\\data\\csv\\4440_switching.csv'
tp773
a(S'2015-08-10 13:43:40.281000'
g295
tp774
a(S'2015-08-10 13:43:40.294000'
g297
tp775
a(S'2015-08-10 13:43:40.297000'
S'data saved as csv to c:\\Charlie\\charlie\\data\\csv\\4440_switching.csv'
tp776
a(S'2015-08-10 13:43:41.515000'
g295
tp777
a(S'2015-08-10 13:43:41.527000'
g297
tp778
a(S'2015-08-10 13:43:41.530000'
S'data saved as csv to c:\\Charlie\\charlie\\data\\csv\\4440_switching.csv'
tp779
a(S'2015-08-10 13:43:42.748000'
g295
tp780
a(S'2015-08-10 13:43:42.758000'
g297
tp781
a(S'2015-08-10 13:43:42.761000'
S'data saved as csv to c:\\Charlie\\charlie\\data\\csv\\4440_switching.csv'
tp782
a(S'2015-08-10 13:43:44.509000'
g295
tp783
a(S'2015-08-10 13:43:44.522000'
g297
tp784
a(S'2015-08-10 13:43:44.525000'
S'data saved as csv to c:\\Charlie\\charlie\\data\\csv\\4440_switching.csv'
tp785
a(S'2015-08-10 13:43:45.883000'
g295
tp786
a(S'2015-08-10 13:43:45.898000'
g297
tp787
a(S'2015-08-10 13:43:45.902000'
S'data saved as csv to c:\\Charlie\\charlie\\data\\csv\\4440_switching.csv'
tp788
a(S'2015-08-10 13:43:48.091000'
g295
tp789
a(S'2015-08-10 13:43:48.106000'
g297
tp790
a(S'2015-08-10 13:43:48.113000'
S'data saved as csv to c:\\Charlie\\charlie\\data\\csv\\4440_switching.csv'
tp791
a(S'2015-08-10 13:43:49.441000'
g295
tp792
a(S'2015-08-10 13:43:49.457000'
g297
tp793
a(S'2015-08-10 13:43:49.464000'
S'data saved as csv to c:\\Charlie\\charlie\\data\\csv\\4440_switching.csv'
tp794
a(S'2015-08-10 13:43:50.652000'
g295
tp795
a(S'2015-08-10 13:43:50.668000'
g297
tp796
a(S'2015-08-10 13:43:50.672000'
S'data saved as csv to c:\\Charlie\\charlie\\data\\csv\\4440_switching.csv'
tp797
a(S'2015-08-10 13:43:51.948000'
g295
tp798
a(S'2015-08-10 13:43:51.962000'
g297
tp799
a(S'2015-08-10 13:43:51.965000'
S'data saved as csv to c:\\Charlie\\charlie\\data\\csv\\4440_switching.csv'
tp800
a(S'2015-08-10 13:43:54.194000'
g295
tp801
a(S'2015-08-10 13:43:54.210000'
g297
tp802
a(S'2015-08-10 13:43:54.213000'
S'data saved as csv to c:\\Charlie\\charlie\\data\\csv\\4440_switching.csv'
tp803
a(S'2015-08-10 13:43:55.609000'
g295
tp804
a(S'2015-08-10 13:43:55.622000'
g297
tp805
a(S'2015-08-10 13:43:55.625000'
S'data saved as csv to c:\\Charlie\\charlie\\data\\csv\\4440_switching.csv'
tp806
a(S'2015-08-10 13:43:56.962000'
g295
tp807
a(S'2015-08-10 13:43:56.974000'
g297
tp808
a(S'2015-08-10 13:43:56.978000'
S'data saved as csv to c:\\Charlie\\charlie\\data\\csv\\4440_switching.csv'
tp809
a(S'2015-08-10 13:43:58.615000'
g295
tp810
a(S'2015-08-10 13:43:58.625000'
g297
tp811
a(S'2015-08-10 13:43:58.629000'
S'data saved as csv to c:\\Charlie\\charlie\\data\\csv\\4440_switching.csv'
tp812
a(S'2015-08-10 13:44:00.407000'
g295
tp813
a(S'2015-08-10 13:44:00.421000'
g297
tp814
a(S'2015-08-10 13:44:00.425000'
S'data saved as csv to c:\\Charlie\\charlie\\data\\csv\\4440_switching.csv'
tp815
a(S'2015-08-10 13:44:02.292000'
g295
tp816
a(S'2015-08-10 13:44:02.308000'
g297
tp817
a(S'2015-08-10 13:44:02.312000'
S'data saved as csv to c:\\Charlie\\charlie\\data\\csv\\4440_switching.csv'
tp818
a(S'2015-08-10 13:44:08.899000'
g295
tp819
a(S'2015-08-10 13:44:08.912000'
g297
tp820
a(S'2015-08-10 13:44:08.915000'
S'data saved as csv to c:\\Charlie\\charlie\\data\\csv\\4440_switching.csv'
tp821
a(S'2015-08-10 13:44:11.720000'
g295
tp822
a(S'2015-08-10 13:44:11.732000'
g297
tp823
a(S'2015-08-10 13:44:11.735000'
S'data saved as csv to c:\\Charlie\\charlie\\data\\csv\\4440_switching.csv'
tp824
a(S'2015-08-10 13:44:15.243000'
g295
tp825
a(S'2015-08-10 13:44:15.259000'
g297
tp826
a(S'2015-08-10 13:44:15.266000'
S'data saved as csv to c:\\Charlie\\charlie\\data\\csv\\4440_switching.csv'
tp827
a(S'2015-08-10 13:44:16.944000'
g295
tp828
a(S'2015-08-10 13:44:16.955000'
g297
tp829
a(S'2015-08-10 13:44:16.959000'
S'data saved as csv to c:\\Charlie\\charlie\\data\\csv\\4440_switching.csv'
tp830
a(S'2015-08-10 13:44:18.486000'
g295
tp831
a(S'2015-08-10 13:44:18.503000'
g297
tp832
a(S'2015-08-10 13:44:18.509000'
S'data saved as csv to c:\\Charlie\\charlie\\data\\csv\\4440_switching.csv'
tp833
a(S'2015-08-10 13:44:21.567000'
g295
tp834
a(S'2015-08-10 13:44:21.577000'
g297
tp835
a(S'2015-08-10 13:44:21.581000'
S'data saved as csv to c:\\Charlie\\charlie\\data\\csv\\4440_switching.csv'
tp836
a(S'2015-08-10 13:44:22.988000'
g295
tp837
a(S'2015-08-10 13:44:23.004000'
g297
tp838
a(S'2015-08-10 13:44:23.010000'
S'data saved as csv to c:\\Charlie\\charlie\\data\\csv\\4440_switching.csv'
tp839
a(S'2015-08-10 13:44:25.188000'
g295
tp840
a(S'2015-08-10 13:44:25.201000'
g297
tp841
a(S'2015-08-10 13:44:25.205000'
S'data saved as csv to c:\\Charlie\\charlie\\data\\csv\\4440_switching.csv'
tp842
a(S'2015-08-10 13:44:26.392000'
g295
tp843
a(S'2015-08-10 13:44:26.404000'
g297
tp844
a(S'2015-08-10 13:44:26.407000'
S'data saved as csv to c:\\Charlie\\charlie\\data\\csv\\4440_switching.csv'
tp845
a(S'2015-08-10 13:44:27.605000'
g295
tp846
a(S'2015-08-10 13:44:27.620000'
g297
tp847
a(S'2015-08-10 13:44:27.628000'
S'data saved as csv to c:\\Charlie\\charlie\\data\\csv\\4440_switching.csv'
tp848
a(S'2015-08-10 13:44:28.845000'
g295
tp849
a(S'2015-08-10 13:44:28.860000'
g297
tp850
a(S'2015-08-10 13:44:28.863000'
S'data saved as csv to c:\\Charlie\\charlie\\data\\csv\\4440_switching.csv'
tp851
a(S'2015-08-10 13:44:30.269000'
g295
tp852
a(S'2015-08-10 13:44:30.278000'
g297
tp853
a(S'2015-08-10 13:44:30.282000'
S'data saved as csv to c:\\Charlie\\charlie\\data\\csv\\4440_switching.csv'
tp854
a(S'2015-08-10 13:44:31.228000'
g295
tp855
a(S'2015-08-10 13:44:31.237000'
g297
tp856
a(S'2015-08-10 13:44:31.241000'
S'data saved as csv to c:\\Charlie\\charlie\\data\\csv\\4440_switching.csv'
tp857
a(S'2015-08-10 13:44:32.848000'
g295
tp858
a(S'2015-08-10 13:44:32.858000'
g297
tp859
a(S'2015-08-10 13:44:32.862000'
S'data saved as csv to c:\\Charlie\\charlie\\data\\csv\\4440_switching.csv'
tp860
a(S'2015-08-10 13:44:33.880000'
g295
tp861
a(S'2015-08-10 13:44:33.895000'
g297
tp862
a(S'2015-08-10 13:44:33.900000'
S'data saved as csv to c:\\Charlie\\charlie\\data\\csv\\4440_switching.csv'
tp863
a(S'2015-08-10 13:44:34.946000'
g295
tp864
a(S'2015-08-10 13:44:34.956000'
g297
tp865
a(S'2015-08-10 13:44:34.960000'
S'data saved as csv to c:\\Charlie\\charlie\\data\\csv\\4440_switching.csv'
tp866
a(S'2015-08-10 13:44:37.109000'
g295
tp867
a(S'2015-08-10 13:44:37.118000'
g297
tp868
a(S'2015-08-10 13:44:37.122000'
S'data saved as csv to c:\\Charlie\\charlie\\data\\csv\\4440_switching.csv'
tp869
a(S'2015-08-10 13:44:38.256000'
g295
tp870
a(S'2015-08-10 13:44:38.262000'
g297
tp871
a(S'2015-08-10 13:44:38.265000'
S'data saved as csv to c:\\Charlie\\charlie\\data\\csv\\4440_switching.csv'
tp872
a(S'2015-08-10 13:44:40.032000'
g295
tp873
a(S'2015-08-10 13:44:40.048000'
g297
tp874
a(S'2015-08-10 13:44:40.051000'
S'data saved as csv to c:\\Charlie\\charlie\\data\\csv\\4440_switching.csv'
tp875
a(S'2015-08-10 13:44:42.259000'
g295
tp876
a(S'2015-08-10 13:44:42.271000'
g297
tp877
a(S'2015-08-10 13:44:42.275000'
S'data saved as csv to c:\\Charlie\\charlie\\data\\csv\\4440_switching.csv'
tp878
a(S'2015-08-10 13:44:43.602000'
g295
tp879
a(S'2015-08-10 13:44:43.618000'
g297
tp880
a(S'2015-08-10 13:44:43.621000'
S'data saved as csv to c:\\Charlie\\charlie\\data\\csv\\4440_switching.csv'
tp881
a(S'2015-08-10 13:44:44.898000'
g295
tp882
a(S'2015-08-10 13:44:44.911000'
g297
tp883
a(S'2015-08-10 13:44:44.915000'
S'data saved as csv to c:\\Charlie\\charlie\\data\\csv\\4440_switching.csv'
tp884
a(S'2015-08-10 13:44:46.763000'
g295
tp885
a(S'2015-08-10 13:44:46.780000'
g297
tp886
a(S'2015-08-10 13:44:46.787000'
S'data saved as csv to c:\\Charlie\\charlie\\data\\csv\\4440_switching.csv'
tp887
a(S'2015-08-10 13:44:48.036000'
g295
tp888
a(S'2015-08-10 13:44:48.053000'
g297
tp889
a(S'2015-08-10 13:44:48.058000'
S'data saved as csv to c:\\Charlie\\charlie\\data\\csv\\4440_switching.csv'
tp890
a(S'2015-08-10 13:44:49.336000'
g295
tp891
a(S'2015-08-10 13:44:49.349000'
g297
tp892
a(S'2015-08-10 13:44:49.352000'
S'data saved as csv to c:\\Charlie\\charlie\\data\\csv\\4440_switching.csv'
tp893
a(S'2015-08-10 13:44:51.542000'
g295
tp894
a(S'2015-08-10 13:44:51.558000'
g297
tp895
a(S'2015-08-10 13:44:51.565000'
S'data saved as csv to c:\\Charlie\\charlie\\data\\csv\\4440_switching.csv'
tp896
a(S'2015-08-10 13:44:53.164000'
g295
tp897
a(S'2015-08-10 13:44:53.180000'
g297
tp898
a(S'2015-08-10 13:44:53.187000'
S'data saved as csv to c:\\Charlie\\charlie\\data\\csv\\4440_switching.csv'
tp899
a(S'2015-08-10 13:44:54.375000'
g295
tp900
a(S'2015-08-10 13:44:54.389000'
g297
tp901
a(S'2015-08-10 13:44:54.392000'
S'data saved as csv to c:\\Charlie\\charlie\\data\\csv\\4440_switching.csv'
tp902
a(S'2015-08-10 13:44:55.939000'
g295
tp903
a(S'2015-08-10 13:44:55.951000'
g297
tp904
a(S'2015-08-10 13:44:55.956000'
S'data saved as csv to c:\\Charlie\\charlie\\data\\csv\\4440_switching.csv'
tp905
a(S'2015-08-10 13:44:57.583000'
g295
tp906
a(S'2015-08-10 13:44:57.598000'
g297
tp907
a(S'2015-08-10 13:44:57.601000'
S'data saved as csv to c:\\Charlie\\charlie\\data\\csv\\4440_switching.csv'
tp908
a(S'2015-08-10 13:44:58.838000'
g295
tp909
a(S'2015-08-10 13:44:58.854000'
g297
tp910
a(S'2015-08-10 13:44:58.859000'
S'data saved as csv to c:\\Charlie\\charlie\\data\\csv\\4440_switching.csv'
tp911
a(S'2015-08-10 13:45:00.446000'
g295
tp912
a(S'2015-08-10 13:45:00.456000'
g297
tp913
a(S'2015-08-10 13:45:00.460000'
S'data saved as csv to c:\\Charlie\\charlie\\data\\csv\\4440_switching.csv'
tp914
a(S'2015-08-10 13:45:01.807000'
g295
tp915
a(S'2015-08-10 13:45:01.824000'
g297
tp916
a(S'2015-08-10 13:45:01.828000'
S'data saved as csv to c:\\Charlie\\charlie\\data\\csv\\4440_switching.csv'
tp917
a(S'2015-08-10 13:45:03.226000'
g295
tp918
a(S'2015-08-10 13:45:03.239000'
g297
tp919
a(S'2015-08-10 13:45:03.243000'
S'data saved as csv to c:\\Charlie\\charlie\\data\\csv\\4440_switching.csv'
tp920
a(S'2015-08-10 13:45:04.711000'
g295
tp921
a(S'2015-08-10 13:45:04.727000'
g297
tp922
a(S'2015-08-10 13:45:04.734000'
S'data saved as csv to c:\\Charlie\\charlie\\data\\csv\\4440_switching.csv'
tp923
a(S'2015-08-10 13:45:05.943000'
g295
tp924
a(S'2015-08-10 13:45:05.959000'
g297
tp925
a(S'2015-08-10 13:45:05.966000'
S'data saved as csv to c:\\Charlie\\charlie\\data\\csv\\4440_switching.csv'
tp926
a(S'2015-08-10 13:45:07.114000'
g295
tp927
a(S'2015-08-10 13:45:07.130000'
g297
tp928
a(S'2015-08-10 13:45:07.136000'
S'data saved as csv to c:\\Charlie\\charlie\\data\\csv\\4440_switching.csv'
tp929
asb.