(icharlie.tools.data
Data
p1
(dp2
S'lang'
p3
S'EN'
p4
sS'control'
p5
(lp6
sS'last_updated'
p7
S'2015-08-20 12:39:32.518000'
p8
sS'last_opened'
p9
cdatetime
datetime
p10
(S'\x07\xdf\x08\x14\x0c\x19"\x081\xa8'
tRp11
sS'proj_id'
p12
S'connectivity'
p13
sS'date_done'
p14
g10
(S"\x07\xdf\x08\x14\x0c' \x07\xe3\x88"
tRp15
sS'test_done'
p16
I01
sS'data'
p17
(lp18
(S'4445'
p19
S'verbal_fluency'
p20
I0
S'True'
p21
tp22
a(g19
g20
I0
g21
tp23
a(g19
g20
I0
g21
tp24
a(g19
g20
I0
g21
tp25
a(g19
g20
I0
g21
tp26
a(g19
g20
I0
g21
tp27
a(g19
g20
I0
g21
tp28
a(g19
g20
I0
g21
tp29
a(g19
g20
I0
g21
tp30
a(g19
g20
I0
g21
tp31
a(g19
g20
I0
g21
tp32
a(g19
g20
I1
g21
tp33
a(g19
g20
I1
g21
tp34
a(g19
g20
I1
g21
tp35
a(g19
g20
I1
g21
tp36
a(g19
g20
I1
g21
tp37
a(g19
g20
I1
g21
tp38
a(g19
g20
I1
g21
tp39
a(g19
g20
I1
S'False'
p40
tp41
a(g19
g20
I1
g40
tp42
a(g19
g20
I1
g21
tp43
a(g19
g20
I2
g21
tp44
a(g19
g20
I2
g21
tp45
a(g19
g20
I2
g21
tp46
a(g19
g20
I2
g21
tp47
a(g19
g20
I2
g21
tp48
a(g19
g20
I2
g21
tp49
a(g19
g20
I2
g21
tp50
a(g19
g20
I2
g21
tp51
a(g19
g20
I2
g21
tp52
a(g19
g20
I2
g21
tp53
a(g19
g20
I2
g21
tp54
a(g19
g20
I2
g21
tp55
a(g19
g20
I2
g21
tp56
a(g19
g20
I2
g21
tp57
a(g19
g20
I3
g21
tp58
a(g19
g20
I3
g21
tp59
a(g19
g20
I3
g21
tp60
a(g19
g20
I3
g21
tp61
a(g19
g20
I3
g21
tp62
a(g19
g20
I3
g21
tp63
a(g19
g20
I3
g21
tp64
a(g19
g20
I3
g21
tp65
a(g19
g20
I3
g21
tp66
a(g19
g20
I3
g21
tp67
a(g19
g20
I3
g21
tp68
a(g19
g20
I3
g21
tp69
a(g19
g20
I3
g21
tp70
a(g19
g20
I3
g21
tp71
a(g19
g20
I3
g21
tp72
a(g19
g20
I3
g21
tp73
a(g19
g20
I3
g21
tp74
a(g19
g20
I3
g21
tp75
a(g19
g20
I3
g21
tp76
a(g19
g20
I3
g21
tp77
a(g19
g20
I3
g40
tp78
asS'output_format'
p79
(lp80
(S'proband_id'
p81
c__builtin__
str
p82
tp83
a(S'test_name'
p84
g82
tp85
a(S'trialn'
p86
c__builtin__
int
p87
tp88
a(S'rsp'
p89
g82
tp90
asg81
g19
sS'filename'
p91
S'4445_verbal_fluency.data'
p92
sS'initialised'
p93
g10
(S'\x07\xdf\x08\x14\x0c\x19"\x081\xa8'
tRp94
sg84
S'verbal_fluency'
p95
sS'directory'
p96
S'C:\\Users\\Jbarrett\\Charlie\\charlie\\data\\raw'
p97
sS'user_id'
p98
S'beetham'
p99
sS'test_started'
p100
I01
sS'abs_filename'
p101
S'C:\\Users\\Jbarrett\\Charlie\\charlie\\data\\raw\\4445_verbal_fluency.data'
p102
sS'date_started'
p103
g10
(S'\x07\xdf\x08\x14\x0c"7\x00\xeeH'
tRp104
sS'log'
p105
(lp106
(S'2015-08-20 12:25:34.537000'
S'instance created'
p107
tp108
a(S'2015-08-20 12:34:55.064000'
S'instance updated'
p109
tp110
a(S'2015-08-20 12:34:55.080000'
S'pandas DataFrame of data created'
p111
tp112
a(S'2015-08-20 12:34:55.082000'
g109
tp113
a(S'2015-08-20 12:34:55.084000'
S'data saved as csv to C:\\Users\\Jbarrett\\Charlie\\charlie\\data\\csv\\4445_verbal_fluency.csv'
tp114
a(S'2015-08-20 12:35:07.871000'
g109
tp115
a(S'2015-08-20 12:35:07.885000'
g111
tp116
a(S'2015-08-20 12:35:07.887000'
g109
tp117
a(S'2015-08-20 12:35:07.888000'
S'data saved as csv to C:\\Users\\Jbarrett\\Charlie\\charlie\\data\\csv\\4445_verbal_fluency.csv'
tp118
a(S'2015-08-20 12:36:26.275000'
g109
tp119
a(S'2015-08-20 12:36:26.303000'
g111
tp120
a(S'2015-08-20 12:36:26.305000'
g109
tp121
a(S'2015-08-20 12:36:26.306000'
S'data saved as csv to C:\\Users\\Jbarrett\\Charlie\\charlie\\data\\csv\\4445_verbal_fluency.csv'
tp122
a(S'2015-08-20 12:36:51.209000'
g109
tp123
a(S'2015-08-20 12:36:51.235000'
g111
tp124
a(S'2015-08-20 12:36:51.237000'
g109
tp125
a(S'2015-08-20 12:36:51.238000'
S'data saved as csv to C:\\Users\\Jbarrett\\Charlie\\charlie\\data\\csv\\4445_verbal_fluency.csv'
tp126
a(S'2015-08-20 12:38:06.853000'
g109
tp127
a(S'2015-08-20 12:38:06.900000'
g111
tp128
a(S'2015-08-20 12:38:06.902000'
g109
tp129
a(S'2015-08-20 12:38:06.903000'
S'data saved as csv to C:\\Users\\Jbarrett\\Charlie\\charlie\\data\\csv\\4445_verbal_fluency.csv'
tp130
a(S'2015-08-20 12:38:24.900000'
g109
tp131
a(S'2015-08-20 12:38:24.941000'
g111
tp132
a(S'2015-08-20 12:38:24.943000'
g109
tp133
a(S'2015-08-20 12:38:24.944000'
S'data saved as csv to C:\\Users\\Jbarrett\\Charlie\\charlie\\data\\csv\\4445_verbal_fluency.csv'
tp134
a(S'2015-08-20 12:39:32.440000'
g109
tp135
a(S'2015-08-20 12:39:32.515000'
g111
tp136
a(S'2015-08-20 12:39:32.517000'
g109
tp137
a(S'2015-08-20 12:39:32.518000'
S'data saved as csv to C:\\Users\\Jbarrett\\Charlie\\charlie\\data\\csv\\4445_verbal_fluency.csv'
tp138
asb.