(icharlie.tools.data
Data
p1
(dp2
S'lang'
p3
S'EN'
p4
sS'control'
p5
(lp6
sS'last_updated'
p7
S'2015-08-19 13:05:53.052000'
p8
sS'last_opened'
p9
cdatetime
datetime
p10
(S'\x07\xdf\x08\x13\x0c:9\x0c\\\x10'
tRp11
sS'proj_id'
p12
S'connectivity'
p13
sS'date_done'
p14
g10
(S'\x07\xdf\x08\x13\r\x055\x00\xc78'
tRp15
sS'test_done'
p16
I01
sS'data'
p17
(lp18
(S'4447'
p19
S'verbal_fluency'
p20
I0
S'True'
p21
tp22
a(g19
g20
I0
g21
tp23
a(g19
g20
I0
g21
tp24
a(g19
g20
I0
g21
tp25
a(g19
g20
I0
g21
tp26
a(g19
g20
I0
g21
tp27
a(g19
g20
I0
g21
tp28
a(g19
g20
I0
S'False'
p29
tp30
a(g19
g20
I0
g21
tp31
a(g19
g20
I1
g21
tp32
a(g19
g20
I1
g29
tp33
a(g19
g20
I1
g29
tp34
a(g19
g20
I1
g29
tp35
a(g19
g20
I1
g21
tp36
a(g19
g20
I1
g21
tp37
a(g19
g20
I1
g21
tp38
a(g19
g20
I1
g21
tp39
a(g19
g20
I1
g21
tp40
a(g19
g20
I1
g21
tp41
a(g19
g20
I2
g21
tp42
a(g19
g20
I2
g21
tp43
a(g19
g20
I2
g21
tp44
a(g19
g20
I2
g21
tp45
a(g19
g20
I2
g21
tp46
a(g19
g20
I2
g21
tp47
a(g19
g20
I2
g21
tp48
a(g19
g20
I2
g29
tp49
a(g19
g20
I2
g29
tp50
a(g19
g20
I2
g21
tp51
a(g19
g20
I2
g21
tp52
a(g19
g20
I3
g21
tp53
a(g19
g20
I3
g21
tp54
a(g19
g20
I3
g21
tp55
a(g19
g20
I3
g21
tp56
a(g19
g20
I3
g21
tp57
a(g19
g20
I3
g21
tp58
a(g19
g20
I3
g21
tp59
a(g19
g20
I3
g21
tp60
a(g19
g20
I3
g21
tp61
a(g19
g20
I3
g21
tp62
a(g19
g20
I3
g21
tp63
a(g19
g20
I3
g21
tp64
a(g19
g20
I3
g21
tp65
a(g19
g20
I3
g21
tp66
a(g19
g20
I3
g21
tp67
a(g19
g20
I3
g21
tp68
a(g19
g20
I3
g21
tp69
a(g19
g20
I3
g29
tp70
a(g19
g20
I3
g21
tp71
a(g19
g20
I3
g21
tp72
a(g19
g20
I3
g21
tp73
a(g19
g20
I3
g21
tp74
a(g19
g20
I3
g21
tp75
a(g19
g20
I3
g21
tp76
a(g19
g20
I3
g29
tp77
asS'output_format'
p78
(lp79
(S'proband_id'
p80
c__builtin__
str
p81
tp82
a(S'test_name'
p83
g81
tp84
a(S'trialn'
p85
c__builtin__
int
p86
tp87
a(S'rsp'
p88
g81
tp89
asg80
g19
sS'filename'
p90
S'4447_verbal_fluency.data'
p91
sS'initialised'
p92
g10
(S'\x07\xdf\x08\x13\x0c:9\x0c\\\x10'
tRp93
sg83
S'verbal_fluency'
p94
sS'directory'
p95
S'C:\\Users\\oleach\\Charlie\\charlie\\data\\raw'
p96
sS'user_id'
p97
S'oleach'
p98
sS'test_started'
p99
I01
sS'abs_filename'
p100
S'C:\\Users\\oleach\\Charlie\\charlie\\data\\raw\\4447_verbal_fluency.data'
p101
sS'date_started'
p102
g10
(S'\x07\xdf\x08\x13\r\x02\r\x06\xe9\x88'
tRp103
sS'log'
p104
(lp105
(S'2015-08-19 12:58:57.810000'
S'instance created'
p106
tp107
a(S'2015-08-19 13:02:13.463000'
S'instance updated'
p108
tp109
a(S'2015-08-19 13:02:13.508000'
S'pandas DataFrame of data created'
p110
tp111
a(S'2015-08-19 13:02:13.513000'
g108
tp112
a(S'2015-08-19 13:02:13.515000'
S'data saved as csv to C:\\Users\\oleach\\Charlie\\charlie\\data\\csv\\4447_verbal_fluency.csv'
tp113
a(S'2015-08-19 13:02:18.613000'
g108
tp114
a(S'2015-08-19 13:02:18.659000'
g110
tp115
a(S'2015-08-19 13:02:18.666000'
g108
tp116
a(S'2015-08-19 13:02:18.669000'
S'data saved as csv to C:\\Users\\oleach\\Charlie\\charlie\\data\\csv\\4447_verbal_fluency.csv'
tp117
a(S'2015-08-19 13:03:23.775000'
g108
tp118
a(S'2015-08-19 13:03:23.832000'
g110
tp119
a(S'2015-08-19 13:03:23.836000'
g108
tp120
a(S'2015-08-19 13:03:23.837000'
S'data saved as csv to C:\\Users\\oleach\\Charlie\\charlie\\data\\csv\\4447_verbal_fluency.csv'
tp121
a(S'2015-08-19 13:03:29.527000'
g108
tp122
a(S'2015-08-19 13:03:29.616000'
g110
tp123
a(S'2015-08-19 13:03:29.621000'
g108
tp124
a(S'2015-08-19 13:03:29.623000'
S'data saved as csv to C:\\Users\\oleach\\Charlie\\charlie\\data\\csv\\4447_verbal_fluency.csv'
tp125
a(S'2015-08-19 13:04:34.858000'
g108
tp126
a(S'2015-08-19 13:04:34.945000'
g110
tp127
a(S'2015-08-19 13:04:34.948000'
g108
tp128
a(S'2015-08-19 13:04:34.949000'
S'data saved as csv to C:\\Users\\oleach\\Charlie\\charlie\\data\\csv\\4447_verbal_fluency.csv'
tp129
a(S'2015-08-19 13:04:46.379000'
g108
tp130
a(S'2015-08-19 13:04:46.463000'
g110
tp131
a(S'2015-08-19 13:04:46.466000'
g108
tp132
a(S'2015-08-19 13:04:46.467000'
S'data saved as csv to C:\\Users\\oleach\\Charlie\\charlie\\data\\csv\\4447_verbal_fluency.csv'
tp133
a(S'2015-08-19 13:05:52.937000'
g108
tp134
a(S'2015-08-19 13:05:53.048000'
g110
tp135
a(S'2015-08-19 13:05:53.051000'
g108
tp136
a(S'2015-08-19 13:05:53.052000'
S'data saved as csv to C:\\Users\\oleach\\Charlie\\charlie\\data\\csv\\4447_verbal_fluency.csv'
tp137
asb.