(icharlie.tools.data
Data
p1
(dp2
S'lang'
p3
S'EN'
p4
sS'control'
p5
(lp6
sS'last_updated'
p7
S'2015-08-19 11:50:19.920000'
p8
sS'last_opened'
p9
cdatetime
datetime
p10
(S'\x07\xdf\x08\x13\x0b+\x0c\tR\xb8'
tRp11
sS'proj_id'
p12
S'connectivity'
p13
sS'date_done'
p14
g10
(S'\x07\xdf\x08\x13\x0b2\x13\x0e\t\xc0'
tRp15
sS'test_done'
p16
I01
sS'data'
p17
(lp18
(S'4447'
p19
S'ipcpts'
p20
S'practice'
p21
I0
I0
S'No'
p22
S'C:\\Users\\oleach\\Charlie\\charlie\\stimuli\\visual\\ipcpts\\sym0.bmp'
S'C:\\Users\\oleach\\Charlie\\charlie\\stimuli\\visual\\ipcpts\\sym1.bmp'
S'C:\\Users\\oleach\\Charlie\\charlie\\stimuli\\visual\\ipcpts\\sym2.bmp'
S'Yes'
p23
I2183
tp24
a(g19
g20
g21
I1
I0
g22
S'C:\\Users\\oleach\\Charlie\\charlie\\stimuli\\visual\\ipcpts\\sym1.bmp'
S'C:\\Users\\oleach\\Charlie\\charlie\\stimuli\\visual\\ipcpts\\sym2.bmp'
S'C:\\Users\\oleach\\Charlie\\charlie\\stimuli\\visual\\ipcpts\\sym6.bmp'
S'No'
p25
I0
tp26
a(g19
g20
g21
I2
I0
g22
S'C:\\Users\\oleach\\Charlie\\charlie\\stimuli\\visual\\ipcpts\\sym3.bmp'
S'C:\\Users\\oleach\\Charlie\\charlie\\stimuli\\visual\\ipcpts\\sym4.bmp'
S'C:\\Users\\oleach\\Charlie\\charlie\\stimuli\\visual\\ipcpts\\sym7.bmp'
g25
I0
tp27
a(g19
g20
g21
I3
I3
S'Yes'
p28
S'C:\\Users\\oleach\\Charlie\\charlie\\stimuli\\visual\\ipcpts\\sym3.bmp'
S'C:\\Users\\oleach\\Charlie\\charlie\\stimuli\\visual\\ipcpts\\sym4.bmp'
S'C:\\Users\\oleach\\Charlie\\charlie\\stimuli\\visual\\ipcpts\\sym7.bmp'
g25
I0
tp29
a(g19
g20
g21
I4
I0
g22
S'C:\\Users\\oleach\\Charlie\\charlie\\stimuli\\visual\\ipcpts\\sym4.bmp'
S'C:\\Users\\oleach\\Charlie\\charlie\\stimuli\\visual\\ipcpts\\sym7.bmp'
S'C:\\Users\\oleach\\Charlie\\charlie\\stimuli\\visual\\ipcpts\\sym3.bmp'
g25
I0
tp30
a(g19
g20
g21
I5
I3
g28
S'C:\\Users\\oleach\\Charlie\\charlie\\stimuli\\visual\\ipcpts\\sym4.bmp'
S'C:\\Users\\oleach\\Charlie\\charlie\\stimuli\\visual\\ipcpts\\sym7.bmp'
S'C:\\Users\\oleach\\Charlie\\charlie\\stimuli\\visual\\ipcpts\\sym3.bmp'
g25
I0
tp31
a(g19
g20
g21
I6
I0
g22
S'C:\\Users\\oleach\\Charlie\\charlie\\stimuli\\visual\\ipcpts\\sym7.bmp'
S'C:\\Users\\oleach\\Charlie\\charlie\\stimuli\\visual\\ipcpts\\sym1.bmp'
S'C:\\Users\\oleach\\Charlie\\charlie\\stimuli\\visual\\ipcpts\\sym0.bmp'
g25
I0
tp32
a(g19
g20
S'test'
p33
I0
I0
g22
S'C:\\Users\\oleach\\Charlie\\charlie\\stimuli\\visual\\ipcpts\\sym0.bmp'
S'C:\\Users\\oleach\\Charlie\\charlie\\stimuli\\visual\\ipcpts\\sym1.bmp'
S'C:\\Users\\oleach\\Charlie\\charlie\\stimuli\\visual\\ipcpts\\sym2.bmp'
g25
I0
tp34
a(g19
g20
g33
I1
I0
g22
S'C:\\Users\\oleach\\Charlie\\charlie\\stimuli\\visual\\ipcpts\\sym6.bmp'
S'C:\\Users\\oleach\\Charlie\\charlie\\stimuli\\visual\\ipcpts\\sym9.bmp'
S'C:\\Users\\oleach\\Charlie\\charlie\\stimuli\\visual\\ipcpts\\sym0.bmp'
g25
I0
tp35
a(g19
g20
g33
I2
I3
g28
S'C:\\Users\\oleach\\Charlie\\charlie\\stimuli\\visual\\ipcpts\\sym6.bmp'
S'C:\\Users\\oleach\\Charlie\\charlie\\stimuli\\visual\\ipcpts\\sym9.bmp'
S'C:\\Users\\oleach\\Charlie\\charlie\\stimuli\\visual\\ipcpts\\sym0.bmp'
g23
I747
tp36
a(g19
g20
g33
I3
I3
g28
S'C:\\Users\\oleach\\Charlie\\charlie\\stimuli\\visual\\ipcpts\\sym6.bmp'
S'C:\\Users\\oleach\\Charlie\\charlie\\stimuli\\visual\\ipcpts\\sym9.bmp'
S'C:\\Users\\oleach\\Charlie\\charlie\\stimuli\\visual\\ipcpts\\sym0.bmp'
g23
I655
tp37
a(g19
g20
g33
I4
I0
g22
S'C:\\Users\\oleach\\Charlie\\charlie\\stimuli\\visual\\ipcpts\\sym3.bmp'
S'C:\\Users\\oleach\\Charlie\\charlie\\stimuli\\visual\\ipcpts\\sym5.bmp'
S'C:\\Users\\oleach\\Charlie\\charlie\\stimuli\\visual\\ipcpts\\sym8.bmp'
g25
I0
tp38
a(g19
g20
g33
I5
I3
g28
S'C:\\Users\\oleach\\Charlie\\charlie\\stimuli\\visual\\ipcpts\\sym3.bmp'
S'C:\\Users\\oleach\\Charlie\\charlie\\stimuli\\visual\\ipcpts\\sym5.bmp'
S'C:\\Users\\oleach\\Charlie\\charlie\\stimuli\\visual\\ipcpts\\sym8.bmp'
g23
I520
tp39
a(g19
g20
g33
I6
I0
g22
S'C:\\Users\\oleach\\Charlie\\charlie\\stimuli\\visual\\ipcpts\\sym9.bmp'
S'C:\\Users\\oleach\\Charlie\\charlie\\stimuli\\visual\\ipcpts\\sym3.bmp'
S'C:\\Users\\oleach\\Charlie\\charlie\\stimuli\\visual\\ipcpts\\sym0.bmp'
g25
I0
tp40
a(g19
g20
g33
I7
I1
g22
S'C:\\Users\\oleach\\Charlie\\charlie\\stimuli\\visual\\ipcpts\\sym2.bmp'
S'C:\\Users\\oleach\\Charlie\\charlie\\stimuli\\visual\\ipcpts\\sym4.bmp'
S'C:\\Users\\oleach\\Charlie\\charlie\\stimuli\\visual\\ipcpts\\sym0.bmp'
g25
I0
tp41
a(g19
g20
g33
I8
I3
g28
S'C:\\Users\\oleach\\Charlie\\charlie\\stimuli\\visual\\ipcpts\\sym2.bmp'
S'C:\\Users\\oleach\\Charlie\\charlie\\stimuli\\visual\\ipcpts\\sym4.bmp'
S'C:\\Users\\oleach\\Charlie\\charlie\\stimuli\\visual\\ipcpts\\sym0.bmp'
g25
I0
tp42
a(g19
g20
g33
I9
I1
g22
S'C:\\Users\\oleach\\Charlie\\charlie\\stimuli\\visual\\ipcpts\\sym4.bmp'
S'C:\\Users\\oleach\\Charlie\\charlie\\stimuli\\visual\\ipcpts\\sym5.bmp'
S'C:\\Users\\oleach\\Charlie\\charlie\\stimuli\\visual\\ipcpts\\sym0.bmp'
g23
I352
tp43
a(g19
g20
g33
I10
I3
g28
S'C:\\Users\\oleach\\Charlie\\charlie\\stimuli\\visual\\ipcpts\\sym4.bmp'
S'C:\\Users\\oleach\\Charlie\\charlie\\stimuli\\visual\\ipcpts\\sym5.bmp'
S'C:\\Users\\oleach\\Charlie\\charlie\\stimuli\\visual\\ipcpts\\sym0.bmp'
g25
I0
tp44
a(g19
g20
g33
I11
I2
g22
S'C:\\Users\\oleach\\Charlie\\charlie\\stimuli\\visual\\ipcpts\\sym8.bmp'
S'C:\\Users\\oleach\\Charlie\\charlie\\stimuli\\visual\\ipcpts\\sym5.bmp'
S'C:\\Users\\oleach\\Charlie\\charlie\\stimuli\\visual\\ipcpts\\sym0.bmp'
g25
I0
tp45
a(g19
g20
g33
I12
I2
g22
S'C:\\Users\\oleach\\Charlie\\charlie\\stimuli\\visual\\ipcpts\\sym8.bmp'
S'C:\\Users\\oleach\\Charlie\\charlie\\stimuli\\visual\\ipcpts\\sym5.bmp'
S'C:\\Users\\oleach\\Charlie\\charlie\\stimuli\\visual\\ipcpts\\sym4.bmp'
g23
I676
tp46
a(g19
g20
g33
I13
I2
g22
S'C:\\Users\\oleach\\Charlie\\charlie\\stimuli\\visual\\ipcpts\\sym8.bmp'
S'C:\\Users\\oleach\\Charlie\\charlie\\stimuli\\visual\\ipcpts\\sym3.bmp'
S'C:\\Users\\oleach\\Charlie\\charlie\\stimuli\\visual\\ipcpts\\sym4.bmp'
g25
I0
tp47
a(g19
g20
g33
I14
I0
g22
S'C:\\Users\\oleach\\Charlie\\charlie\\stimuli\\visual\\ipcpts\\sym1.bmp'
S'C:\\Users\\oleach\\Charlie\\charlie\\stimuli\\visual\\ipcpts\\sym7.bmp'
S'C:\\Users\\oleach\\Charlie\\charlie\\stimuli\\visual\\ipcpts\\sym9.bmp'
g25
I0
tp48
a(g19
g20
g33
I15
I0
g22
S'C:\\Users\\oleach\\Charlie\\charlie\\stimuli\\visual\\ipcpts\\sym9.bmp'
S'C:\\Users\\oleach\\Charlie\\charlie\\stimuli\\visual\\ipcpts\\sym5.bmp'
S'C:\\Users\\oleach\\Charlie\\charlie\\stimuli\\visual\\ipcpts\\sym2.bmp'
g25
I0
tp49
a(g19
g20
g33
I16
I3
g28
S'C:\\Users\\oleach\\Charlie\\charlie\\stimuli\\visual\\ipcpts\\sym9.bmp'
S'C:\\Users\\oleach\\Charlie\\charlie\\stimuli\\visual\\ipcpts\\sym5.bmp'
S'C:\\Users\\oleach\\Charlie\\charlie\\stimuli\\visual\\ipcpts\\sym2.bmp'
g23
I404
tp50
a(g19
g20
g33
I17
I0
g22
S'C:\\Users\\oleach\\Charlie\\charlie\\stimuli\\visual\\ipcpts\\sym6.bmp'
S'C:\\Users\\oleach\\Charlie\\charlie\\stimuli\\visual\\ipcpts\\sym2.bmp'
S'C:\\Users\\oleach\\Charlie\\charlie\\stimuli\\visual\\ipcpts\\sym9.bmp'
g25
I0
tp51
a(g19
g20
g33
I18
I3
g28
S'C:\\Users\\oleach\\Charlie\\charlie\\stimuli\\visual\\ipcpts\\sym6.bmp'
S'C:\\Users\\oleach\\Charlie\\charlie\\stimuli\\visual\\ipcpts\\sym2.bmp'
S'C:\\Users\\oleach\\Charlie\\charlie\\stimuli\\visual\\ipcpts\\sym9.bmp'
g23
I628
tp52
a(g19
g20
g33
I19
I0
g22
S'C:\\Users\\oleach\\Charlie\\charlie\\stimuli\\visual\\ipcpts\\sym8.bmp'
S'C:\\Users\\oleach\\Charlie\\charlie\\stimuli\\visual\\ipcpts\\sym5.bmp'
S'C:\\Users\\oleach\\Charlie\\charlie\\stimuli\\visual\\ipcpts\\sym2.bmp'
g25
I0
tp53
a(g19
g20
g33
I20
I3
g28
S'C:\\Users\\oleach\\Charlie\\charlie\\stimuli\\visual\\ipcpts\\sym8.bmp'
S'C:\\Users\\oleach\\Charlie\\charlie\\stimuli\\visual\\ipcpts\\sym5.bmp'
S'C:\\Users\\oleach\\Charlie\\charlie\\stimuli\\visual\\ipcpts\\sym2.bmp'
g23
I580
tp54
a(g19
g20
g33
I21
I0
g22
S'C:\\Users\\oleach\\Charlie\\charlie\\stimuli\\visual\\ipcpts\\sym0.bmp'
S'C:\\Users\\oleach\\Charlie\\charlie\\stimuli\\visual\\ipcpts\\sym7.bmp'
S'C:\\Users\\oleach\\Charlie\\charlie\\stimuli\\visual\\ipcpts\\sym5.bmp'
g25
I0
tp55
a(g19
g20
g33
I22
I2
g22
S'C:\\Users\\oleach\\Charlie\\charlie\\stimuli\\visual\\ipcpts\\sym0.bmp'
S'C:\\Users\\oleach\\Charlie\\charlie\\stimuli\\visual\\ipcpts\\sym1.bmp'
S'C:\\Users\\oleach\\Charlie\\charlie\\stimuli\\visual\\ipcpts\\sym5.bmp'
g23
I460
tp56
a(g19
g20
g33
I23
I3
g28
S'C:\\Users\\oleach\\Charlie\\charlie\\stimuli\\visual\\ipcpts\\sym0.bmp'
S'C:\\Users\\oleach\\Charlie\\charlie\\stimuli\\visual\\ipcpts\\sym1.bmp'
S'C:\\Users\\oleach\\Charlie\\charlie\\stimuli\\visual\\ipcpts\\sym5.bmp'
g25
I0
tp57
a(g19
g20
g33
I24
I2
g22
S'C:\\Users\\oleach\\Charlie\\charlie\\stimuli\\visual\\ipcpts\\sym0.bmp'
S'C:\\Users\\oleach\\Charlie\\charlie\\stimuli\\visual\\ipcpts\\sym8.bmp'
S'C:\\Users\\oleach\\Charlie\\charlie\\stimuli\\visual\\ipcpts\\sym5.bmp'
g23
I396
tp58
a(g19
g20
g33
I25
I3
g28
S'C:\\Users\\oleach\\Charlie\\charlie\\stimuli\\visual\\ipcpts\\sym0.bmp'
S'C:\\Users\\oleach\\Charlie\\charlie\\stimuli\\visual\\ipcpts\\sym8.bmp'
S'C:\\Users\\oleach\\Charlie\\charlie\\stimuli\\visual\\ipcpts\\sym5.bmp'
g25
I0
tp59
a(g19
g20
g33
I26
I1
g22
S'C:\\Users\\oleach\\Charlie\\charlie\\stimuli\\visual\\ipcpts\\sym0.bmp'
S'C:\\Users\\oleach\\Charlie\\charlie\\stimuli\\visual\\ipcpts\\sym3.bmp'
S'C:\\Users\\oleach\\Charlie\\charlie\\stimuli\\visual\\ipcpts\\sym2.bmp'
g23
I483
tp60
a(g19
g20
g33
I27
I2
g22
S'C:\\Users\\oleach\\Charlie\\charlie\\stimuli\\visual\\ipcpts\\sym5.bmp'
S'C:\\Users\\oleach\\Charlie\\charlie\\stimuli\\visual\\ipcpts\\sym3.bmp'
S'C:\\Users\\oleach\\Charlie\\charlie\\stimuli\\visual\\ipcpts\\sym2.bmp'
g25
I0
tp61
a(g19
g20
g33
I28
I1
g22
S'C:\\Users\\oleach\\Charlie\\charlie\\stimuli\\visual\\ipcpts\\sym0.bmp'
S'C:\\Users\\oleach\\Charlie\\charlie\\stimuli\\visual\\ipcpts\\sym3.bmp'
S'C:\\Users\\oleach\\Charlie\\charlie\\stimuli\\visual\\ipcpts\\sym5.bmp'
g25
I0
tp62
a(g19
g20
g33
I29
I0
g22
S'C:\\Users\\oleach\\Charlie\\charlie\\stimuli\\visual\\ipcpts\\sym3.bmp'
S'C:\\Users\\oleach\\Charlie\\charlie\\stimuli\\visual\\ipcpts\\sym8.bmp'
S'C:\\Users\\oleach\\Charlie\\charlie\\stimuli\\visual\\ipcpts\\sym9.bmp'
g25
I0
tp63
a(g19
g20
g33
I30
I2
g22
S'C:\\Users\\oleach\\Charlie\\charlie\\stimuli\\visual\\ipcpts\\sym2.bmp'
S'C:\\Users\\oleach\\Charlie\\charlie\\stimuli\\visual\\ipcpts\\sym8.bmp'
S'C:\\Users\\oleach\\Charlie\\charlie\\stimuli\\visual\\ipcpts\\sym9.bmp'
g25
I0
tp64
a(g19
g20
g33
I31
I0
g22
S'C:\\Users\\oleach\\Charlie\\charlie\\stimuli\\visual\\ipcpts\\sym5.bmp'
S'C:\\Users\\oleach\\Charlie\\charlie\\stimuli\\visual\\ipcpts\\sym6.bmp'
S'C:\\Users\\oleach\\Charlie\\charlie\\stimuli\\visual\\ipcpts\\sym2.bmp'
g25
I0
tp65
a(g19
g20
g33
I32
I1
g22
S'C:\\Users\\oleach\\Charlie\\charlie\\stimuli\\visual\\ipcpts\\sym1.bmp'
S'C:\\Users\\oleach\\Charlie\\charlie\\stimuli\\visual\\ipcpts\\sym9.bmp'
S'C:\\Users\\oleach\\Charlie\\charlie\\stimuli\\visual\\ipcpts\\sym2.bmp'
g25
I0
tp66
a(g19
g20
g33
I33
I0
g22
S'C:\\Users\\oleach\\Charlie\\charlie\\stimuli\\visual\\ipcpts\\sym0.bmp'
S'C:\\Users\\oleach\\Charlie\\charlie\\stimuli\\visual\\ipcpts\\sym5.bmp'
S'C:\\Users\\oleach\\Charlie\\charlie\\stimuli\\visual\\ipcpts\\sym7.bmp'
g23
I560
tp67
a(g19
g20
g33
I34
I3
g28
S'C:\\Users\\oleach\\Charlie\\charlie\\stimuli\\visual\\ipcpts\\sym0.bmp'
S'C:\\Users\\oleach\\Charlie\\charlie\\stimuli\\visual\\ipcpts\\sym5.bmp'
S'C:\\Users\\oleach\\Charlie\\charlie\\stimuli\\visual\\ipcpts\\sym7.bmp'
g23
I692
tp68
a(g19
g20
g33
I35
I0
g22
S'C:\\Users\\oleach\\Charlie\\charlie\\stimuli\\visual\\ipcpts\\sym3.bmp'
S'C:\\Users\\oleach\\Charlie\\charlie\\stimuli\\visual\\ipcpts\\sym6.bmp'
S'C:\\Users\\oleach\\Charlie\\charlie\\stimuli\\visual\\ipcpts\\sym0.bmp'
g25
I0
tp69
a(g19
g20
g33
I36
I2
g22
S'C:\\Users\\oleach\\Charlie\\charlie\\stimuli\\visual\\ipcpts\\sym2.bmp'
S'C:\\Users\\oleach\\Charlie\\charlie\\stimuli\\visual\\ipcpts\\sym6.bmp'
S'C:\\Users\\oleach\\Charlie\\charlie\\stimuli\\visual\\ipcpts\\sym0.bmp'
g25
I0
tp70
a(g19
g20
g33
I37
I3
g28
S'C:\\Users\\oleach\\Charlie\\charlie\\stimuli\\visual\\ipcpts\\sym2.bmp'
S'C:\\Users\\oleach\\Charlie\\charlie\\stimuli\\visual\\ipcpts\\sym6.bmp'
S'C:\\Users\\oleach\\Charlie\\charlie\\stimuli\\visual\\ipcpts\\sym0.bmp'
g23
I624
tp71
a(g19
g20
g33
I38
I1
g22
S'C:\\Users\\oleach\\Charlie\\charlie\\stimuli\\visual\\ipcpts\\sym2.bmp'
S'C:\\Users\\oleach\\Charlie\\charlie\\stimuli\\visual\\ipcpts\\sym8.bmp'
S'C:\\Users\\oleach\\Charlie\\charlie\\stimuli\\visual\\ipcpts\\sym3.bmp'
g25
I0
tp72
a(g19
g20
g33
I39
I0
g22
S'C:\\Users\\oleach\\Charlie\\charlie\\stimuli\\visual\\ipcpts\\sym8.bmp'
S'C:\\Users\\oleach\\Charlie\\charlie\\stimuli\\visual\\ipcpts\\sym2.bmp'
S'C:\\Users\\oleach\\Charlie\\charlie\\stimuli\\visual\\ipcpts\\sym0.bmp'
g25
I0
tp73
a(g19
g20
g33
I40
I0
g22
S'C:\\Users\\oleach\\Charlie\\charlie\\stimuli\\visual\\ipcpts\\sym5.bmp'
S'C:\\Users\\oleach\\Charlie\\charlie\\stimuli\\visual\\ipcpts\\sym7.bmp'
S'C:\\Users\\oleach\\Charlie\\charlie\\stimuli\\visual\\ipcpts\\sym9.bmp'
g25
I0
tp74
a(g19
g20
g33
I41
I2
g22
S'C:\\Users\\oleach\\Charlie\\charlie\\stimuli\\visual\\ipcpts\\sym5.bmp'
S'C:\\Users\\oleach\\Charlie\\charlie\\stimuli\\visual\\ipcpts\\sym7.bmp'
S'C:\\Users\\oleach\\Charlie\\charlie\\stimuli\\visual\\ipcpts\\sym2.bmp'
g23
I328
tp75
a(g19
g20
g33
I42
I3
g28
S'C:\\Users\\oleach\\Charlie\\charlie\\stimuli\\visual\\ipcpts\\sym5.bmp'
S'C:\\Users\\oleach\\Charlie\\charlie\\stimuli\\visual\\ipcpts\\sym7.bmp'
S'C:\\Users\\oleach\\Charlie\\charlie\\stimuli\\visual\\ipcpts\\sym2.bmp'
g23
I844
tp76
a(g19
g20
g33
I43
I1
g22
S'C:\\Users\\oleach\\Charlie\\charlie\\stimuli\\visual\\ipcpts\\sym9.bmp'
S'C:\\Users\\oleach\\Charlie\\charlie\\stimuli\\visual\\ipcpts\\sym0.bmp'
S'C:\\Users\\oleach\\Charlie\\charlie\\stimuli\\visual\\ipcpts\\sym2.bmp'
g25
I0
tp77
a(g19
g20
g33
I44
I3
g28
S'C:\\Users\\oleach\\Charlie\\charlie\\stimuli\\visual\\ipcpts\\sym9.bmp'
S'C:\\Users\\oleach\\Charlie\\charlie\\stimuli\\visual\\ipcpts\\sym0.bmp'
S'C:\\Users\\oleach\\Charlie\\charlie\\stimuli\\visual\\ipcpts\\sym2.bmp'
g23
I460
tp78
a(g19
g20
g33
I45
I3
g28
S'C:\\Users\\oleach\\Charlie\\charlie\\stimuli\\visual\\ipcpts\\sym9.bmp'
S'C:\\Users\\oleach\\Charlie\\charlie\\stimuli\\visual\\ipcpts\\sym0.bmp'
S'C:\\Users\\oleach\\Charlie\\charlie\\stimuli\\visual\\ipcpts\\sym2.bmp'
g23
I568
tp79
a(g19
g20
g33
I46
I0
g22
S'C:\\Users\\oleach\\Charlie\\charlie\\stimuli\\visual\\ipcpts\\sym7.bmp'
S'C:\\Users\\oleach\\Charlie\\charlie\\stimuli\\visual\\ipcpts\\sym3.bmp'
S'C:\\Users\\oleach\\Charlie\\charlie\\stimuli\\visual\\ipcpts\\sym6.bmp'
g25
I0
tp80
a(g19
g20
g33
I47
I0
g22
S'C:\\Users\\oleach\\Charlie\\charlie\\stimuli\\visual\\ipcpts\\sym4.bmp'
S'C:\\Users\\oleach\\Charlie\\charlie\\stimuli\\visual\\ipcpts\\sym2.bmp'
S'C:\\Users\\oleach\\Charlie\\charlie\\stimuli\\visual\\ipcpts\\sym7.bmp'
g25
I0
tp81
a(g19
g20
g33
I48
I0
g22
S'C:\\Users\\oleach\\Charlie\\charlie\\stimuli\\visual\\ipcpts\\sym6.bmp'
S'C:\\Users\\oleach\\Charlie\\charlie\\stimuli\\visual\\ipcpts\\sym3.bmp'
S'C:\\Users\\oleach\\Charlie\\charlie\\stimuli\\visual\\ipcpts\\sym1.bmp'
g25
I0
tp82
a(g19
g20
g33
I49
I3
g28
S'C:\\Users\\oleach\\Charlie\\charlie\\stimuli\\visual\\ipcpts\\sym6.bmp'
S'C:\\Users\\oleach\\Charlie\\charlie\\stimuli\\visual\\ipcpts\\sym3.bmp'
S'C:\\Users\\oleach\\Charlie\\charlie\\stimuli\\visual\\ipcpts\\sym1.bmp'
g23
I376
tp83
a(g19
g20
g33
I50
I3
g28
S'C:\\Users\\oleach\\Charlie\\charlie\\stimuli\\visual\\ipcpts\\sym6.bmp'
S'C:\\Users\\oleach\\Charlie\\charlie\\stimuli\\visual\\ipcpts\\sym3.bmp'
S'C:\\Users\\oleach\\Charlie\\charlie\\stimuli\\visual\\ipcpts\\sym1.bmp'
g23
I491
tp84
a(g19
g20
g33
I51
I3
g28
S'C:\\Users\\oleach\\Charlie\\charlie\\stimuli\\visual\\ipcpts\\sym6.bmp'
S'C:\\Users\\oleach\\Charlie\\charlie\\stimuli\\visual\\ipcpts\\sym3.bmp'
S'C:\\Users\\oleach\\Charlie\\charlie\\stimuli\\visual\\ipcpts\\sym1.bmp'
g23
I384
tp85
a(g19
g20
g33
I52
I0
g22
S'C:\\Users\\oleach\\Charlie\\charlie\\stimuli\\visual\\ipcpts\\sym1.bmp'
S'C:\\Users\\oleach\\Charlie\\charlie\\stimuli\\visual\\ipcpts\\sym0.bmp'
S'C:\\Users\\oleach\\Charlie\\charlie\\stimuli\\visual\\ipcpts\\sym8.bmp'
g25
I0
tp86
a(g19
g20
g33
I53
I3
g28
S'C:\\Users\\oleach\\Charlie\\charlie\\stimuli\\visual\\ipcpts\\sym1.bmp'
S'C:\\Users\\oleach\\Charlie\\charlie\\stimuli\\visual\\ipcpts\\sym0.bmp'
S'C:\\Users\\oleach\\Charlie\\charlie\\stimuli\\visual\\ipcpts\\sym8.bmp'
g23
I616
tp87
a(g19
g20
g33
I54
I3
g28
S'C:\\Users\\oleach\\Charlie\\charlie\\stimuli\\visual\\ipcpts\\sym1.bmp'
S'C:\\Users\\oleach\\Charlie\\charlie\\stimuli\\visual\\ipcpts\\sym0.bmp'
S'C:\\Users\\oleach\\Charlie\\charlie\\stimuli\\visual\\ipcpts\\sym8.bmp'
g23
I628
tp88
a(g19
g20
g33
I55
I0
g22
S'C:\\Users\\oleach\\Charlie\\charlie\\stimuli\\visual\\ipcpts\\sym4.bmp'
S'C:\\Users\\oleach\\Charlie\\charlie\\stimuli\\visual\\ipcpts\\sym8.bmp'
S'C:\\Users\\oleach\\Charlie\\charlie\\stimuli\\visual\\ipcpts\\sym3.bmp'
g25
I0
tp89
a(g19
g20
g33
I56
I0
g22
S'C:\\Users\\oleach\\Charlie\\charlie\\stimuli\\visual\\ipcpts\\sym3.bmp'
S'C:\\Users\\oleach\\Charlie\\charlie\\stimuli\\visual\\ipcpts\\sym1.bmp'
S'C:\\Users\\oleach\\Charlie\\charlie\\stimuli\\visual\\ipcpts\\sym2.bmp'
g25
I0
tp90
a(g19
g20
g33
I57
I3
g28
S'C:\\Users\\oleach\\Charlie\\charlie\\stimuli\\visual\\ipcpts\\sym3.bmp'
S'C:\\Users\\oleach\\Charlie\\charlie\\stimuli\\visual\\ipcpts\\sym1.bmp'
S'C:\\Users\\oleach\\Charlie\\charlie\\stimuli\\visual\\ipcpts\\sym2.bmp'
g23
I400
tp91
a(g19
g20
g33
I58
I3
g28
S'C:\\Users\\oleach\\Charlie\\charlie\\stimuli\\visual\\ipcpts\\sym3.bmp'
S'C:\\Users\\oleach\\Charlie\\charlie\\stimuli\\visual\\ipcpts\\sym1.bmp'
S'C:\\Users\\oleach\\Charlie\\charlie\\stimuli\\visual\\ipcpts\\sym2.bmp'
g23
I628
tp92
a(g19
g20
g33
I59
I0
g22
S'C:\\Users\\oleach\\Charlie\\charlie\\stimuli\\visual\\ipcpts\\sym7.bmp'
S'C:\\Users\\oleach\\Charlie\\charlie\\stimuli\\visual\\ipcpts\\sym5.bmp'
S'C:\\Users\\oleach\\Charlie\\charlie\\stimuli\\visual\\ipcpts\\sym8.bmp'
g25
I0
tp93
a(g19
g20
g33
I60
I3
g28
S'C:\\Users\\oleach\\Charlie\\charlie\\stimuli\\visual\\ipcpts\\sym7.bmp'
S'C:\\Users\\oleach\\Charlie\\charlie\\stimuli\\visual\\ipcpts\\sym5.bmp'
S'C:\\Users\\oleach\\Charlie\\charlie\\stimuli\\visual\\ipcpts\\sym8.bmp'
g23
I660
tp94
a(g19
g20
g33
I61
I0
g22
S'C:\\Users\\oleach\\Charlie\\charlie\\stimuli\\visual\\ipcpts\\sym1.bmp'
S'C:\\Users\\oleach\\Charlie\\charlie\\stimuli\\visual\\ipcpts\\sym9.bmp'
S'C:\\Users\\oleach\\Charlie\\charlie\\stimuli\\visual\\ipcpts\\sym3.bmp'
g25
I0
tp95
a(g19
g20
g33
I62
I1
g22
S'C:\\Users\\oleach\\Charlie\\charlie\\stimuli\\visual\\ipcpts\\sym0.bmp'
S'C:\\Users\\oleach\\Charlie\\charlie\\stimuli\\visual\\ipcpts\\sym9.bmp'
S'C:\\Users\\oleach\\Charlie\\charlie\\stimuli\\visual\\ipcpts\\sym6.bmp'
g25
I0
tp96
a(g19
g20
g33
I63
I2
g22
S'C:\\Users\\oleach\\Charlie\\charlie\\stimuli\\visual\\ipcpts\\sym0.bmp'
S'C:\\Users\\oleach\\Charlie\\charlie\\stimuli\\visual\\ipcpts\\sym2.bmp'
S'C:\\Users\\oleach\\Charlie\\charlie\\stimuli\\visual\\ipcpts\\sym6.bmp'
g23
I656
tp97
a(g19
g20
g33
I64
I3
g28
S'C:\\Users\\oleach\\Charlie\\charlie\\stimuli\\visual\\ipcpts\\sym0.bmp'
S'C:\\Users\\oleach\\Charlie\\charlie\\stimuli\\visual\\ipcpts\\sym2.bmp'
S'C:\\Users\\oleach\\Charlie\\charlie\\stimuli\\visual\\ipcpts\\sym6.bmp'
g23
I708
tp98
a(g19
g20
g33
I65
I2
g22
S'C:\\Users\\oleach\\Charlie\\charlie\\stimuli\\visual\\ipcpts\\sym0.bmp'
S'C:\\Users\\oleach\\Charlie\\charlie\\stimuli\\visual\\ipcpts\\sym2.bmp'
S'C:\\Users\\oleach\\Charlie\\charlie\\stimuli\\visual\\ipcpts\\sym9.bmp'
g25
I0
tp99
a(g19
g20
g33
I66
I2
g22
S'C:\\Users\\oleach\\Charlie\\charlie\\stimuli\\visual\\ipcpts\\sym0.bmp'
S'C:\\Users\\oleach\\Charlie\\charlie\\stimuli\\visual\\ipcpts\\sym2.bmp'
S'C:\\Users\\oleach\\Charlie\\charlie\\stimuli\\visual\\ipcpts\\sym5.bmp'
g25
I0
tp100
a(g19
g20
g33
I67
I0
g22
S'C:\\Users\\oleach\\Charlie\\charlie\\stimuli\\visual\\ipcpts\\sym1.bmp'
S'C:\\Users\\oleach\\Charlie\\charlie\\stimuli\\visual\\ipcpts\\sym7.bmp'
S'C:\\Users\\oleach\\Charlie\\charlie\\stimuli\\visual\\ipcpts\\sym0.bmp'
g25
I0
tp101
a(g19
g20
g33
I68
I0
g22
S'C:\\Users\\oleach\\Charlie\\charlie\\stimuli\\visual\\ipcpts\\sym3.bmp'
S'C:\\Users\\oleach\\Charlie\\charlie\\stimuli\\visual\\ipcpts\\sym1.bmp'
S'C:\\Users\\oleach\\Charlie\\charlie\\stimuli\\visual\\ipcpts\\sym2.bmp'
g25
I0
tp102
a(g19
g20
g33
I69
I1
g22
S'C:\\Users\\oleach\\Charlie\\charlie\\stimuli\\visual\\ipcpts\\sym0.bmp'
S'C:\\Users\\oleach\\Charlie\\charlie\\stimuli\\visual\\ipcpts\\sym1.bmp'
S'C:\\Users\\oleach\\Charlie\\charlie\\stimuli\\visual\\ipcpts\\sym7.bmp'
g25
I0
tp103
a(g19
g20
g33
I70
I2
g22
S'C:\\Users\\oleach\\Charlie\\charlie\\stimuli\\visual\\ipcpts\\sym9.bmp'
S'C:\\Users\\oleach\\Charlie\\charlie\\stimuli\\visual\\ipcpts\\sym1.bmp'
S'C:\\Users\\oleach\\Charlie\\charlie\\stimuli\\visual\\ipcpts\\sym7.bmp'
g25
I0
tp104
a(g19
g20
g33
I71
I1
g22
S'C:\\Users\\oleach\\Charlie\\charlie\\stimuli\\visual\\ipcpts\\sym9.bmp'
S'C:\\Users\\oleach\\Charlie\\charlie\\stimuli\\visual\\ipcpts\\sym3.bmp'
S'C:\\Users\\oleach\\Charlie\\charlie\\stimuli\\visual\\ipcpts\\sym5.bmp'
g23
I336
tp105
a(g19
g20
g33
I72
I3
g28
S'C:\\Users\\oleach\\Charlie\\charlie\\stimuli\\visual\\ipcpts\\sym9.bmp'
S'C:\\Users\\oleach\\Charlie\\charlie\\stimuli\\visual\\ipcpts\\sym3.bmp'
S'C:\\Users\\oleach\\Charlie\\charlie\\stimuli\\visual\\ipcpts\\sym5.bmp'
g25
I0
tp106
a(g19
g20
g33
I73
I0
g22
S'C:\\Users\\oleach\\Charlie\\charlie\\stimuli\\visual\\ipcpts\\sym8.bmp'
S'C:\\Users\\oleach\\Charlie\\charlie\\stimuli\\visual\\ipcpts\\sym4.bmp'
S'C:\\Users\\oleach\\Charlie\\charlie\\stimuli\\visual\\ipcpts\\sym9.bmp'
g25
I0
tp107
a(g19
g20
g33
I74
I2
g22
S'C:\\Users\\oleach\\Charlie\\charlie\\stimuli\\visual\\ipcpts\\sym8.bmp'
S'C:\\Users\\oleach\\Charlie\\charlie\\stimuli\\visual\\ipcpts\\sym0.bmp'
S'C:\\Users\\oleach\\Charlie\\charlie\\stimuli\\visual\\ipcpts\\sym9.bmp'
g25
I0
tp108
a(g19
g20
g33
I75
I2
g22
S'C:\\Users\\oleach\\Charlie\\charlie\\stimuli\\visual\\ipcpts\\sym8.bmp'
S'C:\\Users\\oleach\\Charlie\\charlie\\stimuli\\visual\\ipcpts\\sym1.bmp'
S'C:\\Users\\oleach\\Charlie\\charlie\\stimuli\\visual\\ipcpts\\sym9.bmp'
g23
I368
tp109
a(g19
g20
g33
I76
I1
g22
S'C:\\Users\\oleach\\Charlie\\charlie\\stimuli\\visual\\ipcpts\\sym9.bmp'
S'C:\\Users\\oleach\\Charlie\\charlie\\stimuli\\visual\\ipcpts\\sym1.bmp'
S'C:\\Users\\oleach\\Charlie\\charlie\\stimuli\\visual\\ipcpts\\sym6.bmp'
g23
I500
tp110
a(g19
g20
g33
I77
I0
g22
S'C:\\Users\\oleach\\Charlie\\charlie\\stimuli\\visual\\ipcpts\\sym7.bmp'
S'C:\\Users\\oleach\\Charlie\\charlie\\stimuli\\visual\\ipcpts\\sym3.bmp'
S'C:\\Users\\oleach\\Charlie\\charlie\\stimuli\\visual\\ipcpts\\sym0.bmp'
g25
I0
tp111
a(g19
g20
g33
I78
I2
g22
S'C:\\Users\\oleach\\Charlie\\charlie\\stimuli\\visual\\ipcpts\\sym7.bmp'
S'C:\\Users\\oleach\\Charlie\\charlie\\stimuli\\visual\\ipcpts\\sym3.bmp'
S'C:\\Users\\oleach\\Charlie\\charlie\\stimuli\\visual\\ipcpts\\sym1.bmp'
g23
I740
tp112
a(g19
g20
g33
I79
I1
g22
S'C:\\Users\\oleach\\Charlie\\charlie\\stimuli\\visual\\ipcpts\\sym0.bmp'
S'C:\\Users\\oleach\\Charlie\\charlie\\stimuli\\visual\\ipcpts\\sym4.bmp'
S'C:\\Users\\oleach\\Charlie\\charlie\\stimuli\\visual\\ipcpts\\sym1.bmp'
g25
I0
tp113
a(g19
g20
g33
I80
I0
g22
S'C:\\Users\\oleach\\Charlie\\charlie\\stimuli\\visual\\ipcpts\\sym3.bmp'
S'C:\\Users\\oleach\\Charlie\\charlie\\stimuli\\visual\\ipcpts\\sym2.bmp'
S'C:\\Users\\oleach\\Charlie\\charlie\\stimuli\\visual\\ipcpts\\sym6.bmp'
g25
I0
tp114
a(g19
g20
g33
I81
I3
g28
S'C:\\Users\\oleach\\Charlie\\charlie\\stimuli\\visual\\ipcpts\\sym3.bmp'
S'C:\\Users\\oleach\\Charlie\\charlie\\stimuli\\visual\\ipcpts\\sym2.bmp'
S'C:\\Users\\oleach\\Charlie\\charlie\\stimuli\\visual\\ipcpts\\sym6.bmp'
g25
I0
tp115
a(g19
g20
g33
I82
I0
g22
S'C:\\Users\\oleach\\Charlie\\charlie\\stimuli\\visual\\ipcpts\\sym6.bmp'
S'C:\\Users\\oleach\\Charlie\\charlie\\stimuli\\visual\\ipcpts\\sym0.bmp'
S'C:\\Users\\oleach\\Charlie\\charlie\\stimuli\\visual\\ipcpts\\sym7.bmp'
g25
I0
tp116
a(g19
g20
g33
I83
I3
g28
S'C:\\Users\\oleach\\Charlie\\charlie\\stimuli\\visual\\ipcpts\\sym6.bmp'
S'C:\\Users\\oleach\\Charlie\\charlie\\stimuli\\visual\\ipcpts\\sym0.bmp'
S'C:\\Users\\oleach\\Charlie\\charlie\\stimuli\\visual\\ipcpts\\sym7.bmp'
g23
I616
tp117
a(g19
g20
g33
I84
I3
g28
S'C:\\Users\\oleach\\Charlie\\charlie\\stimuli\\visual\\ipcpts\\sym6.bmp'
S'C:\\Users\\oleach\\Charlie\\charlie\\stimuli\\visual\\ipcpts\\sym0.bmp'
S'C:\\Users\\oleach\\Charlie\\charlie\\stimuli\\visual\\ipcpts\\sym7.bmp'
g25
I0
tp118
a(g19
g20
g33
I85
I3
g28
S'C:\\Users\\oleach\\Charlie\\charlie\\stimuli\\visual\\ipcpts\\sym6.bmp'
S'C:\\Users\\oleach\\Charlie\\charlie\\stimuli\\visual\\ipcpts\\sym0.bmp'
S'C:\\Users\\oleach\\Charlie\\charlie\\stimuli\\visual\\ipcpts\\sym7.bmp'
g23
I431
tp119
a(g19
g20
g33
I86
I1
g22
S'C:\\Users\\oleach\\Charlie\\charlie\\stimuli\\visual\\ipcpts\\sym1.bmp'
S'C:\\Users\\oleach\\Charlie\\charlie\\stimuli\\visual\\ipcpts\\sym6.bmp'
S'C:\\Users\\oleach\\Charlie\\charlie\\stimuli\\visual\\ipcpts\\sym7.bmp'
g25
I0
tp120
a(g19
g20
g33
I87
I0
g22
S'C:\\Users\\oleach\\Charlie\\charlie\\stimuli\\visual\\ipcpts\\sym9.bmp'
S'C:\\Users\\oleach\\Charlie\\charlie\\stimuli\\visual\\ipcpts\\sym1.bmp'
S'C:\\Users\\oleach\\Charlie\\charlie\\stimuli\\visual\\ipcpts\\sym3.bmp'
g25
I0
tp121
a(g19
g20
g33
I88
I3
g28
S'C:\\Users\\oleach\\Charlie\\charlie\\stimuli\\visual\\ipcpts\\sym9.bmp'
S'C:\\Users\\oleach\\Charlie\\charlie\\stimuli\\visual\\ipcpts\\sym1.bmp'
S'C:\\Users\\oleach\\Charlie\\charlie\\stimuli\\visual\\ipcpts\\sym3.bmp'
g25
I0
tp122
a(g19
g20
g33
I89
I0
g22
S'C:\\Users\\oleach\\Charlie\\charlie\\stimuli\\visual\\ipcpts\\sym0.bmp'
S'C:\\Users\\oleach\\Charlie\\charlie\\stimuli\\visual\\ipcpts\\sym4.bmp'
S'C:\\Users\\oleach\\Charlie\\charlie\\stimuli\\visual\\ipcpts\\sym8.bmp'
g25
I0
tp123
a(g19
g20
g33
I90
I0
g22
S'C:\\Users\\oleach\\Charlie\\charlie\\stimuli\\visual\\ipcpts\\sym1.bmp'
S'C:\\Users\\oleach\\Charlie\\charlie\\stimuli\\visual\\ipcpts\\sym0.bmp'
S'C:\\Users\\oleach\\Charlie\\charlie\\stimuli\\visual\\ipcpts\\sym3.bmp'
g23
I924
tp124
a(g19
g20
g33
I91
I0
g22
S'C:\\Users\\oleach\\Charlie\\charlie\\stimuli\\visual\\ipcpts\\sym5.bmp'
S'C:\\Users\\oleach\\Charlie\\charlie\\stimuli\\visual\\ipcpts\\sym9.bmp'
S'C:\\Users\\oleach\\Charlie\\charlie\\stimuli\\visual\\ipcpts\\sym6.bmp'
g25
I0
tp125
a(g19
g20
g33
I92
I3
g28
S'C:\\Users\\oleach\\Charlie\\charlie\\stimuli\\visual\\ipcpts\\sym5.bmp'
S'C:\\Users\\oleach\\Charlie\\charlie\\stimuli\\visual\\ipcpts\\sym9.bmp'
S'C:\\Users\\oleach\\Charlie\\charlie\\stimuli\\visual\\ipcpts\\sym6.bmp'
g25
I0
tp126
a(g19
g20
g33
I93
I3
g28
S'C:\\Users\\oleach\\Charlie\\charlie\\stimuli\\visual\\ipcpts\\sym5.bmp'
S'C:\\Users\\oleach\\Charlie\\charlie\\stimuli\\visual\\ipcpts\\sym9.bmp'
S'C:\\Users\\oleach\\Charlie\\charlie\\stimuli\\visual\\ipcpts\\sym6.bmp'
g23
I504
tp127
a(g19
g20
g33
I94
I0
g22
S'C:\\Users\\oleach\\Charlie\\charlie\\stimuli\\visual\\ipcpts\\sym6.bmp'
S'C:\\Users\\oleach\\Charlie\\charlie\\stimuli\\visual\\ipcpts\\sym7.bmp'
S'C:\\Users\\oleach\\Charlie\\charlie\\stimuli\\visual\\ipcpts\\sym3.bmp'
g25
I0
tp128
a(g19
g20
g33
I95
I3
g28
S'C:\\Users\\oleach\\Charlie\\charlie\\stimuli\\visual\\ipcpts\\sym6.bmp'
S'C:\\Users\\oleach\\Charlie\\charlie\\stimuli\\visual\\ipcpts\\sym7.bmp'
S'C:\\Users\\oleach\\Charlie\\charlie\\stimuli\\visual\\ipcpts\\sym3.bmp'
g23
I416
tp129
a(g19
g20
g33
I96
I0
g22
S'C:\\Users\\oleach\\Charlie\\charlie\\stimuli\\visual\\ipcpts\\sym4.bmp'
S'C:\\Users\\oleach\\Charlie\\charlie\\stimuli\\visual\\ipcpts\\sym9.bmp'
S'C:\\Users\\oleach\\Charlie\\charlie\\stimuli\\visual\\ipcpts\\sym0.bmp'
g25
I0
tp130
a(g19
g20
g33
I97
I1
g22
S'C:\\Users\\oleach\\Charlie\\charlie\\stimuli\\visual\\ipcpts\\sym5.bmp'
S'C:\\Users\\oleach\\Charlie\\charlie\\stimuli\\visual\\ipcpts\\sym3.bmp'
S'C:\\Users\\oleach\\Charlie\\charlie\\stimuli\\visual\\ipcpts\\sym0.bmp'
g25
I0
tp131
a(g19
g20
g33
I98
I2
g22
S'C:\\Users\\oleach\\Charlie\\charlie\\stimuli\\visual\\ipcpts\\sym8.bmp'
S'C:\\Users\\oleach\\Charlie\\charlie\\stimuli\\visual\\ipcpts\\sym3.bmp'
S'C:\\Users\\oleach\\Charlie\\charlie\\stimuli\\visual\\ipcpts\\sym0.bmp'
g23
I644
tp132
a(g19
g20
g33
I99
I0
g22
S'C:\\Users\\oleach\\Charlie\\charlie\\stimuli\\visual\\ipcpts\\sym7.bmp'
S'C:\\Users\\oleach\\Charlie\\charlie\\stimuli\\visual\\ipcpts\\sym9.bmp'
S'C:\\Users\\oleach\\Charlie\\charlie\\stimuli\\visual\\ipcpts\\sym2.bmp'
g25
I0
tp133
a(g19
g20
g33
I100
I2
g22
S'C:\\Users\\oleach\\Charlie\\charlie\\stimuli\\visual\\ipcpts\\sym7.bmp'
S'C:\\Users\\oleach\\Charlie\\charlie\\stimuli\\visual\\ipcpts\\sym3.bmp'
S'C:\\Users\\oleach\\Charlie\\charlie\\stimuli\\visual\\ipcpts\\sym2.bmp'
g23
I636
tp134
a(g19
g20
g33
I101
I1
g22
S'C:\\Users\\oleach\\Charlie\\charlie\\stimuli\\visual\\ipcpts\\sym7.bmp'
S'C:\\Users\\oleach\\Charlie\\charlie\\stimuli\\visual\\ipcpts\\sym4.bmp'
S'C:\\Users\\oleach\\Charlie\\charlie\\stimuli\\visual\\ipcpts\\sym1.bmp'
g25
I0
tp135
a(g19
g20
g33
I102
I0
g22
S'C:\\Users\\oleach\\Charlie\\charlie\\stimuli\\visual\\ipcpts\\sym8.bmp'
S'C:\\Users\\oleach\\Charlie\\charlie\\stimuli\\visual\\ipcpts\\sym0.bmp'
S'C:\\Users\\oleach\\Charlie\\charlie\\stimuli\\visual\\ipcpts\\sym7.bmp'
g25
I0
tp136
a(g19
g20
g33
I103
I3
g28
S'C:\\Users\\oleach\\Charlie\\charlie\\stimuli\\visual\\ipcpts\\sym8.bmp'
S'C:\\Users\\oleach\\Charlie\\charlie\\stimuli\\visual\\ipcpts\\sym0.bmp'
S'C:\\Users\\oleach\\Charlie\\charlie\\stimuli\\visual\\ipcpts\\sym7.bmp'
g25
I0
tp137
a(g19
g20
g33
I104
I2
g22
S'C:\\Users\\oleach\\Charlie\\charlie\\stimuli\\visual\\ipcpts\\sym8.bmp'
S'C:\\Users\\oleach\\Charlie\\charlie\\stimuli\\visual\\ipcpts\\sym0.bmp'
S'C:\\Users\\oleach\\Charlie\\charlie\\stimuli\\visual\\ipcpts\\sym1.bmp'
g25
I0
tp138
a(g19
g20
g33
I105
I1
g22
S'C:\\Users\\oleach\\Charlie\\charlie\\stimuli\\visual\\ipcpts\\sym8.bmp'
S'C:\\Users\\oleach\\Charlie\\charlie\\stimuli\\visual\\ipcpts\\sym4.bmp'
S'C:\\Users\\oleach\\Charlie\\charlie\\stimuli\\visual\\ipcpts\\sym7.bmp'
g23
I584
tp139
a(g19
g20
g33
I106
I0
g22
S'C:\\Users\\oleach\\Charlie\\charlie\\stimuli\\visual\\ipcpts\\sym1.bmp'
S'C:\\Users\\oleach\\Charlie\\charlie\\stimuli\\visual\\ipcpts\\sym3.bmp'
S'C:\\Users\\oleach\\Charlie\\charlie\\stimuli\\visual\\ipcpts\\sym6.bmp'
g25
I0
tp140
a(g19
g20
g33
I107
I3
g28
S'C:\\Users\\oleach\\Charlie\\charlie\\stimuli\\visual\\ipcpts\\sym1.bmp'
S'C:\\Users\\oleach\\Charlie\\charlie\\stimuli\\visual\\ipcpts\\sym3.bmp'
S'C:\\Users\\oleach\\Charlie\\charlie\\stimuli\\visual\\ipcpts\\sym6.bmp'
g23
I464
tp141
a(g19
g20
g33
I108
I0
g22
S'C:\\Users\\oleach\\Charlie\\charlie\\stimuli\\visual\\ipcpts\\sym5.bmp'
S'C:\\Users\\oleach\\Charlie\\charlie\\stimuli\\visual\\ipcpts\\sym1.bmp'
S'C:\\Users\\oleach\\Charlie\\charlie\\stimuli\\visual\\ipcpts\\sym0.bmp'
g25
I0
tp142
a(g19
g20
g33
I109
I1
g22
S'C:\\Users\\oleach\\Charlie\\charlie\\stimuli\\visual\\ipcpts\\sym8.bmp'
S'C:\\Users\\oleach\\Charlie\\charlie\\stimuli\\visual\\ipcpts\\sym1.bmp'
S'C:\\Users\\oleach\\Charlie\\charlie\\stimuli\\visual\\ipcpts\\sym2.bmp'
g25
I0
tp143
a(g19
g20
g33
I110
I0
g22
S'C:\\Users\\oleach\\Charlie\\charlie\\stimuli\\visual\\ipcpts\\sym0.bmp'
S'C:\\Users\\oleach\\Charlie\\charlie\\stimuli\\visual\\ipcpts\\sym4.bmp'
S'C:\\Users\\oleach\\Charlie\\charlie\\stimuli\\visual\\ipcpts\\sym5.bmp'
g25
I0
tp144
a(g19
g20
g33
I111
I0
g22
S'C:\\Users\\oleach\\Charlie\\charlie\\stimuli\\visual\\ipcpts\\sym4.bmp'
S'C:\\Users\\oleach\\Charlie\\charlie\\stimuli\\visual\\ipcpts\\sym5.bmp'
S'C:\\Users\\oleach\\Charlie\\charlie\\stimuli\\visual\\ipcpts\\sym7.bmp'
g25
I0
tp145
a(g19
g20
g33
I112
I3
g28
S'C:\\Users\\oleach\\Charlie\\charlie\\stimuli\\visual\\ipcpts\\sym4.bmp'
S'C:\\Users\\oleach\\Charlie\\charlie\\stimuli\\visual\\ipcpts\\sym5.bmp'
S'C:\\Users\\oleach\\Charlie\\charlie\\stimuli\\visual\\ipcpts\\sym7.bmp'
g23
I460
tp146
a(g19
g20
g33
I113
I0
g22
S'C:\\Users\\oleach\\Charlie\\charlie\\stimuli\\visual\\ipcpts\\sym6.bmp'
S'C:\\Users\\oleach\\Charlie\\charlie\\stimuli\\visual\\ipcpts\\sym7.bmp'
S'C:\\Users\\oleach\\Charlie\\charlie\\stimuli\\visual\\ipcpts\\sym0.bmp'
g25
I0
tp147
a(g19
g20
g33
I114
I0
g22
S'C:\\Users\\oleach\\Charlie\\charlie\\stimuli\\visual\\ipcpts\\sym5.bmp'
S'C:\\Users\\oleach\\Charlie\\charlie\\stimuli\\visual\\ipcpts\\sym2.bmp'
S'C:\\Users\\oleach\\Charlie\\charlie\\stimuli\\visual\\ipcpts\\sym1.bmp'
g25
I0
tp148
a(g19
g20
g33
I115
I3
g28
S'C:\\Users\\oleach\\Charlie\\charlie\\stimuli\\visual\\ipcpts\\sym5.bmp'
S'C:\\Users\\oleach\\Charlie\\charlie\\stimuli\\visual\\ipcpts\\sym2.bmp'
S'C:\\Users\\oleach\\Charlie\\charlie\\stimuli\\visual\\ipcpts\\sym1.bmp'
g23
I632
tp149
a(g19
g20
g33
I116
I3
g28
S'C:\\Users\\oleach\\Charlie\\charlie\\stimuli\\visual\\ipcpts\\sym5.bmp'
S'C:\\Users\\oleach\\Charlie\\charlie\\stimuli\\visual\\ipcpts\\sym2.bmp'
S'C:\\Users\\oleach\\Charlie\\charlie\\stimuli\\visual\\ipcpts\\sym1.bmp'
g23
I836
tp150
a(g19
g20
g33
I117
I0
g22
S'C:\\Users\\oleach\\Charlie\\charlie\\stimuli\\visual\\ipcpts\\sym7.bmp'
S'C:\\Users\\oleach\\Charlie\\charlie\\stimuli\\visual\\ipcpts\\sym4.bmp'
S'C:\\Users\\oleach\\Charlie\\charlie\\stimuli\\visual\\ipcpts\\sym5.bmp'
g25
I0
tp151
a(g19
g20
g33
I118
I0
g22
S'C:\\Users\\oleach\\Charlie\\charlie\\stimuli\\visual\\ipcpts\\sym9.bmp'
S'C:\\Users\\oleach\\Charlie\\charlie\\stimuli\\visual\\ipcpts\\sym8.bmp'
S'C:\\Users\\oleach\\Charlie\\charlie\\stimuli\\visual\\ipcpts\\sym0.bmp'
g25
I0
tp152
a(g19
g20
g33
I119
I2
g22
S'C:\\Users\\oleach\\Charlie\\charlie\\stimuli\\visual\\ipcpts\\sym9.bmp'
S'C:\\Users\\oleach\\Charlie\\charlie\\stimuli\\visual\\ipcpts\\sym8.bmp'
S'C:\\Users\\oleach\\Charlie\\charlie\\stimuli\\visual\\ipcpts\\sym6.bmp'
g23
I456
tp153
a(g19
g20
g33
I120
I0
g22
S'C:\\Users\\oleach\\Charlie\\charlie\\stimuli\\visual\\ipcpts\\sym6.bmp'
S'C:\\Users\\oleach\\Charlie\\charlie\\stimuli\\visual\\ipcpts\\sym3.bmp'
S'C:\\Users\\oleach\\Charlie\\charlie\\stimuli\\visual\\ipcpts\\sym2.bmp'
g25
I0
tp154
a(g19
g20
g33
I121
I3
g28
S'C:\\Users\\oleach\\Charlie\\charlie\\stimuli\\visual\\ipcpts\\sym6.bmp'
S'C:\\Users\\oleach\\Charlie\\charlie\\stimuli\\visual\\ipcpts\\sym3.bmp'
S'C:\\Users\\oleach\\Charlie\\charlie\\stimuli\\visual\\ipcpts\\sym2.bmp'
g23
I624
tp155
a(g19
g20
g33
I122
I0
g22
S'C:\\Users\\oleach\\Charlie\\charlie\\stimuli\\visual\\ipcpts\\sym4.bmp'
S'C:\\Users\\oleach\\Charlie\\charlie\\stimuli\\visual\\ipcpts\\sym5.bmp'
S'C:\\Users\\oleach\\Charlie\\charlie\\stimuli\\visual\\ipcpts\\sym7.bmp'
g25
I0
tp156
a(g19
g20
g33
I123
I1
g22
S'C:\\Users\\oleach\\Charlie\\charlie\\stimuli\\visual\\ipcpts\\sym7.bmp'
S'C:\\Users\\oleach\\Charlie\\charlie\\stimuli\\visual\\ipcpts\\sym5.bmp'
S'C:\\Users\\oleach\\Charlie\\charlie\\stimuli\\visual\\ipcpts\\sym0.bmp'
g25
I0
tp157
a(g19
g20
g33
I124
I3
g28
S'C:\\Users\\oleach\\Charlie\\charlie\\stimuli\\visual\\ipcpts\\sym7.bmp'
S'C:\\Users\\oleach\\Charlie\\charlie\\stimuli\\visual\\ipcpts\\sym5.bmp'
S'C:\\Users\\oleach\\Charlie\\charlie\\stimuli\\visual\\ipcpts\\sym0.bmp'
g23
I636
tp158
a(g19
g20
g33
I125
I3
g28
S'C:\\Users\\oleach\\Charlie\\charlie\\stimuli\\visual\\ipcpts\\sym7.bmp'
S'C:\\Users\\oleach\\Charlie\\charlie\\stimuli\\visual\\ipcpts\\sym5.bmp'
S'C:\\Users\\oleach\\Charlie\\charlie\\stimuli\\visual\\ipcpts\\sym0.bmp'
g23
I568
tp159
a(g19
g20
g33
I126
I3
g28
S'C:\\Users\\oleach\\Charlie\\charlie\\stimuli\\visual\\ipcpts\\sym7.bmp'
S'C:\\Users\\oleach\\Charlie\\charlie\\stimuli\\visual\\ipcpts\\sym5.bmp'
S'C:\\Users\\oleach\\Charlie\\charlie\\stimuli\\visual\\ipcpts\\sym0.bmp'
g23
I620
tp160
a(g19
g20
g33
I127
I3
g28
S'C:\\Users\\oleach\\Charlie\\charlie\\stimuli\\visual\\ipcpts\\sym7.bmp'
S'C:\\Users\\oleach\\Charlie\\charlie\\stimuli\\visual\\ipcpts\\sym5.bmp'
S'C:\\Users\\oleach\\Charlie\\charlie\\stimuli\\visual\\ipcpts\\sym0.bmp'
g23
I472
tp161
a(g19
g20
g33
I128
I3
g28
S'C:\\Users\\oleach\\Charlie\\charlie\\stimuli\\visual\\ipcpts\\sym7.bmp'
S'C:\\Users\\oleach\\Charlie\\charlie\\stimuli\\visual\\ipcpts\\sym5.bmp'
S'C:\\Users\\oleach\\Charlie\\charlie\\stimuli\\visual\\ipcpts\\sym0.bmp'
g23
I596
tp162
a(g19
g20
g33
I129
I2
g22
S'C:\\Users\\oleach\\Charlie\\charlie\\stimuli\\visual\\ipcpts\\sym7.bmp'
S'C:\\Users\\oleach\\Charlie\\charlie\\stimuli\\visual\\ipcpts\\sym1.bmp'
S'C:\\Users\\oleach\\Charlie\\charlie\\stimuli\\visual\\ipcpts\\sym0.bmp'
g23
I624
tp163
a(g19
g20
g33
I130
I3
g28
S'C:\\Users\\oleach\\Charlie\\charlie\\stimuli\\visual\\ipcpts\\sym7.bmp'
S'C:\\Users\\oleach\\Charlie\\charlie\\stimuli\\visual\\ipcpts\\sym1.bmp'
S'C:\\Users\\oleach\\Charlie\\charlie\\stimuli\\visual\\ipcpts\\sym0.bmp'
g23
I612
tp164
a(g19
g20
g33
I131
I0
g22
S'C:\\Users\\oleach\\Charlie\\charlie\\stimuli\\visual\\ipcpts\\sym4.bmp'
S'C:\\Users\\oleach\\Charlie\\charlie\\stimuli\\visual\\ipcpts\\sym9.bmp'
S'C:\\Users\\oleach\\Charlie\\charlie\\stimuli\\visual\\ipcpts\\sym5.bmp'
g25
I0
tp165
a(g19
g20
g33
I132
I0
g22
S'C:\\Users\\oleach\\Charlie\\charlie\\stimuli\\visual\\ipcpts\\sym5.bmp'
S'C:\\Users\\oleach\\Charlie\\charlie\\stimuli\\visual\\ipcpts\\sym0.bmp'
S'C:\\Users\\oleach\\Charlie\\charlie\\stimuli\\visual\\ipcpts\\sym7.bmp'
g25
I0
tp166
a(g19
g20
g33
I133
I1
g22
S'C:\\Users\\oleach\\Charlie\\charlie\\stimuli\\visual\\ipcpts\\sym5.bmp'
S'C:\\Users\\oleach\\Charlie\\charlie\\stimuli\\visual\\ipcpts\\sym7.bmp'
S'C:\\Users\\oleach\\Charlie\\charlie\\stimuli\\visual\\ipcpts\\sym0.bmp'
g23
I560
tp167
a(g19
g20
g33
I134
I0
g22
S'C:\\Users\\oleach\\Charlie\\charlie\\stimuli\\visual\\ipcpts\\sym1.bmp'
S'C:\\Users\\oleach\\Charlie\\charlie\\stimuli\\visual\\ipcpts\\sym3.bmp'
S'C:\\Users\\oleach\\Charlie\\charlie\\stimuli\\visual\\ipcpts\\sym6.bmp'
g25
I0
tp168
a(g19
g20
g33
I135
I3
g28
S'C:\\Users\\oleach\\Charlie\\charlie\\stimuli\\visual\\ipcpts\\sym1.bmp'
S'C:\\Users\\oleach\\Charlie\\charlie\\stimuli\\visual\\ipcpts\\sym3.bmp'
S'C:\\Users\\oleach\\Charlie\\charlie\\stimuli\\visual\\ipcpts\\sym6.bmp'
g23
I696
tp169
a(g19
g20
g33
I136
I0
g22
S'C:\\Users\\oleach\\Charlie\\charlie\\stimuli\\visual\\ipcpts\\sym7.bmp'
S'C:\\Users\\oleach\\Charlie\\charlie\\stimuli\\visual\\ipcpts\\sym4.bmp'
S'C:\\Users\\oleach\\Charlie\\charlie\\stimuli\\visual\\ipcpts\\sym8.bmp'
g25
I0
tp170
a(g19
g20
g33
I137
I0
g22
S'C:\\Users\\oleach\\Charlie\\charlie\\stimuli\\visual\\ipcpts\\sym8.bmp'
S'C:\\Users\\oleach\\Charlie\\charlie\\stimuli\\visual\\ipcpts\\sym0.bmp'
S'C:\\Users\\oleach\\Charlie\\charlie\\stimuli\\visual\\ipcpts\\sym5.bmp'
g25
I0
tp171
a(g19
g20
g33
I138
I3
g28
S'C:\\Users\\oleach\\Charlie\\charlie\\stimuli\\visual\\ipcpts\\sym8.bmp'
S'C:\\Users\\oleach\\Charlie\\charlie\\stimuli\\visual\\ipcpts\\sym0.bmp'
S'C:\\Users\\oleach\\Charlie\\charlie\\stimuli\\visual\\ipcpts\\sym5.bmp'
g23
I604
tp172
a(g19
g20
g33
I139
I0
g22
S'C:\\Users\\oleach\\Charlie\\charlie\\stimuli\\visual\\ipcpts\\sym4.bmp'
S'C:\\Users\\oleach\\Charlie\\charlie\\stimuli\\visual\\ipcpts\\sym1.bmp'
S'C:\\Users\\oleach\\Charlie\\charlie\\stimuli\\visual\\ipcpts\\sym6.bmp'
g25
I0
tp173
a(g19
g20
g33
I140
I0
g22
S'C:\\Users\\oleach\\Charlie\\charlie\\stimuli\\visual\\ipcpts\\sym9.bmp'
S'C:\\Users\\oleach\\Charlie\\charlie\\stimuli\\visual\\ipcpts\\sym8.bmp'
S'C:\\Users\\oleach\\Charlie\\charlie\\stimuli\\visual\\ipcpts\\sym4.bmp'
g25
I0
tp174
a(g19
g20
g33
I141
I1
g22
S'C:\\Users\\oleach\\Charlie\\charlie\\stimuli\\visual\\ipcpts\\sym1.bmp'
S'C:\\Users\\oleach\\Charlie\\charlie\\stimuli\\visual\\ipcpts\\sym8.bmp'
S'C:\\Users\\oleach\\Charlie\\charlie\\stimuli\\visual\\ipcpts\\sym0.bmp'
g25
I0
tp175
a(g19
g20
g33
I142
I2
g22
S'C:\\Users\\oleach\\Charlie\\charlie\\stimuli\\visual\\ipcpts\\sym3.bmp'
S'C:\\Users\\oleach\\Charlie\\charlie\\stimuli\\visual\\ipcpts\\sym8.bmp'
S'C:\\Users\\oleach\\Charlie\\charlie\\stimuli\\visual\\ipcpts\\sym0.bmp'
g25
I0
tp176
a(g19
g20
g33
I143
I0
g22
S'C:\\Users\\oleach\\Charlie\\charlie\\stimuli\\visual\\ipcpts\\sym2.bmp'
S'C:\\Users\\oleach\\Charlie\\charlie\\stimuli\\visual\\ipcpts\\sym6.bmp'
S'C:\\Users\\oleach\\Charlie\\charlie\\stimuli\\visual\\ipcpts\\sym7.bmp'
g25
I0
tp177
a(g19
g20
g33
I144
I3
g28
S'C:\\Users\\oleach\\Charlie\\charlie\\stimuli\\visual\\ipcpts\\sym2.bmp'
S'C:\\Users\\oleach\\Charlie\\charlie\\stimuli\\visual\\ipcpts\\sym6.bmp'
S'C:\\Users\\oleach\\Charlie\\charlie\\stimuli\\visual\\ipcpts\\sym7.bmp'
g23
I388
tp178
a(g19
g20
g33
I145
I0
g22
S'C:\\Users\\oleach\\Charlie\\charlie\\stimuli\\visual\\ipcpts\\sym5.bmp'
S'C:\\Users\\oleach\\Charlie\\charlie\\stimuli\\visual\\ipcpts\\sym0.bmp'
S'C:\\Users\\oleach\\Charlie\\charlie\\stimuli\\visual\\ipcpts\\sym9.bmp'
g25
I0
tp179
a(g19
g20
g33
I146
I1
g22
S'C:\\Users\\oleach\\Charlie\\charlie\\stimuli\\visual\\ipcpts\\sym5.bmp'
S'C:\\Users\\oleach\\Charlie\\charlie\\stimuli\\visual\\ipcpts\\sym8.bmp'
S'C:\\Users\\oleach\\Charlie\\charlie\\stimuli\\visual\\ipcpts\\sym4.bmp'
g25
I0
tp180
a(g19
g20
g33
I147
I3
g28
S'C:\\Users\\oleach\\Charlie\\charlie\\stimuli\\visual\\ipcpts\\sym5.bmp'
S'C:\\Users\\oleach\\Charlie\\charlie\\stimuli\\visual\\ipcpts\\sym8.bmp'
S'C:\\Users\\oleach\\Charlie\\charlie\\stimuli\\visual\\ipcpts\\sym4.bmp'
g23
I280
tp181
a(g19
g20
g33
I148
I0
g22
S'C:\\Users\\oleach\\Charlie\\charlie\\stimuli\\visual\\ipcpts\\sym6.bmp'
S'C:\\Users\\oleach\\Charlie\\charlie\\stimuli\\visual\\ipcpts\\sym2.bmp'
S'C:\\Users\\oleach\\Charlie\\charlie\\stimuli\\visual\\ipcpts\\sym1.bmp'
g25
I0
tp182
a(g19
g20
g33
I149
I0
g22
S'C:\\Users\\oleach\\Charlie\\charlie\\stimuli\\visual\\ipcpts\\sym2.bmp'
S'C:\\Users\\oleach\\Charlie\\charlie\\stimuli\\visual\\ipcpts\\sym1.bmp'
S'C:\\Users\\oleach\\Charlie\\charlie\\stimuli\\visual\\ipcpts\\sym6.bmp'
g25
I0
tp183
a(g19
g20
g33
I150
I2
g22
S'C:\\Users\\oleach\\Charlie\\charlie\\stimuli\\visual\\ipcpts\\sym3.bmp'
S'C:\\Users\\oleach\\Charlie\\charlie\\stimuli\\visual\\ipcpts\\sym1.bmp'
S'C:\\Users\\oleach\\Charlie\\charlie\\stimuli\\visual\\ipcpts\\sym6.bmp'
g25
I0
tp184
a(g19
g20
g33
I151
I3
g28
S'C:\\Users\\oleach\\Charlie\\charlie\\stimuli\\visual\\ipcpts\\sym3.bmp'
S'C:\\Users\\oleach\\Charlie\\charlie\\stimuli\\visual\\ipcpts\\sym1.bmp'
S'C:\\Users\\oleach\\Charlie\\charlie\\stimuli\\visual\\ipcpts\\sym6.bmp'
g25
I0
tp185
a(g19
g20
g33
I152
I1
g22
S'C:\\Users\\oleach\\Charlie\\charlie\\stimuli\\visual\\ipcpts\\sym0.bmp'
S'C:\\Users\\oleach\\Charlie\\charlie\\stimuli\\visual\\ipcpts\\sym1.bmp'
S'C:\\Users\\oleach\\Charlie\\charlie\\stimuli\\visual\\ipcpts\\sym7.bmp'
g25
I0
tp186
a(g19
g20
g33
I153
I0
g22
S'C:\\Users\\oleach\\Charlie\\charlie\\stimuli\\visual\\ipcpts\\sym5.bmp'
S'C:\\Users\\oleach\\Charlie\\charlie\\stimuli\\visual\\ipcpts\\sym6.bmp'
S'C:\\Users\\oleach\\Charlie\\charlie\\stimuli\\visual\\ipcpts\\sym9.bmp'
g25
I0
tp187
a(g19
g20
g33
I154
I3
g28
S'C:\\Users\\oleach\\Charlie\\charlie\\stimuli\\visual\\ipcpts\\sym5.bmp'
S'C:\\Users\\oleach\\Charlie\\charlie\\stimuli\\visual\\ipcpts\\sym6.bmp'
S'C:\\Users\\oleach\\Charlie\\charlie\\stimuli\\visual\\ipcpts\\sym9.bmp'
g23
I324
tp188
a(g19
g20
g33
I155
I3
g28
S'C:\\Users\\oleach\\Charlie\\charlie\\stimuli\\visual\\ipcpts\\sym5.bmp'
S'C:\\Users\\oleach\\Charlie\\charlie\\stimuli\\visual\\ipcpts\\sym6.bmp'
S'C:\\Users\\oleach\\Charlie\\charlie\\stimuli\\visual\\ipcpts\\sym9.bmp'
g25
I0
tp189
a(g19
g20
g33
I156
I0
g22
S'C:\\Users\\oleach\\Charlie\\charlie\\stimuli\\visual\\ipcpts\\sym7.bmp'
S'C:\\Users\\oleach\\Charlie\\charlie\\stimuli\\visual\\ipcpts\\sym0.bmp'
S'C:\\Users\\oleach\\Charlie\\charlie\\stimuli\\visual\\ipcpts\\sym8.bmp'
g25
I0
tp190
a(g19
g20
g33
I157
I3
g28
S'C:\\Users\\oleach\\Charlie\\charlie\\stimuli\\visual\\ipcpts\\sym7.bmp'
S'C:\\Users\\oleach\\Charlie\\charlie\\stimuli\\visual\\ipcpts\\sym0.bmp'
S'C:\\Users\\oleach\\Charlie\\charlie\\stimuli\\visual\\ipcpts\\sym8.bmp'
g25
I0
tp191
a(g19
g20
g33
I158
I0
g22
S'C:\\Users\\oleach\\Charlie\\charlie\\stimuli\\visual\\ipcpts\\sym5.bmp'
S'C:\\Users\\oleach\\Charlie\\charlie\\stimuli\\visual\\ipcpts\\sym1.bmp'
S'C:\\Users\\oleach\\Charlie\\charlie\\stimuli\\visual\\ipcpts\\sym9.bmp'
g25
I0
tp192
a(g19
g20
g33
I159
I3
g28
S'C:\\Users\\oleach\\Charlie\\charlie\\stimuli\\visual\\ipcpts\\sym5.bmp'
S'C:\\Users\\oleach\\Charlie\\charlie\\stimuli\\visual\\ipcpts\\sym1.bmp'
S'C:\\Users\\oleach\\Charlie\\charlie\\stimuli\\visual\\ipcpts\\sym9.bmp'
g23
I344
tp193
a(g19
g20
g33
I160
I3
g28
S'C:\\Users\\oleach\\Charlie\\charlie\\stimuli\\visual\\ipcpts\\sym5.bmp'
S'C:\\Users\\oleach\\Charlie\\charlie\\stimuli\\visual\\ipcpts\\sym1.bmp'
S'C:\\Users\\oleach\\Charlie\\charlie\\stimuli\\visual\\ipcpts\\sym9.bmp'
g25
I0
tp194
a(g19
g20
g33
I161
I3
g28
S'C:\\Users\\oleach\\Charlie\\charlie\\stimuli\\visual\\ipcpts\\sym5.bmp'
S'C:\\Users\\oleach\\Charlie\\charlie\\stimuli\\visual\\ipcpts\\sym1.bmp'
S'C:\\Users\\oleach\\Charlie\\charlie\\stimuli\\visual\\ipcpts\\sym9.bmp'
g23
I304
tp195
a(g19
g20
g33
I162
I2
g22
S'C:\\Users\\oleach\\Charlie\\charlie\\stimuli\\visual\\ipcpts\\sym0.bmp'
S'C:\\Users\\oleach\\Charlie\\charlie\\stimuli\\visual\\ipcpts\\sym1.bmp'
S'C:\\Users\\oleach\\Charlie\\charlie\\stimuli\\visual\\ipcpts\\sym9.bmp'
g25
I0
tp196
a(g19
g20
g33
I163
I0
g22
S'C:\\Users\\oleach\\Charlie\\charlie\\stimuli\\visual\\ipcpts\\sym8.bmp'
S'C:\\Users\\oleach\\Charlie\\charlie\\stimuli\\visual\\ipcpts\\sym0.bmp'
S'C:\\Users\\oleach\\Charlie\\charlie\\stimuli\\visual\\ipcpts\\sym4.bmp'
g25
I0
tp197
a(g19
g20
g33
I164
I2
g22
S'C:\\Users\\oleach\\Charlie\\charlie\\stimuli\\visual\\ipcpts\\sym8.bmp'
S'C:\\Users\\oleach\\Charlie\\charlie\\stimuli\\visual\\ipcpts\\sym0.bmp'
S'C:\\Users\\oleach\\Charlie\\charlie\\stimuli\\visual\\ipcpts\\sym6.bmp'
g23
I556
tp198
a(g19
g20
g33
I165
I3
g28
S'C:\\Users\\oleach\\Charlie\\charlie\\stimuli\\visual\\ipcpts\\sym8.bmp'
S'C:\\Users\\oleach\\Charlie\\charlie\\stimuli\\visual\\ipcpts\\sym0.bmp'
S'C:\\Users\\oleach\\Charlie\\charlie\\stimuli\\visual\\ipcpts\\sym6.bmp'
g25
I0
tp199
a(g19
g20
g33
I166
I0
g22
S'C:\\Users\\oleach\\Charlie\\charlie\\stimuli\\visual\\ipcpts\\sym6.bmp'
S'C:\\Users\\oleach\\Charlie\\charlie\\stimuli\\visual\\ipcpts\\sym3.bmp'
S'C:\\Users\\oleach\\Charlie\\charlie\\stimuli\\visual\\ipcpts\\sym8.bmp'
g23
I396
tp200
a(g19
g20
g33
I167
I0
g22
S'C:\\Users\\oleach\\Charlie\\charlie\\stimuli\\visual\\ipcpts\\sym8.bmp'
S'C:\\Users\\oleach\\Charlie\\charlie\\stimuli\\visual\\ipcpts\\sym4.bmp'
S'C:\\Users\\oleach\\Charlie\\charlie\\stimuli\\visual\\ipcpts\\sym7.bmp'
g25
I0
tp201
a(g19
g20
g33
I168
I3
g28
S'C:\\Users\\oleach\\Charlie\\charlie\\stimuli\\visual\\ipcpts\\sym8.bmp'
S'C:\\Users\\oleach\\Charlie\\charlie\\stimuli\\visual\\ipcpts\\sym4.bmp'
S'C:\\Users\\oleach\\Charlie\\charlie\\stimuli\\visual\\ipcpts\\sym7.bmp'
g23
I340
tp202
a(g19
g20
g33
I169
I1
g22
S'C:\\Users\\oleach\\Charlie\\charlie\\stimuli\\visual\\ipcpts\\sym7.bmp'
S'C:\\Users\\oleach\\Charlie\\charlie\\stimuli\\visual\\ipcpts\\sym4.bmp'
S'C:\\Users\\oleach\\Charlie\\charlie\\stimuli\\visual\\ipcpts\\sym8.bmp'
g25
I0
tp203
a(g19
g20
g33
I170
I0
g22
S'C:\\Users\\oleach\\Charlie\\charlie\\stimuli\\visual\\ipcpts\\sym6.bmp'
S'C:\\Users\\oleach\\Charlie\\charlie\\stimuli\\visual\\ipcpts\\sym8.bmp'
S'C:\\Users\\oleach\\Charlie\\charlie\\stimuli\\visual\\ipcpts\\sym4.bmp'
g25
I0
tp204
a(g19
g20
g33
I171
I3
g28
S'C:\\Users\\oleach\\Charlie\\charlie\\stimuli\\visual\\ipcpts\\sym6.bmp'
S'C:\\Users\\oleach\\Charlie\\charlie\\stimuli\\visual\\ipcpts\\sym8.bmp'
S'C:\\Users\\oleach\\Charlie\\charlie\\stimuli\\visual\\ipcpts\\sym4.bmp'
g25
I0
tp205
a(g19
g20
g33
I172
I0
g22
S'C:\\Users\\oleach\\Charlie\\charlie\\stimuli\\visual\\ipcpts\\sym9.bmp'
S'C:\\Users\\oleach\\Charlie\\charlie\\stimuli\\visual\\ipcpts\\sym2.bmp'
S'C:\\Users\\oleach\\Charlie\\charlie\\stimuli\\visual\\ipcpts\\sym7.bmp'
g25
I0
tp206
a(g19
g20
g33
I173
I3
g28
S'C:\\Users\\oleach\\Charlie\\charlie\\stimuli\\visual\\ipcpts\\sym9.bmp'
S'C:\\Users\\oleach\\Charlie\\charlie\\stimuli\\visual\\ipcpts\\sym2.bmp'
S'C:\\Users\\oleach\\Charlie\\charlie\\stimuli\\visual\\ipcpts\\sym7.bmp'
g25
I0
tp207
a(g19
g20
g33
I174
I2
g22
S'C:\\Users\\oleach\\Charlie\\charlie\\stimuli\\visual\\ipcpts\\sym1.bmp'
S'C:\\Users\\oleach\\Charlie\\charlie\\stimuli\\visual\\ipcpts\\sym2.bmp'
S'C:\\Users\\oleach\\Charlie\\charlie\\stimuli\\visual\\ipcpts\\sym7.bmp'
g25
I0
tp208
a(g19
g20
g33
I175
I3
g28
S'C:\\Users\\oleach\\Charlie\\charlie\\stimuli\\visual\\ipcpts\\sym1.bmp'
S'C:\\Users\\oleach\\Charlie\\charlie\\stimuli\\visual\\ipcpts\\sym2.bmp'
S'C:\\Users\\oleach\\Charlie\\charlie\\stimuli\\visual\\ipcpts\\sym7.bmp'
g25
I0
tp209
a(g19
g20
g33
I176
I0
g22
S'C:\\Users\\oleach\\Charlie\\charlie\\stimuli\\visual\\ipcpts\\sym4.bmp'
S'C:\\Users\\oleach\\Charlie\\charlie\\stimuli\\visual\\ipcpts\\sym8.bmp'
S'C:\\Users\\oleach\\Charlie\\charlie\\stimuli\\visual\\ipcpts\\sym6.bmp'
g25
I0
tp210
a(g19
g20
g33
I177
I3
g28
S'C:\\Users\\oleach\\Charlie\\charlie\\stimuli\\visual\\ipcpts\\sym4.bmp'
S'C:\\Users\\oleach\\Charlie\\charlie\\stimuli\\visual\\ipcpts\\sym8.bmp'
S'C:\\Users\\oleach\\Charlie\\charlie\\stimuli\\visual\\ipcpts\\sym6.bmp'
g25
I0
tp211
a(g19
g20
g33
I178
I3
g28
S'C:\\Users\\oleach\\Charlie\\charlie\\stimuli\\visual\\ipcpts\\sym4.bmp'
S'C:\\Users\\oleach\\Charlie\\charlie\\stimuli\\visual\\ipcpts\\sym8.bmp'
S'C:\\Users\\oleach\\Charlie\\charlie\\stimuli\\visual\\ipcpts\\sym6.bmp'
g23
I300
tp212
a(g19
g20
g33
I179
I3
g28
S'C:\\Users\\oleach\\Charlie\\charlie\\stimuli\\visual\\ipcpts\\sym4.bmp'
S'C:\\Users\\oleach\\Charlie\\charlie\\stimuli\\visual\\ipcpts\\sym8.bmp'
S'C:\\Users\\oleach\\Charlie\\charlie\\stimuli\\visual\\ipcpts\\sym6.bmp'
g25
I0
tp213
a(g19
g20
g33
I180
I2
g22
S'C:\\Users\\oleach\\Charlie\\charlie\\stimuli\\visual\\ipcpts\\sym0.bmp'
S'C:\\Users\\oleach\\Charlie\\charlie\\stimuli\\visual\\ipcpts\\sym8.bmp'
S'C:\\Users\\oleach\\Charlie\\charlie\\stimuli\\visual\\ipcpts\\sym6.bmp'
g25
I0
tp214
a(g19
g20
g33
I181
I2
g22
S'C:\\Users\\oleach\\Charlie\\charlie\\stimuli\\visual\\ipcpts\\sym9.bmp'
S'C:\\Users\\oleach\\Charlie\\charlie\\stimuli\\visual\\ipcpts\\sym8.bmp'
S'C:\\Users\\oleach\\Charlie\\charlie\\stimuli\\visual\\ipcpts\\sym6.bmp'
g25
I0
tp215
a(g19
g20
g33
I182
I0
g22
S'C:\\Users\\oleach\\Charlie\\charlie\\stimuli\\visual\\ipcpts\\sym7.bmp'
S'C:\\Users\\oleach\\Charlie\\charlie\\stimuli\\visual\\ipcpts\\sym3.bmp'
S'C:\\Users\\oleach\\Charlie\\charlie\\stimuli\\visual\\ipcpts\\sym2.bmp'
g25
I0
tp216
a(g19
g20
g33
I183
I3
g28
S'C:\\Users\\oleach\\Charlie\\charlie\\stimuli\\visual\\ipcpts\\sym7.bmp'
S'C:\\Users\\oleach\\Charlie\\charlie\\stimuli\\visual\\ipcpts\\sym3.bmp'
S'C:\\Users\\oleach\\Charlie\\charlie\\stimuli\\visual\\ipcpts\\sym2.bmp'
g25
I0
tp217
a(g19
g20
g33
I184
I1
g22
S'C:\\Users\\oleach\\Charlie\\charlie\\stimuli\\visual\\ipcpts\\sym9.bmp'
S'C:\\Users\\oleach\\Charlie\\charlie\\stimuli\\visual\\ipcpts\\sym6.bmp'
S'C:\\Users\\oleach\\Charlie\\charlie\\stimuli\\visual\\ipcpts\\sym2.bmp'
g23
I332
tp218
a(g19
g20
g33
I185
I1
g22
S'C:\\Users\\oleach\\Charlie\\charlie\\stimuli\\visual\\ipcpts\\sym4.bmp'
S'C:\\Users\\oleach\\Charlie\\charlie\\stimuli\\visual\\ipcpts\\sym0.bmp'
S'C:\\Users\\oleach\\Charlie\\charlie\\stimuli\\visual\\ipcpts\\sym2.bmp'
g25
I0
tp219
a(g19
g20
g33
I186
I3
g28
S'C:\\Users\\oleach\\Charlie\\charlie\\stimuli\\visual\\ipcpts\\sym4.bmp'
S'C:\\Users\\oleach\\Charlie\\charlie\\stimuli\\visual\\ipcpts\\sym0.bmp'
S'C:\\Users\\oleach\\Charlie\\charlie\\stimuli\\visual\\ipcpts\\sym2.bmp'
g25
I0
tp220
a(g19
g20
g33
I187
I1
g22
S'C:\\Users\\oleach\\Charlie\\charlie\\stimuli\\visual\\ipcpts\\sym4.bmp'
S'C:\\Users\\oleach\\Charlie\\charlie\\stimuli\\visual\\ipcpts\\sym8.bmp'
S'C:\\Users\\oleach\\Charlie\\charlie\\stimuli\\visual\\ipcpts\\sym3.bmp'
g25
I0
tp221
a(g19
g20
g33
I188
I3
g28
S'C:\\Users\\oleach\\Charlie\\charlie\\stimuli\\visual\\ipcpts\\sym4.bmp'
S'C:\\Users\\oleach\\Charlie\\charlie\\stimuli\\visual\\ipcpts\\sym8.bmp'
S'C:\\Users\\oleach\\Charlie\\charlie\\stimuli\\visual\\ipcpts\\sym3.bmp'
g23
I428
tp222
a(g19
g20
g33
I189
I3
g28
S'C:\\Users\\oleach\\Charlie\\charlie\\stimuli\\visual\\ipcpts\\sym4.bmp'
S'C:\\Users\\oleach\\Charlie\\charlie\\stimuli\\visual\\ipcpts\\sym8.bmp'
S'C:\\Users\\oleach\\Charlie\\charlie\\stimuli\\visual\\ipcpts\\sym3.bmp'
g25
I0
tp223
a(g19
g20
g33
I190
I1
g22
S'C:\\Users\\oleach\\Charlie\\charlie\\stimuli\\visual\\ipcpts\\sym9.bmp'
S'C:\\Users\\oleach\\Charlie\\charlie\\stimuli\\visual\\ipcpts\\sym4.bmp'
S'C:\\Users\\oleach\\Charlie\\charlie\\stimuli\\visual\\ipcpts\\sym3.bmp'
g25
I0
tp224
a(g19
g20
g33
I191
I1
g22
S'C:\\Users\\oleach\\Charlie\\charlie\\stimuli\\visual\\ipcpts\\sym6.bmp'
S'C:\\Users\\oleach\\Charlie\\charlie\\stimuli\\visual\\ipcpts\\sym9.bmp'
S'C:\\Users\\oleach\\Charlie\\charlie\\stimuli\\visual\\ipcpts\\sym3.bmp'
g25
I0
tp225
a(g19
g20
g33
I192
I1
g22
S'C:\\Users\\oleach\\Charlie\\charlie\\stimuli\\visual\\ipcpts\\sym1.bmp'
S'C:\\Users\\oleach\\Charlie\\charlie\\stimuli\\visual\\ipcpts\\sym9.bmp'
S'C:\\Users\\oleach\\Charlie\\charlie\\stimuli\\visual\\ipcpts\\sym0.bmp'
g25
I0
tp226
a(g19
g20
g33
I193
I2
g22
S'C:\\Users\\oleach\\Charlie\\charlie\\stimuli\\visual\\ipcpts\\sym1.bmp'
S'C:\\Users\\oleach\\Charlie\\charlie\\stimuli\\visual\\ipcpts\\sym9.bmp'
S'C:\\Users\\oleach\\Charlie\\charlie\\stimuli\\visual\\ipcpts\\sym7.bmp'
g23
I352
tp227
a(g19
g20
g33
I194
I0
g22
S'C:\\Users\\oleach\\Charlie\\charlie\\stimuli\\visual\\ipcpts\\sym7.bmp'
S'C:\\Users\\oleach\\Charlie\\charlie\\stimuli\\visual\\ipcpts\\sym8.bmp'
S'C:\\Users\\oleach\\Charlie\\charlie\\stimuli\\visual\\ipcpts\\sym4.bmp'
g25
I0
tp228
a(g19
g20
g33
I195
I0
g22
S'C:\\Users\\oleach\\Charlie\\charlie\\stimuli\\visual\\ipcpts\\sym0.bmp'
S'C:\\Users\\oleach\\Charlie\\charlie\\stimuli\\visual\\ipcpts\\sym2.bmp'
S'C:\\Users\\oleach\\Charlie\\charlie\\stimuli\\visual\\ipcpts\\sym1.bmp'
g25
I0
tp229
a(g19
g20
g33
I196
I3
g28
S'C:\\Users\\oleach\\Charlie\\charlie\\stimuli\\visual\\ipcpts\\sym0.bmp'
S'C:\\Users\\oleach\\Charlie\\charlie\\stimuli\\visual\\ipcpts\\sym2.bmp'
S'C:\\Users\\oleach\\Charlie\\charlie\\stimuli\\visual\\ipcpts\\sym1.bmp'
g25
I0
tp230
a(g19
g20
g33
I197
I3
g28
S'C:\\Users\\oleach\\Charlie\\charlie\\stimuli\\visual\\ipcpts\\sym0.bmp'
S'C:\\Users\\oleach\\Charlie\\charlie\\stimuli\\visual\\ipcpts\\sym2.bmp'
S'C:\\Users\\oleach\\Charlie\\charlie\\stimuli\\visual\\ipcpts\\sym1.bmp'
g23
I360
tp231
a(g19
g20
g33
I198
I1
g22
S'C:\\Users\\oleach\\Charlie\\charlie\\stimuli\\visual\\ipcpts\\sym0.bmp'
S'C:\\Users\\oleach\\Charlie\\charlie\\stimuli\\visual\\ipcpts\\sym3.bmp'
S'C:\\Users\\oleach\\Charlie\\charlie\\stimuli\\visual\\ipcpts\\sym4.bmp'
g25
I0
tp232
a(g19
g20
g33
I199
I0
g22
S'C:\\Users\\oleach\\Charlie\\charlie\\stimuli\\visual\\ipcpts\\sym9.bmp'
S'C:\\Users\\oleach\\Charlie\\charlie\\stimuli\\visual\\ipcpts\\sym8.bmp'
S'C:\\Users\\oleach\\Charlie\\charlie\\stimuli\\visual\\ipcpts\\sym1.bmp'
g25
I0
tp233
a(g19
g20
g33
I200
I2
g22
S'C:\\Users\\oleach\\Charlie\\charlie\\stimuli\\visual\\ipcpts\\sym3.bmp'
p234
S'C:\\Users\\oleach\\Charlie\\charlie\\stimuli\\visual\\ipcpts\\sym8.bmp'
p235
S'C:\\Users\\oleach\\Charlie\\charlie\\stimuli\\visual\\ipcpts\\sym1.bmp'
p236
g25
I0
tp237
asS'output_format'
p238
(lp239
(S'proband_id'
p240
c__builtin__
str
p241
tp242
a(S'test_name'
p243
g241
tp244
a(S'phase'
p245
g241
tp246
a(S'trialn'
p247
c__builtin__
int
p248
tp249
a(S'matches'
p250
g248
tp251
a(S'ans'
p252
g241
tp253
a(S'symbol1'
p254
g241
tp255
a(S'symbol2'
p256
g241
tp257
a(S'symbol3'
p258
g241
tp259
a(S'rsp'
p260
g241
tp261
a(S'rt'
p262
g248
tp263
asg240
g19
sS'filename'
p264
S'4447_ipcpts.data'
p265
sS'initialised'
p266
g10
(S'\x07\xdf\x08\x13\x0b+\x0c\tR\xb8'
tRp267
sg243
S'ipcpts'
p268
sS'directory'
p269
S'C:\\Users\\oleach\\Charlie\\charlie\\data\\raw'
p270
sS'user_id'
p271
S'oleach'
p272
sS'test_started'
p273
I01
sS'abs_filename'
p274
S'C:\\Users\\oleach\\Charlie\\charlie\\data\\raw\\4447_ipcpts.data'
p275
sS'date_started'
p276
g10
(S'\x07\xdf\x08\x13\x0b,\r\r\xa8\x18'
tRp277
sS'log'
p278
(lp279
(S'2015-08-19 11:43:12.611000'
S'instance created'
p280
tp281
a(S'2015-08-19 11:44:13.899000'
S'instance updated'
p282
tp283
a(S'2015-08-19 11:44:13.943000'
S'pandas DataFrame of data created'
p284
tp285
a(S'2015-08-19 11:44:13.945000'
g282
tp286
a(S'2015-08-19 11:44:13.946000'
S'data saved as csv to C:\\Users\\oleach\\Charlie\\charlie\\data\\csv\\4447_ipcpts.csv'
tp287
a(S'2015-08-19 11:50:18.661000'
g282
tp288
a(S'2015-08-19 11:50:19.910000'
g284
tp289
a(S'2015-08-19 11:50:19.914000'
g282
tp290
a(S'2015-08-19 11:50:19.916000'
S'data saved as csv to C:\\Users\\oleach\\Charlie\\charlie\\data\\csv\\4447_ipcpts.csv'
tp291
a(S'2015-08-19 11:50:19.920000'
g282
tp292
asb.