(icharlie.tools.data
Data
p1
(dp2
S'lang'
p3
S'EN'
p4
sS'control'
p5
(lp6
sS'last_updated'
p7
S'2015-08-19 13:14:04.670000'
p8
sS'last_opened'
p9
cdatetime
datetime
p10
(S'\x07\xdf\x08\x13\r\x07\r\x085\x90'
tRp11
sS'proj_id'
p12
S'connectivity'
p13
sS'date_done'
p14
g10
(S'\x07\xdf\x08\x13\r\x0e\x04\n90'
tRp15
sS'test_done'
p16
I01
sS'data'
p17
(lp18
(S'4447'
p19
S'scap'
p20
S'practice'
p21
I3
I0
S'Yes'
p22
S'C:\\Users\\oleach\\Charlie\\charlie\\stimuli\\visual\\scap\\practice-1.BMP'
S'C:\\Users\\oleach\\Charlie\\charlie\\stimuli\\visual\\scap\\practice-2.BMP'
g22
I1390
tp23
a(g19
g20
g21
I4
I1
S'No'
p24
S'C:\\Users\\oleach\\Charlie\\charlie\\stimuli\\visual\\scap\\practice-3.BMP'
S'C:\\Users\\oleach\\Charlie\\charlie\\stimuli\\visual\\scap\\practice-4.BMP'
g24
I930
tp25
a(g19
g20
g21
I5
I2
g22
S'C:\\Users\\oleach\\Charlie\\charlie\\stimuli\\visual\\scap\\practice-5.BMP'
S'C:\\Users\\oleach\\Charlie\\charlie\\stimuli\\visual\\scap\\practice-6.BMP'
g24
I850
tp26
a(g19
g20
S'test'
p27
I3
I0
g22
S'C:\\Users\\oleach\\Charlie\\charlie\\stimuli\\visual\\scap\\load3-1.BMP'
S'C:\\Users\\oleach\\Charlie\\charlie\\stimuli\\visual\\scap\\load3-2.BMP'
g22
I890
tp28
a(g19
g20
g27
I3
I1
g24
S'C:\\Users\\oleach\\Charlie\\charlie\\stimuli\\visual\\scap\\load3-3.BMP'
S'C:\\Users\\oleach\\Charlie\\charlie\\stimuli\\visual\\scap\\load3-4.BMP'
g24
I320
tp29
a(g19
g20
g27
I3
I2
g22
S'C:\\Users\\oleach\\Charlie\\charlie\\stimuli\\visual\\scap\\load3-5.BMP'
S'C:\\Users\\oleach\\Charlie\\charlie\\stimuli\\visual\\scap\\load3-6.BMP'
g22
I2670
tp30
a(g19
g20
g27
I3
I3
g22
S'C:\\Users\\oleach\\Charlie\\charlie\\stimuli\\visual\\scap\\load3-7.BMP'
S'C:\\Users\\oleach\\Charlie\\charlie\\stimuli\\visual\\scap\\load3-8.BMP'
g24
I1920
tp31
a(g19
g20
g27
I3
I4
g24
S'C:\\Users\\oleach\\Charlie\\charlie\\stimuli\\visual\\scap\\load3-9.BMP'
S'C:\\Users\\oleach\\Charlie\\charlie\\stimuli\\visual\\scap\\load3-10.BMP'
g22
I720
tp32
a(g19
g20
g27
I3
I5
g22
S'C:\\Users\\oleach\\Charlie\\charlie\\stimuli\\visual\\scap\\load3-11.BMP'
S'C:\\Users\\oleach\\Charlie\\charlie\\stimuli\\visual\\scap\\load3-12.BMP'
g24
I1251
tp33
a(g19
g20
g27
I3
I6
g24
S'C:\\Users\\oleach\\Charlie\\charlie\\stimuli\\visual\\scap\\load3-13.BMP'
S'C:\\Users\\oleach\\Charlie\\charlie\\stimuli\\visual\\scap\\load3-14.BMP'
g24
I580
tp34
a(g19
g20
g27
I3
I7
g24
S'C:\\Users\\oleach\\Charlie\\charlie\\stimuli\\visual\\scap\\load3-15.BMP'
S'C:\\Users\\oleach\\Charlie\\charlie\\stimuli\\visual\\scap\\load3-16.BMP'
g22
I980
tp35
a(g19
g20
g27
I3
I8
g22
S'C:\\Users\\oleach\\Charlie\\charlie\\stimuli\\visual\\scap\\load3-17.BMP'
S'C:\\Users\\oleach\\Charlie\\charlie\\stimuli\\visual\\scap\\load3-18.BMP'
g24
I1130
tp36
a(g19
g20
g27
I3
I9
g24
S'C:\\Users\\oleach\\Charlie\\charlie\\stimuli\\visual\\scap\\load3-19.BMP'
S'C:\\Users\\oleach\\Charlie\\charlie\\stimuli\\visual\\scap\\load3-20.BMP'
g22
I550
tp37
a(g19
g20
g27
I3
I10
g22
S'C:\\Users\\oleach\\Charlie\\charlie\\stimuli\\visual\\scap\\load3-21.BMP'
S'C:\\Users\\oleach\\Charlie\\charlie\\stimuli\\visual\\scap\\load3-22.BMP'
g22
I490
tp38
a(g19
g20
g27
I3
I11
g22
S'C:\\Users\\oleach\\Charlie\\charlie\\stimuli\\visual\\scap\\load3-23.BMP'
S'C:\\Users\\oleach\\Charlie\\charlie\\stimuli\\visual\\scap\\load3-24.BMP'
g22
I370
tp39
a(g19
g20
g27
I3
I12
g24
S'C:\\Users\\oleach\\Charlie\\charlie\\stimuli\\visual\\scap\\load3-25.BMP'
S'C:\\Users\\oleach\\Charlie\\charlie\\stimuli\\visual\\scap\\load3-26.BMP'
g24
I1370
tp40
a(g19
g20
g27
I3
I13
g24
S'C:\\Users\\oleach\\Charlie\\charlie\\stimuli\\visual\\scap\\load3-27.BMP'
S'C:\\Users\\oleach\\Charlie\\charlie\\stimuli\\visual\\scap\\load3-28.BMP'
g22
I510
tp41
a(g19
g20
g27
I4
I0
g24
S'C:\\Users\\oleach\\Charlie\\charlie\\stimuli\\visual\\scap\\load4-1.BMP'
S'C:\\Users\\oleach\\Charlie\\charlie\\stimuli\\visual\\scap\\load4-2.BMP'
g22
I1600
tp42
a(g19
g20
g27
I4
I1
g22
S'C:\\Users\\oleach\\Charlie\\charlie\\stimuli\\visual\\scap\\load4-3.BMP'
S'C:\\Users\\oleach\\Charlie\\charlie\\stimuli\\visual\\scap\\load4-4.BMP'
g22
I1440
tp43
a(g19
g20
g27
I4
I2
g22
S'C:\\Users\\oleach\\Charlie\\charlie\\stimuli\\visual\\scap\\load4-5.BMP'
S'C:\\Users\\oleach\\Charlie\\charlie\\stimuli\\visual\\scap\\load4-6.BMP'
g22
I390
tp44
a(g19
g20
g27
I4
I3
g24
S'C:\\Users\\oleach\\Charlie\\charlie\\stimuli\\visual\\scap\\load4-7.BMP'
S'C:\\Users\\oleach\\Charlie\\charlie\\stimuli\\visual\\scap\\load4-8.BMP'
g24
I2421
tp45
a(g19
g20
g27
I4
I4
g24
S'C:\\Users\\oleach\\Charlie\\charlie\\stimuli\\visual\\scap\\load4-9.BMP'
S'C:\\Users\\oleach\\Charlie\\charlie\\stimuli\\visual\\scap\\load4-10.BMP'
g22
I630
tp46
a(g19
g20
g27
I4
I5
g22
S'C:\\Users\\oleach\\Charlie\\charlie\\stimuli\\visual\\scap\\load4-11.BMP'
S'C:\\Users\\oleach\\Charlie\\charlie\\stimuli\\visual\\scap\\load4-12.BMP'
g24
I470
tp47
a(g19
g20
g27
I4
I6
g24
S'C:\\Users\\oleach\\Charlie\\charlie\\stimuli\\visual\\scap\\load4-13.BMP'
S'C:\\Users\\oleach\\Charlie\\charlie\\stimuli\\visual\\scap\\load4-14.BMP'
g22
I2590
tp48
a(g19
g20
g27
I4
I7
g22
S'C:\\Users\\oleach\\Charlie\\charlie\\stimuli\\visual\\scap\\load4-15.BMP'
S'C:\\Users\\oleach\\Charlie\\charlie\\stimuli\\visual\\scap\\load4-16.BMP'
g24
I470
tp49
a(g19
g20
g27
I4
I8
g24
S'C:\\Users\\oleach\\Charlie\\charlie\\stimuli\\visual\\scap\\load4-17.BMP'
S'C:\\Users\\oleach\\Charlie\\charlie\\stimuli\\visual\\scap\\load4-18.BMP'
g24
I560
tp50
a(g19
g20
g27
I4
I9
g22
S'C:\\Users\\oleach\\Charlie\\charlie\\stimuli\\visual\\scap\\load4-19.BMP'
S'C:\\Users\\oleach\\Charlie\\charlie\\stimuli\\visual\\scap\\load4-20.BMP'
g22
I700
tp51
a(g19
g20
g27
I4
I10
g22
S'C:\\Users\\oleach\\Charlie\\charlie\\stimuli\\visual\\scap\\load4-21.BMP'
S'C:\\Users\\oleach\\Charlie\\charlie\\stimuli\\visual\\scap\\load4-22.BMP'
g24
I501
tp52
a(g19
g20
g27
I4
I11
g24
S'C:\\Users\\oleach\\Charlie\\charlie\\stimuli\\visual\\scap\\load4-23.BMP'
S'C:\\Users\\oleach\\Charlie\\charlie\\stimuli\\visual\\scap\\load4-24.BMP'
g22
I760
tp53
a(g19
g20
g27
I4
I12
g22
S'C:\\Users\\oleach\\Charlie\\charlie\\stimuli\\visual\\scap\\load4-25.BMP'
S'C:\\Users\\oleach\\Charlie\\charlie\\stimuli\\visual\\scap\\load4-26.BMP'
g22
I1300
tp54
a(g19
g20
g27
I4
I13
g24
S'C:\\Users\\oleach\\Charlie\\charlie\\stimuli\\visual\\scap\\load4-27.BMP'
S'C:\\Users\\oleach\\Charlie\\charlie\\stimuli\\visual\\scap\\load4-28.BMP'
g24
I450
tp55
a(g19
g20
g27
I5
I0
g22
S'C:\\Users\\oleach\\Charlie\\charlie\\stimuli\\visual\\scap\\load5-1.BMP'
S'C:\\Users\\oleach\\Charlie\\charlie\\stimuli\\visual\\scap\\load5-2.BMP'
g22
I2430
tp56
a(g19
g20
g27
I5
I1
g22
S'C:\\Users\\oleach\\Charlie\\charlie\\stimuli\\visual\\scap\\load5-3.BMP'
S'C:\\Users\\oleach\\Charlie\\charlie\\stimuli\\visual\\scap\\load5-4.BMP'
g24
I340
tp57
a(g19
g20
g27
I5
I2
g22
S'C:\\Users\\oleach\\Charlie\\charlie\\stimuli\\visual\\scap\\load5-5.BMP'
S'C:\\Users\\oleach\\Charlie\\charlie\\stimuli\\visual\\scap\\load5-6.BMP'
g22
I770
tp58
a(g19
g20
g27
I5
I3
g22
S'C:\\Users\\oleach\\Charlie\\charlie\\stimuli\\visual\\scap\\load5-7.BMP'
S'C:\\Users\\oleach\\Charlie\\charlie\\stimuli\\visual\\scap\\load5-8.BMP'
g22
I711
tp59
a(g19
g20
g27
I5
I4
g22
S'C:\\Users\\oleach\\Charlie\\charlie\\stimuli\\visual\\scap\\load5-9.BMP'
S'C:\\Users\\oleach\\Charlie\\charlie\\stimuli\\visual\\scap\\load5-10.BMP'
g24
I830
tp60
a(g19
g20
g27
I5
I5
g22
S'C:\\Users\\oleach\\Charlie\\charlie\\stimuli\\visual\\scap\\load5-11.BMP'
S'C:\\Users\\oleach\\Charlie\\charlie\\stimuli\\visual\\scap\\load5-12.BMP'
g22
I500
tp61
a(g19
g20
g27
I5
I6
g24
S'C:\\Users\\oleach\\Charlie\\charlie\\stimuli\\visual\\scap\\load5-13.BMP'
S'C:\\Users\\oleach\\Charlie\\charlie\\stimuli\\visual\\scap\\load5-14.BMP'
g24
I570
tp62
a(g19
g20
g27
I5
I7
g24
S'C:\\Users\\oleach\\Charlie\\charlie\\stimuli\\visual\\scap\\load5-15.BMP'
S'C:\\Users\\oleach\\Charlie\\charlie\\stimuli\\visual\\scap\\load5-16.BMP'
g24
I490
tp63
a(g19
g20
g27
I5
I8
g24
S'C:\\Users\\oleach\\Charlie\\charlie\\stimuli\\visual\\scap\\load5-17.BMP'
S'C:\\Users\\oleach\\Charlie\\charlie\\stimuli\\visual\\scap\\load5-18.BMP'
g24
I550
tp64
a(g19
g20
g27
I5
I9
g24
S'C:\\Users\\oleach\\Charlie\\charlie\\stimuli\\visual\\scap\\load5-19.BMP'
S'C:\\Users\\oleach\\Charlie\\charlie\\stimuli\\visual\\scap\\load5-20.BMP'
g24
I790
tp65
a(g19
g20
g27
I5
I10
g24
S'C:\\Users\\oleach\\Charlie\\charlie\\stimuli\\visual\\scap\\load5-21.BMP'
S'C:\\Users\\oleach\\Charlie\\charlie\\stimuli\\visual\\scap\\load5-22.BMP'
g22
I970
tp66
a(g19
g20
g27
I5
I11
g22
S'C:\\Users\\oleach\\Charlie\\charlie\\stimuli\\visual\\scap\\load5-23.BMP'
S'C:\\Users\\oleach\\Charlie\\charlie\\stimuli\\visual\\scap\\load5-24.BMP'
g22
I1660
tp67
a(g19
g20
g27
I5
I12
g24
S'C:\\Users\\oleach\\Charlie\\charlie\\stimuli\\visual\\scap\\load5-25.BMP'
S'C:\\Users\\oleach\\Charlie\\charlie\\stimuli\\visual\\scap\\load5-26.BMP'
g24
I1760
tp68
a(g19
g20
g27
I5
I13
g24
S'C:\\Users\\oleach\\Charlie\\charlie\\stimuli\\visual\\scap\\load5-27.BMP'
p69
S'C:\\Users\\oleach\\Charlie\\charlie\\stimuli\\visual\\scap\\load5-28.BMP'
p70
g24
I1210
tp71
asS'output_format'
p72
(lp73
(S'proband_id'
p74
c__builtin__
str
p75
tp76
a(S'test_name'
p77
g75
tp78
a(S'phase'
p79
g75
tp80
a(S'load'
p81
c__builtin__
int
p82
tp83
a(S'trialn'
p84
g82
tp85
a(S'ans'
p86
g75
tp87
a(S'array_f'
p88
g75
tp89
a(S'probe_f'
p90
g75
tp91
a(S'rsp'
p92
g75
tp93
a(S'rt'
p94
g82
tp95
asg74
g19
sS'filename'
p96
S'4447_scap.data'
p97
sS'initialised'
p98
g10
(S'\x07\xdf\x08\x13\r\x07\r\x085\x90'
tRp99
sg77
S'scap'
p100
sS'directory'
p101
S'C:\\Users\\oleach\\Charlie\\charlie\\data\\raw'
p102
sS'user_id'
p103
S'oleach'
p104
sS'test_started'
p105
I01
sS'abs_filename'
p106
S'C:\\Users\\oleach\\Charlie\\charlie\\data\\raw\\4447_scap.data'
p107
sS'date_started'
p108
g10
(S'\x07\xdf\x08\x13\r\x08\x16\x0f:p'
tRp109
sS'log'
p110
(lp111
(S'2015-08-19 13:07:13.538000'
S'instance created'
p112
tp113
a(S'2015-08-19 13:08:23.009000'
S'instance updated'
p114
tp115
a(S'2015-08-19 13:08:23.034000'
S'pandas DataFrame of data created'
p116
tp117
a(S'2015-08-19 13:08:23.040000'
g114
tp118
a(S'2015-08-19 13:08:23.043000'
S'data saved as csv to C:\\Users\\oleach\\Charlie\\charlie\\data\\csv\\4447_scap.csv'
tp119
a(S'2015-08-19 13:08:31.012000'
g114
tp120
a(S'2015-08-19 13:08:31.055000'
g116
tp121
a(S'2015-08-19 13:08:31.064000'
g114
tp122
a(S'2015-08-19 13:08:31.067000'
S'data saved as csv to C:\\Users\\oleach\\Charlie\\charlie\\data\\csv\\4447_scap.csv'
tp123
a(S'2015-08-19 13:08:38.959000'
g114
tp124
a(S'2015-08-19 13:08:39.018000'
g116
tp125
a(S'2015-08-19 13:08:39.027000'
g114
tp126
a(S'2015-08-19 13:08:39.030000'
S'data saved as csv to C:\\Users\\oleach\\Charlie\\charlie\\data\\csv\\4447_scap.csv'
tp127
a(S'2015-08-19 13:08:57.841000'
g114
tp128
a(S'2015-08-19 13:08:57.916000'
g116
tp129
a(S'2015-08-19 13:08:57.925000'
g114
tp130
a(S'2015-08-19 13:08:57.928000'
S'data saved as csv to C:\\Users\\oleach\\Charlie\\charlie\\data\\csv\\4447_scap.csv'
tp131
a(S'2015-08-19 13:09:04.388000'
g114
tp132
a(S'2015-08-19 13:09:04.480000'
g116
tp133
a(S'2015-08-19 13:09:04.488000'
g114
tp134
a(S'2015-08-19 13:09:04.492000'
S'data saved as csv to C:\\Users\\oleach\\Charlie\\charlie\\data\\csv\\4447_scap.csv'
tp135
a(S'2015-08-19 13:09:13.302000'
g114
tp136
a(S'2015-08-19 13:09:13.410000'
g116
tp137
a(S'2015-08-19 13:09:13.418000'
g114
tp138
a(S'2015-08-19 13:09:13.422000'
S'data saved as csv to C:\\Users\\oleach\\Charlie\\charlie\\data\\csv\\4447_scap.csv'
tp139
a(S'2015-08-19 13:09:21.482000'
g114
tp140
a(S'2015-08-19 13:09:21.604000'
g116
tp141
a(S'2015-08-19 13:09:21.613000'
g114
tp142
a(S'2015-08-19 13:09:21.617000'
S'data saved as csv to C:\\Users\\oleach\\Charlie\\charlie\\data\\csv\\4447_scap.csv'
tp143
a(S'2015-08-19 13:09:28.475000'
g114
tp144
a(S'2015-08-19 13:09:28.614000'
g116
tp145
a(S'2015-08-19 13:09:28.623000'
g114
tp146
a(S'2015-08-19 13:09:28.626000'
S'data saved as csv to C:\\Users\\oleach\\Charlie\\charlie\\data\\csv\\4447_scap.csv'
tp147
a(S'2015-08-19 13:09:36.017000'
g114
tp148
a(S'2015-08-19 13:09:36.170000'
g116
tp149
a(S'2015-08-19 13:09:36.179000'
g114
tp150
a(S'2015-08-19 13:09:36.182000'
S'data saved as csv to C:\\Users\\oleach\\Charlie\\charlie\\data\\csv\\4447_scap.csv'
tp151
a(S'2015-08-19 13:09:42.903000'
g114
tp152
a(S'2015-08-19 13:09:43.073000'
g116
tp153
a(S'2015-08-19 13:09:43.082000'
g114
tp154
a(S'2015-08-19 13:09:43.086000'
S'data saved as csv to C:\\Users\\oleach\\Charlie\\charlie\\data\\csv\\4447_scap.csv'
tp155
a(S'2015-08-19 13:09:50.205000'
g114
tp156
a(S'2015-08-19 13:09:50.338000'
g116
tp157
a(S'2015-08-19 13:09:50.344000'
g114
tp158
a(S'2015-08-19 13:09:50.346000'
S'data saved as csv to C:\\Users\\oleach\\Charlie\\charlie\\data\\csv\\4447_scap.csv'
tp159
a(S'2015-08-19 13:09:57.615000'
g114
tp160
a(S'2015-08-19 13:09:57.816000'
g116
tp161
a(S'2015-08-19 13:09:57.825000'
g114
tp162
a(S'2015-08-19 13:09:57.829000'
S'data saved as csv to C:\\Users\\oleach\\Charlie\\charlie\\data\\csv\\4447_scap.csv'
tp163
a(S'2015-08-19 13:10:04.519000'
g114
tp164
a(S'2015-08-19 13:10:04.633000'
g116
tp165
a(S'2015-08-19 13:10:04.637000'
g114
tp166
a(S'2015-08-19 13:10:04.638000'
S'data saved as csv to C:\\Users\\oleach\\Charlie\\charlie\\data\\csv\\4447_scap.csv'
tp167
a(S'2015-08-19 13:10:11.266000'
g114
tp168
a(S'2015-08-19 13:10:11.499000'
g116
tp169
a(S'2015-08-19 13:10:11.508000'
g114
tp170
a(S'2015-08-19 13:10:11.512000'
S'data saved as csv to C:\\Users\\oleach\\Charlie\\charlie\\data\\csv\\4447_scap.csv'
tp171
a(S'2015-08-19 13:10:18.022000'
g114
tp172
a(S'2015-08-19 13:10:18.269000'
g116
tp173
a(S'2015-08-19 13:10:18.279000'
g114
tp174
a(S'2015-08-19 13:10:18.282000'
S'data saved as csv to C:\\Users\\oleach\\Charlie\\charlie\\data\\csv\\4447_scap.csv'
tp175
a(S'2015-08-19 13:10:25.793000'
g114
tp176
a(S'2015-08-19 13:10:25.955000'
g116
tp177
a(S'2015-08-19 13:10:25.960000'
g114
tp178
a(S'2015-08-19 13:10:25.962000'
S'data saved as csv to C:\\Users\\oleach\\Charlie\\charlie\\data\\csv\\4447_scap.csv'
tp179
a(S'2015-08-19 13:10:32.611000'
g114
tp180
a(S'2015-08-19 13:10:32.889000'
g116
tp181
a(S'2015-08-19 13:10:32.898000'
g114
tp182
a(S'2015-08-19 13:10:32.901000'
S'data saved as csv to C:\\Users\\oleach\\Charlie\\charlie\\data\\csv\\4447_scap.csv'
tp183
a(S'2015-08-19 13:10:40.641000'
g114
tp184
a(S'2015-08-19 13:10:40.934000'
g116
tp185
a(S'2015-08-19 13:10:40.943000'
g114
tp186
a(S'2015-08-19 13:10:40.946000'
S'data saved as csv to C:\\Users\\oleach\\Charlie\\charlie\\data\\csv\\4447_scap.csv'
tp187
a(S'2015-08-19 13:10:48.527000'
g114
tp188
a(S'2015-08-19 13:10:48.718000'
g116
tp189
a(S'2015-08-19 13:10:48.724000'
g114
tp190
a(S'2015-08-19 13:10:48.726000'
S'data saved as csv to C:\\Users\\oleach\\Charlie\\charlie\\data\\csv\\4447_scap.csv'
tp191
a(S'2015-08-19 13:10:55.255000'
g114
tp192
a(S'2015-08-19 13:10:55.445000'
g116
tp193
a(S'2015-08-19 13:10:55.448000'
g114
tp194
a(S'2015-08-19 13:10:55.449000'
S'data saved as csv to C:\\Users\\oleach\\Charlie\\charlie\\data\\csv\\4447_scap.csv'
tp195
a(S'2015-08-19 13:11:04.007000'
g114
tp196
a(S'2015-08-19 13:11:04.348000'
g116
tp197
a(S'2015-08-19 13:11:04.357000'
g114
tp198
a(S'2015-08-19 13:11:04.361000'
S'data saved as csv to C:\\Users\\oleach\\Charlie\\charlie\\data\\csv\\4447_scap.csv'
tp199
a(S'2015-08-19 13:11:11.131000'
g114
tp200
a(S'2015-08-19 13:11:11.486000'
g116
tp201
a(S'2015-08-19 13:11:11.495000'
g114
tp202
a(S'2015-08-19 13:11:11.499000'
S'data saved as csv to C:\\Users\\oleach\\Charlie\\charlie\\data\\csv\\4447_scap.csv'
tp203
a(S'2015-08-19 13:11:18.110000'
g114
tp204
a(S'2015-08-19 13:11:18.480000'
g116
tp205
a(S'2015-08-19 13:11:18.490000'
g114
tp206
a(S'2015-08-19 13:11:18.493000'
S'data saved as csv to C:\\Users\\oleach\\Charlie\\charlie\\data\\csv\\4447_scap.csv'
tp207
a(S'2015-08-19 13:11:27.225000'
g114
tp208
a(S'2015-08-19 13:11:27.610000'
g116
tp209
a(S'2015-08-19 13:11:27.619000'
g114
tp210
a(S'2015-08-19 13:11:27.623000'
S'data saved as csv to C:\\Users\\oleach\\Charlie\\charlie\\data\\csv\\4447_scap.csv'
tp211
a(S'2015-08-19 13:11:34.234000'
g114
tp212
a(S'2015-08-19 13:11:34.508000'
g116
tp213
a(S'2015-08-19 13:11:34.514000'
g114
tp214
a(S'2015-08-19 13:11:34.517000'
S'data saved as csv to C:\\Users\\oleach\\Charlie\\charlie\\data\\csv\\4447_scap.csv'
tp215
a(S'2015-08-19 13:11:41.215000'
g114
tp216
a(S'2015-08-19 13:11:41.502000'
g116
tp217
a(S'2015-08-19 13:11:41.508000'
g114
tp218
a(S'2015-08-19 13:11:41.511000'
S'data saved as csv to C:\\Users\\oleach\\Charlie\\charlie\\data\\csv\\4447_scap.csv'
tp219
a(S'2015-08-19 13:11:48.350000'
g114
tp220
a(S'2015-08-19 13:11:48.785000'
g116
tp221
a(S'2015-08-19 13:11:48.794000'
g114
tp222
a(S'2015-08-19 13:11:48.798000'
S'data saved as csv to C:\\Users\\oleach\\Charlie\\charlie\\data\\csv\\4447_scap.csv'
tp223
a(S'2015-08-19 13:11:55.440000'
g114
tp224
a(S'2015-08-19 13:11:55.888000'
g116
tp225
a(S'2015-08-19 13:11:55.894000'
g114
tp226
a(S'2015-08-19 13:11:55.896000'
S'data saved as csv to C:\\Users\\oleach\\Charlie\\charlie\\data\\csv\\4447_scap.csv'
tp227
a(S'2015-08-19 13:12:02.796000'
g114
tp228
a(S'2015-08-19 13:12:03.260000'
g116
tp229
a(S'2015-08-19 13:12:03.270000'
g114
tp230
a(S'2015-08-19 13:12:03.274000'
S'data saved as csv to C:\\Users\\oleach\\Charlie\\charlie\\data\\csv\\4447_scap.csv'
tp231
a(S'2015-08-19 13:12:10.714000'
g114
tp232
a(S'2015-08-19 13:12:11.193000'
g116
tp233
a(S'2015-08-19 13:12:11.203000'
g114
tp234
a(S'2015-08-19 13:12:11.207000'
S'data saved as csv to C:\\Users\\oleach\\Charlie\\charlie\\data\\csv\\4447_scap.csv'
tp235
a(S'2015-08-19 13:12:17.798000'
g114
tp236
a(S'2015-08-19 13:12:18.088000'
g116
tp237
a(S'2015-08-19 13:12:18.094000'
g114
tp238
a(S'2015-08-19 13:12:18.096000'
S'data saved as csv to C:\\Users\\oleach\\Charlie\\charlie\\data\\csv\\4447_scap.csv'
tp239
a(S'2015-08-19 13:12:26.665000'
g114
tp240
a(S'2015-08-19 13:12:26.969000'
g116
tp241
a(S'2015-08-19 13:12:26.975000'
g114
tp242
a(S'2015-08-19 13:12:26.977000'
S'data saved as csv to C:\\Users\\oleach\\Charlie\\charlie\\data\\csv\\4447_scap.csv'
tp243
a(S'2015-08-19 13:12:33.456000'
g114
tp244
a(S'2015-08-19 13:12:33.765000'
g116
tp245
a(S'2015-08-19 13:12:33.770000'
g114
tp246
a(S'2015-08-19 13:12:33.772000'
S'data saved as csv to C:\\Users\\oleach\\Charlie\\charlie\\data\\csv\\4447_scap.csv'
tp247
a(S'2015-08-19 13:12:40.682000'
g114
tp248
a(S'2015-08-19 13:12:41.002000'
g116
tp249
a(S'2015-08-19 13:12:41.008000'
g114
tp250
a(S'2015-08-19 13:12:41.010000'
S'data saved as csv to C:\\Users\\oleach\\Charlie\\charlie\\data\\csv\\4447_scap.csv'
tp251
a(S'2015-08-19 13:12:47.860000'
g114
tp252
a(S'2015-08-19 13:12:48.417000'
g116
tp253
a(S'2015-08-19 13:12:48.423000'
g114
tp254
a(S'2015-08-19 13:12:48.426000'
S'data saved as csv to C:\\Users\\oleach\\Charlie\\charlie\\data\\csv\\4447_scap.csv'
tp255
a(S'2015-08-19 13:12:55.396000'
g114
tp256
a(S'2015-08-19 13:12:55.969000'
g116
tp257
a(S'2015-08-19 13:12:55.978000'
g114
tp258
a(S'2015-08-19 13:12:55.982000'
S'data saved as csv to C:\\Users\\oleach\\Charlie\\charlie\\data\\csv\\4447_scap.csv'
tp259
a(S'2015-08-19 13:13:02.625000'
g114
tp260
a(S'2015-08-19 13:13:03.215000'
g116
tp261
a(S'2015-08-19 13:13:03.225000'
g114
tp262
a(S'2015-08-19 13:13:03.229000'
S'data saved as csv to C:\\Users\\oleach\\Charlie\\charlie\\data\\csv\\4447_scap.csv'
tp263
a(S'2015-08-19 13:13:09.939000'
g114
tp264
a(S'2015-08-19 13:13:10.543000'
g116
tp265
a(S'2015-08-19 13:13:10.553000'
g114
tp266
a(S'2015-08-19 13:13:10.557000'
S'data saved as csv to C:\\Users\\oleach\\Charlie\\charlie\\data\\csv\\4447_scap.csv'
tp267
a(S'2015-08-19 13:13:17.188000'
g114
tp268
a(S'2015-08-19 13:13:17.616000'
g116
tp269
a(S'2015-08-19 13:13:17.623000'
g114
tp270
a(S'2015-08-19 13:13:17.626000'
S'data saved as csv to C:\\Users\\oleach\\Charlie\\charlie\\data\\csv\\4447_scap.csv'
tp271
a(S'2015-08-19 13:13:24.309000'
g114
tp272
a(S'2015-08-19 13:13:24.503000'
g116
tp273
a(S'2015-08-19 13:13:24.506000'
g114
tp274
a(S'2015-08-19 13:13:24.507000'
S'data saved as csv to C:\\Users\\oleach\\Charlie\\charlie\\data\\csv\\4447_scap.csv'
tp275
a(S'2015-08-19 13:13:31.436000'
g114
tp276
a(S'2015-08-19 13:13:32.093000'
g116
tp277
a(S'2015-08-19 13:13:32.103000'
g114
tp278
a(S'2015-08-19 13:13:32.107000'
S'data saved as csv to C:\\Users\\oleach\\Charlie\\charlie\\data\\csv\\4447_scap.csv'
tp279
a(S'2015-08-19 13:13:39.218000'
g114
tp280
a(S'2015-08-19 13:13:39.892000'
g116
tp281
a(S'2015-08-19 13:13:39.902000'
g114
tp282
a(S'2015-08-19 13:13:39.906000'
S'data saved as csv to C:\\Users\\oleach\\Charlie\\charlie\\data\\csv\\4447_scap.csv'
tp283
a(S'2015-08-19 13:13:47.708000'
g114
tp284
a(S'2015-08-19 13:13:48.173000'
g116
tp285
a(S'2015-08-19 13:13:48.180000'
g114
tp286
a(S'2015-08-19 13:13:48.183000'
S'data saved as csv to C:\\Users\\oleach\\Charlie\\charlie\\data\\csv\\4447_scap.csv'
tp287
a(S'2015-08-19 13:13:56.084000'
g114
tp288
a(S'2015-08-19 13:13:56.557000'
g116
tp289
a(S'2015-08-19 13:13:56.564000'
g114
tp290
a(S'2015-08-19 13:13:56.567000'
S'data saved as csv to C:\\Users\\oleach\\Charlie\\charlie\\data\\csv\\4447_scap.csv'
tp291
a(S'2015-08-19 13:14:03.917000'
g114
tp292
a(S'2015-08-19 13:14:04.630000'
g116
tp293
a(S'2015-08-19 13:14:04.637000'
g114
tp294
a(S'2015-08-19 13:14:04.640000'
S'data saved as csv to C:\\Users\\oleach\\Charlie\\charlie\\data\\csv\\4447_scap.csv'
tp295
a(S'2015-08-19 13:14:04.670000'
g114
tp296
asb.