(icharlie.tools.data
Data
p1
(dp2
S'lang'
p3
S'EN'
p4
sS'control'
p5
(lp6
sS'last_updated'
p7
cdatetime
datetime
p8
(S'\x07\xdf\t\x19\t.\x0c\x030h'
tRp9
sS'last_opened'
p10
g8
(S'\x07\xdf\t\x19\t,(\x02\x07\x88'
tRp11
sS'proj_id'
p12
S'connectivity'
p13
sS'date_done'
p14
NsS'test_done'
p15
I01
sS'data'
p16
(lp17
(S'4448'
p18
S'face_memory_delay'
p19
S'test'
p20
I0
S'C:\\Users\\jbarrett\\Charlie-master\\charlie\\stimuli\\visual\\face_memory_delay\\ddis10.bmp'
S'No'
p21
g21
I2260
tp22
a(g18
g19
g20
I1
S'C:\\Users\\jbarrett\\Charlie-master\\charlie\\stimuli\\visual\\face_memory_delay\\ddis04.bmp'
g21
g21
I3111
tp23
a(g18
g19
g20
I2
S'C:\\Users\\jbarrett\\Charlie-master\\charlie\\stimuli\\visual\\face_memory_delay\\tar07.bmp'
S'Yes'
p24
g24
I630
tp25
a(g18
g19
g20
I3
S'C:\\Users\\jbarrett\\Charlie-master\\charlie\\stimuli\\visual\\face_memory_delay\\tar18.bmp'
g24
g24
I910
tp26
a(g18
g19
g20
I4
S'C:\\Users\\jbarrett\\Charlie-master\\charlie\\stimuli\\visual\\face_memory_delay\\ddis14.bmp'
g21
g21
I1210
tp27
a(g18
g19
g20
I5
S'C:\\Users\\jbarrett\\Charlie-master\\charlie\\stimuli\\visual\\face_memory_delay\\tar19.bmp'
g24
g24
I1520
tp28
a(g18
g19
g20
I6
S'C:\\Users\\jbarrett\\Charlie-master\\charlie\\stimuli\\visual\\face_memory_delay\\ddis13.bmp'
g21
g21
I1030
tp29
a(g18
g19
g20
I7
S'C:\\Users\\jbarrett\\Charlie-master\\charlie\\stimuli\\visual\\face_memory_delay\\tar15.bmp'
g24
g24
I1350
tp30
a(g18
g19
g20
I8
S'C:\\Users\\jbarrett\\Charlie-master\\charlie\\stimuli\\visual\\face_memory_delay\\tar11.bmp'
g24
g24
I840
tp31
a(g18
g19
g20
I9
S'C:\\Users\\jbarrett\\Charlie-master\\charlie\\stimuli\\visual\\face_memory_delay\\ddis05.bmp'
g21
g21
I1160
tp32
a(g18
g19
g20
I10
S'C:\\Users\\jbarrett\\Charlie-master\\charlie\\stimuli\\visual\\face_memory_delay\\ddis01.bmp'
g21
g21
I1470
tp33
a(g18
g19
g20
I11
S'C:\\Users\\jbarrett\\Charlie-master\\charlie\\stimuli\\visual\\face_memory_delay\\ddis16.bmp'
g21
g21
I1310
tp34
a(g18
g19
g20
I12
S'C:\\Users\\jbarrett\\Charlie-master\\charlie\\stimuli\\visual\\face_memory_delay\\tar02.bmp'
g24
g24
I1050
tp35
a(g18
g19
g20
I13
S'C:\\Users\\jbarrett\\Charlie-master\\charlie\\stimuli\\visual\\face_memory_delay\\tar08.bmp'
g24
g24
I1241
tp36
a(g18
g19
g20
I14
S'C:\\Users\\jbarrett\\Charlie-master\\charlie\\stimuli\\visual\\face_memory_delay\\tar13.bmp'
g24
g21
I1550
tp37
a(g18
g19
g20
I15
S'C:\\Users\\jbarrett\\Charlie-master\\charlie\\stimuli\\visual\\face_memory_delay\\tar20.bmp'
g24
g24
I700
tp38
a(g18
g19
g20
I16
S'C:\\Users\\jbarrett\\Charlie-master\\charlie\\stimuli\\visual\\face_memory_delay\\ddis18.bmp'
g21
g21
I1050
tp39
a(g18
g19
g20
I17
S'C:\\Users\\jbarrett\\Charlie-master\\charlie\\stimuli\\visual\\face_memory_delay\\tar06.bmp'
g24
g24
I950
tp40
a(g18
g19
g20
I18
S'C:\\Users\\jbarrett\\Charlie-master\\charlie\\stimuli\\visual\\face_memory_delay\\ddis07.bmp'
g21
g21
I1180
tp41
a(g18
g19
g20
I19
S'C:\\Users\\jbarrett\\Charlie-master\\charlie\\stimuli\\visual\\face_memory_delay\\ddis08.bmp'
g21
g21
I820
tp42
a(g18
g19
g20
I20
S'C:\\Users\\jbarrett\\Charlie-master\\charlie\\stimuli\\visual\\face_memory_delay\\tar12.bmp'
g24
g24
I1900
tp43
a(g18
g19
g20
I21
S'C:\\Users\\jbarrett\\Charlie-master\\charlie\\stimuli\\visual\\face_memory_delay\\ddis17.bmp'
g21
g21
I2030
tp44
a(g18
g19
g20
I22
S'C:\\Users\\jbarrett\\Charlie-master\\charlie\\stimuli\\visual\\face_memory_delay\\tar05.bmp'
g24
g21
I770
tp45
a(g18
g19
g20
I23
S'C:\\Users\\jbarrett\\Charlie-master\\charlie\\stimuli\\visual\\face_memory_delay\\tar10.bmp'
g24
g24
I1370
tp46
a(g18
g19
g20
I24
S'C:\\Users\\jbarrett\\Charlie-master\\charlie\\stimuli\\visual\\face_memory_delay\\ddis02.bmp'
g21
g21
I1180
tp47
a(g18
g19
g20
I25
S'C:\\Users\\jbarrett\\Charlie-master\\charlie\\stimuli\\visual\\face_memory_delay\\ddis20.bmp'
g21
g21
I2230
tp48
a(g18
g19
g20
I26
S'C:\\Users\\jbarrett\\Charlie-master\\charlie\\stimuli\\visual\\face_memory_delay\\tar17.bmp'
g24
g24
I3921
tp49
a(g18
g19
g20
I27
S'C:\\Users\\jbarrett\\Charlie-master\\charlie\\stimuli\\visual\\face_memory_delay\\ddis15.bmp'
g21
g21
I1000
tp50
a(g18
g19
g20
I28
S'C:\\Users\\jbarrett\\Charlie-master\\charlie\\stimuli\\visual\\face_memory_delay\\tar03.bmp'
g24
g21
I1360
tp51
a(g18
g19
g20
I29
S'C:\\Users\\jbarrett\\Charlie-master\\charlie\\stimuli\\visual\\face_memory_delay\\ddis19.bmp'
g21
g21
I780
tp52
a(g18
g19
g20
I30
S'C:\\Users\\jbarrett\\Charlie-master\\charlie\\stimuli\\visual\\face_memory_delay\\ddis12.bmp'
g21
g21
I830
tp53
a(g18
g19
g20
I31
S'C:\\Users\\jbarrett\\Charlie-master\\charlie\\stimuli\\visual\\face_memory_delay\\tar16.bmp'
g24
g21
I3060
tp54
a(g18
g19
g20
I32
S'C:\\Users\\jbarrett\\Charlie-master\\charlie\\stimuli\\visual\\face_memory_delay\\tar09.bmp'
g24
g21
I730
tp55
a(g18
g19
g20
I33
S'C:\\Users\\jbarrett\\Charlie-master\\charlie\\stimuli\\visual\\face_memory_delay\\ddis09.bmp'
g21
g21
I1760
tp56
a(g18
g19
g20
I34
S'C:\\Users\\jbarrett\\Charlie-master\\charlie\\stimuli\\visual\\face_memory_delay\\tar01.bmp'
g24
g21
I800
tp57
a(g18
g19
g20
I35
S'C:\\Users\\jbarrett\\Charlie-master\\charlie\\stimuli\\visual\\face_memory_delay\\ddis11.bmp'
g21
g21
I810
tp58
a(g18
g19
g20
I36
S'C:\\Users\\jbarrett\\Charlie-master\\charlie\\stimuli\\visual\\face_memory_delay\\ddis03.bmp'
g21
g24
I920
tp59
a(g18
g19
g20
I37
S'C:\\Users\\jbarrett\\Charlie-master\\charlie\\stimuli\\visual\\face_memory_delay\\tar04.bmp'
g24
g24
I950
tp60
a(g18
g19
g20
I38
S'C:\\Users\\jbarrett\\Charlie-master\\charlie\\stimuli\\visual\\face_memory_delay\\tar14.bmp'
g24
g21
I2150
tp61
a(g18
g19
g20
I39
S'C:\\Users\\jbarrett\\Charlie-master\\charlie\\stimuli\\visual\\face_memory_delay\\ddis06.bmp'
p62
g21
g21
I820
tp63
asS'output_format'
p64
(lp65
(S'proband_id'
p66
c__builtin__
str
p67
tp68
a(S'test_name'
p69
g67
tp70
a(S'phase'
p71
g67
tp72
a(S'trialn'
p73
c__builtin__
int
p74
tp75
a(S'f'
g67
tp76
a(S'ans'
p77
g67
tp78
a(S'rsp'
p79
g67
tp80
a(S'rt'
p81
g74
tp82
asg66
g18
sS'filename'
p83
S'4448_face_memory_delay.data'
p84
sS'initialised'
p85
g8
(S'\x07\xdf\t\x19\t,(\x02\x07\x88'
tRp86
sS'last_udated'
p87
g8
(S'\x07\xdf\t\x19\t,(\x02\x07\x88'
tRp88
sg69
S'face_memory_delay'
p89
sS'directory'
p90
S'C:\\Users\\jbarrett\\Charlie-master\\charlie\\data\\raw'
p91
sS'user_id'
p92
S'sbuccheri'
p93
sS'test_started'
p94
I01
sS'abs_filename'
p95
S'C:\\Users\\jbarrett\\Charlie-master\\charlie\\data\\raw\\4448_face_memory_delay.data'
p96
sS'date_started'
p97
g8
(S'\x07\xdf\t\x19\t-\x0e\x02:P'
tRp98
sS'log'
p99
(lp100
(S'2015-09-25 09:44:40.133000'
S'instance created'
p101
tp102
a(S'2015-09-25 09:45:14.157000'
S'instance updated'
p103
tp104
a(S'2015-09-25 09:45:14.164000'
S'pandas DataFrame of data created'
p105
tp106
a(S'2015-09-25 09:45:14.168000'
S'data saved as csv to C:\\Users\\jbarrett\\Charlie-master\\charlie\\data\\csv\\4448_face_memory_delay.csv'
tp107
a(S'2015-09-25 09:45:17.410000'
g103
tp108
a(S'2015-09-25 09:45:17.418000'
g105
tp109
a(S'2015-09-25 09:45:17.422000'
S'data saved as csv to C:\\Users\\jbarrett\\Charlie-master\\charlie\\data\\csv\\4448_face_memory_delay.csv'
tp110
a(S'2015-09-25 09:45:18.182000'
g103
tp111
a(S'2015-09-25 09:45:18.190000'
g105
tp112
a(S'2015-09-25 09:45:18.194000'
S'data saved as csv to C:\\Users\\jbarrett\\Charlie-master\\charlie\\data\\csv\\4448_face_memory_delay.csv'
tp113
a(S'2015-09-25 09:45:19.234000'
g103
tp114
a(S'2015-09-25 09:45:19.242000'
g105
tp115
a(S'2015-09-25 09:45:19.246000'
S'data saved as csv to C:\\Users\\jbarrett\\Charlie-master\\charlie\\data\\csv\\4448_face_memory_delay.csv'
tp116
a(S'2015-09-25 09:45:20.585000'
g103
tp117
a(S'2015-09-25 09:45:20.594000'
g105
tp118
a(S'2015-09-25 09:45:20.598000'
S'data saved as csv to C:\\Users\\jbarrett\\Charlie-master\\charlie\\data\\csv\\4448_face_memory_delay.csv'
tp119
a(S'2015-09-25 09:45:22.248000'
g103
tp120
a(S'2015-09-25 09:45:22.256000'
g105
tp121
a(S'2015-09-25 09:45:22.260000'
S'data saved as csv to C:\\Users\\jbarrett\\Charlie-master\\charlie\\data\\csv\\4448_face_memory_delay.csv'
tp122
a(S'2015-09-25 09:45:23.420000'
g103
tp123
a(S'2015-09-25 09:45:23.428000'
g105
tp124
a(S'2015-09-25 09:45:23.431000'
S'data saved as csv to C:\\Users\\jbarrett\\Charlie-master\\charlie\\data\\csv\\4448_face_memory_delay.csv'
tp125
a(S'2015-09-25 09:45:24.911000'
g103
tp126
a(S'2015-09-25 09:45:24.919000'
g105
tp127
a(S'2015-09-25 09:45:24.924000'
S'data saved as csv to C:\\Users\\jbarrett\\Charlie-master\\charlie\\data\\csv\\4448_face_memory_delay.csv'
tp128
a(S'2015-09-25 09:45:25.894000'
g103
tp129
a(S'2015-09-25 09:45:25.902000'
g105
tp130
a(S'2015-09-25 09:45:25.907000'
S'data saved as csv to C:\\Users\\jbarrett\\Charlie-master\\charlie\\data\\csv\\4448_face_memory_delay.csv'
tp131
a(S'2015-09-25 09:45:27.197000'
g103
tp132
a(S'2015-09-25 09:45:27.205000'
g105
tp133
a(S'2015-09-25 09:45:27.210000'
S'data saved as csv to C:\\Users\\jbarrett\\Charlie-master\\charlie\\data\\csv\\4448_face_memory_delay.csv'
tp134
a(S'2015-09-25 09:45:28.809000'
g103
tp135
a(S'2015-09-25 09:45:28.818000'
g105
tp136
a(S'2015-09-25 09:45:28.822000'
S'data saved as csv to C:\\Users\\jbarrett\\Charlie-master\\charlie\\data\\csv\\4448_face_memory_delay.csv'
tp137
a(S'2015-09-25 09:45:30.262000'
g103
tp138
a(S'2015-09-25 09:45:30.270000'
g105
tp139
a(S'2015-09-25 09:45:30.273000'
S'data saved as csv to C:\\Users\\jbarrett\\Charlie-master\\charlie\\data\\csv\\4448_face_memory_delay.csv'
tp140
a(S'2015-09-25 09:45:31.451000'
g103
tp141
a(S'2015-09-25 09:45:31.459000'
g105
tp142
a(S'2015-09-25 09:45:31.463000'
S'data saved as csv to C:\\Users\\jbarrett\\Charlie-master\\charlie\\data\\csv\\4448_face_memory_delay.csv'
tp143
a(S'2015-09-25 09:45:32.834000'
g103
tp144
a(S'2015-09-25 09:45:32.843000'
g105
tp145
a(S'2015-09-25 09:45:32.847000'
S'data saved as csv to C:\\Users\\jbarrett\\Charlie-master\\charlie\\data\\csv\\4448_face_memory_delay.csv'
tp146
a(S'2015-09-25 09:45:34.528000'
g103
tp147
a(S'2015-09-25 09:45:34.537000'
g105
tp148
a(S'2015-09-25 09:45:34.541000'
S'data saved as csv to C:\\Users\\jbarrett\\Charlie-master\\charlie\\data\\csv\\4448_face_memory_delay.csv'
tp149
a(S'2015-09-25 09:45:35.372000'
g103
tp150
a(S'2015-09-25 09:45:35.380000'
g105
tp151
a(S'2015-09-25 09:45:35.384000'
S'data saved as csv to C:\\Users\\jbarrett\\Charlie-master\\charlie\\data\\csv\\4448_face_memory_delay.csv'
tp152
a(S'2015-09-25 09:45:36.564000'
g103
tp153
a(S'2015-09-25 09:45:36.573000'
g105
tp154
a(S'2015-09-25 09:45:36.577000'
S'data saved as csv to C:\\Users\\jbarrett\\Charlie-master\\charlie\\data\\csv\\4448_face_memory_delay.csv'
tp155
a(S'2015-09-25 09:45:37.657000'
g103
tp156
a(S'2015-09-25 09:45:37.666000'
g105
tp157
a(S'2015-09-25 09:45:37.670000'
S'data saved as csv to C:\\Users\\jbarrett\\Charlie-master\\charlie\\data\\csv\\4448_face_memory_delay.csv'
tp158
a(S'2015-09-25 09:45:38.980000'
g103
tp159
a(S'2015-09-25 09:45:38.989000'
g105
tp160
a(S'2015-09-25 09:45:38.993000'
S'data saved as csv to C:\\Users\\jbarrett\\Charlie-master\\charlie\\data\\csv\\4448_face_memory_delay.csv'
tp161
a(S'2015-09-25 09:45:39.943000'
g103
tp162
a(S'2015-09-25 09:45:39.952000'
g105
tp163
a(S'2015-09-25 09:45:39.956000'
S'data saved as csv to C:\\Users\\jbarrett\\Charlie-master\\charlie\\data\\csv\\4448_face_memory_delay.csv'
tp164
a(S'2015-09-25 09:45:41.988000'
g103
tp165
a(S'2015-09-25 09:45:41.997000'
g105
tp166
a(S'2015-09-25 09:45:42.001000'
S'data saved as csv to C:\\Users\\jbarrett\\Charlie-master\\charlie\\data\\csv\\4448_face_memory_delay.csv'
tp167
a(S'2015-09-25 09:45:44.161000'
g103
tp168
a(S'2015-09-25 09:45:44.170000'
g105
tp169
a(S'2015-09-25 09:45:44.174000'
S'data saved as csv to C:\\Users\\jbarrett\\Charlie-master\\charlie\\data\\csv\\4448_face_memory_delay.csv'
tp170
a(S'2015-09-25 09:45:45.075000'
g103
tp171
a(S'2015-09-25 09:45:45.084000'
g105
tp172
a(S'2015-09-25 09:45:45.088000'
S'data saved as csv to C:\\Users\\jbarrett\\Charlie-master\\charlie\\data\\csv\\4448_face_memory_delay.csv'
tp173
a(S'2015-09-25 09:45:46.588000'
g103
tp174
a(S'2015-09-25 09:45:46.597000'
g105
tp175
a(S'2015-09-25 09:45:46.601000'
S'data saved as csv to C:\\Users\\jbarrett\\Charlie-master\\charlie\\data\\csv\\4448_face_memory_delay.csv'
tp176
a(S'2015-09-25 09:45:47.911000'
g103
tp177
a(S'2015-09-25 09:45:47.920000'
g105
tp178
a(S'2015-09-25 09:45:47.924000'
S'data saved as csv to C:\\Users\\jbarrett\\Charlie-master\\charlie\\data\\csv\\4448_face_memory_delay.csv'
tp179
a(S'2015-09-25 09:45:50.286000'
g103
tp180
a(S'2015-09-25 09:45:50.294000'
g105
tp181
a(S'2015-09-25 09:45:50.299000'
S'data saved as csv to C:\\Users\\jbarrett\\Charlie-master\\charlie\\data\\csv\\4448_face_memory_delay.csv'
tp182
a(S'2015-09-25 09:45:54.351000'
g103
tp183
a(S'2015-09-25 09:45:54.360000'
g105
tp184
a(S'2015-09-25 09:45:54.363000'
S'data saved as csv to C:\\Users\\jbarrett\\Charlie-master\\charlie\\data\\csv\\4448_face_memory_delay.csv'
tp185
a(S'2015-09-25 09:45:55.492000'
g103
tp186
a(S'2015-09-25 09:45:55.501000'
g105
tp187
a(S'2015-09-25 09:45:55.505000'
S'data saved as csv to C:\\Users\\jbarrett\\Charlie-master\\charlie\\data\\csv\\4448_face_memory_delay.csv'
tp188
a(S'2015-09-25 09:45:56.997000'
g103
tp189
a(S'2015-09-25 09:45:57.005000'
g105
tp190
a(S'2015-09-25 09:45:57.009000'
S'data saved as csv to C:\\Users\\jbarrett\\Charlie-master\\charlie\\data\\csv\\4448_face_memory_delay.csv'
tp191
a(S'2015-09-25 09:45:57.921000'
g103
tp192
a(S'2015-09-25 09:45:57.930000'
g105
tp193
a(S'2015-09-25 09:45:57.934000'
S'data saved as csv to C:\\Users\\jbarrett\\Charlie-master\\charlie\\data\\csv\\4448_face_memory_delay.csv'
tp194
a(S'2015-09-25 09:45:58.896000'
g103
tp195
a(S'2015-09-25 09:45:58.904000'
g105
tp196
a(S'2015-09-25 09:45:58.909000'
S'data saved as csv to C:\\Users\\jbarrett\\Charlie-master\\charlie\\data\\csv\\4448_face_memory_delay.csv'
tp197
a(S'2015-09-25 09:46:02.101000'
g103
tp198
a(S'2015-09-25 09:46:02.110000'
g105
tp199
a(S'2015-09-25 09:46:02.114000'
S'data saved as csv to C:\\Users\\jbarrett\\Charlie-master\\charlie\\data\\csv\\4448_face_memory_delay.csv'
tp200
a(S'2015-09-25 09:46:02.975000'
g103
tp201
a(S'2015-09-25 09:46:02.983000'
g105
tp202
a(S'2015-09-25 09:46:02.988000'
S'data saved as csv to C:\\Users\\jbarrett\\Charlie-master\\charlie\\data\\csv\\4448_face_memory_delay.csv'
tp203
a(S'2015-09-25 09:46:04.880000'
g103
tp204
a(S'2015-09-25 09:46:04.888000'
g105
tp205
a(S'2015-09-25 09:46:04.893000'
S'data saved as csv to C:\\Users\\jbarrett\\Charlie-master\\charlie\\data\\csv\\4448_face_memory_delay.csv'
tp206
a(S'2015-09-25 09:46:05.824000'
g103
tp207
a(S'2015-09-25 09:46:05.832000'
g105
tp208
a(S'2015-09-25 09:46:05.837000'
S'data saved as csv to C:\\Users\\jbarrett\\Charlie-master\\charlie\\data\\csv\\4448_face_memory_delay.csv'
tp209
a(S'2015-09-25 09:46:06.778000'
g103
tp210
a(S'2015-09-25 09:46:06.786000'
g105
tp211
a(S'2015-09-25 09:46:06.791000'
S'data saved as csv to C:\\Users\\jbarrett\\Charlie-master\\charlie\\data\\csv\\4448_face_memory_delay.csv'
tp212
a(S'2015-09-25 09:46:07.842000'
g103
tp213
a(S'2015-09-25 09:46:07.851000'
g105
tp214
a(S'2015-09-25 09:46:07.855000'
S'data saved as csv to C:\\Users\\jbarrett\\Charlie-master\\charlie\\data\\csv\\4448_face_memory_delay.csv'
tp215
a(S'2015-09-25 09:46:08.936000'
g103
tp216
a(S'2015-09-25 09:46:08.945000'
g105
tp217
a(S'2015-09-25 09:46:08.949000'
S'data saved as csv to C:\\Users\\jbarrett\\Charlie-master\\charlie\\data\\csv\\4448_face_memory_delay.csv'
tp218
a(S'2015-09-25 09:46:11.231000'
g103
tp219
a(S'2015-09-25 09:46:11.240000'
g105
tp220
a(S'2015-09-25 09:46:11.244000'
S'data saved as csv to C:\\Users\\jbarrett\\Charlie-master\\charlie\\data\\csv\\4448_face_memory_delay.csv'
tp221
a(S'2015-09-25 09:46:12.195000'
g103
tp222
a(S'2015-09-25 09:46:12.204000'
g105
tp223
a(S'2015-09-25 09:46:12.208000'
S'data saved as csv to C:\\Users\\jbarrett\\Charlie-master\\charlie\\data\\csv\\4448_face_memory_delay.csv'
tp224
asb.