(icharlie.tools.data
Data
p1
(dp2
S'lang'
p3
S'EN'
p4
sS'control'
p5
(lp6
sS'last_updated'
p7
cdatetime
datetime
p8
(S'\x07\xdf\t\x19\t4\x1b\x0f&\xe8'
tRp9
sS'last_opened'
p10
g8
(S'\x07\xdf\t\x19\t.\x0c\r\x13\xa8'
tRp11
sS'proj_id'
p12
S'connectivity'
p13
sS'date_done'
p14
NsS'test_done'
p15
I01
sS'data'
p16
(lp17
(S'4448'
p18
S'scap'
p19
S'practice'
p20
I3
I0
S'Yes'
p21
S'C:\\Users\\jbarrett\\Charlie-master\\charlie\\stimuli\\visual\\scap\\practice-1.BMP'
S'C:\\Users\\jbarrett\\Charlie-master\\charlie\\stimuli\\visual\\scap\\practice-2.BMP'
g21
I6311
tp22
a(g18
g19
g20
I4
I1
S'No'
p23
S'C:\\Users\\jbarrett\\Charlie-master\\charlie\\stimuli\\visual\\scap\\practice-3.BMP'
S'C:\\Users\\jbarrett\\Charlie-master\\charlie\\stimuli\\visual\\scap\\practice-4.BMP'
g23
I5500
tp24
a(g18
g19
g20
I5
I2
g21
S'C:\\Users\\jbarrett\\Charlie-master\\charlie\\stimuli\\visual\\scap\\practice-5.BMP'
S'C:\\Users\\jbarrett\\Charlie-master\\charlie\\stimuli\\visual\\scap\\practice-6.BMP'
g23
I1630
tp25
a(g18
g19
S'test'
p26
I3
I0
g21
S'C:\\Users\\jbarrett\\Charlie-master\\charlie\\stimuli\\visual\\scap\\load3-1.BMP'
S'C:\\Users\\jbarrett\\Charlie-master\\charlie\\stimuli\\visual\\scap\\load3-2.BMP'
g21
I1300
tp27
a(g18
g19
g26
I3
I1
g23
S'C:\\Users\\jbarrett\\Charlie-master\\charlie\\stimuli\\visual\\scap\\load3-3.BMP'
S'C:\\Users\\jbarrett\\Charlie-master\\charlie\\stimuli\\visual\\scap\\load3-4.BMP'
g21
I990
tp28
a(g18
g19
g26
I3
I2
g21
S'C:\\Users\\jbarrett\\Charlie-master\\charlie\\stimuli\\visual\\scap\\load3-5.BMP'
S'C:\\Users\\jbarrett\\Charlie-master\\charlie\\stimuli\\visual\\scap\\load3-6.BMP'
g21
I830
tp29
a(g18
g19
g26
I3
I3
g21
S'C:\\Users\\jbarrett\\Charlie-master\\charlie\\stimuli\\visual\\scap\\load3-7.BMP'
S'C:\\Users\\jbarrett\\Charlie-master\\charlie\\stimuli\\visual\\scap\\load3-8.BMP'
g21
I1040
tp30
a(g18
g19
g26
I3
I4
g23
S'C:\\Users\\jbarrett\\Charlie-master\\charlie\\stimuli\\visual\\scap\\load3-9.BMP'
S'C:\\Users\\jbarrett\\Charlie-master\\charlie\\stimuli\\visual\\scap\\load3-10.BMP'
g23
I861
tp31
a(g18
g19
g26
I3
I5
g21
S'C:\\Users\\jbarrett\\Charlie-master\\charlie\\stimuli\\visual\\scap\\load3-11.BMP'
S'C:\\Users\\jbarrett\\Charlie-master\\charlie\\stimuli\\visual\\scap\\load3-12.BMP'
g23
I1530
tp32
a(g18
g19
g26
I3
I6
g23
S'C:\\Users\\jbarrett\\Charlie-master\\charlie\\stimuli\\visual\\scap\\load3-13.BMP'
S'C:\\Users\\jbarrett\\Charlie-master\\charlie\\stimuli\\visual\\scap\\load3-14.BMP'
g23
I710
tp33
a(g18
g19
g26
I3
I7
g23
S'C:\\Users\\jbarrett\\Charlie-master\\charlie\\stimuli\\visual\\scap\\load3-15.BMP'
S'C:\\Users\\jbarrett\\Charlie-master\\charlie\\stimuli\\visual\\scap\\load3-16.BMP'
g21
I670
tp34
a(g18
g19
g26
I3
I8
g21
S'C:\\Users\\jbarrett\\Charlie-master\\charlie\\stimuli\\visual\\scap\\load3-17.BMP'
S'C:\\Users\\jbarrett\\Charlie-master\\charlie\\stimuli\\visual\\scap\\load3-18.BMP'
g21
I1160
tp35
a(g18
g19
g26
I3
I9
g23
S'C:\\Users\\jbarrett\\Charlie-master\\charlie\\stimuli\\visual\\scap\\load3-19.BMP'
S'C:\\Users\\jbarrett\\Charlie-master\\charlie\\stimuli\\visual\\scap\\load3-20.BMP'
g21
I850
tp36
a(g18
g19
g26
I3
I10
g21
S'C:\\Users\\jbarrett\\Charlie-master\\charlie\\stimuli\\visual\\scap\\load3-21.BMP'
S'C:\\Users\\jbarrett\\Charlie-master\\charlie\\stimuli\\visual\\scap\\load3-22.BMP'
g23
I1260
tp37
a(g18
g19
g26
I3
I11
g21
S'C:\\Users\\jbarrett\\Charlie-master\\charlie\\stimuli\\visual\\scap\\load3-23.BMP'
S'C:\\Users\\jbarrett\\Charlie-master\\charlie\\stimuli\\visual\\scap\\load3-24.BMP'
g21
I1070
tp38
a(g18
g19
g26
I3
I12
g23
S'C:\\Users\\jbarrett\\Charlie-master\\charlie\\stimuli\\visual\\scap\\load3-25.BMP'
S'C:\\Users\\jbarrett\\Charlie-master\\charlie\\stimuli\\visual\\scap\\load3-26.BMP'
g21
I1090
tp39
a(g18
g19
g26
I3
I13
g23
S'C:\\Users\\jbarrett\\Charlie-master\\charlie\\stimuli\\visual\\scap\\load3-27.BMP'
S'C:\\Users\\jbarrett\\Charlie-master\\charlie\\stimuli\\visual\\scap\\load3-28.BMP'
g23
I1850
tp40
a(g18
g19
g26
I4
I0
g23
S'C:\\Users\\jbarrett\\Charlie-master\\charlie\\stimuli\\visual\\scap\\load4-1.BMP'
S'C:\\Users\\jbarrett\\Charlie-master\\charlie\\stimuli\\visual\\scap\\load4-2.BMP'
g23
I1590
tp41
a(g18
g19
g26
I4
I1
g21
S'C:\\Users\\jbarrett\\Charlie-master\\charlie\\stimuli\\visual\\scap\\load4-3.BMP'
S'C:\\Users\\jbarrett\\Charlie-master\\charlie\\stimuli\\visual\\scap\\load4-4.BMP'
g21
I660
tp42
a(g18
g19
g26
I4
I2
g21
S'C:\\Users\\jbarrett\\Charlie-master\\charlie\\stimuli\\visual\\scap\\load4-5.BMP'
S'C:\\Users\\jbarrett\\Charlie-master\\charlie\\stimuli\\visual\\scap\\load4-6.BMP'
g21
I1031
tp43
a(g18
g19
g26
I4
I3
g23
S'C:\\Users\\jbarrett\\Charlie-master\\charlie\\stimuli\\visual\\scap\\load4-7.BMP'
S'C:\\Users\\jbarrett\\Charlie-master\\charlie\\stimuli\\visual\\scap\\load4-8.BMP'
g21
I1370
tp44
a(g18
g19
g26
I4
I4
g23
S'C:\\Users\\jbarrett\\Charlie-master\\charlie\\stimuli\\visual\\scap\\load4-9.BMP'
S'C:\\Users\\jbarrett\\Charlie-master\\charlie\\stimuli\\visual\\scap\\load4-10.BMP'
g21
I1090
tp45
a(g18
g19
g26
I4
I5
g21
S'C:\\Users\\jbarrett\\Charlie-master\\charlie\\stimuli\\visual\\scap\\load4-11.BMP'
S'C:\\Users\\jbarrett\\Charlie-master\\charlie\\stimuli\\visual\\scap\\load4-12.BMP'
g23
I960
tp46
a(g18
g19
g26
I4
I6
g23
S'C:\\Users\\jbarrett\\Charlie-master\\charlie\\stimuli\\visual\\scap\\load4-13.BMP'
S'C:\\Users\\jbarrett\\Charlie-master\\charlie\\stimuli\\visual\\scap\\load4-14.BMP'
g23
I1220
tp47
a(g18
g19
g26
I4
I7
g21
S'C:\\Users\\jbarrett\\Charlie-master\\charlie\\stimuli\\visual\\scap\\load4-15.BMP'
S'C:\\Users\\jbarrett\\Charlie-master\\charlie\\stimuli\\visual\\scap\\load4-16.BMP'
g23
I890
tp48
a(g18
g19
g26
I4
I8
g23
S'C:\\Users\\jbarrett\\Charlie-master\\charlie\\stimuli\\visual\\scap\\load4-17.BMP'
S'C:\\Users\\jbarrett\\Charlie-master\\charlie\\stimuli\\visual\\scap\\load4-18.BMP'
g23
I1090
tp49
a(g18
g19
g26
I4
I9
g21
S'C:\\Users\\jbarrett\\Charlie-master\\charlie\\stimuli\\visual\\scap\\load4-19.BMP'
S'C:\\Users\\jbarrett\\Charlie-master\\charlie\\stimuli\\visual\\scap\\load4-20.BMP'
g21
I730
tp50
a(g18
g19
g26
I4
I10
g21
S'C:\\Users\\jbarrett\\Charlie-master\\charlie\\stimuli\\visual\\scap\\load4-21.BMP'
S'C:\\Users\\jbarrett\\Charlie-master\\charlie\\stimuli\\visual\\scap\\load4-22.BMP'
g21
I700
tp51
a(g18
g19
g26
I4
I11
g23
S'C:\\Users\\jbarrett\\Charlie-master\\charlie\\stimuli\\visual\\scap\\load4-23.BMP'
S'C:\\Users\\jbarrett\\Charlie-master\\charlie\\stimuli\\visual\\scap\\load4-24.BMP'
g21
I2370
tp52
a(g18
g19
g26
I4
I12
g21
S'C:\\Users\\jbarrett\\Charlie-master\\charlie\\stimuli\\visual\\scap\\load4-25.BMP'
S'C:\\Users\\jbarrett\\Charlie-master\\charlie\\stimuli\\visual\\scap\\load4-26.BMP'
g21
I1180
tp53
a(g18
g19
g26
I4
I13
g23
S'C:\\Users\\jbarrett\\Charlie-master\\charlie\\stimuli\\visual\\scap\\load4-27.BMP'
S'C:\\Users\\jbarrett\\Charlie-master\\charlie\\stimuli\\visual\\scap\\load4-28.BMP'
g21
I2780
tp54
a(g18
g19
g26
I5
I0
g21
S'C:\\Users\\jbarrett\\Charlie-master\\charlie\\stimuli\\visual\\scap\\load5-1.BMP'
S'C:\\Users\\jbarrett\\Charlie-master\\charlie\\stimuli\\visual\\scap\\load5-2.BMP'
g21
I830
tp55
a(g18
g19
g26
I5
I1
g21
S'C:\\Users\\jbarrett\\Charlie-master\\charlie\\stimuli\\visual\\scap\\load5-3.BMP'
S'C:\\Users\\jbarrett\\Charlie-master\\charlie\\stimuli\\visual\\scap\\load5-4.BMP'
g23
I1570
tp56
a(g18
g19
g26
I5
I2
g21
S'C:\\Users\\jbarrett\\Charlie-master\\charlie\\stimuli\\visual\\scap\\load5-5.BMP'
S'C:\\Users\\jbarrett\\Charlie-master\\charlie\\stimuli\\visual\\scap\\load5-6.BMP'
g21
I950
tp57
a(g18
g19
g26
I5
I3
g21
S'C:\\Users\\jbarrett\\Charlie-master\\charlie\\stimuli\\visual\\scap\\load5-7.BMP'
S'C:\\Users\\jbarrett\\Charlie-master\\charlie\\stimuli\\visual\\scap\\load5-8.BMP'
g23
I1350
tp58
a(g18
g19
g26
I5
I4
g21
S'C:\\Users\\jbarrett\\Charlie-master\\charlie\\stimuli\\visual\\scap\\load5-9.BMP'
S'C:\\Users\\jbarrett\\Charlie-master\\charlie\\stimuli\\visual\\scap\\load5-10.BMP'
g21
I560
tp59
a(g18
g19
g26
I5
I5
g21
S'C:\\Users\\jbarrett\\Charlie-master\\charlie\\stimuli\\visual\\scap\\load5-11.BMP'
S'C:\\Users\\jbarrett\\Charlie-master\\charlie\\stimuli\\visual\\scap\\load5-12.BMP'
g21
I1760
tp60
a(g18
g19
g26
I5
I6
g23
S'C:\\Users\\jbarrett\\Charlie-master\\charlie\\stimuli\\visual\\scap\\load5-13.BMP'
S'C:\\Users\\jbarrett\\Charlie-master\\charlie\\stimuli\\visual\\scap\\load5-14.BMP'
g23
I1010
tp61
a(g18
g19
g26
I5
I7
g23
S'C:\\Users\\jbarrett\\Charlie-master\\charlie\\stimuli\\visual\\scap\\load5-15.BMP'
S'C:\\Users\\jbarrett\\Charlie-master\\charlie\\stimuli\\visual\\scap\\load5-16.BMP'
g23
I1120
tp62
a(g18
g19
g26
I5
I8
g23
S'C:\\Users\\jbarrett\\Charlie-master\\charlie\\stimuli\\visual\\scap\\load5-17.BMP'
S'C:\\Users\\jbarrett\\Charlie-master\\charlie\\stimuli\\visual\\scap\\load5-18.BMP'
g23
I1420
tp63
a(g18
g19
g26
I5
I9
g23
S'C:\\Users\\jbarrett\\Charlie-master\\charlie\\stimuli\\visual\\scap\\load5-19.BMP'
S'C:\\Users\\jbarrett\\Charlie-master\\charlie\\stimuli\\visual\\scap\\load5-20.BMP'
g23
I1020
tp64
a(g18
g19
g26
I5
I10
g23
S'C:\\Users\\jbarrett\\Charlie-master\\charlie\\stimuli\\visual\\scap\\load5-21.BMP'
S'C:\\Users\\jbarrett\\Charlie-master\\charlie\\stimuli\\visual\\scap\\load5-22.BMP'
g23
I1480
tp65
a(g18
g19
g26
I5
I11
g21
S'C:\\Users\\jbarrett\\Charlie-master\\charlie\\stimuli\\visual\\scap\\load5-23.BMP'
S'C:\\Users\\jbarrett\\Charlie-master\\charlie\\stimuli\\visual\\scap\\load5-24.BMP'
g21
I2940
tp66
a(g18
g19
g26
I5
I12
g23
S'C:\\Users\\jbarrett\\Charlie-master\\charlie\\stimuli\\visual\\scap\\load5-25.BMP'
S'C:\\Users\\jbarrett\\Charlie-master\\charlie\\stimuli\\visual\\scap\\load5-26.BMP'
g23
I1720
tp67
a(g18
g19
g26
I5
I13
g23
S'C:\\Users\\jbarrett\\Charlie-master\\charlie\\stimuli\\visual\\scap\\load5-27.BMP'
p68
S'C:\\Users\\jbarrett\\Charlie-master\\charlie\\stimuli\\visual\\scap\\load5-28.BMP'
p69
g23
I940
tp70
asS'output_format'
p71
(lp72
(S'proband_id'
p73
c__builtin__
str
p74
tp75
a(S'test_name'
p76
g74
tp77
a(S'phase'
p78
g74
tp79
a(S'load'
p80
c__builtin__
int
p81
tp82
a(S'trialn'
p83
g81
tp84
a(S'ans'
p85
g74
tp86
a(S'array_f'
p87
g74
tp88
a(S'probe_f'
p89
g74
tp90
a(S'rsp'
p91
g74
tp92
a(S'rt'
p93
g81
tp94
asg73
g18
sS'filename'
p95
S'4448_scap.data'
p96
sS'initialised'
p97
g8
(S'\x07\xdf\t\x19\t.\x0c\r\x13\xa8'
tRp98
sS'last_udated'
p99
g8
(S'\x07\xdf\t\x19\t.\x0c\r\x13\xa8'
tRp100
sg76
S'scap'
p101
sS'directory'
p102
S'C:\\Users\\jbarrett\\Charlie-master\\charlie\\data\\raw'
p103
sS'user_id'
p104
S'sbuccheri'
p105
sS'test_started'
p106
I01
sS'abs_filename'
p107
S'C:\\Users\\jbarrett\\Charlie-master\\charlie\\data\\raw\\4448_scap.data'
p108
sS'date_started'
p109
g8
(S'\x07\xdf\t\x19\t..\t\x1c\x08'
tRp110
sS'log'
p111
(lp112
(S'2015-09-25 09:46:12.857000'
S'instance created'
p113
tp114
a(S'2015-09-25 09:46:46.608000'
S'instance updated'
p115
tp116
a(S'2015-09-25 09:46:46.617000'
S'pandas DataFrame of data created'
p117
tp118
a(S'2015-09-25 09:46:46.621000'
S'data saved as csv to C:\\Users\\jbarrett\\Charlie-master\\charlie\\data\\csv\\4448_scap.csv'
tp119
a(S'2015-09-25 09:46:59.165000'
g115
tp120
a(S'2015-09-25 09:46:59.174000'
g117
tp121
a(S'2015-09-25 09:46:59.178000'
S'data saved as csv to C:\\Users\\jbarrett\\Charlie-master\\charlie\\data\\csv\\4448_scap.csv'
tp122
a(S'2015-09-25 09:47:07.852000'
g115
tp123
a(S'2015-09-25 09:47:07.861000'
g117
tp124
a(S'2015-09-25 09:47:07.865000'
S'data saved as csv to C:\\Users\\jbarrett\\Charlie-master\\charlie\\data\\csv\\4448_scap.csv'
tp125
a(S'2015-09-25 09:47:25.319000'
g115
tp126
a(S'2015-09-25 09:47:25.329000'
g117
tp127
a(S'2015-09-25 09:47:25.333000'
S'data saved as csv to C:\\Users\\jbarrett\\Charlie-master\\charlie\\data\\csv\\4448_scap.csv'
tp128
a(S'2015-09-25 09:47:32.464000'
g115
tp129
a(S'2015-09-25 09:47:32.474000'
g117
tp130
a(S'2015-09-25 09:47:32.478000'
S'data saved as csv to C:\\Users\\jbarrett\\Charlie-master\\charlie\\data\\csv\\4448_scap.csv'
tp131
a(S'2015-09-25 09:47:39.449000'
g115
tp132
a(S'2015-09-25 09:47:39.459000'
g117
tp133
a(S'2015-09-25 09:47:39.463000'
S'data saved as csv to C:\\Users\\jbarrett\\Charlie-master\\charlie\\data\\csv\\4448_scap.csv'
tp134
a(S'2015-09-25 09:47:46.645000'
g115
tp135
a(S'2015-09-25 09:47:46.655000'
g117
tp136
a(S'2015-09-25 09:47:46.660000'
S'data saved as csv to C:\\Users\\jbarrett\\Charlie-master\\charlie\\data\\csv\\4448_scap.csv'
tp137
a(S'2015-09-25 09:47:53.660000'
g115
tp138
a(S'2015-09-25 09:47:53.670000'
g117
tp139
a(S'2015-09-25 09:47:53.675000'
S'data saved as csv to C:\\Users\\jbarrett\\Charlie-master\\charlie\\data\\csv\\4448_scap.csv'
tp140
a(S'2015-09-25 09:48:01.346000'
g115
tp141
a(S'2015-09-25 09:48:01.355000'
g117
tp142
a(S'2015-09-25 09:48:01.359000'
S'data saved as csv to C:\\Users\\jbarrett\\Charlie-master\\charlie\\data\\csv\\4448_scap.csv'
tp143
a(S'2015-09-25 09:48:08.211000'
g115
tp144
a(S'2015-09-25 09:48:08.221000'
g117
tp145
a(S'2015-09-25 09:48:08.225000'
S'data saved as csv to C:\\Users\\jbarrett\\Charlie-master\\charlie\\data\\csv\\4448_scap.csv'
tp146
a(S'2015-09-25 09:48:15.037000'
g115
tp147
a(S'2015-09-25 09:48:15.047000'
g117
tp148
a(S'2015-09-25 09:48:15.051000'
S'data saved as csv to C:\\Users\\jbarrett\\Charlie-master\\charlie\\data\\csv\\4448_scap.csv'
tp149
a(S'2015-09-25 09:48:22.352000'
g115
tp150
a(S'2015-09-25 09:48:22.362000'
g117
tp151
a(S'2015-09-25 09:48:22.366000'
S'data saved as csv to C:\\Users\\jbarrett\\Charlie-master\\charlie\\data\\csv\\4448_scap.csv'
tp152
a(S'2015-09-25 09:48:29.359000'
g115
tp153
a(S'2015-09-25 09:48:29.369000'
g117
tp154
a(S'2015-09-25 09:48:29.373000'
S'data saved as csv to C:\\Users\\jbarrett\\Charlie-master\\charlie\\data\\csv\\4448_scap.csv'
tp155
a(S'2015-09-25 09:48:36.775000'
g115
tp156
a(S'2015-09-25 09:48:36.785000'
g117
tp157
a(S'2015-09-25 09:48:36.789000'
S'data saved as csv to C:\\Users\\jbarrett\\Charlie-master\\charlie\\data\\csv\\4448_scap.csv'
tp158
a(S'2015-09-25 09:48:44.001000'
g115
tp159
a(S'2015-09-25 09:48:44.011000'
g117
tp160
a(S'2015-09-25 09:48:44.015000'
S'data saved as csv to C:\\Users\\jbarrett\\Charlie-master\\charlie\\data\\csv\\4448_scap.csv'
tp161
a(S'2015-09-25 09:48:51.248000'
g115
tp162
a(S'2015-09-25 09:48:51.257000'
g117
tp163
a(S'2015-09-25 09:48:51.262000'
S'data saved as csv to C:\\Users\\jbarrett\\Charlie-master\\charlie\\data\\csv\\4448_scap.csv'
tp164
a(S'2015-09-25 09:48:59.253000'
g115
tp165
a(S'2015-09-25 09:48:59.264000'
g117
tp166
a(S'2015-09-25 09:48:59.268000'
S'data saved as csv to C:\\Users\\jbarrett\\Charlie-master\\charlie\\data\\csv\\4448_scap.csv'
tp167
a(S'2015-09-25 09:49:06.999000'
g115
tp168
a(S'2015-09-25 09:49:07.010000'
g117
tp169
a(S'2015-09-25 09:49:07.015000'
S'data saved as csv to C:\\Users\\jbarrett\\Charlie-master\\charlie\\data\\csv\\4448_scap.csv'
tp170
a(S'2015-09-25 09:49:13.816000'
g115
tp171
a(S'2015-09-25 09:49:13.825000'
g117
tp172
a(S'2015-09-25 09:49:13.830000'
S'data saved as csv to C:\\Users\\jbarrett\\Charlie-master\\charlie\\data\\csv\\4448_scap.csv'
tp173
a(S'2015-09-25 09:49:21.002000'
g115
tp174
a(S'2015-09-25 09:49:21.013000'
g117
tp175
a(S'2015-09-25 09:49:21.017000'
S'data saved as csv to C:\\Users\\jbarrett\\Charlie-master\\charlie\\data\\csv\\4448_scap.csv'
tp176
a(S'2015-09-25 09:49:28.528000'
g115
tp177
a(S'2015-09-25 09:49:28.538000'
g117
tp178
a(S'2015-09-25 09:49:28.543000'
S'data saved as csv to C:\\Users\\jbarrett\\Charlie-master\\charlie\\data\\csv\\4448_scap.csv'
tp179
a(S'2015-09-25 09:49:35.775000'
g115
tp180
a(S'2015-09-25 09:49:35.785000'
g117
tp181
a(S'2015-09-25 09:49:35.789000'
S'data saved as csv to C:\\Users\\jbarrett\\Charlie-master\\charlie\\data\\csv\\4448_scap.csv'
tp182
a(S'2015-09-25 09:49:42.892000'
g115
tp183
a(S'2015-09-25 09:49:42.902000'
g117
tp184
a(S'2015-09-25 09:49:42.907000'
S'data saved as csv to C:\\Users\\jbarrett\\Charlie-master\\charlie\\data\\csv\\4448_scap.csv'
tp185
a(S'2015-09-25 09:49:50.271000'
g115
tp186
a(S'2015-09-25 09:49:50.281000'
g117
tp187
a(S'2015-09-25 09:49:50.285000'
S'data saved as csv to C:\\Users\\jbarrett\\Charlie-master\\charlie\\data\\csv\\4448_scap.csv'
tp188
a(S'2015-09-25 09:49:57.318000'
g115
tp189
a(S'2015-09-25 09:49:57.328000'
g117
tp190
a(S'2015-09-25 09:49:57.332000'
S'data saved as csv to C:\\Users\\jbarrett\\Charlie-master\\charlie\\data\\csv\\4448_scap.csv'
tp191
a(S'2015-09-25 09:50:04.565000'
g115
tp192
a(S'2015-09-25 09:50:04.575000'
g117
tp193
a(S'2015-09-25 09:50:04.580000'
S'data saved as csv to C:\\Users\\jbarrett\\Charlie-master\\charlie\\data\\csv\\4448_scap.csv'
tp194
a(S'2015-09-25 09:50:11.451000'
g115
tp195
a(S'2015-09-25 09:50:11.461000'
g117
tp196
a(S'2015-09-25 09:50:11.465000'
S'data saved as csv to C:\\Users\\jbarrett\\Charlie-master\\charlie\\data\\csv\\4448_scap.csv'
tp197
a(S'2015-09-25 09:50:18.308000'
g115
tp198
a(S'2015-09-25 09:50:18.318000'
g117
tp199
a(S'2015-09-25 09:50:18.323000'
S'data saved as csv to C:\\Users\\jbarrett\\Charlie-master\\charlie\\data\\csv\\4448_scap.csv'
tp200
a(S'2015-09-25 09:50:26.835000'
g115
tp201
a(S'2015-09-25 09:50:26.846000'
g117
tp202
a(S'2015-09-25 09:50:26.850000'
S'data saved as csv to C:\\Users\\jbarrett\\Charlie-master\\charlie\\data\\csv\\4448_scap.csv'
tp203
a(S'2015-09-25 09:50:34.172000'
g115
tp204
a(S'2015-09-25 09:50:34.183000'
g117
tp205
a(S'2015-09-25 09:50:34.186000'
S'data saved as csv to C:\\Users\\jbarrett\\Charlie-master\\charlie\\data\\csv\\4448_scap.csv'
tp206
a(S'2015-09-25 09:50:43.107000'
g115
tp207
a(S'2015-09-25 09:50:43.117000'
g117
tp208
a(S'2015-09-25 09:50:43.122000'
S'data saved as csv to C:\\Users\\jbarrett\\Charlie-master\\charlie\\data\\csv\\4448_scap.csv'
tp209
a(S'2015-09-25 09:50:50.094000'
g115
tp210
a(S'2015-09-25 09:50:50.104000'
g117
tp211
a(S'2015-09-25 09:50:50.109000'
S'data saved as csv to C:\\Users\\jbarrett\\Charlie-master\\charlie\\data\\csv\\4448_scap.csv'
tp212
a(S'2015-09-25 09:50:57.822000'
g115
tp213
a(S'2015-09-25 09:50:57.832000'
g117
tp214
a(S'2015-09-25 09:50:57.837000'
S'data saved as csv to C:\\Users\\jbarrett\\Charlie-master\\charlie\\data\\csv\\4448_scap.csv'
tp215
a(S'2015-09-25 09:51:04.930000'
g115
tp216
a(S'2015-09-25 09:51:04.941000'
g117
tp217
a(S'2015-09-25 09:51:04.945000'
S'data saved as csv to C:\\Users\\jbarrett\\Charlie-master\\charlie\\data\\csv\\4448_scap.csv'
tp218
a(S'2015-09-25 09:51:12.437000'
g115
tp219
a(S'2015-09-25 09:51:12.448000'
g117
tp220
a(S'2015-09-25 09:51:12.452000'
S'data saved as csv to C:\\Users\\jbarrett\\Charlie-master\\charlie\\data\\csv\\4448_scap.csv'
tp221
a(S'2015-09-25 09:51:19.155000'
g115
tp222
a(S'2015-09-25 09:51:19.166000'
g117
tp223
a(S'2015-09-25 09:51:19.170000'
S'data saved as csv to C:\\Users\\jbarrett\\Charlie-master\\charlie\\data\\csv\\4448_scap.csv'
tp224
a(S'2015-09-25 09:51:27.073000'
g115
tp225
a(S'2015-09-25 09:51:27.084000'
g117
tp226
a(S'2015-09-25 09:51:27.089000'
S'data saved as csv to C:\\Users\\jbarrett\\Charlie-master\\charlie\\data\\csv\\4448_scap.csv'
tp227
a(S'2015-09-25 09:51:34.240000'
g115
tp228
a(S'2015-09-25 09:51:34.251000'
g117
tp229
a(S'2015-09-25 09:51:34.255000'
S'data saved as csv to C:\\Users\\jbarrett\\Charlie-master\\charlie\\data\\csv\\4448_scap.csv'
tp230
a(S'2015-09-25 09:51:41.518000'
g115
tp231
a(S'2015-09-25 09:51:41.528000'
g117
tp232
a(S'2015-09-25 09:51:41.533000'
S'data saved as csv to C:\\Users\\jbarrett\\Charlie-master\\charlie\\data\\csv\\4448_scap.csv'
tp233
a(S'2015-09-25 09:51:49.095000'
g115
tp234
a(S'2015-09-25 09:51:49.106000'
g117
tp235
a(S'2015-09-25 09:51:49.111000'
S'data saved as csv to C:\\Users\\jbarrett\\Charlie-master\\charlie\\data\\csv\\4448_scap.csv'
tp236
a(S'2015-09-25 09:51:56.273000'
g115
tp237
a(S'2015-09-25 09:51:56.284000'
g117
tp238
a(S'2015-09-25 09:51:56.288000'
S'data saved as csv to C:\\Users\\jbarrett\\Charlie-master\\charlie\\data\\csv\\4448_scap.csv'
tp239
a(S'2015-09-25 09:52:03.910000'
g115
tp240
a(S'2015-09-25 09:52:03.921000'
g117
tp241
a(S'2015-09-25 09:52:03.925000'
S'data saved as csv to C:\\Users\\jbarrett\\Charlie-master\\charlie\\data\\csv\\4448_scap.csv'
tp242
a(S'2015-09-25 09:52:13.008000'
g115
tp243
a(S'2015-09-25 09:52:13.019000'
g117
tp244
a(S'2015-09-25 09:52:13.024000'
S'data saved as csv to C:\\Users\\jbarrett\\Charlie-master\\charlie\\data\\csv\\4448_scap.csv'
tp245
a(S'2015-09-25 09:52:20.885000'
g115
tp246
a(S'2015-09-25 09:52:20.891000'
g117
tp247
a(S'2015-09-25 09:52:20.894000'
S'data saved as csv to C:\\Users\\jbarrett\\Charlie-master\\charlie\\data\\csv\\4448_scap.csv'
tp248
a(S'2015-09-25 09:52:27.977000'
g115
tp249
a(S'2015-09-25 09:52:27.987000'
g117
tp250
a(S'2015-09-25 09:52:27.992000'
S'data saved as csv to C:\\Users\\jbarrett\\Charlie-master\\charlie\\data\\csv\\4448_scap.csv'
tp251
asb.