(icharlie.tools.data
Data
p1
(dp2
S'lang'
p3
S'EN'
p4
sS'control'
p5
(lp6
sS'last_updated'
p7
cdatetime
datetime
p8
(S'\x07\xdf\t\x19\t\x12-\r/\x00'
tRp9
sS'last_opened'
p10
g8
(S'\x07\xdf\t\x19\t\x0f\x0e\x0e\xc5@'
tRp11
sS'proj_id'
p12
S'connectivity'
p13
sS'date_done'
p14
NsS'test_done'
p15
I01
sS'data'
p16
(lp17
(S'4448'
p18
S'digit_symbol'
p19
S'practice'
p20
I0
I2
I2
S'Yes'
p21
S'C:\\Users\\jbarrett\\Charlie-master\\charlie\\stimuli\\visual\\digit_symbol\\sym2.bmp'
g21
I25672
tp22
a(g18
g19
g20
I1
I6
I6
g21
S'C:\\Users\\jbarrett\\Charlie-master\\charlie\\stimuli\\visual\\digit_symbol\\sym6.bmp'
g21
I4340
tp23
a(g18
g19
g20
I2
I8
I4
S'No'
p24
S'C:\\Users\\jbarrett\\Charlie-master\\charlie\\stimuli\\visual\\digit_symbol\\sym4.bmp'
g24
I7091
tp25
a(g18
g19
g20
I3
I4
I4
g21
S'C:\\Users\\jbarrett\\Charlie-master\\charlie\\stimuli\\visual\\digit_symbol\\sym4.bmp'
g21
I3240
tp26
a(g18
g19
g20
I4
I7
I7
g21
S'C:\\Users\\jbarrett\\Charlie-master\\charlie\\stimuli\\visual\\digit_symbol\\sym7.bmp'
g24
I2310
tp27
a(g18
g19
g20
I5
I6
I5
g24
S'C:\\Users\\jbarrett\\Charlie-master\\charlie\\stimuli\\visual\\digit_symbol\\sym5.bmp'
g24
I6370
tp28
a(g18
g19
g20
I6
I2
I8
g24
S'C:\\Users\\jbarrett\\Charlie-master\\charlie\\stimuli\\visual\\digit_symbol\\sym8.bmp'
g21
I3090
tp29
a(g18
g19
g20
I7
I9
I2
g24
S'C:\\Users\\jbarrett\\Charlie-master\\charlie\\stimuli\\visual\\digit_symbol\\sym2.bmp'
g24
I6880
tp30
a(g18
g19
g20
I8
I3
I7
g24
S'C:\\Users\\jbarrett\\Charlie-master\\charlie\\stimuli\\visual\\digit_symbol\\sym7.bmp'
g24
I3780
tp31
a(g18
g19
g20
I9
I5
I6
g24
S'C:\\Users\\jbarrett\\Charlie-master\\charlie\\stimuli\\visual\\digit_symbol\\sym6.bmp'
g24
I2981
tp32
a(g18
g19
S'test'
p33
I0
I8
I8
g21
S'C:\\Users\\jbarrett\\Charlie-master\\charlie\\stimuli\\visual\\digit_symbol\\sym8.bmp'
g21
I3207
tp34
a(g18
g19
g33
I1
I1
I4
g24
S'C:\\Users\\jbarrett\\Charlie-master\\charlie\\stimuli\\visual\\digit_symbol\\sym4.bmp'
g24
I3703
tp35
a(g18
g19
g33
I2
I2
I8
g24
S'C:\\Users\\jbarrett\\Charlie-master\\charlie\\stimuli\\visual\\digit_symbol\\sym8.bmp'
g24
I3003
tp36
a(g18
g19
g33
I3
I6
I2
g24
S'C:\\Users\\jbarrett\\Charlie-master\\charlie\\stimuli\\visual\\digit_symbol\\sym2.bmp'
g24
I3003
tp37
a(g18
g19
g33
I4
I4
I4
g21
S'C:\\Users\\jbarrett\\Charlie-master\\charlie\\stimuli\\visual\\digit_symbol\\sym4.bmp'
g21
I3503
tp38
a(g18
g19
g33
I5
I9
I5
g24
S'C:\\Users\\jbarrett\\Charlie-master\\charlie\\stimuli\\visual\\digit_symbol\\sym5.bmp'
g24
I4104
tp39
a(g18
g19
g33
I6
I5
I6
g24
S'C:\\Users\\jbarrett\\Charlie-master\\charlie\\stimuli\\visual\\digit_symbol\\sym6.bmp'
g24
I2703
tp40
a(g18
g19
g33
I7
I3
I3
g21
S'C:\\Users\\jbarrett\\Charlie-master\\charlie\\stimuli\\visual\\digit_symbol\\sym3.bmp'
g21
I2103
tp41
a(g18
g19
g33
I8
I4
I4
g21
S'C:\\Users\\jbarrett\\Charlie-master\\charlie\\stimuli\\visual\\digit_symbol\\sym4.bmp'
g21
I2703
tp42
a(g18
g19
g33
I9
I9
I9
g21
S'C:\\Users\\jbarrett\\Charlie-master\\charlie\\stimuli\\visual\\digit_symbol\\sym9.bmp'
g21
I2903
tp43
a(g18
g19
g33
I10
I6
I6
g21
S'C:\\Users\\jbarrett\\Charlie-master\\charlie\\stimuli\\visual\\digit_symbol\\sym6.bmp'
g21
I2003
tp44
a(g18
g19
g33
I11
I1
I1
g21
S'C:\\Users\\jbarrett\\Charlie-master\\charlie\\stimuli\\visual\\digit_symbol\\sym1.bmp'
g21
I1903
tp45
a(g18
g19
g33
I12
I2
I2
g21
S'C:\\Users\\jbarrett\\Charlie-master\\charlie\\stimuli\\visual\\digit_symbol\\sym2.bmp'
g21
I2204
tp46
a(g18
g19
g33
I13
I7
I7
g21
S'C:\\Users\\jbarrett\\Charlie-master\\charlie\\stimuli\\visual\\digit_symbol\\sym7.bmp'
g21
I2403
tp47
a(g18
g19
g33
I14
I3
I3
g21
S'C:\\Users\\jbarrett\\Charlie-master\\charlie\\stimuli\\visual\\digit_symbol\\sym3.bmp'
g21
I2303
tp48
a(g18
g19
g33
I15
I8
I8
g21
S'C:\\Users\\jbarrett\\Charlie-master\\charlie\\stimuli\\visual\\digit_symbol\\sym8.bmp'
g21
I2103
tp49
a(g18
g19
g33
I16
I7
I7
g21
S'C:\\Users\\jbarrett\\Charlie-master\\charlie\\stimuli\\visual\\digit_symbol\\sym7.bmp'
g21
I2003
tp50
a(g18
g19
g33
I17
I5
I3
g24
S'C:\\Users\\jbarrett\\Charlie-master\\charlie\\stimuli\\visual\\digit_symbol\\sym3.bmp'
g24
I2403
tp51
a(g18
g19
g33
I18
I1
I5
g24
S'C:\\Users\\jbarrett\\Charlie-master\\charlie\\stimuli\\visual\\digit_symbol\\sym5.bmp'
g24
I2403
tp52
a(g18
g19
g33
I19
I4
I4
g21
S'C:\\Users\\jbarrett\\Charlie-master\\charlie\\stimuli\\visual\\digit_symbol\\sym4.bmp'
g21
I2204
tp53
a(g18
g19
g33
I20
I7
I8
g24
S'C:\\Users\\jbarrett\\Charlie-master\\charlie\\stimuli\\visual\\digit_symbol\\sym8.bmp'
g24
I2603
tp54
a(g18
g19
g33
I21
I4
I4
g21
S'C:\\Users\\jbarrett\\Charlie-master\\charlie\\stimuli\\visual\\digit_symbol\\sym4.bmp'
g21
I2503
tp55
a(g18
g19
g33
I22
I8
I8
g21
S'C:\\Users\\jbarrett\\Charlie-master\\charlie\\stimuli\\visual\\digit_symbol\\sym8.bmp'
g21
I2603
tp56
a(g18
g19
g33
I23
I3
I3
g21
S'C:\\Users\\jbarrett\\Charlie-master\\charlie\\stimuli\\visual\\digit_symbol\\sym3.bmp'
g21
I1703
tp57
a(g18
g19
g33
I24
I5
I5
g21
S'C:\\Users\\jbarrett\\Charlie-master\\charlie\\stimuli\\visual\\digit_symbol\\sym5.bmp'
g21
I2403
tp58
a(g18
g19
g33
I25
I3
I1
g24
S'C:\\Users\\jbarrett\\Charlie-master\\charlie\\stimuli\\visual\\digit_symbol\\sym1.bmp'
g21
I2403
tp59
a(g18
g19
g33
I26
I6
I9
g24
S'C:\\Users\\jbarrett\\Charlie-master\\charlie\\stimuli\\visual\\digit_symbol\\sym9.bmp'
g21
I2204
tp60
a(g18
g19
g33
I27
I2
I2
g21
S'C:\\Users\\jbarrett\\Charlie-master\\charlie\\stimuli\\visual\\digit_symbol\\sym2.bmp'
g21
I5003
tp61
a(g18
g19
g33
I28
I8
I8
g21
S'C:\\Users\\jbarrett\\Charlie-master\\charlie\\stimuli\\visual\\digit_symbol\\sym8.bmp'
g21
I2603
tp62
a(g18
g19
g33
I29
I9
I2
g24
S'C:\\Users\\jbarrett\\Charlie-master\\charlie\\stimuli\\visual\\digit_symbol\\sym2.bmp'
g24
I2403
tp63
a(g18
g19
g33
I30
I1
I6
g24
S'C:\\Users\\jbarrett\\Charlie-master\\charlie\\stimuli\\visual\\digit_symbol\\sym6.bmp'
g24
I2503
tp64
a(g18
g19
g33
I31
I5
I4
g24
S'C:\\Users\\jbarrett\\Charlie-master\\charlie\\stimuli\\visual\\digit_symbol\\sym4.bmp'
g24
I2403
tp65
asS'output_format'
p66
(lp67
(S'proband_id'
p68
c__builtin__
str
p69
tp70
a(S'test_name'
p71
g69
tp72
a(S'phase'
p73
g69
tp74
a(S'trialn'
p75
c__builtin__
int
p76
tp77
a(S'digit'
p78
g76
tp79
a(S'symbol'
p80
g76
tp81
a(S'ans'
p82
g69
tp83
a(S'f'
g69
tp84
a(S'rsp'
p85
g69
tp86
a(S'rt'
p87
g76
tp88
asg68
g18
sS'filename'
p89
S'4448_digit_symbol.data'
p90
sS'initialised'
p91
g8
(S'\x07\xdf\t\x19\t\x0f\x0e\x0e\xc5@'
tRp92
sS'last_udated'
p93
g8
(S'\x07\xdf\t\x19\t\x0f\x0e\x0e\xc5@'
tRp94
sg71
S'digit_symbol'
p95
sS'directory'
p96
S'C:\\Users\\jbarrett\\Charlie-master\\charlie\\data\\raw'
p97
sS'user_id'
p98
S'sbuccheri'
p99
sS'test_started'
p100
I01
sS'abs_filename'
p101
S'C:\\Users\\jbarrett\\Charlie-master\\charlie\\data\\raw\\4448_digit_symbol.data'
p102
sS'date_started'
p103
g8
(S'\x07\xdf\t\x19\t\x10\r\r\x1f`'
tRp104
sS'log'
p105
(lp106
(S'2015-09-25 09:15:14.968000'
S'instance created'
p107
tp108
a(S'2015-09-25 09:16:13.869000'
S'instance updated'
p109
tp110
a(S'2015-09-25 09:16:13.879000'
S'pandas DataFrame of data created'
p111
tp112
a(S'2015-09-25 09:16:13.883000'
S'data saved as csv to C:\\Users\\jbarrett\\Charlie-master\\charlie\\data\\csv\\4448_digit_symbol.csv'
tp113
a(S'2015-09-25 09:16:19.252000'
g109
tp114
a(S'2015-09-25 09:16:19.262000'
g111
tp115
a(S'2015-09-25 09:16:19.265000'
S'data saved as csv to C:\\Users\\jbarrett\\Charlie-master\\charlie\\data\\csv\\4448_digit_symbol.csv'
tp116
a(S'2015-09-25 09:16:27.384000'
g109
tp117
a(S'2015-09-25 09:16:27.394000'
g111
tp118
a(S'2015-09-25 09:16:27.398000'
S'data saved as csv to C:\\Users\\jbarrett\\Charlie-master\\charlie\\data\\csv\\4448_digit_symbol.csv'
tp119
a(S'2015-09-25 09:16:31.664000'
g109
tp120
a(S'2015-09-25 09:16:31.674000'
g111
tp121
a(S'2015-09-25 09:16:31.678000'
S'data saved as csv to C:\\Users\\jbarrett\\Charlie-master\\charlie\\data\\csv\\4448_digit_symbol.csv'
tp122
a(S'2015-09-25 09:16:35.035000'
g109
tp123
a(S'2015-09-25 09:16:35.045000'
g111
tp124
a(S'2015-09-25 09:16:35.049000'
S'data saved as csv to C:\\Users\\jbarrett\\Charlie-master\\charlie\\data\\csv\\4448_digit_symbol.csv'
tp125
a(S'2015-09-25 09:16:42.446000'
g109
tp126
a(S'2015-09-25 09:16:42.456000'
g111
tp127
a(S'2015-09-25 09:16:42.460000'
S'data saved as csv to C:\\Users\\jbarrett\\Charlie-master\\charlie\\data\\csv\\4448_digit_symbol.csv'
tp128
a(S'2015-09-25 09:16:46.579000'
g109
tp129
a(S'2015-09-25 09:16:46.589000'
g111
tp130
a(S'2015-09-25 09:16:46.593000'
S'data saved as csv to C:\\Users\\jbarrett\\Charlie-master\\charlie\\data\\csv\\4448_digit_symbol.csv'
tp131
a(S'2015-09-25 09:16:54.502000'
g109
tp132
a(S'2015-09-25 09:16:54.512000'
g111
tp133
a(S'2015-09-25 09:16:54.516000'
S'data saved as csv to C:\\Users\\jbarrett\\Charlie-master\\charlie\\data\\csv\\4448_digit_symbol.csv'
tp134
a(S'2015-09-25 09:16:59.324000'
g109
tp135
a(S'2015-09-25 09:16:59.334000'
g111
tp136
a(S'2015-09-25 09:16:59.339000'
S'data saved as csv to C:\\Users\\jbarrett\\Charlie-master\\charlie\\data\\csv\\4448_digit_symbol.csv'
tp137
a(S'2015-09-25 09:17:03.346000'
g109
tp138
a(S'2015-09-25 09:17:03.356000'
g111
tp139
a(S'2015-09-25 09:17:03.360000'
S'data saved as csv to C:\\Users\\jbarrett\\Charlie-master\\charlie\\data\\csv\\4448_digit_symbol.csv'
tp140
a(S'2015-09-25 09:18:45.846000'
g109
tp141
a(S'2015-09-25 09:18:45.858000'
g111
tp142
a(S'2015-09-25 09:18:45.864000'
S'data saved as csv to C:\\Users\\jbarrett\\Charlie-master\\charlie\\data\\csv\\4448_digit_symbol.csv'
tp143
asb.