(icharlie.tools.data
Data
p1
(dp2
S'lang'
p3
S'EN'
p4
sS'control'
p5
(lp6
sS'last_updated'
p7
S'2015-08-23 13:58:09.954000'
p8
sS'last_opened'
p9
cdatetime
datetime
p10
(S'\x07\xdf\x08\x17\r4\x0c\x02\x0bp'
tRp11
sS'proj_id'
p12
S'connectivity'
p13
sS'date_done'
p14
NsS'test_done'
p15
I00
sS'data'
p16
(lp17
(S'4449'
p18
S'updating'
p19
S'prac'
p20
I0
I0
I4
I4
S'------------'
p21
S'4,4,4,4,4,4,4,4,4,4,4,4,4'
p22
I4
I7641
tp23
a(g18
g19
S'prac'
p24
I1
I1
I8
I12
S'-----------d'
p25
S'8,8,8,8,8,8,8,8,8,8,8,8,12'
p26
I8
I2160
tp27
a(g18
g19
S'prac'
p28
I2
I2
I9
I6
S'-----u-----r'
p29
S'9,9,9,9,9,9,5,5,5,5,5,5,6'
p30
I6
I4270
tp31
a(g18
g19
S'test'
p32
I0
I0
I13
I13
S'------------'
p33
S'13,13,13,13,13,13,13,13,13,13,13,13,13'
p34
I13
I1710
tp35
a(g18
g19
S'test'
p36
I1
I0
I15
I15
S'------------'
p37
S'15,15,15,15,15,15,15,15,15,15,15,15,15'
p38
I15
I1100
tp39
a(g18
g19
S'test'
p40
I2
I0
I13
I13
S'------------'
p41
S'13,13,13,13,13,13,13,13,13,13,13,13,13'
p42
I13
I1600
tp43
a(g18
g19
S'test'
p44
I3
I1
I3
I2
S'-----------l'
p45
S'3,3,3,3,3,3,3,3,3,3,3,3,2'
p46
I2
I1700
tp47
a(g18
g19
S'test'
p48
I4
I1
I1
I2
S'-----------r'
p49
S'1,1,1,1,1,1,1,1,1,1,1,1,2'
p50
I2
I1120
tp51
a(g18
g19
S'test'
p52
I5
I1
I0
I4
S'-----------d'
p53
S'0,0,0,0,0,0,0,0,0,0,0,0,4'
p54
I4
I1540
tp55
a(g18
g19
S'test'
p56
I6
I2
I5
I2
S'-----u-----r'
p57
S'5,5,5,5,5,5,1,1,1,1,1,1,2'
p58
I2
I1360
tp59
a(g18
g19
S'test'
p60
I7
I2
I13
I8
S'-----l-----u'
p61
S'13,13,13,13,13,13,12,12,12,12,12,12,8'
p62
I8
I1650
tp63
a(g18
g19
S'test'
p64
I8
I2
I7
I2
S'-----l-----u'
p65
S'7,7,7,7,7,7,6,6,6,6,6,6,2'
p66
I2
I1390
tp67
a(g18
g19
S'test'
p68
I9
I3
I6
I15
S'---d---d---r'
p69
S'6,6,6,6,10,10,10,10,14,14,14,14,15'
p70
I15
I2530
tp71
a(g18
g19
S'test'
p72
I10
I3
I15
I11
S'---l---r---u'
p73
S'15,15,15,15,14,14,14,14,15,15,15,15,11'
p74
I11
I1600
tp75
a(g18
g19
S'test'
p76
I11
I3
I10
I6
S'---l---r---u'
p77
S'10,10,10,10,9,9,9,9,10,10,10,10,6'
p78
I6
I1560
tp79
a(g18
g19
S'test'
p80
I12
I4
I13
I15
S'--u--d--r--r'
p81
S'13,13,13,9,9,9,13,13,13,14,14,14,15'
p82
I15
I1460
tp83
a(g18
g19
S'test'
p84
I13
I4
I3
I6
S'--d--u--d--l'
p85
S'3,3,3,7,7,7,3,3,3,7,7,7,6'
p86
I6
I1540
tp87
a(g18
g19
S'test'
p88
I14
I4
I0
I5
S'--d--u--d--r'
p89
S'0,0,0,4,4,4,0,0,0,4,4,4,5'
p90
I5
I1781
tp91
a(g18
g19
S'test'
p92
I15
I6
I14
I11
S'-r-u-d-u-u-d'
p93
S'14,14,15,15,11,11,15,15,11,11,7,7,11'
p94
I11
I820
tp95
a(g18
g19
S'test'
p96
I16
I6
I0
I10
S'-d-d-d-r-r-u'
p97
S'0,0,4,4,8,8,12,12,13,13,14,14,10'
p98
I10
I1360
tp99
a(g18
g19
S'test'
p100
I17
I6
I1
I9
S'-d-d-d-r-u-l'
p101
S'1,1,5,5,9,9,13,13,14,14,10,10,9'
p102
I9
I1510
tp103
a(g18
g19
S'test'
p104
I18
I8
I10
I7
S'-lu-lu-rr-dr'
p105
S'10,10,9,5,5,4,0,0,1,2,2,6,7'
p106
I11
I1190
tp107
a(g18
g19
S'test'
p108
I19
I8
I14
I9
S'-rl-rl-ul-lr'
p109
S'14,14,15,14,14,15,14,14,10,9,9,8,9'
p110
I9
I1611
tp111
a(g18
g19
S'test'
p112
I20
I8
I3
I1
S'-ld-rd-uu-ll'
p113
S'3,3,2,6,6,7,11,11,7,3,3,2,1'
p114
I4
I1450
tp115
a(g18
g19
S'test'
p116
I21
I9
I5
I4
S'-udd-ldr-luu'
p117
S'5,5,1,5,9,9,8,12,13,13,12,8,4'
p118
I4
I1590
tp119
a(g18
g19
S'test'
p120
I22
I9
I3
I0
S'-dll-rrl-llu'
p121
S'3,3,7,6,5,5,6,7,6,6,5,4,0'
p122
I0
I1570
tp123
a(g18
g19
S'test'
p124
I23
I9
I10
I9
S'-dur-udl-dul'
p125
S'10,10,14,10,11,11,7,11,10,10,14,10,9'
p126
I9
I1580
tp127
a(g18
g19
S'test'
p128
I24
I12
I1
I12
S'drududdldlrl'
p129
S'1,5,6,2,6,2,6,10,9,13,12,13,12'
p130
I13
I1470
tp131
a(g18
g19
S'test'
p132
I25
I12
I12
I9
S'rluuurrlldrd'
p133
S'12,13,12,8,4,0,1,2,1,0,4,5,9'
p134
I14
I1330
tp135
a(g18
g19
S'test'
p136
I26
I12
I11
I6
S'llrruddudluu'
p137
S'11,10,9,10,11,7,11,15,11,15,14,10,6'
p138
I2
I1090
tp139
asS'output_format'
p140
(lp141
(S'proband_id'
p142
c__builtin__
str
p143
tp144
a(S'test_name'
p145
g143
tp146
a(S'phase'
p147
g143
tp148
a(S'trialn'
p149
c__builtin__
int
p150
tp151
a(S'updates'
p152
g150
tp153
a(S'origin'
p154
g150
tp155
a(S'endpoint'
p156
g150
tp157
a(S'moves'
p158
g143
tp159
a(S'marginalpositions'
p160
g143
tp161
a(S'rsp'
p162
g150
tp163
a(S'rt'
p164
g150
tp165
asg142
g18
sS'filename'
p166
S'4449_updating.data'
p167
sS'initialised'
p168
g10
(S'\x07\xdf\x08\x17\r4\x0c\x02\x0bp'
tRp169
sg145
S'updating'
p170
sS'directory'
p171
S'c:\\Charlie\\charlie\\data\\raw'
p172
sS'user_id'
p173
S'sbuccheri'
p174
sS'test_started'
p175
I01
sS'abs_filename'
p176
S'c:\\Charlie\\charlie\\data\\raw\\4449_updating.data'
p177
sS'date_started'
p178
g10
(S'\x07\xdf\x08\x17\r44\x0eL('
tRp179
sS'log'
p180
(lp181
(S'2015-08-23 13:52:12.134000'
S'instance created'
p182
tp183
a(S'2015-08-23 13:52:52.955000'
S'instance updated'
p184
tp185
a(S'2015-08-23 13:52:52.974000'
S'pandas DataFrame of data created'
p186
tp187
a(S'2015-08-23 13:52:52.979000'
g184
tp188
a(S'2015-08-23 13:52:52.986000'
S'data saved as csv to c:\\Charlie\\charlie\\data\\csv\\4449_updating.csv'
tp189
a(S'2015-08-23 13:52:52.998000'
g186
tp190
a(S'2015-08-23 13:53:04.933000'
g184
tp191
a(S'2015-08-23 13:53:04.960000'
g186
tp192
a(S'2015-08-23 13:53:04.968000'
g184
tp193
a(S'2015-08-23 13:53:04.972000'
S'data saved as csv to c:\\Charlie\\charlie\\data\\csv\\4449_updating.csv'
tp194
a(S'2015-08-23 13:53:04.987000'
g186
tp195
a(S'2015-08-23 13:53:19.013000'
g184
tp196
a(S'2015-08-23 13:53:19.047000'
g186
tp197
a(S'2015-08-23 13:53:19.056000'
g184
tp198
a(S'2015-08-23 13:53:19.059000'
S'data saved as csv to c:\\Charlie\\charlie\\data\\csv\\4449_updating.csv'
tp199
a(S'2015-08-23 13:53:19.093000'
g186
tp200
a(S'2015-08-23 13:53:34.427000'
g184
tp201
a(S'2015-08-23 13:53:34.469000'
g186
tp202
a(S'2015-08-23 13:53:34.478000'
g184
tp203
a(S'2015-08-23 13:53:34.481000'
S'data saved as csv to c:\\Charlie\\charlie\\data\\csv\\4449_updating.csv'
tp204
a(S'2015-08-23 13:53:34.523000'
g186
tp205
a(S'2015-08-23 13:53:44.481000'
g184
tp206
a(S'2015-08-23 13:53:44.532000'
g186
tp207
a(S'2015-08-23 13:53:44.540000'
g184
tp208
a(S'2015-08-23 13:53:44.544000'
S'data saved as csv to c:\\Charlie\\charlie\\data\\csv\\4449_updating.csv'
tp209
a(S'2015-08-23 13:53:44.595000'
g186
tp210
a(S'2015-08-23 13:53:55.048000'
g184
tp211
a(S'2015-08-23 13:53:55.107000'
g186
tp212
a(S'2015-08-23 13:53:55.115000'
g184
tp213
a(S'2015-08-23 13:53:55.119000'
S'data saved as csv to c:\\Charlie\\charlie\\data\\csv\\4449_updating.csv'
tp214
a(S'2015-08-23 13:53:55.178000'
g186
tp215
a(S'2015-08-23 13:54:05.736000'
g184
tp216
a(S'2015-08-23 13:54:05.802000'
g186
tp217
a(S'2015-08-23 13:54:05.810000'
g184
tp218
a(S'2015-08-23 13:54:05.812000'
S'data saved as csv to c:\\Charlie\\charlie\\data\\csv\\4449_updating.csv'
tp219
a(S'2015-08-23 13:54:05.849000'
g186
tp220
a(S'2015-08-23 13:54:15.820000'
g184
tp221
a(S'2015-08-23 13:54:15.891000'
g186
tp222
a(S'2015-08-23 13:54:15.895000'
g184
tp223
a(S'2015-08-23 13:54:15.897000'
S'data saved as csv to c:\\Charlie\\charlie\\data\\csv\\4449_updating.csv'
tp224
a(S'2015-08-23 13:54:15.927000'
g186
tp225
a(S'2015-08-23 13:54:26.316000'
g184
tp226
a(S'2015-08-23 13:54:26.397000'
g186
tp227
a(S'2015-08-23 13:54:26.406000'
g184
tp228
a(S'2015-08-23 13:54:26.409000'
S'data saved as csv to c:\\Charlie\\charlie\\data\\csv\\4449_updating.csv'
tp229
a(S'2015-08-23 13:54:26.490000'
g186
tp230
a(S'2015-08-23 13:54:36.709000'
g184
tp231
a(S'2015-08-23 13:54:36.797000'
g186
tp232
a(S'2015-08-23 13:54:36.805000'
g184
tp233
a(S'2015-08-23 13:54:36.809000'
S'data saved as csv to c:\\Charlie\\charlie\\data\\csv\\4449_updating.csv'
tp234
a(S'2015-08-23 13:54:36.896000'
g186
tp235
a(S'2015-08-23 13:54:47.405000'
g184
tp236
a(S'2015-08-23 13:54:47.501000'
g186
tp237
a(S'2015-08-23 13:54:47.508000'
g184
tp238
a(S'2015-08-23 13:54:47.510000'
S'data saved as csv to c:\\Charlie\\charlie\\data\\csv\\4449_updating.csv'
tp239
a(S'2015-08-23 13:54:47.565000'
g186
tp240
a(S'2015-08-23 13:54:57.808000'
g184
tp241
a(S'2015-08-23 13:54:57.913000'
g186
tp242
a(S'2015-08-23 13:54:57.919000'
g184
tp243
a(S'2015-08-23 13:54:57.921000'
S'data saved as csv to c:\\Charlie\\charlie\\data\\csv\\4449_updating.csv'
tp244
a(S'2015-08-23 13:54:57.980000'
g186
tp245
a(S'2015-08-23 13:55:09.365000'
g184
tp246
a(S'2015-08-23 13:55:09.474000'
g186
tp247
a(S'2015-08-23 13:55:09.479000'
g184
tp248
a(S'2015-08-23 13:55:09.482000'
S'data saved as csv to c:\\Charlie\\charlie\\data\\csv\\4449_updating.csv'
tp249
a(S'2015-08-23 13:55:09.527000'
g186
tp250
a(S'2015-08-23 13:55:19.980000'
g184
tp251
a(S'2015-08-23 13:55:20.100000'
g186
tp252
a(S'2015-08-23 13:55:20.109000'
g184
tp253
a(S'2015-08-23 13:55:20.112000'
S'data saved as csv to c:\\Charlie\\charlie\\data\\csv\\4449_updating.csv'
tp254
a(S'2015-08-23 13:55:20.193000'
g186
tp255
a(S'2015-08-23 13:55:30.608000'
g184
tp256
a(S'2015-08-23 13:55:30.736000'
g186
tp257
a(S'2015-08-23 13:55:30.745000'
g184
tp258
a(S'2015-08-23 13:55:30.748000'
S'data saved as csv to c:\\Charlie\\charlie\\data\\csv\\4449_updating.csv'
tp259
a(S'2015-08-23 13:55:30.876000'
g186
tp260
a(S'2015-08-23 13:55:41.196000'
g184
tp261
a(S'2015-08-23 13:55:41.332000'
g186
tp262
a(S'2015-08-23 13:55:41.341000'
g184
tp263
a(S'2015-08-23 13:55:41.344000'
S'data saved as csv to c:\\Charlie\\charlie\\data\\csv\\4449_updating.csv'
tp264
a(S'2015-08-23 13:55:41.480000'
g186
tp265
a(S'2015-08-23 13:55:51.880000'
g184
tp266
a(S'2015-08-23 13:55:52.023000'
g186
tp267
a(S'2015-08-23 13:55:52.031000'
g184
tp268
a(S'2015-08-23 13:55:52.034000'
S'data saved as csv to c:\\Charlie\\charlie\\data\\csv\\4449_updating.csv'
tp269
a(S'2015-08-23 13:55:52.130000'
g186
tp270
a(S'2015-08-23 13:56:02.765000'
g184
tp271
a(S'2015-08-23 13:56:02.915000'
g186
tp272
a(S'2015-08-23 13:56:02.923000'
g184
tp273
a(S'2015-08-23 13:56:02.925000'
S'data saved as csv to c:\\Charlie\\charlie\\data\\csv\\4449_updating.csv'
tp274
a(S'2015-08-23 13:56:03.011000'
g186
tp275
a(S'2015-08-23 13:56:12.690000'
g184
tp276
a(S'2015-08-23 13:56:12.849000'
g186
tp277
a(S'2015-08-23 13:56:12.856000'
g184
tp278
a(S'2015-08-23 13:56:12.858000'
S'data saved as csv to c:\\Charlie\\charlie\\data\\csv\\4449_updating.csv'
tp279
a(S'2015-08-23 13:56:12.964000'
g186
tp280
a(S'2015-08-23 13:56:23.178000'
g184
tp281
a(S'2015-08-23 13:56:23.273000'
g186
tp282
a(S'2015-08-23 13:56:23.279000'
g184
tp283
a(S'2015-08-23 13:56:23.281000'
S'data saved as csv to c:\\Charlie\\charlie\\data\\csv\\4449_updating.csv'
tp284
a(S'2015-08-23 13:56:23.376000'
g186
tp285
a(S'2015-08-23 13:56:33.741000'
g184
tp286
a(S'2015-08-23 13:56:33.916000'
g186
tp287
a(S'2015-08-23 13:56:33.924000'
g184
tp288
a(S'2015-08-23 13:56:33.928000'
S'data saved as csv to c:\\Charlie\\charlie\\data\\csv\\4449_updating.csv'
tp289
a(S'2015-08-23 13:56:34.102000'
g186
tp290
a(S'2015-08-23 13:56:44.159000'
g184
tp291
a(S'2015-08-23 13:56:44.341000'
g186
tp292
a(S'2015-08-23 13:56:44.351000'
g184
tp293
a(S'2015-08-23 13:56:44.354000'
S'data saved as csv to c:\\Charlie\\charlie\\data\\csv\\4449_updating.csv'
tp294
a(S'2015-08-23 13:56:44.537000'
g186
tp295
a(S'2015-08-23 13:56:55.013000'
g184
tp296
a(S'2015-08-23 13:56:55.203000'
g186
tp297
a(S'2015-08-23 13:56:55.210000'
g184
tp298
a(S'2015-08-23 13:56:55.212000'
S'data saved as csv to c:\\Charlie\\charlie\\data\\csv\\4449_updating.csv'
tp299
a(S'2015-08-23 13:56:55.321000'
g186
tp300
a(S'2015-08-23 13:57:05.631000'
g184
tp301
a(S'2015-08-23 13:57:05.829000'
g186
tp302
a(S'2015-08-23 13:57:05.835000'
g184
tp303
a(S'2015-08-23 13:57:05.837000'
S'data saved as csv to c:\\Charlie\\charlie\\data\\csv\\4449_updating.csv'
tp304
a(S'2015-08-23 13:57:05.969000'
g186
tp305
a(S'2015-08-23 13:57:16.420000'
g184
tp306
a(S'2015-08-23 13:57:16.625000'
g186
tp307
a(S'2015-08-23 13:57:16.631000'
g184
tp308
a(S'2015-08-23 13:57:16.633000'
S'data saved as csv to c:\\Charlie\\charlie\\data\\csv\\4449_updating.csv'
tp309
a(S'2015-08-23 13:57:16.750000'
g186
tp310
a(S'2015-08-23 13:57:27.180000'
g184
tp311
a(S'2015-08-23 13:57:27.392000'
g186
tp312
a(S'2015-08-23 13:57:27.399000'
g184
tp313
a(S'2015-08-23 13:57:27.401000'
S'data saved as csv to c:\\Charlie\\charlie\\data\\csv\\4449_updating.csv'
tp314
a(S'2015-08-23 13:57:27.523000'
g186
tp315
a(S'2015-08-23 13:57:37.964000'
g184
tp316
a(S'2015-08-23 13:57:38.186000'
g186
tp317
a(S'2015-08-23 13:57:38.195000'
g184
tp318
a(S'2015-08-23 13:57:38.198000'
S'data saved as csv to c:\\Charlie\\charlie\\data\\csv\\4449_updating.csv'
tp319
a(S'2015-08-23 13:57:38.347000'
g186
tp320
a(S'2015-08-23 13:57:48.683000'
g184
tp321
a(S'2015-08-23 13:57:48.916000'
g186
tp322
a(S'2015-08-23 13:57:48.926000'
g184
tp323
a(S'2015-08-23 13:57:48.930000'
S'data saved as csv to c:\\Charlie\\charlie\\data\\csv\\4449_updating.csv'
tp324
a(S'2015-08-23 13:57:49.162000'
g186
tp325
a(S'2015-08-23 13:57:59.361000'
g184
tp326
a(S'2015-08-23 13:57:59.600000'
g186
tp327
a(S'2015-08-23 13:57:59.609000'
g184
tp328
a(S'2015-08-23 13:57:59.613000'
S'data saved as csv to c:\\Charlie\\charlie\\data\\csv\\4449_updating.csv'
tp329
a(S'2015-08-23 13:57:59.750000'
g186
tp330
a(S'2015-08-23 13:58:09.705000'
g184
tp331
a(S'2015-08-23 13:58:09.953000'
g186
tp332
asb.