(icharlie.tools.data
Data
p1
(dp2
S'lang'
p3
S'EN'
p4
sS'control'
p5
(lp6
sS'last_updated'
p7
S'2015-08-24 09:21:01.626000'
p8
sS'last_opened'
p9
cdatetime
datetime
p10
(S'\x07\xdf\x08\x18\t\x12\t\x07+\xf0'
tRp11
sS'proj_id'
p12
S'connectivity'
p13
sS'date_done'
p14
g10
(S'\x07\xdf\x08\x18\t\x15\x01\t\x8dP'
tRp15
sS'test_done'
p16
I01
sS'data'
p17
(lp18
(S'4451'
p19
S'digit_symbol'
p20
S'practice'
p21
I0
I2
I2
S'Yes'
p22
S'C:\\Users\\Jbarrett\\Charlie\\charlie\\stimuli\\visual\\digit_symbol\\sym2.bmp'
g22
I18631
tp23
a(g19
g20
g21
I1
I6
I6
g22
S'C:\\Users\\Jbarrett\\Charlie\\charlie\\stimuli\\visual\\digit_symbol\\sym6.bmp'
g22
I2480
tp24
a(g19
g20
g21
I2
I8
I4
S'No'
p25
S'C:\\Users\\Jbarrett\\Charlie\\charlie\\stimuli\\visual\\digit_symbol\\sym4.bmp'
g22
I2050
tp26
a(g19
g20
g21
I3
I4
I4
g22
S'C:\\Users\\Jbarrett\\Charlie\\charlie\\stimuli\\visual\\digit_symbol\\sym4.bmp'
g22
I11720
tp27
a(g19
g20
g21
I4
I7
I7
g22
S'C:\\Users\\Jbarrett\\Charlie\\charlie\\stimuli\\visual\\digit_symbol\\sym7.bmp'
g22
I1940
tp28
a(g19
g20
g21
I5
I6
I5
g25
S'C:\\Users\\Jbarrett\\Charlie\\charlie\\stimuli\\visual\\digit_symbol\\sym5.bmp'
g25
I2541
tp29
a(g19
g20
g21
I6
I2
I8
g25
S'C:\\Users\\Jbarrett\\Charlie\\charlie\\stimuli\\visual\\digit_symbol\\sym8.bmp'
g25
I1360
tp30
a(g19
g20
g21
I7
I9
I2
g25
S'C:\\Users\\Jbarrett\\Charlie\\charlie\\stimuli\\visual\\digit_symbol\\sym2.bmp'
g25
I3720
tp31
a(g19
g20
g21
I8
I3
I7
g25
S'C:\\Users\\Jbarrett\\Charlie\\charlie\\stimuli\\visual\\digit_symbol\\sym7.bmp'
g25
I2080
tp32
a(g19
g20
g21
I9
I5
I6
g25
S'C:\\Users\\Jbarrett\\Charlie\\charlie\\stimuli\\visual\\digit_symbol\\sym6.bmp'
g25
I1740
tp33
a(g19
g20
S'test'
p34
I0
I8
I8
g22
S'C:\\Users\\Jbarrett\\Charlie\\charlie\\stimuli\\visual\\digit_symbol\\sym8.bmp'
g22
I2705
tp35
a(g19
g20
g34
I1
I1
I4
g25
S'C:\\Users\\Jbarrett\\Charlie\\charlie\\stimuli\\visual\\digit_symbol\\sym4.bmp'
g25
I1201
tp36
a(g19
g20
g34
I2
I2
I8
g25
S'C:\\Users\\Jbarrett\\Charlie\\charlie\\stimuli\\visual\\digit_symbol\\sym8.bmp'
g22
I1401
tp37
a(g19
g20
g34
I3
I6
I2
g25
S'C:\\Users\\Jbarrett\\Charlie\\charlie\\stimuli\\visual\\digit_symbol\\sym2.bmp'
g25
I2602
tp38
a(g19
g20
g34
I4
I4
I4
g22
S'C:\\Users\\Jbarrett\\Charlie\\charlie\\stimuli\\visual\\digit_symbol\\sym4.bmp'
g22
I1501
tp39
a(g19
g20
g34
I5
I9
I5
g25
S'C:\\Users\\Jbarrett\\Charlie\\charlie\\stimuli\\visual\\digit_symbol\\sym5.bmp'
g25
I2001
tp40
a(g19
g20
g34
I6
I5
I6
g25
S'C:\\Users\\Jbarrett\\Charlie\\charlie\\stimuli\\visual\\digit_symbol\\sym6.bmp'
g25
I2201
tp41
a(g19
g20
g34
I7
I3
I3
g22
S'C:\\Users\\Jbarrett\\Charlie\\charlie\\stimuli\\visual\\digit_symbol\\sym3.bmp'
g22
I1401
tp42
a(g19
g20
g34
I8
I4
I4
g22
S'C:\\Users\\Jbarrett\\Charlie\\charlie\\stimuli\\visual\\digit_symbol\\sym4.bmp'
g22
I1901
tp43
a(g19
g20
g34
I9
I9
I9
g22
S'C:\\Users\\Jbarrett\\Charlie\\charlie\\stimuli\\visual\\digit_symbol\\sym9.bmp'
g22
I1601
tp44
a(g19
g20
g34
I10
I6
I6
g22
S'C:\\Users\\Jbarrett\\Charlie\\charlie\\stimuli\\visual\\digit_symbol\\sym6.bmp'
g22
I1801
tp45
a(g19
g20
g34
I11
I1
I1
g22
S'C:\\Users\\Jbarrett\\Charlie\\charlie\\stimuli\\visual\\digit_symbol\\sym1.bmp'
g22
I1101
tp46
a(g19
g20
g34
I12
I2
I2
g22
S'C:\\Users\\Jbarrett\\Charlie\\charlie\\stimuli\\visual\\digit_symbol\\sym2.bmp'
g22
I1201
tp47
a(g19
g20
g34
I13
I7
I7
g22
S'C:\\Users\\Jbarrett\\Charlie\\charlie\\stimuli\\visual\\digit_symbol\\sym7.bmp'
g22
I1201
tp48
a(g19
g20
g34
I14
I3
I3
g22
S'C:\\Users\\Jbarrett\\Charlie\\charlie\\stimuli\\visual\\digit_symbol\\sym3.bmp'
g22
I1201
tp49
a(g19
g20
g34
I15
I8
I8
g22
S'C:\\Users\\Jbarrett\\Charlie\\charlie\\stimuli\\visual\\digit_symbol\\sym8.bmp'
g22
I1201
tp50
a(g19
g20
g34
I16
I7
I7
g22
S'C:\\Users\\Jbarrett\\Charlie\\charlie\\stimuli\\visual\\digit_symbol\\sym7.bmp'
g22
I2201
tp51
a(g19
g20
g34
I17
I5
I3
g25
S'C:\\Users\\Jbarrett\\Charlie\\charlie\\stimuli\\visual\\digit_symbol\\sym3.bmp'
g25
I1301
tp52
a(g19
g20
g34
I18
I1
I5
g25
S'C:\\Users\\Jbarrett\\Charlie\\charlie\\stimuli\\visual\\digit_symbol\\sym5.bmp'
g25
I1501
tp53
a(g19
g20
g34
I19
I4
I4
g22
S'C:\\Users\\Jbarrett\\Charlie\\charlie\\stimuli\\visual\\digit_symbol\\sym4.bmp'
g22
I1501
tp54
a(g19
g20
g34
I20
I7
I8
g25
S'C:\\Users\\Jbarrett\\Charlie\\charlie\\stimuli\\visual\\digit_symbol\\sym8.bmp'
g25
I1701
tp55
a(g19
g20
g34
I21
I4
I4
g22
S'C:\\Users\\Jbarrett\\Charlie\\charlie\\stimuli\\visual\\digit_symbol\\sym4.bmp'
g22
I1401
tp56
a(g19
g20
g34
I22
I8
I8
g22
S'C:\\Users\\Jbarrett\\Charlie\\charlie\\stimuli\\visual\\digit_symbol\\sym8.bmp'
g25
I1301
tp57
a(g19
g20
g34
I23
I3
I3
g22
S'C:\\Users\\Jbarrett\\Charlie\\charlie\\stimuli\\visual\\digit_symbol\\sym3.bmp'
g22
I2302
tp58
a(g19
g20
g34
I24
I5
I5
g22
S'C:\\Users\\Jbarrett\\Charlie\\charlie\\stimuli\\visual\\digit_symbol\\sym5.bmp'
g22
I1601
tp59
a(g19
g20
g34
I25
I3
I1
g25
S'C:\\Users\\Jbarrett\\Charlie\\charlie\\stimuli\\visual\\digit_symbol\\sym1.bmp'
g25
I1701
tp60
a(g19
g20
g34
I26
I6
I9
g25
S'C:\\Users\\Jbarrett\\Charlie\\charlie\\stimuli\\visual\\digit_symbol\\sym9.bmp'
g25
I2401
tp61
a(g19
g20
g34
I27
I2
I2
g22
S'C:\\Users\\Jbarrett\\Charlie\\charlie\\stimuli\\visual\\digit_symbol\\sym2.bmp'
g22
I1401
tp62
a(g19
g20
g34
I28
I8
I8
g22
S'C:\\Users\\Jbarrett\\Charlie\\charlie\\stimuli\\visual\\digit_symbol\\sym8.bmp'
g22
I1401
tp63
a(g19
g20
g34
I29
I9
I2
g25
S'C:\\Users\\Jbarrett\\Charlie\\charlie\\stimuli\\visual\\digit_symbol\\sym2.bmp'
g25
I1901
tp64
a(g19
g20
g34
I30
I1
I6
g25
S'C:\\Users\\Jbarrett\\Charlie\\charlie\\stimuli\\visual\\digit_symbol\\sym6.bmp'
g25
I1501
tp65
a(g19
g20
g34
I31
I5
I4
g25
S'C:\\Users\\Jbarrett\\Charlie\\charlie\\stimuli\\visual\\digit_symbol\\sym4.bmp'
g25
I2101
tp66
a(g19
g20
g34
I32
I6
I6
g22
S'C:\\Users\\Jbarrett\\Charlie\\charlie\\stimuli\\visual\\digit_symbol\\sym6.bmp'
g22
I1501
tp67
a(g19
g20
g34
I33
I2
I2
g22
S'C:\\Users\\Jbarrett\\Charlie\\charlie\\stimuli\\visual\\digit_symbol\\sym2.bmp'
g22
I1502
tp68
a(g19
g20
g34
I34
I9
I9
g22
S'C:\\Users\\Jbarrett\\Charlie\\charlie\\stimuli\\visual\\digit_symbol\\sym9.bmp'
g22
I2001
tp69
a(g19
g20
g34
I35
I7
I7
g22
S'C:\\Users\\Jbarrett\\Charlie\\charlie\\stimuli\\visual\\digit_symbol\\sym7.bmp'
g22
I1301
tp70
a(g19
g20
g34
I36
I3
I3
g22
S'C:\\Users\\Jbarrett\\Charlie\\charlie\\stimuli\\visual\\digit_symbol\\sym3.bmp'
g22
I1701
tp71
a(g19
g20
g34
I37
I1
I8
g25
S'C:\\Users\\Jbarrett\\Charlie\\charlie\\stimuli\\visual\\digit_symbol\\sym8.bmp'
g25
I1401
tp72
a(g19
g20
g34
I38
I6
I6
g22
S'C:\\Users\\Jbarrett\\Charlie\\charlie\\stimuli\\visual\\digit_symbol\\sym6.bmp'
g22
I1601
tp73
a(g19
g20
g34
I39
I7
I7
g22
S'C:\\Users\\Jbarrett\\Charlie\\charlie\\stimuli\\visual\\digit_symbol\\sym7.bmp'
g22
I1201
tp74
a(g19
g20
g34
I40
I9
I5
g25
S'C:\\Users\\Jbarrett\\Charlie\\charlie\\stimuli\\visual\\digit_symbol\\sym5.bmp'
g25
I2201
tp75
a(g19
g20
g34
I41
I7
I9
g25
S'C:\\Users\\Jbarrett\\Charlie\\charlie\\stimuli\\visual\\digit_symbol\\sym9.bmp'
g25
I2301
tp76
a(g19
g20
g34
I42
I5
I7
g25
S'C:\\Users\\Jbarrett\\Charlie\\charlie\\stimuli\\visual\\digit_symbol\\sym7.bmp'
g25
I1601
tp77
a(g19
g20
g34
I43
I2
I2
g22
S'C:\\Users\\Jbarrett\\Charlie\\charlie\\stimuli\\visual\\digit_symbol\\sym2.bmp'
g22
I1402
tp78
a(g19
g20
g34
I44
I1
I1
g22
S'C:\\Users\\Jbarrett\\Charlie\\charlie\\stimuli\\visual\\digit_symbol\\sym1.bmp'
g22
I1001
tp79
a(g19
g20
g34
I45
I6
I4
g25
S'C:\\Users\\Jbarrett\\Charlie\\charlie\\stimuli\\visual\\digit_symbol\\sym4.bmp'
g25
I1801
tp80
a(g19
g20
g34
I46
I8
I3
g25
S'C:\\Users\\Jbarrett\\Charlie\\charlie\\stimuli\\visual\\digit_symbol\\sym3.bmp'
g25
I1701
tp81
a(g19
g20
g34
I47
I2
I2
g22
S'C:\\Users\\Jbarrett\\Charlie\\charlie\\stimuli\\visual\\digit_symbol\\sym2.bmp'
g22
I1201
tp82
a(g19
g20
g34
I48
I4
I4
g22
S'C:\\Users\\Jbarrett\\Charlie\\charlie\\stimuli\\visual\\digit_symbol\\sym4.bmp'
g22
I1501
tp83
a(g19
g20
g34
I49
I9
I1
g25
S'C:\\Users\\Jbarrett\\Charlie\\charlie\\stimuli\\visual\\digit_symbol\\sym1.bmp'
g25
I1701
tp84
a(g19
g20
g34
I50
I4
I4
g22
S'C:\\Users\\Jbarrett\\Charlie\\charlie\\stimuli\\visual\\digit_symbol\\sym4.bmp'
g25
I1601
tp85
asS'output_format'
p86
(lp87
(S'proband_id'
p88
c__builtin__
str
p89
tp90
a(S'test_name'
p91
g89
tp92
a(S'phase'
p93
g89
tp94
a(S'trialn'
p95
c__builtin__
int
p96
tp97
a(S'digit'
p98
g96
tp99
a(S'symbol'
p100
g96
tp101
a(S'ans'
p102
g89
tp103
a(S'f'
g89
tp104
a(S'rsp'
p105
g89
tp106
a(S'rt'
p107
g96
tp108
asg88
g19
sS'filename'
p109
S'4451_digit_symbol.data'
p110
sS'initialised'
p111
g10
(S'\x07\xdf\x08\x18\t\x12\t\x07+\xf0'
tRp112
sg91
S'digit_symbol'
p113
sS'directory'
p114
S'C:\\Users\\Jbarrett\\Charlie\\charlie\\data\\raw'
p115
sS'user_id'
p116
S'barrett'
p117
sS'test_started'
p118
I01
sS'abs_filename'
p119
S'C:\\Users\\Jbarrett\\Charlie\\charlie\\data\\raw\\4451_digit_symbol.data'
p120
sS'date_started'
p121
g10
(S"\x07\xdf\x08\x18\t\x12'\x02\xf9\xb8"
tRp122
sS'log'
p123
(lp124
(S'2015-08-24 09:18:09.470000'
S'instance created'
p125
tp126
a(S'2015-08-24 09:18:39.197000'
S'instance updated'
p127
tp128
a(S'2015-08-24 09:18:39.203000'
S'pandas DataFrame of data created'
p129
tp130
a(S'2015-08-24 09:18:39.205000'
g127
tp131
a(S'2015-08-24 09:18:39.206000'
S'data saved as csv to C:\\Users\\Jbarrett\\Charlie\\charlie\\data\\csv\\4451_digit_symbol.csv'
tp132
a(S'2015-08-24 09:18:42.694000'
g127
tp133
a(S'2015-08-24 09:18:42.703000'
g129
tp134
a(S'2015-08-24 09:18:42.705000'
g127
tp135
a(S'2015-08-24 09:18:42.706000'
S'data saved as csv to C:\\Users\\Jbarrett\\Charlie\\charlie\\data\\csv\\4451_digit_symbol.csv'
tp136
a(S'2015-08-24 09:18:45.774000'
g127
tp137
a(S'2015-08-24 09:18:45.786000'
g129
tp138
a(S'2015-08-24 09:18:45.788000'
g127
tp139
a(S'2015-08-24 09:18:45.789000'
S'data saved as csv to C:\\Users\\Jbarrett\\Charlie\\charlie\\data\\csv\\4451_digit_symbol.csv'
tp140
a(S'2015-08-24 09:18:58.517000'
g127
tp141
a(S'2015-08-24 09:18:58.532000'
g129
tp142
a(S'2015-08-24 09:18:58.534000'
g127
tp143
a(S'2015-08-24 09:18:58.535000'
S'data saved as csv to C:\\Users\\Jbarrett\\Charlie\\charlie\\data\\csv\\4451_digit_symbol.csv'
tp144
a(S'2015-08-24 09:19:01.482000'
g127
tp145
a(S'2015-08-24 09:19:01.500000'
g129
tp146
a(S'2015-08-24 09:19:01.502000'
g127
tp147
a(S'2015-08-24 09:19:01.503000'
S'data saved as csv to C:\\Users\\Jbarrett\\Charlie\\charlie\\data\\csv\\4451_digit_symbol.csv'
tp148
a(S'2015-08-24 09:19:05.051000'
g127
tp149
a(S'2015-08-24 09:19:05.072000'
g129
tp150
a(S'2015-08-24 09:19:05.074000'
g127
tp151
a(S'2015-08-24 09:19:05.075000'
S'data saved as csv to C:\\Users\\Jbarrett\\Charlie\\charlie\\data\\csv\\4451_digit_symbol.csv'
tp152
a(S'2015-08-24 09:19:07.442000'
g127
tp153
a(S'2015-08-24 09:19:07.465000'
g129
tp154
a(S'2015-08-24 09:19:07.467000'
g127
tp155
a(S'2015-08-24 09:19:07.468000'
S'data saved as csv to C:\\Users\\Jbarrett\\Charlie\\charlie\\data\\csv\\4451_digit_symbol.csv'
tp156
a(S'2015-08-24 09:19:12.195000'
g127
tp157
a(S'2015-08-24 09:19:12.221000'
g129
tp158
a(S'2015-08-24 09:19:12.223000'
g127
tp159
a(S'2015-08-24 09:19:12.224000'
S'data saved as csv to C:\\Users\\Jbarrett\\Charlie\\charlie\\data\\csv\\4451_digit_symbol.csv'
tp160
a(S'2015-08-24 09:19:15.312000'
g127
tp161
a(S'2015-08-24 09:19:15.341000'
g129
tp162
a(S'2015-08-24 09:19:15.343000'
g127
tp163
a(S'2015-08-24 09:19:15.344000'
S'data saved as csv to C:\\Users\\Jbarrett\\Charlie\\charlie\\data\\csv\\4451_digit_symbol.csv'
tp164
a(S'2015-08-24 09:19:18.091000'
g127
tp165
a(S'2015-08-24 09:19:18.123000'
g129
tp166
a(S'2015-08-24 09:19:18.125000'
g127
tp167
a(S'2015-08-24 09:19:18.126000'
S'data saved as csv to C:\\Users\\Jbarrett\\Charlie\\charlie\\data\\csv\\4451_digit_symbol.csv'
tp168
a(S'2015-08-24 09:21:01.435000'
g127
tp169
a(S'2015-08-24 09:21:01.620000'
g129
tp170
a(S'2015-08-24 09:21:01.623000'
g127
tp171
a(S'2015-08-24 09:21:01.624000'
S'data saved as csv to C:\\Users\\Jbarrett\\Charlie\\charlie\\data\\csv\\4451_digit_symbol.csv'
tp172
a(S'2015-08-24 09:21:01.626000'
g127
tp173
asb.