(icharlie.tools.data
Data
p1
(dp2
S'lang'
p3
S'EN'
p4
sS'control'
p5
(lp6
sS'last_updated'
p7
S'2015-08-24 09:45:31.264000'
p8
sS'last_opened'
p9
cdatetime
datetime
p10
(S"\x07\xdf\x08\x18\t'\x1a\x04\x07@"
tRp11
sS'proj_id'
p12
S'connectivity'
p13
sS'date_done'
p14
g10
(S'\x07\xdf\x08\x18\t-\x1f\x04\x07@'
tRp15
sS'test_done'
p16
I01
sS'data'
p17
(lp18
(S'4451'
p19
S'matrix_reasoning'
p20
S'practice'
p21
I0
S'C:\\Users\\Jbarrett\\Charlie\\charlie\\stimuli\\visual\\matrix_reasoning\\prac_MA.png'
S'C:\\Users\\Jbarrett\\Charlie\\charlie\\stimuli\\visual\\matrix_reasoning\\prac_MAa.png'
I1
I1
I8375
tp22
a(g19
g20
S'test'
p23
I0
S'C:\\Users\\Jbarrett\\Charlie\\charlie\\stimuli\\visual\\matrix_reasoning\\M001.png'
S'C:\\Users\\Jbarrett\\Charlie\\charlie\\stimuli\\visual\\matrix_reasoning\\M001a.png'
I1
I1
I1850
tp24
a(g19
g20
g23
I1
S'C:\\Users\\Jbarrett\\Charlie\\charlie\\stimuli\\visual\\matrix_reasoning\\M002.png'
S'C:\\Users\\Jbarrett\\Charlie\\charlie\\stimuli\\visual\\matrix_reasoning\\M002a.png'
I3
I3
I3580
tp25
a(g19
g20
g23
I2
S'C:\\Users\\Jbarrett\\Charlie\\charlie\\stimuli\\visual\\matrix_reasoning\\M003.png'
S'C:\\Users\\Jbarrett\\Charlie\\charlie\\stimuli\\visual\\matrix_reasoning\\M003a.png'
I1
I1
I3473
tp26
a(g19
g20
g23
I3
S'C:\\Users\\Jbarrett\\Charlie\\charlie\\stimuli\\visual\\matrix_reasoning\\M004.png'
S'C:\\Users\\Jbarrett\\Charlie\\charlie\\stimuli\\visual\\matrix_reasoning\\M004a.png'
I3
I3
I1953
tp27
a(g19
g20
g23
I4
S'C:\\Users\\Jbarrett\\Charlie\\charlie\\stimuli\\visual\\matrix_reasoning\\M005.png'
S'C:\\Users\\Jbarrett\\Charlie\\charlie\\stimuli\\visual\\matrix_reasoning\\M005a.png'
I2
I2
I1585
tp28
a(g19
g20
g23
I5
S'C:\\Users\\Jbarrett\\Charlie\\charlie\\stimuli\\visual\\matrix_reasoning\\M006.png'
S'C:\\Users\\Jbarrett\\Charlie\\charlie\\stimuli\\visual\\matrix_reasoning\\M006a.png'
I0
I0
I2760
tp29
a(g19
g20
g23
I6
S'C:\\Users\\Jbarrett\\Charlie\\charlie\\stimuli\\visual\\matrix_reasoning\\M007.png'
S'C:\\Users\\Jbarrett\\Charlie\\charlie\\stimuli\\visual\\matrix_reasoning\\M007a.png'
I0
I0
I1911
tp30
a(g19
g20
g23
I7
S'C:\\Users\\Jbarrett\\Charlie\\charlie\\stimuli\\visual\\matrix_reasoning\\M008.png'
S'C:\\Users\\Jbarrett\\Charlie\\charlie\\stimuli\\visual\\matrix_reasoning\\M008a.png'
I2
I2
I2829
tp31
a(g19
g20
g23
I8
S'C:\\Users\\Jbarrett\\Charlie\\charlie\\stimuli\\visual\\matrix_reasoning\\M009.png'
S'C:\\Users\\Jbarrett\\Charlie\\charlie\\stimuli\\visual\\matrix_reasoning\\M009a.png'
I4
I1
I2190
tp32
a(g19
g20
g23
I9
S'C:\\Users\\Jbarrett\\Charlie\\charlie\\stimuli\\visual\\matrix_reasoning\\M010.png'
S'C:\\Users\\Jbarrett\\Charlie\\charlie\\stimuli\\visual\\matrix_reasoning\\M010a.png'
I4
I4
I3494
tp33
a(g19
g20
g23
I10
S'C:\\Users\\Jbarrett\\Charlie\\charlie\\stimuli\\visual\\matrix_reasoning\\M011.png'
S'C:\\Users\\Jbarrett\\Charlie\\charlie\\stimuli\\visual\\matrix_reasoning\\M011a.png'
I4
I4
I3636
tp34
a(g19
g20
g23
I11
S'C:\\Users\\Jbarrett\\Charlie\\charlie\\stimuli\\visual\\matrix_reasoning\\M012.png'
S'C:\\Users\\Jbarrett\\Charlie\\charlie\\stimuli\\visual\\matrix_reasoning\\M012a.png'
I1
I1
I2578
tp35
a(g19
g20
g23
I12
S'C:\\Users\\Jbarrett\\Charlie\\charlie\\stimuli\\visual\\matrix_reasoning\\M013.png'
S'C:\\Users\\Jbarrett\\Charlie\\charlie\\stimuli\\visual\\matrix_reasoning\\M013a.png'
I2
I2
I6546
tp36
a(g19
g20
g23
I13
S'C:\\Users\\Jbarrett\\Charlie\\charlie\\stimuli\\visual\\matrix_reasoning\\M014.png'
S'C:\\Users\\Jbarrett\\Charlie\\charlie\\stimuli\\visual\\matrix_reasoning\\M014a.png'
I0
I0
I6202
tp37
a(g19
g20
g23
I14
S'C:\\Users\\Jbarrett\\Charlie\\charlie\\stimuli\\visual\\matrix_reasoning\\M015.png'
S'C:\\Users\\Jbarrett\\Charlie\\charlie\\stimuli\\visual\\matrix_reasoning\\M015a.png'
I1
I1
I4464
tp38
a(g19
g20
g23
I15
S'C:\\Users\\Jbarrett\\Charlie\\charlie\\stimuli\\visual\\matrix_reasoning\\M016.png'
S'C:\\Users\\Jbarrett\\Charlie\\charlie\\stimuli\\visual\\matrix_reasoning\\M016a.png'
I3
I3
I5560
tp39
a(g19
g20
g23
I16
S'C:\\Users\\Jbarrett\\Charlie\\charlie\\stimuli\\visual\\matrix_reasoning\\M017.png'
S'C:\\Users\\Jbarrett\\Charlie\\charlie\\stimuli\\visual\\matrix_reasoning\\M017a.png'
I2
I4
I3493
tp40
a(g19
g20
g23
I17
S'C:\\Users\\Jbarrett\\Charlie\\charlie\\stimuli\\visual\\matrix_reasoning\\M018.png'
S'C:\\Users\\Jbarrett\\Charlie\\charlie\\stimuli\\visual\\matrix_reasoning\\M018a.png'
I0
I0
I2511
tp41
a(g19
g20
g23
I18
S'C:\\Users\\Jbarrett\\Charlie\\charlie\\stimuli\\visual\\matrix_reasoning\\M019.png'
S'C:\\Users\\Jbarrett\\Charlie\\charlie\\stimuli\\visual\\matrix_reasoning\\M019a.png'
I0
I0
I8782
tp42
a(g19
g20
g23
I19
S'C:\\Users\\Jbarrett\\Charlie\\charlie\\stimuli\\visual\\matrix_reasoning\\M020.png'
S'C:\\Users\\Jbarrett\\Charlie\\charlie\\stimuli\\visual\\matrix_reasoning\\M020a.png'
I3
I3
I6923
tp43
a(g19
g20
g23
I20
S'C:\\Users\\Jbarrett\\Charlie\\charlie\\stimuli\\visual\\matrix_reasoning\\M021.png'
S'C:\\Users\\Jbarrett\\Charlie\\charlie\\stimuli\\visual\\matrix_reasoning\\M021a.png'
I4
I0
I5136
tp44
a(g19
g20
g23
I21
S'C:\\Users\\Jbarrett\\Charlie\\charlie\\stimuli\\visual\\matrix_reasoning\\M022.png'
S'C:\\Users\\Jbarrett\\Charlie\\charlie\\stimuli\\visual\\matrix_reasoning\\M022a.png'
I4
I4
I12860
tp45
a(g19
g20
g23
I22
S'C:\\Users\\Jbarrett\\Charlie\\charlie\\stimuli\\visual\\matrix_reasoning\\M023.png'
S'C:\\Users\\Jbarrett\\Charlie\\charlie\\stimuli\\visual\\matrix_reasoning\\M023a.png'
I1
I1
I13024
tp46
a(g19
g20
g23
I23
S'C:\\Users\\Jbarrett\\Charlie\\charlie\\stimuli\\visual\\matrix_reasoning\\M024.png'
S'C:\\Users\\Jbarrett\\Charlie\\charlie\\stimuli\\visual\\matrix_reasoning\\M024a.png'
I1
I1
I5641
tp47
a(g19
g20
g23
I24
S'C:\\Users\\Jbarrett\\Charlie\\charlie\\stimuli\\visual\\matrix_reasoning\\M025.png'
S'C:\\Users\\Jbarrett\\Charlie\\charlie\\stimuli\\visual\\matrix_reasoning\\M025a.png'
I0
I0
I10335
tp48
a(g19
g20
g23
I25
S'C:\\Users\\Jbarrett\\Charlie\\charlie\\stimuli\\visual\\matrix_reasoning\\M026.png'
S'C:\\Users\\Jbarrett\\Charlie\\charlie\\stimuli\\visual\\matrix_reasoning\\M026a.png'
I4
I4
I14688
tp49
a(g19
g20
g23
I26
S'C:\\Users\\Jbarrett\\Charlie\\charlie\\stimuli\\visual\\matrix_reasoning\\M027.png'
S'C:\\Users\\Jbarrett\\Charlie\\charlie\\stimuli\\visual\\matrix_reasoning\\M027a.png'
I3
I1
I13246
tp50
a(g19
g20
g23
I27
S'C:\\Users\\Jbarrett\\Charlie\\charlie\\stimuli\\visual\\matrix_reasoning\\M028.png'
S'C:\\Users\\Jbarrett\\Charlie\\charlie\\stimuli\\visual\\matrix_reasoning\\M028a.png'
I2
I0
I7764
tp51
a(g19
g20
g23
I28
S'C:\\Users\\Jbarrett\\Charlie\\charlie\\stimuli\\visual\\matrix_reasoning\\M029.png'
S'C:\\Users\\Jbarrett\\Charlie\\charlie\\stimuli\\visual\\matrix_reasoning\\M029a.png'
I2
I1
I26757
tp52
a(g19
g20
g23
I29
S'C:\\Users\\Jbarrett\\Charlie\\charlie\\stimuli\\visual\\matrix_reasoning\\M030.png'
S'C:\\Users\\Jbarrett\\Charlie\\charlie\\stimuli\\visual\\matrix_reasoning\\M030a.png'
I3
I3
I41517
tp53
a(g19
g20
g23
I30
S'C:\\Users\\Jbarrett\\Charlie\\charlie\\stimuli\\visual\\matrix_reasoning\\M031.png'
p54
S'C:\\Users\\Jbarrett\\Charlie\\charlie\\stimuli\\visual\\matrix_reasoning\\M031a.png'
p55
I0
I1
I85795
tp56
asS'output_format'
p57
(lp58
(S'proband_id'
p59
c__builtin__
str
p60
tp61
a(S'test_name'
p62
g60
tp63
a(S'phase'
p64
g60
tp65
a(S'trialn'
p66
c__builtin__
int
p67
tp68
a(S'matrix'
p69
g60
tp70
a(S'array'
p71
g60
tp72
a(S'ans'
p73
g67
tp74
a(S'rsp'
p75
g67
tp76
a(S'rt'
p77
g67
tp78
asg59
g19
sS'filename'
p79
S'4451_matrix_reasoning.data'
p80
sS'initialised'
p81
g10
(S"\x07\xdf\x08\x18\t'\x1a\x04\x07@"
tRp82
sg62
S'matrix_reasoning'
p83
sS'directory'
p84
S'C:\\Users\\Jbarrett\\Charlie\\charlie\\data\\raw'
p85
sS'user_id'
p86
S'barrett'
p87
sS'test_started'
p88
I01
sS'abs_filename'
p89
S'C:\\Users\\Jbarrett\\Charlie\\charlie\\data\\raw\\4451_matrix_reasoning.data'
p90
sS'date_started'
p91
g10
(S'\x07\xdf\x08\x18\t(\x08\x0c8\xe8'
tRp92
sS'log'
p93
(lp94
(S'2015-08-24 09:39:26.264000'
S'instance created'
p95
tp96
a(S'2015-08-24 09:40:08.804000'
S'instance updated'
p97
tp98
a(S'2015-08-24 09:40:08.812000'
S'pandas DataFrame of data created'
p99
tp100
a(S'2015-08-24 09:40:08.814000'
g97
tp101
a(S'2015-08-24 09:40:08.815000'
S'data saved as csv to C:\\Users\\Jbarrett\\Charlie\\charlie\\data\\csv\\4451_matrix_reasoning.csv'
tp102
a(S'2015-08-24 09:40:08.822000'
g99
tp103
a(S'2015-08-24 09:40:11.607000'
g97
tp104
a(S'2015-08-24 09:40:11.618000'
g99
tp105
a(S'2015-08-24 09:40:11.621000'
g97
tp106
a(S'2015-08-24 09:40:11.622000'
S'data saved as csv to C:\\Users\\Jbarrett\\Charlie\\charlie\\data\\csv\\4451_matrix_reasoning.csv'
tp107
a(S'2015-08-24 09:40:11.634000'
g99
tp108
a(S'2015-08-24 09:40:15.328000'
g97
tp109
a(S'2015-08-24 09:40:15.344000'
g99
tp110
a(S'2015-08-24 09:40:15.346000'
g97
tp111
a(S'2015-08-24 09:40:15.347000'
S'data saved as csv to C:\\Users\\Jbarrett\\Charlie\\charlie\\data\\csv\\4451_matrix_reasoning.csv'
tp112
a(S'2015-08-24 09:40:15.363000'
g99
tp113
a(S'2015-08-24 09:40:18.952000'
g97
tp114
a(S'2015-08-24 09:40:18.972000'
g99
tp115
a(S'2015-08-24 09:40:18.974000'
g97
tp116
a(S'2015-08-24 09:40:18.975000'
S'data saved as csv to C:\\Users\\Jbarrett\\Charlie\\charlie\\data\\csv\\4451_matrix_reasoning.csv'
tp117
a(S'2015-08-24 09:40:18.996000'
g99
tp118
a(S'2015-08-24 09:40:21.064000'
g97
tp119
a(S'2015-08-24 09:40:21.089000'
g99
tp120
a(S'2015-08-24 09:40:21.091000'
g97
tp121
a(S'2015-08-24 09:40:21.092000'
S'data saved as csv to C:\\Users\\Jbarrett\\Charlie\\charlie\\data\\csv\\4451_matrix_reasoning.csv'
tp122
a(S'2015-08-24 09:40:21.117000'
g99
tp123
a(S'2015-08-24 09:40:22.816000'
g97
tp124
a(S'2015-08-24 09:40:22.846000'
g99
tp125
a(S'2015-08-24 09:40:22.848000'
g97
tp126
a(S'2015-08-24 09:40:22.849000'
S'data saved as csv to C:\\Users\\Jbarrett\\Charlie\\charlie\\data\\csv\\4451_matrix_reasoning.csv'
tp127
a(S'2015-08-24 09:40:22.879000'
g99
tp128
a(S'2015-08-24 09:40:25.753000'
g97
tp129
a(S'2015-08-24 09:40:25.787000'
g99
tp130
a(S'2015-08-24 09:40:25.789000'
g97
tp131
a(S'2015-08-24 09:40:25.790000'
S'data saved as csv to C:\\Users\\Jbarrett\\Charlie\\charlie\\data\\csv\\4451_matrix_reasoning.csv'
tp132
a(S'2015-08-24 09:40:25.823000'
g99
tp133
a(S'2015-08-24 09:40:27.849000'
g97
tp134
a(S'2015-08-24 09:40:27.887000'
g99
tp135
a(S'2015-08-24 09:40:27.889000'
g97
tp136
a(S'2015-08-24 09:40:27.890000'
S'data saved as csv to C:\\Users\\Jbarrett\\Charlie\\charlie\\data\\csv\\4451_matrix_reasoning.csv'
tp137
a(S'2015-08-24 09:40:27.929000'
g99
tp138
a(S'2015-08-24 09:40:30.872000'
g97
tp139
a(S'2015-08-24 09:40:30.914000'
g99
tp140
a(S'2015-08-24 09:40:30.917000'
g97
tp141
a(S'2015-08-24 09:40:30.918000'
S'data saved as csv to C:\\Users\\Jbarrett\\Charlie\\charlie\\data\\csv\\4451_matrix_reasoning.csv'
tp142
a(S'2015-08-24 09:40:30.960000'
g99
tp143
a(S'2015-08-24 09:40:33.265000'
g97
tp144
a(S'2015-08-24 09:40:33.311000'
g99
tp145
a(S'2015-08-24 09:40:33.314000'
g97
tp146
a(S'2015-08-24 09:40:33.315000'
S'data saved as csv to C:\\Users\\Jbarrett\\Charlie\\charlie\\data\\csv\\4451_matrix_reasoning.csv'
tp147
a(S'2015-08-24 09:40:33.362000'
g99
tp148
a(S'2015-08-24 09:40:36.969000'
g97
tp149
a(S'2015-08-24 09:40:37.020000'
g99
tp150
a(S'2015-08-24 09:40:37.022000'
g97
tp151
a(S'2015-08-24 09:40:37.023000'
S'data saved as csv to C:\\Users\\Jbarrett\\Charlie\\charlie\\data\\csv\\4451_matrix_reasoning.csv'
tp152
a(S'2015-08-24 09:40:37.074000'
g99
tp153
a(S'2015-08-24 09:40:40.825000'
g97
tp154
a(S'2015-08-24 09:40:40.880000'
g99
tp155
a(S'2015-08-24 09:40:40.883000'
g97
tp156
a(S'2015-08-24 09:40:40.884000'
S'data saved as csv to C:\\Users\\Jbarrett\\Charlie\\charlie\\data\\csv\\4451_matrix_reasoning.csv'
tp157
a(S'2015-08-24 09:40:40.940000'
g99
tp158
a(S'2015-08-24 09:40:43.634000'
g97
tp159
a(S'2015-08-24 09:40:43.693000'
g99
tp160
a(S'2015-08-24 09:40:43.696000'
g97
tp161
a(S'2015-08-24 09:40:43.697000'
S'data saved as csv to C:\\Users\\Jbarrett\\Charlie\\charlie\\data\\csv\\4451_matrix_reasoning.csv'
tp162
a(S'2015-08-24 09:40:43.757000'
g99
tp163
a(S'2015-08-24 09:40:50.417000'
g97
tp164
a(S'2015-08-24 09:40:50.481000'
g99
tp165
a(S'2015-08-24 09:40:50.484000'
g97
tp166
a(S'2015-08-24 09:40:50.485000'
S'data saved as csv to C:\\Users\\Jbarrett\\Charlie\\charlie\\data\\csv\\4451_matrix_reasoning.csv'
tp167
a(S'2015-08-24 09:40:50.549000'
g99
tp168
a(S'2015-08-24 09:40:56.866000'
g97
tp169
a(S'2015-08-24 09:40:56.935000'
g99
tp170
a(S'2015-08-24 09:40:56.937000'
g97
tp171
a(S'2015-08-24 09:40:56.938000'
S'data saved as csv to C:\\Users\\Jbarrett\\Charlie\\charlie\\data\\csv\\4451_matrix_reasoning.csv'
tp172
a(S'2015-08-24 09:40:57.008000'
g99
tp173
a(S'2015-08-24 09:41:01.586000'
g97
tp174
a(S'2015-08-24 09:41:01.659000'
g99
tp175
a(S'2015-08-24 09:41:01.661000'
g97
tp176
a(S'2015-08-24 09:41:01.662000'
S'data saved as csv to C:\\Users\\Jbarrett\\Charlie\\charlie\\data\\csv\\4451_matrix_reasoning.csv'
tp177
a(S'2015-08-24 09:41:01.736000'
g99
tp178
a(S'2015-08-24 09:41:07.410000'
g97
tp179
a(S'2015-08-24 09:41:07.488000'
g99
tp180
a(S'2015-08-24 09:41:07.491000'
g97
tp181
a(S'2015-08-24 09:41:07.492000'
S'data saved as csv to C:\\Users\\Jbarrett\\Charlie\\charlie\\data\\csv\\4451_matrix_reasoning.csv'
tp182
a(S'2015-08-24 09:41:07.570000'
g99
tp183
a(S'2015-08-24 09:41:11.178000'
g97
tp184
a(S'2015-08-24 09:41:11.260000'
g99
tp185
a(S'2015-08-24 09:41:11.263000'
g97
tp186
a(S'2015-08-24 09:41:11.264000'
S'data saved as csv to C:\\Users\\Jbarrett\\Charlie\\charlie\\data\\csv\\4451_matrix_reasoning.csv'
tp187
a(S'2015-08-24 09:41:11.346000'
g99
tp188
a(S'2015-08-24 09:41:13.971000'
g97
tp189
a(S'2015-08-24 09:41:14.057000'
g99
tp190
a(S'2015-08-24 09:41:14.059000'
g97
tp191
a(S'2015-08-24 09:41:14.060000'
S'data saved as csv to C:\\Users\\Jbarrett\\Charlie\\charlie\\data\\csv\\4451_matrix_reasoning.csv'
tp192
a(S'2015-08-24 09:41:14.146000'
g99
tp193
a(S'2015-08-24 09:41:23.043000'
g97
tp194
a(S'2015-08-24 09:41:23.135000'
g99
tp195
a(S'2015-08-24 09:41:23.138000'
g97
tp196
a(S'2015-08-24 09:41:23.139000'
S'data saved as csv to C:\\Users\\Jbarrett\\Charlie\\charlie\\data\\csv\\4451_matrix_reasoning.csv'
tp197
a(S'2015-08-24 09:41:23.230000'
g99
tp198
a(S'2015-08-24 09:41:30.267000'
g97
tp199
a(S'2015-08-24 09:41:30.363000'
g99
tp200
a(S'2015-08-24 09:41:30.366000'
g97
tp201
a(S'2015-08-24 09:41:30.367000'
S'data saved as csv to C:\\Users\\Jbarrett\\Charlie\\charlie\\data\\csv\\4451_matrix_reasoning.csv'
tp202
a(S'2015-08-24 09:41:30.464000'
g99
tp203
a(S'2015-08-24 09:41:35.716000'
g97
tp204
a(S'2015-08-24 09:41:35.815000'
g99
tp205
a(S'2015-08-24 09:41:35.817000'
g97
tp206
a(S'2015-08-24 09:41:35.818000'
S'data saved as csv to C:\\Users\\Jbarrett\\Charlie\\charlie\\data\\csv\\4451_matrix_reasoning.csv'
tp207
a(S'2015-08-24 09:41:35.918000'
g99
tp208
a(S'2015-08-24 09:41:48.892000'
g97
tp209
a(S'2015-08-24 09:41:48.996000'
g99
tp210
a(S'2015-08-24 09:41:48.999000'
g97
tp211
a(S'2015-08-24 09:41:49'
S'data saved as csv to C:\\Users\\Jbarrett\\Charlie\\charlie\\data\\csv\\4451_matrix_reasoning.csv'
tp212
a(S'2015-08-24 09:41:49.105000'
g99
tp213
a(S'2015-08-24 09:42:02.244000'
g97
tp214
a(S'2015-08-24 09:42:02.352000'
g99
tp215
a(S'2015-08-24 09:42:02.354000'
g97
tp216
a(S'2015-08-24 09:42:02.355000'
S'data saved as csv to C:\\Users\\Jbarrett\\Charlie\\charlie\\data\\csv\\4451_matrix_reasoning.csv'
tp217
a(S'2015-08-24 09:42:02.465000'
g99
tp218
a(S'2015-08-24 09:42:08.221000'
g97
tp219
a(S'2015-08-24 09:42:08.335000'
g99
tp220
a(S'2015-08-24 09:42:08.337000'
g97
tp221
a(S'2015-08-24 09:42:08.338000'
S'data saved as csv to C:\\Users\\Jbarrett\\Charlie\\charlie\\data\\csv\\4451_matrix_reasoning.csv'
tp222
a(S'2015-08-24 09:42:08.451000'
g99
tp223
a(S'2015-08-24 09:42:18.901000'
g97
tp224
a(S'2015-08-24 09:42:19.018000'
g99
tp225
a(S'2015-08-24 09:42:19.021000'
g97
tp226
a(S'2015-08-24 09:42:19.022000'
S'data saved as csv to C:\\Users\\Jbarrett\\Charlie\\charlie\\data\\csv\\4451_matrix_reasoning.csv'
tp227
a(S'2015-08-24 09:42:19.139000'
g99
tp228
a(S'2015-08-24 09:42:33.942000'
g97
tp229
a(S'2015-08-24 09:42:34.065000'
g99
tp230
a(S'2015-08-24 09:42:34.067000'
g97
tp231
a(S'2015-08-24 09:42:34.068000'
S'data saved as csv to C:\\Users\\Jbarrett\\Charlie\\charlie\\data\\csv\\4451_matrix_reasoning.csv'
tp232
a(S'2015-08-24 09:42:34.189000'
g99
tp233
a(S'2015-08-24 09:42:47.551000'
g97
tp234
a(S'2015-08-24 09:42:47.676000'
g99
tp235
a(S'2015-08-24 09:42:47.679000'
g97
tp236
a(S'2015-08-24 09:42:47.680000'
S'data saved as csv to C:\\Users\\Jbarrett\\Charlie\\charlie\\data\\csv\\4451_matrix_reasoning.csv'
tp237
a(S'2015-08-24 09:42:47.807000'
g99
tp238
a(S'2015-08-24 09:42:55.687000'
g97
tp239
a(S'2015-08-24 09:42:55.817000'
g99
tp240
a(S'2015-08-24 09:42:55.820000'
g97
tp241
a(S'2015-08-24 09:42:55.821000'
S'data saved as csv to C:\\Users\\Jbarrett\\Charlie\\charlie\\data\\csv\\4451_matrix_reasoning.csv'
tp242
a(S'2015-08-24 09:42:55.952000'
g99
tp243
a(S'2015-08-24 09:43:22.825000'
g97
tp244
a(S'2015-08-24 09:43:22.959000'
g99
tp245
a(S'2015-08-24 09:43:22.962000'
g97
tp246
a(S'2015-08-24 09:43:22.963000'
S'data saved as csv to C:\\Users\\Jbarrett\\Charlie\\charlie\\data\\csv\\4451_matrix_reasoning.csv'
tp247
a(S'2015-08-24 09:43:23.098000'
g99
tp248
a(S'2015-08-24 09:44:04.730000'
g97
tp249
a(S'2015-08-24 09:44:04.869000'
g99
tp250
a(S'2015-08-24 09:44:04.872000'
g97
tp251
a(S'2015-08-24 09:44:04.873000'
S'data saved as csv to C:\\Users\\Jbarrett\\Charlie\\charlie\\data\\csv\\4451_matrix_reasoning.csv'
tp252
a(S'2015-08-24 09:44:05.012000'
g99
tp253
a(S'2015-08-24 09:45:30.925000'
g97
tp254
a(S'2015-08-24 09:45:31.078000'
g99
tp255
a(S'2015-08-24 09:45:31.081000'
g97
tp256
a(S'2015-08-24 09:45:31.082000'
S'data saved as csv to C:\\Users\\Jbarrett\\Charlie\\charlie\\data\\csv\\4451_matrix_reasoning.csv'
tp257
a(S'2015-08-24 09:45:31.239000'
g99
tp258
a(S'2015-08-24 09:45:31.264000'
g97
tp259
asb.