(icharlie.tools.data
Data
p1
(dp2
S'lang'
p3
S'EN'
p4
sS'control'
p5
(lp6
sS'last_updated'
p7
S'2015-08-24 09:23:51.535000'
p8
sS'last_opened'
p9
cdatetime
datetime
p10
(S'\x07\xdf\x08\x18\t\x16\x07\n\x8f '
tRp11
sS'proj_id'
p12
S'connectivity'
p13
sS'date_done'
p14
g10
(S'\x07\xdf\x08\x18\t\x173\x08)\xd8'
tRp15
sS'test_done'
p16
I01
sS'data'
p17
(lp18
(S'4451'
p19
S'emotion_recognition'
p20
I0
S'Female'
p21
S'Happy'
p22
S'Strong'
p23
S'C:\\Users\\Jbarrett\\Charlie\\charlie\\stimuli\\visual\\emotion_recognition\\FHZ_152.png'
S'Happy'
p24
I4080
tp25
a(g19
g20
I1
g21
S'Afraid'
p26
g23
S'C:\\Users\\Jbarrett\\Charlie\\charlie\\stimuli\\visual\\emotion_recognition\\FFZ_236.png'
S'Neutral'
I2670
tp27
a(g19
g20
I2
S'Male'
p28
g22
g23
S'C:\\Users\\Jbarrett\\Charlie\\charlie\\stimuli\\visual\\emotion_recognition\\MHZ_216.png'
S'Happy'
I1330
tp29
a(g19
g20
I3
g28
S'Angry'
p30
S'Weak'
p31
S'C:\\Users\\Jbarrett\\Charlie\\charlie\\stimuli\\visual\\emotion_recognition\\MAX_39.png'
S'Angry'
I3721
tp32
a(g19
g20
I4
g28
g22
g31
S'C:\\Users\\Jbarrett\\Charlie\\charlie\\stimuli\\visual\\emotion_recognition\\MHX_140.png'
S'Happy'
I1080
tp33
a(g19
g20
I5
g21
g26
g31
S'C:\\Users\\Jbarrett\\Charlie\\charlie\\stimuli\\visual\\emotion_recognition\\FFX_54.png'
S'Afraid'
I3070
tp34
a(g19
g20
I6
g21
S'Neutral'
p35
S'N/A'
p36
S'C:\\Users\\Jbarrett\\Charlie\\charlie\\stimuli\\visual\\emotion_recognition\\FN_30.png'
S'Neutral'
I1410
tp37
a(g19
g20
I7
g21
S'Sad'
p38
g23
S'C:\\Users\\Jbarrett\\Charlie\\charlie\\stimuli\\visual\\emotion_recognition\\FSZ_219.png'
S'Sad'
I1560
tp39
a(g19
g20
I8
g28
g22
g31
S'C:\\Users\\Jbarrett\\Charlie\\charlie\\stimuli\\visual\\emotion_recognition\\MHX_104.png'
S'Happy'
I1210
tp40
a(g19
g20
I9
g21
g30
g31
S'C:\\Users\\Jbarrett\\Charlie\\charlie\\stimuli\\visual\\emotion_recognition\\FAX_45.png'
S'Angry'
I2110
tp41
a(g19
g20
I10
g21
g22
g23
S'C:\\Users\\Jbarrett\\Charlie\\charlie\\stimuli\\visual\\emotion_recognition\\FHZ_131.png'
S'Happy'
I960
tp42
a(g19
g20
I11
g28
g35
g36
S'C:\\Users\\Jbarrett\\Charlie\\charlie\\stimuli\\visual\\emotion_recognition\\MN_111.png'
S'Neutral'
I1321
tp43
a(g19
g20
I12
g21
g30
g23
S'C:\\Users\\Jbarrett\\Charlie\\charlie\\stimuli\\visual\\emotion_recognition\\FAZ_32.png'
S'Angry'
I1640
tp44
a(g19
g20
I13
g21
g22
g31
S'C:\\Users\\Jbarrett\\Charlie\\charlie\\stimuli\\visual\\emotion_recognition\\FHX_220.png'
S'Happy'
I1580
tp45
a(g19
g20
I14
g21
g26
g31
S'C:\\Users\\Jbarrett\\Charlie\\charlie\\stimuli\\visual\\emotion_recognition\\FFX_130.png'
S'Afraid'
I3600
tp46
a(g19
g20
I15
g21
g38
g31
S'C:\\Users\\Jbarrett\\Charlie\\charlie\\stimuli\\visual\\emotion_recognition\\FSX_20.png'
S'Sad'
I1200
tp47
a(g19
g20
I16
g28
g38
g31
S'C:\\Users\\Jbarrett\\Charlie\\charlie\\stimuli\\visual\\emotion_recognition\\MSX_108.png'
S'Sad'
I2340
tp48
a(g19
g20
I17
g28
g38
g31
S'C:\\Users\\Jbarrett\\Charlie\\charlie\\stimuli\\visual\\emotion_recognition\\MSX_147.png'
S'Angry'
I3250
tp49
a(g19
g20
I18
g21
g30
g23
S'C:\\Users\\Jbarrett\\Charlie\\charlie\\stimuli\\visual\\emotion_recognition\\FAZ_129.png'
S'Angry'
I2571
tp50
a(g19
g20
I19
g28
g35
g36
S'C:\\Users\\Jbarrett\\Charlie\\charlie\\stimuli\\visual\\emotion_recognition\\MN_123.png'
S'Neutral'
I1900
tp51
a(g19
g20
I20
g28
g38
g23
S'C:\\Users\\Jbarrett\\Charlie\\charlie\\stimuli\\visual\\emotion_recognition\\MSZ_126.png'
S'Sad'
I1330
tp52
a(g19
g20
I21
g28
g30
g23
S'C:\\Users\\Jbarrett\\Charlie\\charlie\\stimuli\\visual\\emotion_recognition\\MAZ_128.png'
S'Angry'
I1250
tp53
a(g19
g20
I22
g28
g26
g23
S'C:\\Users\\Jbarrett\\Charlie\\charlie\\stimuli\\visual\\emotion_recognition\\MFZ_7.png'
S'Afraid'
I1700
tp54
a(g19
g20
I23
g21
g30
g31
S'C:\\Users\\Jbarrett\\Charlie\\charlie\\stimuli\\visual\\emotion_recognition\\FAX_25.png'
S'Sad'
I610
tp55
a(g19
g20
I24
g28
g38
g23
S'C:\\Users\\Jbarrett\\Charlie\\charlie\\stimuli\\visual\\emotion_recognition\\MSZ_112.png'
S'Sad'
I810
tp56
a(g19
g20
I25
g28
g35
g36
S'C:\\Users\\Jbarrett\\Charlie\\charlie\\stimuli\\visual\\emotion_recognition\\MN_223.png'
S'Neutral'
I1420
tp57
a(g19
g20
I26
g28
g30
g31
S'C:\\Users\\Jbarrett\\Charlie\\charlie\\stimuli\\visual\\emotion_recognition\\MAX_201.png'
S'Angry'
I1850
tp58
a(g19
g20
I27
g28
g22
g23
S'C:\\Users\\Jbarrett\\Charlie\\charlie\\stimuli\\visual\\emotion_recognition\\MHZ_227.png'
S'Happy'
I560
tp59
a(g19
g20
I28
g28
g26
g31
S'C:\\Users\\Jbarrett\\Charlie\\charlie\\stimuli\\visual\\emotion_recognition\\MFX_153.png'
S'Afraid'
I3231
tp60
a(g19
g20
I29
g28
g30
g23
S'C:\\Users\\Jbarrett\\Charlie\\charlie\\stimuli\\visual\\emotion_recognition\\MAZ_146.png'
S'Angry'
I1510
tp61
a(g19
g20
I30
g21
g35
g36
S'C:\\Users\\Jbarrett\\Charlie\\charlie\\stimuli\\visual\\emotion_recognition\\FN_13.png'
S'Neutral'
I1500
tp62
a(g19
g20
I31
g21
g22
g31
S'C:\\Users\\Jbarrett\\Charlie\\charlie\\stimuli\\visual\\emotion_recognition\\FHX_127.png'
S'Happy'
I1290
tp63
a(g19
g20
I32
g21
g38
g23
S'C:\\Users\\Jbarrett\\Charlie\\charlie\\stimuli\\visual\\emotion_recognition\\FSZ_210.png'
S'Sad'
I1310
tp64
a(g19
g20
I33
g21
g38
g31
S'C:\\Users\\Jbarrett\\Charlie\\charlie\\stimuli\\visual\\emotion_recognition\\FSX_47.png'
S'Sad'
I1750
tp65
a(g19
g20
I34
g28
g35
g36
S'C:\\Users\\Jbarrett\\Charlie\\charlie\\stimuli\\visual\\emotion_recognition\\MN_21.png'
S'Neutral'
I1410
tp66
a(g19
g20
I35
g21
g26
g23
S'C:\\Users\\Jbarrett\\Charlie\\charlie\\stimuli\\visual\\emotion_recognition\\FFZ_29.png'
S'Sad'
I1490
tp67
a(g19
g20
I36
g21
g35
g36
S'C:\\Users\\Jbarrett\\Charlie\\charlie\\stimuli\\visual\\emotion_recognition\\FN_228.png'
S'Neutral'
I1220
tp68
a(g19
g20
I37
g28
g26
g23
S'C:\\Users\\Jbarrett\\Charlie\\charlie\\stimuli\\visual\\emotion_recognition\\MFZ_132.png'
S'Afraid'
I2130
tp69
a(g19
g20
I38
g21
g35
g36
S'C:\\Users\\Jbarrett\\Charlie\\charlie\\stimuli\\visual\\emotion_recognition\\FN_204.png'
S'Neutral'
I1180
tp70
a(g19
g20
I39
g28
g26
g31
S'C:\\Users\\Jbarrett\\Charlie\\charlie\\stimuli\\visual\\emotion_recognition\\MFX_137.png'
p71
S'Afraid'
I7300
tp72
asS'output_format'
p73
(lp74
(S'proband_id'
p75
c__builtin__
str
p76
tp77
a(S'test_name'
p78
g76
tp79
a(S'trialn'
p80
c__builtin__
int
p81
tp82
a(S'sex'
p83
g76
tp84
a(S'emotion'
p85
g76
tp86
a(S'salience'
p87
g76
tp88
a(S'f'
g76
tp89
a(S'rsp'
p90
g76
tp91
a(S'rt'
p92
g81
tp93
asg75
g19
sS'filename'
p94
S'4451_emotion_recognition.data'
p95
sS'initialised'
p96
g10
(S'\x07\xdf\x08\x18\t\x16\x07\n\x8f '
tRp97
sg78
S'emotion_recognition'
p98
sS'directory'
p99
S'C:\\Users\\Jbarrett\\Charlie\\charlie\\data\\raw'
p100
sS'user_id'
p101
S'barrett'
p102
sS'test_started'
p103
I01
sS'abs_filename'
p104
S'C:\\Users\\Jbarrett\\Charlie\\charlie\\data\\raw\\4451_emotion_recognition.data'
p105
sS'date_started'
p106
g10
(S'\x07\xdf\x08\x18\t\x16\x1a\n\x1d\xd8'
tRp107
sS'log'
p108
(lp109
(S'2015-08-24 09:22:07.692000'
S'instance created'
p110
tp111
a(S'2015-08-24 09:22:26.666000'
S'instance updated'
p112
tp113
a(S'2015-08-24 09:22:26.672000'
S'pandas DataFrame of data created'
p114
tp115
a(S'2015-08-24 09:22:26.674000'
g112
tp116
a(S'2015-08-24 09:22:26.675000'
S'data saved as csv to C:\\Users\\Jbarrett\\Charlie\\charlie\\data\\csv\\4451_emotion_recognition.csv'
tp117
a(S'2015-08-24 09:22:29.455000'
g112
tp118
a(S'2015-08-24 09:22:29.464000'
g114
tp119
a(S'2015-08-24 09:22:29.467000'
g112
tp120
a(S'2015-08-24 09:22:29.467000'
S'data saved as csv to C:\\Users\\Jbarrett\\Charlie\\charlie\\data\\csv\\4451_emotion_recognition.csv'
tp121
a(S'2015-08-24 09:22:30.907000'
g112
tp122
a(S'2015-08-24 09:22:30.919000'
g114
tp123
a(S'2015-08-24 09:22:30.922000'
g112
tp124
a(S'2015-08-24 09:22:30.922000'
S'data saved as csv to C:\\Users\\Jbarrett\\Charlie\\charlie\\data\\csv\\4451_emotion_recognition.csv'
tp125
a(S'2015-08-24 09:22:34.753000'
g112
tp126
a(S'2015-08-24 09:22:34.769000'
g114
tp127
a(S'2015-08-24 09:22:34.771000'
g112
tp128
a(S'2015-08-24 09:22:34.772000'
S'data saved as csv to C:\\Users\\Jbarrett\\Charlie\\charlie\\data\\csv\\4451_emotion_recognition.csv'
tp129
a(S'2015-08-24 09:22:35.960000'
g112
tp130
a(S'2015-08-24 09:22:35.980000'
g114
tp131
a(S'2015-08-24 09:22:35.982000'
g112
tp132
a(S'2015-08-24 09:22:35.983000'
S'data saved as csv to C:\\Users\\Jbarrett\\Charlie\\charlie\\data\\csv\\4451_emotion_recognition.csv'
tp133
a(S'2015-08-24 09:22:40.952000'
g112
tp134
a(S'2015-08-24 09:22:40.975000'
g114
tp135
a(S'2015-08-24 09:22:40.977000'
g112
tp136
a(S'2015-08-24 09:22:40.978000'
S'data saved as csv to C:\\Users\\Jbarrett\\Charlie\\charlie\\data\\csv\\4451_emotion_recognition.csv'
tp137
a(S'2015-08-24 09:22:42.497000'
g112
tp138
a(S'2015-08-24 09:22:42.524000'
g114
tp139
a(S'2015-08-24 09:22:42.526000'
g112
tp140
a(S'2015-08-24 09:22:42.527000'
S'data saved as csv to C:\\Users\\Jbarrett\\Charlie\\charlie\\data\\csv\\4451_emotion_recognition.csv'
tp141
a(S'2015-08-24 09:22:44.196000'
g112
tp142
a(S'2015-08-24 09:22:44.225000'
g114
tp143
a(S'2015-08-24 09:22:44.227000'
g112
tp144
a(S'2015-08-24 09:22:44.228000'
S'data saved as csv to C:\\Users\\Jbarrett\\Charlie\\charlie\\data\\csv\\4451_emotion_recognition.csv'
tp145
a(S'2015-08-24 09:22:45.547000'
g112
tp146
a(S'2015-08-24 09:22:45.580000'
g114
tp147
a(S'2015-08-24 09:22:45.582000'
g112
tp148
a(S'2015-08-24 09:22:45.583000'
S'data saved as csv to C:\\Users\\Jbarrett\\Charlie\\charlie\\data\\csv\\4451_emotion_recognition.csv'
tp149
a(S'2015-08-24 09:22:47.802000'
g112
tp150
a(S'2015-08-24 09:22:47.838000'
g114
tp151
a(S'2015-08-24 09:22:47.840000'
g112
tp152
a(S'2015-08-24 09:22:47.841000'
S'data saved as csv to C:\\Users\\Jbarrett\\Charlie\\charlie\\data\\csv\\4451_emotion_recognition.csv'
tp153
a(S'2015-08-24 09:22:48.911000'
g112
tp154
a(S'2015-08-24 09:22:48.950000'
g114
tp155
a(S'2015-08-24 09:22:48.952000'
g112
tp156
a(S'2015-08-24 09:22:48.953000'
S'data saved as csv to C:\\Users\\Jbarrett\\Charlie\\charlie\\data\\csv\\4451_emotion_recognition.csv'
tp157
a(S'2015-08-24 09:22:50.382000'
g112
tp158
a(S'2015-08-24 09:22:50.424000'
g114
tp159
a(S'2015-08-24 09:22:50.426000'
g112
tp160
a(S'2015-08-24 09:22:50.427000'
S'data saved as csv to C:\\Users\\Jbarrett\\Charlie\\charlie\\data\\csv\\4451_emotion_recognition.csv'
tp161
a(S'2015-08-24 09:22:52.176000'
g112
tp162
a(S'2015-08-24 09:22:52.222000'
g114
tp163
a(S'2015-08-24 09:22:52.224000'
g112
tp164
a(S'2015-08-24 09:22:52.225000'
S'data saved as csv to C:\\Users\\Jbarrett\\Charlie\\charlie\\data\\csv\\4451_emotion_recognition.csv'
tp165
a(S'2015-08-24 09:22:53.915000'
g112
tp166
a(S'2015-08-24 09:22:53.964000'
g114
tp167
a(S'2015-08-24 09:22:53.966000'
g112
tp168
a(S'2015-08-24 09:22:53.967000'
S'data saved as csv to C:\\Users\\Jbarrett\\Charlie\\charlie\\data\\csv\\4451_emotion_recognition.csv'
tp169
a(S'2015-08-24 09:22:57.676000'
g112
tp170
a(S'2015-08-24 09:22:57.728000'
g114
tp171
a(S'2015-08-24 09:22:57.731000'
g112
tp172
a(S'2015-08-24 09:22:57.731000'
S'data saved as csv to C:\\Users\\Jbarrett\\Charlie\\charlie\\data\\csv\\4451_emotion_recognition.csv'
tp173
a(S'2015-08-24 09:22:59.041000'
g112
tp174
a(S'2015-08-24 09:22:59.096000'
g114
tp175
a(S'2015-08-24 09:22:59.099000'
g112
tp176
a(S'2015-08-24 09:22:59.100000'
S'data saved as csv to C:\\Users\\Jbarrett\\Charlie\\charlie\\data\\csv\\4451_emotion_recognition.csv'
tp177
a(S'2015-08-24 09:23:01.549000'
g112
tp178
a(S'2015-08-24 09:23:01.608000'
g114
tp179
a(S'2015-08-24 09:23:01.611000'
g112
tp180
a(S'2015-08-24 09:23:01.612000'
S'data saved as csv to C:\\Users\\Jbarrett\\Charlie\\charlie\\data\\csv\\4451_emotion_recognition.csv'
tp181
a(S'2015-08-24 09:23:04.972000'
g112
tp182
a(S'2015-08-24 09:23:05.035000'
g114
tp183
a(S'2015-08-24 09:23:05.037000'
g112
tp184
a(S'2015-08-24 09:23:05.038000'
S'data saved as csv to C:\\Users\\Jbarrett\\Charlie\\charlie\\data\\csv\\4451_emotion_recognition.csv'
tp185
a(S'2015-08-24 09:23:07.718000'
g112
tp186
a(S'2015-08-24 09:23:07.783000'
g114
tp187
a(S'2015-08-24 09:23:07.786000'
g112
tp188
a(S'2015-08-24 09:23:07.787000'
S'data saved as csv to C:\\Users\\Jbarrett\\Charlie\\charlie\\data\\csv\\4451_emotion_recognition.csv'
tp189
a(S'2015-08-24 09:23:09.796000'
g112
tp190
a(S'2015-08-24 09:23:09.865000'
g114
tp191
a(S'2015-08-24 09:23:09.867000'
g112
tp192
a(S'2015-08-24 09:23:09.868000'
S'data saved as csv to C:\\Users\\Jbarrett\\Charlie\\charlie\\data\\csv\\4451_emotion_recognition.csv'
tp193
a(S'2015-08-24 09:23:11.307000'
g112
tp194
a(S'2015-08-24 09:23:11.379000'
g114
tp195
a(S'2015-08-24 09:23:11.381000'
g112
tp196
a(S'2015-08-24 09:23:11.382000'
S'data saved as csv to C:\\Users\\Jbarrett\\Charlie\\charlie\\data\\csv\\4451_emotion_recognition.csv'
tp197
a(S'2015-08-24 09:23:12.743000'
g112
tp198
a(S'2015-08-24 09:23:12.818000'
g114
tp199
a(S'2015-08-24 09:23:12.820000'
g112
tp200
a(S'2015-08-24 09:23:12.821000'
S'data saved as csv to C:\\Users\\Jbarrett\\Charlie\\charlie\\data\\csv\\4451_emotion_recognition.csv'
tp201
a(S'2015-08-24 09:23:14.630000'
g112
tp202
a(S'2015-08-24 09:23:14.709000'
g114
tp203
a(S'2015-08-24 09:23:14.711000'
g112
tp204
a(S'2015-08-24 09:23:14.712000'
S'data saved as csv to C:\\Users\\Jbarrett\\Charlie\\charlie\\data\\csv\\4451_emotion_recognition.csv'
tp205
a(S'2015-08-24 09:23:16.871000'
g112
tp206
a(S'2015-08-24 09:23:16.953000'
g114
tp207
a(S'2015-08-24 09:23:16.956000'
g112
tp208
a(S'2015-08-24 09:23:16.957000'
S'data saved as csv to C:\\Users\\Jbarrett\\Charlie\\charlie\\data\\csv\\4451_emotion_recognition.csv'
tp209
a(S'2015-08-24 09:23:17.876000'
g112
tp210
a(S'2015-08-24 09:23:17.962000'
g114
tp211
a(S'2015-08-24 09:23:17.964000'
g112
tp212
a(S'2015-08-24 09:23:17.965000'
S'data saved as csv to C:\\Users\\Jbarrett\\Charlie\\charlie\\data\\csv\\4451_emotion_recognition.csv'
tp213
a(S'2015-08-24 09:23:19.494000'
g112
tp214
a(S'2015-08-24 09:23:19.582000'
g114
tp215
a(S'2015-08-24 09:23:19.585000'
g112
tp216
a(S'2015-08-24 09:23:19.585000'
S'data saved as csv to C:\\Users\\Jbarrett\\Charlie\\charlie\\data\\csv\\4451_emotion_recognition.csv'
tp217
a(S'2015-08-24 09:23:21.545000'
g112
tp218
a(S'2015-08-24 09:23:21.636000'
g114
tp219
a(S'2015-08-24 09:23:21.638000'
g112
tp220
a(S'2015-08-24 09:23:21.639000'
S'data saved as csv to C:\\Users\\Jbarrett\\Charlie\\charlie\\data\\csv\\4451_emotion_recognition.csv'
tp221
a(S'2015-08-24 09:23:23.360000'
g112
tp222
a(S'2015-08-24 09:23:23.455000'
g114
tp223
a(S'2015-08-24 09:23:23.457000'
g112
tp224
a(S'2015-08-24 09:23:23.458000'
S'data saved as csv to C:\\Users\\Jbarrett\\Charlie\\charlie\\data\\csv\\4451_emotion_recognition.csv'
tp225
a(S'2015-08-24 09:23:26.798000'
g112
tp226
a(S'2015-08-24 09:23:26.896000'
g114
tp227
a(S'2015-08-24 09:23:26.899000'
g112
tp228
a(S'2015-08-24 09:23:26.900000'
S'data saved as csv to C:\\Users\\Jbarrett\\Charlie\\charlie\\data\\csv\\4451_emotion_recognition.csv'
tp229
a(S'2015-08-24 09:23:28.519000'
g112
tp230
a(S'2015-08-24 09:23:28.620000'
g114
tp231
a(S'2015-08-24 09:23:28.623000'
g112
tp232
a(S'2015-08-24 09:23:28.624000'
S'data saved as csv to C:\\Users\\Jbarrett\\Charlie\\charlie\\data\\csv\\4451_emotion_recognition.csv'
tp233
a(S'2015-08-24 09:23:30.233000'
g112
tp234
a(S'2015-08-24 09:23:30.338000'
g114
tp235
a(S'2015-08-24 09:23:30.340000'
g112
tp236
a(S'2015-08-24 09:23:30.341000'
S'data saved as csv to C:\\Users\\Jbarrett\\Charlie\\charlie\\data\\csv\\4451_emotion_recognition.csv'
tp237
a(S'2015-08-24 09:23:31.741000'
g112
tp238
a(S'2015-08-24 09:23:31.849000'
g114
tp239
a(S'2015-08-24 09:23:31.852000'
g112
tp240
a(S'2015-08-24 09:23:31.853000'
S'data saved as csv to C:\\Users\\Jbarrett\\Charlie\\charlie\\data\\csv\\4451_emotion_recognition.csv'
tp241
a(S'2015-08-24 09:23:33.273000'
g112
tp242
a(S'2015-08-24 09:23:33.384000'
g114
tp243
a(S'2015-08-24 09:23:33.387000'
g112
tp244
a(S'2015-08-24 09:23:33.388000'
S'data saved as csv to C:\\Users\\Jbarrett\\Charlie\\charlie\\data\\csv\\4451_emotion_recognition.csv'
tp245
a(S'2015-08-24 09:23:35.247000'
g112
tp246
a(S'2015-08-24 09:23:35.361000'
g114
tp247
a(S'2015-08-24 09:23:35.364000'
g112
tp248
a(S'2015-08-24 09:23:35.365000'
S'data saved as csv to C:\\Users\\Jbarrett\\Charlie\\charlie\\data\\csv\\4451_emotion_recognition.csv'
tp249
a(S'2015-08-24 09:23:36.884000'
g112
tp250
a(S'2015-08-24 09:23:37.002000'
g114
tp251
a(S'2015-08-24 09:23:37.005000'
g112
tp252
a(S'2015-08-24 09:23:37.006000'
S'data saved as csv to C:\\Users\\Jbarrett\\Charlie\\charlie\\data\\csv\\4451_emotion_recognition.csv'
tp253
a(S'2015-08-24 09:23:38.605000'
g112
tp254
a(S'2015-08-24 09:23:38.726000'
g114
tp255
a(S'2015-08-24 09:23:38.729000'
g112
tp256
a(S'2015-08-24 09:23:38.730000'
S'data saved as csv to C:\\Users\\Jbarrett\\Charlie\\charlie\\data\\csv\\4451_emotion_recognition.csv'
tp257
a(S'2015-08-24 09:23:40.059000'
g112
tp258
a(S'2015-08-24 09:23:40.183000'
g114
tp259
a(S'2015-08-24 09:23:40.186000'
g112
tp260
a(S'2015-08-24 09:23:40.187000'
S'data saved as csv to C:\\Users\\Jbarrett\\Charlie\\charlie\\data\\csv\\4451_emotion_recognition.csv'
tp261
a(S'2015-08-24 09:23:42.427000'
g112
tp262
a(S'2015-08-24 09:23:42.555000'
g114
tp263
a(S'2015-08-24 09:23:42.558000'
g112
tp264
a(S'2015-08-24 09:23:42.559000'
S'data saved as csv to C:\\Users\\Jbarrett\\Charlie\\charlie\\data\\csv\\4451_emotion_recognition.csv'
tp265
a(S'2015-08-24 09:23:43.848000'
g112
tp266
a(S'2015-08-24 09:23:43.981000'
g114
tp267
a(S'2015-08-24 09:23:43.983000'
g112
tp268
a(S'2015-08-24 09:23:43.984000'
S'data saved as csv to C:\\Users\\Jbarrett\\Charlie\\charlie\\data\\csv\\4451_emotion_recognition.csv'
tp269
a(S'2015-08-24 09:23:51.394000'
g112
tp270
a(S'2015-08-24 09:23:51.529000'
g114
tp271
a(S'2015-08-24 09:23:51.532000'
g112
tp272
a(S'2015-08-24 09:23:51.533000'
S'data saved as csv to C:\\Users\\Jbarrett\\Charlie\\charlie\\data\\csv\\4451_emotion_recognition.csv'
tp273
a(S'2015-08-24 09:23:51.535000'
g112
tp274
asb.