(icharlie.tools.data
Data
p1
(dp2
S'lang'
p3
S'EN'
p4
sS'control'
p5
(lp6
sS'last_updated'
p7
S'2015-08-24 09:59:12.671000'
p8
sS'last_opened'
p9
cdatetime
datetime
p10
(S'\x07\xdf\x08\x18\t:\x0b\x04|p'
tRp11
sS'proj_id'
p12
S'connectivity'
p13
sS'date_done'
p14
g10
(S'\x07\xdf\x08\x18\t;\x0c\n=\x18'
tRp15
sS'test_done'
p16
I01
sS'data'
p17
(lp18
(S'4451'
p19
S'face_memory_delay'
p20
S'test'
p21
I0
S'C:\\Users\\Jbarrett\\Charlie\\charlie\\stimuli\\visual\\face_memory_delay\\ddis10.bmp'
S'No'
p22
g22
I1140
tp23
a(g19
g20
g21
I1
S'C:\\Users\\Jbarrett\\Charlie\\charlie\\stimuli\\visual\\face_memory_delay\\ddis04.bmp'
g22
S'Yes'
p24
I830
tp25
a(g19
g20
g21
I2
S'C:\\Users\\Jbarrett\\Charlie\\charlie\\stimuli\\visual\\face_memory_delay\\tar07.bmp'
g24
g24
I820
tp26
a(g19
g20
g21
I3
S'C:\\Users\\Jbarrett\\Charlie\\charlie\\stimuli\\visual\\face_memory_delay\\tar18.bmp'
g24
g24
I1520
tp27
a(g19
g20
g21
I4
S'C:\\Users\\Jbarrett\\Charlie\\charlie\\stimuli\\visual\\face_memory_delay\\ddis14.bmp'
g22
g24
I1220
tp28
a(g19
g20
g21
I5
S'C:\\Users\\Jbarrett\\Charlie\\charlie\\stimuli\\visual\\face_memory_delay\\tar19.bmp'
g24
g22
I620
tp29
a(g19
g20
g21
I6
S'C:\\Users\\Jbarrett\\Charlie\\charlie\\stimuli\\visual\\face_memory_delay\\ddis13.bmp'
g22
g24
I821
tp30
a(g19
g20
g21
I7
S'C:\\Users\\Jbarrett\\Charlie\\charlie\\stimuli\\visual\\face_memory_delay\\tar15.bmp'
g24
g24
I770
tp31
a(g19
g20
g21
I8
S'C:\\Users\\Jbarrett\\Charlie\\charlie\\stimuli\\visual\\face_memory_delay\\tar11.bmp'
g24
g22
I580
tp32
a(g19
g20
g21
I9
S'C:\\Users\\Jbarrett\\Charlie\\charlie\\stimuli\\visual\\face_memory_delay\\ddis05.bmp'
g22
g24
I750
tp33
a(g19
g20
g21
I10
S'C:\\Users\\Jbarrett\\Charlie\\charlie\\stimuli\\visual\\face_memory_delay\\ddis01.bmp'
g22
g24
I720
tp34
a(g19
g20
g21
I11
S'C:\\Users\\Jbarrett\\Charlie\\charlie\\stimuli\\visual\\face_memory_delay\\ddis16.bmp'
g22
g22
I680
tp35
a(g19
g20
g21
I12
S'C:\\Users\\Jbarrett\\Charlie\\charlie\\stimuli\\visual\\face_memory_delay\\tar02.bmp'
g24
g24
I930
tp36
a(g19
g20
g21
I13
S'C:\\Users\\Jbarrett\\Charlie\\charlie\\stimuli\\visual\\face_memory_delay\\tar08.bmp'
g24
g24
I740
tp37
a(g19
g20
g21
I14
S'C:\\Users\\Jbarrett\\Charlie\\charlie\\stimuli\\visual\\face_memory_delay\\tar13.bmp'
g24
g24
I720
tp38
a(g19
g20
g21
I15
S'C:\\Users\\Jbarrett\\Charlie\\charlie\\stimuli\\visual\\face_memory_delay\\tar20.bmp'
g24
g24
I770
tp39
a(g19
g20
g21
I16
S'C:\\Users\\Jbarrett\\Charlie\\charlie\\stimuli\\visual\\face_memory_delay\\ddis18.bmp'
g22
g22
I680
tp40
a(g19
g20
g21
I17
S'C:\\Users\\Jbarrett\\Charlie\\charlie\\stimuli\\visual\\face_memory_delay\\tar06.bmp'
g24
g24
I1080
tp41
a(g19
g20
g21
I18
S'C:\\Users\\Jbarrett\\Charlie\\charlie\\stimuli\\visual\\face_memory_delay\\ddis07.bmp'
g22
g24
I970
tp42
a(g19
g20
g21
I19
S'C:\\Users\\Jbarrett\\Charlie\\charlie\\stimuli\\visual\\face_memory_delay\\ddis08.bmp'
g22
g22
I690
tp43
a(g19
g20
g21
I20
S'C:\\Users\\Jbarrett\\Charlie\\charlie\\stimuli\\visual\\face_memory_delay\\tar12.bmp'
g24
g24
I960
tp44
a(g19
g20
g21
I21
S'C:\\Users\\Jbarrett\\Charlie\\charlie\\stimuli\\visual\\face_memory_delay\\ddis17.bmp'
g22
g22
I910
tp45
a(g19
g20
g21
I22
S'C:\\Users\\Jbarrett\\Charlie\\charlie\\stimuli\\visual\\face_memory_delay\\tar05.bmp'
g24
g24
I710
tp46
a(g19
g20
g21
I23
S'C:\\Users\\Jbarrett\\Charlie\\charlie\\stimuli\\visual\\face_memory_delay\\tar10.bmp'
g24
g24
I670
tp47
a(g19
g20
g21
I24
S'C:\\Users\\Jbarrett\\Charlie\\charlie\\stimuli\\visual\\face_memory_delay\\ddis02.bmp'
g22
g22
I541
tp48
a(g19
g20
g21
I25
S'C:\\Users\\Jbarrett\\Charlie\\charlie\\stimuli\\visual\\face_memory_delay\\ddis20.bmp'
g22
g24
I1170
tp49
a(g19
g20
g21
I26
S'C:\\Users\\Jbarrett\\Charlie\\charlie\\stimuli\\visual\\face_memory_delay\\tar17.bmp'
g24
g22
I620
tp50
a(g19
g20
g21
I27
S'C:\\Users\\Jbarrett\\Charlie\\charlie\\stimuli\\visual\\face_memory_delay\\ddis15.bmp'
g22
g22
I920
tp51
a(g19
g20
g21
I28
S'C:\\Users\\Jbarrett\\Charlie\\charlie\\stimuli\\visual\\face_memory_delay\\tar03.bmp'
g24
g24
I660
tp52
a(g19
g20
g21
I29
S'C:\\Users\\Jbarrett\\Charlie\\charlie\\stimuli\\visual\\face_memory_delay\\ddis19.bmp'
g22
g22
I770
tp53
a(g19
g20
g21
I30
S'C:\\Users\\Jbarrett\\Charlie\\charlie\\stimuli\\visual\\face_memory_delay\\ddis12.bmp'
g22
g22
I790
tp54
a(g19
g20
g21
I31
S'C:\\Users\\Jbarrett\\Charlie\\charlie\\stimuli\\visual\\face_memory_delay\\tar16.bmp'
g24
g24
I640
tp55
a(g19
g20
g21
I32
S'C:\\Users\\Jbarrett\\Charlie\\charlie\\stimuli\\visual\\face_memory_delay\\tar09.bmp'
g24
g22
I740
tp56
a(g19
g20
g21
I33
S'C:\\Users\\Jbarrett\\Charlie\\charlie\\stimuli\\visual\\face_memory_delay\\ddis09.bmp'
g22
g22
I860
tp57
a(g19
g20
g21
I34
S'C:\\Users\\Jbarrett\\Charlie\\charlie\\stimuli\\visual\\face_memory_delay\\tar01.bmp'
g24
g24
I660
tp58
a(g19
g20
g21
I35
S'C:\\Users\\Jbarrett\\Charlie\\charlie\\stimuli\\visual\\face_memory_delay\\ddis11.bmp'
g22
g22
I650
tp59
a(g19
g20
g21
I36
S'C:\\Users\\Jbarrett\\Charlie\\charlie\\stimuli\\visual\\face_memory_delay\\ddis03.bmp'
g22
g24
I710
tp60
a(g19
g20
g21
I37
S'C:\\Users\\Jbarrett\\Charlie\\charlie\\stimuli\\visual\\face_memory_delay\\tar04.bmp'
g24
g24
I800
tp61
a(g19
g20
g21
I38
S'C:\\Users\\Jbarrett\\Charlie\\charlie\\stimuli\\visual\\face_memory_delay\\tar14.bmp'
g24
g24
I760
tp62
a(g19
g20
g21
I39
S'C:\\Users\\Jbarrett\\Charlie\\charlie\\stimuli\\visual\\face_memory_delay\\ddis06.bmp'
p63
g22
g22
I620
tp64
asS'output_format'
p65
(lp66
(S'proband_id'
p67
c__builtin__
str
p68
tp69
a(S'test_name'
p70
g68
tp71
a(S'phase'
p72
g68
tp73
a(S'trialn'
p74
c__builtin__
int
p75
tp76
a(S'f'
g68
tp77
a(S'ans'
p78
g68
tp79
a(S'rsp'
p80
g68
tp81
a(S'rt'
p82
g75
tp83
asg67
g19
sS'filename'
p84
S'4451_face_memory_delay.data'
p85
sS'initialised'
p86
g10
(S'\x07\xdf\x08\x18\t:\x0b\x04|p'
tRp87
sg70
S'face_memory_delay'
p88
sS'directory'
p89
S'C:\\Users\\Jbarrett\\Charlie\\charlie\\data\\raw'
p90
sS'user_id'
p91
S'barrett'
p92
sS'test_started'
p93
I01
sS'abs_filename'
p94
S'C:\\Users\\Jbarrett\\Charlie\\charlie\\data\\raw\\4451_face_memory_delay.data'
p95
sS'date_started'
p96
g10
(S'\x07\xdf\x08\x18\t:"\x0bZ@'
tRp97
sS'log'
p98
(lp99
(S'2015-08-24 09:58:11.294000'
S'instance created'
p100
tp101
a(S'2015-08-24 09:58:34.747000'
S'instance updated'
p102
tp103
a(S'2015-08-24 09:58:34.752000'
S'pandas DataFrame of data created'
p104
tp105
a(S'2015-08-24 09:58:34.759000'
g102
tp106
a(S'2015-08-24 09:58:34.760000'
S'data saved as csv to C:\\Users\\Jbarrett\\Charlie\\charlie\\data\\csv\\4451_face_memory_delay.csv'
tp107
a(S'2015-08-24 09:58:35.698000'
g102
tp108
a(S'2015-08-24 09:58:35.706000'
g104
tp109
a(S'2015-08-24 09:58:35.708000'
g102
tp110
a(S'2015-08-24 09:58:35.709000'
S'data saved as csv to C:\\Users\\Jbarrett\\Charlie\\charlie\\data\\csv\\4451_face_memory_delay.csv'
tp111
a(S'2015-08-24 09:58:36.638000'
g102
tp112
a(S'2015-08-24 09:58:36.649000'
g104
tp113
a(S'2015-08-24 09:58:36.652000'
g102
tp114
a(S'2015-08-24 09:58:36.653000'
S'data saved as csv to C:\\Users\\Jbarrett\\Charlie\\charlie\\data\\csv\\4451_face_memory_delay.csv'
tp115
a(S'2015-08-24 09:58:38.281000'
g102
tp116
a(S'2015-08-24 09:58:38.295000'
g104
tp117
a(S'2015-08-24 09:58:38.298000'
g102
tp118
a(S'2015-08-24 09:58:38.298000'
S'data saved as csv to C:\\Users\\Jbarrett\\Charlie\\charlie\\data\\csv\\4451_face_memory_delay.csv'
tp119
a(S'2015-08-24 09:58:39.627000'
g102
tp120
a(S'2015-08-24 09:58:39.644000'
g104
tp121
a(S'2015-08-24 09:58:39.646000'
g102
tp122
a(S'2015-08-24 09:58:39.647000'
S'data saved as csv to C:\\Users\\Jbarrett\\Charlie\\charlie\\data\\csv\\4451_face_memory_delay.csv'
tp123
a(S'2015-08-24 09:58:40.376000'
g102
tp124
a(S'2015-08-24 09:58:40.396000'
g104
tp125
a(S'2015-08-24 09:58:40.398000'
g102
tp126
a(S'2015-08-24 09:58:40.399000'
S'data saved as csv to C:\\Users\\Jbarrett\\Charlie\\charlie\\data\\csv\\4451_face_memory_delay.csv'
tp127
a(S'2015-08-24 09:58:41.328000'
g102
tp128
a(S'2015-08-24 09:58:41.351000'
g104
tp129
a(S'2015-08-24 09:58:41.353000'
g102
tp130
a(S'2015-08-24 09:58:41.354000'
S'data saved as csv to C:\\Users\\Jbarrett\\Charlie\\charlie\\data\\csv\\4451_face_memory_delay.csv'
tp131
a(S'2015-08-24 09:58:42.232000'
g102
tp132
a(S'2015-08-24 09:58:42.258000'
g104
tp133
a(S'2015-08-24 09:58:42.260000'
g102
tp134
a(S'2015-08-24 09:58:42.261000'
S'data saved as csv to C:\\Users\\Jbarrett\\Charlie\\charlie\\data\\csv\\4451_face_memory_delay.csv'
tp135
a(S'2015-08-24 09:58:42.950000'
g102
tp136
a(S'2015-08-24 09:58:42.979000'
g104
tp137
a(S'2015-08-24 09:58:42.981000'
g102
tp138
a(S'2015-08-24 09:58:42.982000'
S'data saved as csv to C:\\Users\\Jbarrett\\Charlie\\charlie\\data\\csv\\4451_face_memory_delay.csv'
tp139
a(S'2015-08-24 09:58:43.840000'
g102
tp140
a(S'2015-08-24 09:58:43.872000'
g104
tp141
a(S'2015-08-24 09:58:43.874000'
g102
tp142
a(S'2015-08-24 09:58:43.875000'
S'data saved as csv to C:\\Users\\Jbarrett\\Charlie\\charlie\\data\\csv\\4451_face_memory_delay.csv'
tp143
a(S'2015-08-24 09:58:44.703000'
g102
tp144
a(S'2015-08-24 09:58:44.737000'
g104
tp145
a(S'2015-08-24 09:58:44.740000'
g102
tp146
a(S'2015-08-24 09:58:44.741000'
S'data saved as csv to C:\\Users\\Jbarrett\\Charlie\\charlie\\data\\csv\\4451_face_memory_delay.csv'
tp147
a(S'2015-08-24 09:58:45.529000'
g102
tp148
a(S'2015-08-24 09:58:45.567000'
g104
tp149
a(S'2015-08-24 09:58:45.569000'
g102
tp150
a(S'2015-08-24 09:58:45.570000'
S'data saved as csv to C:\\Users\\Jbarrett\\Charlie\\charlie\\data\\csv\\4451_face_memory_delay.csv'
tp151
a(S'2015-08-24 09:58:46.609000'
g102
tp152
a(S'2015-08-24 09:58:46.649000'
g104
tp153
a(S'2015-08-24 09:58:46.651000'
g102
tp154
a(S'2015-08-24 09:58:46.652000'
S'data saved as csv to C:\\Users\\Jbarrett\\Charlie\\charlie\\data\\csv\\4451_face_memory_delay.csv'
tp155
a(S'2015-08-24 09:58:47.501000'
g102
tp156
a(S'2015-08-24 09:58:47.544000'
g104
tp157
a(S'2015-08-24 09:58:47.547000'
g102
tp158
a(S'2015-08-24 09:58:47.548000'
S'data saved as csv to C:\\Users\\Jbarrett\\Charlie\\charlie\\data\\csv\\4451_face_memory_delay.csv'
tp159
a(S'2015-08-24 09:58:48.376000'
g102
tp160
a(S'2015-08-24 09:58:48.422000'
g104
tp161
a(S'2015-08-24 09:58:48.424000'
g102
tp162
a(S'2015-08-24 09:58:48.425000'
S'data saved as csv to C:\\Users\\Jbarrett\\Charlie\\charlie\\data\\csv\\4451_face_memory_delay.csv'
tp163
a(S'2015-08-24 09:58:49.303000'
g102
tp164
a(S'2015-08-24 09:58:49.353000'
g104
tp165
a(S'2015-08-24 09:58:49.355000'
g102
tp166
a(S'2015-08-24 09:58:49.356000'
S'data saved as csv to C:\\Users\\Jbarrett\\Charlie\\charlie\\data\\csv\\4451_face_memory_delay.csv'
tp167
a(S'2015-08-24 09:58:50.144000'
g102
tp168
a(S'2015-08-24 09:58:50.197000'
g104
tp169
a(S'2015-08-24 09:58:50.199000'
g102
tp170
a(S'2015-08-24 09:58:50.200000'
S'data saved as csv to C:\\Users\\Jbarrett\\Charlie\\charlie\\data\\csv\\4451_face_memory_delay.csv'
tp171
a(S'2015-08-24 09:58:51.388000'
g102
tp172
a(S'2015-08-24 09:58:51.443000'
g104
tp173
a(S'2015-08-24 09:58:51.446000'
g102
tp174
a(S'2015-08-24 09:58:51.446000'
S'data saved as csv to C:\\Users\\Jbarrett\\Charlie\\charlie\\data\\csv\\4451_face_memory_delay.csv'
tp175
a(S'2015-08-24 09:58:52.525000'
g102
tp176
a(S'2015-08-24 09:58:52.583000'
g104
tp177
a(S'2015-08-24 09:58:52.585000'
g102
tp178
a(S'2015-08-24 09:58:52.586000'
S'data saved as csv to C:\\Users\\Jbarrett\\Charlie\\charlie\\data\\csv\\4451_face_memory_delay.csv'
tp179
a(S'2015-08-24 09:58:53.386000'
g102
tp180
a(S'2015-08-24 09:58:53.446000'
g104
tp181
a(S'2015-08-24 09:58:53.449000'
g102
tp182
a(S'2015-08-24 09:58:53.450000'
S'data saved as csv to C:\\Users\\Jbarrett\\Charlie\\charlie\\data\\csv\\4451_face_memory_delay.csv'
tp183
a(S'2015-08-24 09:58:54.518000'
g102
tp184
a(S'2015-08-24 09:58:54.582000'
g104
tp185
a(S'2015-08-24 09:58:54.584000'
g102
tp186
a(S'2015-08-24 09:58:54.585000'
S'data saved as csv to C:\\Users\\Jbarrett\\Charlie\\charlie\\data\\csv\\4451_face_memory_delay.csv'
tp187
a(S'2015-08-24 09:58:55.604000'
g102
tp188
a(S'2015-08-24 09:58:55.671000'
g104
tp189
a(S'2015-08-24 09:58:55.674000'
g102
tp190
a(S'2015-08-24 09:58:55.674000'
S'data saved as csv to C:\\Users\\Jbarrett\\Charlie\\charlie\\data\\csv\\4451_face_memory_delay.csv'
tp191
a(S'2015-08-24 09:58:56.493000'
g102
tp192
a(S'2015-08-24 09:58:56.562000'
g104
tp193
a(S'2015-08-24 09:58:56.564000'
g102
tp194
a(S'2015-08-24 09:58:56.565000'
S'data saved as csv to C:\\Users\\Jbarrett\\Charlie\\charlie\\data\\csv\\4451_face_memory_delay.csv'
tp195
a(S'2015-08-24 09:58:57.343000'
g102
tp196
a(S'2015-08-24 09:58:57.414000'
g104
tp197
a(S'2015-08-24 09:58:57.417000'
g102
tp198
a(S'2015-08-24 09:58:57.418000'
S'data saved as csv to C:\\Users\\Jbarrett\\Charlie\\charlie\\data\\csv\\4451_face_memory_delay.csv'
tp199
a(S'2015-08-24 09:58:58.066000'
g102
tp200
a(S'2015-08-24 09:58:58.141000'
g104
tp201
a(S'2015-08-24 09:58:58.143000'
g102
tp202
a(S'2015-08-24 09:58:58.144000'
S'data saved as csv to C:\\Users\\Jbarrett\\Charlie\\charlie\\data\\csv\\4451_face_memory_delay.csv'
tp203
a(S'2015-08-24 09:58:59.422000'
g102
tp204
a(S'2015-08-24 09:58:59.500000'
g104
tp205
a(S'2015-08-24 09:58:59.502000'
g102
tp206
a(S'2015-08-24 09:58:59.503000'
S'data saved as csv to C:\\Users\\Jbarrett\\Charlie\\charlie\\data\\csv\\4451_face_memory_delay.csv'
tp207
a(S'2015-08-24 09:59:00.232000'
g102
tp208
a(S'2015-08-24 09:59:00.312000'
g104
tp209
a(S'2015-08-24 09:59:00.315000'
g102
tp210
a(S'2015-08-24 09:59:00.316000'
S'data saved as csv to C:\\Users\\Jbarrett\\Charlie\\charlie\\data\\csv\\4451_face_memory_delay.csv'
tp211
a(S'2015-08-24 09:59:01.344000'
g102
tp212
a(S'2015-08-24 09:59:01.428000'
g104
tp213
a(S'2015-08-24 09:59:01.431000'
g102
tp214
a(S'2015-08-24 09:59:01.432000'
S'data saved as csv to C:\\Users\\Jbarrett\\Charlie\\charlie\\data\\csv\\4451_face_memory_delay.csv'
tp215
a(S'2015-08-24 09:59:02.200000'
g102
tp216
a(S'2015-08-24 09:59:02.286000'
g104
tp217
a(S'2015-08-24 09:59:02.288000'
g102
tp218
a(S'2015-08-24 09:59:02.289000'
S'data saved as csv to C:\\Users\\Jbarrett\\Charlie\\charlie\\data\\csv\\4451_face_memory_delay.csv'
tp219
a(S'2015-08-24 09:59:03.169000'
g102
tp220
a(S'2015-08-24 09:59:03.258000'
g104
tp221
a(S'2015-08-24 09:59:03.261000'
g102
tp222
a(S'2015-08-24 09:59:03.262000'
S'data saved as csv to C:\\Users\\Jbarrett\\Charlie\\charlie\\data\\csv\\4451_face_memory_delay.csv'
tp223
a(S'2015-08-24 09:59:04.160000'
g102
tp224
a(S'2015-08-24 09:59:04.253000'
g104
tp225
a(S'2015-08-24 09:59:04.256000'
g102
tp226
a(S'2015-08-24 09:59:04.257000'
S'data saved as csv to C:\\Users\\Jbarrett\\Charlie\\charlie\\data\\csv\\4451_face_memory_delay.csv'
tp227
a(S'2015-08-24 09:59:05.005000'
g102
tp228
a(S'2015-08-24 09:59:05.101000'
g104
tp229
a(S'2015-08-24 09:59:05.104000'
g102
tp230
a(S'2015-08-24 09:59:05.105000'
S'data saved as csv to C:\\Users\\Jbarrett\\Charlie\\charlie\\data\\csv\\4451_face_memory_delay.csv'
tp231
a(S'2015-08-24 09:59:05.953000'
g102
tp232
a(S'2015-08-24 09:59:06.052000'
g104
tp233
a(S'2015-08-24 09:59:06.055000'
g102
tp234
a(S'2015-08-24 09:59:06.056000'
S'data saved as csv to C:\\Users\\Jbarrett\\Charlie\\charlie\\data\\csv\\4451_face_memory_delay.csv'
tp235
a(S'2015-08-24 09:59:07.024000'
g102
tp236
a(S'2015-08-24 09:59:07.125000'
g104
tp237
a(S'2015-08-24 09:59:07.128000'
g102
tp238
a(S'2015-08-24 09:59:07.129000'
S'data saved as csv to C:\\Users\\Jbarrett\\Charlie\\charlie\\data\\csv\\4451_face_memory_delay.csv'
tp239
a(S'2015-08-24 09:59:07.897000'
g102
tp240
a(S'2015-08-24 09:59:08.001000'
g104
tp241
a(S'2015-08-24 09:59:08.003000'
g102
tp242
a(S'2015-08-24 09:59:08.004000'
S'data saved as csv to C:\\Users\\Jbarrett\\Charlie\\charlie\\data\\csv\\4451_face_memory_delay.csv'
tp243
a(S'2015-08-24 09:59:08.763000'
g102
tp244
a(S'2015-08-24 09:59:08.870000'
g104
tp245
a(S'2015-08-24 09:59:08.872000'
g102
tp246
a(S'2015-08-24 09:59:08.873000'
S'data saved as csv to C:\\Users\\Jbarrett\\Charlie\\charlie\\data\\csv\\4451_face_memory_delay.csv'
tp247
a(S'2015-08-24 09:59:09.693000'
g102
tp248
a(S'2015-08-24 09:59:09.801000'
g104
tp249
a(S'2015-08-24 09:59:09.804000'
g102
tp250
a(S'2015-08-24 09:59:09.805000'
S'data saved as csv to C:\\Users\\Jbarrett\\Charlie\\charlie\\data\\csv\\4451_face_memory_delay.csv'
tp251
a(S'2015-08-24 09:59:10.713000'
g102
tp252
a(S'2015-08-24 09:59:10.826000'
g104
tp253
a(S'2015-08-24 09:59:10.829000'
g102
tp254
a(S'2015-08-24 09:59:10.830000'
S'data saved as csv to C:\\Users\\Jbarrett\\Charlie\\charlie\\data\\csv\\4451_face_memory_delay.csv'
tp255
a(S'2015-08-24 09:59:11.699000'
g102
tp256
a(S'2015-08-24 09:59:11.814000'
g104
tp257
a(S'2015-08-24 09:59:11.816000'
g102
tp258
a(S'2015-08-24 09:59:11.817000'
S'data saved as csv to C:\\Users\\Jbarrett\\Charlie\\charlie\\data\\csv\\4451_face_memory_delay.csv'
tp259
a(S'2015-08-24 09:59:12.546000'
g102
tp260
a(S'2015-08-24 09:59:12.665000'
g104
tp261
a(S'2015-08-24 09:59:12.668000'
g102
tp262
a(S'2015-08-24 09:59:12.669000'
S'data saved as csv to C:\\Users\\Jbarrett\\Charlie\\charlie\\data\\csv\\4451_face_memory_delay.csv'
tp263
a(S'2015-08-24 09:59:12.671000'
g102
tp264
asb.