(icharlie.tools.data
Data
p1
(dp2
S'lang'
p3
S'EN'
p4
sS'control'
p5
(lp6
sS'last_updated'
p7
S'2015-08-27 13:03:53.702000'
p8
sS'last_opened'
p9
cdatetime
datetime
p10
(S'\x07\xdf\x08\x1b\r\x00+\x07\xa5\x08'
tRp11
sS'proj_id'
p12
S'connectivity'
p13
sS'date_done'
p14
g10
(S'\x07\xdf\x08\x1b\r\x035\n\xb2H'
tRp15
sS'test_done'
p16
I01
sS'data'
p17
(lp18
(S'4453'
p19
S'face_memory'
p20
S'learning'
p21
I0
S'c:\\Charlie\\charlie\\stimuli\\visual\\face_memory\\tar01.bmp'
p22
NS'n/a'
p23
I0
tp24
a(g19
g20
g21
I1
S'c:\\Charlie\\charlie\\stimuli\\visual\\face_memory\\tar02.bmp'
p25
Ng23
I0
tp26
a(g19
g20
g21
I2
S'c:\\Charlie\\charlie\\stimuli\\visual\\face_memory\\tar03.bmp'
p27
Ng23
I0
tp28
a(g19
g20
g21
I3
S'c:\\Charlie\\charlie\\stimuli\\visual\\face_memory\\tar04.bmp'
p29
Ng23
I0
tp30
a(g19
g20
g21
I4
S'c:\\Charlie\\charlie\\stimuli\\visual\\face_memory\\tar05.bmp'
p31
Ng23
I0
tp32
a(g19
g20
g21
I5
S'c:\\Charlie\\charlie\\stimuli\\visual\\face_memory\\tar06.bmp'
p33
Ng23
I0
tp34
a(g19
g20
g21
I6
S'c:\\Charlie\\charlie\\stimuli\\visual\\face_memory\\tar07.bmp'
p35
Ng23
I0
tp36
a(g19
g20
g21
I7
S'c:\\Charlie\\charlie\\stimuli\\visual\\face_memory\\tar08.bmp'
p37
Ng23
I0
tp38
a(g19
g20
g21
I8
S'c:\\Charlie\\charlie\\stimuli\\visual\\face_memory\\tar09.bmp'
p39
Ng23
I0
tp40
a(g19
g20
g21
I9
S'c:\\Charlie\\charlie\\stimuli\\visual\\face_memory\\tar10.bmp'
p41
Ng23
I0
tp42
a(g19
g20
g21
I10
S'c:\\Charlie\\charlie\\stimuli\\visual\\face_memory\\tar11.bmp'
p43
Ng23
I0
tp44
a(g19
g20
g21
I11
S'c:\\Charlie\\charlie\\stimuli\\visual\\face_memory\\tar12.bmp'
p45
Ng23
I0
tp46
a(g19
g20
g21
I12
S'c:\\Charlie\\charlie\\stimuli\\visual\\face_memory\\tar13.bmp'
p47
Ng23
I0
tp48
a(g19
g20
g21
I13
S'c:\\Charlie\\charlie\\stimuli\\visual\\face_memory\\tar14.bmp'
p49
Ng23
I0
tp50
a(g19
g20
g21
I14
S'c:\\Charlie\\charlie\\stimuli\\visual\\face_memory\\tar15.bmp'
p51
Ng23
I0
tp52
a(g19
g20
g21
I15
S'c:\\Charlie\\charlie\\stimuli\\visual\\face_memory\\tar16.bmp'
p53
Ng23
I0
tp54
a(g19
g20
g21
I16
S'c:\\Charlie\\charlie\\stimuli\\visual\\face_memory\\tar17.bmp'
p55
Ng23
I0
tp56
a(g19
g20
g21
I17
S'c:\\Charlie\\charlie\\stimuli\\visual\\face_memory\\tar18.bmp'
p57
Ng23
I0
tp58
a(g19
g20
g21
I18
S'c:\\Charlie\\charlie\\stimuli\\visual\\face_memory\\tar19.bmp'
p59
Ng23
I0
tp60
a(g19
g20
g21
I19
S'c:\\Charlie\\charlie\\stimuli\\visual\\face_memory\\tar20.bmp'
p61
Ng23
I0
tp62
a(g19
g20
S'test'
p63
I0
S'c:\\Charlie\\charlie\\stimuli\\visual\\face_memory\\idis04.bmp'
S'No'
p64
g64
I1300
tp65
a(g19
g20
g63
I1
g61
S'Yes'
p66
g66
I820
tp67
a(g19
g20
g63
I2
S'c:\\Charlie\\charlie\\stimuli\\visual\\face_memory\\idis01.bmp'
g64
g64
I920
tp68
a(g19
g20
g63
I3
S'c:\\Charlie\\charlie\\stimuli\\visual\\face_memory\\idis05.bmp'
g64
g64
I910
tp69
a(g19
g20
g63
I4
S'c:\\Charlie\\charlie\\stimuli\\visual\\face_memory\\idis16.bmp'
g64
g64
I980
tp70
a(g19
g20
g63
I5
g55
g66
g66
I740
tp71
a(g19
g20
g63
I6
g39
g66
g66
I680
tp72
a(g19
g20
g63
I7
S'c:\\Charlie\\charlie\\stimuli\\visual\\face_memory\\idis11.bmp'
g64
g64
I2140
tp73
a(g19
g20
g63
I8
S'c:\\Charlie\\charlie\\stimuli\\visual\\face_memory\\idis06.bmp'
g64
g64
I1750
tp74
a(g19
g20
g63
I9
S'c:\\Charlie\\charlie\\stimuli\\visual\\face_memory\\idis15.bmp'
g64
g64
I1221
tp75
a(g19
g20
g63
I10
S'c:\\Charlie\\charlie\\stimuli\\visual\\face_memory\\idis14.bmp'
g64
g64
I960
tp76
a(g19
g20
g63
I11
g33
g66
g66
I700
tp77
a(g19
g20
g63
I12
S'c:\\Charlie\\charlie\\stimuli\\visual\\face_memory\\idis02.bmp'
g64
g64
I3550
tp78
a(g19
g20
g63
I13
S'c:\\Charlie\\charlie\\stimuli\\visual\\face_memory\\idis13.bmp'
g64
g64
I740
tp79
a(g19
g20
g63
I14
S'c:\\Charlie\\charlie\\stimuli\\visual\\face_memory\\idis18.bmp'
g64
g64
I710
tp80
a(g19
g20
g63
I15
g22
g66
g66
I840
tp81
a(g19
g20
g63
I16
g37
g66
g66
I630
tp82
a(g19
g20
g63
I17
g45
g66
g66
I630
tp83
a(g19
g20
g63
I18
S'c:\\Charlie\\charlie\\stimuli\\visual\\face_memory\\idis20.bmp'
g64
g64
I670
tp84
a(g19
g20
g63
I19
g25
g66
g66
I700
tp85
a(g19
g20
g63
I20
g43
g66
g66
I760
tp86
a(g19
g20
g63
I21
g59
g66
g66
I730
tp87
a(g19
g20
g63
I22
g51
g66
g66
I650
tp88
a(g19
g20
g63
I23
g41
g66
g66
I620
tp89
a(g19
g20
g63
I24
S'c:\\Charlie\\charlie\\stimuli\\visual\\face_memory\\idis07.bmp'
g64
g64
I620
tp90
a(g19
g20
g63
I25
S'c:\\Charlie\\charlie\\stimuli\\visual\\face_memory\\idis09.bmp'
g64
g64
I640
tp91
a(g19
g20
g63
I26
S'c:\\Charlie\\charlie\\stimuli\\visual\\face_memory\\idis12.bmp'
g64
g64
I580
tp92
a(g19
g20
g63
I27
S'c:\\Charlie\\charlie\\stimuli\\visual\\face_memory\\idis17.bmp'
g64
g64
I810
tp93
a(g19
g20
g63
I28
g35
g66
g66
I650
tp94
a(g19
g20
g63
I29
S'c:\\Charlie\\charlie\\stimuli\\visual\\face_memory\\idis19.bmp'
g64
g66
I730
tp95
a(g19
g20
g63
I30
g57
g66
g66
I1010
tp96
a(g19
g20
g63
I31
g27
g66
g66
I610
tp97
a(g19
g20
g63
I32
g49
g66
g66
I800
tp98
a(g19
g20
g63
I33
g31
g66
g66
I670
tp99
a(g19
g20
g63
I34
S'c:\\Charlie\\charlie\\stimuli\\visual\\face_memory\\idis10.bmp'
g64
g64
I801
tp100
a(g19
g20
g63
I35
S'c:\\Charlie\\charlie\\stimuli\\visual\\face_memory\\idis08.bmp'
g64
g64
I1440
tp101
a(g19
g20
g63
I36
g53
g66
g66
I690
tp102
a(g19
g20
g63
I37
g29
g66
g64
I1890
tp103
a(g19
g20
g63
I38
S'c:\\Charlie\\charlie\\stimuli\\visual\\face_memory\\idis03.bmp'
g64
g64
I730
tp104
a(g19
g20
g63
I39
g47
g66
g64
I630
tp105
asS'output_format'
p106
(lp107
(S'proband_id'
p108
c__builtin__
str
p109
tp110
a(S'test_name'
p111
g109
tp112
a(S'phase'
p113
g109
tp114
a(S'trialn'
p115
c__builtin__
int
p116
tp117
a(S'f'
g109
tp118
a(S'ans'
p119
g109
tp120
a(S'rsp'
p121
g109
tp122
a(S'rt'
p123
g116
tp124
asg108
g19
sS'filename'
p125
S'4453_face_memory.data'
p126
sS'initialised'
p127
g10
(S'\x07\xdf\x08\x1b\r\x00+\x07\xa5\x08'
tRp128
sg111
S'face_memory'
p129
sS'directory'
p130
S'c:\\Charlie\\charlie\\data\\raw'
p131
sS'user_id'
p132
S'sbuccheri'
p133
sS'test_started'
p134
I01
sS'abs_filename'
p135
S'c:\\Charlie\\charlie\\data\\raw\\4453_face_memory.data'
p136
sS'date_started'
p137
g10
(S'\x07\xdf\x08\x1b\r\x01\x00\x06\xe9\x88'
tRp138
sS'log'
p139
(lp140
(S'2015-08-27 13:00:43.501000'
S'instance created'
p141
tp142
a(S'2015-08-27 13:01:00.471000'
S'instance updated'
p143
tp144
a(S'2015-08-27 13:01:00.484000'
S'pandas DataFrame of data created'
p145
tp146
a(S'2015-08-27 13:01:00.489000'
g143
tp147
a(S'2015-08-27 13:01:00.496000'
S'data saved as csv to c:\\Charlie\\charlie\\data\\csv\\4453_face_memory.csv'
tp148
a(S'2015-08-27 13:01:04.519000'
g143
tp149
a(S'2015-08-27 13:01:04.546000'
g145
tp150
a(S'2015-08-27 13:01:04.554000'
g143
tp151
a(S'2015-08-27 13:01:04.558000'
S'data saved as csv to c:\\Charlie\\charlie\\data\\csv\\4453_face_memory.csv'
tp152
a(S'2015-08-27 13:01:08.582000'
g143
tp153
a(S'2015-08-27 13:01:08.618000'
g145
tp154
a(S'2015-08-27 13:01:08.626000'
g143
tp155
a(S'2015-08-27 13:01:08.630000'
S'data saved as csv to c:\\Charlie\\charlie\\data\\csv\\4453_face_memory.csv'
tp156
a(S'2015-08-27 13:01:12.653000'
g143
tp157
a(S'2015-08-27 13:01:12.698000'
g145
tp158
a(S'2015-08-27 13:01:12.706000'
g143
tp159
a(S'2015-08-27 13:01:12.710000'
S'data saved as csv to c:\\Charlie\\charlie\\data\\csv\\4453_face_memory.csv'
tp160
a(S'2015-08-27 13:01:16.734000'
g143
tp161
a(S'2015-08-27 13:01:16.789000'
g145
tp162
a(S'2015-08-27 13:01:16.798000'
g143
tp163
a(S'2015-08-27 13:01:16.801000'
S'data saved as csv to c:\\Charlie\\charlie\\data\\csv\\4453_face_memory.csv'
tp164
a(S'2015-08-27 13:01:20.825000'
g143
tp165
a(S'2015-08-27 13:01:20.890000'
g145
tp166
a(S'2015-08-27 13:01:20.898000'
g143
tp167
a(S'2015-08-27 13:01:20.901000'
S'data saved as csv to c:\\Charlie\\charlie\\data\\csv\\4453_face_memory.csv'
tp168
a(S'2015-08-27 13:01:24.926000'
g143
tp169
a(S'2015-08-27 13:01:24.999000'
g145
tp170
a(S'2015-08-27 13:01:25.008000'
g143
tp171
a(S'2015-08-27 13:01:25.011000'
S'data saved as csv to c:\\Charlie\\charlie\\data\\csv\\4453_face_memory.csv'
tp172
a(S'2015-08-27 13:01:29.036000'
g143
tp173
a(S'2015-08-27 13:01:29.119000'
g145
tp174
a(S'2015-08-27 13:01:29.127000'
g143
tp175
a(S'2015-08-27 13:01:29.131000'
S'data saved as csv to c:\\Charlie\\charlie\\data\\csv\\4453_face_memory.csv'
tp176
a(S'2015-08-27 13:01:33.155000'
g143
tp177
a(S'2015-08-27 13:01:33.247000'
g145
tp178
a(S'2015-08-27 13:01:33.256000'
g143
tp179
a(S'2015-08-27 13:01:33.259000'
S'data saved as csv to c:\\Charlie\\charlie\\data\\csv\\4453_face_memory.csv'
tp180
a(S'2015-08-27 13:01:37.283000'
g143
tp181
a(S'2015-08-27 13:01:37.385000'
g145
tp182
a(S'2015-08-27 13:01:37.393000'
g143
tp183
a(S'2015-08-27 13:01:37.397000'
S'data saved as csv to c:\\Charlie\\charlie\\data\\csv\\4453_face_memory.csv'
tp184
a(S'2015-08-27 13:01:41.421000'
g143
tp185
a(S'2015-08-27 13:01:41.533000'
g145
tp186
a(S'2015-08-27 13:01:41.541000'
g143
tp187
a(S'2015-08-27 13:01:41.545000'
S'data saved as csv to c:\\Charlie\\charlie\\data\\csv\\4453_face_memory.csv'
tp188
a(S'2015-08-27 13:01:45.569000'
g143
tp189
a(S'2015-08-27 13:01:45.689000'
g145
tp190
a(S'2015-08-27 13:01:45.698000'
g143
tp191
a(S'2015-08-27 13:01:45.702000'
S'data saved as csv to c:\\Charlie\\charlie\\data\\csv\\4453_face_memory.csv'
tp192
a(S'2015-08-27 13:01:49.726000'
g143
tp193
a(S'2015-08-27 13:01:49.856000'
g145
tp194
a(S'2015-08-27 13:01:49.865000'
g143
tp195
a(S'2015-08-27 13:01:49.868000'
S'data saved as csv to c:\\Charlie\\charlie\\data\\csv\\4453_face_memory.csv'
tp196
a(S'2015-08-27 13:01:53.893000'
g143
tp197
a(S'2015-08-27 13:01:54.032000'
g145
tp198
a(S'2015-08-27 13:01:54.041000'
g143
tp199
a(S'2015-08-27 13:01:54.044000'
S'data saved as csv to c:\\Charlie\\charlie\\data\\csv\\4453_face_memory.csv'
tp200
a(S'2015-08-27 13:01:58.069000'
g143
tp201
a(S'2015-08-27 13:01:58.218000'
g145
tp202
a(S'2015-08-27 13:01:58.227000'
g143
tp203
a(S'2015-08-27 13:01:58.230000'
S'data saved as csv to c:\\Charlie\\charlie\\data\\csv\\4453_face_memory.csv'
tp204
a(S'2015-08-27 13:02:02.254000'
g143
tp205
a(S'2015-08-27 13:02:02.412000'
g145
tp206
a(S'2015-08-27 13:02:02.421000'
g143
tp207
a(S'2015-08-27 13:02:02.424000'
S'data saved as csv to c:\\Charlie\\charlie\\data\\csv\\4453_face_memory.csv'
tp208
a(S'2015-08-27 13:02:06.436000'
g143
tp209
a(S'2015-08-27 13:02:06.485000'
g145
tp210
a(S'2015-08-27 13:02:06.488000'
g143
tp211
a(S'2015-08-27 13:02:06.489000'
S'data saved as csv to c:\\Charlie\\charlie\\data\\csv\\4453_face_memory.csv'
tp212
a(S'2015-08-27 13:02:10.512000'
g143
tp213
a(S'2015-08-27 13:02:10.688000'
g145
tp214
a(S'2015-08-27 13:02:10.697000'
g143
tp215
a(S'2015-08-27 13:02:10.700000'
S'data saved as csv to c:\\Charlie\\charlie\\data\\csv\\4453_face_memory.csv'
tp216
a(S'2015-08-27 13:02:14.726000'
g143
tp217
a(S'2015-08-27 13:02:14.912000'
g145
tp218
a(S'2015-08-27 13:02:14.921000'
g143
tp219
a(S'2015-08-27 13:02:14.925000'
S'data saved as csv to c:\\Charlie\\charlie\\data\\csv\\4453_face_memory.csv'
tp220
a(S'2015-08-27 13:02:18.949000'
g143
tp221
a(S'2015-08-27 13:02:19.145000'
g145
tp222
a(S'2015-08-27 13:02:19.154000'
g143
tp223
a(S'2015-08-27 13:02:19.158000'
S'data saved as csv to c:\\Charlie\\charlie\\data\\csv\\4453_face_memory.csv'
tp224
a(S'2015-08-27 13:02:56.683000'
g143
tp225
a(S'2015-08-27 13:02:56.887000'
g145
tp226
a(S'2015-08-27 13:02:56.896000'
g143
tp227
a(S'2015-08-27 13:02:56.900000'
S'data saved as csv to c:\\Charlie\\charlie\\data\\csv\\4453_face_memory.csv'
tp228
a(S'2015-08-27 13:02:57.848000'
g143
tp229
a(S'2015-08-27 13:02:58.062000'
g145
tp230
a(S'2015-08-27 13:02:58.071000'
g143
tp231
a(S'2015-08-27 13:02:58.075000'
S'data saved as csv to c:\\Charlie\\charlie\\data\\csv\\4453_face_memory.csv'
tp232
a(S'2015-08-27 13:02:59.122000'
g143
tp233
a(S'2015-08-27 13:02:59.345000'
g145
tp234
a(S'2015-08-27 13:02:59.354000'
g143
tp235
a(S'2015-08-27 13:02:59.358000'
S'data saved as csv to c:\\Charlie\\charlie\\data\\csv\\4453_face_memory.csv'
tp236
a(S'2015-08-27 13:03:00.395000'
g143
tp237
a(S'2015-08-27 13:03:00.627000'
g145
tp238
a(S'2015-08-27 13:03:00.636000'
g143
tp239
a(S'2015-08-27 13:03:00.640000'
S'data saved as csv to c:\\Charlie\\charlie\\data\\csv\\4453_face_memory.csv'
tp240
a(S'2015-08-27 13:03:01.747000'
g143
tp241
a(S'2015-08-27 13:03:01.988000'
g145
tp242
a(S'2015-08-27 13:03:01.997000'
g143
tp243
a(S'2015-08-27 13:03:02'
S'data saved as csv to c:\\Charlie\\charlie\\data\\csv\\4453_face_memory.csv'
tp244
a(S'2015-08-27 13:03:02.868000'
g143
tp245
a(S'2015-08-27 13:03:03.120000'
g145
tp246
a(S'2015-08-27 13:03:03.129000'
g143
tp247
a(S'2015-08-27 13:03:03.133000'
S'data saved as csv to c:\\Charlie\\charlie\\data\\csv\\4453_face_memory.csv'
tp248
a(S'2015-08-27 13:03:03.940000'
g143
tp249
a(S'2015-08-27 13:03:04.201000'
g145
tp250
a(S'2015-08-27 13:03:04.210000'
g143
tp251
a(S'2015-08-27 13:03:04.214000'
S'data saved as csv to c:\\Charlie\\charlie\\data\\csv\\4453_face_memory.csv'
tp252
a(S'2015-08-27 13:03:06.474000'
g143
tp253
a(S'2015-08-27 13:03:06.563000'
g145
tp254
a(S'2015-08-27 13:03:06.566000'
g143
tp255
a(S'2015-08-27 13:03:06.567000'
S'data saved as csv to c:\\Charlie\\charlie\\data\\csv\\4453_face_memory.csv'
tp256
a(S'2015-08-27 13:03:08.443000'
g143
tp257
a(S'2015-08-27 13:03:08.724000'
g145
tp258
a(S'2015-08-27 13:03:08.733000'
g143
tp259
a(S'2015-08-27 13:03:08.737000'
S'data saved as csv to c:\\Charlie\\charlie\\data\\csv\\4453_face_memory.csv'
tp260
a(S'2015-08-27 13:03:10.085000'
g143
tp261
a(S'2015-08-27 13:03:10.374000'
g145
tp262
a(S'2015-08-27 13:03:10.384000'
g143
tp263
a(S'2015-08-27 13:03:10.388000'
S'data saved as csv to c:\\Charlie\\charlie\\data\\csv\\4453_face_memory.csv'
tp264
a(S'2015-08-27 13:03:11.476000'
g143
tp265
a(S'2015-08-27 13:03:11.774000'
g145
tp266
a(S'2015-08-27 13:03:11.784000'
g143
tp267
a(S'2015-08-27 13:03:11.787000'
S'data saved as csv to c:\\Charlie\\charlie\\data\\csv\\4453_face_memory.csv'
tp268
a(S'2015-08-27 13:03:12.615000'
g143
tp269
a(S'2015-08-27 13:03:12.924000'
g145
tp270
a(S'2015-08-27 13:03:12.933000'
g143
tp271
a(S'2015-08-27 13:03:12.937000'
S'data saved as csv to c:\\Charlie\\charlie\\data\\csv\\4453_face_memory.csv'
tp272
a(S'2015-08-27 13:03:16.616000'
g143
tp273
a(S'2015-08-27 13:03:16.933000'
g145
tp274
a(S'2015-08-27 13:03:16.942000'
g143
tp275
a(S'2015-08-27 13:03:16.946000'
S'data saved as csv to c:\\Charlie\\charlie\\data\\csv\\4453_face_memory.csv'
tp276
a(S'2015-08-27 13:03:17.814000'
g143
tp277
a(S'2015-08-27 13:03:18.142000'
g145
tp278
a(S'2015-08-27 13:03:18.151000'
g143
tp279
a(S'2015-08-27 13:03:18.155000'
S'data saved as csv to c:\\Charlie\\charlie\\data\\csv\\4453_face_memory.csv'
tp280
a(S'2015-08-27 13:03:18.993000'
g143
tp281
a(S'2015-08-27 13:03:19.329000'
g145
tp282
a(S'2015-08-27 13:03:19.338000'
g143
tp283
a(S'2015-08-27 13:03:19.342000'
S'data saved as csv to c:\\Charlie\\charlie\\data\\csv\\4453_face_memory.csv'
tp284
a(S'2015-08-27 13:03:20.310000'
g143
tp285
a(S'2015-08-27 13:03:20.656000'
g145
tp286
a(S'2015-08-27 13:03:20.665000'
g143
tp287
a(S'2015-08-27 13:03:20.669000'
S'data saved as csv to c:\\Charlie\\charlie\\data\\csv\\4453_face_memory.csv'
tp288
a(S'2015-08-27 13:03:21.427000'
g143
tp289
a(S'2015-08-27 13:03:21.782000'
g145
tp290
a(S'2015-08-27 13:03:21.792000'
g143
tp291
a(S'2015-08-27 13:03:21.796000'
S'data saved as csv to c:\\Charlie\\charlie\\data\\csv\\4453_face_memory.csv'
tp292
a(S'2015-08-27 13:03:22.554000'
g143
tp293
a(S'2015-08-27 13:03:22.919000'
g145
tp294
a(S'2015-08-27 13:03:22.928000'
g143
tp295
a(S'2015-08-27 13:03:22.932000'
S'data saved as csv to c:\\Charlie\\charlie\\data\\csv\\4453_face_memory.csv'
tp296
a(S'2015-08-27 13:03:23.730000'
g143
tp297
a(S'2015-08-27 13:03:24.103000'
g145
tp298
a(S'2015-08-27 13:03:24.112000'
g143
tp299
a(S'2015-08-27 13:03:24.116000'
S'data saved as csv to c:\\Charlie\\charlie\\data\\csv\\4453_face_memory.csv'
tp300
a(S'2015-08-27 13:03:24.944000'
g143
tp301
a(S'2015-08-27 13:03:25.327000'
g145
tp302
a(S'2015-08-27 13:03:25.336000'
g143
tp303
a(S'2015-08-27 13:03:25.340000'
S'data saved as csv to c:\\Charlie\\charlie\\data\\csv\\4453_face_memory.csv'
tp304
a(S'2015-08-27 13:03:26.229000'
g143
tp305
a(S'2015-08-27 13:03:26.621000'
g145
tp306
a(S'2015-08-27 13:03:26.630000'
g143
tp307
a(S'2015-08-27 13:03:26.634000'
S'data saved as csv to c:\\Charlie\\charlie\\data\\csv\\4453_face_memory.csv'
tp308
a(S'2015-08-27 13:03:27.492000'
g143
tp309
a(S'2015-08-27 13:03:27.895000'
g145
tp310
a(S'2015-08-27 13:03:27.904000'
g143
tp311
a(S'2015-08-27 13:03:27.908000'
S'data saved as csv to c:\\Charlie\\charlie\\data\\csv\\4453_face_memory.csv'
tp312
a(S'2015-08-27 13:03:28.686000'
g143
tp313
a(S'2015-08-27 13:03:29.097000'
g145
tp314
a(S'2015-08-27 13:03:29.106000'
g143
tp315
a(S'2015-08-27 13:03:29.110000'
S'data saved as csv to c:\\Charlie\\charlie\\data\\csv\\4453_face_memory.csv'
tp316
a(S'2015-08-27 13:03:29.859000'
g143
tp317
a(S'2015-08-27 13:03:30.279000'
g145
tp318
a(S'2015-08-27 13:03:30.288000'
g143
tp319
a(S'2015-08-27 13:03:30.292000'
S'data saved as csv to c:\\Charlie\\charlie\\data\\csv\\4453_face_memory.csv'
tp320
a(S'2015-08-27 13:03:31.041000'
g143
tp321
a(S'2015-08-27 13:03:31.470000'
g145
tp322
a(S'2015-08-27 13:03:31.480000'
g143
tp323
a(S'2015-08-27 13:03:31.484000'
S'data saved as csv to c:\\Charlie\\charlie\\data\\csv\\4453_face_memory.csv'
tp324
a(S'2015-08-27 13:03:32.252000'
g143
tp325
a(S'2015-08-27 13:03:32.690000'
g145
tp326
a(S'2015-08-27 13:03:32.700000'
g143
tp327
a(S'2015-08-27 13:03:32.704000'
S'data saved as csv to c:\\Charlie\\charlie\\data\\csv\\4453_face_memory.csv'
tp328
a(S'2015-08-27 13:03:33.413000'
g143
tp329
a(S'2015-08-27 13:03:33.862000'
g145
tp330
a(S'2015-08-27 13:03:33.872000'
g143
tp331
a(S'2015-08-27 13:03:33.875000'
S'data saved as csv to c:\\Charlie\\charlie\\data\\csv\\4453_face_memory.csv'
tp332
a(S'2015-08-27 13:03:34.814000'
g143
tp333
a(S'2015-08-27 13:03:35.273000'
g145
tp334
a(S'2015-08-27 13:03:35.283000'
g143
tp335
a(S'2015-08-27 13:03:35.287000'
S'data saved as csv to c:\\Charlie\\charlie\\data\\csv\\4453_face_memory.csv'
tp336
a(S'2015-08-27 13:03:36.066000'
g143
tp337
a(S'2015-08-27 13:03:36.534000'
g145
tp338
a(S'2015-08-27 13:03:36.544000'
g143
tp339
a(S'2015-08-27 13:03:36.548000'
S'data saved as csv to c:\\Charlie\\charlie\\data\\csv\\4453_face_memory.csv'
tp340
a(S'2015-08-27 13:03:37.406000'
g143
tp341
a(S'2015-08-27 13:03:37.881000'
g145
tp342
a(S'2015-08-27 13:03:37.893000'
g143
tp343
a(S'2015-08-27 13:03:37.897000'
S'data saved as csv to c:\\Charlie\\charlie\\data\\csv\\4453_face_memory.csv'
tp344
a(S'2015-08-27 13:03:39.036000'
g143
tp345
a(S'2015-08-27 13:03:39.522000'
g145
tp346
a(S'2015-08-27 13:03:39.532000'
g143
tp347
a(S'2015-08-27 13:03:39.536000'
S'data saved as csv to c:\\Charlie\\charlie\\data\\csv\\4453_face_memory.csv'
tp348
a(S'2015-08-27 13:03:40.276000'
g143
tp349
a(S'2015-08-27 13:03:40.771000'
g145
tp350
a(S'2015-08-27 13:03:40.781000'
g143
tp351
a(S'2015-08-27 13:03:40.785000'
S'data saved as csv to c:\\Charlie\\charlie\\data\\csv\\4453_face_memory.csv'
tp352
a(S'2015-08-27 13:03:41.714000'
g143
tp353
a(S'2015-08-27 13:03:42.042000'
g145
tp354
a(S'2015-08-27 13:03:42.048000'
g143
tp355
a(S'2015-08-27 13:03:42.050000'
S'data saved as csv to c:\\Charlie\\charlie\\data\\csv\\4453_face_memory.csv'
tp356
a(S'2015-08-27 13:03:42.847000'
g143
tp357
a(S'2015-08-27 13:03:43.362000'
g145
tp358
a(S'2015-08-27 13:03:43.372000'
g143
tp359
a(S'2015-08-27 13:03:43.376000'
S'data saved as csv to c:\\Charlie\\charlie\\data\\csv\\4453_face_memory.csv'
tp360
a(S'2015-08-27 13:03:44.305000'
g143
tp361
a(S'2015-08-27 13:03:44.827000'
g145
tp362
a(S'2015-08-27 13:03:44.837000'
g143
tp363
a(S'2015-08-27 13:03:44.841000'
S'data saved as csv to c:\\Charlie\\charlie\\data\\csv\\4453_face_memory.csv'
tp364
a(S'2015-08-27 13:03:46.408000'
g143
tp365
a(S'2015-08-27 13:03:46.940000'
g145
tp366
a(S'2015-08-27 13:03:46.950000'
g143
tp367
a(S'2015-08-27 13:03:46.954000'
S'data saved as csv to c:\\Charlie\\charlie\\data\\csv\\4453_face_memory.csv'
tp368
a(S'2015-08-27 13:03:47.772000'
g143
tp369
a(S'2015-08-27 13:03:48.315000'
g145
tp370
a(S'2015-08-27 13:03:48.325000'
g143
tp371
a(S'2015-08-27 13:03:48.329000'
S'data saved as csv to c:\\Charlie\\charlie\\data\\csv\\4453_face_memory.csv'
tp372
a(S'2015-08-27 13:03:50.349000'
g143
tp373
a(S'2015-08-27 13:03:50.898000'
g145
tp374
a(S'2015-08-27 13:03:50.909000'
g143
tp375
a(S'2015-08-27 13:03:50.913000'
S'data saved as csv to c:\\Charlie\\charlie\\data\\csv\\4453_face_memory.csv'
tp376
a(S'2015-08-27 13:03:51.771000'
g143
tp377
a(S'2015-08-27 13:03:52.331000'
g145
tp378
a(S'2015-08-27 13:03:52.342000'
g143
tp379
a(S'2015-08-27 13:03:52.346000'
S'data saved as csv to c:\\Charlie\\charlie\\data\\csv\\4453_face_memory.csv'
tp380
a(S'2015-08-27 13:03:53.106000'
g143
tp381
a(S'2015-08-27 13:03:53.676000'
g145
tp382
a(S'2015-08-27 13:03:53.687000'
g143
tp383
a(S'2015-08-27 13:03:53.691000'
S'data saved as csv to c:\\Charlie\\charlie\\data\\csv\\4453_face_memory.csv'
tp384
a(S'2015-08-27 13:03:53.701000'
g143
tp385
asb.