(icharlie.tools.data
Data
p1
(dp2
S'lang'
p3
S'EN'
p4
sS'control'
p5
(lp6
sS'last_updated'
p7
S'2015-08-27 12:46:10.883000'
p8
sS'last_opened'
p9
cdatetime
datetime
p10
(S"\x07\xdf\x08\x1b\x0c'$\x00\xab\xe0"
tRp11
sS'proj_id'
p12
S'connectivity'
p13
sS'date_done'
p14
g10
(S'\x07\xdf\x08\x1b\x0c.\n\rqh'
tRp15
sS'test_done'
p16
I01
sS'data'
p17
(lp18
(S'4453'
p19
S'cvlt2'
p20
I0
csip
_unpickle_type
p21
(S'PyQt4.QtCore'
p22
S'QString'
(Vspinach
p23
ttRp24
tp25
a(g19
g20
I0
g21
(g22
S'QString'
(Vsubway
p26
ttRp27
tp28
a(g19
g20
I0
g21
(g22
S'QString'
(Vcabbage
p29
ttRp30
tp31
a(g19
g20
I0
g21
(g22
S'QString'
(Vzebra
p32
ttRp33
tp34
a(g19
g20
I0
g21
(g22
S'QString'
(Vtruck
p35
ttRp36
tp37
a(g19
g20
I0
g21
(g22
S'QString'
(Vgiraffe
p38
ttRp39
tp40
a(g19
g20
I0
g21
(g22
S'QString'
(Vintrusion
p41
ttRp42
tp43
a(g19
g20
I0
g21
(g22
S'QString'
(Vbookcase
p44
ttRp45
tp46
a(g19
g20
I1
g21
(g22
S'QString'
(Vcabbage
p47
ttRp48
tp49
a(g19
g20
I1
g21
(g22
S'QString'
(Vcow
p50
ttRp51
tp52
a(g19
g20
I1
g21
(g22
S'QString'
(Vcabinet
p53
ttRp54
tp55
a(g19
g20
I1
g21
(g22
S'QString'
(Vzebra
p56
ttRp57
tp58
a(g19
g20
I1
g21
(g22
S'QString'
(Vtruck
p59
ttRp60
tp61
a(g19
g20
I1
g21
(g22
S'QString'
(Vgiraffe
p62
ttRp63
tp64
a(g19
g20
I1
g21
(g22
S'QString'
(Vsquirrel
p65
ttRp66
tp67
a(g19
g20
I2
g21
(g22
S'QString'
(Vdesk
p68
ttRp69
tp70
a(g19
g20
I2
g21
(g22
S'QString'
(Vboat
p71
ttRp72
tp73
a(g19
g20
I2
g21
(g22
S'QString'
(Vsquirrel
p74
ttRp75
tp76
a(g19
g20
I2
g21
(g22
S'QString'
(Vsubway
p77
ttRp78
tp79
a(g19
g20
I2
g21
(g22
S'QString'
(Vcabbage
p80
ttRp81
tp82
a(g19
g20
I2
g21
(g22
S'QString'
(Vdesk
p83
ttRp84
tp85
a(g19
g20
I2
g21
(g22
S'QString'
(Vcelery
p86
ttRp87
tp88
a(g19
g20
I2
g21
(g22
S'QString'
(Vspinach
p89
ttRp90
tp91
a(g19
g20
I3
g21
(g22
S'QString'
(Vsquirrel
p92
ttRp93
tp94
a(g19
g20
I3
g21
(g22
S'QString'
(Vcabbage
p95
ttRp96
tp97
a(g19
g20
I3
g21
(g22
S'QString'
(Vsubway
p98
ttRp99
tp100
a(g19
g20
I3
g21
(g22
S'QString'
(Vdesk
p101
ttRp102
tp103
a(g19
g20
I3
g21
(g22
S'QString'
(Vcelery
p104
ttRp105
tp106
a(g19
g20
I3
g21
(g22
S'QString'
(Vspinach
p107
ttRp108
tp109
a(g19
g20
I3
g21
(g22
S'QString'
(Vintrusion
p110
ttRp111
tp112
a(g19
g20
I3
g21
(g22
S'QString'
(Vcabinet
p113
ttRp114
tp115
a(g19
g20
I3
g21
(g22
S'QString'
(Vdesk
p116
ttRp117
tp118
a(g19
g20
I4
g21
(g22
S'QString'
(Vsubway
p119
ttRp120
tp121
a(g19
g20
I4
g21
(g22
S'QString'
(Vcelery
p122
ttRp123
tp124
a(g19
g20
I4
g21
(g22
S'QString'
(Vspinach
p125
ttRp126
tp127
a(g19
g20
I4
g21
(g22
S'QString'
(Vcabinet
p128
ttRp129
tp130
a(g19
g20
I4
g21
(g22
S'QString'
(Vdesk
p131
ttRp132
tp133
a(g19
g20
I4
g21
(g22
S'QString'
(Vmotorcycle
p134
ttRp135
tp136
a(g19
g20
I4
g21
(g22
S'QString'
(Vboat
p137
ttRp138
tp139
a(g19
g20
I4
g21
(g22
S'QString'
(Vtruck
p140
ttRp141
tp142
a(g19
g20
I4
g21
(g22
S'QString'
(Vsquirrel
p143
ttRp144
tp145
a(g19
g20
I4
g21
(g22
S'QString'
(Vgiraffe
p146
ttRp147
tp148
a(g19
g20
I4
g21
(g22
S'QString'
(Vonion
p149
ttRp150
tp151
a(g19
g20
I4
g21
(g22
S'QString'
(Vzebra
p152
ttRp153
tp154
asS'output_format'
p155
(lp156
(S'proband_id'
p157
c__builtin__
str
p158
tp159
a(S'test_name'
p160
g158
tp161
a(S'trialn'
p162
c__builtin__
int
p163
tp164
a(S'rsp'
p165
g158
tp166
asg157
g19
sS'filename'
p167
S'4453_cvlt2.data'
p168
sS'initialised'
p169
g10
(S"\x07\xdf\x08\x1b\x0c'$\x00\xab\xe0"
tRp170
sg160
S'cvlt2'
p171
sS'directory'
p172
S'c:\\Charlie\\charlie\\data\\raw'
p173
sS'user_id'
p174
S'sbuccheri'
p175
sS'test_started'
p176
I01
sS'abs_filename'
p177
S'c:\\Charlie\\charlie\\data\\raw\\4453_cvlt2.data'
p178
sS'date_started'
p179
g10
(S'\x07\xdf\x08\x1b\x0c)\x1b\x0e\xa9\xe8'
tRp180
sS'log'
p181
(lp182
(S'2015-08-27 12:39:36.044000'
S'instance created'
p183
tp184
a(S'2015-08-27 12:41:27.979000'
S'instance updated'
p185
tp186
a(S'2015-08-27 12:41:28.013000'
S'pandas DataFrame of data created'
p187
tp188
a(S'2015-08-27 12:41:28.018000'
g185
tp189
a(S'2015-08-27 12:41:28.023000'
S'data saved as csv to c:\\Charlie\\charlie\\data\\csv\\4453_cvlt2.csv'
tp190
a(S'2015-08-27 12:42:12.120000'
g185
tp191
a(S'2015-08-27 12:42:12.160000'
g187
tp192
a(S'2015-08-27 12:42:12.165000'
g185
tp193
a(S'2015-08-27 12:42:12.167000'
S'data saved as csv to c:\\Charlie\\charlie\\data\\csv\\4453_cvlt2.csv'
tp194
a(S'2015-08-27 12:42:46.518000'
g185
tp195
a(S'2015-08-27 12:42:46.584000'
g187
tp196
a(S'2015-08-27 12:42:46.588000'
g185
tp197
a(S'2015-08-27 12:42:46.589000'
S'data saved as csv to c:\\Charlie\\charlie\\data\\csv\\4453_cvlt2.csv'
tp198
a(S'2015-08-27 12:43:24.036000'
g185
tp199
a(S'2015-08-27 12:43:24.106000'
g187
tp200
a(S'2015-08-27 12:43:24.111000'
g185
tp201
a(S'2015-08-27 12:43:24.113000'
S'data saved as csv to c:\\Charlie\\charlie\\data\\csv\\4453_cvlt2.csv'
tp202
a(S'2015-08-27 12:43:56.604000'
g185
tp203
a(S'2015-08-27 12:43:56.691000'
g187
tp204
a(S'2015-08-27 12:43:56.695000'
g185
tp205
a(S'2015-08-27 12:43:56.696000'
S'data saved as csv to c:\\Charlie\\charlie\\data\\csv\\4453_cvlt2.csv'
tp206
a(S'2015-08-27 12:44:36.245000'
g185
tp207
a(S'2015-08-27 12:44:36.335000'
g187
tp208
a(S'2015-08-27 12:44:36.338000'
g185
tp209
a(S'2015-08-27 12:44:36.340000'
S'data saved as csv to c:\\Charlie\\charlie\\data\\csv\\4453_cvlt2.csv'
tp210
a(S'2015-08-27 12:45:07.279000'
g185
tp211
a(S'2015-08-27 12:45:07.377000'
g187
tp212
a(S'2015-08-27 12:45:07.380000'
g185
tp213
a(S'2015-08-27 12:45:07.381000'
S'data saved as csv to c:\\Charlie\\charlie\\data\\csv\\4453_cvlt2.csv'
tp214
a(S'2015-08-27 12:45:44.465000'
g185
tp215
a(S'2015-08-27 12:45:44.574000'
g187
tp216
a(S'2015-08-27 12:45:44.577000'
g185
tp217
a(S'2015-08-27 12:45:44.578000'
S'data saved as csv to c:\\Charlie\\charlie\\data\\csv\\4453_cvlt2.csv'
tp218
a(S'2015-08-27 12:46:10.754000'
g185
tp219
a(S'2015-08-27 12:46:10.878000'
g187
tp220
a(S'2015-08-27 12:46:10.881000'
g185
tp221
a(S'2015-08-27 12:46:10.883000'
S'data saved as csv to c:\\Charlie\\charlie\\data\\csv\\4453_cvlt2.csv'
tp222
asb.