(icharlie.tools.data
Data
p1
(dp2
S'lang'
p3
S'EN'
p4
sS'control'
p5
(lp6
sS'last_updated'
p7
S'2015-08-27 13:22:37.518000'
p8
sS'last_opened'
p9
cdatetime
datetime
p10
(S'\x07\xdf\x08\x1b\r\x15\x19\x0b\xacH'
tRp11
sS'proj_id'
p12
S'connectivity'
p13
sS'date_done'
p14
g10
(S'\x07\xdf\x08\x1b\r\x16%\x07\xe7p'
tRp15
sS'test_done'
p16
I01
sS'data'
p17
(lp18
(S'4453'
p19
S'face_memory_delay'
p20
S'test'
p21
I0
S'c:\\Charlie\\charlie\\stimuli\\visual\\face_memory_delay\\ddis10.bmp'
S'No'
p22
g22
I790
tp23
a(g19
g20
g21
I1
S'c:\\Charlie\\charlie\\stimuli\\visual\\face_memory_delay\\ddis04.bmp'
g22
g22
I1500
tp24
a(g19
g20
g21
I2
S'c:\\Charlie\\charlie\\stimuli\\visual\\face_memory_delay\\tar07.bmp'
S'Yes'
p25
g25
I670
tp26
a(g19
g20
g21
I3
S'c:\\Charlie\\charlie\\stimuli\\visual\\face_memory_delay\\tar18.bmp'
g25
g25
I760
tp27
a(g19
g20
g21
I4
S'c:\\Charlie\\charlie\\stimuli\\visual\\face_memory_delay\\ddis14.bmp'
g22
g25
I1750
tp28
a(g19
g20
g21
I5
S'c:\\Charlie\\charlie\\stimuli\\visual\\face_memory_delay\\tar19.bmp'
g25
g25
I670
tp29
a(g19
g20
g21
I6
S'c:\\Charlie\\charlie\\stimuli\\visual\\face_memory_delay\\ddis13.bmp'
g22
g22
I790
tp30
a(g19
g20
g21
I7
S'c:\\Charlie\\charlie\\stimuli\\visual\\face_memory_delay\\tar15.bmp'
g25
g25
I610
tp31
a(g19
g20
g21
I8
S'c:\\Charlie\\charlie\\stimuli\\visual\\face_memory_delay\\tar11.bmp'
g25
g25
I830
tp32
a(g19
g20
g21
I9
S'c:\\Charlie\\charlie\\stimuli\\visual\\face_memory_delay\\ddis05.bmp'
g22
g22
I830
tp33
a(g19
g20
g21
I10
S'c:\\Charlie\\charlie\\stimuli\\visual\\face_memory_delay\\ddis01.bmp'
g22
g22
I900
tp34
a(g19
g20
g21
I11
S'c:\\Charlie\\charlie\\stimuli\\visual\\face_memory_delay\\ddis16.bmp'
g22
g25
I700
tp35
a(g19
g20
g21
I12
S'c:\\Charlie\\charlie\\stimuli\\visual\\face_memory_delay\\tar02.bmp'
g25
g25
I830
tp36
a(g19
g20
g21
I13
S'c:\\Charlie\\charlie\\stimuli\\visual\\face_memory_delay\\tar08.bmp'
g25
g25
I661
tp37
a(g19
g20
g21
I14
S'c:\\Charlie\\charlie\\stimuli\\visual\\face_memory_delay\\tar13.bmp'
g25
g25
I730
tp38
a(g19
g20
g21
I15
S'c:\\Charlie\\charlie\\stimuli\\visual\\face_memory_delay\\tar20.bmp'
g25
g25
I560
tp39
a(g19
g20
g21
I16
S'c:\\Charlie\\charlie\\stimuli\\visual\\face_memory_delay\\ddis18.bmp'
g22
g22
I840
tp40
a(g19
g20
g21
I17
S'c:\\Charlie\\charlie\\stimuli\\visual\\face_memory_delay\\tar06.bmp'
g25
g25
I650
tp41
a(g19
g20
g21
I18
S'c:\\Charlie\\charlie\\stimuli\\visual\\face_memory_delay\\ddis07.bmp'
g22
g22
I690
tp42
a(g19
g20
g21
I19
S'c:\\Charlie\\charlie\\stimuli\\visual\\face_memory_delay\\ddis08.bmp'
g22
g22
I1380
tp43
a(g19
g20
g21
I20
S'c:\\Charlie\\charlie\\stimuli\\visual\\face_memory_delay\\tar12.bmp'
g25
g25
I790
tp44
a(g19
g20
g21
I21
S'c:\\Charlie\\charlie\\stimuli\\visual\\face_memory_delay\\ddis17.bmp'
g22
g22
I810
tp45
a(g19
g20
g21
I22
S'c:\\Charlie\\charlie\\stimuli\\visual\\face_memory_delay\\tar05.bmp'
g25
g25
I620
tp46
a(g19
g20
g21
I23
S'c:\\Charlie\\charlie\\stimuli\\visual\\face_memory_delay\\tar10.bmp'
g25
g25
I740
tp47
a(g19
g20
g21
I24
S'c:\\Charlie\\charlie\\stimuli\\visual\\face_memory_delay\\ddis02.bmp'
g22
g22
I1000
tp48
a(g19
g20
g21
I25
S'c:\\Charlie\\charlie\\stimuli\\visual\\face_memory_delay\\ddis20.bmp'
g22
g22
I720
tp49
a(g19
g20
g21
I26
S'c:\\Charlie\\charlie\\stimuli\\visual\\face_memory_delay\\tar17.bmp'
g25
g25
I1030
tp50
a(g19
g20
g21
I27
S'c:\\Charlie\\charlie\\stimuli\\visual\\face_memory_delay\\ddis15.bmp'
g22
g22
I980
tp51
a(g19
g20
g21
I28
S'c:\\Charlie\\charlie\\stimuli\\visual\\face_memory_delay\\tar03.bmp'
g25
g25
I580
tp52
a(g19
g20
g21
I29
S'c:\\Charlie\\charlie\\stimuli\\visual\\face_memory_delay\\ddis19.bmp'
g22
g22
I670
tp53
a(g19
g20
g21
I30
S'c:\\Charlie\\charlie\\stimuli\\visual\\face_memory_delay\\ddis12.bmp'
g22
g25
I860
tp54
a(g19
g20
g21
I31
S'c:\\Charlie\\charlie\\stimuli\\visual\\face_memory_delay\\tar16.bmp'
g25
g25
I610
tp55
a(g19
g20
g21
I32
S'c:\\Charlie\\charlie\\stimuli\\visual\\face_memory_delay\\tar09.bmp'
g25
g25
I770
tp56
a(g19
g20
g21
I33
S'c:\\Charlie\\charlie\\stimuli\\visual\\face_memory_delay\\ddis09.bmp'
g22
g22
I730
tp57
a(g19
g20
g21
I34
S'c:\\Charlie\\charlie\\stimuli\\visual\\face_memory_delay\\tar01.bmp'
g25
g25
I660
tp58
a(g19
g20
g21
I35
S'c:\\Charlie\\charlie\\stimuli\\visual\\face_memory_delay\\ddis11.bmp'
g22
g22
I750
tp59
a(g19
g20
g21
I36
S'c:\\Charlie\\charlie\\stimuli\\visual\\face_memory_delay\\ddis03.bmp'
g22
g25
I540
tp60
a(g19
g20
g21
I37
S'c:\\Charlie\\charlie\\stimuli\\visual\\face_memory_delay\\tar04.bmp'
g25
g25
I800
tp61
a(g19
g20
g21
I38
S'c:\\Charlie\\charlie\\stimuli\\visual\\face_memory_delay\\tar14.bmp'
g25
g25
I620
tp62
a(g19
g20
g21
I39
S'c:\\Charlie\\charlie\\stimuli\\visual\\face_memory_delay\\ddis06.bmp'
p63
g22
g22
I700
tp64
asS'output_format'
p65
(lp66
(S'proband_id'
p67
c__builtin__
str
p68
tp69
a(S'test_name'
p70
g68
tp71
a(S'phase'
p72
g68
tp73
a(S'trialn'
p74
c__builtin__
int
p75
tp76
a(S'f'
g68
tp77
a(S'ans'
p78
g68
tp79
a(S'rsp'
p80
g68
tp81
a(S'rt'
p82
g75
tp83
asg67
g19
sS'filename'
p84
S'4453_face_memory_delay.data'
p85
sS'initialised'
p86
g10
(S'\x07\xdf\x08\x1b\r\x15\x19\x0b\xacH'
tRp87
sg70
S'face_memory_delay'
p88
sS'directory'
p89
S'c:\\Charlie\\charlie\\data\\raw'
p90
sS'user_id'
p91
S'sbuccheri'
p92
sS'test_started'
p93
I01
sS'abs_filename'
p94
S'c:\\Charlie\\charlie\\data\\raw\\4453_face_memory_delay.data'
p95
sS'date_started'
p96
g10
(S'\x07\xdf\x08\x1b\r\x153\x0e\x9e0'
tRp97
sS'log'
p98
(lp99
(S'2015-08-27 13:21:25.765000'
S'instance created'
p100
tp101
a(S'2015-08-27 13:21:51.977000'
S'instance updated'
p102
tp103
a(S'2015-08-27 13:21:51.995000'
S'pandas DataFrame of data created'
p104
tp105
a(S'2015-08-27 13:21:52.004000'
g102
tp106
a(S'2015-08-27 13:21:52.014000'
S'data saved as csv to c:\\Charlie\\charlie\\data\\csv\\4453_face_memory_delay.csv'
tp107
a(S'2015-08-27 13:21:53.640000'
g102
tp108
a(S'2015-08-27 13:21:53.669000'
g104
tp109
a(S'2015-08-27 13:21:53.677000'
g102
tp110
a(S'2015-08-27 13:21:53.681000'
S'data saved as csv to c:\\Charlie\\charlie\\data\\csv\\4453_face_memory_delay.csv'
tp111
a(S'2015-08-27 13:21:54.479000'
g102
tp112
a(S'2015-08-27 13:21:54.518000'
g104
tp113
a(S'2015-08-27 13:21:54.526000'
g102
tp114
a(S'2015-08-27 13:21:54.529000'
S'data saved as csv to c:\\Charlie\\charlie\\data\\csv\\4453_face_memory_delay.csv'
tp115
a(S'2015-08-27 13:21:55.417000'
g102
tp116
a(S'2015-08-27 13:21:55.467000'
g104
tp117
a(S'2015-08-27 13:21:55.475000'
g102
tp118
a(S'2015-08-27 13:21:55.478000'
S'data saved as csv to c:\\Charlie\\charlie\\data\\csv\\4453_face_memory_delay.csv'
tp119
a(S'2015-08-27 13:21:57.356000'
g102
tp120
a(S'2015-08-27 13:21:57.415000'
g104
tp121
a(S'2015-08-27 13:21:57.423000'
g102
tp122
a(S'2015-08-27 13:21:57.427000'
S'data saved as csv to c:\\Charlie\\charlie\\data\\csv\\4453_face_memory_delay.csv'
tp123
a(S'2015-08-27 13:21:58.225000'
g102
tp124
a(S'2015-08-27 13:21:58.295000'
g104
tp125
a(S'2015-08-27 13:21:58.304000'
g102
tp126
a(S'2015-08-27 13:21:58.307000'
S'data saved as csv to c:\\Charlie\\charlie\\data\\csv\\4453_face_memory_delay.csv'
tp127
a(S'2015-08-27 13:21:59.225000'
g102
tp128
a(S'2015-08-27 13:21:59.305000'
g104
tp129
a(S'2015-08-27 13:21:59.313000'
g102
tp130
a(S'2015-08-27 13:21:59.317000'
S'data saved as csv to c:\\Charlie\\charlie\\data\\csv\\4453_face_memory_delay.csv'
tp131
a(S'2015-08-27 13:22:00.055000'
g102
tp132
a(S'2015-08-27 13:22:00.145000'
g104
tp133
a(S'2015-08-27 13:22:00.154000'
g102
tp134
a(S'2015-08-27 13:22:00.157000'
S'data saved as csv to c:\\Charlie\\charlie\\data\\csv\\4453_face_memory_delay.csv'
tp135
a(S'2015-08-27 13:22:01.115000'
g102
tp136
a(S'2015-08-27 13:22:01.216000'
g104
tp137
a(S'2015-08-27 13:22:01.225000'
g102
tp138
a(S'2015-08-27 13:22:01.228000'
S'data saved as csv to c:\\Charlie\\charlie\\data\\csv\\4453_face_memory_delay.csv'
tp139
a(S'2015-08-27 13:22:02.186000'
g102
tp140
a(S'2015-08-27 13:22:02.297000'
g104
tp141
a(S'2015-08-27 13:22:02.305000'
g102
tp142
a(S'2015-08-27 13:22:02.309000'
S'data saved as csv to c:\\Charlie\\charlie\\data\\csv\\4453_face_memory_delay.csv'
tp143
a(S'2015-08-27 13:22:03.337000'
g102
tp144
a(S'2015-08-27 13:22:03.458000'
g104
tp145
a(S'2015-08-27 13:22:03.466000'
g102
tp146
a(S'2015-08-27 13:22:03.470000'
S'data saved as csv to c:\\Charlie\\charlie\\data\\csv\\4453_face_memory_delay.csv'
tp147
a(S'2015-08-27 13:22:04.298000'
g102
tp148
a(S'2015-08-27 13:22:04.429000'
g104
tp149
a(S'2015-08-27 13:22:04.437000'
g102
tp150
a(S'2015-08-27 13:22:04.441000'
S'data saved as csv to c:\\Charlie\\charlie\\data\\csv\\4453_face_memory_delay.csv'
tp151
a(S'2015-08-27 13:22:05.399000'
g102
tp152
a(S'2015-08-27 13:22:05.541000'
g104
tp153
a(S'2015-08-27 13:22:05.550000'
g102
tp154
a(S'2015-08-27 13:22:05.553000'
S'data saved as csv to c:\\Charlie\\charlie\\data\\csv\\4453_face_memory_delay.csv'
tp155
a(S'2015-08-27 13:22:06.341000'
g102
tp156
a(S'2015-08-27 13:22:06.493000'
g104
tp157
a(S'2015-08-27 13:22:06.502000'
g102
tp158
a(S'2015-08-27 13:22:06.505000'
S'data saved as csv to c:\\Charlie\\charlie\\data\\csv\\4453_face_memory_delay.csv'
tp159
a(S'2015-08-27 13:22:07.348000'
g102
tp160
a(S'2015-08-27 13:22:07.393000'
g104
tp161
a(S'2015-08-27 13:22:07.395000'
g102
tp162
a(S'2015-08-27 13:22:07.396000'
S'data saved as csv to c:\\Charlie\\charlie\\data\\csv\\4453_face_memory_delay.csv'
tp163
a(S'2015-08-27 13:22:08.082000'
g102
tp164
a(S'2015-08-27 13:22:08.257000'
g104
tp165
a(S'2015-08-27 13:22:08.266000'
g102
tp166
a(S'2015-08-27 13:22:08.269000'
S'data saved as csv to c:\\Charlie\\charlie\\data\\csv\\4453_face_memory_delay.csv'
tp167
a(S'2015-08-27 13:22:09.237000'
g102
tp168
a(S'2015-08-27 13:22:09.422000'
g104
tp169
a(S'2015-08-27 13:22:09.431000'
g102
tp170
a(S'2015-08-27 13:22:09.434000'
S'data saved as csv to c:\\Charlie\\charlie\\data\\csv\\4453_face_memory_delay.csv'
tp171
a(S'2015-08-27 13:22:10.212000'
g102
tp172
a(S'2015-08-27 13:22:10.407000'
g104
tp173
a(S'2015-08-27 13:22:10.416000'
g102
tp174
a(S'2015-08-27 13:22:10.420000'
S'data saved as csv to c:\\Charlie\\charlie\\data\\csv\\4453_face_memory_delay.csv'
tp175
a(S'2015-08-27 13:22:11.238000'
g102
tp176
a(S'2015-08-27 13:22:11.444000'
g104
tp177
a(S'2015-08-27 13:22:11.453000'
g102
tp178
a(S'2015-08-27 13:22:11.457000'
S'data saved as csv to c:\\Charlie\\charlie\\data\\csv\\4453_face_memory_delay.csv'
tp179
a(S'2015-08-27 13:22:12.965000'
g102
tp180
a(S'2015-08-27 13:22:13.181000'
g104
tp181
a(S'2015-08-27 13:22:13.190000'
g102
tp182
a(S'2015-08-27 13:22:13.194000'
S'data saved as csv to c:\\Charlie\\charlie\\data\\csv\\4453_face_memory_delay.csv'
tp183
a(S'2015-08-27 13:22:14.112000'
g102
tp184
a(S'2015-08-27 13:22:14.338000'
g104
tp185
a(S'2015-08-27 13:22:14.347000'
g102
tp186
a(S'2015-08-27 13:22:14.351000'
S'data saved as csv to c:\\Charlie\\charlie\\data\\csv\\4453_face_memory_delay.csv'
tp187
a(S'2015-08-27 13:22:15.289000'
g102
tp188
a(S'2015-08-27 13:22:15.527000'
g104
tp189
a(S'2015-08-27 13:22:15.536000'
g102
tp190
a(S'2015-08-27 13:22:15.540000'
S'data saved as csv to c:\\Charlie\\charlie\\data\\csv\\4453_face_memory_delay.csv'
tp191
a(S'2015-08-27 13:22:16.288000'
g102
tp192
a(S'2015-08-27 13:22:16.536000'
g104
tp193
a(S'2015-08-27 13:22:16.544000'
g102
tp194
a(S'2015-08-27 13:22:16.548000'
S'data saved as csv to c:\\Charlie\\charlie\\data\\csv\\4453_face_memory_delay.csv'
tp195
a(S'2015-08-27 13:22:17.416000'
g102
tp196
a(S'2015-08-27 13:22:17.674000'
g104
tp197
a(S'2015-08-27 13:22:17.684000'
g102
tp198
a(S'2015-08-27 13:22:17.687000'
S'data saved as csv to c:\\Charlie\\charlie\\data\\csv\\4453_face_memory_delay.csv'
tp199
a(S'2015-08-27 13:22:18.815000'
g102
tp200
a(S'2015-08-27 13:22:19.082000'
g104
tp201
a(S'2015-08-27 13:22:19.091000'
g102
tp202
a(S'2015-08-27 13:22:19.095000'
S'data saved as csv to c:\\Charlie\\charlie\\data\\csv\\4453_face_memory_delay.csv'
tp203
a(S'2015-08-27 13:22:19.944000'
g102
tp204
a(S'2015-08-27 13:22:20.221000'
g104
tp205
a(S'2015-08-27 13:22:20.230000'
g102
tp206
a(S'2015-08-27 13:22:20.234000'
S'data saved as csv to c:\\Charlie\\charlie\\data\\csv\\4453_face_memory_delay.csv'
tp207
a(S'2015-08-27 13:22:21.393000'
g102
tp208
a(S'2015-08-27 13:22:21.681000'
g104
tp209
a(S'2015-08-27 13:22:21.690000'
g102
tp210
a(S'2015-08-27 13:22:21.693000'
S'data saved as csv to c:\\Charlie\\charlie\\data\\csv\\4453_face_memory_delay.csv'
tp211
a(S'2015-08-27 13:22:22.801000'
g102
tp212
a(S'2015-08-27 13:22:23.100000'
g104
tp213
a(S'2015-08-27 13:22:23.109000'
g102
tp214
a(S'2015-08-27 13:22:23.112000'
S'data saved as csv to c:\\Charlie\\charlie\\data\\csv\\4453_face_memory_delay.csv'
tp215
a(S'2015-08-27 13:22:23.821000'
g102
tp216
a(S'2015-08-27 13:22:24.130000'
g104
tp217
a(S'2015-08-27 13:22:24.139000'
g102
tp218
a(S'2015-08-27 13:22:24.143000'
S'data saved as csv to c:\\Charlie\\charlie\\data\\csv\\4453_face_memory_delay.csv'
tp219
a(S'2015-08-27 13:22:24.941000'
g102
tp220
a(S'2015-08-27 13:22:25.260000'
g104
tp221
a(S'2015-08-27 13:22:25.269000'
g102
tp222
a(S'2015-08-27 13:22:25.273000'
S'data saved as csv to c:\\Charlie\\charlie\\data\\csv\\4453_face_memory_delay.csv'
tp223
a(S'2015-08-27 13:22:26.262000'
g102
tp224
a(S'2015-08-27 13:22:26.593000'
g104
tp225
a(S'2015-08-27 13:22:26.603000'
g102
tp226
a(S'2015-08-27 13:22:26.607000'
S'data saved as csv to c:\\Charlie\\charlie\\data\\csv\\4453_face_memory_delay.csv'
tp227
a(S'2015-08-27 13:22:27.345000'
g102
tp228
a(S'2015-08-27 13:22:27.686000'
g104
tp229
a(S'2015-08-27 13:22:27.695000'
g102
tp230
a(S'2015-08-27 13:22:27.699000'
S'data saved as csv to c:\\Charlie\\charlie\\data\\csv\\4453_face_memory_delay.csv'
tp231
a(S'2015-08-27 13:22:28.597000'
g102
tp232
a(S'2015-08-27 13:22:28.949000'
g104
tp233
a(S'2015-08-27 13:22:28.958000'
g102
tp234
a(S'2015-08-27 13:22:28.962000'
S'data saved as csv to c:\\Charlie\\charlie\\data\\csv\\4453_face_memory_delay.csv'
tp235
a(S'2015-08-27 13:22:29.820000'
g102
tp236
a(S'2015-08-27 13:22:30.182000'
g104
tp237
a(S'2015-08-27 13:22:30.191000'
g102
tp238
a(S'2015-08-27 13:22:30.195000'
S'data saved as csv to c:\\Charlie\\charlie\\data\\csv\\4453_face_memory_delay.csv'
tp239
a(S'2015-08-27 13:22:30.984000'
g102
tp240
a(S'2015-08-27 13:22:31.356000'
g104
tp241
a(S'2015-08-27 13:22:31.366000'
g102
tp242
a(S'2015-08-27 13:22:31.369000'
S'data saved as csv to c:\\Charlie\\charlie\\data\\csv\\4453_face_memory_delay.csv'
tp243
a(S'2015-08-27 13:22:32.247000'
g102
tp244
a(S'2015-08-27 13:22:32.631000'
g104
tp245
a(S'2015-08-27 13:22:32.641000'
g102
tp246
a(S'2015-08-27 13:22:32.644000'
S'data saved as csv to c:\\Charlie\\charlie\\data\\csv\\4453_face_memory_delay.csv'
tp247
a(S'2015-08-27 13:22:33.314000'
g102
tp248
a(S'2015-08-27 13:22:33.708000'
g104
tp249
a(S'2015-08-27 13:22:33.718000'
g102
tp250
a(S'2015-08-27 13:22:33.722000'
S'data saved as csv to c:\\Charlie\\charlie\\data\\csv\\4453_face_memory_delay.csv'
tp251
a(S'2015-08-27 13:22:34.650000'
g102
tp252
a(S'2015-08-27 13:22:35.054000'
g104
tp253
a(S'2015-08-27 13:22:35.064000'
g102
tp254
a(S'2015-08-27 13:22:35.067000'
S'data saved as csv to c:\\Charlie\\charlie\\data\\csv\\4453_face_memory_delay.csv'
tp255
a(S'2015-08-27 13:22:35.815000'
g102
tp256
a(S'2015-08-27 13:22:36.229000'
g104
tp257
a(S'2015-08-27 13:22:36.239000'
g102
tp258
a(S'2015-08-27 13:22:36.242000'
S'data saved as csv to c:\\Charlie\\charlie\\data\\csv\\4453_face_memory_delay.csv'
tp259
a(S'2015-08-27 13:22:37.072000'
g102
tp260
a(S'2015-08-27 13:22:37.496000'
g104
tp261
a(S'2015-08-27 13:22:37.505000'
g102
tp262
a(S'2015-08-27 13:22:37.509000'
S'data saved as csv to c:\\Charlie\\charlie\\data\\csv\\4453_face_memory_delay.csv'
tp263
a(S'2015-08-27 13:22:37.518000'
g102
tp264
asb.