(icharlie.tools.data
Data
p1
(dp2
S'lang'
p3
S'EN'
p4
sS'control'
p5
(lp6
sS'last_updated'
p7
S'2015-08-27 13:21:24.657000'
p8
sS'last_opened'
p9
cdatetime
datetime
p10
(S'\x07\xdf\x08\x1b\r\x0f0\x05\x8d\xe0'
tRp11
sS'proj_id'
p12
S'connectivity'
p13
sS'date_done'
p14
g10
(S'\x07\xdf\x08\x1b\r\x15\x18\t\xfe\x98'
tRp15
sS'test_done'
p16
I01
sS'data'
p17
(lp18
(S'4453'
p19
S'verbal_fluency'
p20
I0
S'True'
p21
tp22
a(g19
g20
I0
g21
tp23
a(g19
g20
I0
g21
tp24
a(g19
g20
I0
g21
tp25
a(g19
g20
I0
g21
tp26
a(g19
g20
I0
g21
tp27
a(g19
g20
I0
g21
tp28
a(g19
g20
I0
g21
tp29
a(g19
g20
I0
g21
tp30
a(g19
g20
I0
S'False'
p31
tp32
a(g19
g20
I0
g21
tp33
a(g19
g20
I0
g21
tp34
a(g19
g20
I0
g21
tp35
a(g19
g20
I0
g21
tp36
a(g19
g20
I0
g21
tp37
a(g19
g20
I1
g21
tp38
a(g19
g20
I1
g31
tp39
a(g19
g20
I1
g21
tp40
a(g19
g20
I1
g21
tp41
a(g19
g20
I1
g21
tp42
a(g19
g20
I1
g21
tp43
a(g19
g20
I1
g21
tp44
a(g19
g20
I1
g31
tp45
a(g19
g20
I1
g21
tp46
a(g19
g20
I1
g21
tp47
a(g19
g20
I2
g21
tp48
a(g19
g20
I2
g21
tp49
a(g19
g20
I2
g21
tp50
a(g19
g20
I2
g21
tp51
a(g19
g20
I2
g21
tp52
a(g19
g20
I2
g21
tp53
a(g19
g20
I2
g21
tp54
a(g19
g20
I2
g31
tp55
a(g19
g20
I2
g21
tp56
a(g19
g20
I2
g21
tp57
a(g19
g20
I2
g31
tp58
a(g19
g20
I2
g21
tp59
a(g19
g20
I2
g21
tp60
a(g19
g20
I2
g21
tp61
a(g19
g20
I2
g21
tp62
a(g19
g20
I3
g21
tp63
a(g19
g20
I3
g21
tp64
a(g19
g20
I3
g21
tp65
a(g19
g20
I3
g21
tp66
a(g19
g20
I3
g21
tp67
a(g19
g20
I3
g21
tp68
a(g19
g20
I3
g21
tp69
a(g19
g20
I3
g21
tp70
a(g19
g20
I3
g21
tp71
a(g19
g20
I3
g21
tp72
a(g19
g20
I3
g21
tp73
a(g19
g20
I3
g21
tp74
a(g19
g20
I3
g21
tp75
a(g19
g20
I3
g21
tp76
a(g19
g20
I3
g21
tp77
a(g19
g20
I3
g21
tp78
a(g19
g20
I3
g21
tp79
a(g19
g20
I3
g21
tp80
a(g19
g20
I3
g21
tp81
a(g19
g20
I3
g21
tp82
asS'output_format'
p83
(lp84
(S'proband_id'
p85
c__builtin__
str
p86
tp87
a(S'test_name'
p88
g86
tp89
a(S'trialn'
p90
c__builtin__
int
p91
tp92
a(S'rsp'
p93
g86
tp94
asg85
g19
sS'filename'
p95
S'4453_verbal_fluency.data'
p96
sS'initialised'
p97
g10
(S'\x07\xdf\x08\x1b\r\x0f0\x05\x8d\xe0'
tRp98
sg88
S'verbal_fluency'
p99
sS'directory'
p100
S'c:\\Charlie\\charlie\\data\\raw'
p101
sS'user_id'
p102
S'sbuccheri'
p103
sS'test_started'
p104
I01
sS'abs_filename'
p105
S'c:\\Charlie\\charlie\\data\\raw\\4453_verbal_fluency.data'
p106
sS'date_started'
p107
g10
(S'\x07\xdf\x08\x1b\r\x12\x00\x06MH'
tRp108
sS'log'
p109
(lp110
(S'2015-08-27 13:15:48.364000'
S'instance created'
p111
tp112
a(S'2015-08-27 13:18:00.431000'
S'instance updated'
p113
tp114
a(S'2015-08-27 13:18:00.498000'
S'pandas DataFrame of data created'
p115
tp116
a(S'2015-08-27 13:18:00.502000'
g113
tp117
a(S'2015-08-27 13:18:00.523000'
S'data saved as csv to c:\\Charlie\\charlie\\data\\csv\\4453_verbal_fluency.csv'
tp118
a(S'2015-08-27 13:18:03.670000'
g113
tp119
a(S'2015-08-27 13:18:03.737000'
g115
tp120
a(S'2015-08-27 13:18:03.741000'
g113
tp121
a(S'2015-08-27 13:18:03.744000'
S'data saved as csv to c:\\Charlie\\charlie\\data\\csv\\4453_verbal_fluency.csv'
tp122
a(S'2015-08-27 13:19:06.497000'
g113
tp123
a(S'2015-08-27 13:19:06.583000'
g115
tp124
a(S'2015-08-27 13:19:06.587000'
g113
tp125
a(S'2015-08-27 13:19:06.589000'
S'data saved as csv to c:\\Charlie\\charlie\\data\\csv\\4453_verbal_fluency.csv'
tp126
a(S'2015-08-27 13:19:09.809000'
g113
tp127
a(S'2015-08-27 13:19:09.885000'
g115
tp128
a(S'2015-08-27 13:19:09.888000'
g113
tp129
a(S'2015-08-27 13:19:09.889000'
S'data saved as csv to c:\\Charlie\\charlie\\data\\csv\\4453_verbal_fluency.csv'
tp130
a(S'2015-08-27 13:20:14.253000'
g113
tp131
a(S'2015-08-27 13:20:14.367000'
g115
tp132
a(S'2015-08-27 13:20:14.370000'
g113
tp133
a(S'2015-08-27 13:20:14.371000'
S'data saved as csv to c:\\Charlie\\charlie\\data\\csv\\4453_verbal_fluency.csv'
tp134
a(S'2015-08-27 13:20:19.629000'
g113
tp135
a(S'2015-08-27 13:20:19.744000'
g115
tp136
a(S'2015-08-27 13:20:19.746000'
g113
tp137
a(S'2015-08-27 13:20:19.747000'
S'data saved as csv to c:\\Charlie\\charlie\\data\\csv\\4453_verbal_fluency.csv'
tp138
a(S'2015-08-27 13:21:24.505000'
g113
tp139
a(S'2015-08-27 13:21:24.653000'
g115
tp140
a(S'2015-08-27 13:21:24.655000'
g113
tp141
a(S'2015-08-27 13:21:24.657000'
S'data saved as csv to c:\\Charlie\\charlie\\data\\csv\\4453_verbal_fluency.csv'
tp142
asb.