(icharlie.tools.data
Data
p1
(dp2
S'lang'
p3
S'EN'
p4
sS'control'
p5
(lp6
sS'last_updated'
p7
S'2015-09-04 13:32:38.519000'
p8
sS'last_opened'
p9
cdatetime
datetime
p10
(S'\x07\xdf\t\x04\r\x176\x03\x01\x88'
tRp11
sS'proj_id'
p12
S'connectivity'
p13
sS'date_done'
p14
g10
(S'\x07\xdf\t\x04\r &\x07\xebX'
tRp15
sS'test_done'
p16
I01
sS'data'
p17
(lp18
(S'4456'
p19
S'switching'
p20
S'practice'
p21
I0
S'Position'
p22
S'Left'
p23
S'Right'
p24
S'n/a'
p25
S'Incongruent'
p26
S'C:\\Users\\Jbarrett\\Charlie\\charlie\\stimuli\\visual\\switching\\arrow_black_right.png'
g23
S'Left'
p27
I10480
tp28
a(g19
g20
g21
I1
g22
g23
g24
S'Non-switch'
p29
g26
S'C:\\Users\\Jbarrett\\Charlie\\charlie\\stimuli\\visual\\switching\\arrow_black_right.png'
g23
g27
I1340
tp30
a(g19
g20
g21
I2
S'Direction'
p31
g23
g24
S'Switch'
p32
g26
S'C:\\Users\\Jbarrett\\Charlie\\charlie\\stimuli\\visual\\switching\\arrow_black_right.png'
g24
S'Right'
p33
I2411
tp34
a(g19
g20
g21
I3
g31
g24
g23
g29
g26
S'C:\\Users\\Jbarrett\\Charlie\\charlie\\stimuli\\visual\\switching\\arrow_black_left.png'
g23
g27
I790
tp35
a(g19
g20
g21
I4
g22
g24
g24
g32
S'Congruent'
p36
S'C:\\Users\\Jbarrett\\Charlie\\charlie\\stimuli\\visual\\switching\\arrow_black_right.png'
g24
g33
I1500
tp37
a(g19
g20
g21
I5
g22
g24
g23
g29
g26
S'C:\\Users\\Jbarrett\\Charlie\\charlie\\stimuli\\visual\\switching\\arrow_black_left.png'
g24
g33
I1080
tp38
a(g19
g20
g21
I6
g31
g23
g23
g32
g36
S'C:\\Users\\Jbarrett\\Charlie\\charlie\\stimuli\\visual\\switching\\arrow_black_left.png'
g23
g27
I1450
tp39
a(g19
g20
g21
I7
g31
g24
g23
g29
g26
S'C:\\Users\\Jbarrett\\Charlie\\charlie\\stimuli\\visual\\switching\\arrow_black_left.png'
g23
g27
I1060
tp40
a(g19
g20
g21
I8
g22
g23
g23
g32
g36
S'C:\\Users\\Jbarrett\\Charlie\\charlie\\stimuli\\visual\\switching\\arrow_black_left.png'
g23
g27
I1630
tp41
a(g19
g20
S'predictable'
p42
I0
g22
g23
g23
g25
g36
S'C:\\Users\\Jbarrett\\Charlie\\charlie\\stimuli\\visual\\switching\\arrow_black_left.png'
g23
g27
I4180
tp43
a(g19
g20
g42
I1
g22
g23
g23
g29
g36
S'C:\\Users\\Jbarrett\\Charlie\\charlie\\stimuli\\visual\\switching\\arrow_black_left.png'
g23
g27
I1020
tp44
a(g19
g20
g42
I2
g31
g23
g23
g32
g36
S'C:\\Users\\Jbarrett\\Charlie\\charlie\\stimuli\\visual\\switching\\arrow_black_left.png'
g23
g27
I1050
tp45
a(g19
g20
g42
I3
g31
g24
g24
g29
g36
S'C:\\Users\\Jbarrett\\Charlie\\charlie\\stimuli\\visual\\switching\\arrow_black_right.png'
g24
g33
I1061
tp46
a(g19
g20
g42
I4
g22
g23
g24
g32
g26
S'C:\\Users\\Jbarrett\\Charlie\\charlie\\stimuli\\visual\\switching\\arrow_black_right.png'
g23
g27
I2810
tp47
a(g19
g20
g42
I5
g22
g23
g24
g29
g26
S'C:\\Users\\Jbarrett\\Charlie\\charlie\\stimuli\\visual\\switching\\arrow_black_right.png'
g23
g27
I590
tp48
a(g19
g20
g42
I6
g31
g24
g24
g32
g36
S'C:\\Users\\Jbarrett\\Charlie\\charlie\\stimuli\\visual\\switching\\arrow_black_right.png'
g24
g33
I1150
tp49
a(g19
g20
g42
I7
g31
g23
g24
g29
g26
S'C:\\Users\\Jbarrett\\Charlie\\charlie\\stimuli\\visual\\switching\\arrow_black_right.png'
g24
g33
I590
tp50
a(g19
g20
g42
I8
g22
g24
g24
g32
g36
S'C:\\Users\\Jbarrett\\Charlie\\charlie\\stimuli\\visual\\switching\\arrow_black_right.png'
g24
g33
I1030
tp51
a(g19
g20
g42
I9
g22
g24
g24
g29
g36
S'C:\\Users\\Jbarrett\\Charlie\\charlie\\stimuli\\visual\\switching\\arrow_black_right.png'
g24
g33
I750
tp52
a(g19
g20
g42
I10
g31
g23
g24
g32
g26
S'C:\\Users\\Jbarrett\\Charlie\\charlie\\stimuli\\visual\\switching\\arrow_black_right.png'
g24
g33
I940
tp53
a(g19
g20
g42
I11
g31
g23
g23
g29
g36
S'C:\\Users\\Jbarrett\\Charlie\\charlie\\stimuli\\visual\\switching\\arrow_black_left.png'
g23
g27
I770
tp54
a(g19
g20
g42
I12
g22
g24
g24
g32
g36
S'C:\\Users\\Jbarrett\\Charlie\\charlie\\stimuli\\visual\\switching\\arrow_black_right.png'
g24
g33
I920
tp55
a(g19
g20
g42
I13
g22
g23
g23
g29
g36
S'C:\\Users\\Jbarrett\\Charlie\\charlie\\stimuli\\visual\\switching\\arrow_black_left.png'
g23
g27
I760
tp56
a(g19
g20
g42
I14
g31
g24
g24
g32
g36
S'C:\\Users\\Jbarrett\\Charlie\\charlie\\stimuli\\visual\\switching\\arrow_black_right.png'
g24
g33
I760
tp57
a(g19
g20
g42
I15
g31
g23
g24
g29
g26
S'C:\\Users\\Jbarrett\\Charlie\\charlie\\stimuli\\visual\\switching\\arrow_black_right.png'
g24
g33
I530
tp58
a(g19
g20
g42
I16
g22
g24
g24
g32
g36
S'C:\\Users\\Jbarrett\\Charlie\\charlie\\stimuli\\visual\\switching\\arrow_black_right.png'
g24
g33
I1040
tp59
a(g19
g20
g42
I17
g22
g23
g24
g29
g26
S'C:\\Users\\Jbarrett\\Charlie\\charlie\\stimuli\\visual\\switching\\arrow_black_right.png'
g23
g27
I720
tp60
a(g19
g20
g42
I18
g31
g23
g23
g32
g36
S'C:\\Users\\Jbarrett\\Charlie\\charlie\\stimuli\\visual\\switching\\arrow_black_left.png'
g23
g27
I1220
tp61
a(g19
g20
g42
I19
g31
g23
g23
g29
g36
S'C:\\Users\\Jbarrett\\Charlie\\charlie\\stimuli\\visual\\switching\\arrow_black_left.png'
g23
g27
I680
tp62
a(g19
g20
g42
I20
g22
g23
g24
g32
g26
S'C:\\Users\\Jbarrett\\Charlie\\charlie\\stimuli\\visual\\switching\\arrow_black_right.png'
g23
g27
I630
tp63
a(g19
g20
g42
I21
g22
g23
g24
g29
g26
S'C:\\Users\\Jbarrett\\Charlie\\charlie\\stimuli\\visual\\switching\\arrow_black_right.png'
g23
g27
I500
tp64
a(g19
g20
g42
I22
g31
g24
g24
g32
g36
S'C:\\Users\\Jbarrett\\Charlie\\charlie\\stimuli\\visual\\switching\\arrow_black_right.png'
g24
g33
I900
tp65
a(g19
g20
g42
I23
g31
g24
g23
g29
g26
S'C:\\Users\\Jbarrett\\Charlie\\charlie\\stimuli\\visual\\switching\\arrow_black_left.png'
g23
g27
I620
tp66
a(g19
g20
g42
I24
g22
g24
g23
g32
g26
S'C:\\Users\\Jbarrett\\Charlie\\charlie\\stimuli\\visual\\switching\\arrow_black_left.png'
g24
g27
I830
tp67
a(g19
g20
g42
I25
g22
g23
g23
g29
g36
S'C:\\Users\\Jbarrett\\Charlie\\charlie\\stimuli\\visual\\switching\\arrow_black_left.png'
g23
g27
I990
tp68
a(g19
g20
g42
I26
g31
g23
g23
g32
g36
S'C:\\Users\\Jbarrett\\Charlie\\charlie\\stimuli\\visual\\switching\\arrow_black_left.png'
g23
g27
I670
tp69
a(g19
g20
g42
I27
g31
g23
g23
g29
g36
S'C:\\Users\\Jbarrett\\Charlie\\charlie\\stimuli\\visual\\switching\\arrow_black_left.png'
g23
g27
I490
tp70
a(g19
g20
g42
I28
g22
g23
g24
g32
g26
S'C:\\Users\\Jbarrett\\Charlie\\charlie\\stimuli\\visual\\switching\\arrow_black_right.png'
g23
g27
I990
tp71
a(g19
g20
g42
I29
g22
g24
g23
g29
g26
S'C:\\Users\\Jbarrett\\Charlie\\charlie\\stimuli\\visual\\switching\\arrow_black_left.png'
g24
g33
I770
tp72
a(g19
g20
g42
I30
g31
g23
g23
g32
g36
S'C:\\Users\\Jbarrett\\Charlie\\charlie\\stimuli\\visual\\switching\\arrow_black_left.png'
g23
g27
I800
tp73
a(g19
g20
g42
I31
g31
g23
g23
g29
g36
S'C:\\Users\\Jbarrett\\Charlie\\charlie\\stimuli\\visual\\switching\\arrow_black_left.png'
g23
g27
I471
tp74
a(g19
g20
g42
I32
g22
g24
g24
g32
g36
S'C:\\Users\\Jbarrett\\Charlie\\charlie\\stimuli\\visual\\switching\\arrow_black_right.png'
g24
g33
I910
tp75
a(g19
g20
g42
I33
g22
g24
g24
g29
g36
S'C:\\Users\\Jbarrett\\Charlie\\charlie\\stimuli\\visual\\switching\\arrow_black_right.png'
g24
g33
I560
tp76
a(g19
g20
g42
I34
g31
g24
g23
g32
g26
S'C:\\Users\\Jbarrett\\Charlie\\charlie\\stimuli\\visual\\switching\\arrow_black_left.png'
g23
g27
I990
tp77
a(g19
g20
g42
I35
g31
g24
g24
g29
g36
S'C:\\Users\\Jbarrett\\Charlie\\charlie\\stimuli\\visual\\switching\\arrow_black_right.png'
g24
g33
I980
tp78
a(g19
g20
g42
I36
g22
g23
g24
g32
g26
S'C:\\Users\\Jbarrett\\Charlie\\charlie\\stimuli\\visual\\switching\\arrow_black_right.png'
g23
g27
I1350
tp79
a(g19
g20
g42
I37
g22
g24
g24
g29
g36
S'C:\\Users\\Jbarrett\\Charlie\\charlie\\stimuli\\visual\\switching\\arrow_black_right.png'
g24
g33
I830
tp80
a(g19
g20
g42
I38
g31
g23
g24
g32
g26
S'C:\\Users\\Jbarrett\\Charlie\\charlie\\stimuli\\visual\\switching\\arrow_black_right.png'
g24
g33
I1300
tp81
a(g19
g20
g42
I39
g31
g24
g23
g29
g26
S'C:\\Users\\Jbarrett\\Charlie\\charlie\\stimuli\\visual\\switching\\arrow_black_left.png'
g23
g27
I570
tp82
a(g19
g20
g42
I40
g22
g24
g24
g32
g36
S'C:\\Users\\Jbarrett\\Charlie\\charlie\\stimuli\\visual\\switching\\arrow_black_right.png'
g24
g33
I780
tp83
a(g19
g20
g42
I41
g22
g24
g23
g29
g26
S'C:\\Users\\Jbarrett\\Charlie\\charlie\\stimuli\\visual\\switching\\arrow_black_left.png'
g24
g33
I1240
tp84
a(g19
g20
g42
I42
g31
g23
g23
g32
g36
S'C:\\Users\\Jbarrett\\Charlie\\charlie\\stimuli\\visual\\switching\\arrow_black_left.png'
g23
g27
I1230
tp85
a(g19
g20
g42
I43
g31
g23
g23
g29
g36
S'C:\\Users\\Jbarrett\\Charlie\\charlie\\stimuli\\visual\\switching\\arrow_black_left.png'
g23
g27
I440
tp86
a(g19
g20
g42
I44
g22
g24
g23
g32
g26
S'C:\\Users\\Jbarrett\\Charlie\\charlie\\stimuli\\visual\\switching\\arrow_black_left.png'
g24
g33
I731
tp87
a(g19
g20
g42
I45
g22
g24
g23
g29
g26
S'C:\\Users\\Jbarrett\\Charlie\\charlie\\stimuli\\visual\\switching\\arrow_black_left.png'
g24
g33
I420
tp88
a(g19
g20
g42
I46
g31
g24
g23
g32
g26
S'C:\\Users\\Jbarrett\\Charlie\\charlie\\stimuli\\visual\\switching\\arrow_black_left.png'
g23
g33
I1670
tp89
a(g19
g20
g42
I47
g31
g23
g23
g29
g36
S'C:\\Users\\Jbarrett\\Charlie\\charlie\\stimuli\\visual\\switching\\arrow_black_left.png'
g23
g27
I1210
tp90
a(g19
g20
g42
I48
g22
g24
g23
g32
g26
S'C:\\Users\\Jbarrett\\Charlie\\charlie\\stimuli\\visual\\switching\\arrow_black_left.png'
g24
g33
I1210
tp91
a(g19
g20
g42
I49
g22
g23
g24
g29
g26
S'C:\\Users\\Jbarrett\\Charlie\\charlie\\stimuli\\visual\\switching\\arrow_black_right.png'
g23
g27
I820
tp92
a(g19
g20
g42
I50
g31
g24
g23
g32
g26
S'C:\\Users\\Jbarrett\\Charlie\\charlie\\stimuli\\visual\\switching\\arrow_black_left.png'
g23
g27
I1060
tp93
a(g19
g20
g42
I51
g31
g23
g23
g29
g36
S'C:\\Users\\Jbarrett\\Charlie\\charlie\\stimuli\\visual\\switching\\arrow_black_left.png'
g23
g27
I930
tp94
a(g19
g20
g42
I52
g22
g24
g23
g32
g26
S'C:\\Users\\Jbarrett\\Charlie\\charlie\\stimuli\\visual\\switching\\arrow_black_left.png'
g24
g33
I980
tp95
a(g19
g20
g42
I53
g22
g24
g23
g29
g26
S'C:\\Users\\Jbarrett\\Charlie\\charlie\\stimuli\\visual\\switching\\arrow_black_left.png'
g24
g33
I690
tp96
a(g19
g20
g42
I54
g31
g24
g23
g32
g26
S'C:\\Users\\Jbarrett\\Charlie\\charlie\\stimuli\\visual\\switching\\arrow_black_left.png'
g23
g27
I1271
tp97
a(g19
g20
g42
I55
g31
g24
g24
g29
g36
S'C:\\Users\\Jbarrett\\Charlie\\charlie\\stimuli\\visual\\switching\\arrow_black_right.png'
g24
g33
I890
tp98
a(g19
g20
g42
I56
g22
g23
g24
g32
g26
S'C:\\Users\\Jbarrett\\Charlie\\charlie\\stimuli\\visual\\switching\\arrow_black_right.png'
g23
g27
I1400
tp99
a(g19
g20
g42
I57
g22
g23
g24
g29
g26
S'C:\\Users\\Jbarrett\\Charlie\\charlie\\stimuli\\visual\\switching\\arrow_black_right.png'
g23
g27
I1020
tp100
a(g19
g20
g42
I58
g31
g24
g24
g32
g36
S'C:\\Users\\Jbarrett\\Charlie\\charlie\\stimuli\\visual\\switching\\arrow_black_right.png'
g24
g33
I810
tp101
a(g19
g20
g42
I59
g31
g23
g23
g29
g36
S'C:\\Users\\Jbarrett\\Charlie\\charlie\\stimuli\\visual\\switching\\arrow_black_left.png'
g23
g27
I660
tp102
a(g19
g20
g42
I60
g22
g23
g23
g32
g36
S'C:\\Users\\Jbarrett\\Charlie\\charlie\\stimuli\\visual\\switching\\arrow_black_left.png'
g23
g27
I1300
tp103
a(g19
g20
g42
I61
g22
g23
g23
g29
g36
S'C:\\Users\\Jbarrett\\Charlie\\charlie\\stimuli\\visual\\switching\\arrow_black_left.png'
g23
g27
I690
tp104
a(g19
g20
g42
I62
g31
g24
g24
g32
g36
S'C:\\Users\\Jbarrett\\Charlie\\charlie\\stimuli\\visual\\switching\\arrow_black_right.png'
g24
g33
I710
tp105
a(g19
g20
g42
I63
g31
g24
g24
g29
g36
S'C:\\Users\\Jbarrett\\Charlie\\charlie\\stimuli\\visual\\switching\\arrow_black_right.png'
g24
g33
I710
tp106
a(g19
g20
g42
I64
g22
g24
g24
g32
g36
S'C:\\Users\\Jbarrett\\Charlie\\charlie\\stimuli\\visual\\switching\\arrow_black_right.png'
g24
g33
I870
tp107
a(g19
g20
g42
I65
g22
g23
g24
g29
g26
S'C:\\Users\\Jbarrett\\Charlie\\charlie\\stimuli\\visual\\switching\\arrow_black_right.png'
g23
g27
I750
tp108
a(g19
g20
g42
I66
g31
g24
g24
g32
g36
S'C:\\Users\\Jbarrett\\Charlie\\charlie\\stimuli\\visual\\switching\\arrow_black_right.png'
g24
g33
I980
tp109
a(g19
g20
g42
I67
g31
g23
g24
g29
g26
S'C:\\Users\\Jbarrett\\Charlie\\charlie\\stimuli\\visual\\switching\\arrow_black_right.png'
g24
g33
I1070
tp110
a(g19
g20
g42
I68
g22
g23
g23
g32
g36
S'C:\\Users\\Jbarrett\\Charlie\\charlie\\stimuli\\visual\\switching\\arrow_black_left.png'
g23
g27
I730
tp111
a(g19
g20
g42
I69
g22
g24
g23
g29
g26
S'C:\\Users\\Jbarrett\\Charlie\\charlie\\stimuli\\visual\\switching\\arrow_black_left.png'
g24
g33
I960
tp112
a(g19
g20
g42
I70
g31
g24
g23
g32
g26
S'C:\\Users\\Jbarrett\\Charlie\\charlie\\stimuli\\visual\\switching\\arrow_black_left.png'
g23
g27
I1620
tp113
a(g19
g20
g42
I71
g31
g24
g23
g29
g26
S'C:\\Users\\Jbarrett\\Charlie\\charlie\\stimuli\\visual\\switching\\arrow_black_left.png'
g23
g27
I661
tp114
a(g19
g20
g42
I72
g22
g24
g23
g32
g26
S'C:\\Users\\Jbarrett\\Charlie\\charlie\\stimuli\\visual\\switching\\arrow_black_left.png'
g24
g33
I1090
tp115
a(g19
g20
g42
I73
g22
g23
g24
g29
g26
S'C:\\Users\\Jbarrett\\Charlie\\charlie\\stimuli\\visual\\switching\\arrow_black_right.png'
g23
g27
I900
tp116
a(g19
g20
g42
I74
g31
g24
g24
g32
g36
S'C:\\Users\\Jbarrett\\Charlie\\charlie\\stimuli\\visual\\switching\\arrow_black_right.png'
g24
g33
I820
tp117
a(g19
g20
g42
I75
g31
g24
g24
g29
g36
S'C:\\Users\\Jbarrett\\Charlie\\charlie\\stimuli\\visual\\switching\\arrow_black_right.png'
g24
g33
I870
tp118
a(g19
g20
g42
I76
g22
g24
g24
g32
g36
S'C:\\Users\\Jbarrett\\Charlie\\charlie\\stimuli\\visual\\switching\\arrow_black_right.png'
g24
g33
I780
tp119
a(g19
g20
g42
I77
g22
g23
g24
g29
g26
S'C:\\Users\\Jbarrett\\Charlie\\charlie\\stimuli\\visual\\switching\\arrow_black_right.png'
g23
g27
I750
tp120
a(g19
g20
g42
I78
g31
g23
g23
g32
g36
S'C:\\Users\\Jbarrett\\Charlie\\charlie\\stimuli\\visual\\switching\\arrow_black_left.png'
g23
g27
I1090
tp121
a(g19
g20
g42
I79
g31
g23
g24
g29
g26
S'C:\\Users\\Jbarrett\\Charlie\\charlie\\stimuli\\visual\\switching\\arrow_black_right.png'
g24
g33
I550
tp122
a(g19
g20
g42
I80
g22
g24
g23
g32
g26
S'C:\\Users\\Jbarrett\\Charlie\\charlie\\stimuli\\visual\\switching\\arrow_black_left.png'
g24
g33
I950
tp123
a(g19
g20
g42
I81
g22
g23
g23
g29
g36
S'C:\\Users\\Jbarrett\\Charlie\\charlie\\stimuli\\visual\\switching\\arrow_black_left.png'
g23
g27
I980
tp124
a(g19
g20
g42
I82
g31
g23
g23
g32
g36
S'C:\\Users\\Jbarrett\\Charlie\\charlie\\stimuli\\visual\\switching\\arrow_black_left.png'
g23
g27
I1040
tp125
a(g19
g20
g42
I83
g31
g24
g24
g29
g36
S'C:\\Users\\Jbarrett\\Charlie\\charlie\\stimuli\\visual\\switching\\arrow_black_right.png'
g24
g33
I560
tp126
a(g19
g20
g42
I84
g22
g24
g23
g32
g26
S'C:\\Users\\Jbarrett\\Charlie\\charlie\\stimuli\\visual\\switching\\arrow_black_left.png'
g24
g33
I1040
tp127
a(g19
g20
g42
I85
g22
g24
g23
g29
g26
S'C:\\Users\\Jbarrett\\Charlie\\charlie\\stimuli\\visual\\switching\\arrow_black_left.png'
g24
g33
I690
tp128
a(g19
g20
g42
I86
g31
g24
g24
g32
g36
S'C:\\Users\\Jbarrett\\Charlie\\charlie\\stimuli\\visual\\switching\\arrow_black_right.png'
g24
g33
I790
tp129
a(g19
g20
g42
I87
g31
g24
g24
g29
g36
S'C:\\Users\\Jbarrett\\Charlie\\charlie\\stimuli\\visual\\switching\\arrow_black_right.png'
g24
g33
I1190
tp130
a(g19
g20
g42
I88
g22
g24
g24
g32
g36
S'C:\\Users\\Jbarrett\\Charlie\\charlie\\stimuli\\visual\\switching\\arrow_black_right.png'
g24
g33
I911
tp131
a(g19
g20
g42
I89
g22
g23
g24
g29
g26
S'C:\\Users\\Jbarrett\\Charlie\\charlie\\stimuli\\visual\\switching\\arrow_black_right.png'
g23
g27
I930
tp132
a(g19
g20
g42
I90
g31
g24
g24
g32
g36
S'C:\\Users\\Jbarrett\\Charlie\\charlie\\stimuli\\visual\\switching\\arrow_black_right.png'
g24
g33
I820
tp133
a(g19
g20
g42
I91
g31
g23
g23
g29
g36
S'C:\\Users\\Jbarrett\\Charlie\\charlie\\stimuli\\visual\\switching\\arrow_black_left.png'
g23
g27
I1030
tp134
a(g19
g20
g42
I92
g22
g23
g23
g32
g36
S'C:\\Users\\Jbarrett\\Charlie\\charlie\\stimuli\\visual\\switching\\arrow_black_left.png'
g23
g27
I930
tp135
a(g19
g20
g42
I93
g22
g24
g24
g29
g36
S'C:\\Users\\Jbarrett\\Charlie\\charlie\\stimuli\\visual\\switching\\arrow_black_right.png'
g24
g33
I690
tp136
a(g19
g20
g42
I94
g31
g23
g23
g32
g36
S'C:\\Users\\Jbarrett\\Charlie\\charlie\\stimuli\\visual\\switching\\arrow_black_left.png'
g23
g27
I860
tp137
a(g19
g20
g42
I95
g31
g23
g23
g29
g36
S'C:\\Users\\Jbarrett\\Charlie\\charlie\\stimuli\\visual\\switching\\arrow_black_left.png'
g23
g27
I580
tp138
a(g19
g20
g42
I96
g22
g23
g23
g32
g36
S'C:\\Users\\Jbarrett\\Charlie\\charlie\\stimuli\\visual\\switching\\arrow_black_left.png'
g23
g27
I1300
tp139
a(g19
g20
g42
I97
g22
g24
g24
g29
g36
S'C:\\Users\\Jbarrett\\Charlie\\charlie\\stimuli\\visual\\switching\\arrow_black_right.png'
g24
g33
I630
tp140
a(g19
g20
g42
I98
g31
g23
g23
g32
g36
S'C:\\Users\\Jbarrett\\Charlie\\charlie\\stimuli\\visual\\switching\\arrow_black_left.png'
g23
g27
I1700
tp141
a(g19
g20
g42
I99
g31
g23
g24
g29
g26
S'C:\\Users\\Jbarrett\\Charlie\\charlie\\stimuli\\visual\\switching\\arrow_black_right.png'
g24
g33
I800
tp142
a(g19
g20
g42
I100
g22
g23
g23
g32
g36
S'C:\\Users\\Jbarrett\\Charlie\\charlie\\stimuli\\visual\\switching\\arrow_black_left.png'
g23
g27
I970
tp143
a(g19
g20
S'random'
p144
I0
g22
g24
g24
g25
g36
S'C:\\Users\\Jbarrett\\Charlie\\charlie\\stimuli\\visual\\switching\\arrow_black_right.png'
g24
g33
I1920
tp145
a(g19
g20
g144
I1
g22
g23
g23
g29
g36
S'C:\\Users\\Jbarrett\\Charlie\\charlie\\stimuli\\visual\\switching\\arrow_black_left.png'
g23
g27
I780
tp146
a(g19
g20
g144
I2
g22
g24
g24
g29
g36
S'C:\\Users\\Jbarrett\\Charlie\\charlie\\stimuli\\visual\\switching\\arrow_black_right.png'
g24
g33
I1080
tp147
a(g19
g20
g144
I3
g31
g23
g23
g32
g36
S'C:\\Users\\Jbarrett\\Charlie\\charlie\\stimuli\\visual\\switching\\arrow_black_left.png'
g23
g27
I850
tp148
a(g19
g20
g144
I4
g22
g24
g23
g32
g26
S'C:\\Users\\Jbarrett\\Charlie\\charlie\\stimuli\\visual\\switching\\arrow_black_left.png'
g24
g33
I790
tp149
a(g19
g20
g144
I5
g22
g24
g23
g29
g26
S'C:\\Users\\Jbarrett\\Charlie\\charlie\\stimuli\\visual\\switching\\arrow_black_left.png'
g24
g33
I520
tp150
a(g19
g20
g144
I6
g22
g23
g24
g29
g26
S'C:\\Users\\Jbarrett\\Charlie\\charlie\\stimuli\\visual\\switching\\arrow_black_right.png'
g23
g27
I690
tp151
a(g19
g20
g144
I7
g31
g23
g24
g32
g26
S'C:\\Users\\Jbarrett\\Charlie\\charlie\\stimuli\\visual\\switching\\arrow_black_right.png'
g24
g33
I1140
tp152
a(g19
g20
g144
I8
g31
g23
g23
g29
g36
S'C:\\Users\\Jbarrett\\Charlie\\charlie\\stimuli\\visual\\switching\\arrow_black_left.png'
g23
g27
I880
tp153
a(g19
g20
g144
I9
g31
g24
g24
g29
g36
S'C:\\Users\\Jbarrett\\Charlie\\charlie\\stimuli\\visual\\switching\\arrow_black_right.png'
g24
g33
I620
tp154
a(g19
g20
g144
I10
g22
g24
g24
g32
g36
S'C:\\Users\\Jbarrett\\Charlie\\charlie\\stimuli\\visual\\switching\\arrow_black_right.png'
g24
g33
I960
tp155
a(g19
g20
g144
I11
g22
g24
g23
g29
g26
S'C:\\Users\\Jbarrett\\Charlie\\charlie\\stimuli\\visual\\switching\\arrow_black_left.png'
g24
g33
I1100
tp156
a(g19
g20
g144
I12
g22
g23
g24
g29
g26
S'C:\\Users\\Jbarrett\\Charlie\\charlie\\stimuli\\visual\\switching\\arrow_black_right.png'
g23
g27
I1020
tp157
a(g19
g20
g144
I13
g22
g23
g23
g29
g36
S'C:\\Users\\Jbarrett\\Charlie\\charlie\\stimuli\\visual\\switching\\arrow_black_left.png'
g23
g27
I870
tp158
a(g19
g20
g144
I14
g31
g24
g23
g32
g26
S'C:\\Users\\Jbarrett\\Charlie\\charlie\\stimuli\\visual\\switching\\arrow_black_left.png'
g23
g27
I990
tp159
a(g19
g20
g144
I15
g31
g23
g24
g29
g26
S'C:\\Users\\Jbarrett\\Charlie\\charlie\\stimuli\\visual\\switching\\arrow_black_right.png'
g24
g33
I660
tp160
a(g19
g20
g144
I16
g31
g24
g24
g29
g36
S'C:\\Users\\Jbarrett\\Charlie\\charlie\\stimuli\\visual\\switching\\arrow_black_right.png'
g24
g33
I730
tp161
a(g19
g20
g144
I17
g22
g24
g23
g32
g26
S'C:\\Users\\Jbarrett\\Charlie\\charlie\\stimuli\\visual\\switching\\arrow_black_left.png'
g24
g33
I1520
tp162
a(g19
g20
g144
I18
g31
g24
g23
g32
g26
S'C:\\Users\\Jbarrett\\Charlie\\charlie\\stimuli\\visual\\switching\\arrow_black_left.png'
g23
g27
I790
tp163
a(g19
g20
g144
I19
g31
g23
g24
g29
g26
S'C:\\Users\\Jbarrett\\Charlie\\charlie\\stimuli\\visual\\switching\\arrow_black_right.png'
g24
g33
I630
tp164
a(g19
g20
g144
I20
g31
g23
g23
g29
g36
S'C:\\Users\\Jbarrett\\Charlie\\charlie\\stimuli\\visual\\switching\\arrow_black_left.png'
g23
g27
I1030
tp165
a(g19
g20
g144
I21
g22
g23
g24
g32
g26
S'C:\\Users\\Jbarrett\\Charlie\\charlie\\stimuli\\visual\\switching\\arrow_black_right.png'
g23
g27
I1050
tp166
a(g19
g20
g144
I22
g22
g24
g24
g29
g36
S'C:\\Users\\Jbarrett\\Charlie\\charlie\\stimuli\\visual\\switching\\arrow_black_right.png'
g24
g33
I640
tp167
a(g19
g20
g144
I23
g31
g24
g23
g32
g26
S'C:\\Users\\Jbarrett\\Charlie\\charlie\\stimuli\\visual\\switching\\arrow_black_left.png'
g23
g27
I980
tp168
a(g19
g20
g144
I24
g22
g23
g23
g32
g36
S'C:\\Users\\Jbarrett\\Charlie\\charlie\\stimuli\\visual\\switching\\arrow_black_left.png'
g23
g27
I1020
tp169
a(g19
g20
g144
I25
g31
g24
g24
g32
g36
S'C:\\Users\\Jbarrett\\Charlie\\charlie\\stimuli\\visual\\switching\\arrow_black_right.png'
g24
g33
I1180
tp170
a(g19
g20
g144
I26
g31
g24
g23
g29
g26
S'C:\\Users\\Jbarrett\\Charlie\\charlie\\stimuli\\visual\\switching\\arrow_black_left.png'
g23
g27
I610
tp171
a(g19
g20
g144
I27
g31
g24
g24
g29
g36
S'C:\\Users\\Jbarrett\\Charlie\\charlie\\stimuli\\visual\\switching\\arrow_black_right.png'
g24
g33
I650
tp172
a(g19
g20
g144
I28
g22
g24
g24
g32
g36
S'C:\\Users\\Jbarrett\\Charlie\\charlie\\stimuli\\visual\\switching\\arrow_black_right.png'
g24
g33
I730
tp173
a(g19
g20
g144
I29
g31
g23
g24
g32
g26
S'C:\\Users\\Jbarrett\\Charlie\\charlie\\stimuli\\visual\\switching\\arrow_black_right.png'
g24
g33
I880
tp174
a(g19
g20
g144
I30
g31
g24
g24
g29
g36
S'C:\\Users\\Jbarrett\\Charlie\\charlie\\stimuli\\visual\\switching\\arrow_black_right.png'
g24
g33
I1030
tp175
a(g19
g20
g144
I31
g31
g24
g24
g29
g36
S'C:\\Users\\Jbarrett\\Charlie\\charlie\\stimuli\\visual\\switching\\arrow_black_right.png'
g24
g33
I540
tp176
a(g19
g20
g144
I32
g31
g23
g23
g29
g36
S'C:\\Users\\Jbarrett\\Charlie\\charlie\\stimuli\\visual\\switching\\arrow_black_left.png'
g23
g27
I720
tp177
a(g19
g20
g144
I33
g31
g24
g23
g29
g26
S'C:\\Users\\Jbarrett\\Charlie\\charlie\\stimuli\\visual\\switching\\arrow_black_left.png'
g23
g27
I1000
tp178
a(g19
g20
g144
I34
g22
g24
g24
g32
g36
S'C:\\Users\\Jbarrett\\Charlie\\charlie\\stimuli\\visual\\switching\\arrow_black_right.png'
g24
g33
I900
tp179
a(g19
g20
g144
I35
g31
g23
g24
g32
g26
S'C:\\Users\\Jbarrett\\Charlie\\charlie\\stimuli\\visual\\switching\\arrow_black_right.png'
g24
g33
I790
tp180
a(g19
g20
g144
I36
g22
g24
g23
g32
g26
S'C:\\Users\\Jbarrett\\Charlie\\charlie\\stimuli\\visual\\switching\\arrow_black_left.png'
g24
g33
I1040
tp181
a(g19
g20
g144
I37
g22
g24
g24
g29
g36
S'C:\\Users\\Jbarrett\\Charlie\\charlie\\stimuli\\visual\\switching\\arrow_black_right.png'
g24
g33
I760
tp182
a(g19
g20
g144
I38
g22
g24
g24
g29
g36
S'C:\\Users\\Jbarrett\\Charlie\\charlie\\stimuli\\visual\\switching\\arrow_black_right.png'
g24
g33
I730
tp183
a(g19
g20
g144
I39
g22
g23
g23
g29
g36
S'C:\\Users\\Jbarrett\\Charlie\\charlie\\stimuli\\visual\\switching\\arrow_black_left.png'
g23
g27
I670
tp184
a(g19
g20
g144
I40
g31
g23
g23
g32
g36
S'C:\\Users\\Jbarrett\\Charlie\\charlie\\stimuli\\visual\\switching\\arrow_black_left.png'
g23
g27
I930
tp185
a(g19
g20
g144
I41
g22
g24
g24
g32
g36
S'C:\\Users\\Jbarrett\\Charlie\\charlie\\stimuli\\visual\\switching\\arrow_black_right.png'
g24
g33
I890
tp186
a(g19
g20
g144
I42
g31
g23
g24
g32
g26
S'C:\\Users\\Jbarrett\\Charlie\\charlie\\stimuli\\visual\\switching\\arrow_black_right.png'
g24
g33
I710
tp187
a(g19
g20
g144
I43
g22
g23
g24
g32
g26
S'C:\\Users\\Jbarrett\\Charlie\\charlie\\stimuli\\visual\\switching\\arrow_black_right.png'
g23
g27
I830
tp188
a(g19
g20
g144
I44
g31
g23
g24
g32
g26
S'C:\\Users\\Jbarrett\\Charlie\\charlie\\stimuli\\visual\\switching\\arrow_black_right.png'
g24
g33
I1040
tp189
a(g19
g20
g144
I45
g22
g24
g23
g32
g26
S'C:\\Users\\Jbarrett\\Charlie\\charlie\\stimuli\\visual\\switching\\arrow_black_left.png'
g24
g33
I800
tp190
a(g19
g20
g144
I46
g22
g23
g23
g29
g36
S'C:\\Users\\Jbarrett\\Charlie\\charlie\\stimuli\\visual\\switching\\arrow_black_left.png'
g23
g27
I900
tp191
a(g19
g20
g144
I47
g22
g23
g23
g29
g36
S'C:\\Users\\Jbarrett\\Charlie\\charlie\\stimuli\\visual\\switching\\arrow_black_left.png'
g23
g27
I570
tp192
a(g19
g20
g144
I48
g31
g23
g23
g32
g36
S'C:\\Users\\Jbarrett\\Charlie\\charlie\\stimuli\\visual\\switching\\arrow_black_left.png'
g23
g27
I750
tp193
a(g19
g20
g144
I49
g31
g23
g23
g29
g36
S'C:\\Users\\Jbarrett\\Charlie\\charlie\\stimuli\\visual\\switching\\arrow_black_left.png'
g23
g27
I470
tp194
a(g19
g20
g144
I50
g31
g24
g24
g29
g36
S'C:\\Users\\Jbarrett\\Charlie\\charlie\\stimuli\\visual\\switching\\arrow_black_right.png'
g24
g33
I690
tp195
a(g19
g20
g144
I51
g31
g24
g23
g29
g26
S'C:\\Users\\Jbarrett\\Charlie\\charlie\\stimuli\\visual\\switching\\arrow_black_left.png'
g23
g27
I650
tp196
a(g19
g20
g144
I52
g31
g23
g24
g29
g26
S'C:\\Users\\Jbarrett\\Charlie\\charlie\\stimuli\\visual\\switching\\arrow_black_right.png'
g24
g33
I630
tp197
a(g19
g20
g144
I53
g31
g24
g24
g29
g36
S'C:\\Users\\Jbarrett\\Charlie\\charlie\\stimuli\\visual\\switching\\arrow_black_right.png'
g24
g33
I620
tp198
a(g19
g20
g144
I54
g22
g24
g23
g32
g26
S'C:\\Users\\Jbarrett\\Charlie\\charlie\\stimuli\\visual\\switching\\arrow_black_left.png'
g24
g33
I740
tp199
a(g19
g20
g144
I55
g22
g23
g23
g29
g36
S'C:\\Users\\Jbarrett\\Charlie\\charlie\\stimuli\\visual\\switching\\arrow_black_left.png'
g23
g27
I730
tp200
a(g19
g20
g144
I56
g31
g23
g23
g32
g36
S'C:\\Users\\Jbarrett\\Charlie\\charlie\\stimuli\\visual\\switching\\arrow_black_left.png'
g23
g27
I860
tp201
a(g19
g20
g144
I57
g22
g23
g23
g32
g36
S'C:\\Users\\Jbarrett\\Charlie\\charlie\\stimuli\\visual\\switching\\arrow_black_left.png'
g23
g27
I580
tp202
a(g19
g20
g144
I58
g22
g23
g24
g29
g26
S'C:\\Users\\Jbarrett\\Charlie\\charlie\\stimuli\\visual\\switching\\arrow_black_right.png'
g23
g27
I960
tp203
a(g19
g20
g144
I59
g31
g23
g23
g32
g36
S'C:\\Users\\Jbarrett\\Charlie\\charlie\\stimuli\\visual\\switching\\arrow_black_left.png'
g23
g27
I700
tp204
a(g19
g20
g144
I60
g22
g23
g24
g32
g26
S'C:\\Users\\Jbarrett\\Charlie\\charlie\\stimuli\\visual\\switching\\arrow_black_right.png'
g23
g27
I1010
tp205
a(g19
g20
g144
I61
g22
g24
g24
g29
g36
S'C:\\Users\\Jbarrett\\Charlie\\charlie\\stimuli\\visual\\switching\\arrow_black_right.png'
g24
g33
I860
tp206
a(g19
g20
g144
I62
g31
g24
g23
g32
g26
S'C:\\Users\\Jbarrett\\Charlie\\charlie\\stimuli\\visual\\switching\\arrow_black_left.png'
g23
g27
I821
tp207
a(g19
g20
g144
I63
g22
g24
g24
g32
g36
S'C:\\Users\\Jbarrett\\Charlie\\charlie\\stimuli\\visual\\switching\\arrow_black_right.png'
g24
g33
I760
tp208
a(g19
g20
g144
I64
g31
g23
g23
g32
g36
S'C:\\Users\\Jbarrett\\Charlie\\charlie\\stimuli\\visual\\switching\\arrow_black_left.png'
g23
g27
I870
tp209
a(g19
g20
g144
I65
g31
g24
g23
g29
g26
S'C:\\Users\\Jbarrett\\Charlie\\charlie\\stimuli\\visual\\switching\\arrow_black_left.png'
g23
g27
I1270
tp210
a(g19
g20
g144
I66
g22
g23
g24
g32
g26
S'C:\\Users\\Jbarrett\\Charlie\\charlie\\stimuli\\visual\\switching\\arrow_black_right.png'
g23
g27
I800
tp211
a(g19
g20
g144
I67
g22
g23
g24
g29
g26
S'C:\\Users\\Jbarrett\\Charlie\\charlie\\stimuli\\visual\\switching\\arrow_black_right.png'
g23
g27
I630
tp212
a(g19
g20
g144
I68
g31
g23
g23
g32
g36
S'C:\\Users\\Jbarrett\\Charlie\\charlie\\stimuli\\visual\\switching\\arrow_black_left.png'
g23
g27
I760
tp213
a(g19
g20
g144
I69
g31
g24
g23
g29
g26
S'C:\\Users\\Jbarrett\\Charlie\\charlie\\stimuli\\visual\\switching\\arrow_black_left.png'
g23
g27
I610
tp214
a(g19
g20
g144
I70
g31
g24
g23
g29
g26
S'C:\\Users\\Jbarrett\\Charlie\\charlie\\stimuli\\visual\\switching\\arrow_black_left.png'
g23
g27
I830
tp215
a(g19
g20
g144
I71
g31
g24
g24
g29
g36
S'C:\\Users\\Jbarrett\\Charlie\\charlie\\stimuli\\visual\\switching\\arrow_black_right.png'
g24
g33
I870
tp216
a(g19
g20
g144
I72
g22
g23
g23
g32
g36
S'C:\\Users\\Jbarrett\\Charlie\\charlie\\stimuli\\visual\\switching\\arrow_black_left.png'
g23
g27
I820
tp217
a(g19
g20
g144
I73
g22
g23
g24
g29
g26
S'C:\\Users\\Jbarrett\\Charlie\\charlie\\stimuli\\visual\\switching\\arrow_black_right.png'
g23
g27
I1130
tp218
a(g19
g20
g144
I74
g31
g23
g24
g32
g26
S'C:\\Users\\Jbarrett\\Charlie\\charlie\\stimuli\\visual\\switching\\arrow_black_right.png'
g24
g33
I1020
tp219
a(g19
g20
g144
I75
g22
g23
g23
g32
g36
S'C:\\Users\\Jbarrett\\Charlie\\charlie\\stimuli\\visual\\switching\\arrow_black_left.png'
g23
g27
I1170
tp220
a(g19
g20
g144
I76
g31
g23
g23
g32
g36
S'C:\\Users\\Jbarrett\\Charlie\\charlie\\stimuli\\visual\\switching\\arrow_black_left.png'
g23
g27
I890
tp221
a(g19
g20
g144
I77
g22
g23
g24
g32
g26
S'C:\\Users\\Jbarrett\\Charlie\\charlie\\stimuli\\visual\\switching\\arrow_black_right.png'
g23
g27
I1120
tp222
a(g19
g20
g144
I78
g22
g23
g24
g29
g26
S'C:\\Users\\Jbarrett\\Charlie\\charlie\\stimuli\\visual\\switching\\arrow_black_right.png'
g23
g27
I910
tp223
a(g19
g20
g144
I79
g31
g23
g23
g32
g36
S'C:\\Users\\Jbarrett\\Charlie\\charlie\\stimuli\\visual\\switching\\arrow_black_left.png'
g23
g27
I730
tp224
a(g19
g20
g144
I80
g22
g24
g23
g32
g26
S'C:\\Users\\Jbarrett\\Charlie\\charlie\\stimuli\\visual\\switching\\arrow_black_left.png'
g24
g33
I920
tp225
a(g19
g20
g144
I81
g31
g24
g23
g32
g26
S'C:\\Users\\Jbarrett\\Charlie\\charlie\\stimuli\\visual\\switching\\arrow_black_left.png'
g23
g27
I790
tp226
a(g19
g20
g144
I82
g31
g24
g23
g29
g26
S'C:\\Users\\Jbarrett\\Charlie\\charlie\\stimuli\\visual\\switching\\arrow_black_left.png'
g23
g27
I670
tp227
a(g19
g20
g144
I83
g22
g24
g24
g32
g36
S'C:\\Users\\Jbarrett\\Charlie\\charlie\\stimuli\\visual\\switching\\arrow_black_right.png'
g24
g33
I800
tp228
a(g19
g20
g144
I84
g31
g24
g23
g32
g26
S'C:\\Users\\Jbarrett\\Charlie\\charlie\\stimuli\\visual\\switching\\arrow_black_left.png'
g23
g27
I660
tp229
a(g19
g20
g144
I85
g31
g23
g24
g29
g26
S'C:\\Users\\Jbarrett\\Charlie\\charlie\\stimuli\\visual\\switching\\arrow_black_right.png'
g24
g33
I700
tp230
a(g19
g20
g144
I86
g22
g23
g24
g32
g26
S'C:\\Users\\Jbarrett\\Charlie\\charlie\\stimuli\\visual\\switching\\arrow_black_right.png'
g23
g27
I751
tp231
a(g19
g20
g144
I87
g31
g24
g24
g32
g36
S'C:\\Users\\Jbarrett\\Charlie\\charlie\\stimuli\\visual\\switching\\arrow_black_right.png'
g24
g33
I660
tp232
a(g19
g20
g144
I88
g31
g24
g24
g29
g36
S'C:\\Users\\Jbarrett\\Charlie\\charlie\\stimuli\\visual\\switching\\arrow_black_right.png'
g24
g33
I660
tp233
a(g19
g20
g144
I89
g22
g24
g23
g32
g26
S'C:\\Users\\Jbarrett\\Charlie\\charlie\\stimuli\\visual\\switching\\arrow_black_left.png'
g24
g33
I830
tp234
a(g19
g20
g144
I90
g22
g23
g24
g29
g26
S'C:\\Users\\Jbarrett\\Charlie\\charlie\\stimuli\\visual\\switching\\arrow_black_right.png'
g23
g27
I720
tp235
a(g19
g20
g144
I91
g22
g24
g23
g29
g26
S'C:\\Users\\Jbarrett\\Charlie\\charlie\\stimuli\\visual\\switching\\arrow_black_left.png'
g24
g33
I690
tp236
a(g19
g20
g144
I92
g31
g23
g23
g32
g36
S'C:\\Users\\Jbarrett\\Charlie\\charlie\\stimuli\\visual\\switching\\arrow_black_left.png'
g23
g27
I990
tp237
a(g19
g20
g144
I93
g22
g24
g24
g32
g36
S'C:\\Users\\Jbarrett\\Charlie\\charlie\\stimuli\\visual\\switching\\arrow_black_right.png'
g24
g33
I850
tp238
a(g19
g20
g144
I94
g31
g24
g24
g32
g36
S'C:\\Users\\Jbarrett\\Charlie\\charlie\\stimuli\\visual\\switching\\arrow_black_right.png'
g24
g33
I870
tp239
a(g19
g20
g144
I95
g31
g23
g23
g29
g36
S'C:\\Users\\Jbarrett\\Charlie\\charlie\\stimuli\\visual\\switching\\arrow_black_left.png'
g23
g27
I800
tp240
a(g19
g20
g144
I96
g22
g24
g24
g32
g36
S'C:\\Users\\Jbarrett\\Charlie\\charlie\\stimuli\\visual\\switching\\arrow_black_right.png'
g24
g33
I740
tp241
a(g19
g20
g144
I97
g22
g23
g23
g29
g36
S'C:\\Users\\Jbarrett\\Charlie\\charlie\\stimuli\\visual\\switching\\arrow_black_left.png'
g23
g27
I850
tp242
a(g19
g20
g144
I98
g22
g24
g24
g29
g36
S'C:\\Users\\Jbarrett\\Charlie\\charlie\\stimuli\\visual\\switching\\arrow_black_right.png'
g24
g33
I700
tp243
a(g19
g20
g144
I99
g22
g23
g23
g29
g36
S'C:\\Users\\Jbarrett\\Charlie\\charlie\\stimuli\\visual\\switching\\arrow_black_left.png'
g23
g27
I740
tp244
a(g19
g20
g144
I100
g22
g24
g24
g29
g36
S'C:\\Users\\Jbarrett\\Charlie\\charlie\\stimuli\\visual\\switching\\arrow_black_right.png'
p245
g24
g33
I670
tp246
asS'output_format'
p247
(lp248
(S'proband_id'
p249
c__builtin__
str
p250
tp251
a(S'test_name'
p252
g250
tp253
a(S'phase'
p254
g250
tp255
a(S'trialn'
p256
c__builtin__
int
p257
tp258
a(S'task'
p259
g250
tp260
a(S'pos'
p261
g250
tp262
a(S'dir'
p263
g250
tp264
a(S'switch'
p265
g250
tp266
a(S'cong'
p267
g250
tp268
a(S'f'
g250
tp269
a(S'ans'
p270
g250
tp271
a(S'rsp'
p272
g250
tp273
a(S'rt'
p274
g257
tp275
asg249
g19
sS'filename'
p276
S'4456_switching.data'
p277
sS'initialised'
p278
g10
(S'\x07\xdf\t\x04\r\x176\x03\x01\x88'
tRp279
sg252
S'switching'
p280
sS'directory'
p281
S'C:\\Users\\Jbarrett\\Charlie\\charlie\\data\\raw'
p282
sS'user_id'
p283
S'barrett'
p284
sS'test_started'
p285
I01
sS'abs_filename'
p286
S'C:\\Users\\Jbarrett\\Charlie\\charlie\\data\\raw\\4456_switching.data'
p287
sS'date_started'
p288
g10
(S'\x07\xdf\t\x04\r\x18%\x03Wx'
tRp289
sS'log'
p290
(lp291
(S'2015-09-04 13:23:54.197000'
S'instance created'
p292
tp293
a(S'2015-09-04 13:24:37.233000'
S'instance updated'
p294
tp295
a(S'2015-09-04 13:24:37.261000'
S'pandas DataFrame of data created'
p296
tp297
a(S'2015-09-04 13:24:37.285000'
g294
tp298
a(S'2015-09-04 13:24:37.288000'
S'data saved as csv to C:\\Users\\Jbarrett\\Charlie\\charlie\\data\\csv\\4456_switching.csv'
tp299
a(S'2015-09-04 13:24:39.662000'
g294
tp300
a(S'2015-09-04 13:24:39.708000'
g296
tp301
a(S'2015-09-04 13:24:39.720000'
g294
tp302
a(S'2015-09-04 13:24:39.724000'
S'data saved as csv to C:\\Users\\Jbarrett\\Charlie\\charlie\\data\\csv\\4456_switching.csv'
tp303
a(S'2015-09-04 13:24:43.169000'
g294
tp304
a(S'2015-09-04 13:24:43.232000'
g296
tp305
a(S'2015-09-04 13:24:43.243000'
g294
tp306
a(S'2015-09-04 13:24:43.245000'
S'data saved as csv to C:\\Users\\Jbarrett\\Charlie\\charlie\\data\\csv\\4456_switching.csv'
tp307
a(S'2015-09-04 13:24:45.068000'
g294
tp308
a(S'2015-09-04 13:24:45.128000'
g296
tp309
a(S'2015-09-04 13:24:45.133000'
g294
tp310
a(S'2015-09-04 13:24:45.134000'
S'data saved as csv to C:\\Users\\Jbarrett\\Charlie\\charlie\\data\\csv\\4456_switching.csv'
tp311
a(S'2015-09-04 13:24:47.668000'
g294
tp312
a(S'2015-09-04 13:24:47.764000'
g296
tp313
a(S'2015-09-04 13:24:47.775000'
g294
tp314
a(S'2015-09-04 13:24:47.777000'
S'data saved as csv to C:\\Users\\Jbarrett\\Charlie\\charlie\\data\\csv\\4456_switching.csv'
tp315
a(S'2015-09-04 13:24:49.892000'
g294
tp316
a(S'2015-09-04 13:24:50.005000'
g296
tp317
a(S'2015-09-04 13:24:50.018000'
g294
tp318
a(S'2015-09-04 13:24:50.021000'
S'data saved as csv to C:\\Users\\Jbarrett\\Charlie\\charlie\\data\\csv\\4456_switching.csv'
tp319
a(S'2015-09-04 13:24:52.508000'
g294
tp320
a(S'2015-09-04 13:24:52.637000'
g296
tp321
a(S'2015-09-04 13:24:52.649000'
g294
tp322
a(S'2015-09-04 13:24:52.654000'
S'data saved as csv to C:\\Users\\Jbarrett\\Charlie\\charlie\\data\\csv\\4456_switching.csv'
tp323
a(S'2015-09-04 13:24:54.749000'
g294
tp324
a(S'2015-09-04 13:24:54.894000'
g296
tp325
a(S'2015-09-04 13:24:54.907000'
g294
tp326
a(S'2015-09-04 13:24:54.910000'
S'data saved as csv to C:\\Users\\Jbarrett\\Charlie\\charlie\\data\\csv\\4456_switching.csv'
tp327
a(S'2015-09-04 13:24:57.574000'
g294
tp328
a(S'2015-09-04 13:24:57.737000'
g296
tp329
a(S'2015-09-04 13:24:57.749000'
g294
tp330
a(S'2015-09-04 13:24:57.752000'
S'data saved as csv to C:\\Users\\Jbarrett\\Charlie\\charlie\\data\\csv\\4456_switching.csv'
tp331
a(S'2015-09-04 13:25:11.942000'
g294
tp332
a(S'2015-09-04 13:25:12.122000'
g296
tp333
a(S'2015-09-04 13:25:12.132000'
g294
tp334
a(S'2015-09-04 13:25:12.134000'
S'data saved as csv to C:\\Users\\Jbarrett\\Charlie\\charlie\\data\\csv\\4456_switching.csv'
tp335
a(S'2015-09-04 13:25:13.290000'
g294
tp336
a(S'2015-09-04 13:25:13.485000'
g296
tp337
a(S'2015-09-04 13:25:13.498000'
g294
tp338
a(S'2015-09-04 13:25:13.501000'
S'data saved as csv to C:\\Users\\Jbarrett\\Charlie\\charlie\\data\\csv\\4456_switching.csv'
tp339
a(S'2015-09-04 13:25:14.688000'
g294
tp340
a(S'2015-09-04 13:25:14.836000'
g296
tp341
a(S'2015-09-04 13:25:14.844000'
g294
tp342
a(S'2015-09-04 13:25:14.846000'
S'data saved as csv to C:\\Users\\Jbarrett\\Charlie\\charlie\\data\\csv\\4456_switching.csv'
tp343
a(S'2015-09-04 13:25:16.042000'
g294
tp344
a(S'2015-09-04 13:25:16.182000'
g296
tp345
a(S'2015-09-04 13:25:16.189000'
g294
tp346
a(S'2015-09-04 13:25:16.191000'
S'data saved as csv to C:\\Users\\Jbarrett\\Charlie\\charlie\\data\\csv\\4456_switching.csv'
tp347
a(S'2015-09-04 13:25:19.140000'
g294
tp348
a(S'2015-09-04 13:25:19.285000'
g296
tp349
a(S'2015-09-04 13:25:19.292000'
g294
tp350
a(S'2015-09-04 13:25:19.294000'
S'data saved as csv to C:\\Users\\Jbarrett\\Charlie\\charlie\\data\\csv\\4456_switching.csv'
tp351
a(S'2015-09-04 13:25:20.020000'
g294
tp352
a(S'2015-09-04 13:25:20.206000'
g296
tp353
a(S'2015-09-04 13:25:20.214000'
g294
tp354
a(S'2015-09-04 13:25:20.217000'
S'data saved as csv to C:\\Users\\Jbarrett\\Charlie\\charlie\\data\\csv\\4456_switching.csv'
tp355
a(S'2015-09-04 13:25:21.504000'
g294
tp356
a(S'2015-09-04 13:25:21.784000'
g296
tp357
a(S'2015-09-04 13:25:21.797000'
g294
tp358
a(S'2015-09-04 13:25:21.802000'
S'data saved as csv to C:\\Users\\Jbarrett\\Charlie\\charlie\\data\\csv\\4456_switching.csv'
tp359
a(S'2015-09-04 13:25:22.531000'
g294
tp360
a(S'2015-09-04 13:25:22.827000'
g296
tp361
a(S'2015-09-04 13:25:22.840000'
g294
tp362
a(S'2015-09-04 13:25:22.843000'
S'data saved as csv to C:\\Users\\Jbarrett\\Charlie\\charlie\\data\\csv\\4456_switching.csv'
tp363
a(S'2015-09-04 13:25:24.011000'
g294
tp364
a(S'2015-09-04 13:25:24.325000'
g296
tp365
a(S'2015-09-04 13:25:24.338000'
g294
tp366
a(S'2015-09-04 13:25:24.340000'
S'data saved as csv to C:\\Users\\Jbarrett\\Charlie\\charlie\\data\\csv\\4456_switching.csv'
tp367
a(S'2015-09-04 13:25:25.226000'
g294
tp368
a(S'2015-09-04 13:25:25.556000'
g296
tp369
a(S'2015-09-04 13:25:25.569000'
g294
tp370
a(S'2015-09-04 13:25:25.573000'
S'data saved as csv to C:\\Users\\Jbarrett\\Charlie\\charlie\\data\\csv\\4456_switching.csv'
tp371
a(S'2015-09-04 13:25:26.650000'
g294
tp372
a(S'2015-09-04 13:25:26.999000'
g296
tp373
a(S'2015-09-04 13:25:27.011000'
g294
tp374
a(S'2015-09-04 13:25:27.013000'
S'data saved as csv to C:\\Users\\Jbarrett\\Charlie\\charlie\\data\\csv\\4456_switching.csv'
tp375
a(S'2015-09-04 13:25:27.919000'
g294
tp376
a(S'2015-09-04 13:25:28.135000'
g296
tp377
a(S'2015-09-04 13:25:28.143000'
g294
tp378
a(S'2015-09-04 13:25:28.145000'
S'data saved as csv to C:\\Users\\Jbarrett\\Charlie\\charlie\\data\\csv\\4456_switching.csv'
tp379
a(S'2015-09-04 13:25:29.201000'
g294
tp380
a(S'2015-09-04 13:25:29.431000'
g296
tp381
a(S'2015-09-04 13:25:29.439000'
g294
tp382
a(S'2015-09-04 13:25:29.441000'
S'data saved as csv to C:\\Users\\Jbarrett\\Charlie\\charlie\\data\\csv\\4456_switching.csv'
tp383
a(S'2015-09-04 13:25:30.337000'
g294
tp384
a(S'2015-09-04 13:25:30.735000'
g296
tp385
a(S'2015-09-04 13:25:30.748000'
g294
tp386
a(S'2015-09-04 13:25:30.752000'
S'data saved as csv to C:\\Users\\Jbarrett\\Charlie\\charlie\\data\\csv\\4456_switching.csv'
tp387
a(S'2015-09-04 13:25:31.650000'
g294
tp388
a(S'2015-09-04 13:25:32.016000'
g296
tp389
a(S'2015-09-04 13:25:32.021000'
g294
tp390
a(S'2015-09-04 13:25:32.022000'
S'data saved as csv to C:\\Users\\Jbarrett\\Charlie\\charlie\\data\\csv\\4456_switching.csv'
tp391
a(S'2015-09-04 13:25:32.686000'
g294
tp392
a(S'2015-09-04 13:25:32.872000'
g296
tp393
a(S'2015-09-04 13:25:32.876000'
g294
tp394
a(S'2015-09-04 13:25:32.877000'
S'data saved as csv to C:\\Users\\Jbarrett\\Charlie\\charlie\\data\\csv\\4456_switching.csv'
tp395
a(S'2015-09-04 13:25:34.041000'
g294
tp396
a(S'2015-09-04 13:25:34.277000'
g296
tp397
a(S'2015-09-04 13:25:34.282000'
g294
tp398
a(S'2015-09-04 13:25:34.283000'
S'data saved as csv to C:\\Users\\Jbarrett\\Charlie\\charlie\\data\\csv\\4456_switching.csv'
tp399
a(S'2015-09-04 13:25:35.138000'
g294
tp400
a(S'2015-09-04 13:25:35.375000'
g296
tp401
a(S'2015-09-04 13:25:35.379000'
g294
tp402
a(S'2015-09-04 13:25:35.380000'
S'data saved as csv to C:\\Users\\Jbarrett\\Charlie\\charlie\\data\\csv\\4456_switching.csv'
tp403
a(S'2015-09-04 13:25:36.713000'
g294
tp404
a(S'2015-09-04 13:25:36.845000'
g296
tp405
a(S'2015-09-04 13:25:36.848000'
g294
tp406
a(S'2015-09-04 13:25:36.849000'
S'data saved as csv to C:\\Users\\Jbarrett\\Charlie\\charlie\\data\\csv\\4456_switching.csv'
tp407
a(S'2015-09-04 13:25:37.665000'
g294
tp408
a(S'2015-09-04 13:25:37.854000'
g296
tp409
a(S'2015-09-04 13:25:37.858000'
g294
tp410
a(S'2015-09-04 13:25:37.859000'
S'data saved as csv to C:\\Users\\Jbarrett\\Charlie\\charlie\\data\\csv\\4456_switching.csv'
tp411
a(S'2015-09-04 13:25:38.600000'
g294
tp412
a(S'2015-09-04 13:25:38.741000'
g296
tp413
a(S'2015-09-04 13:25:38.744000'
g294
tp414
a(S'2015-09-04 13:25:38.745000'
S'data saved as csv to C:\\Users\\Jbarrett\\Charlie\\charlie\\data\\csv\\4456_switching.csv'
tp415
a(S'2015-09-04 13:25:39.359000'
g294
tp416
a(S'2015-09-04 13:25:39.505000'
g296
tp417
a(S'2015-09-04 13:25:39.509000'
g294
tp418
a(S'2015-09-04 13:25:39.510000'
S'data saved as csv to C:\\Users\\Jbarrett\\Charlie\\charlie\\data\\csv\\4456_switching.csv'
tp419
a(S'2015-09-04 13:25:40.546000'
g294
tp420
a(S'2015-09-04 13:25:40.804000'
g296
tp421
a(S'2015-09-04 13:25:40.808000'
g294
tp422
a(S'2015-09-04 13:25:40.809000'
S'data saved as csv to C:\\Users\\Jbarrett\\Charlie\\charlie\\data\\csv\\4456_switching.csv'
tp423
a(S'2015-09-04 13:25:41.566000'
g294
tp424
a(S'2015-09-04 13:25:41.783000'
g296
tp425
a(S'2015-09-04 13:25:41.786000'
g294
tp426
a(S'2015-09-04 13:25:41.788000'
S'data saved as csv to C:\\Users\\Jbarrett\\Charlie\\charlie\\data\\csv\\4456_switching.csv'
tp427
a(S'2015-09-04 13:25:42.729000'
g294
tp428
a(S'2015-09-04 13:25:42.894000'
g296
tp429
a(S'2015-09-04 13:25:42.897000'
g294
tp430
a(S'2015-09-04 13:25:42.898000'
S'data saved as csv to C:\\Users\\Jbarrett\\Charlie\\charlie\\data\\csv\\4456_switching.csv'
tp431
a(S'2015-09-04 13:25:44.025000'
g294
tp432
a(S'2015-09-04 13:25:44.322000'
g296
tp433
a(S'2015-09-04 13:25:44.329000'
g294
tp434
a(S'2015-09-04 13:25:44.331000'
S'data saved as csv to C:\\Users\\Jbarrett\\Charlie\\charlie\\data\\csv\\4456_switching.csv'
tp435
a(S'2015-09-04 13:25:45.136000'
g294
tp436
a(S'2015-09-04 13:25:45.424000'
g296
tp437
a(S'2015-09-04 13:25:45.429000'
g294
tp438
a(S'2015-09-04 13:25:45.431000'
S'data saved as csv to C:\\Users\\Jbarrett\\Charlie\\charlie\\data\\csv\\4456_switching.csv'
tp439
a(S'2015-09-04 13:25:46.056000'
g294
tp440
a(S'2015-09-04 13:25:46.302000'
g296
tp441
a(S'2015-09-04 13:25:46.306000'
g294
tp442
a(S'2015-09-04 13:25:46.308000'
S'data saved as csv to C:\\Users\\Jbarrett\\Charlie\\charlie\\data\\csv\\4456_switching.csv'
tp443
a(S'2015-09-04 13:25:47.429000'
g294
tp444
a(S'2015-09-04 13:25:47.684000'
g296
tp445
a(S'2015-09-04 13:25:47.688000'
g294
tp446
a(S'2015-09-04 13:25:47.689000'
S'data saved as csv to C:\\Users\\Jbarrett\\Charlie\\charlie\\data\\csv\\4456_switching.csv'
tp447
a(S'2015-09-04 13:25:48.586000'
g294
tp448
a(S'2015-09-04 13:25:48.815000'
g296
tp449
a(S'2015-09-04 13:25:48.819000'
g294
tp450
a(S'2015-09-04 13:25:48.820000'
S'data saved as csv to C:\\Users\\Jbarrett\\Charlie\\charlie\\data\\csv\\4456_switching.csv'
tp451
a(S'2015-09-04 13:25:49.753000'
g294
tp452
a(S'2015-09-04 13:25:50.119000'
g296
tp453
a(S'2015-09-04 13:25:50.123000'
g294
tp454
a(S'2015-09-04 13:25:50.124000'
S'data saved as csv to C:\\Users\\Jbarrett\\Charlie\\charlie\\data\\csv\\4456_switching.csv'
tp455
a(S'2015-09-04 13:25:50.729000'
g294
tp456
a(S'2015-09-04 13:25:50.940000'
g296
tp457
a(S'2015-09-04 13:25:50.944000'
g294
tp458
a(S'2015-09-04 13:25:50.946000'
S'data saved as csv to C:\\Users\\Jbarrett\\Charlie\\charlie\\data\\csv\\4456_switching.csv'
tp459
a(S'2015-09-04 13:25:51.969000'
g294
tp460
a(S'2015-09-04 13:25:52.167000'
g296
tp461
a(S'2015-09-04 13:25:52.171000'
g294
tp462
a(S'2015-09-04 13:25:52.172000'
S'data saved as csv to C:\\Users\\Jbarrett\\Charlie\\charlie\\data\\csv\\4456_switching.csv'
tp463
a(S'2015-09-04 13:25:52.869000'
g294
tp464
a(S'2015-09-04 13:25:53.228000'
g296
tp465
a(S'2015-09-04 13:25:53.233000'
g294
tp466
a(S'2015-09-04 13:25:53.234000'
S'data saved as csv to C:\\Users\\Jbarrett\\Charlie\\charlie\\data\\csv\\4456_switching.csv'
tp467
a(S'2015-09-04 13:25:54.360000'
g294
tp468
a(S'2015-09-04 13:25:54.689000'
g296
tp469
a(S'2015-09-04 13:25:54.694000'
g294
tp470
a(S'2015-09-04 13:25:54.696000'
S'data saved as csv to C:\\Users\\Jbarrett\\Charlie\\charlie\\data\\csv\\4456_switching.csv'
tp471
a(S'2015-09-04 13:25:55.811000'
g294
tp472
a(S'2015-09-04 13:25:56.055000'
g296
tp473
a(S'2015-09-04 13:25:56.059000'
g294
tp474
a(S'2015-09-04 13:25:56.060000'
S'data saved as csv to C:\\Users\\Jbarrett\\Charlie\\charlie\\data\\csv\\4456_switching.csv'
tp475
a(S'2015-09-04 13:25:57.533000'
g294
tp476
a(S'2015-09-04 13:25:57.898000'
g296
tp477
a(S'2015-09-04 13:25:57.902000'
g294
tp478
a(S'2015-09-04 13:25:57.903000'
S'data saved as csv to C:\\Users\\Jbarrett\\Charlie\\charlie\\data\\csv\\4456_switching.csv'
tp479
a(S'2015-09-04 13:25:58.868000'
g294
tp480
a(S'2015-09-04 13:25:59.221000'
g296
tp481
a(S'2015-09-04 13:25:59.226000'
g294
tp482
a(S'2015-09-04 13:25:59.228000'
S'data saved as csv to C:\\Users\\Jbarrett\\Charlie\\charlie\\data\\csv\\4456_switching.csv'
tp483
a(S'2015-09-04 13:26:00.651000'
g294
tp484
a(S'2015-09-04 13:26:01.052000'
g296
tp485
a(S'2015-09-04 13:26:01.057000'
g294
tp486
a(S'2015-09-04 13:26:01.058000'
S'data saved as csv to C:\\Users\\Jbarrett\\Charlie\\charlie\\data\\csv\\4456_switching.csv'
tp487
a(S'2015-09-04 13:26:01.749000'
g294
tp488
a(S'2015-09-04 13:26:02.071000'
g296
tp489
a(S'2015-09-04 13:26:02.075000'
g294
tp490
a(S'2015-09-04 13:26:02.076000'
S'data saved as csv to C:\\Users\\Jbarrett\\Charlie\\charlie\\data\\csv\\4456_switching.csv'
tp491
a(S'2015-09-04 13:26:02.967000'
g294
tp492
a(S'2015-09-04 13:26:03.202000'
g296
tp493
a(S'2015-09-04 13:26:03.206000'
g294
tp494
a(S'2015-09-04 13:26:03.207000'
S'data saved as csv to C:\\Users\\Jbarrett\\Charlie\\charlie\\data\\csv\\4456_switching.csv'
tp495
a(S'2015-09-04 13:26:04.586000'
g294
tp496
a(S'2015-09-04 13:26:04.996000'
g296
tp497
a(S'2015-09-04 13:26:05.001000'
g294
tp498
a(S'2015-09-04 13:26:05.003000'
S'data saved as csv to C:\\Users\\Jbarrett\\Charlie\\charlie\\data\\csv\\4456_switching.csv'
tp499
a(S'2015-09-04 13:26:06.369000'
g294
tp500
a(S'2015-09-04 13:26:06.851000'
g296
tp501
a(S'2015-09-04 13:26:06.858000'
g294
tp502
a(S'2015-09-04 13:26:06.861000'
S'data saved as csv to C:\\Users\\Jbarrett\\Charlie\\charlie\\data\\csv\\4456_switching.csv'
tp503
a(S'2015-09-04 13:26:07.424000'
g294
tp504
a(S'2015-09-04 13:26:07.754000'
g296
tp505
a(S'2015-09-04 13:26:07.758000'
g294
tp506
a(S'2015-09-04 13:26:07.759000'
S'data saved as csv to C:\\Users\\Jbarrett\\Charlie\\charlie\\data\\csv\\4456_switching.csv'
tp507
a(S'2015-09-04 13:26:08.608000'
g294
tp508
a(S'2015-09-04 13:26:08.975000'
g296
tp509
a(S'2015-09-04 13:26:08.979000'
g294
tp510
a(S'2015-09-04 13:26:08.981000'
S'data saved as csv to C:\\Users\\Jbarrett\\Charlie\\charlie\\data\\csv\\4456_switching.csv'
tp511
a(S'2015-09-04 13:26:09.535000'
g294
tp512
a(S'2015-09-04 13:26:09.825000'
g296
tp513
a(S'2015-09-04 13:26:09.829000'
g294
tp514
a(S'2015-09-04 13:26:09.830000'
S'data saved as csv to C:\\Users\\Jbarrett\\Charlie\\charlie\\data\\csv\\4456_switching.csv'
tp515
a(S'2015-09-04 13:26:11.618000'
g294
tp516
a(S'2015-09-04 13:26:11.881000'
g296
tp517
a(S'2015-09-04 13:26:11.885000'
g294
tp518
a(S'2015-09-04 13:26:11.886000'
S'data saved as csv to C:\\Users\\Jbarrett\\Charlie\\charlie\\data\\csv\\4456_switching.csv'
tp519
a(S'2015-09-04 13:26:13.233000'
g294
tp520
a(S'2015-09-04 13:26:14.210000'
g296
tp521
a(S'2015-09-04 13:26:14.225000'
g294
tp522
a(S'2015-09-04 13:26:14.228000'
S'data saved as csv to C:\\Users\\Jbarrett\\Charlie\\charlie\\data\\csv\\4456_switching.csv'
tp523
a(S'2015-09-04 13:26:15.576000'
g294
tp524
a(S'2015-09-04 13:26:16.387000'
g296
tp525
a(S'2015-09-04 13:26:16.395000'
g294
tp526
a(S'2015-09-04 13:26:16.398000'
S'data saved as csv to C:\\Users\\Jbarrett\\Charlie\\charlie\\data\\csv\\4456_switching.csv'
tp527
a(S'2015-09-04 13:26:17.355000'
g294
tp528
a(S'2015-09-04 13:26:17.726000'
g296
tp529
a(S'2015-09-04 13:26:17.730000'
g294
tp530
a(S'2015-09-04 13:26:17.731000'
S'data saved as csv to C:\\Users\\Jbarrett\\Charlie\\charlie\\data\\csv\\4456_switching.csv'
tp531
a(S'2015-09-04 13:26:18.928000'
g294
tp532
a(S'2015-09-04 13:26:19.949000'
g296
tp533
a(S'2015-09-04 13:26:19.960000'
g294
tp534
a(S'2015-09-04 13:26:19.962000'
S'data saved as csv to C:\\Users\\Jbarrett\\Charlie\\charlie\\data\\csv\\4456_switching.csv'
tp535
a(S'2015-09-04 13:26:21.032000'
g294
tp536
a(S'2015-09-04 13:26:21.639000'
g296
tp537
a(S'2015-09-04 13:26:21.647000'
g294
tp538
a(S'2015-09-04 13:26:21.651000'
S'data saved as csv to C:\\Users\\Jbarrett\\Charlie\\charlie\\data\\csv\\4456_switching.csv'
tp539
a(S'2015-09-04 13:26:22.768000'
g294
tp540
a(S'2015-09-04 13:26:23.504000'
g296
tp541
a(S'2015-09-04 13:26:23.513000'
g294
tp542
a(S'2015-09-04 13:26:23.515000'
S'data saved as csv to C:\\Users\\Jbarrett\\Charlie\\charlie\\data\\csv\\4456_switching.csv'
tp543
a(S'2015-09-04 13:26:24.343000'
g294
tp544
a(S'2015-09-04 13:26:24.963000'
g296
tp545
a(S'2015-09-04 13:26:24.971000'
g294
tp546
a(S'2015-09-04 13:26:24.974000'
S'data saved as csv to C:\\Users\\Jbarrett\\Charlie\\charlie\\data\\csv\\4456_switching.csv'
tp547
a(S'2015-09-04 13:26:26.382000'
g294
tp548
a(S'2015-09-04 13:26:27.012000'
g296
tp549
a(S'2015-09-04 13:26:27.021000'
g294
tp550
a(S'2015-09-04 13:26:27.023000'
S'data saved as csv to C:\\Users\\Jbarrett\\Charlie\\charlie\\data\\csv\\4456_switching.csv'
tp551
a(S'2015-09-04 13:26:28.051000'
g294
tp552
a(S'2015-09-04 13:26:29.154000'
g296
tp553
a(S'2015-09-04 13:26:29.169000'
g294
tp554
a(S'2015-09-04 13:26:29.174000'
S'data saved as csv to C:\\Users\\Jbarrett\\Charlie\\charlie\\data\\csv\\4456_switching.csv'
tp555
a(S'2015-09-04 13:26:30.713000'
g294
tp556
a(S'2015-09-04 13:26:31.357000'
g296
tp557
a(S'2015-09-04 13:26:31.366000'
g294
tp558
a(S'2015-09-04 13:26:31.368000'
S'data saved as csv to C:\\Users\\Jbarrett\\Charlie\\charlie\\data\\csv\\4456_switching.csv'
tp559
a(S'2015-09-04 13:26:32.526000'
g294
tp560
a(S'2015-09-04 13:26:33.664000'
g296
tp561
a(S'2015-09-04 13:26:33.679000'
g294
tp562
a(S'2015-09-04 13:26:33.683000'
S'data saved as csv to C:\\Users\\Jbarrett\\Charlie\\charlie\\data\\csv\\4456_switching.csv'
tp563
a(S'2015-09-04 13:26:34.633000'
g294
tp564
a(S'2015-09-04 13:26:35.304000'
g296
tp565
a(S'2015-09-04 13:26:35.312000'
g294
tp566
a(S'2015-09-04 13:26:35.315000'
S'data saved as csv to C:\\Users\\Jbarrett\\Charlie\\charlie\\data\\csv\\4456_switching.csv'
tp567
a(S'2015-09-04 13:26:36.101000'
g294
tp568
a(S'2015-09-04 13:26:36.783000'
g296
tp569
a(S'2015-09-04 13:26:36.791000'
g294
tp570
a(S'2015-09-04 13:26:36.794000'
S'data saved as csv to C:\\Users\\Jbarrett\\Charlie\\charlie\\data\\csv\\4456_switching.csv'
tp571
a(S'2015-09-04 13:26:38.231000'
g294
tp572
a(S'2015-09-04 13:26:39.421000'
g296
tp573
a(S'2015-09-04 13:26:39.432000'
g294
tp574
a(S'2015-09-04 13:26:39.435000'
S'data saved as csv to C:\\Users\\Jbarrett\\Charlie\\charlie\\data\\csv\\4456_switching.csv'
tp575
a(S'2015-09-04 13:26:40.263000'
g294
tp576
a(S'2015-09-04 13:26:41.471000'
g296
tp577
a(S'2015-09-04 13:26:41.486000'
g294
tp578
a(S'2015-09-04 13:26:41.491000'
S'data saved as csv to C:\\Users\\Jbarrett\\Charlie\\charlie\\data\\csv\\4456_switching.csv'
tp579
a(S'2015-09-04 13:26:42.340000'
g294
tp580
a(S'2015-09-04 13:26:43.563000'
g296
tp581
a(S'2015-09-04 13:26:43.573000'
g294
tp582
a(S'2015-09-04 13:26:43.577000'
S'data saved as csv to C:\\Users\\Jbarrett\\Charlie\\charlie\\data\\csv\\4456_switching.csv'
tp583
a(S'2015-09-04 13:26:44.425000'
g294
tp584
a(S'2015-09-04 13:26:45.666000'
g296
tp585
a(S'2015-09-04 13:26:45.681000'
g294
tp586
a(S'2015-09-04 13:26:45.686000'
S'data saved as csv to C:\\Users\\Jbarrett\\Charlie\\charlie\\data\\csv\\4456_switching.csv'
tp587
a(S'2015-09-04 13:26:46.695000'
g294
tp588
a(S'2015-09-04 13:26:47.421000'
g296
tp589
a(S'2015-09-04 13:26:47.430000'
g294
tp590
a(S'2015-09-04 13:26:47.432000'
S'data saved as csv to C:\\Users\\Jbarrett\\Charlie\\charlie\\data\\csv\\4456_switching.csv'
tp591
a(S'2015-09-04 13:26:48.320000'
g294
tp592
a(S'2015-09-04 13:26:49.052000'
g296
tp593
a(S'2015-09-04 13:26:49.060000'
g294
tp594
a(S'2015-09-04 13:26:49.063000'
S'data saved as csv to C:\\Users\\Jbarrett\\Charlie\\charlie\\data\\csv\\4456_switching.csv'
tp595
a(S'2015-09-04 13:26:50.181000'
g294
tp596
a(S'2015-09-04 13:26:50.848000'
g296
tp597
a(S'2015-09-04 13:26:50.853000'
g294
tp598
a(S'2015-09-04 13:26:50.855000'
S'data saved as csv to C:\\Users\\Jbarrett\\Charlie\\charlie\\data\\csv\\4456_switching.csv'
tp599
a(S'2015-09-04 13:26:52.063000'
g294
tp600
a(S'2015-09-04 13:26:53.372000'
g296
tp601
a(S'2015-09-04 13:26:53.387000'
g294
tp602
a(S'2015-09-04 13:26:53.392000'
S'data saved as csv to C:\\Users\\Jbarrett\\Charlie\\charlie\\data\\csv\\4456_switching.csv'
tp603
a(S'2015-09-04 13:26:54.262000'
g294
tp604
a(S'2015-09-04 13:26:55.151000'
g296
tp605
a(S'2015-09-04 13:26:55.161000'
g294
tp606
a(S'2015-09-04 13:26:55.164000'
S'data saved as csv to C:\\Users\\Jbarrett\\Charlie\\charlie\\data\\csv\\4456_switching.csv'
tp607
a(S'2015-09-04 13:26:56.238000'
g294
tp608
a(S'2015-09-04 13:26:56.612000'
g296
tp609
a(S'2015-09-04 13:26:56.616000'
g294
tp610
a(S'2015-09-04 13:26:56.617000'
S'data saved as csv to C:\\Users\\Jbarrett\\Charlie\\charlie\\data\\csv\\4456_switching.csv'
tp611
a(S'2015-09-04 13:26:58.374000'
g294
tp612
a(S'2015-09-04 13:26:59.743000'
g296
tp613
a(S'2015-09-04 13:26:59.758000'
g294
tp614
a(S'2015-09-04 13:26:59.764000'
S'data saved as csv to C:\\Users\\Jbarrett\\Charlie\\charlie\\data\\csv\\4456_switching.csv'
tp615
a(S'2015-09-04 13:27:00.561000'
g294
tp616
a(S'2015-09-04 13:27:01.488000'
g296
tp617
a(S'2015-09-04 13:27:01.498000'
g294
tp618
a(S'2015-09-04 13:27:01.502000'
S'data saved as csv to C:\\Users\\Jbarrett\\Charlie\\charlie\\data\\csv\\4456_switching.csv'
tp619
a(S'2015-09-04 13:27:02.731000'
g294
tp620
a(S'2015-09-04 13:27:04.132000'
g296
tp621
a(S'2015-09-04 13:27:04.145000'
g294
tp622
a(S'2015-09-04 13:27:04.148000'
S'data saved as csv to C:\\Users\\Jbarrett\\Charlie\\charlie\\data\\csv\\4456_switching.csv'
tp623
a(S'2015-09-04 13:27:05.187000'
g294
tp624
a(S'2015-09-04 13:27:06.602000'
g296
tp625
a(S'2015-09-04 13:27:06.613000'
g294
tp626
a(S'2015-09-04 13:27:06.616000'
S'data saved as csv to C:\\Users\\Jbarrett\\Charlie\\charlie\\data\\csv\\4456_switching.csv'
tp627
a(S'2015-09-04 13:27:07.574000'
g294
tp628
a(S'2015-09-04 13:27:08.402000'
g296
tp629
a(S'2015-09-04 13:27:08.410000'
g294
tp630
a(S'2015-09-04 13:27:08.413000'
S'data saved as csv to C:\\Users\\Jbarrett\\Charlie\\charlie\\data\\csv\\4456_switching.csv'
tp631
a(S'2015-09-04 13:27:09.422000'
g294
tp632
a(S'2015-09-04 13:27:10.877000'
g296
tp633
a(S'2015-09-04 13:27:10.892000'
g294
tp634
a(S'2015-09-04 13:27:10.895000'
S'data saved as csv to C:\\Users\\Jbarrett\\Charlie\\charlie\\data\\csv\\4456_switching.csv'
tp635
a(S'2015-09-04 13:27:11.812000'
g294
tp636
a(S'2015-09-04 13:27:12.659000'
g296
tp637
a(S'2015-09-04 13:27:12.667000'
g294
tp638
a(S'2015-09-04 13:27:12.670000'
S'data saved as csv to C:\\Users\\Jbarrett\\Charlie\\charlie\\data\\csv\\4456_switching.csv'
tp639
a(S'2015-09-04 13:27:13.559000'
g294
tp640
a(S'2015-09-04 13:27:14.640000'
g296
tp641
a(S'2015-09-04 13:27:14.650000'
g294
tp642
a(S'2015-09-04 13:27:14.653000'
S'data saved as csv to C:\\Users\\Jbarrett\\Charlie\\charlie\\data\\csv\\4456_switching.csv'
tp643
a(S'2015-09-04 13:27:15.881000'
g294
tp644
a(S'2015-09-04 13:27:16.562000'
g296
tp645
a(S'2015-09-04 13:27:16.567000'
g294
tp646
a(S'2015-09-04 13:27:16.569000'
S'data saved as csv to C:\\Users\\Jbarrett\\Charlie\\charlie\\data\\csv\\4456_switching.csv'
tp647
a(S'2015-09-04 13:27:17.257000'
g294
tp648
a(S'2015-09-04 13:27:17.917000'
g296
tp649
a(S'2015-09-04 13:27:17.921000'
g294
tp650
a(S'2015-09-04 13:27:17.923000'
S'data saved as csv to C:\\Users\\Jbarrett\\Charlie\\charlie\\data\\csv\\4456_switching.csv'
tp651
a(S'2015-09-04 13:27:19.010000'
g294
tp652
a(S'2015-09-04 13:27:19.533000'
g296
tp653
a(S'2015-09-04 13:27:19.537000'
g294
tp654
a(S'2015-09-04 13:27:19.538000'
S'data saved as csv to C:\\Users\\Jbarrett\\Charlie\\charlie\\data\\csv\\4456_switching.csv'
tp655
a(S'2015-09-04 13:27:20.655000'
g294
tp656
a(S'2015-09-04 13:27:21.148000'
g296
tp657
a(S'2015-09-04 13:27:21.153000'
g294
tp658
a(S'2015-09-04 13:27:21.155000'
S'data saved as csv to C:\\Users\\Jbarrett\\Charlie\\charlie\\data\\csv\\4456_switching.csv'
tp659
a(S'2015-09-04 13:27:22.333000'
g294
tp660
a(S'2015-09-04 13:27:23.234000'
g296
tp661
a(S'2015-09-04 13:27:23.243000'
g294
tp662
a(S'2015-09-04 13:27:23.246000'
S'data saved as csv to C:\\Users\\Jbarrett\\Charlie\\charlie\\data\\csv\\4456_switching.csv'
tp663
a(S'2015-09-04 13:27:23.945000'
g294
tp664
a(S'2015-09-04 13:27:25.524000'
g296
tp665
a(S'2015-09-04 13:27:25.536000'
g294
tp666
a(S'2015-09-04 13:27:25.539000'
S'data saved as csv to C:\\Users\\Jbarrett\\Charlie\\charlie\\data\\csv\\4456_switching.csv'
tp667
a(S'2015-09-04 13:27:26.718000'
g294
tp668
a(S'2015-09-04 13:27:27.637000'
g296
tp669
a(S'2015-09-04 13:27:27.646000'
g294
tp670
a(S'2015-09-04 13:27:27.648000'
S'data saved as csv to C:\\Users\\Jbarrett\\Charlie\\charlie\\data\\csv\\4456_switching.csv'
tp671
a(S'2015-09-04 13:27:28.477000'
g294
tp672
a(S'2015-09-04 13:27:29.566000'
g296
tp673
a(S'2015-09-04 13:27:29.575000'
g294
tp674
a(S'2015-09-04 13:27:29.578000'
S'data saved as csv to C:\\Users\\Jbarrett\\Charlie\\charlie\\data\\csv\\4456_switching.csv'
tp675
a(S'2015-09-04 13:27:30.507000'
g294
tp676
a(S'2015-09-04 13:27:32.145000'
g296
tp677
a(S'2015-09-04 13:27:32.161000'
g294
tp678
a(S'2015-09-04 13:27:32.164000'
S'data saved as csv to C:\\Users\\Jbarrett\\Charlie\\charlie\\data\\csv\\4456_switching.csv'
tp679
a(S'2015-09-04 13:27:33.493000'
g294
tp680
a(S'2015-09-04 13:27:34.440000'
g296
tp681
a(S'2015-09-04 13:27:34.449000'
g294
tp682
a(S'2015-09-04 13:27:34.452000'
S'data saved as csv to C:\\Users\\Jbarrett\\Charlie\\charlie\\data\\csv\\4456_switching.csv'
tp683
a(S'2015-09-04 13:27:35.501000'
g294
tp684
a(S'2015-09-04 13:27:36.458000'
g296
tp685
a(S'2015-09-04 13:27:36.467000'
g294
tp686
a(S'2015-09-04 13:27:36.470000'
S'data saved as csv to C:\\Users\\Jbarrett\\Charlie\\charlie\\data\\csv\\4456_switching.csv'
tp687
a(S'2015-09-04 13:27:37.539000'
g294
tp688
a(S'2015-09-04 13:27:39.217000'
g296
tp689
a(S'2015-09-04 13:27:39.227000'
g294
tp690
a(S'2015-09-04 13:27:39.230000'
S'data saved as csv to C:\\Users\\Jbarrett\\Charlie\\charlie\\data\\csv\\4456_switching.csv'
tp691
a(S'2015-09-04 13:27:40.189000'
g294
tp692
a(S'2015-09-04 13:27:41.164000'
g296
tp693
a(S'2015-09-04 13:27:41.173000'
g294
tp694
a(S'2015-09-04 13:27:41.176000'
S'data saved as csv to C:\\Users\\Jbarrett\\Charlie\\charlie\\data\\csv\\4456_switching.csv'
tp695
a(S'2015-09-04 13:27:42.345000'
g294
tp696
a(S'2015-09-04 13:27:44.053000'
g296
tp697
a(S'2015-09-04 13:27:44.069000'
g294
tp698
a(S'2015-09-04 13:27:44.073000'
S'data saved as csv to C:\\Users\\Jbarrett\\Charlie\\charlie\\data\\csv\\4456_switching.csv'
tp699
a(S'2015-09-04 13:27:45.140000'
g294
tp700
a(S'2015-09-04 13:27:46.133000'
g296
tp701
a(S'2015-09-04 13:27:46.142000'
g294
tp702
a(S'2015-09-04 13:27:46.146000'
S'data saved as csv to C:\\Users\\Jbarrett\\Charlie\\charlie\\data\\csv\\4456_switching.csv'
tp703
a(S'2015-09-04 13:27:46.975000'
g294
tp704
a(S'2015-09-04 13:27:48.723000'
g296
tp705
a(S'2015-09-04 13:27:48.739000'
g294
tp706
a(S'2015-09-04 13:27:48.744000'
S'data saved as csv to C:\\Users\\Jbarrett\\Charlie\\charlie\\data\\csv\\4456_switching.csv'
tp707
a(S'2015-09-04 13:27:49.744000'
g294
tp708
a(S'2015-09-04 13:27:50.983000'
g296
tp709
a(S'2015-09-04 13:27:50.988000'
g294
tp710
a(S'2015-09-04 13:27:50.990000'
S'data saved as csv to C:\\Users\\Jbarrett\\Charlie\\charlie\\data\\csv\\4456_switching.csv'
tp711
a(S'2015-09-04 13:27:51.708000'
g294
tp712
a(S'2015-09-04 13:27:52.731000'
g296
tp713
a(S'2015-09-04 13:27:52.740000'
g294
tp714
a(S'2015-09-04 13:27:52.742000'
S'data saved as csv to C:\\Users\\Jbarrett\\Charlie\\charlie\\data\\csv\\4456_switching.csv'
tp715
a(S'2015-09-04 13:27:54.180000'
g294
tp716
a(S'2015-09-04 13:27:55.392000'
g296
tp717
a(S'2015-09-04 13:27:55.403000'
g294
tp718
a(S'2015-09-04 13:27:55.407000'
S'data saved as csv to C:\\Users\\Jbarrett\\Charlie\\charlie\\data\\csv\\4456_switching.csv'
tp719
a(S'2015-09-04 13:27:56.176000'
g294
tp720
a(S'2015-09-04 13:27:56.749000'
g296
tp721
a(S'2015-09-04 13:27:56.754000'
g294
tp722
a(S'2015-09-04 13:27:56.755000'
S'data saved as csv to C:\\Users\\Jbarrett\\Charlie\\charlie\\data\\csv\\4456_switching.csv'
tp723
a(S'2015-09-04 13:27:58.593000'
g294
tp724
a(S'2015-09-04 13:28:00.015000'
g296
tp725
a(S'2015-09-04 13:28:00.024000'
g294
tp726
a(S'2015-09-04 13:28:00.027000'
S'data saved as csv to C:\\Users\\Jbarrett\\Charlie\\charlie\\data\\csv\\4456_switching.csv'
tp727
a(S'2015-09-04 13:28:00.967000'
g294
tp728
a(S'2015-09-04 13:28:01.849000'
g296
tp729
a(S'2015-09-04 13:28:01.857000'
g294
tp730
a(S'2015-09-04 13:28:01.859000'
S'data saved as csv to C:\\Users\\Jbarrett\\Charlie\\charlie\\data\\csv\\4456_switching.csv'
tp731
a(S'2015-09-04 13:28:02.968000'
g294
tp732
a(S'2015-09-04 13:28:04.843000'
g296
tp733
a(S'2015-09-04 13:28:04.859000'
g294
tp734
a(S'2015-09-04 13:28:04.862000'
S'data saved as csv to C:\\Users\\Jbarrett\\Charlie\\charlie\\data\\csv\\4456_switching.csv'
tp735
a(S'2015-09-04 13:28:16.038000'
g294
tp736
a(S'2015-09-04 13:28:17.123000'
g296
tp737
a(S'2015-09-04 13:28:17.133000'
g294
tp738
a(S'2015-09-04 13:28:17.136000'
S'data saved as csv to C:\\Users\\Jbarrett\\Charlie\\charlie\\data\\csv\\4456_switching.csv'
tp739
a(S'2015-09-04 13:28:18.053000'
g294
tp740
a(S'2015-09-04 13:28:19.147000'
g296
tp741
a(S'2015-09-04 13:28:19.156000'
g294
tp742
a(S'2015-09-04 13:28:19.160000'
S'data saved as csv to C:\\Users\\Jbarrett\\Charlie\\charlie\\data\\csv\\4456_switching.csv'
tp743
a(S'2015-09-04 13:28:20.379000'
g294
tp744
a(S'2015-09-04 13:28:21.115000'
g296
tp745
a(S'2015-09-04 13:28:21.121000'
g294
tp746
a(S'2015-09-04 13:28:21.122000'
S'data saved as csv to C:\\Users\\Jbarrett\\Charlie\\charlie\\data\\csv\\4456_switching.csv'
tp747
a(S'2015-09-04 13:28:22.111000'
g294
tp748
a(S'2015-09-04 13:28:24.049000'
g296
tp749
a(S'2015-09-04 13:28:24.062000'
g294
tp750
a(S'2015-09-04 13:28:24.065000'
S'data saved as csv to C:\\Users\\Jbarrett\\Charlie\\charlie\\data\\csv\\4456_switching.csv'
tp751
a(S'2015-09-04 13:28:24.994000'
g294
tp752
a(S'2015-09-04 13:28:26.122000'
g296
tp753
a(S'2015-09-04 13:28:26.132000'
g294
tp754
a(S'2015-09-04 13:28:26.135000'
S'data saved as csv to C:\\Users\\Jbarrett\\Charlie\\charlie\\data\\csv\\4456_switching.csv'
tp755
a(S'2015-09-04 13:28:26.794000'
g294
tp756
a(S'2015-09-04 13:28:28.774000'
g296
tp757
a(S'2015-09-04 13:28:28.790000'
g294
tp758
a(S'2015-09-04 13:28:28.796000'
S'data saved as csv to C:\\Users\\Jbarrett\\Charlie\\charlie\\data\\csv\\4456_switching.csv'
tp759
a(S'2015-09-04 13:28:29.627000'
g294
tp760
a(S'2015-09-04 13:28:31.567000'
g296
tp761
a(S'2015-09-04 13:28:31.576000'
g294
tp762
a(S'2015-09-04 13:28:31.579000'
S'data saved as csv to C:\\Users\\Jbarrett\\Charlie\\charlie\\data\\csv\\4456_switching.csv'
tp763
a(S'2015-09-04 13:28:32.858000'
g294
tp764
a(S'2015-09-04 13:28:33.813000'
g296
tp765
a(S'2015-09-04 13:28:33.821000'
g294
tp766
a(S'2015-09-04 13:28:33.823000'
S'data saved as csv to C:\\Users\\Jbarrett\\Charlie\\charlie\\data\\csv\\4456_switching.csv'
tp767
a(S'2015-09-04 13:28:34.842000'
g294
tp768
a(S'2015-09-04 13:28:36.006000'
g296
tp769
a(S'2015-09-04 13:28:36.015000'
g294
tp770
a(S'2015-09-04 13:28:36.018000'
S'data saved as csv to C:\\Users\\Jbarrett\\Charlie\\charlie\\data\\csv\\4456_switching.csv'
tp771
a(S'2015-09-04 13:28:36.778000'
g294
tp772
a(S'2015-09-04 13:28:38.827000'
g296
tp773
a(S'2015-09-04 13:28:38.844000'
g294
tp774
a(S'2015-09-04 13:28:38.849000'
S'data saved as csv to C:\\Users\\Jbarrett\\Charlie\\charlie\\data\\csv\\4456_switching.csv'
tp775
a(S'2015-09-04 13:28:39.947000'
g294
tp776
a(S'2015-09-04 13:28:41.126000'
g296
tp777
a(S'2015-09-04 13:28:41.136000'
g294
tp778
a(S'2015-09-04 13:28:41.139000'
S'data saved as csv to C:\\Users\\Jbarrett\\Charlie\\charlie\\data\\csv\\4456_switching.csv'
tp779
a(S'2015-09-04 13:28:42.378000'
g294
tp780
a(S'2015-09-04 13:28:43.763000'
g296
tp781
a(S'2015-09-04 13:28:43.774000'
g294
tp782
a(S'2015-09-04 13:28:43.778000'
S'data saved as csv to C:\\Users\\Jbarrett\\Charlie\\charlie\\data\\csv\\4456_switching.csv'
tp783
a(S'2015-09-04 13:28:44.938000'
g294
tp784
a(S'2015-09-04 13:28:47.037000'
g296
tp785
a(S'2015-09-04 13:28:47.047000'
g294
tp786
a(S'2015-09-04 13:28:47.050000'
S'data saved as csv to C:\\Users\\Jbarrett\\Charlie\\charlie\\data\\csv\\4456_switching.csv'
tp787
a(S'2015-09-04 13:28:48.059000'
g294
tp788
a(S'2015-09-04 13:28:50.033000'
g296
tp789
a(S'2015-09-04 13:28:50.044000'
g294
tp790
a(S'2015-09-04 13:28:50.048000'
S'data saved as csv to C:\\Users\\Jbarrett\\Charlie\\charlie\\data\\csv\\4456_switching.csv'
tp791
a(S'2015-09-04 13:28:51.180000'
g294
tp792
a(S'2015-09-04 13:28:52.396000'
g296
tp793
a(S'2015-09-04 13:28:52.405000'
g294
tp794
a(S'2015-09-04 13:28:52.409000'
S'data saved as csv to C:\\Users\\Jbarrett\\Charlie\\charlie\\data\\csv\\4456_switching.csv'
tp795
a(S'2015-09-04 13:28:53.208000'
g294
tp796
a(S'2015-09-04 13:28:54.426000'
g296
tp797
a(S'2015-09-04 13:28:54.435000'
g294
tp798
a(S'2015-09-04 13:28:54.438000'
S'data saved as csv to C:\\Users\\Jbarrett\\Charlie\\charlie\\data\\csv\\4456_switching.csv'
tp799
a(S'2015-09-04 13:28:55.307000'
g294
tp800
a(S'2015-09-04 13:28:56.522000'
g296
tp801
a(S'2015-09-04 13:28:56.527000'
g294
tp802
a(S'2015-09-04 13:28:56.528000'
S'data saved as csv to C:\\Users\\Jbarrett\\Charlie\\charlie\\data\\csv\\4456_switching.csv'
tp803
a(S'2015-09-04 13:28:58.187000'
g294
tp804
a(S'2015-09-04 13:28:59.431000'
g296
tp805
a(S'2015-09-04 13:28:59.441000'
g294
tp806
a(S'2015-09-04 13:28:59.444000'
S'data saved as csv to C:\\Users\\Jbarrett\\Charlie\\charlie\\data\\csv\\4456_switching.csv'
tp807
a(S'2015-09-04 13:29:00.373000'
g294
tp808
a(S'2015-09-04 13:29:01.546000'
g296
tp809
a(S'2015-09-04 13:29:01.555000'
g294
tp810
a(S'2015-09-04 13:29:01.558000'
S'data saved as csv to C:\\Users\\Jbarrett\\Charlie\\charlie\\data\\csv\\4456_switching.csv'
tp811
a(S'2015-09-04 13:29:02.327000'
g294
tp812
a(S'2015-09-04 13:29:03.593000'
g296
tp813
a(S'2015-09-04 13:29:03.602000'
g294
tp814
a(S'2015-09-04 13:29:03.606000'
S'data saved as csv to C:\\Users\\Jbarrett\\Charlie\\charlie\\data\\csv\\4456_switching.csv'
tp815
a(S'2015-09-04 13:29:04.776000'
g294
tp816
a(S'2015-09-04 13:29:05.972000'
g296
tp817
a(S'2015-09-04 13:29:05.981000'
g294
tp818
a(S'2015-09-04 13:29:05.984000'
S'data saved as csv to C:\\Users\\Jbarrett\\Charlie\\charlie\\data\\csv\\4456_switching.csv'
tp819
a(S'2015-09-04 13:29:07.174000'
g294
tp820
a(S'2015-09-04 13:29:08.463000'
g296
tp821
a(S'2015-09-04 13:29:08.473000'
g294
tp822
a(S'2015-09-04 13:29:08.476000'
S'data saved as csv to C:\\Users\\Jbarrett\\Charlie\\charlie\\data\\csv\\4456_switching.csv'
tp823
a(S'2015-09-04 13:29:09.256000'
g294
tp824
a(S'2015-09-04 13:29:10.547000'
g296
tp825
a(S'2015-09-04 13:29:10.557000'
g294
tp826
a(S'2015-09-04 13:29:10.561000'
S'data saved as csv to C:\\Users\\Jbarrett\\Charlie\\charlie\\data\\csv\\4456_switching.csv'
tp827
a(S'2015-09-04 13:29:11.680000'
g294
tp828
a(S'2015-09-04 13:29:13.188000'
g296
tp829
a(S'2015-09-04 13:29:13.198000'
g294
tp830
a(S'2015-09-04 13:29:13.200000'
S'data saved as csv to C:\\Users\\Jbarrett\\Charlie\\charlie\\data\\csv\\4456_switching.csv'
tp831
a(S'2015-09-04 13:29:14.359000'
g294
tp832
a(S'2015-09-04 13:29:16.398000'
g296
tp833
a(S'2015-09-04 13:29:16.410000'
g294
tp834
a(S'2015-09-04 13:29:16.414000'
S'data saved as csv to C:\\Users\\Jbarrett\\Charlie\\charlie\\data\\csv\\4456_switching.csv'
tp835
a(S'2015-09-04 13:29:17.723000'
g294
tp836
a(S'2015-09-04 13:29:18.361000'
g296
tp837
a(S'2015-09-04 13:29:18.366000'
g294
tp838
a(S'2015-09-04 13:29:18.367000'
S'data saved as csv to C:\\Users\\Jbarrett\\Charlie\\charlie\\data\\csv\\4456_switching.csv'
tp839
a(S'2015-09-04 13:29:19.117000'
g294
tp840
a(S'2015-09-04 13:29:20.432000'
g296
tp841
a(S'2015-09-04 13:29:20.439000'
g294
tp842
a(S'2015-09-04 13:29:20.441000'
S'data saved as csv to C:\\Users\\Jbarrett\\Charlie\\charlie\\data\\csv\\4456_switching.csv'
tp843
a(S'2015-09-04 13:29:21.234000'
g294
tp844
a(S'2015-09-04 13:29:22.573000'
g296
tp845
a(S'2015-09-04 13:29:22.583000'
g294
tp846
a(S'2015-09-04 13:29:22.586000'
S'data saved as csv to C:\\Users\\Jbarrett\\Charlie\\charlie\\data\\csv\\4456_switching.csv'
tp847
a(S'2015-09-04 13:29:23.456000'
g294
tp848
a(S'2015-09-04 13:29:25.803000'
g296
tp849
a(S'2015-09-04 13:29:25.821000'
g294
tp850
a(S'2015-09-04 13:29:25.826000'
S'data saved as csv to C:\\Users\\Jbarrett\\Charlie\\charlie\\data\\csv\\4456_switching.csv'
tp851
a(S'2015-09-04 13:29:26.847000'
g294
tp852
a(S'2015-09-04 13:29:28.916000'
g296
tp853
a(S'2015-09-04 13:29:28.927000'
g294
tp854
a(S'2015-09-04 13:29:28.930000'
S'data saved as csv to C:\\Users\\Jbarrett\\Charlie\\charlie\\data\\csv\\4456_switching.csv'
tp855
a(S'2015-09-04 13:29:30.100000'
g294
tp856
a(S'2015-09-04 13:29:32.034000'
g296
tp857
a(S'2015-09-04 13:29:32.042000'
g294
tp858
a(S'2015-09-04 13:29:32.045000'
S'data saved as csv to C:\\Users\\Jbarrett\\Charlie\\charlie\\data\\csv\\4456_switching.csv'
tp859
a(S'2015-09-04 13:29:32.725000'
g294
tp860
a(S'2015-09-04 13:29:35.125000'
g296
tp861
a(S'2015-09-04 13:29:35.135000'
g294
tp862
a(S'2015-09-04 13:29:35.139000'
S'data saved as csv to C:\\Users\\Jbarrett\\Charlie\\charlie\\data\\csv\\4456_switching.csv'
tp863
a(S'2015-09-04 13:29:35.999000'
g294
tp864
a(S'2015-09-04 13:29:38.410000'
g296
tp865
a(S'2015-09-04 13:29:38.426000'
g294
tp866
a(S'2015-09-04 13:29:38.429000'
S'data saved as csv to C:\\Users\\Jbarrett\\Charlie\\charlie\\data\\csv\\4456_switching.csv'
tp867
a(S'2015-09-04 13:29:39.569000'
g294
tp868
a(S'2015-09-04 13:29:40.960000'
g296
tp869
a(S'2015-09-04 13:29:40.970000'
g294
tp870
a(S'2015-09-04 13:29:40.974000'
S'data saved as csv to C:\\Users\\Jbarrett\\Charlie\\charlie\\data\\csv\\4456_switching.csv'
tp871
a(S'2015-09-04 13:29:42.013000'
g294
tp872
a(S'2015-09-04 13:29:43.408000'
g296
tp873
a(S'2015-09-04 13:29:43.418000'
g294
tp874
a(S'2015-09-04 13:29:43.422000'
S'data saved as csv to C:\\Users\\Jbarrett\\Charlie\\charlie\\data\\csv\\4456_switching.csv'
tp875
a(S'2015-09-04 13:29:44.351000'
g294
tp876
a(S'2015-09-04 13:29:45.756000'
g296
tp877
a(S'2015-09-04 13:29:45.767000'
g294
tp878
a(S'2015-09-04 13:29:45.770000'
S'data saved as csv to C:\\Users\\Jbarrett\\Charlie\\charlie\\data\\csv\\4456_switching.csv'
tp879
a(S'2015-09-04 13:29:46.950000'
g294
tp880
a(S'2015-09-04 13:29:48.372000'
g296
tp881
a(S'2015-09-04 13:29:48.382000'
g294
tp882
a(S'2015-09-04 13:29:48.385000'
S'data saved as csv to C:\\Users\\Jbarrett\\Charlie\\charlie\\data\\csv\\4456_switching.csv'
tp883
a(S'2015-09-04 13:29:49.284000'
g294
tp884
a(S'2015-09-04 13:29:50.871000'
g296
tp885
a(S'2015-09-04 13:29:50.879000'
g294
tp886
a(S'2015-09-04 13:29:50.882000'
S'data saved as csv to C:\\Users\\Jbarrett\\Charlie\\charlie\\data\\csv\\4456_switching.csv'
tp887
a(S'2015-09-04 13:29:51.751000'
g294
tp888
a(S'2015-09-04 13:29:53.103000'
g296
tp889
a(S'2015-09-04 13:29:53.112000'
g294
tp890
a(S'2015-09-04 13:29:53.116000'
S'data saved as csv to C:\\Users\\Jbarrett\\Charlie\\charlie\\data\\csv\\4456_switching.csv'
tp891
a(S'2015-09-04 13:29:53.926000'
g294
tp892
a(S'2015-09-04 13:29:55.371000'
g296
tp893
a(S'2015-09-04 13:29:55.381000'
g294
tp894
a(S'2015-09-04 13:29:55.384000'
S'data saved as csv to C:\\Users\\Jbarrett\\Charlie\\charlie\\data\\csv\\4456_switching.csv'
tp895
a(S'2015-09-04 13:29:56.454000'
g294
tp896
a(S'2015-09-04 13:29:57.365000'
g296
tp897
a(S'2015-09-04 13:29:57.369000'
g294
tp898
a(S'2015-09-04 13:29:57.371000'
S'data saved as csv to C:\\Users\\Jbarrett\\Charlie\\charlie\\data\\csv\\4456_switching.csv'
tp899
a(S'2015-09-04 13:29:58.400000'
g294
tp900
a(S'2015-09-04 13:30:00.113000'
g296
tp901
a(S'2015-09-04 13:30:00.124000'
g294
tp902
a(S'2015-09-04 13:30:00.129000'
S'data saved as csv to C:\\Users\\Jbarrett\\Charlie\\charlie\\data\\csv\\4456_switching.csv'
tp903
a(S'2015-09-04 13:30:00.979000'
g294
tp904
a(S'2015-09-04 13:30:02.703000'
g296
tp905
a(S'2015-09-04 13:30:02.715000'
g294
tp906
a(S'2015-09-04 13:30:02.719000'
S'data saved as csv to C:\\Users\\Jbarrett\\Charlie\\charlie\\data\\csv\\4456_switching.csv'
tp907
a(S'2015-09-04 13:30:03.689000'
g294
tp908
a(S'2015-09-04 13:30:05.077000'
g296
tp909
a(S'2015-09-04 13:30:05.087000'
g294
tp910
a(S'2015-09-04 13:30:05.090000'
S'data saved as csv to C:\\Users\\Jbarrett\\Charlie\\charlie\\data\\csv\\4456_switching.csv'
tp911
a(S'2015-09-04 13:30:06.270000'
g294
tp912
a(S'2015-09-04 13:30:07.510000'
g296
tp913
a(S'2015-09-04 13:30:07.518000'
g294
tp914
a(S'2015-09-04 13:30:07.521000'
S'data saved as csv to C:\\Users\\Jbarrett\\Charlie\\charlie\\data\\csv\\4456_switching.csv'
tp915
a(S'2015-09-04 13:30:08.462000'
g294
tp916
a(S'2015-09-04 13:30:09.976000'
g296
tp917
a(S'2015-09-04 13:30:09.986000'
g294
tp918
a(S'2015-09-04 13:30:09.990000'
S'data saved as csv to C:\\Users\\Jbarrett\\Charlie\\charlie\\data\\csv\\4456_switching.csv'
tp919
a(S'2015-09-04 13:30:11.031000'
g294
tp920
a(S'2015-09-04 13:30:12.540000'
g296
tp921
a(S'2015-09-04 13:30:12.550000'
g294
tp922
a(S'2015-09-04 13:30:12.554000'
S'data saved as csv to C:\\Users\\Jbarrett\\Charlie\\charlie\\data\\csv\\4456_switching.csv'
tp923
a(S'2015-09-04 13:30:13.264000'
g294
tp924
a(S'2015-09-04 13:30:14.801000'
g296
tp925
a(S'2015-09-04 13:30:14.811000'
g294
tp926
a(S'2015-09-04 13:30:14.814000'
S'data saved as csv to C:\\Users\\Jbarrett\\Charlie\\charlie\\data\\csv\\4456_switching.csv'
tp927
a(S'2015-09-04 13:30:15.703000'
g294
tp928
a(S'2015-09-04 13:30:17.243000'
g296
tp929
a(S'2015-09-04 13:30:17.253000'
g294
tp930
a(S'2015-09-04 13:30:17.257000'
S'data saved as csv to C:\\Users\\Jbarrett\\Charlie\\charlie\\data\\csv\\4456_switching.csv'
tp931
a(S'2015-09-04 13:30:17.843000'
g294
tp932
a(S'2015-09-04 13:30:18.587000'
g296
tp933
a(S'2015-09-04 13:30:18.591000'
g294
tp934
a(S'2015-09-04 13:30:18.593000'
S'data saved as csv to C:\\Users\\Jbarrett\\Charlie\\charlie\\data\\csv\\4456_switching.csv'
tp935
a(S'2015-09-04 13:30:19.423000'
g294
tp936
a(S'2015-09-04 13:30:20.864000'
g296
tp937
a(S'2015-09-04 13:30:20.869000'
g294
tp938
a(S'2015-09-04 13:30:20.871000'
S'data saved as csv to C:\\Users\\Jbarrett\\Charlie\\charlie\\data\\csv\\4456_switching.csv'
tp939
a(S'2015-09-04 13:30:21.661000'
g294
tp940
a(S'2015-09-04 13:30:22.952000'
g296
tp941
a(S'2015-09-04 13:30:22.960000'
g294
tp942
a(S'2015-09-04 13:30:22.963000'
S'data saved as csv to C:\\Users\\Jbarrett\\Charlie\\charlie\\data\\csv\\4456_switching.csv'
tp943
a(S'2015-09-04 13:30:23.734000'
g294
tp944
a(S'2015-09-04 13:30:25.028000'
g296
tp945
a(S'2015-09-04 13:30:25.037000'
g294
tp946
a(S'2015-09-04 13:30:25.040000'
S'data saved as csv to C:\\Users\\Jbarrett\\Charlie\\charlie\\data\\csv\\4456_switching.csv'
tp947
a(S'2015-09-04 13:30:25.801000'
g294
tp948
a(S'2015-09-04 13:30:27.383000'
g296
tp949
a(S'2015-09-04 13:30:27.393000'
g294
tp950
a(S'2015-09-04 13:30:27.397000'
S'data saved as csv to C:\\Users\\Jbarrett\\Charlie\\charlie\\data\\csv\\4456_switching.csv'
tp951
a(S'2015-09-04 13:30:28.278000'
g294
tp952
a(S'2015-09-04 13:30:30.647000'
g296
tp953
a(S'2015-09-04 13:30:30.658000'
g294
tp954
a(S'2015-09-04 13:30:30.662000'
S'data saved as csv to C:\\Users\\Jbarrett\\Charlie\\charlie\\data\\csv\\4456_switching.csv'
tp955
a(S'2015-09-04 13:30:31.532000'
g294
tp956
a(S'2015-09-04 13:30:33.131000'
g296
tp957
a(S'2015-09-04 13:30:33.141000'
g294
tp958
a(S'2015-09-04 13:30:33.144000'
S'data saved as csv to C:\\Users\\Jbarrett\\Charlie\\charlie\\data\\csv\\4456_switching.csv'
tp959
a(S'2015-09-04 13:30:34.143000'
g294
tp960
a(S'2015-09-04 13:30:35.644000'
g296
tp961
a(S'2015-09-04 13:30:35.654000'
g294
tp962
a(S'2015-09-04 13:30:35.658000'
S'data saved as csv to C:\\Users\\Jbarrett\\Charlie\\charlie\\data\\csv\\4456_switching.csv'
tp963
a(S'2015-09-04 13:30:36.378000'
g294
tp964
a(S'2015-09-04 13:30:37.989000'
g296
tp965
a(S'2015-09-04 13:30:37.999000'
g294
tp966
a(S'2015-09-04 13:30:38.002000'
S'data saved as csv to C:\\Users\\Jbarrett\\Charlie\\charlie\\data\\csv\\4456_switching.csv'
tp967
a(S'2015-09-04 13:30:39.102000'
g294
tp968
a(S'2015-09-04 13:30:40.727000'
g296
tp969
a(S'2015-09-04 13:30:40.737000'
g294
tp970
a(S'2015-09-04 13:30:40.741000'
S'data saved as csv to C:\\Users\\Jbarrett\\Charlie\\charlie\\data\\csv\\4456_switching.csv'
tp971
a(S'2015-09-04 13:30:41.581000'
g294
tp972
a(S'2015-09-04 13:30:42.512000'
g296
tp973
a(S'2015-09-04 13:30:42.517000'
g294
tp974
a(S'2015-09-04 13:30:42.520000'
S'data saved as csv to C:\\Users\\Jbarrett\\Charlie\\charlie\\data\\csv\\4456_switching.csv'
tp975
a(S'2015-09-04 13:30:43.670000'
g294
tp976
a(S'2015-09-04 13:30:44.961000'
g296
tp977
a(S'2015-09-04 13:30:44.969000'
g294
tp978
a(S'2015-09-04 13:30:44.972000'
S'data saved as csv to C:\\Users\\Jbarrett\\Charlie\\charlie\\data\\csv\\4456_switching.csv'
tp979
a(S'2015-09-04 13:30:45.973000'
g294
tp980
a(S'2015-09-04 13:30:47.633000'
g296
tp981
a(S'2015-09-04 13:30:47.644000'
g294
tp982
a(S'2015-09-04 13:30:47.648000'
S'data saved as csv to C:\\Users\\Jbarrett\\Charlie\\charlie\\data\\csv\\4456_switching.csv'
tp983
a(S'2015-09-04 13:30:48.609000'
g294
tp984
a(S'2015-09-04 13:30:50.278000'
g296
tp985
a(S'2015-09-04 13:30:50.288000'
g294
tp986
a(S'2015-09-04 13:30:50.292000'
S'data saved as csv to C:\\Users\\Jbarrett\\Charlie\\charlie\\data\\csv\\4456_switching.csv'
tp987
a(S'2015-09-04 13:30:51.195000'
g294
tp988
a(S'2015-09-04 13:30:52.875000'
g296
tp989
a(S'2015-09-04 13:30:52.885000'
g294
tp990
a(S'2015-09-04 13:30:52.890000'
S'data saved as csv to C:\\Users\\Jbarrett\\Charlie\\charlie\\data\\csv\\4456_switching.csv'
tp991
a(S'2015-09-04 13:30:53.901000'
g294
tp992
a(S'2015-09-04 13:30:56.863000'
g296
tp993
a(S'2015-09-04 13:30:56.877000'
g294
tp994
a(S'2015-09-04 13:30:56.881000'
S'data saved as csv to C:\\Users\\Jbarrett\\Charlie\\charlie\\data\\csv\\4456_switching.csv'
tp995
a(S'2015-09-04 13:30:58.292000'
g294
tp996
a(S'2015-09-04 13:30:59.992000'
g296
tp997
a(S'2015-09-04 13:30:59.999000'
g294
tp998
a(S'2015-09-04 13:31:00.001000'
S'data saved as csv to C:\\Users\\Jbarrett\\Charlie\\charlie\\data\\csv\\4456_switching.csv'
tp999
a(S'2015-09-04 13:31:00.942000'
g294
tp1000
a(S'2015-09-04 13:31:03.024000'
g296
tp1001
a(S'2015-09-04 13:31:03.030000'
g294
tp1002
a(S'2015-09-04 13:31:03.032000'
S'data saved as csv to C:\\Users\\Jbarrett\\Charlie\\charlie\\data\\csv\\4456_switching.csv'
tp1003
a(S'2015-09-04 13:31:03.803000'
g294
tp1004
a(S'2015-09-04 13:31:06.244000'
g296
tp1005
a(S'2015-09-04 13:31:06.253000'
g294
tp1006
a(S'2015-09-04 13:31:06.256000'
S'data saved as csv to C:\\Users\\Jbarrett\\Charlie\\charlie\\data\\csv\\4456_switching.csv'
tp1007
a(S'2015-09-04 13:31:07.157000'
g294
tp1008
a(S'2015-09-04 13:31:08.880000'
g296
tp1009
a(S'2015-09-04 13:31:08.891000'
g294
tp1010
a(S'2015-09-04 13:31:08.894000'
S'data saved as csv to C:\\Users\\Jbarrett\\Charlie\\charlie\\data\\csv\\4456_switching.csv'
tp1011
a(S'2015-09-04 13:31:09.645000'
g294
tp1012
a(S'2015-09-04 13:31:12.678000'
g296
tp1013
a(S'2015-09-04 13:31:12.690000'
g294
tp1014
a(S'2015-09-04 13:31:12.693000'
S'data saved as csv to C:\\Users\\Jbarrett\\Charlie\\charlie\\data\\csv\\4456_switching.csv'
tp1015
a(S'2015-09-04 13:31:13.664000'
g294
tp1016
a(S'2015-09-04 13:31:15.399000'
g296
tp1017
a(S'2015-09-04 13:31:15.409000'
g294
tp1018
a(S'2015-09-04 13:31:15.411000'
S'data saved as csv to C:\\Users\\Jbarrett\\Charlie\\charlie\\data\\csv\\4456_switching.csv'
tp1019
a(S'2015-09-04 13:31:16.422000'
g294
tp1020
a(S'2015-09-04 13:31:17.953000'
g296
tp1021
a(S'2015-09-04 13:31:17.958000'
g294
tp1022
a(S'2015-09-04 13:31:17.960000'
S'data saved as csv to C:\\Users\\Jbarrett\\Charlie\\charlie\\data\\csv\\4456_switching.csv'
tp1023
a(S'2015-09-04 13:31:18.920000'
g294
tp1024
a(S'2015-09-04 13:31:21.134000'
g296
tp1025
a(S'2015-09-04 13:31:21.140000'
g294
tp1026
a(S'2015-09-04 13:31:21.142000'
S'data saved as csv to C:\\Users\\Jbarrett\\Charlie\\charlie\\data\\csv\\4456_switching.csv'
tp1027
a(S'2015-09-04 13:31:22.413000'
g294
tp1028
a(S'2015-09-04 13:31:24.063000'
g296
tp1029
a(S'2015-09-04 13:31:24.070000'
g294
tp1030
a(S'2015-09-04 13:31:24.072000'
S'data saved as csv to C:\\Users\\Jbarrett\\Charlie\\charlie\\data\\csv\\4456_switching.csv'
tp1031
a(S'2015-09-04 13:31:25.233000'
g294
tp1032
a(S'2015-09-04 13:31:26.899000'
g296
tp1033
a(S'2015-09-04 13:31:26.909000'
g294
tp1034
a(S'2015-09-04 13:31:26.913000'
S'data saved as csv to C:\\Users\\Jbarrett\\Charlie\\charlie\\data\\csv\\4456_switching.csv'
tp1035
a(S'2015-09-04 13:31:28.224000'
g294
tp1036
a(S'2015-09-04 13:31:30.439000'
g296
tp1037
a(S'2015-09-04 13:31:30.448000'
g294
tp1038
a(S'2015-09-04 13:31:30.451000'
S'data saved as csv to C:\\Users\\Jbarrett\\Charlie\\charlie\\data\\csv\\4456_switching.csv'
tp1039
a(S'2015-09-04 13:31:31.482000'
g294
tp1040
a(S'2015-09-04 13:31:33.279000'
g296
tp1041
a(S'2015-09-04 13:31:33.289000'
g294
tp1042
a(S'2015-09-04 13:31:33.291000'
S'data saved as csv to C:\\Users\\Jbarrett\\Charlie\\charlie\\data\\csv\\4456_switching.csv'
tp1043
a(S'2015-09-04 13:31:34.552000'
g294
tp1044
a(S'2015-09-04 13:31:36.241000'
g296
tp1045
a(S'2015-09-04 13:31:36.246000'
g294
tp1046
a(S'2015-09-04 13:31:36.248000'
S'data saved as csv to C:\\Users\\Jbarrett\\Charlie\\charlie\\data\\csv\\4456_switching.csv'
tp1047
a(S'2015-09-04 13:31:37.299000'
g294
tp1048
a(S'2015-09-04 13:31:38.991000'
g296
tp1049
a(S'2015-09-04 13:31:39.001000'
g294
tp1050
a(S'2015-09-04 13:31:39.005000'
S'data saved as csv to C:\\Users\\Jbarrett\\Charlie\\charlie\\data\\csv\\4456_switching.csv'
tp1051
a(S'2015-09-04 13:31:39.876000'
g294
tp1052
a(S'2015-09-04 13:31:41.700000'
g296
tp1053
a(S'2015-09-04 13:31:41.711000'
g294
tp1054
a(S'2015-09-04 13:31:41.715000'
S'data saved as csv to C:\\Users\\Jbarrett\\Charlie\\charlie\\data\\csv\\4456_switching.csv'
tp1055
a(S'2015-09-04 13:31:42.777000'
g294
tp1056
a(S'2015-09-04 13:31:44.543000'
g296
tp1057
a(S'2015-09-04 13:31:44.549000'
g294
tp1058
a(S'2015-09-04 13:31:44.551000'
S'data saved as csv to C:\\Users\\Jbarrett\\Charlie\\charlie\\data\\csv\\4456_switching.csv'
tp1059
a(S'2015-09-04 13:31:45.482000'
g294
tp1060
a(S'2015-09-04 13:31:47.198000'
g296
tp1061
a(S'2015-09-04 13:31:47.212000'
g294
tp1062
a(S'2015-09-04 13:31:47.216000'
S'data saved as csv to C:\\Users\\Jbarrett\\Charlie\\charlie\\data\\csv\\4456_switching.csv'
tp1063
a(S'2015-09-04 13:31:48.028000'
g294
tp1064
a(S'2015-09-04 13:31:49.750000'
g296
tp1065
a(S'2015-09-04 13:31:49.760000'
g294
tp1066
a(S'2015-09-04 13:31:49.764000'
S'data saved as csv to C:\\Users\\Jbarrett\\Charlie\\charlie\\data\\csv\\4456_switching.csv'
tp1067
a(S'2015-09-04 13:31:50.706000'
g294
tp1068
a(S'2015-09-04 13:31:51.634000'
g296
tp1069
a(S'2015-09-04 13:31:51.640000'
g294
tp1070
a(S'2015-09-04 13:31:51.643000'
S'data saved as csv to C:\\Users\\Jbarrett\\Charlie\\charlie\\data\\csv\\4456_switching.csv'
tp1071
a(S'2015-09-04 13:31:52.443000'
g294
tp1072
a(S'2015-09-04 13:31:54.312000'
g296
tp1073
a(S'2015-09-04 13:31:54.323000'
g294
tp1074
a(S'2015-09-04 13:31:54.327000'
S'data saved as csv to C:\\Users\\Jbarrett\\Charlie\\charlie\\data\\csv\\4456_switching.csv'
tp1075
a(S'2015-09-04 13:31:55.169000'
g294
tp1076
a(S'2015-09-04 13:31:56.924000'
g296
tp1077
a(S'2015-09-04 13:31:56.934000'
g294
tp1078
a(S'2015-09-04 13:31:56.937000'
S'data saved as csv to C:\\Users\\Jbarrett\\Charlie\\charlie\\data\\csv\\4456_switching.csv'
tp1079
a(S'2015-09-04 13:31:57.828000'
g294
tp1080
a(S'2015-09-04 13:32:00.390000'
g296
tp1081
a(S'2015-09-04 13:32:00.395000'
g294
tp1082
a(S'2015-09-04 13:32:00.397000'
S'data saved as csv to C:\\Users\\Jbarrett\\Charlie\\charlie\\data\\csv\\4456_switching.csv'
tp1083
a(S'2015-09-04 13:32:01.198000'
g294
tp1084
a(S'2015-09-04 13:32:02.968000'
g296
tp1085
a(S'2015-09-04 13:32:02.978000'
g294
tp1086
a(S'2015-09-04 13:32:02.982000'
S'data saved as csv to C:\\Users\\Jbarrett\\Charlie\\charlie\\data\\csv\\4456_switching.csv'
tp1087
a(S'2015-09-04 13:32:03.784000'
g294
tp1088
a(S'2015-09-04 13:32:05.567000'
g296
tp1089
a(S'2015-09-04 13:32:05.577000'
g294
tp1090
a(S'2015-09-04 13:32:05.581000'
S'data saved as csv to C:\\Users\\Jbarrett\\Charlie\\charlie\\data\\csv\\4456_switching.csv'
tp1091
a(S'2015-09-04 13:32:06.553000'
g294
tp1092
a(S'2015-09-04 13:32:08.054000'
g296
tp1093
a(S'2015-09-04 13:32:08.061000'
g294
tp1094
a(S'2015-09-04 13:32:08.086000'
S'data saved as csv to C:\\Users\\Jbarrett\\Charlie\\charlie\\data\\csv\\4456_switching.csv'
tp1095
a(S'2015-09-04 13:32:08.948000'
g294
tp1096
a(S'2015-09-04 13:32:10.865000'
g296
tp1097
a(S'2015-09-04 13:32:10.875000'
g294
tp1098
a(S'2015-09-04 13:32:10.878000'
S'data saved as csv to C:\\Users\\Jbarrett\\Charlie\\charlie\\data\\csv\\4456_switching.csv'
tp1099
a(S'2015-09-04 13:32:11.710000'
g294
tp1100
a(S'2015-09-04 13:32:13.639000'
g296
tp1101
a(S'2015-09-04 13:32:13.650000'
g294
tp1102
a(S'2015-09-04 13:32:13.654000'
S'data saved as csv to C:\\Users\\Jbarrett\\Charlie\\charlie\\data\\csv\\4456_switching.csv'
tp1103
a(S'2015-09-04 13:32:14.785000'
g294
tp1104
a(S'2015-09-04 13:32:16.732000'
g296
tp1105
a(S'2015-09-04 13:32:16.743000'
g294
tp1106
a(S'2015-09-04 13:32:16.747000'
S'data saved as csv to C:\\Users\\Jbarrett\\Charlie\\charlie\\data\\csv\\4456_switching.csv'
tp1107
a(S'2015-09-04 13:32:17.731000'
g294
tp1108
a(S'2015-09-04 13:32:18.708000'
g296
tp1109
a(S'2015-09-04 13:32:18.714000'
g294
tp1110
a(S'2015-09-04 13:32:18.715000'
S'data saved as csv to C:\\Users\\Jbarrett\\Charlie\\charlie\\data\\csv\\4456_switching.csv'
tp1111
a(S'2015-09-04 13:32:19.726000'
g294
tp1112
a(S'2015-09-04 13:32:21.229000'
g296
tp1113
a(S'2015-09-04 13:32:21.235000'
g294
tp1114
a(S'2015-09-04 13:32:21.238000'
S'data saved as csv to C:\\Users\\Jbarrett\\Charlie\\charlie\\data\\csv\\4456_switching.csv'
tp1115
a(S'2015-09-04 13:32:22.179000'
g294
tp1116
a(S'2015-09-04 13:32:24.158000'
g296
tp1117
a(S'2015-09-04 13:32:24.169000'
g294
tp1118
a(S'2015-09-04 13:32:24.173000'
S'data saved as csv to C:\\Users\\Jbarrett\\Charlie\\charlie\\data\\csv\\4456_switching.csv'
tp1119
a(S'2015-09-04 13:32:25.055000'
g294
tp1120
a(S'2015-09-04 13:32:26.983000'
g296
tp1121
a(S'2015-09-04 13:32:26.990000'
g294
tp1122
a(S'2015-09-04 13:32:26.992000'
S'data saved as csv to C:\\Users\\Jbarrett\\Charlie\\charlie\\data\\csv\\4456_switching.csv'
tp1123
a(S'2015-09-04 13:32:27.983000'
g294
tp1124
a(S'2015-09-04 13:32:29.991000'
g296
tp1125
a(S'2015-09-04 13:32:30.002000'
g294
tp1126
a(S'2015-09-04 13:32:30.006000'
S'data saved as csv to C:\\Users\\Jbarrett\\Charlie\\charlie\\data\\csv\\4456_switching.csv'
tp1127
a(S'2015-09-04 13:32:30.848000'
g294
tp1128
a(S'2015-09-04 13:32:32.861000'
g296
tp1129
a(S'2015-09-04 13:32:32.872000'
g294
tp1130
a(S'2015-09-04 13:32:32.876000'
S'data saved as csv to C:\\Users\\Jbarrett\\Charlie\\charlie\\data\\csv\\4456_switching.csv'
tp1131
a(S'2015-09-04 13:32:33.758000'
g294
tp1132
a(S'2015-09-04 13:32:35.778000'
g296
tp1133
a(S'2015-09-04 13:32:35.789000'
g294
tp1134
a(S'2015-09-04 13:32:35.794000'
S'data saved as csv to C:\\Users\\Jbarrett\\Charlie\\charlie\\data\\csv\\4456_switching.csv'
tp1135
a(S'2015-09-04 13:32:36.606000'
g294
tp1136
a(S'2015-09-04 13:32:38.493000'
g296
tp1137
a(S'2015-09-04 13:32:38.503000'
g294
tp1138
a(S'2015-09-04 13:32:38.513000'
S'data saved as csv to C:\\Users\\Jbarrett\\Charlie\\charlie\\data\\csv\\4456_switching.csv'
tp1139
a(S'2015-09-04 13:32:38.519000'
g294
tp1140
asb.