(icharlie.tools.data
Data
p1
(dp2
S'lang'
p3
S'EN'
p4
sS'control'
p5
(lp6
sS'last_updated'
p7
S'2015-09-04 09:54:01.593000'
p8
sS'last_opened'
p9
cdatetime
datetime
p10
(S'\x07\xdf\t\x04\t0\x0b\t7`'
tRp11
sS'proj_id'
p12
S'connectivity'
p13
sS'date_done'
p14
g10
(S'\x07\xdf\t\x04\t6\x01\t\x08\x80'
tRp15
sS'test_done'
p16
I01
sS'data'
p17
(lp18
(S'4456'
p19
S'verbal_fluency'
p20
I0
S'True'
p21
tp22
a(g19
g20
I0
g21
tp23
a(g19
g20
I0
g21
tp24
a(g19
g20
I0
g21
tp25
a(g19
g20
I0
g21
tp26
a(g19
g20
I0
g21
tp27
a(g19
g20
I0
g21
tp28
a(g19
g20
I0
g21
tp29
a(g19
g20
I0
g21
tp30
a(g19
g20
I0
g21
tp31
a(g19
g20
I0
g21
tp32
a(g19
g20
I1
g21
tp33
a(g19
g20
I1
g21
tp34
a(g19
g20
I1
g21
tp35
a(g19
g20
I1
g21
tp36
a(g19
g20
I1
S'False'
p37
tp38
a(g19
g20
I1
g21
tp39
a(g19
g20
I2
g21
tp40
a(g19
g20
I2
g21
tp41
a(g19
g20
I2
g21
tp42
a(g19
g20
I2
g21
tp43
a(g19
g20
I2
g21
tp44
a(g19
g20
I2
g21
tp45
a(g19
g20
I2
g21
tp46
a(g19
g20
I2
g21
tp47
a(g19
g20
I2
g21
tp48
a(g19
g20
I2
g21
tp49
a(g19
g20
I2
g21
tp50
a(g19
g20
I2
g21
tp51
a(g19
g20
I2
g21
tp52
a(g19
g20
I2
g21
tp53
a(g19
g20
I3
g21
tp54
a(g19
g20
I3
g21
tp55
a(g19
g20
I3
g21
tp56
a(g19
g20
I3
g21
tp57
a(g19
g20
I3
g21
tp58
a(g19
g20
I3
g21
tp59
a(g19
g20
I3
g21
tp60
a(g19
g20
I3
g21
tp61
a(g19
g20
I3
g21
tp62
a(g19
g20
I3
g21
tp63
a(g19
g20
I3
g21
tp64
a(g19
g20
I3
g21
tp65
a(g19
g20
I3
g21
tp66
a(g19
g20
I3
g37
tp67
a(g19
g20
I3
g21
tp68
a(g19
g20
I3
g21
tp69
a(g19
g20
I3
g21
tp70
a(g19
g20
I3
g21
tp71
a(g19
g20
I3
g21
tp72
a(g19
g20
I3
g21
tp73
asS'output_format'
p74
(lp75
(S'proband_id'
p76
c__builtin__
str
p77
tp78
a(S'test_name'
p79
g77
tp80
a(S'trialn'
p81
c__builtin__
int
p82
tp83
a(S'rsp'
p84
g77
tp85
asg76
g19
sS'filename'
p86
S'4456_verbal_fluency.data'
p87
sS'initialised'
p88
g10
(S'\x07\xdf\t\x04\t0\x0b\t7`'
tRp89
sg79
S'verbal_fluency'
p90
sS'directory'
p91
S'C:\\Users\\Jbarrett\\Charlie\\charlie\\data\\raw'
p92
sS'user_id'
p93
S'barrett'
p94
sS'test_started'
p95
I01
sS'abs_filename'
p96
S'C:\\Users\\Jbarrett\\Charlie\\charlie\\data\\raw\\4456_verbal_fluency.data'
p97
sS'date_started'
p98
g10
(S'\x07\xdf\t\x04\t2\x1f\x03\xc4\xd8'
tRp99
sS'log'
p100
(lp101
(S'2015-09-04 09:48:11.604000'
S'instance created'
p102
tp103
a(S'2015-09-04 09:50:31.257000'
S'instance updated'
p104
tp105
a(S'2015-09-04 09:50:31.309000'
S'pandas DataFrame of data created'
p106
tp107
a(S'2015-09-04 09:50:31.313000'
g104
tp108
a(S'2015-09-04 09:50:31.315000'
S'data saved as csv to C:\\Users\\Jbarrett\\Charlie\\charlie\\data\\csv\\4456_verbal_fluency.csv'
tp109
a(S'2015-09-04 09:50:34.369000'
g104
tp110
a(S'2015-09-04 09:50:34.421000'
g106
tp111
a(S'2015-09-04 09:50:34.429000'
g104
tp112
a(S'2015-09-04 09:50:34.432000'
S'data saved as csv to C:\\Users\\Jbarrett\\Charlie\\charlie\\data\\csv\\4456_verbal_fluency.csv'
tp113
a(S'2015-09-04 09:51:38.458000'
g104
tp114
a(S'2015-09-04 09:51:38.526000'
g106
tp115
a(S'2015-09-04 09:51:38.531000'
g104
tp116
a(S'2015-09-04 09:51:38.532000'
S'data saved as csv to C:\\Users\\Jbarrett\\Charlie\\charlie\\data\\csv\\4456_verbal_fluency.csv'
tp117
a(S'2015-09-04 09:51:42.794000'
g104
tp118
a(S'2015-09-04 09:51:42.856000'
g106
tp119
a(S'2015-09-04 09:51:42.862000'
g104
tp120
a(S'2015-09-04 09:51:42.864000'
S'data saved as csv to C:\\Users\\Jbarrett\\Charlie\\charlie\\data\\csv\\4456_verbal_fluency.csv'
tp121
a(S'2015-09-04 09:52:47.782000'
g104
tp122
a(S'2015-09-04 09:52:47.860000'
g106
tp123
a(S'2015-09-04 09:52:47.863000'
g104
tp124
a(S'2015-09-04 09:52:47.864000'
S'data saved as csv to C:\\Users\\Jbarrett\\Charlie\\charlie\\data\\csv\\4456_verbal_fluency.csv'
tp125
a(S'2015-09-04 09:52:57.750000'
g104
tp126
a(S'2015-09-04 09:52:57.842000'
g106
tp127
a(S'2015-09-04 09:52:57.845000'
g104
tp128
a(S'2015-09-04 09:52:57.846000'
S'data saved as csv to C:\\Users\\Jbarrett\\Charlie\\charlie\\data\\csv\\4456_verbal_fluency.csv'
tp129
a(S'2015-09-04 09:54:01.471000'
g104
tp130
a(S'2015-09-04 09:54:01.589000'
g106
tp131
a(S'2015-09-04 09:54:01.592000'
g104
tp132
a(S'2015-09-04 09:54:01.593000'
S'data saved as csv to C:\\Users\\Jbarrett\\Charlie\\charlie\\data\\csv\\4456_verbal_fluency.csv'
tp133
asb.