(icharlie.tools.data
Data
p1
(dp2
S'lang'
p3
S'EN'
p4
sS'control'
p5
(lp6
sS'last_updated'
p7
S'2015-09-04 13:42:23.085000'
p8
sS'last_opened'
p9
cdatetime
datetime
p10
(S'\x07\xdf\t\x04\r$2\x06\xf1X'
tRp11
sS'proj_id'
p12
S'connectivity'
p13
sS'date_done'
p14
g10
(S'\x07\xdf\t\x04\r*\x17\x01L\x08'
tRp15
sS'test_done'
p16
I01
sS'data'
p17
(lp18
(S'4456'
p19
S'pcet'
p20
S'practice'
p21
I0
NI2
I2
I2
I2
S'C:\\Users\\Jbarrett\\Charlie\\charlie\\stimuli\\visual\\pcet\\000.png'
S'C:\\Users\\Jbarrett\\Charlie\\charlie\\stimuli\\visual\\pcet\\000.png'
S'C:\\Users\\Jbarrett\\Charlie\\charlie\\stimuli\\visual\\pcet\\111.png'
S'C:\\Users\\Jbarrett\\Charlie\\charlie\\stimuli\\visual\\pcet\\000.png'
I2
I2050
tp22
a(g19
g20
S'test'
p23
I0
S'thickness'
p24
I3
NNI1
S'C:\\Users\\Jbarrett\\Charlie\\charlie\\stimuli\\visual\\pcet\\010.png'
S'C:\\Users\\Jbarrett\\Charlie\\charlie\\stimuli\\visual\\pcet\\000.png'
S'C:\\Users\\Jbarrett\\Charlie\\charlie\\stimuli\\visual\\pcet\\001.png'
S'C:\\Users\\Jbarrett\\Charlie\\charlie\\stimuli\\visual\\pcet\\100.png'
I0
I2200
tp25
a(g19
g20
g23
I1
g24
I2
NNI0
S'C:\\Users\\Jbarrett\\Charlie\\charlie\\stimuli\\visual\\pcet\\110.png'
S'C:\\Users\\Jbarrett\\Charlie\\charlie\\stimuli\\visual\\pcet\\111.png'
S'C:\\Users\\Jbarrett\\Charlie\\charlie\\stimuli\\visual\\pcet\\010.png'
S'C:\\Users\\Jbarrett\\Charlie\\charlie\\stimuli\\visual\\pcet\\100.png'
I3
I1900
tp26
a(g19
g20
g23
I2
g24
I0
NNI3
S'C:\\Users\\Jbarrett\\Charlie\\charlie\\stimuli\\visual\\pcet\\010.png'
S'C:\\Users\\Jbarrett\\Charlie\\charlie\\stimuli\\visual\\pcet\\111.png'
S'C:\\Users\\Jbarrett\\Charlie\\charlie\\stimuli\\visual\\pcet\\100.png'
S'C:\\Users\\Jbarrett\\Charlie\\charlie\\stimuli\\visual\\pcet\\110.png'
I1
I1440
tp27
a(g19
g20
g23
I3
g24
I3
NNI1
S'C:\\Users\\Jbarrett\\Charlie\\charlie\\stimuli\\visual\\pcet\\000.png'
S'C:\\Users\\Jbarrett\\Charlie\\charlie\\stimuli\\visual\\pcet\\010.png'
S'C:\\Users\\Jbarrett\\Charlie\\charlie\\stimuli\\visual\\pcet\\011.png'
S'C:\\Users\\Jbarrett\\Charlie\\charlie\\stimuli\\visual\\pcet\\110.png'
I3
I3461
tp28
a(g19
g20
g23
I4
g24
I0
NNI3
S'C:\\Users\\Jbarrett\\Charlie\\charlie\\stimuli\\visual\\pcet\\011.png'
S'C:\\Users\\Jbarrett\\Charlie\\charlie\\stimuli\\visual\\pcet\\110.png'
S'C:\\Users\\Jbarrett\\Charlie\\charlie\\stimuli\\visual\\pcet\\101.png'
S'C:\\Users\\Jbarrett\\Charlie\\charlie\\stimuli\\visual\\pcet\\111.png'
I0
I1950
tp29
a(g19
g20
g23
I5
g24
I3
NNI1
S'C:\\Users\\Jbarrett\\Charlie\\charlie\\stimuli\\visual\\pcet\\100.png'
S'C:\\Users\\Jbarrett\\Charlie\\charlie\\stimuli\\visual\\pcet\\101.png'
S'C:\\Users\\Jbarrett\\Charlie\\charlie\\stimuli\\visual\\pcet\\111.png'
S'C:\\Users\\Jbarrett\\Charlie\\charlie\\stimuli\\visual\\pcet\\001.png'
I3
I1760
tp30
a(g19
g20
g23
I6
g24
I1
NNI3
S'C:\\Users\\Jbarrett\\Charlie\\charlie\\stimuli\\visual\\pcet\\010.png'
S'C:\\Users\\Jbarrett\\Charlie\\charlie\\stimuli\\visual\\pcet\\100.png'
S'C:\\Users\\Jbarrett\\Charlie\\charlie\\stimuli\\visual\\pcet\\001.png'
S'C:\\Users\\Jbarrett\\Charlie\\charlie\\stimuli\\visual\\pcet\\000.png'
I1
I1620
tp31
a(g19
g20
g23
I7
g24
I0
NNI1
S'C:\\Users\\Jbarrett\\Charlie\\charlie\\stimuli\\visual\\pcet\\101.png'
S'C:\\Users\\Jbarrett\\Charlie\\charlie\\stimuli\\visual\\pcet\\001.png'
S'C:\\Users\\Jbarrett\\Charlie\\charlie\\stimuli\\visual\\pcet\\000.png'
S'C:\\Users\\Jbarrett\\Charlie\\charlie\\stimuli\\visual\\pcet\\011.png'
I0
I1210
tp32
a(g19
g20
g23
I8
g24
I0
NNI1
S'C:\\Users\\Jbarrett\\Charlie\\charlie\\stimuli\\visual\\pcet\\010.png'
S'C:\\Users\\Jbarrett\\Charlie\\charlie\\stimuli\\visual\\pcet\\110.png'
S'C:\\Users\\Jbarrett\\Charlie\\charlie\\stimuli\\visual\\pcet\\111.png'
S'C:\\Users\\Jbarrett\\Charlie\\charlie\\stimuli\\visual\\pcet\\100.png'
I0
I1510
tp33
a(g19
g20
g23
I9
g24
I1
NNI3
S'C:\\Users\\Jbarrett\\Charlie\\charlie\\stimuli\\visual\\pcet\\100.png'
S'C:\\Users\\Jbarrett\\Charlie\\charlie\\stimuli\\visual\\pcet\\010.png'
S'C:\\Users\\Jbarrett\\Charlie\\charlie\\stimuli\\visual\\pcet\\111.png'
S'C:\\Users\\Jbarrett\\Charlie\\charlie\\stimuli\\visual\\pcet\\110.png'
I1
I1261
tp34
a(g19
g20
g23
I10
g24
I2
NNI0
S'C:\\Users\\Jbarrett\\Charlie\\charlie\\stimuli\\visual\\pcet\\111.png'
S'C:\\Users\\Jbarrett\\Charlie\\charlie\\stimuli\\visual\\pcet\\101.png'
S'C:\\Users\\Jbarrett\\Charlie\\charlie\\stimuli\\visual\\pcet\\011.png'
S'C:\\Users\\Jbarrett\\Charlie\\charlie\\stimuli\\visual\\pcet\\110.png'
I2
I1640
tp35
a(g19
g20
g23
I11
g24
I0
NNI1
S'C:\\Users\\Jbarrett\\Charlie\\charlie\\stimuli\\visual\\pcet\\011.png'
S'C:\\Users\\Jbarrett\\Charlie\\charlie\\stimuli\\visual\\pcet\\111.png'
S'C:\\Users\\Jbarrett\\Charlie\\charlie\\stimuli\\visual\\pcet\\101.png'
S'C:\\Users\\Jbarrett\\Charlie\\charlie\\stimuli\\visual\\pcet\\110.png'
I0
I1430
tp36
a(g19
g20
g23
I12
S'shape'
p37
I0
I3
I2
I1
S'C:\\Users\\Jbarrett\\Charlie\\charlie\\stimuli\\visual\\pcet\\110.png'
S'C:\\Users\\Jbarrett\\Charlie\\charlie\\stimuli\\visual\\pcet\\100.png'
S'C:\\Users\\Jbarrett\\Charlie\\charlie\\stimuli\\visual\\pcet\\101.png'
S'C:\\Users\\Jbarrett\\Charlie\\charlie\\stimuli\\visual\\pcet\\000.png'
I3
I1660
tp38
a(g19
g20
g23
I13
S'shape'
p39
I3
I2
I1
I0
S'C:\\Users\\Jbarrett\\Charlie\\charlie\\stimuli\\visual\\pcet\\101.png'
S'C:\\Users\\Jbarrett\\Charlie\\charlie\\stimuli\\visual\\pcet\\100.png'
S'C:\\Users\\Jbarrett\\Charlie\\charlie\\stimuli\\visual\\pcet\\001.png'
S'C:\\Users\\Jbarrett\\Charlie\\charlie\\stimuli\\visual\\pcet\\111.png'
I2
I1100
tp40
a(g19
g20
g23
I14
S'shape'
p41
I3
I1
I0
I2
S'C:\\Users\\Jbarrett\\Charlie\\charlie\\stimuli\\visual\\pcet\\101.png'
S'C:\\Users\\Jbarrett\\Charlie\\charlie\\stimuli\\visual\\pcet\\000.png'
S'C:\\Users\\Jbarrett\\Charlie\\charlie\\stimuli\\visual\\pcet\\100.png'
S'C:\\Users\\Jbarrett\\Charlie\\charlie\\stimuli\\visual\\pcet\\110.png'
I1
I2890
tp42
a(g19
g20
g23
I15
S'shape'
p43
I1
I3
I0
I2
S'C:\\Users\\Jbarrett\\Charlie\\charlie\\stimuli\\visual\\pcet\\101.png'
S'C:\\Users\\Jbarrett\\Charlie\\charlie\\stimuli\\visual\\pcet\\110.png'
S'C:\\Users\\Jbarrett\\Charlie\\charlie\\stimuli\\visual\\pcet\\100.png'
S'C:\\Users\\Jbarrett\\Charlie\\charlie\\stimuli\\visual\\pcet\\000.png'
I1
I1580
tp44
a(g19
g20
g23
I16
S'shape'
p45
I1
I0
I3
I2
S'C:\\Users\\Jbarrett\\Charlie\\charlie\\stimuli\\visual\\pcet\\111.png'
S'C:\\Users\\Jbarrett\\Charlie\\charlie\\stimuli\\visual\\pcet\\001.png'
S'C:\\Users\\Jbarrett\\Charlie\\charlie\\stimuli\\visual\\pcet\\011.png'
S'C:\\Users\\Jbarrett\\Charlie\\charlie\\stimuli\\visual\\pcet\\010.png'
I1
I2070
tp46
a(g19
g20
g23
I17
S'shape'
p47
I2
I1
I3
I0
S'C:\\Users\\Jbarrett\\Charlie\\charlie\\stimuli\\visual\\pcet\\111.png'
S'C:\\Users\\Jbarrett\\Charlie\\charlie\\stimuli\\visual\\pcet\\011.png'
S'C:\\Users\\Jbarrett\\Charlie\\charlie\\stimuli\\visual\\pcet\\101.png'
S'C:\\Users\\Jbarrett\\Charlie\\charlie\\stimuli\\visual\\pcet\\110.png'
I2
I410
tp48
a(g19
g20
g23
I18
S'shape'
p49
I3
I2
I1
I0
S'C:\\Users\\Jbarrett\\Charlie\\charlie\\stimuli\\visual\\pcet\\010.png'
S'C:\\Users\\Jbarrett\\Charlie\\charlie\\stimuli\\visual\\pcet\\011.png'
S'C:\\Users\\Jbarrett\\Charlie\\charlie\\stimuli\\visual\\pcet\\110.png'
S'C:\\Users\\Jbarrett\\Charlie\\charlie\\stimuli\\visual\\pcet\\000.png'
I2
I2840
tp50
a(g19
g20
g23
I19
S'shape'
p51
I1
I0
I2
I3
S'C:\\Users\\Jbarrett\\Charlie\\charlie\\stimuli\\visual\\pcet\\000.png'
S'C:\\Users\\Jbarrett\\Charlie\\charlie\\stimuli\\visual\\pcet\\110.png'
S'C:\\Users\\Jbarrett\\Charlie\\charlie\\stimuli\\visual\\pcet\\101.png'
S'C:\\Users\\Jbarrett\\Charlie\\charlie\\stimuli\\visual\\pcet\\100.png'
I1
I1540
tp52
a(g19
g20
g23
I20
S'shape'
p53
I3
I2
I1
I0
S'C:\\Users\\Jbarrett\\Charlie\\charlie\\stimuli\\visual\\pcet\\101.png'
S'C:\\Users\\Jbarrett\\Charlie\\charlie\\stimuli\\visual\\pcet\\100.png'
S'C:\\Users\\Jbarrett\\Charlie\\charlie\\stimuli\\visual\\pcet\\001.png'
S'C:\\Users\\Jbarrett\\Charlie\\charlie\\stimuli\\visual\\pcet\\111.png'
I2
I2650
tp54
a(g19
g20
g23
I21
S'shape'
p55
I1
I0
I3
I2
S'C:\\Users\\Jbarrett\\Charlie\\charlie\\stimuli\\visual\\pcet\\010.png'
S'C:\\Users\\Jbarrett\\Charlie\\charlie\\stimuli\\visual\\pcet\\100.png'
S'C:\\Users\\Jbarrett\\Charlie\\charlie\\stimuli\\visual\\pcet\\110.png'
S'C:\\Users\\Jbarrett\\Charlie\\charlie\\stimuli\\visual\\pcet\\111.png'
I1
I3070
tp56
a(g19
g20
g23
I22
S'shape'
p57
I2
I1
I0
I3
S'C:\\Users\\Jbarrett\\Charlie\\charlie\\stimuli\\visual\\pcet\\000.png'
S'C:\\Users\\Jbarrett\\Charlie\\charlie\\stimuli\\visual\\pcet\\101.png'
S'C:\\Users\\Jbarrett\\Charlie\\charlie\\stimuli\\visual\\pcet\\011.png'
S'C:\\Users\\Jbarrett\\Charlie\\charlie\\stimuli\\visual\\pcet\\001.png'
I2
I890
tp58
a(g19
g20
g23
I23
S'shape'
p59
I1
I0
I2
I3
S'C:\\Users\\Jbarrett\\Charlie\\charlie\\stimuli\\visual\\pcet\\100.png'
S'C:\\Users\\Jbarrett\\Charlie\\charlie\\stimuli\\visual\\pcet\\010.png'
S'C:\\Users\\Jbarrett\\Charlie\\charlie\\stimuli\\visual\\pcet\\001.png'
S'C:\\Users\\Jbarrett\\Charlie\\charlie\\stimuli\\visual\\pcet\\000.png'
I1
I1900
tp60
a(g19
g20
g23
I24
S'size'
p61
I0
I2
I3
I1
S'C:\\Users\\Jbarrett\\Charlie\\charlie\\stimuli\\visual\\pcet\\101.png'
S'C:\\Users\\Jbarrett\\Charlie\\charlie\\stimuli\\visual\\pcet\\100.png'
S'C:\\Users\\Jbarrett\\Charlie\\charlie\\stimuli\\visual\\pcet\\110.png'
S'C:\\Users\\Jbarrett\\Charlie\\charlie\\stimuli\\visual\\pcet\\000.png'
I3
I1391
tp62
a(g19
g20
g23
I25
S'size'
p63
I3
I2
I0
I1
S'C:\\Users\\Jbarrett\\Charlie\\charlie\\stimuli\\visual\\pcet\\001.png'
S'C:\\Users\\Jbarrett\\Charlie\\charlie\\stimuli\\visual\\pcet\\101.png'
S'C:\\Users\\Jbarrett\\Charlie\\charlie\\stimuli\\visual\\pcet\\111.png'
S'C:\\Users\\Jbarrett\\Charlie\\charlie\\stimuli\\visual\\pcet\\100.png'
I0
I2320
tp64
a(g19
g20
g23
I26
S'size'
p65
I0
I3
I2
I1
S'C:\\Users\\Jbarrett\\Charlie\\charlie\\stimuli\\visual\\pcet\\000.png'
S'C:\\Users\\Jbarrett\\Charlie\\charlie\\stimuli\\visual\\pcet\\001.png'
S'C:\\Users\\Jbarrett\\Charlie\\charlie\\stimuli\\visual\\pcet\\101.png'
S'C:\\Users\\Jbarrett\\Charlie\\charlie\\stimuli\\visual\\pcet\\011.png'
I2
I2680
tp66
a(g19
g20
g23
I27
S'size'
p67
I1
I2
I3
I0
S'C:\\Users\\Jbarrett\\Charlie\\charlie\\stimuli\\visual\\pcet\\101.png'
S'C:\\Users\\Jbarrett\\Charlie\\charlie\\stimuli\\visual\\pcet\\100.png'
S'C:\\Users\\Jbarrett\\Charlie\\charlie\\stimuli\\visual\\pcet\\111.png'
S'C:\\Users\\Jbarrett\\Charlie\\charlie\\stimuli\\visual\\pcet\\001.png'
I3
I3360
tp68
a(g19
g20
g23
I28
S'size'
p69
I2
I3
I1
I0
S'C:\\Users\\Jbarrett\\Charlie\\charlie\\stimuli\\visual\\pcet\\110.png'
S'C:\\Users\\Jbarrett\\Charlie\\charlie\\stimuli\\visual\\pcet\\010.png'
S'C:\\Users\\Jbarrett\\Charlie\\charlie\\stimuli\\visual\\pcet\\111.png'
S'C:\\Users\\Jbarrett\\Charlie\\charlie\\stimuli\\visual\\pcet\\100.png'
I1
I3921
tp70
a(g19
g20
g23
I29
S'size'
p71
I1
I0
I2
I3
S'C:\\Users\\Jbarrett\\Charlie\\charlie\\stimuli\\visual\\pcet\\111.png'
S'C:\\Users\\Jbarrett\\Charlie\\charlie\\stimuli\\visual\\pcet\\100.png'
S'C:\\Users\\Jbarrett\\Charlie\\charlie\\stimuli\\visual\\pcet\\001.png'
S'C:\\Users\\Jbarrett\\Charlie\\charlie\\stimuli\\visual\\pcet\\101.png'
I1
I7690
tp72
a(g19
g20
g23
I30
S'size'
p73
I0
I1
I2
I3
S'C:\\Users\\Jbarrett\\Charlie\\charlie\\stimuli\\visual\\pcet\\011.png'
S'C:\\Users\\Jbarrett\\Charlie\\charlie\\stimuli\\visual\\pcet\\000.png'
S'C:\\Users\\Jbarrett\\Charlie\\charlie\\stimuli\\visual\\pcet\\110.png'
S'C:\\Users\\Jbarrett\\Charlie\\charlie\\stimuli\\visual\\pcet\\010.png'
I1
I2420
tp74
a(g19
g20
g23
I31
S'size'
p75
I3
I1
I0
I2
S'C:\\Users\\Jbarrett\\Charlie\\charlie\\stimuli\\visual\\pcet\\110.png'
S'C:\\Users\\Jbarrett\\Charlie\\charlie\\stimuli\\visual\\pcet\\000.png'
S'C:\\Users\\Jbarrett\\Charlie\\charlie\\stimuli\\visual\\pcet\\010.png'
S'C:\\Users\\Jbarrett\\Charlie\\charlie\\stimuli\\visual\\pcet\\011.png'
I2
I2480
tp76
a(g19
g20
g23
I32
S'size'
p77
I0
I2
I1
I3
S'C:\\Users\\Jbarrett\\Charlie\\charlie\\stimuli\\visual\\pcet\\000.png'
S'C:\\Users\\Jbarrett\\Charlie\\charlie\\stimuli\\visual\\pcet\\101.png'
S'C:\\Users\\Jbarrett\\Charlie\\charlie\\stimuli\\visual\\pcet\\011.png'
S'C:\\Users\\Jbarrett\\Charlie\\charlie\\stimuli\\visual\\pcet\\001.png'
I0
I440
tp78
a(g19
g20
g23
I33
S'size'
p79
I3
I1
I2
I0
S'C:\\Users\\Jbarrett\\Charlie\\charlie\\stimuli\\visual\\pcet\\011.png'
S'C:\\Users\\Jbarrett\\Charlie\\charlie\\stimuli\\visual\\pcet\\001.png'
S'C:\\Users\\Jbarrett\\Charlie\\charlie\\stimuli\\visual\\pcet\\111.png'
S'C:\\Users\\Jbarrett\\Charlie\\charlie\\stimuli\\visual\\pcet\\010.png'
I3
I2200
tp80
a(g19
g20
g23
I34
S'size'
p81
I2
I3
I1
I0
S'C:\\Users\\Jbarrett\\Charlie\\charlie\\stimuli\\visual\\pcet\\011.png'
S'C:\\Users\\Jbarrett\\Charlie\\charlie\\stimuli\\visual\\pcet\\111.png'
S'C:\\Users\\Jbarrett\\Charlie\\charlie\\stimuli\\visual\\pcet\\010.png'
S'C:\\Users\\Jbarrett\\Charlie\\charlie\\stimuli\\visual\\pcet\\001.png'
I2
I1901
tp82
a(g19
g20
g23
I35
S'size'
p83
I2
I0
I1
I3
S'C:\\Users\\Jbarrett\\Charlie\\charlie\\stimuli\\visual\\pcet\\010.png'
S'C:\\Users\\Jbarrett\\Charlie\\charlie\\stimuli\\visual\\pcet\\100.png'
S'C:\\Users\\Jbarrett\\Charlie\\charlie\\stimuli\\visual\\pcet\\001.png'
S'C:\\Users\\Jbarrett\\Charlie\\charlie\\stimuli\\visual\\pcet\\000.png'
I0
I2010
tp84
a(g19
g20
g23
I36
g24
I2
I3
I1
I0
S'C:\\Users\\Jbarrett\\Charlie\\charlie\\stimuli\\visual\\pcet\\010.png'
S'C:\\Users\\Jbarrett\\Charlie\\charlie\\stimuli\\visual\\pcet\\000.png'
S'C:\\Users\\Jbarrett\\Charlie\\charlie\\stimuli\\visual\\pcet\\110.png'
S'C:\\Users\\Jbarrett\\Charlie\\charlie\\stimuli\\visual\\pcet\\011.png'
I0
I1590
tp85
a(g19
g20
g23
I37
g24
I3
I2
I1
I0
S'C:\\Users\\Jbarrett\\Charlie\\charlie\\stimuli\\visual\\pcet\\101.png'
S'C:\\Users\\Jbarrett\\Charlie\\charlie\\stimuli\\visual\\pcet\\111.png'
S'C:\\Users\\Jbarrett\\Charlie\\charlie\\stimuli\\visual\\pcet\\100.png'
S'C:\\Users\\Jbarrett\\Charlie\\charlie\\stimuli\\visual\\pcet\\001.png'
I3
I1840
tp86
a(g19
g20
g23
I38
g24
I0
I3
I1
I2
S'C:\\Users\\Jbarrett\\Charlie\\charlie\\stimuli\\visual\\pcet\\100.png'
S'C:\\Users\\Jbarrett\\Charlie\\charlie\\stimuli\\visual\\pcet\\010.png'
S'C:\\Users\\Jbarrett\\Charlie\\charlie\\stimuli\\visual\\pcet\\000.png'
S'C:\\Users\\Jbarrett\\Charlie\\charlie\\stimuli\\visual\\pcet\\001.png'
I1
I1350
tp87
a(g19
g20
g23
I39
g24
I0
I3
I2
I1
S'C:\\Users\\Jbarrett\\Charlie\\charlie\\stimuli\\visual\\pcet\\010.png'
S'C:\\Users\\Jbarrett\\Charlie\\charlie\\stimuli\\visual\\pcet\\110.png'
S'C:\\Users\\Jbarrett\\Charlie\\charlie\\stimuli\\visual\\pcet\\100.png'
S'C:\\Users\\Jbarrett\\Charlie\\charlie\\stimuli\\visual\\pcet\\111.png'
I0
I2591
tp88
a(g19
g20
g23
I40
g24
I0
I1
I2
I3
S'C:\\Users\\Jbarrett\\Charlie\\charlie\\stimuli\\visual\\pcet\\001.png'
S'C:\\Users\\Jbarrett\\Charlie\\charlie\\stimuli\\visual\\pcet\\100.png'
S'C:\\Users\\Jbarrett\\Charlie\\charlie\\stimuli\\visual\\pcet\\111.png'
S'C:\\Users\\Jbarrett\\Charlie\\charlie\\stimuli\\visual\\pcet\\101.png'
I1
I2750
tp89
a(g19
g20
g23
I41
g24
I3
I0
I2
I1
S'C:\\Users\\Jbarrett\\Charlie\\charlie\\stimuli\\visual\\pcet\\111.png'
S'C:\\Users\\Jbarrett\\Charlie\\charlie\\stimuli\\visual\\pcet\\110.png'
S'C:\\Users\\Jbarrett\\Charlie\\charlie\\stimuli\\visual\\pcet\\100.png'
S'C:\\Users\\Jbarrett\\Charlie\\charlie\\stimuli\\visual\\pcet\\010.png'
I3
I4390
tp90
a(g19
g20
g23
I42
g24
I0
I3
I1
I2
S'C:\\Users\\Jbarrett\\Charlie\\charlie\\stimuli\\visual\\pcet\\110.png'
S'C:\\Users\\Jbarrett\\Charlie\\charlie\\stimuli\\visual\\pcet\\000.png'
S'C:\\Users\\Jbarrett\\Charlie\\charlie\\stimuli\\visual\\pcet\\010.png'
S'C:\\Users\\Jbarrett\\Charlie\\charlie\\stimuli\\visual\\pcet\\011.png'
I0
I2851
tp91
a(g19
g20
g23
I43
g24
I0
I3
I2
I1
S'C:\\Users\\Jbarrett\\Charlie\\charlie\\stimuli\\visual\\pcet\\000.png'
S'C:\\Users\\Jbarrett\\Charlie\\charlie\\stimuli\\visual\\pcet\\100.png'
S'C:\\Users\\Jbarrett\\Charlie\\charlie\\stimuli\\visual\\pcet\\110.png'
S'C:\\Users\\Jbarrett\\Charlie\\charlie\\stimuli\\visual\\pcet\\101.png'
I0
I1290
tp92
a(g19
g20
g23
I44
g24
I2
I1
I3
I0
S'C:\\Users\\Jbarrett\\Charlie\\charlie\\stimuli\\visual\\pcet\\010.png'
S'C:\\Users\\Jbarrett\\Charlie\\charlie\\stimuli\\visual\\pcet\\011.png'
S'C:\\Users\\Jbarrett\\Charlie\\charlie\\stimuli\\visual\\pcet\\110.png'
S'C:\\Users\\Jbarrett\\Charlie\\charlie\\stimuli\\visual\\pcet\\000.png'
I2
I1740
tp93
a(g19
g20
g23
I45
g24
I3
I0
I2
I1
S'C:\\Users\\Jbarrett\\Charlie\\charlie\\stimuli\\visual\\pcet\\011.png'
S'C:\\Users\\Jbarrett\\Charlie\\charlie\\stimuli\\visual\\pcet\\010.png'
S'C:\\Users\\Jbarrett\\Charlie\\charlie\\stimuli\\visual\\pcet\\000.png'
S'C:\\Users\\Jbarrett\\Charlie\\charlie\\stimuli\\visual\\pcet\\110.png'
I3
I1230
tp94
a(g19
g20
g23
I46
g24
I1
I3
I2
I0
S'C:\\Users\\Jbarrett\\Charlie\\charlie\\stimuli\\visual\\pcet\\101.png'
S'C:\\Users\\Jbarrett\\Charlie\\charlie\\stimuli\\visual\\pcet\\001.png'
S'C:\\Users\\Jbarrett\\Charlie\\charlie\\stimuli\\visual\\pcet\\111.png'
S'C:\\Users\\Jbarrett\\Charlie\\charlie\\stimuli\\visual\\pcet\\100.png'
I1
I2020
tp95
a(g19
g20
g23
I47
g24
I1
I3
I2
I0
S'C:\\Users\\Jbarrett\\Charlie\\charlie\\stimuli\\visual\\pcet\\010.png'
S'C:\\Users\\Jbarrett\\Charlie\\charlie\\stimuli\\visual\\pcet\\110.png'
S'C:\\Users\\Jbarrett\\Charlie\\charlie\\stimuli\\visual\\pcet\\000.png'
S'C:\\Users\\Jbarrett\\Charlie\\charlie\\stimuli\\visual\\pcet\\011.png'
I1
I1540
tp96
a(g19
g20
g23
I48
S'shape'
p97
I3
I2
I1
I0
S'C:\\Users\\Jbarrett\\Charlie\\charlie\\stimuli\\visual\\pcet\\110.png'
S'C:\\Users\\Jbarrett\\Charlie\\charlie\\stimuli\\visual\\pcet\\111.png'
S'C:\\Users\\Jbarrett\\Charlie\\charlie\\stimuli\\visual\\pcet\\010.png'
S'C:\\Users\\Jbarrett\\Charlie\\charlie\\stimuli\\visual\\pcet\\100.png'
I2
I1390
tp98
a(g19
g20
g23
I49
S'shape'
p99
I1
I0
I3
I2
S'C:\\Users\\Jbarrett\\Charlie\\charlie\\stimuli\\visual\\pcet\\101.png'
S'C:\\Users\\Jbarrett\\Charlie\\charlie\\stimuli\\visual\\pcet\\011.png'
S'C:\\Users\\Jbarrett\\Charlie\\charlie\\stimuli\\visual\\pcet\\001.png'
S'C:\\Users\\Jbarrett\\Charlie\\charlie\\stimuli\\visual\\pcet\\000.png'
I0
I2670
tp100
a(g19
g20
g23
I50
S'shape'
p101
I2
I0
I3
I1
S'C:\\Users\\Jbarrett\\Charlie\\charlie\\stimuli\\visual\\pcet\\101.png'
S'C:\\Users\\Jbarrett\\Charlie\\charlie\\stimuli\\visual\\pcet\\001.png'
S'C:\\Users\\Jbarrett\\Charlie\\charlie\\stimuli\\visual\\pcet\\011.png'
S'C:\\Users\\Jbarrett\\Charlie\\charlie\\stimuli\\visual\\pcet\\000.png'
I2
I2590
tp102
a(g19
g20
g23
I51
S'shape'
p103
I1
I3
I0
I2
S'C:\\Users\\Jbarrett\\Charlie\\charlie\\stimuli\\visual\\pcet\\111.png'
S'C:\\Users\\Jbarrett\\Charlie\\charlie\\stimuli\\visual\\pcet\\100.png'
S'C:\\Users\\Jbarrett\\Charlie\\charlie\\stimuli\\visual\\pcet\\110.png'
S'C:\\Users\\Jbarrett\\Charlie\\charlie\\stimuli\\visual\\pcet\\010.png'
I3
I2570
tp104
a(g19
g20
g23
I52
S'shape'
p105
I1
I3
I2
I0
S'C:\\Users\\Jbarrett\\Charlie\\charlie\\stimuli\\visual\\pcet\\100.png'
S'C:\\Users\\Jbarrett\\Charlie\\charlie\\stimuli\\visual\\pcet\\110.png'
S'C:\\Users\\Jbarrett\\Charlie\\charlie\\stimuli\\visual\\pcet\\101.png'
S'C:\\Users\\Jbarrett\\Charlie\\charlie\\stimuli\\visual\\pcet\\000.png'
I2
I5050
tp106
a(g19
g20
g23
I53
S'shape'
p107
I1
I2
I0
I3
S'C:\\Users\\Jbarrett\\Charlie\\charlie\\stimuli\\visual\\pcet\\001.png'
S'C:\\Users\\Jbarrett\\Charlie\\charlie\\stimuli\\visual\\pcet\\010.png'
S'C:\\Users\\Jbarrett\\Charlie\\charlie\\stimuli\\visual\\pcet\\100.png'
S'C:\\Users\\Jbarrett\\Charlie\\charlie\\stimuli\\visual\\pcet\\000.png'
I2
I1500
tp108
a(g19
g20
g23
I54
S'shape'
p109
I3
I0
I1
I2
S'C:\\Users\\Jbarrett\\Charlie\\charlie\\stimuli\\visual\\pcet\\010.png'
S'C:\\Users\\Jbarrett\\Charlie\\charlie\\stimuli\\visual\\pcet\\111.png'
S'C:\\Users\\Jbarrett\\Charlie\\charlie\\stimuli\\visual\\pcet\\110.png'
S'C:\\Users\\Jbarrett\\Charlie\\charlie\\stimuli\\visual\\pcet\\100.png'
I0
I6781
tp110
a(g19
g20
g23
I55
S'shape'
p111
I3
I0
I2
I1
S'C:\\Users\\Jbarrett\\Charlie\\charlie\\stimuli\\visual\\pcet\\001.png'
S'C:\\Users\\Jbarrett\\Charlie\\charlie\\stimuli\\visual\\pcet\\101.png'
S'C:\\Users\\Jbarrett\\Charlie\\charlie\\stimuli\\visual\\pcet\\100.png'
S'C:\\Users\\Jbarrett\\Charlie\\charlie\\stimuli\\visual\\pcet\\111.png'
I0
I4230
tp112
a(g19
g20
g23
I56
S'shape'
p113
I2
I1
I3
I0
S'C:\\Users\\Jbarrett\\Charlie\\charlie\\stimuli\\visual\\pcet\\001.png'
S'C:\\Users\\Jbarrett\\Charlie\\charlie\\stimuli\\visual\\pcet\\101.png'
S'C:\\Users\\Jbarrett\\Charlie\\charlie\\stimuli\\visual\\pcet\\011.png'
S'C:\\Users\\Jbarrett\\Charlie\\charlie\\stimuli\\visual\\pcet\\000.png'
I1
I1680
tp114
a(g19
g20
g23
I57
S'shape'
p115
I0
I2
I1
I3
S'C:\\Users\\Jbarrett\\Charlie\\charlie\\stimuli\\visual\\pcet\\100.png'
S'C:\\Users\\Jbarrett\\Charlie\\charlie\\stimuli\\visual\\pcet\\111.png'
S'C:\\Users\\Jbarrett\\Charlie\\charlie\\stimuli\\visual\\pcet\\010.png'
S'C:\\Users\\Jbarrett\\Charlie\\charlie\\stimuli\\visual\\pcet\\110.png'
I0
I4032
tp116
a(g19
g20
g23
I58
S'shape'
p117
I2
I3
I1
I0
S'C:\\Users\\Jbarrett\\Charlie\\charlie\\stimuli\\visual\\pcet\\001.png'
S'C:\\Users\\Jbarrett\\Charlie\\charlie\\stimuli\\visual\\pcet\\000.png'
S'C:\\Users\\Jbarrett\\Charlie\\charlie\\stimuli\\visual\\pcet\\011.png'
S'C:\\Users\\Jbarrett\\Charlie\\charlie\\stimuli\\visual\\pcet\\101.png'
I2
I1290
tp118
a(g19
g20
g23
I59
S'shape'
p119
I0
I1
I2
I3
S'C:\\Users\\Jbarrett\\Charlie\\charlie\\stimuli\\visual\\pcet\\111.png'
S'C:\\Users\\Jbarrett\\Charlie\\charlie\\stimuli\\visual\\pcet\\001.png'
S'C:\\Users\\Jbarrett\\Charlie\\charlie\\stimuli\\visual\\pcet\\100.png'
S'C:\\Users\\Jbarrett\\Charlie\\charlie\\stimuli\\visual\\pcet\\101.png'
I0
I1080
tp120
a(g19
g20
g23
I60
S'size'
p121
I0
I2
I1
I3
S'C:\\Users\\Jbarrett\\Charlie\\charlie\\stimuli\\visual\\pcet\\101.png'
S'C:\\Users\\Jbarrett\\Charlie\\charlie\\stimuli\\visual\\pcet\\000.png'
S'C:\\Users\\Jbarrett\\Charlie\\charlie\\stimuli\\visual\\pcet\\110.png'
S'C:\\Users\\Jbarrett\\Charlie\\charlie\\stimuli\\visual\\pcet\\100.png'
I2
I2020
tp122
a(g19
g20
g23
I61
S'size'
p123
I2
I3
I0
I1
S'C:\\Users\\Jbarrett\\Charlie\\charlie\\stimuli\\visual\\pcet\\100.png'
S'C:\\Users\\Jbarrett\\Charlie\\charlie\\stimuli\\visual\\pcet\\000.png'
S'C:\\Users\\Jbarrett\\Charlie\\charlie\\stimuli\\visual\\pcet\\001.png'
S'C:\\Users\\Jbarrett\\Charlie\\charlie\\stimuli\\visual\\pcet\\010.png'
I0
I2141
tp124
a(g19
g20
g23
I62
S'size'
p125
I2
I0
I1
I3
S'C:\\Users\\Jbarrett\\Charlie\\charlie\\stimuli\\visual\\pcet\\111.png'
S'C:\\Users\\Jbarrett\\Charlie\\charlie\\stimuli\\visual\\pcet\\001.png'
S'C:\\Users\\Jbarrett\\Charlie\\charlie\\stimuli\\visual\\pcet\\100.png'
S'C:\\Users\\Jbarrett\\Charlie\\charlie\\stimuli\\visual\\pcet\\101.png'
I1
I3060
tp126
a(g19
g20
g23
I63
S'size'
p127
I1
I0
I3
I2
S'C:\\Users\\Jbarrett\\Charlie\\charlie\\stimuli\\visual\\pcet\\010.png'
S'C:\\Users\\Jbarrett\\Charlie\\charlie\\stimuli\\visual\\pcet\\001.png'
S'C:\\Users\\Jbarrett\\Charlie\\charlie\\stimuli\\visual\\pcet\\000.png'
S'C:\\Users\\Jbarrett\\Charlie\\charlie\\stimuli\\visual\\pcet\\100.png'
I3
I1790
tp128
a(g19
g20
g23
I64
S'size'
p129
I0
I2
I3
I1
S'C:\\Users\\Jbarrett\\Charlie\\charlie\\stimuli\\visual\\pcet\\110.png'
S'C:\\Users\\Jbarrett\\Charlie\\charlie\\stimuli\\visual\\pcet\\111.png'
S'C:\\Users\\Jbarrett\\Charlie\\charlie\\stimuli\\visual\\pcet\\101.png'
S'C:\\Users\\Jbarrett\\Charlie\\charlie\\stimuli\\visual\\pcet\\011.png'
I0
I1970
tp130
a(g19
g20
g23
I65
S'size'
p131
I3
I1
I0
I2
S'C:\\Users\\Jbarrett\\Charlie\\charlie\\stimuli\\visual\\pcet\\100.png'
S'C:\\Users\\Jbarrett\\Charlie\\charlie\\stimuli\\visual\\pcet\\010.png'
S'C:\\Users\\Jbarrett\\Charlie\\charlie\\stimuli\\visual\\pcet\\000.png'
S'C:\\Users\\Jbarrett\\Charlie\\charlie\\stimuli\\visual\\pcet\\001.png'
I1
I2790
tp132
a(g19
g20
g23
I66
S'size'
p133
I3
I1
I2
I0
S'C:\\Users\\Jbarrett\\Charlie\\charlie\\stimuli\\visual\\pcet\\011.png'
S'C:\\Users\\Jbarrett\\Charlie\\charlie\\stimuli\\visual\\pcet\\001.png'
S'C:\\Users\\Jbarrett\\Charlie\\charlie\\stimuli\\visual\\pcet\\111.png'
S'C:\\Users\\Jbarrett\\Charlie\\charlie\\stimuli\\visual\\pcet\\010.png'
I3
I1690
tp134
a(g19
g20
g23
I67
S'size'
p135
I1
I2
I3
I0
S'C:\\Users\\Jbarrett\\Charlie\\charlie\\stimuli\\visual\\pcet\\011.png'
S'C:\\Users\\Jbarrett\\Charlie\\charlie\\stimuli\\visual\\pcet\\010.png'
S'C:\\Users\\Jbarrett\\Charlie\\charlie\\stimuli\\visual\\pcet\\001.png'
S'C:\\Users\\Jbarrett\\Charlie\\charlie\\stimuli\\visual\\pcet\\111.png'
I1
I1250
tp136
a(g19
g20
g23
I68
S'size'
p137
I0
I2
I3
I1
S'C:\\Users\\Jbarrett\\Charlie\\charlie\\stimuli\\visual\\pcet\\100.png'
S'C:\\Users\\Jbarrett\\Charlie\\charlie\\stimuli\\visual\\pcet\\101.png'
S'C:\\Users\\Jbarrett\\Charlie\\charlie\\stimuli\\visual\\pcet\\111.png'
S'C:\\Users\\Jbarrett\\Charlie\\charlie\\stimuli\\visual\\pcet\\001.png'
I0
I1410
tp138
a(g19
g20
g23
I69
S'size'
p139
I0
I1
I2
I3
S'C:\\Users\\Jbarrett\\Charlie\\charlie\\stimuli\\visual\\pcet\\100.png'
S'C:\\Users\\Jbarrett\\Charlie\\charlie\\stimuli\\visual\\pcet\\111.png'
S'C:\\Users\\Jbarrett\\Charlie\\charlie\\stimuli\\visual\\pcet\\001.png'
S'C:\\Users\\Jbarrett\\Charlie\\charlie\\stimuli\\visual\\pcet\\101.png'
I0
I1420
tp140
a(g19
g20
g23
I70
S'size'
p141
I1
I0
I3
I2
S'C:\\Users\\Jbarrett\\Charlie\\charlie\\stimuli\\visual\\pcet\\111.png'
S'C:\\Users\\Jbarrett\\Charlie\\charlie\\stimuli\\visual\\pcet\\100.png'
S'C:\\Users\\Jbarrett\\Charlie\\charlie\\stimuli\\visual\\pcet\\101.png'
S'C:\\Users\\Jbarrett\\Charlie\\charlie\\stimuli\\visual\\pcet\\001.png'
I1
I1930
tp142
a(g19
g20
g23
I71
S'size'
p143
I1
I2
I3
I0
S'C:\\Users\\Jbarrett\\Charlie\\charlie\\stimuli\\visual\\pcet\\010.png'
p144
S'C:\\Users\\Jbarrett\\Charlie\\charlie\\stimuli\\visual\\pcet\\011.png'
p145
S'C:\\Users\\Jbarrett\\Charlie\\charlie\\stimuli\\visual\\pcet\\000.png'
p146
S'C:\\Users\\Jbarrett\\Charlie\\charlie\\stimuli\\visual\\pcet\\110.png'
p147
I0
I1380
tp148
asS'output_format'
p149
(lp150
(S'proband_id'
p151
c__builtin__
str
p152
tp153
a(S'test_name'
p154
g152
tp155
a(S'phase'
p156
g152
tp157
a(S'trialn'
p158
c__builtin__
int
p159
tp160
a(S'rule'
p161
g152
tp162
a(S'ans'
p163
g152
tp164
a(S'pers'
p165
g152
tp166
a(S'other'
p167
g152
tp168
a(S'lapse'
p169
g152
tp170
a(S'f1'
p171
g152
tp172
a(S'f2'
p173
g152
tp174
a(S'f3'
p175
g152
tp176
a(S'f4'
p177
g152
tp178
a(S'rsp'
p179
g152
tp180
a(S'rt'
p181
g159
tp182
asg151
g19
sS'filename'
p183
S'4456_pcet.data'
p184
sS'initialised'
p185
g10
(S'\x07\xdf\t\x04\r$2\x06\xf1X'
tRp186
sg154
S'pcet'
p187
sS'directory'
p188
S'C:\\Users\\Jbarrett\\Charlie\\charlie\\data\\raw'
p189
sS'user_id'
p190
S'barrett'
p191
sS'test_started'
p192
I01
sS'abs_filename'
p193
S'C:\\Users\\Jbarrett\\Charlie\\charlie\\data\\raw\\4456_pcet.data'
p194
sS'date_started'
p195
g10
(S'\x07\xdf\t\x04\r%\x03\x0b>\xe8'
tRp196
sS'log'
p197
(lp198
(S'2015-09-04 13:36:50.455000'
S'instance created'
p199
tp200
a(S'2015-09-04 13:37:03.751000'
S'instance updated'
p201
tp202
a(S'2015-09-04 13:37:03.792000'
S'pandas DataFrame of data created'
p203
tp204
a(S'2015-09-04 13:37:03.803000'
g201
tp205
a(S'2015-09-04 13:37:03.808000'
S'data saved as csv to C:\\Users\\Jbarrett\\Charlie\\charlie\\data\\csv\\4456_pcet.csv'
tp206
a(S'2015-09-04 13:37:21.257000'
g201
tp207
a(S'2015-09-04 13:37:21.315000'
g203
tp208
a(S'2015-09-04 13:37:21.321000'
g201
tp209
a(S'2015-09-04 13:37:21.324000'
S'data saved as csv to C:\\Users\\Jbarrett\\Charlie\\charlie\\data\\csv\\4456_pcet.csv'
tp210
a(S'2015-09-04 13:37:24.301000'
g201
tp211
a(S'2015-09-04 13:37:24.397000'
g203
tp212
a(S'2015-09-04 13:37:24.408000'
g201
tp213
a(S'2015-09-04 13:37:24.411000'
S'data saved as csv to C:\\Users\\Jbarrett\\Charlie\\charlie\\data\\csv\\4456_pcet.csv'
tp214
a(S'2015-09-04 13:37:26.930000'
g201
tp215
a(S'2015-09-04 13:37:27.054000'
g203
tp216
a(S'2015-09-04 13:37:27.065000'
g201
tp217
a(S'2015-09-04 13:37:27.069000'
S'data saved as csv to C:\\Users\\Jbarrett\\Charlie\\charlie\\data\\csv\\4456_pcet.csv'
tp218
a(S'2015-09-04 13:37:31.615000'
g201
tp219
a(S'2015-09-04 13:37:31.768000'
g203
tp220
a(S'2015-09-04 13:37:31.780000'
g201
tp221
a(S'2015-09-04 13:37:31.783000'
S'data saved as csv to C:\\Users\\Jbarrett\\Charlie\\charlie\\data\\csv\\4456_pcet.csv'
tp222
a(S'2015-09-04 13:37:34.826000'
g201
tp223
a(S'2015-09-04 13:37:35.006000'
g203
tp224
a(S'2015-09-04 13:37:35.017000'
g201
tp225
a(S'2015-09-04 13:37:35.020000'
S'data saved as csv to C:\\Users\\Jbarrett\\Charlie\\charlie\\data\\csv\\4456_pcet.csv'
tp226
a(S'2015-09-04 13:37:37.870000'
g201
tp227
a(S'2015-09-04 13:37:38.014000'
g203
tp228
a(S'2015-09-04 13:37:38.022000'
g201
tp229
a(S'2015-09-04 13:37:38.024000'
S'data saved as csv to C:\\Users\\Jbarrett\\Charlie\\charlie\\data\\csv\\4456_pcet.csv'
tp230
a(S'2015-09-04 13:37:40.716000'
g201
tp231
a(S'2015-09-04 13:37:40.860000'
g203
tp232
a(S'2015-09-04 13:37:40.866000'
g201
tp233
a(S'2015-09-04 13:37:40.868000'
S'data saved as csv to C:\\Users\\Jbarrett\\Charlie\\charlie\\data\\csv\\4456_pcet.csv'
tp234
a(S'2015-09-04 13:37:43.157000'
g201
tp235
a(S'2015-09-04 13:37:43.423000'
g203
tp236
a(S'2015-09-04 13:37:43.434000'
g201
tp237
a(S'2015-09-04 13:37:43.437000'
S'data saved as csv to C:\\Users\\Jbarrett\\Charlie\\charlie\\data\\csv\\4456_pcet.csv'
tp238
a(S'2015-09-04 13:37:46.024000'
g201
tp239
a(S'2015-09-04 13:37:46.317000'
g203
tp240
a(S'2015-09-04 13:37:46.328000'
g201
tp241
a(S'2015-09-04 13:37:46.332000'
S'data saved as csv to C:\\Users\\Jbarrett\\Charlie\\charlie\\data\\csv\\4456_pcet.csv'
tp242
a(S'2015-09-04 13:37:48.674000'
g201
tp243
a(S'2015-09-04 13:37:48.995000'
g203
tp244
a(S'2015-09-04 13:37:49.007000'
g201
tp245
a(S'2015-09-04 13:37:49.010000'
S'data saved as csv to C:\\Users\\Jbarrett\\Charlie\\charlie\\data\\csv\\4456_pcet.csv'
tp246
a(S'2015-09-04 13:37:51.736000'
g201
tp247
a(S'2015-09-04 13:37:52.085000'
g203
tp248
a(S'2015-09-04 13:37:52.096000'
g201
tp249
a(S'2015-09-04 13:37:52.102000'
S'data saved as csv to C:\\Users\\Jbarrett\\Charlie\\charlie\\data\\csv\\4456_pcet.csv'
tp250
a(S'2015-09-04 13:37:54.621000'
g201
tp251
a(S'2015-09-04 13:37:54.999000'
g203
tp252
a(S'2015-09-04 13:37:55.010000'
g201
tp253
a(S'2015-09-04 13:37:55.014000'
S'data saved as csv to C:\\Users\\Jbarrett\\Charlie\\charlie\\data\\csv\\4456_pcet.csv'
tp254
a(S'2015-09-04 13:37:57.750000'
g201
tp255
a(S'2015-09-04 13:37:58.153000'
g203
tp256
a(S'2015-09-04 13:37:58.164000'
g201
tp257
a(S'2015-09-04 13:37:58.168000'
S'data saved as csv to C:\\Users\\Jbarrett\\Charlie\\charlie\\data\\csv\\4456_pcet.csv'
tp258
a(S'2015-09-04 13:38:00.348000'
g201
tp259
a(S'2015-09-04 13:38:00.779000'
g203
tp260
a(S'2015-09-04 13:38:00.791000'
g201
tp261
a(S'2015-09-04 13:38:00.794000'
S'data saved as csv to C:\\Users\\Jbarrett\\Charlie\\charlie\\data\\csv\\4456_pcet.csv'
tp262
a(S'2015-09-04 13:38:04.763000'
g201
tp263
a(S'2015-09-04 13:38:05.222000'
g203
tp264
a(S'2015-09-04 13:38:05.234000'
g201
tp265
a(S'2015-09-04 13:38:05.238000'
S'data saved as csv to C:\\Users\\Jbarrett\\Charlie\\charlie\\data\\csv\\4456_pcet.csv'
tp266
a(S'2015-09-04 13:38:07.895000'
g201
tp267
a(S'2015-09-04 13:38:08.380000'
g203
tp268
a(S'2015-09-04 13:38:08.391000'
g201
tp269
a(S'2015-09-04 13:38:08.395000'
S'data saved as csv to C:\\Users\\Jbarrett\\Charlie\\charlie\\data\\csv\\4456_pcet.csv'
tp270
a(S'2015-09-04 13:38:11.547000'
g201
tp271
a(S'2015-09-04 13:38:12.058000'
g203
tp272
a(S'2015-09-04 13:38:12.070000'
g201
tp273
a(S'2015-09-04 13:38:12.074000'
S'data saved as csv to C:\\Users\\Jbarrett\\Charlie\\charlie\\data\\csv\\4456_pcet.csv'
tp274
a(S'2015-09-04 13:38:15.103000'
g201
tp275
a(S'2015-09-04 13:38:15.467000'
g203
tp276
a(S'2015-09-04 13:38:15.475000'
g201
tp277
a(S'2015-09-04 13:38:15.478000'
S'data saved as csv to C:\\Users\\Jbarrett\\Charlie\\charlie\\data\\csv\\4456_pcet.csv'
tp278
a(S'2015-09-04 13:38:19.389000'
g201
tp279
a(S'2015-09-04 13:38:19.771000'
g203
tp280
a(S'2015-09-04 13:38:19.779000'
g201
tp281
a(S'2015-09-04 13:38:19.782000'
S'data saved as csv to C:\\Users\\Jbarrett\\Charlie\\charlie\\data\\csv\\4456_pcet.csv'
tp282
a(S'2015-09-04 13:38:22.403000'
g201
tp283
a(S'2015-09-04 13:38:23'
g203
tp284
a(S'2015-09-04 13:38:23.012000'
g201
tp285
a(S'2015-09-04 13:38:23.016000'
S'data saved as csv to C:\\Users\\Jbarrett\\Charlie\\charlie\\data\\csv\\4456_pcet.csv'
tp286
a(S'2015-09-04 13:38:26.761000'
g201
tp287
a(S'2015-09-04 13:38:27.386000'
g203
tp288
a(S'2015-09-04 13:38:27.397000'
g201
tp289
a(S'2015-09-04 13:38:27.401000'
S'data saved as csv to C:\\Users\\Jbarrett\\Charlie\\charlie\\data\\csv\\4456_pcet.csv'
tp290
a(S'2015-09-04 13:38:31.557000'
g201
tp291
a(S'2015-09-04 13:38:31.942000'
g203
tp292
a(S'2015-09-04 13:38:31.949000'
g201
tp293
a(S'2015-09-04 13:38:31.951000'
S'data saved as csv to C:\\Users\\Jbarrett\\Charlie\\charlie\\data\\csv\\4456_pcet.csv'
tp294
a(S'2015-09-04 13:38:33.920000'
g201
tp295
a(S'2015-09-04 13:38:34.600000'
g203
tp296
a(S'2015-09-04 13:38:34.612000'
g201
tp297
a(S'2015-09-04 13:38:34.616000'
S'data saved as csv to C:\\Users\\Jbarrett\\Charlie\\charlie\\data\\csv\\4456_pcet.csv'
tp298
a(S'2015-09-04 13:38:37.593000'
g201
tp299
a(S'2015-09-04 13:38:38.298000'
g203
tp300
a(S'2015-09-04 13:38:38.310000'
g201
tp301
a(S'2015-09-04 13:38:38.312000'
S'data saved as csv to C:\\Users\\Jbarrett\\Charlie\\charlie\\data\\csv\\4456_pcet.csv'
tp302
a(S'2015-09-04 13:38:40.774000'
g201
tp303
a(S'2015-09-04 13:38:41.202000'
g203
tp304
a(S'2015-09-04 13:38:41.209000'
g201
tp305
a(S'2015-09-04 13:38:41.211000'
S'data saved as csv to C:\\Users\\Jbarrett\\Charlie\\charlie\\data\\csv\\4456_pcet.csv'
tp306
a(S'2015-09-04 13:38:44.611000'
g201
tp307
a(S'2015-09-04 13:38:45.056000'
g203
tp308
a(S'2015-09-04 13:38:45.063000'
g201
tp309
a(S'2015-09-04 13:38:45.066000'
S'data saved as csv to C:\\Users\\Jbarrett\\Charlie\\charlie\\data\\csv\\4456_pcet.csv'
tp310
a(S'2015-09-04 13:38:48.824000'
g201
tp311
a(S'2015-09-04 13:38:49.608000'
g203
tp312
a(S'2015-09-04 13:38:49.620000'
g201
tp313
a(S'2015-09-04 13:38:49.622000'
S'data saved as csv to C:\\Users\\Jbarrett\\Charlie\\charlie\\data\\csv\\4456_pcet.csv'
tp314
a(S'2015-09-04 13:38:54.069000'
g201
tp315
a(S'2015-09-04 13:38:54.879000'
g203
tp316
a(S'2015-09-04 13:38:54.891000'
g201
tp317
a(S'2015-09-04 13:38:54.896000'
S'data saved as csv to C:\\Users\\Jbarrett\\Charlie\\charlie\\data\\csv\\4456_pcet.csv'
tp318
a(S'2015-09-04 13:38:59.895000'
g201
tp319
a(S'2015-09-04 13:39:00.456000'
g203
tp320
a(S'2015-09-04 13:39:00.464000'
g201
tp321
a(S'2015-09-04 13:39:00.467000'
S'data saved as csv to C:\\Users\\Jbarrett\\Charlie\\charlie\\data\\csv\\4456_pcet.csv'
tp322
a(S'2015-09-04 13:39:09.243000'
g201
tp323
a(S'2015-09-04 13:39:10.105000'
g203
tp324
a(S'2015-09-04 13:39:10.114000'
g201
tp325
a(S'2015-09-04 13:39:10.117000'
S'data saved as csv to C:\\Users\\Jbarrett\\Charlie\\charlie\\data\\csv\\4456_pcet.csv'
tp326
a(S'2015-09-04 13:39:13.612000'
g201
tp327
a(S'2015-09-04 13:39:14.503000'
g203
tp328
a(S'2015-09-04 13:39:14.515000'
g201
tp329
a(S'2015-09-04 13:39:14.520000'
S'data saved as csv to C:\\Users\\Jbarrett\\Charlie\\charlie\\data\\csv\\4456_pcet.csv'
tp330
a(S'2015-09-04 13:39:18.068000'
g201
tp331
a(S'2015-09-04 13:39:18.352000'
g203
tp332
a(S'2015-09-04 13:39:18.355000'
g201
tp333
a(S'2015-09-04 13:39:18.356000'
S'data saved as csv to C:\\Users\\Jbarrett\\Charlie\\charlie\\data\\csv\\4456_pcet.csv'
tp334
a(S'2015-09-04 13:39:25.428000'
g201
tp335
a(S'2015-09-04 13:39:26.373000'
g203
tp336
a(S'2015-09-04 13:39:26.385000'
g201
tp337
a(S'2015-09-04 13:39:26.390000'
S'data saved as csv to C:\\Users\\Jbarrett\\Charlie\\charlie\\data\\csv\\4456_pcet.csv'
tp338
a(S'2015-09-04 13:39:29.678000'
g201
tp339
a(S'2015-09-04 13:39:30.653000'
g203
tp340
a(S'2015-09-04 13:39:30.664000'
g201
tp341
a(S'2015-09-04 13:39:30.666000'
S'data saved as csv to C:\\Users\\Jbarrett\\Charlie\\charlie\\data\\csv\\4456_pcet.csv'
tp342
a(S'2015-09-04 13:39:33.647000'
g201
tp343
a(S'2015-09-04 13:39:34.648000'
g203
tp344
a(S'2015-09-04 13:39:34.660000'
g201
tp345
a(S'2015-09-04 13:39:34.665000'
S'data saved as csv to C:\\Users\\Jbarrett\\Charlie\\charlie\\data\\csv\\4456_pcet.csv'
tp346
a(S'2015-09-04 13:39:37.756000'
g201
tp347
a(S'2015-09-04 13:39:38.786000'
g203
tp348
a(S'2015-09-04 13:39:38.796000'
g201
tp349
a(S'2015-09-04 13:39:38.798000'
S'data saved as csv to C:\\Users\\Jbarrett\\Charlie\\charlie\\data\\csv\\4456_pcet.csv'
tp350
a(S'2015-09-04 13:39:41.448000'
g201
tp351
a(S'2015-09-04 13:39:41.844000'
g203
tp352
a(S'2015-09-04 13:39:41.848000'
g201
tp353
a(S'2015-09-04 13:39:41.850000'
S'data saved as csv to C:\\Users\\Jbarrett\\Charlie\\charlie\\data\\csv\\4456_pcet.csv'
tp354
a(S'2015-09-04 13:39:44.768000'
g201
tp355
a(S'2015-09-04 13:39:45.848000'
g203
tp356
a(S'2015-09-04 13:39:45.860000'
g201
tp357
a(S'2015-09-04 13:39:45.865000'
S'data saved as csv to C:\\Users\\Jbarrett\\Charlie\\charlie\\data\\csv\\4456_pcet.csv'
tp358
a(S'2015-09-04 13:39:48.287000'
g201
tp359
a(S'2015-09-04 13:39:48.927000'
g203
tp360
a(S'2015-09-04 13:39:48.934000'
g201
tp361
a(S'2015-09-04 13:39:48.936000'
S'data saved as csv to C:\\Users\\Jbarrett\\Charlie\\charlie\\data\\csv\\4456_pcet.csv'
tp362
a(S'2015-09-04 13:39:52.611000'
g201
tp363
a(S'2015-09-04 13:39:53.747000'
g203
tp364
a(S'2015-09-04 13:39:53.759000'
g201
tp365
a(S'2015-09-04 13:39:53.763000'
S'data saved as csv to C:\\Users\\Jbarrett\\Charlie\\charlie\\data\\csv\\4456_pcet.csv'
tp366
a(S'2015-09-04 13:39:57.598000'
g201
tp367
a(S'2015-09-04 13:39:58.760000'
g203
tp368
a(S'2015-09-04 13:39:58.773000'
g201
tp369
a(S'2015-09-04 13:39:58.775000'
S'data saved as csv to C:\\Users\\Jbarrett\\Charlie\\charlie\\data\\csv\\4456_pcet.csv'
tp370
a(S'2015-09-04 13:40:04.241000'
g201
tp371
a(S'2015-09-04 13:40:05.441000'
g203
tp372
a(S'2015-09-04 13:40:05.454000'
g201
tp373
a(S'2015-09-04 13:40:05.458000'
S'data saved as csv to C:\\Users\\Jbarrett\\Charlie\\charlie\\data\\csv\\4456_pcet.csv'
tp374
a(S'2015-09-04 13:40:09.385000'
g201
tp375
a(S'2015-09-04 13:40:10.606000'
g203
tp376
a(S'2015-09-04 13:40:10.619000'
g201
tp377
a(S'2015-09-04 13:40:10.623000'
S'data saved as csv to C:\\Users\\Jbarrett\\Charlie\\charlie\\data\\csv\\4456_pcet.csv'
tp378
a(S'2015-09-04 13:40:12.987000'
g201
tp379
a(S'2015-09-04 13:40:14.236000'
g203
tp380
a(S'2015-09-04 13:40:14.248000'
g201
tp381
a(S'2015-09-04 13:40:14.253000'
S'data saved as csv to C:\\Users\\Jbarrett\\Charlie\\charlie\\data\\csv\\4456_pcet.csv'
tp382
a(S'2015-09-04 13:40:17.066000'
g201
tp383
a(S'2015-09-04 13:40:18.207000'
g203
tp384
a(S'2015-09-04 13:40:18.212000'
g201
tp385
a(S'2015-09-04 13:40:18.214000'
S'data saved as csv to C:\\Users\\Jbarrett\\Charlie\\charlie\\data\\csv\\4456_pcet.csv'
tp386
a(S'2015-09-04 13:40:20.512000'
g201
tp387
a(S'2015-09-04 13:40:21.157000'
g203
tp388
a(S'2015-09-04 13:40:21.162000'
g201
tp389
a(S'2015-09-04 13:40:21.164000'
S'data saved as csv to C:\\Users\\Jbarrett\\Charlie\\charlie\\data\\csv\\4456_pcet.csv'
tp390
a(S'2015-09-04 13:40:24.265000'
g201
tp391
a(S'2015-09-04 13:40:25.595000'
g203
tp392
a(S'2015-09-04 13:40:25.608000'
g201
tp393
a(S'2015-09-04 13:40:25.613000'
S'data saved as csv to C:\\Users\\Jbarrett\\Charlie\\charlie\\data\\csv\\4456_pcet.csv'
tp394
a(S'2015-09-04 13:40:28.237000'
g201
tp395
a(S'2015-09-04 13:40:29.602000'
g203
tp396
a(S'2015-09-04 13:40:29.614000'
g201
tp397
a(S'2015-09-04 13:40:29.616000'
S'data saved as csv to C:\\Users\\Jbarrett\\Charlie\\charlie\\data\\csv\\4456_pcet.csv'
tp398
a(S'2015-09-04 13:40:32.084000'
g201
tp399
a(S'2015-09-04 13:40:32.677000'
g203
tp400
a(S'2015-09-04 13:40:32.681000'
g201
tp401
a(S'2015-09-04 13:40:32.683000'
S'data saved as csv to C:\\Users\\Jbarrett\\Charlie\\charlie\\data\\csv\\4456_pcet.csv'
tp402
a(S'2015-09-04 13:40:36.428000'
g201
tp403
a(S'2015-09-04 13:40:37.851000'
g203
tp404
a(S'2015-09-04 13:40:37.863000'
g201
tp405
a(S'2015-09-04 13:40:37.866000'
S'data saved as csv to C:\\Users\\Jbarrett\\Charlie\\charlie\\data\\csv\\4456_pcet.csv'
tp406
a(S'2015-09-04 13:40:41.534000'
g201
tp407
a(S'2015-09-04 13:40:42.374000'
g203
tp408
a(S'2015-09-04 13:40:42.382000'
g201
tp409
a(S'2015-09-04 13:40:42.384000'
S'data saved as csv to C:\\Users\\Jbarrett\\Charlie\\charlie\\data\\csv\\4456_pcet.csv'
tp410
a(S'2015-09-04 13:40:46.031000'
g201
tp411
a(S'2015-09-04 13:40:46.885000'
g203
tp412
a(S'2015-09-04 13:40:46.893000'
g201
tp413
a(S'2015-09-04 13:40:46.896000'
S'data saved as csv to C:\\Users\\Jbarrett\\Charlie\\charlie\\data\\csv\\4456_pcet.csv'
tp414
a(S'2015-09-04 13:40:53.026000'
g201
tp415
a(S'2015-09-04 13:40:53.903000'
g203
tp416
a(S'2015-09-04 13:40:53.910000'
g201
tp417
a(S'2015-09-04 13:40:53.914000'
S'data saved as csv to C:\\Users\\Jbarrett\\Charlie\\charlie\\data\\csv\\4456_pcet.csv'
tp418
a(S'2015-09-04 13:40:56.486000'
g201
tp419
a(S'2015-09-04 13:40:57.428000'
g203
tp420
a(S'2015-09-04 13:40:57.435000'
g201
tp421
a(S'2015-09-04 13:40:57.438000'
S'data saved as csv to C:\\Users\\Jbarrett\\Charlie\\charlie\\data\\csv\\4456_pcet.csv'
tp422
a(S'2015-09-04 13:41:05.297000'
g201
tp423
a(S'2015-09-04 13:41:06.199000'
g203
tp424
a(S'2015-09-04 13:41:06.207000'
g201
tp425
a(S'2015-09-04 13:41:06.209000'
S'data saved as csv to C:\\Users\\Jbarrett\\Charlie\\charlie\\data\\csv\\4456_pcet.csv'
tp426
a(S'2015-09-04 13:41:11.520000'
g201
tp427
a(S'2015-09-04 13:41:13.106000'
g203
tp428
a(S'2015-09-04 13:41:13.117000'
g201
tp429
a(S'2015-09-04 13:41:13.120000'
S'data saved as csv to C:\\Users\\Jbarrett\\Charlie\\charlie\\data\\csv\\4456_pcet.csv'
tp430
a(S'2015-09-04 13:41:15.880000'
g201
tp431
a(S'2015-09-04 13:41:16.809000'
g203
tp432
a(S'2015-09-04 13:41:16.816000'
g201
tp433
a(S'2015-09-04 13:41:16.819000'
S'data saved as csv to C:\\Users\\Jbarrett\\Charlie\\charlie\\data\\csv\\4456_pcet.csv'
tp434
a(S'2015-09-04 13:41:21.921000'
g201
tp435
a(S'2015-09-04 13:41:22.855000'
g203
tp436
a(S'2015-09-04 13:41:22.862000'
g201
tp437
a(S'2015-09-04 13:41:22.866000'
S'data saved as csv to C:\\Users\\Jbarrett\\Charlie\\charlie\\data\\csv\\4456_pcet.csv'
tp438
a(S'2015-09-04 13:41:25.240000'
g201
tp439
a(S'2015-09-04 13:41:26.331000'
g203
tp440
a(S'2015-09-04 13:41:26.339000'
g201
tp441
a(S'2015-09-04 13:41:26.342000'
S'data saved as csv to C:\\Users\\Jbarrett\\Charlie\\charlie\\data\\csv\\4456_pcet.csv'
tp442
a(S'2015-09-04 13:41:28.501000'
g201
tp443
a(S'2015-09-04 13:41:29.398000'
g203
tp444
a(S'2015-09-04 13:41:29.403000'
g201
tp445
a(S'2015-09-04 13:41:29.406000'
S'data saved as csv to C:\\Users\\Jbarrett\\Charlie\\charlie\\data\\csv\\4456_pcet.csv'
tp446
a(S'2015-09-04 13:41:32.497000'
g201
tp447
a(S'2015-09-04 13:41:34.213000'
g203
tp448
a(S'2015-09-04 13:41:34.226000'
g201
tp449
a(S'2015-09-04 13:41:34.231000'
S'data saved as csv to C:\\Users\\Jbarrett\\Charlie\\charlie\\data\\csv\\4456_pcet.csv'
tp450
a(S'2015-09-04 13:41:37.445000'
g201
tp451
a(S'2015-09-04 13:41:39.186000'
g203
tp452
a(S'2015-09-04 13:41:39.194000'
g201
tp453
a(S'2015-09-04 13:41:39.197000'
S'data saved as csv to C:\\Users\\Jbarrett\\Charlie\\charlie\\data\\csv\\4456_pcet.csv'
tp454
a(S'2015-09-04 13:41:43.340000'
g201
tp455
a(S'2015-09-04 13:41:44.523000'
g203
tp456
a(S'2015-09-04 13:41:44.531000'
g201
tp457
a(S'2015-09-04 13:41:44.535000'
S'data saved as csv to C:\\Users\\Jbarrett\\Charlie\\charlie\\data\\csv\\4456_pcet.csv'
tp458
a(S'2015-09-04 13:41:47.396000'
g201
tp459
a(S'2015-09-04 13:41:49.200000'
g203
tp460
a(S'2015-09-04 13:41:49.211000'
g201
tp461
a(S'2015-09-04 13:41:49.214000'
S'data saved as csv to C:\\Users\\Jbarrett\\Charlie\\charlie\\data\\csv\\4456_pcet.csv'
tp462
a(S'2015-09-04 13:41:52.276000'
g201
tp463
a(S'2015-09-04 13:41:53.330000'
g203
tp464
a(S'2015-09-04 13:41:53.337000'
g201
tp465
a(S'2015-09-04 13:41:53.341000'
S'data saved as csv to C:\\Users\\Jbarrett\\Charlie\\charlie\\data\\csv\\4456_pcet.csv'
tp466
a(S'2015-09-04 13:41:57.207000'
g201
tp467
a(S'2015-09-04 13:41:58.810000'
g203
tp468
a(S'2015-09-04 13:41:58.818000'
g201
tp469
a(S'2015-09-04 13:41:58.821000'
S'data saved as csv to C:\\Users\\Jbarrett\\Charlie\\charlie\\data\\csv\\4456_pcet.csv'
tp470
a(S'2015-09-04 13:42:01.594000'
g201
tp471
a(S'2015-09-04 13:42:03.470000'
g203
tp472
a(S'2015-09-04 13:42:03.483000'
g201
tp473
a(S'2015-09-04 13:42:03.488000'
S'data saved as csv to C:\\Users\\Jbarrett\\Charlie\\charlie\\data\\csv\\4456_pcet.csv'
tp474
a(S'2015-09-04 13:42:05.821000'
g201
tp475
a(S'2015-09-04 13:42:07.739000'
g203
tp476
a(S'2015-09-04 13:42:07.751000'
g201
tp477
a(S'2015-09-04 13:42:07.754000'
S'data saved as csv to C:\\Users\\Jbarrett\\Charlie\\charlie\\data\\csv\\4456_pcet.csv'
tp478
a(S'2015-09-04 13:42:10.247000'
g201
tp479
a(S'2015-09-04 13:42:11.367000'
g203
tp480
a(S'2015-09-04 13:42:11.375000'
g201
tp481
a(S'2015-09-04 13:42:11.378000'
S'data saved as csv to C:\\Users\\Jbarrett\\Charlie\\charlie\\data\\csv\\4456_pcet.csv'
tp482
a(S'2015-09-04 13:42:13.875000'
g201
tp483
a(S'2015-09-04 13:42:15.009000'
g203
tp484
a(S'2015-09-04 13:42:15.016000'
g201
tp485
a(S'2015-09-04 13:42:15.019000'
S'data saved as csv to C:\\Users\\Jbarrett\\Charlie\\charlie\\data\\csv\\4456_pcet.csv'
tp486
a(S'2015-09-04 13:42:18.017000'
g201
tp487
a(S'2015-09-04 13:42:18.576000'
g203
tp488
a(S'2015-09-04 13:42:18.580000'
g201
tp489
a(S'2015-09-04 13:42:18.582000'
S'data saved as csv to C:\\Users\\Jbarrett\\Charlie\\charlie\\data\\csv\\4456_pcet.csv'
tp490
a(S'2015-09-04 13:42:21.033000'
g201
tp491
a(S'2015-09-04 13:42:23.057000'
g203
tp492
a(S'2015-09-04 13:42:23.071000'
g201
tp493
a(S'2015-09-04 13:42:23.077000'
S'data saved as csv to C:\\Users\\Jbarrett\\Charlie\\charlie\\data\\csv\\4456_pcet.csv'
tp494
a(S'2015-09-04 13:42:23.085000'
g201
tp495
asb.