(icharlie.tools.data
Data
p1
(dp2
S'lang'
p3
S'EN'
p4
sS'control'
p5
(lp6
sS'last_updated'
p7
S'2015-09-04 09:21:10.805000'
p8
sS'last_opened'
p9
cdatetime
datetime
p10
(S'\x07\xdf\t\x04\t\x11;\x0f.\xb8'
tRp11
sS'proj_id'
p12
S'connectivity'
p13
sS'date_done'
p14
g10
(S'\x07\xdf\t\x04\t\x15\n\x0cH\x88'
tRp15
sS'test_done'
p16
I01
sS'data'
p17
(lp18
(S'4456'
p19
S'digit_symbol'
p20
S'practice'
p21
I0
I2
I2
S'Yes'
p22
S'C:\\Users\\Jbarrett\\Charlie\\charlie\\stimuli\\visual\\digit_symbol\\sym2.bmp'
g22
I6640
tp23
a(g19
g20
g21
I1
I6
I6
g22
S'C:\\Users\\Jbarrett\\Charlie\\charlie\\stimuli\\visual\\digit_symbol\\sym6.bmp'
g22
I2790
tp24
a(g19
g20
g21
I2
I8
I4
S'No'
p25
S'C:\\Users\\Jbarrett\\Charlie\\charlie\\stimuli\\visual\\digit_symbol\\sym4.bmp'
g22
I1190
tp26
a(g19
g20
g21
I3
I4
I4
g22
S'C:\\Users\\Jbarrett\\Charlie\\charlie\\stimuli\\visual\\digit_symbol\\sym4.bmp'
g22
I4210
tp27
a(g19
g20
g21
I4
I7
I7
g22
S'C:\\Users\\Jbarrett\\Charlie\\charlie\\stimuli\\visual\\digit_symbol\\sym7.bmp'
g22
I1950
tp28
a(g19
g20
g21
I5
I6
I5
g25
S'C:\\Users\\Jbarrett\\Charlie\\charlie\\stimuli\\visual\\digit_symbol\\sym5.bmp'
g22
I4301
tp29
a(g19
g20
g21
I6
I2
I8
g25
S'C:\\Users\\Jbarrett\\Charlie\\charlie\\stimuli\\visual\\digit_symbol\\sym8.bmp'
g22
I2820
tp30
a(g19
g20
g21
I7
I9
I2
g25
S'C:\\Users\\Jbarrett\\Charlie\\charlie\\stimuli\\visual\\digit_symbol\\sym2.bmp'
g25
I9440
tp31
a(g19
g20
g21
I8
I3
I7
g25
S'C:\\Users\\Jbarrett\\Charlie\\charlie\\stimuli\\visual\\digit_symbol\\sym7.bmp'
g25
I1941
tp32
a(g19
g20
g21
I9
I5
I6
g25
S'C:\\Users\\Jbarrett\\Charlie\\charlie\\stimuli\\visual\\digit_symbol\\sym6.bmp'
g25
I1910
tp33
a(g19
g20
S'test'
p34
I0
I8
I8
g22
S'C:\\Users\\Jbarrett\\Charlie\\charlie\\stimuli\\visual\\digit_symbol\\sym8.bmp'
g22
I3106
tp35
a(g19
g20
g34
I1
I1
I4
g25
S'C:\\Users\\Jbarrett\\Charlie\\charlie\\stimuli\\visual\\digit_symbol\\sym4.bmp'
g25
I3104
tp36
a(g19
g20
g34
I2
I2
I8
g25
S'C:\\Users\\Jbarrett\\Charlie\\charlie\\stimuli\\visual\\digit_symbol\\sym8.bmp'
g25
I2204
tp37
a(g19
g20
g34
I3
I6
I2
g25
S'C:\\Users\\Jbarrett\\Charlie\\charlie\\stimuli\\visual\\digit_symbol\\sym2.bmp'
g25
I2803
tp38
a(g19
g20
g34
I4
I4
I4
g22
S'C:\\Users\\Jbarrett\\Charlie\\charlie\\stimuli\\visual\\digit_symbol\\sym4.bmp'
g22
I2203
tp39
a(g19
g20
g34
I5
I9
I5
g25
S'C:\\Users\\Jbarrett\\Charlie\\charlie\\stimuli\\visual\\digit_symbol\\sym5.bmp'
g25
I1704
tp40
a(g19
g20
g34
I6
I5
I6
g25
S'C:\\Users\\Jbarrett\\Charlie\\charlie\\stimuli\\visual\\digit_symbol\\sym6.bmp'
g25
I1903
tp41
a(g19
g20
g34
I7
I3
I3
g22
S'C:\\Users\\Jbarrett\\Charlie\\charlie\\stimuli\\visual\\digit_symbol\\sym3.bmp'
g22
I1803
tp42
a(g19
g20
g34
I8
I4
I4
g22
S'C:\\Users\\Jbarrett\\Charlie\\charlie\\stimuli\\visual\\digit_symbol\\sym4.bmp'
g22
I2204
tp43
a(g19
g20
g34
I9
I9
I9
g22
S'C:\\Users\\Jbarrett\\Charlie\\charlie\\stimuli\\visual\\digit_symbol\\sym9.bmp'
g22
I3203
tp44
a(g19
g20
g34
I10
I6
I6
g22
S'C:\\Users\\Jbarrett\\Charlie\\charlie\\stimuli\\visual\\digit_symbol\\sym6.bmp'
g22
I2004
tp45
a(g19
g20
g34
I11
I1
I1
g22
S'C:\\Users\\Jbarrett\\Charlie\\charlie\\stimuli\\visual\\digit_symbol\\sym1.bmp'
g22
I1804
tp46
a(g19
g20
g34
I12
I2
I2
g22
S'C:\\Users\\Jbarrett\\Charlie\\charlie\\stimuli\\visual\\digit_symbol\\sym2.bmp'
g22
I2004
tp47
a(g19
g20
g34
I13
I7
I7
g22
S'C:\\Users\\Jbarrett\\Charlie\\charlie\\stimuli\\visual\\digit_symbol\\sym7.bmp'
g22
I2205
tp48
a(g19
g20
g34
I14
I3
I3
g22
S'C:\\Users\\Jbarrett\\Charlie\\charlie\\stimuli\\visual\\digit_symbol\\sym3.bmp'
g22
I1803
tp49
a(g19
g20
g34
I15
I8
I8
g22
S'C:\\Users\\Jbarrett\\Charlie\\charlie\\stimuli\\visual\\digit_symbol\\sym8.bmp'
g22
I1703
tp50
a(g19
g20
g34
I16
I7
I7
g22
S'C:\\Users\\Jbarrett\\Charlie\\charlie\\stimuli\\visual\\digit_symbol\\sym7.bmp'
g22
I1603
tp51
a(g19
g20
g34
I17
I5
I3
g25
S'C:\\Users\\Jbarrett\\Charlie\\charlie\\stimuli\\visual\\digit_symbol\\sym3.bmp'
g25
I2304
tp52
a(g19
g20
g34
I18
I1
I5
g25
S'C:\\Users\\Jbarrett\\Charlie\\charlie\\stimuli\\visual\\digit_symbol\\sym5.bmp'
g25
I2103
tp53
a(g19
g20
g34
I19
I4
I4
g22
S'C:\\Users\\Jbarrett\\Charlie\\charlie\\stimuli\\visual\\digit_symbol\\sym4.bmp'
g22
I4003
tp54
a(g19
g20
g34
I20
I7
I8
g25
S'C:\\Users\\Jbarrett\\Charlie\\charlie\\stimuli\\visual\\digit_symbol\\sym8.bmp'
g25
I2005
tp55
a(g19
g20
g34
I21
I4
I4
g22
S'C:\\Users\\Jbarrett\\Charlie\\charlie\\stimuli\\visual\\digit_symbol\\sym4.bmp'
g22
I1703
tp56
a(g19
g20
g34
I22
I8
I8
g22
S'C:\\Users\\Jbarrett\\Charlie\\charlie\\stimuli\\visual\\digit_symbol\\sym8.bmp'
g22
I1603
tp57
a(g19
g20
g34
I23
I3
I3
g22
S'C:\\Users\\Jbarrett\\Charlie\\charlie\\stimuli\\visual\\digit_symbol\\sym3.bmp'
g22
I1604
tp58
a(g19
g20
g34
I24
I5
I5
g22
S'C:\\Users\\Jbarrett\\Charlie\\charlie\\stimuli\\visual\\digit_symbol\\sym5.bmp'
g22
I1603
tp59
a(g19
g20
g34
I25
I3
I1
g25
S'C:\\Users\\Jbarrett\\Charlie\\charlie\\stimuli\\visual\\digit_symbol\\sym1.bmp'
g25
I1503
tp60
a(g19
g20
g34
I26
I6
I9
g25
S'C:\\Users\\Jbarrett\\Charlie\\charlie\\stimuli\\visual\\digit_symbol\\sym9.bmp'
g25
I2304
tp61
a(g19
g20
g34
I27
I2
I2
g22
S'C:\\Users\\Jbarrett\\Charlie\\charlie\\stimuli\\visual\\digit_symbol\\sym2.bmp'
g22
I2003
tp62
a(g19
g20
g34
I28
I8
I8
g22
S'C:\\Users\\Jbarrett\\Charlie\\charlie\\stimuli\\visual\\digit_symbol\\sym8.bmp'
g22
I1304
tp63
a(g19
g20
g34
I29
I9
I2
g25
S'C:\\Users\\Jbarrett\\Charlie\\charlie\\stimuli\\visual\\digit_symbol\\sym2.bmp'
g25
I2405
tp64
a(g19
g20
g34
I30
I1
I6
g25
S'C:\\Users\\Jbarrett\\Charlie\\charlie\\stimuli\\visual\\digit_symbol\\sym6.bmp'
g25
I1803
tp65
a(g19
g20
g34
I31
I5
I4
g25
S'C:\\Users\\Jbarrett\\Charlie\\charlie\\stimuli\\visual\\digit_symbol\\sym4.bmp'
g25
I2103
tp66
a(g19
g20
g34
I32
I6
I6
g22
S'C:\\Users\\Jbarrett\\Charlie\\charlie\\stimuli\\visual\\digit_symbol\\sym6.bmp'
g22
I2304
tp67
a(g19
g20
g34
I33
I2
I2
g22
S'C:\\Users\\Jbarrett\\Charlie\\charlie\\stimuli\\visual\\digit_symbol\\sym2.bmp'
g22
I1504
tp68
a(g19
g20
g34
I34
I9
I9
g22
S'C:\\Users\\Jbarrett\\Charlie\\charlie\\stimuli\\visual\\digit_symbol\\sym9.bmp'
g22
I2203
tp69
a(g19
g20
g34
I35
I7
I7
g22
S'C:\\Users\\Jbarrett\\Charlie\\charlie\\stimuli\\visual\\digit_symbol\\sym7.bmp'
g22
I1404
tp70
a(g19
g20
g34
I36
I3
I3
g22
S'C:\\Users\\Jbarrett\\Charlie\\charlie\\stimuli\\visual\\digit_symbol\\sym3.bmp'
g22
I1904
tp71
a(g19
g20
g34
I37
I1
I8
g25
S'C:\\Users\\Jbarrett\\Charlie\\charlie\\stimuli\\visual\\digit_symbol\\sym8.bmp'
g25
I1302
tp72
a(g19
g20
g34
I38
I6
I6
g22
S'C:\\Users\\Jbarrett\\Charlie\\charlie\\stimuli\\visual\\digit_symbol\\sym6.bmp'
g22
I1704
tp73
a(g19
g20
g34
I39
I7
I7
g22
S'C:\\Users\\Jbarrett\\Charlie\\charlie\\stimuli\\visual\\digit_symbol\\sym7.bmp'
g22
I1504
tp74
a(g19
g20
g34
I40
I9
I5
g25
S'C:\\Users\\Jbarrett\\Charlie\\charlie\\stimuli\\visual\\digit_symbol\\sym5.bmp'
g25
I3504
tp75
asS'output_format'
p76
(lp77
(S'proband_id'
p78
c__builtin__
str
p79
tp80
a(S'test_name'
p81
g79
tp82
a(S'phase'
p83
g79
tp84
a(S'trialn'
p85
c__builtin__
int
p86
tp87
a(S'digit'
p88
g86
tp89
a(S'symbol'
p90
g86
tp91
a(S'ans'
p92
g79
tp93
a(S'f'
g79
tp94
a(S'rsp'
p95
g79
tp96
a(S'rt'
p97
g86
tp98
asg78
g19
sS'filename'
p99
S'4456_digit_symbol.data'
p100
sS'initialised'
p101
g10
(S'\x07\xdf\t\x04\t\x11;\x0f.\xb8'
tRp102
sg81
S'digit_symbol'
p103
sS'directory'
p104
S'C:\\Users\\Jbarrett\\Charlie\\charlie\\data\\raw'
p105
sS'user_id'
p106
S'barrett'
p107
sS'test_started'
p108
I01
sS'abs_filename'
p109
S'C:\\Users\\Jbarrett\\Charlie\\charlie\\data\\raw\\4456_digit_symbol.data'
p110
sS'date_started'
p111
g10
(S'\x07\xdf\t\x04\t\x12,\x05W0'
tRp112
sS'log'
p113
(lp114
(S'2015-09-04 09:17:59.995000'
S'instance created'
p115
tp116
a(S'2015-09-04 09:18:44.359000'
S'instance updated'
p117
tp118
a(S'2015-09-04 09:18:44.382000'
S'pandas DataFrame of data created'
p119
tp120
a(S'2015-09-04 09:18:44.390000'
g117
tp121
a(S'2015-09-04 09:18:44.422000'
S'data saved as csv to C:\\Users\\Jbarrett\\Charlie\\charlie\\data\\csv\\4456_digit_symbol.csv'
tp122
a(S'2015-09-04 09:18:48.239000'
g117
tp123
a(S'2015-09-04 09:18:48.273000'
g119
tp124
a(S'2015-09-04 09:18:48.281000'
g117
tp125
a(S'2015-09-04 09:18:48.284000'
S'data saved as csv to C:\\Users\\Jbarrett\\Charlie\\charlie\\data\\csv\\4456_digit_symbol.csv'
tp126
a(S'2015-09-04 09:18:50.517000'
g117
tp127
a(S'2015-09-04 09:18:50.563000'
g119
tp128
a(S'2015-09-04 09:18:50.571000'
g117
tp129
a(S'2015-09-04 09:18:50.573000'
S'data saved as csv to C:\\Users\\Jbarrett\\Charlie\\charlie\\data\\csv\\4456_digit_symbol.csv'
tp130
a(S'2015-09-04 09:18:55.809000'
g117
tp131
a(S'2015-09-04 09:18:55.867000'
g119
tp132
a(S'2015-09-04 09:18:55.875000'
g117
tp133
a(S'2015-09-04 09:18:55.879000'
S'data saved as csv to C:\\Users\\Jbarrett\\Charlie\\charlie\\data\\csv\\4456_digit_symbol.csv'
tp134
a(S'2015-09-04 09:18:58.855000'
g117
tp135
a(S'2015-09-04 09:18:58.924000'
g119
tp136
a(S'2015-09-04 09:18:58.932000'
g117
tp137
a(S'2015-09-04 09:18:58.936000'
S'data saved as csv to C:\\Users\\Jbarrett\\Charlie\\charlie\\data\\csv\\4456_digit_symbol.csv'
tp138
a(S'2015-09-04 09:19:04.263000'
g117
tp139
a(S'2015-09-04 09:19:04.344000'
g119
tp140
a(S'2015-09-04 09:19:04.352000'
g117
tp141
a(S'2015-09-04 09:19:04.356000'
S'data saved as csv to C:\\Users\\Jbarrett\\Charlie\\charlie\\data\\csv\\4456_digit_symbol.csv'
tp142
a(S'2015-09-04 09:19:08.202000'
g117
tp143
a(S'2015-09-04 09:19:08.294000'
g119
tp144
a(S'2015-09-04 09:19:08.301000'
g117
tp145
a(S'2015-09-04 09:19:08.304000'
S'data saved as csv to C:\\Users\\Jbarrett\\Charlie\\charlie\\data\\csv\\4456_digit_symbol.csv'
tp146
a(S'2015-09-04 09:19:18.770000'
g117
tp147
a(S'2015-09-04 09:19:18.873000'
g119
tp148
a(S'2015-09-04 09:19:18.881000'
g117
tp149
a(S'2015-09-04 09:19:18.885000'
S'data saved as csv to C:\\Users\\Jbarrett\\Charlie\\charlie\\data\\csv\\4456_digit_symbol.csv'
tp150
a(S'2015-09-04 09:19:21.850000'
g117
tp151
a(S'2015-09-04 09:19:21.965000'
g119
tp152
a(S'2015-09-04 09:19:21.973000'
g117
tp153
a(S'2015-09-04 09:19:21.977000'
S'data saved as csv to C:\\Users\\Jbarrett\\Charlie\\charlie\\data\\csv\\4456_digit_symbol.csv'
tp154
a(S'2015-09-04 09:19:24.914000'
g117
tp155
a(S'2015-09-04 09:19:25.041000'
g119
tp156
a(S'2015-09-04 09:19:25.050000'
g117
tp157
a(S'2015-09-04 09:19:25.053000'
S'data saved as csv to C:\\Users\\Jbarrett\\Charlie\\charlie\\data\\csv\\4456_digit_symbol.csv'
tp158
a(S'2015-09-04 09:21:10.554000'
g117
tp159
a(S'2015-09-04 09:21:10.798000'
g119
tp160
a(S'2015-09-04 09:21:10.801000'
g117
tp161
a(S'2015-09-04 09:21:10.802000'
S'data saved as csv to C:\\Users\\Jbarrett\\Charlie\\charlie\\data\\csv\\4456_digit_symbol.csv'
tp162
a(S'2015-09-04 09:21:10.805000'
g117
tp163
asb.