(icharlie.tools.data
Data
p1
(dp2
S'lang'
p3
S'EN'
p4
sS'control'
p5
(lp6
sS'last_updated'
p7
S'2015-09-09 10:32:06.442000'
p8
sS'last_opened'
p9
cdatetime
datetime
p10
(S'\x07\xdf\t\t\n\x1e9\x05n\xa0'
tRp11
sS'proj_id'
p12
S'connectivity'
p13
sS'date_done'
p14
g10
(S'\x07\xdf\t\t\n \x06\x06\xba\xa8'
tRp15
sS'test_done'
p16
I01
sS'data'
p17
(lp18
(S'4460'
p19
S'face_memory_delay'
p20
S'test'
p21
I0
S'C:\\Users\\oleach\\Charlie\\charlie\\stimuli\\visual\\face_memory_delay\\ddis10.bmp'
S'No'
p22
S'Yes'
p23
I1700
tp24
a(g19
g20
g21
I1
S'C:\\Users\\oleach\\Charlie\\charlie\\stimuli\\visual\\face_memory_delay\\ddis04.bmp'
g22
g23
I1020
tp25
a(g19
g20
g21
I2
S'C:\\Users\\oleach\\Charlie\\charlie\\stimuli\\visual\\face_memory_delay\\tar07.bmp'
g23
g23
I770
tp26
a(g19
g20
g21
I3
S'C:\\Users\\oleach\\Charlie\\charlie\\stimuli\\visual\\face_memory_delay\\tar18.bmp'
g23
g23
I720
tp27
a(g19
g20
g21
I4
S'C:\\Users\\oleach\\Charlie\\charlie\\stimuli\\visual\\face_memory_delay\\ddis14.bmp'
g22
g23
I550
tp28
a(g19
g20
g21
I5
S'C:\\Users\\oleach\\Charlie\\charlie\\stimuli\\visual\\face_memory_delay\\tar19.bmp'
g23
g23
I570
tp29
a(g19
g20
g21
I6
S'C:\\Users\\oleach\\Charlie\\charlie\\stimuli\\visual\\face_memory_delay\\ddis13.bmp'
g22
g22
I1590
tp30
a(g19
g20
g21
I7
S'C:\\Users\\oleach\\Charlie\\charlie\\stimuli\\visual\\face_memory_delay\\tar15.bmp'
g23
g23
I700
tp31
a(g19
g20
g21
I8
S'C:\\Users\\oleach\\Charlie\\charlie\\stimuli\\visual\\face_memory_delay\\tar11.bmp'
g23
g23
I740
tp32
a(g19
g20
g21
I9
S'C:\\Users\\oleach\\Charlie\\charlie\\stimuli\\visual\\face_memory_delay\\ddis05.bmp'
g22
g23
I711
tp33
a(g19
g20
g21
I10
S'C:\\Users\\oleach\\Charlie\\charlie\\stimuli\\visual\\face_memory_delay\\ddis01.bmp'
g22
g22
I1150
tp34
a(g19
g20
g21
I11
S'C:\\Users\\oleach\\Charlie\\charlie\\stimuli\\visual\\face_memory_delay\\ddis16.bmp'
g22
g22
I870
tp35
a(g19
g20
g21
I12
S'C:\\Users\\oleach\\Charlie\\charlie\\stimuli\\visual\\face_memory_delay\\tar02.bmp'
g23
g23
I800
tp36
a(g19
g20
g21
I13
S'C:\\Users\\oleach\\Charlie\\charlie\\stimuli\\visual\\face_memory_delay\\tar08.bmp'
g23
g23
I800
tp37
a(g19
g20
g21
I14
S'C:\\Users\\oleach\\Charlie\\charlie\\stimuli\\visual\\face_memory_delay\\tar13.bmp'
g23
g23
I690
tp38
a(g19
g20
g21
I15
S'C:\\Users\\oleach\\Charlie\\charlie\\stimuli\\visual\\face_memory_delay\\tar20.bmp'
g23
g23
I640
tp39
a(g19
g20
g21
I16
S'C:\\Users\\oleach\\Charlie\\charlie\\stimuli\\visual\\face_memory_delay\\ddis18.bmp'
g22
g22
I1380
tp40
a(g19
g20
g21
I17
S'C:\\Users\\oleach\\Charlie\\charlie\\stimuli\\visual\\face_memory_delay\\tar06.bmp'
g23
g23
I1070
tp41
a(g19
g20
g21
I18
S'C:\\Users\\oleach\\Charlie\\charlie\\stimuli\\visual\\face_memory_delay\\ddis07.bmp'
g22
g22
I1740
tp42
a(g19
g20
g21
I19
S'C:\\Users\\oleach\\Charlie\\charlie\\stimuli\\visual\\face_memory_delay\\ddis08.bmp'
g22
g22
I1080
tp43
a(g19
g20
g21
I20
S'C:\\Users\\oleach\\Charlie\\charlie\\stimuli\\visual\\face_memory_delay\\tar12.bmp'
g23
g23
I1040
tp44
a(g19
g20
g21
I21
S'C:\\Users\\oleach\\Charlie\\charlie\\stimuli\\visual\\face_memory_delay\\ddis17.bmp'
g22
g23
I470
tp45
a(g19
g20
g21
I22
S'C:\\Users\\oleach\\Charlie\\charlie\\stimuli\\visual\\face_memory_delay\\tar05.bmp'
g23
g23
I600
tp46
a(g19
g20
g21
I23
S'C:\\Users\\oleach\\Charlie\\charlie\\stimuli\\visual\\face_memory_delay\\tar10.bmp'
g23
g23
I1041
tp47
a(g19
g20
g21
I24
S'C:\\Users\\oleach\\Charlie\\charlie\\stimuli\\visual\\face_memory_delay\\ddis02.bmp'
g22
g22
I1360
tp48
a(g19
g20
g21
I25
S'C:\\Users\\oleach\\Charlie\\charlie\\stimuli\\visual\\face_memory_delay\\ddis20.bmp'
g22
g23
I1560
tp49
a(g19
g20
g21
I26
S'C:\\Users\\oleach\\Charlie\\charlie\\stimuli\\visual\\face_memory_delay\\tar17.bmp'
g23
g23
I880
tp50
a(g19
g20
g21
I27
S'C:\\Users\\oleach\\Charlie\\charlie\\stimuli\\visual\\face_memory_delay\\ddis15.bmp'
g22
g22
I1090
tp51
a(g19
g20
g21
I28
S'C:\\Users\\oleach\\Charlie\\charlie\\stimuli\\visual\\face_memory_delay\\tar03.bmp'
g23
g23
I1030
tp52
a(g19
g20
g21
I29
S'C:\\Users\\oleach\\Charlie\\charlie\\stimuli\\visual\\face_memory_delay\\ddis19.bmp'
g22
g22
I1150
tp53
a(g19
g20
g21
I30
S'C:\\Users\\oleach\\Charlie\\charlie\\stimuli\\visual\\face_memory_delay\\ddis12.bmp'
g22
g22
I760
tp54
a(g19
g20
g21
I31
S'C:\\Users\\oleach\\Charlie\\charlie\\stimuli\\visual\\face_memory_delay\\tar16.bmp'
g23
g23
I880
tp55
a(g19
g20
g21
I32
S'C:\\Users\\oleach\\Charlie\\charlie\\stimuli\\visual\\face_memory_delay\\tar09.bmp'
g23
g23
I750
tp56
a(g19
g20
g21
I33
S'C:\\Users\\oleach\\Charlie\\charlie\\stimuli\\visual\\face_memory_delay\\ddis09.bmp'
g22
g22
I1370
tp57
a(g19
g20
g21
I34
S'C:\\Users\\oleach\\Charlie\\charlie\\stimuli\\visual\\face_memory_delay\\tar01.bmp'
g23
g23
I971
tp58
a(g19
g20
g21
I35
S'C:\\Users\\oleach\\Charlie\\charlie\\stimuli\\visual\\face_memory_delay\\ddis11.bmp'
g22
g23
I600
tp59
a(g19
g20
g21
I36
S'C:\\Users\\oleach\\Charlie\\charlie\\stimuli\\visual\\face_memory_delay\\ddis03.bmp'
g22
g23
I720
tp60
a(g19
g20
g21
I37
S'C:\\Users\\oleach\\Charlie\\charlie\\stimuli\\visual\\face_memory_delay\\tar04.bmp'
g23
g23
I770
tp61
a(g19
g20
g21
I38
S'C:\\Users\\oleach\\Charlie\\charlie\\stimuli\\visual\\face_memory_delay\\tar14.bmp'
g23
g23
I1010
tp62
a(g19
g20
g21
I39
S'C:\\Users\\oleach\\Charlie\\charlie\\stimuli\\visual\\face_memory_delay\\ddis06.bmp'
p63
g22
g22
I1180
tp64
asS'output_format'
p65
(lp66
(S'proband_id'
p67
c__builtin__
str
p68
tp69
a(S'test_name'
p70
g68
tp71
a(S'phase'
p72
g68
tp73
a(S'trialn'
p74
c__builtin__
int
p75
tp76
a(S'f'
g68
tp77
a(S'ans'
p78
g68
tp79
a(S'rsp'
p80
g68
tp81
a(S'rt'
p82
g75
tp83
asg67
g19
sS'filename'
p84
S'4460_face_memory_delay.data'
p85
sS'initialised'
p86
g10
(S'\x07\xdf\t\t\n\x1e9\x05n\xa0'
tRp87
sg70
S'face_memory_delay'
p88
sS'directory'
p89
S'C:\\Users\\oleach\\Charlie\\charlie\\data\\raw'
p90
sS'user_id'
p91
S'oleach'
p92
sS'test_started'
p93
I01
sS'abs_filename'
p94
S'C:\\Users\\oleach\\Charlie\\charlie\\data\\raw\\4460_face_memory_delay.data'
p95
sS'date_started'
p96
g10
(S'\x07\xdf\t\t\n\x1f\x0e\x0ec\x98'
tRp97
sS'log'
p98
(lp99
(S'2015-09-09 10:30:57.356000'
S'instance created'
p100
tp101
a(S'2015-09-09 10:31:14.953000'
S'instance updated'
p102
tp103
a(S'2015-09-09 10:31:14.974000'
S'pandas DataFrame of data created'
p104
tp105
a(S'2015-09-09 10:31:14.983000'
g102
tp106
a(S'2015-09-09 10:31:14.987000'
S'data saved as csv to C:\\Users\\oleach\\Charlie\\charlie\\data\\csv\\4460_face_memory_delay.csv'
tp107
a(S'2015-09-09 10:31:16.136000'
g102
tp108
a(S'2015-09-09 10:31:16.168000'
g104
tp109
a(S'2015-09-09 10:31:16.176000'
g102
tp110
a(S'2015-09-09 10:31:16.179000'
S'data saved as csv to C:\\Users\\oleach\\Charlie\\charlie\\data\\csv\\4460_face_memory_delay.csv'
tp111
a(S'2015-09-09 10:31:17.079000'
g102
tp112
a(S'2015-09-09 10:31:17.118000'
g104
tp113
a(S'2015-09-09 10:31:17.124000'
g102
tp114
a(S'2015-09-09 10:31:17.126000'
S'data saved as csv to C:\\Users\\oleach\\Charlie\\charlie\\data\\csv\\4460_face_memory_delay.csv'
tp115
a(S'2015-09-09 10:31:17.973000'
g102
tp116
a(S'2015-09-09 10:31:18.022000'
g104
tp117
a(S'2015-09-09 10:31:18.028000'
g102
tp118
a(S'2015-09-09 10:31:18.030000'
S'data saved as csv to C:\\Users\\oleach\\Charlie\\charlie\\data\\csv\\4460_face_memory_delay.csv'
tp119
a(S'2015-09-09 10:31:18.708000'
g102
tp120
a(S'2015-09-09 10:31:18.775000'
g104
tp121
a(S'2015-09-09 10:31:18.784000'
g102
tp122
a(S'2015-09-09 10:31:18.787000'
S'data saved as csv to C:\\Users\\oleach\\Charlie\\charlie\\data\\csv\\4460_face_memory_delay.csv'
tp123
a(S'2015-09-09 10:31:19.484000'
g102
tp124
a(S'2015-09-09 10:31:19.540000'
g104
tp125
a(S'2015-09-09 10:31:19.544000'
g102
tp126
a(S'2015-09-09 10:31:19.546000'
S'data saved as csv to C:\\Users\\oleach\\Charlie\\charlie\\data\\csv\\4460_face_memory_delay.csv'
tp127
a(S'2015-09-09 10:31:21.264000'
g102
tp128
a(S'2015-09-09 10:31:21.354000'
g104
tp129
a(S'2015-09-09 10:31:21.362000'
g102
tp130
a(S'2015-09-09 10:31:21.366000'
S'data saved as csv to C:\\Users\\oleach\\Charlie\\charlie\\data\\csv\\4460_face_memory_delay.csv'
tp131
a(S'2015-09-09 10:31:22.195000'
g102
tp132
a(S'2015-09-09 10:31:22.298000'
g104
tp133
a(S'2015-09-09 10:31:22.306000'
g102
tp134
a(S'2015-09-09 10:31:22.309000'
S'data saved as csv to C:\\Users\\oleach\\Charlie\\charlie\\data\\csv\\4460_face_memory_delay.csv'
tp135
a(S'2015-09-09 10:31:23.180000'
g102
tp136
a(S'2015-09-09 10:31:23.262000'
g104
tp137
a(S'2015-09-09 10:31:23.268000'
g102
tp138
a(S'2015-09-09 10:31:23.270000'
S'data saved as csv to C:\\Users\\oleach\\Charlie\\charlie\\data\\csv\\4460_face_memory_delay.csv'
tp139
a(S'2015-09-09 10:31:24.107000'
g102
tp140
a(S'2015-09-09 10:31:24.204000'
g104
tp141
a(S'2015-09-09 10:31:24.210000'
g102
tp142
a(S'2015-09-09 10:31:24.212000'
S'data saved as csv to C:\\Users\\oleach\\Charlie\\charlie\\data\\csv\\4460_face_memory_delay.csv'
tp143
a(S'2015-09-09 10:31:25.489000'
g102
tp144
a(S'2015-09-09 10:31:25.625000'
g104
tp145
a(S'2015-09-09 10:31:25.634000'
g102
tp146
a(S'2015-09-09 10:31:25.637000'
S'data saved as csv to C:\\Users\\oleach\\Charlie\\charlie\\data\\csv\\4460_face_memory_delay.csv'
tp147
a(S'2015-09-09 10:31:26.637000'
g102
tp148
a(S'2015-09-09 10:31:26.729000'
g104
tp149
a(S'2015-09-09 10:31:26.732000'
g102
tp150
a(S'2015-09-09 10:31:26.734000'
S'data saved as csv to C:\\Users\\oleach\\Charlie\\charlie\\data\\csv\\4460_face_memory_delay.csv'
tp151
a(S'2015-09-09 10:31:27.660000'
g102
tp152
a(S'2015-09-09 10:31:27.819000'
g104
tp153
a(S'2015-09-09 10:31:27.828000'
g102
tp154
a(S'2015-09-09 10:31:27.831000'
S'data saved as csv to C:\\Users\\oleach\\Charlie\\charlie\\data\\csv\\4460_face_memory_delay.csv'
tp155
a(S'2015-09-09 10:31:28.760000'
g102
tp156
a(S'2015-09-09 10:31:28.932000'
g104
tp157
a(S'2015-09-09 10:31:28.940000'
g102
tp158
a(S'2015-09-09 10:31:28.944000'
S'data saved as csv to C:\\Users\\oleach\\Charlie\\charlie\\data\\csv\\4460_face_memory_delay.csv'
tp159
a(S'2015-09-09 10:31:29.763000'
g102
tp160
a(S'2015-09-09 10:31:29.945000'
g104
tp161
a(S'2015-09-09 10:31:29.954000'
g102
tp162
a(S'2015-09-09 10:31:29.957000'
S'data saved as csv to C:\\Users\\oleach\\Charlie\\charlie\\data\\csv\\4460_face_memory_delay.csv'
tp163
a(S'2015-09-09 10:31:30.727000'
g102
tp164
a(S'2015-09-09 10:31:30.921000'
g104
tp165
a(S'2015-09-09 10:31:30.930000'
g102
tp166
a(S'2015-09-09 10:31:30.933000'
S'data saved as csv to C:\\Users\\oleach\\Charlie\\charlie\\data\\csv\\4460_face_memory_delay.csv'
tp167
a(S'2015-09-09 10:31:32.443000'
g102
tp168
a(S'2015-09-09 10:31:32.649000'
g104
tp169
a(S'2015-09-09 10:31:32.658000'
g102
tp170
a(S'2015-09-09 10:31:32.661000'
S'data saved as csv to C:\\Users\\oleach\\Charlie\\charlie\\data\\csv\\4460_face_memory_delay.csv'
tp171
a(S'2015-09-09 10:31:33.862000'
g102
tp172
a(S'2015-09-09 10:31:34.012000'
g104
tp173
a(S'2015-09-09 10:31:34.018000'
g102
tp174
a(S'2015-09-09 10:31:34.021000'
S'data saved as csv to C:\\Users\\oleach\\Charlie\\charlie\\data\\csv\\4460_face_memory_delay.csv'
tp175
a(S'2015-09-09 10:31:35.888000'
g102
tp176
a(S'2015-09-09 10:31:36.115000'
g104
tp177
a(S'2015-09-09 10:31:36.124000'
g102
tp178
a(S'2015-09-09 10:31:36.128000'
S'data saved as csv to C:\\Users\\oleach\\Charlie\\charlie\\data\\csv\\4460_face_memory_delay.csv'
tp179
a(S'2015-09-09 10:31:37.337000'
g102
tp180
a(S'2015-09-09 10:31:37.483000'
g104
tp181
a(S'2015-09-09 10:31:37.489000'
g102
tp182
a(S'2015-09-09 10:31:37.491000'
S'data saved as csv to C:\\Users\\oleach\\Charlie\\charlie\\data\\csv\\4460_face_memory_delay.csv'
tp183
a(S'2015-09-09 10:31:38.658000'
g102
tp184
a(S'2015-09-09 10:31:38.911000'
g104
tp185
a(S'2015-09-09 10:31:38.920000'
g102
tp186
a(S'2015-09-09 10:31:38.923000'
S'data saved as csv to C:\\Users\\oleach\\Charlie\\charlie\\data\\csv\\4460_face_memory_delay.csv'
tp187
a(S'2015-09-09 10:31:39.522000'
g102
tp188
a(S'2015-09-09 10:31:39.684000'
g104
tp189
a(S'2015-09-09 10:31:39.689000'
g102
tp190
a(S'2015-09-09 10:31:39.691000'
S'data saved as csv to C:\\Users\\oleach\\Charlie\\charlie\\data\\csv\\4460_face_memory_delay.csv'
tp191
a(S'2015-09-09 10:31:40.419000'
g102
tp192
a(S'2015-09-09 10:31:40.589000'
g104
tp193
a(S'2015-09-09 10:31:40.594000'
g102
tp194
a(S'2015-09-09 10:31:40.597000'
S'data saved as csv to C:\\Users\\oleach\\Charlie\\charlie\\data\\csv\\4460_face_memory_delay.csv'
tp195
a(S'2015-09-09 10:31:41.764000'
g102
tp196
a(S'2015-09-09 10:31:42.053000'
g104
tp197
a(S'2015-09-09 10:31:42.062000'
g102
tp198
a(S'2015-09-09 10:31:42.066000'
S'data saved as csv to C:\\Users\\oleach\\Charlie\\charlie\\data\\csv\\4460_face_memory_delay.csv'
tp199
a(S'2015-09-09 10:31:43.557000'
g102
tp200
a(S'2015-09-09 10:31:43.855000'
g104
tp201
a(S'2015-09-09 10:31:43.864000'
g102
tp202
a(S'2015-09-09 10:31:43.868000'
S'data saved as csv to C:\\Users\\oleach\\Charlie\\charlie\\data\\csv\\4460_face_memory_delay.csv'
tp203
a(S'2015-09-09 10:31:45.556000'
g102
tp204
a(S'2015-09-09 10:31:45.866000'
g104
tp205
a(S'2015-09-09 10:31:45.875000'
g102
tp206
a(S'2015-09-09 10:31:45.879000'
S'data saved as csv to C:\\Users\\oleach\\Charlie\\charlie\\data\\csv\\4460_face_memory_delay.csv'
tp207
a(S'2015-09-09 10:31:46.888000'
g102
tp208
a(S'2015-09-09 10:31:47.210000'
g104
tp209
a(S'2015-09-09 10:31:47.220000'
g102
tp210
a(S'2015-09-09 10:31:47.223000'
S'data saved as csv to C:\\Users\\oleach\\Charlie\\charlie\\data\\csv\\4460_face_memory_delay.csv'
tp211
a(S'2015-09-09 10:31:48.443000'
g102
tp212
a(S'2015-09-09 10:31:48.776000'
g104
tp213
a(S'2015-09-09 10:31:48.785000'
g102
tp214
a(S'2015-09-09 10:31:48.788000'
S'data saved as csv to C:\\Users\\oleach\\Charlie\\charlie\\data\\csv\\4460_face_memory_delay.csv'
tp215
a(S'2015-09-09 10:31:49.947000'
g102
tp216
a(S'2015-09-09 10:31:50.291000'
g104
tp217
a(S'2015-09-09 10:31:50.301000'
g102
tp218
a(S'2015-09-09 10:31:50.304000'
S'data saved as csv to C:\\Users\\oleach\\Charlie\\charlie\\data\\csv\\4460_face_memory_delay.csv'
tp219
a(S'2015-09-09 10:31:51.584000'
g102
tp220
a(S'2015-09-09 10:31:51.939000'
g104
tp221
a(S'2015-09-09 10:31:51.949000'
g102
tp222
a(S'2015-09-09 10:31:51.952000'
S'data saved as csv to C:\\Users\\oleach\\Charlie\\charlie\\data\\csv\\4460_face_memory_delay.csv'
tp223
a(S'2015-09-09 10:31:52.843000'
g102
tp224
a(S'2015-09-09 10:31:53.211000'
g104
tp225
a(S'2015-09-09 10:31:53.220000'
g102
tp226
a(S'2015-09-09 10:31:53.223000'
S'data saved as csv to C:\\Users\\oleach\\Charlie\\charlie\\data\\csv\\4460_face_memory_delay.csv'
tp227
a(S'2015-09-09 10:31:54.234000'
g102
tp228
a(S'2015-09-09 10:31:54.614000'
g104
tp229
a(S'2015-09-09 10:31:54.623000'
g102
tp230
a(S'2015-09-09 10:31:54.627000'
S'data saved as csv to C:\\Users\\oleach\\Charlie\\charlie\\data\\csv\\4460_face_memory_delay.csv'
tp231
a(S'2015-09-09 10:31:55.507000'
g102
tp232
a(S'2015-09-09 10:31:55.897000'
g104
tp233
a(S'2015-09-09 10:31:55.903000'
g102
tp234
a(S'2015-09-09 10:31:55.905000'
S'data saved as csv to C:\\Users\\oleach\\Charlie\\charlie\\data\\csv\\4460_face_memory_delay.csv'
tp235
a(S'2015-09-09 10:31:57.403000'
g102
tp236
a(S'2015-09-09 10:31:57.804000'
g104
tp237
a(S'2015-09-09 10:31:57.814000'
g102
tp238
a(S'2015-09-09 10:31:57.818000'
S'data saved as csv to C:\\Users\\oleach\\Charlie\\charlie\\data\\csv\\4460_face_memory_delay.csv'
tp239
a(S'2015-09-09 10:31:58.918000'
g102
tp240
a(S'2015-09-09 10:31:59.330000'
g104
tp241
a(S'2015-09-09 10:31:59.340000'
g102
tp242
a(S'2015-09-09 10:31:59.343000'
S'data saved as csv to C:\\Users\\oleach\\Charlie\\charlie\\data\\csv\\4460_face_memory_delay.csv'
tp243
a(S'2015-09-09 10:32:00.074000'
g102
tp244
a(S'2015-09-09 10:32:00.500000'
g104
tp245
a(S'2015-09-09 10:32:00.509000'
g102
tp246
a(S'2015-09-09 10:32:00.513000'
S'data saved as csv to C:\\Users\\oleach\\Charlie\\charlie\\data\\csv\\4460_face_memory_delay.csv'
tp247
a(S'2015-09-09 10:32:01.363000'
g102
tp248
a(S'2015-09-09 10:32:01.800000'
g104
tp249
a(S'2015-09-09 10:32:01.809000'
g102
tp250
a(S'2015-09-09 10:32:01.813000'
S'data saved as csv to C:\\Users\\oleach\\Charlie\\charlie\\data\\csv\\4460_face_memory_delay.csv'
tp251
a(S'2015-09-09 10:32:02.714000'
g102
tp252
a(S'2015-09-09 10:32:03.020000'
g104
tp253
a(S'2015-09-09 10:32:03.027000'
g102
tp254
a(S'2015-09-09 10:32:03.029000'
S'data saved as csv to C:\\Users\\oleach\\Charlie\\charlie\\data\\csv\\4460_face_memory_delay.csv'
tp255
a(S'2015-09-09 10:32:04.168000'
g102
tp256
a(S'2015-09-09 10:32:04.628000'
g104
tp257
a(S'2015-09-09 10:32:04.634000'
g102
tp258
a(S'2015-09-09 10:32:04.637000'
S'data saved as csv to C:\\Users\\oleach\\Charlie\\charlie\\data\\csv\\4460_face_memory_delay.csv'
tp259
a(S'2015-09-09 10:32:05.946000'
g102
tp260
a(S'2015-09-09 10:32:06.418000'
g104
tp261
a(S'2015-09-09 10:32:06.428000'
g102
tp262
a(S'2015-09-09 10:32:06.432000'
S'data saved as csv to C:\\Users\\oleach\\Charlie\\charlie\\data\\csv\\4460_face_memory_delay.csv'
tp263
a(S'2015-09-09 10:32:06.441000'
g102
tp264
asb.