(icharlie.tools.data
Data
p1
(dp2
S'lang'
p3
S'EN'
p4
sS'control'
p5
(lp6
sS'last_updated'
p7
S'2015-09-09 10:38:32.070000'
p8
sS'last_opened'
p9
cdatetime
datetime
p10
(S'\x07\xdf\t\t\n \x08\x08P\xe8'
tRp11
sS'proj_id'
p12
S'connectivity'
p13
sS'date_done'
p14
g10
(S'\x07\xdf\t\t\n& \x01\r\x88'
tRp15
sS'test_done'
p16
I01
sS'data'
p17
(lp18
(S'4460'
p19
S'scap'
p20
S'practice'
p21
I3
I0
S'Yes'
p22
S'C:\\Users\\oleach\\Charlie\\charlie\\stimuli\\visual\\scap\\practice-1.BMP'
S'C:\\Users\\oleach\\Charlie\\charlie\\stimuli\\visual\\scap\\practice-2.BMP'
S'No'
p23
I1760
tp24
a(g19
g20
g21
I4
I1
g23
S'C:\\Users\\oleach\\Charlie\\charlie\\stimuli\\visual\\scap\\practice-3.BMP'
S'C:\\Users\\oleach\\Charlie\\charlie\\stimuli\\visual\\scap\\practice-4.BMP'
g23
I4800
tp25
a(g19
g20
g21
I5
I2
g22
S'C:\\Users\\oleach\\Charlie\\charlie\\stimuli\\visual\\scap\\practice-5.BMP'
S'C:\\Users\\oleach\\Charlie\\charlie\\stimuli\\visual\\scap\\practice-6.BMP'
g22
I1610
tp26
a(g19
g20
S'test'
p27
I3
I0
g22
S'C:\\Users\\oleach\\Charlie\\charlie\\stimuli\\visual\\scap\\load3-1.BMP'
S'C:\\Users\\oleach\\Charlie\\charlie\\stimuli\\visual\\scap\\load3-2.BMP'
g22
I950
tp28
a(g19
g20
g27
I3
I1
g23
S'C:\\Users\\oleach\\Charlie\\charlie\\stimuli\\visual\\scap\\load3-3.BMP'
S'C:\\Users\\oleach\\Charlie\\charlie\\stimuli\\visual\\scap\\load3-4.BMP'
g23
I870
tp29
a(g19
g20
g27
I3
I2
g22
S'C:\\Users\\oleach\\Charlie\\charlie\\stimuli\\visual\\scap\\load3-5.BMP'
S'C:\\Users\\oleach\\Charlie\\charlie\\stimuli\\visual\\scap\\load3-6.BMP'
g22
I970
tp30
a(g19
g20
g27
I3
I3
g22
S'C:\\Users\\oleach\\Charlie\\charlie\\stimuli\\visual\\scap\\load3-7.BMP'
S'C:\\Users\\oleach\\Charlie\\charlie\\stimuli\\visual\\scap\\load3-8.BMP'
g22
I901
tp31
a(g19
g20
g27
I3
I4
g23
S'C:\\Users\\oleach\\Charlie\\charlie\\stimuli\\visual\\scap\\load3-9.BMP'
S'C:\\Users\\oleach\\Charlie\\charlie\\stimuli\\visual\\scap\\load3-10.BMP'
g23
I880
tp32
a(g19
g20
g27
I3
I5
g22
S'C:\\Users\\oleach\\Charlie\\charlie\\stimuli\\visual\\scap\\load3-11.BMP'
S'C:\\Users\\oleach\\Charlie\\charlie\\stimuli\\visual\\scap\\load3-12.BMP'
g22
I1780
tp33
a(g19
g20
g27
I3
I6
g23
S'C:\\Users\\oleach\\Charlie\\charlie\\stimuli\\visual\\scap\\load3-13.BMP'
S'C:\\Users\\oleach\\Charlie\\charlie\\stimuli\\visual\\scap\\load3-14.BMP'
g23
I920
tp34
a(g19
g20
g27
I3
I7
g23
S'C:\\Users\\oleach\\Charlie\\charlie\\stimuli\\visual\\scap\\load3-15.BMP'
S'C:\\Users\\oleach\\Charlie\\charlie\\stimuli\\visual\\scap\\load3-16.BMP'
g23
I840
tp35
a(g19
g20
g27
I3
I8
g22
S'C:\\Users\\oleach\\Charlie\\charlie\\stimuli\\visual\\scap\\load3-17.BMP'
S'C:\\Users\\oleach\\Charlie\\charlie\\stimuli\\visual\\scap\\load3-18.BMP'
g23
I1830
tp36
a(g19
g20
g27
I3
I9
g23
S'C:\\Users\\oleach\\Charlie\\charlie\\stimuli\\visual\\scap\\load3-19.BMP'
S'C:\\Users\\oleach\\Charlie\\charlie\\stimuli\\visual\\scap\\load3-20.BMP'
g23
I1050
tp37
a(g19
g20
g27
I3
I10
g22
S'C:\\Users\\oleach\\Charlie\\charlie\\stimuli\\visual\\scap\\load3-21.BMP'
S'C:\\Users\\oleach\\Charlie\\charlie\\stimuli\\visual\\scap\\load3-22.BMP'
g22
I951
tp38
a(g19
g20
g27
I3
I11
g22
S'C:\\Users\\oleach\\Charlie\\charlie\\stimuli\\visual\\scap\\load3-23.BMP'
S'C:\\Users\\oleach\\Charlie\\charlie\\stimuli\\visual\\scap\\load3-24.BMP'
g22
I1000
tp39
a(g19
g20
g27
I3
I12
g23
S'C:\\Users\\oleach\\Charlie\\charlie\\stimuli\\visual\\scap\\load3-25.BMP'
S'C:\\Users\\oleach\\Charlie\\charlie\\stimuli\\visual\\scap\\load3-26.BMP'
g23
I780
tp40
a(g19
g20
g27
I3
I13
g23
S'C:\\Users\\oleach\\Charlie\\charlie\\stimuli\\visual\\scap\\load3-27.BMP'
S'C:\\Users\\oleach\\Charlie\\charlie\\stimuli\\visual\\scap\\load3-28.BMP'
g23
I790
tp41
a(g19
g20
g27
I4
I0
g23
S'C:\\Users\\oleach\\Charlie\\charlie\\stimuli\\visual\\scap\\load4-1.BMP'
S'C:\\Users\\oleach\\Charlie\\charlie\\stimuli\\visual\\scap\\load4-2.BMP'
g23
I840
tp42
a(g19
g20
g27
I4
I1
g22
S'C:\\Users\\oleach\\Charlie\\charlie\\stimuli\\visual\\scap\\load4-3.BMP'
S'C:\\Users\\oleach\\Charlie\\charlie\\stimuli\\visual\\scap\\load4-4.BMP'
g22
I1470
tp43
a(g19
g20
g27
I4
I2
g22
S'C:\\Users\\oleach\\Charlie\\charlie\\stimuli\\visual\\scap\\load4-5.BMP'
S'C:\\Users\\oleach\\Charlie\\charlie\\stimuli\\visual\\scap\\load4-6.BMP'
g22
I1040
tp44
a(g19
g20
g27
I4
I3
g23
S'C:\\Users\\oleach\\Charlie\\charlie\\stimuli\\visual\\scap\\load4-7.BMP'
S'C:\\Users\\oleach\\Charlie\\charlie\\stimuli\\visual\\scap\\load4-8.BMP'
g23
I850
tp45
a(g19
g20
g27
I4
I4
g23
S'C:\\Users\\oleach\\Charlie\\charlie\\stimuli\\visual\\scap\\load4-9.BMP'
S'C:\\Users\\oleach\\Charlie\\charlie\\stimuli\\visual\\scap\\load4-10.BMP'
g23
I960
tp46
a(g19
g20
g27
I4
I5
g22
S'C:\\Users\\oleach\\Charlie\\charlie\\stimuli\\visual\\scap\\load4-11.BMP'
S'C:\\Users\\oleach\\Charlie\\charlie\\stimuli\\visual\\scap\\load4-12.BMP'
g22
I830
tp47
a(g19
g20
g27
I4
I6
g23
S'C:\\Users\\oleach\\Charlie\\charlie\\stimuli\\visual\\scap\\load4-13.BMP'
S'C:\\Users\\oleach\\Charlie\\charlie\\stimuli\\visual\\scap\\load4-14.BMP'
g23
I890
tp48
a(g19
g20
g27
I4
I7
g22
S'C:\\Users\\oleach\\Charlie\\charlie\\stimuli\\visual\\scap\\load4-15.BMP'
S'C:\\Users\\oleach\\Charlie\\charlie\\stimuli\\visual\\scap\\load4-16.BMP'
g23
I1040
tp49
a(g19
g20
g27
I4
I8
g23
S'C:\\Users\\oleach\\Charlie\\charlie\\stimuli\\visual\\scap\\load4-17.BMP'
S'C:\\Users\\oleach\\Charlie\\charlie\\stimuli\\visual\\scap\\load4-18.BMP'
g23
I1150
tp50
a(g19
g20
g27
I4
I9
g22
S'C:\\Users\\oleach\\Charlie\\charlie\\stimuli\\visual\\scap\\load4-19.BMP'
S'C:\\Users\\oleach\\Charlie\\charlie\\stimuli\\visual\\scap\\load4-20.BMP'
g22
I2170
tp51
a(g19
g20
g27
I4
I10
g22
S'C:\\Users\\oleach\\Charlie\\charlie\\stimuli\\visual\\scap\\load4-21.BMP'
S'C:\\Users\\oleach\\Charlie\\charlie\\stimuli\\visual\\scap\\load4-22.BMP'
g23
I1271
tp52
a(g19
g20
g27
I4
I11
g23
S'C:\\Users\\oleach\\Charlie\\charlie\\stimuli\\visual\\scap\\load4-23.BMP'
S'C:\\Users\\oleach\\Charlie\\charlie\\stimuli\\visual\\scap\\load4-24.BMP'
g23
I790
tp53
a(g19
g20
g27
I4
I12
g22
S'C:\\Users\\oleach\\Charlie\\charlie\\stimuli\\visual\\scap\\load4-25.BMP'
S'C:\\Users\\oleach\\Charlie\\charlie\\stimuli\\visual\\scap\\load4-26.BMP'
g22
I960
tp54
a(g19
g20
g27
I4
I13
g23
S'C:\\Users\\oleach\\Charlie\\charlie\\stimuli\\visual\\scap\\load4-27.BMP'
S'C:\\Users\\oleach\\Charlie\\charlie\\stimuli\\visual\\scap\\load4-28.BMP'
g23
I960
tp55
a(g19
g20
g27
I5
I0
g22
S'C:\\Users\\oleach\\Charlie\\charlie\\stimuli\\visual\\scap\\load5-1.BMP'
S'C:\\Users\\oleach\\Charlie\\charlie\\stimuli\\visual\\scap\\load5-2.BMP'
g22
I900
tp56
a(g19
g20
g27
I5
I1
g22
S'C:\\Users\\oleach\\Charlie\\charlie\\stimuli\\visual\\scap\\load5-3.BMP'
S'C:\\Users\\oleach\\Charlie\\charlie\\stimuli\\visual\\scap\\load5-4.BMP'
g23
I960
tp57
a(g19
g20
g27
I5
I2
g22
S'C:\\Users\\oleach\\Charlie\\charlie\\stimuli\\visual\\scap\\load5-5.BMP'
S'C:\\Users\\oleach\\Charlie\\charlie\\stimuli\\visual\\scap\\load5-6.BMP'
g23
I980
tp58
a(g19
g20
g27
I5
I3
g22
S'C:\\Users\\oleach\\Charlie\\charlie\\stimuli\\visual\\scap\\load5-7.BMP'
S'C:\\Users\\oleach\\Charlie\\charlie\\stimuli\\visual\\scap\\load5-8.BMP'
g22
I1271
tp59
a(g19
g20
g27
I5
I4
g22
S'C:\\Users\\oleach\\Charlie\\charlie\\stimuli\\visual\\scap\\load5-9.BMP'
S'C:\\Users\\oleach\\Charlie\\charlie\\stimuli\\visual\\scap\\load5-10.BMP'
g22
I1240
tp60
a(g19
g20
g27
I5
I5
g22
S'C:\\Users\\oleach\\Charlie\\charlie\\stimuli\\visual\\scap\\load5-11.BMP'
S'C:\\Users\\oleach\\Charlie\\charlie\\stimuli\\visual\\scap\\load5-12.BMP'
g22
I1500
tp61
a(g19
g20
g27
I5
I6
g23
S'C:\\Users\\oleach\\Charlie\\charlie\\stimuli\\visual\\scap\\load5-13.BMP'
S'C:\\Users\\oleach\\Charlie\\charlie\\stimuli\\visual\\scap\\load5-14.BMP'
g23
I1180
tp62
a(g19
g20
g27
I5
I7
g23
S'C:\\Users\\oleach\\Charlie\\charlie\\stimuli\\visual\\scap\\load5-15.BMP'
S'C:\\Users\\oleach\\Charlie\\charlie\\stimuli\\visual\\scap\\load5-16.BMP'
g23
I970
tp63
a(g19
g20
g27
I5
I8
g23
S'C:\\Users\\oleach\\Charlie\\charlie\\stimuli\\visual\\scap\\load5-17.BMP'
S'C:\\Users\\oleach\\Charlie\\charlie\\stimuli\\visual\\scap\\load5-18.BMP'
g23
I1090
tp64
a(g19
g20
g27
I5
I9
g23
S'C:\\Users\\oleach\\Charlie\\charlie\\stimuli\\visual\\scap\\load5-19.BMP'
S'C:\\Users\\oleach\\Charlie\\charlie\\stimuli\\visual\\scap\\load5-20.BMP'
g23
I860
tp65
a(g19
g20
g27
I5
I10
g23
S'C:\\Users\\oleach\\Charlie\\charlie\\stimuli\\visual\\scap\\load5-21.BMP'
S'C:\\Users\\oleach\\Charlie\\charlie\\stimuli\\visual\\scap\\load5-22.BMP'
g22
I1240
tp66
a(g19
g20
g27
I5
I11
g22
S'C:\\Users\\oleach\\Charlie\\charlie\\stimuli\\visual\\scap\\load5-23.BMP'
S'C:\\Users\\oleach\\Charlie\\charlie\\stimuli\\visual\\scap\\load5-24.BMP'
g22
I1030
tp67
a(g19
g20
g27
I5
I12
g23
S'C:\\Users\\oleach\\Charlie\\charlie\\stimuli\\visual\\scap\\load5-25.BMP'
S'C:\\Users\\oleach\\Charlie\\charlie\\stimuli\\visual\\scap\\load5-26.BMP'
g23
I1231
tp68
a(g19
g20
g27
I5
I13
g23
S'C:\\Users\\oleach\\Charlie\\charlie\\stimuli\\visual\\scap\\load5-27.BMP'
p69
S'C:\\Users\\oleach\\Charlie\\charlie\\stimuli\\visual\\scap\\load5-28.BMP'
p70
g23
I1040
tp71
asS'output_format'
p72
(lp73
(S'proband_id'
p74
c__builtin__
str
p75
tp76
a(S'test_name'
p77
g75
tp78
a(S'phase'
p79
g75
tp80
a(S'load'
p81
c__builtin__
int
p82
tp83
a(S'trialn'
p84
g82
tp85
a(S'ans'
p86
g75
tp87
a(S'array_f'
p88
g75
tp89
a(S'probe_f'
p90
g75
tp91
a(S'rsp'
p92
g75
tp93
a(S'rt'
p94
g82
tp95
asg74
g19
sS'filename'
p96
S'4460_scap.data'
p97
sS'initialised'
p98
g10
(S'\x07\xdf\t\t\n \x08\x08P\xe8'
tRp99
sg77
S'scap'
p100
sS'directory'
p101
S'C:\\Users\\oleach\\Charlie\\charlie\\data\\raw'
p102
sS'user_id'
p103
S'oleach'
p104
sS'test_started'
p105
I01
sS'abs_filename'
p106
S'C:\\Users\\oleach\\Charlie\\charlie\\data\\raw\\4460_scap.data'
p107
sS'date_started'
p108
g10
(S'\x07\xdf\t\t\n .\x04YH'
tRp109
sS'log'
p110
(lp111
(S'2015-09-09 10:32:08.545000'
S'instance created'
p112
tp113
a(S'2015-09-09 10:32:46.295000'
S'instance updated'
p114
tp115
a(S'2015-09-09 10:32:46.322000'
S'pandas DataFrame of data created'
p116
tp117
a(S'2015-09-09 10:32:46.339000'
g114
tp118
a(S'2015-09-09 10:32:46.341000'
S'data saved as csv to C:\\Users\\oleach\\Charlie\\charlie\\data\\csv\\4460_scap.csv'
tp119
a(S'2015-09-09 10:32:58.181000'
g114
tp120
a(S'2015-09-09 10:32:58.219000'
g116
tp121
a(S'2015-09-09 10:32:58.224000'
g114
tp122
a(S'2015-09-09 10:32:58.225000'
S'data saved as csv to C:\\Users\\oleach\\Charlie\\charlie\\data\\csv\\4460_scap.csv'
tp123
a(S'2015-09-09 10:33:06.876000'
g114
tp124
a(S'2015-09-09 10:33:06.935000'
g116
tp125
a(S'2015-09-09 10:33:06.944000'
g114
tp126
a(S'2015-09-09 10:33:06.947000'
S'data saved as csv to C:\\Users\\oleach\\Charlie\\charlie\\data\\csv\\4460_scap.csv'
tp127
a(S'2015-09-09 10:33:22.881000'
g114
tp128
a(S'2015-09-09 10:33:22.957000'
g116
tp129
a(S'2015-09-09 10:33:22.966000'
g114
tp130
a(S'2015-09-09 10:33:22.969000'
S'data saved as csv to C:\\Users\\oleach\\Charlie\\charlie\\data\\csv\\4460_scap.csv'
tp131
a(S'2015-09-09 10:33:29.979000'
g114
tp132
a(S'2015-09-09 10:33:30.069000'
g116
tp133
a(S'2015-09-09 10:33:30.078000'
g114
tp134
a(S'2015-09-09 10:33:30.081000'
S'data saved as csv to C:\\Users\\oleach\\Charlie\\charlie\\data\\csv\\4460_scap.csv'
tp135
a(S'2015-09-09 10:33:37.191000'
g114
tp136
a(S'2015-09-09 10:33:37.298000'
g116
tp137
a(S'2015-09-09 10:33:37.307000'
g114
tp138
a(S'2015-09-09 10:33:37.310000'
S'data saved as csv to C:\\Users\\oleach\\Charlie\\charlie\\data\\csv\\4460_scap.csv'
tp139
a(S'2015-09-09 10:33:44.351000'
g114
tp140
a(S'2015-09-09 10:33:44.473000'
g116
tp141
a(S'2015-09-09 10:33:44.481000'
g114
tp142
a(S'2015-09-09 10:33:44.485000'
S'data saved as csv to C:\\Users\\oleach\\Charlie\\charlie\\data\\csv\\4460_scap.csv'
tp143
a(S'2015-09-09 10:33:51.504000'
g114
tp144
a(S'2015-09-09 10:33:51.603000'
g116
tp145
a(S'2015-09-09 10:33:51.608000'
g114
tp146
a(S'2015-09-09 10:33:51.611000'
S'data saved as csv to C:\\Users\\oleach\\Charlie\\charlie\\data\\csv\\4460_scap.csv'
tp147
a(S'2015-09-09 10:33:59.530000'
g114
tp148
a(S'2015-09-09 10:33:59.682000'
g116
tp149
a(S'2015-09-09 10:33:59.691000'
g114
tp150
a(S'2015-09-09 10:33:59.695000'
S'data saved as csv to C:\\Users\\oleach\\Charlie\\charlie\\data\\csv\\4460_scap.csv'
tp151
a(S'2015-09-09 10:34:06.755000'
g114
tp152
a(S'2015-09-09 10:34:06.923000'
g116
tp153
a(S'2015-09-09 10:34:06.932000'
g114
tp154
a(S'2015-09-09 10:34:06.935000'
S'data saved as csv to C:\\Users\\oleach\\Charlie\\charlie\\data\\csv\\4460_scap.csv'
tp155
a(S'2015-09-09 10:34:13.916000'
g114
tp156
a(S'2015-09-09 10:34:14.029000'
g116
tp157
a(S'2015-09-09 10:34:14.034000'
g114
tp158
a(S'2015-09-09 10:34:14.036000'
S'data saved as csv to C:\\Users\\oleach\\Charlie\\charlie\\data\\csv\\4460_scap.csv'
tp159
a(S'2015-09-09 10:34:22.004000'
g114
tp160
a(S'2015-09-09 10:34:22.203000'
g116
tp161
a(S'2015-09-09 10:34:22.212000'
g114
tp162
a(S'2015-09-09 10:34:22.215000'
S'data saved as csv to C:\\Users\\oleach\\Charlie\\charlie\\data\\csv\\4460_scap.csv'
tp163
a(S'2015-09-09 10:34:29.406000'
g114
tp164
a(S'2015-09-09 10:34:29.621000'
g116
tp165
a(S'2015-09-09 10:34:29.630000'
g114
tp166
a(S'2015-09-09 10:34:29.633000'
S'data saved as csv to C:\\Users\\oleach\\Charlie\\charlie\\data\\csv\\4460_scap.csv'
tp167
a(S'2015-09-09 10:34:36.724000'
g114
tp168
a(S'2015-09-09 10:34:36.875000'
g116
tp169
a(S'2015-09-09 10:34:36.881000'
g114
tp170
a(S'2015-09-09 10:34:36.883000'
S'data saved as csv to C:\\Users\\oleach\\Charlie\\charlie\\data\\csv\\4460_scap.csv'
tp171
a(S'2015-09-09 10:34:44.022000'
g114
tp172
a(S'2015-09-09 10:34:44.270000'
g116
tp173
a(S'2015-09-09 10:34:44.279000'
g114
tp174
a(S'2015-09-09 10:34:44.283000'
S'data saved as csv to C:\\Users\\oleach\\Charlie\\charlie\\data\\csv\\4460_scap.csv'
tp175
a(S'2015-09-09 10:34:51.204000'
g114
tp176
a(S'2015-09-09 10:34:51.356000'
g116
tp177
a(S'2015-09-09 10:34:51.361000'
g114
tp178
a(S'2015-09-09 10:34:51.364000'
S'data saved as csv to C:\\Users\\oleach\\Charlie\\charlie\\data\\csv\\4460_scap.csv'
tp179
a(S'2015-09-09 10:34:58.293000'
g114
tp180
a(S'2015-09-09 10:34:58.471000'
g116
tp181
a(S'2015-09-09 10:34:58.476000'
g114
tp182
a(S'2015-09-09 10:34:58.478000'
S'data saved as csv to C:\\Users\\oleach\\Charlie\\charlie\\data\\csv\\4460_scap.csv'
tp183
a(S'2015-09-09 10:35:05.457000'
g114
tp184
a(S'2015-09-09 10:35:05.749000'
g116
tp185
a(S'2015-09-09 10:35:05.758000'
g114
tp186
a(S'2015-09-09 10:35:05.762000'
S'data saved as csv to C:\\Users\\oleach\\Charlie\\charlie\\data\\csv\\4460_scap.csv'
tp187
a(S'2015-09-09 10:35:13.372000'
g114
tp188
a(S'2015-09-09 10:35:13.587000'
g116
tp189
a(S'2015-09-09 10:35:13.594000'
g114
tp190
a(S'2015-09-09 10:35:13.596000'
S'data saved as csv to C:\\Users\\oleach\\Charlie\\charlie\\data\\csv\\4460_scap.csv'
tp191
a(S'2015-09-09 10:35:20.774000'
g114
tp192
a(S'2015-09-09 10:35:21.097000'
g116
tp193
a(S'2015-09-09 10:35:21.106000'
g114
tp194
a(S'2015-09-09 10:35:21.110000'
S'data saved as csv to C:\\Users\\oleach\\Charlie\\charlie\\data\\csv\\4460_scap.csv'
tp195
a(S'2015-09-09 10:35:28.100000'
g114
tp196
a(S'2015-09-09 10:35:28.336000'
g116
tp197
a(S'2015-09-09 10:35:28.342000'
g114
tp198
a(S'2015-09-09 10:35:28.345000'
S'data saved as csv to C:\\Users\\oleach\\Charlie\\charlie\\data\\csv\\4460_scap.csv'
tp199
a(S'2015-09-09 10:35:35.444000'
g114
tp200
a(S'2015-09-09 10:35:35.800000'
g116
tp201
a(S'2015-09-09 10:35:35.809000'
g114
tp202
a(S'2015-09-09 10:35:35.812000'
S'data saved as csv to C:\\Users\\oleach\\Charlie\\charlie\\data\\csv\\4460_scap.csv'
tp203
a(S'2015-09-09 10:35:42.783000'
g114
tp204
a(S'2015-09-09 10:35:43.155000'
g116
tp205
a(S'2015-09-09 10:35:43.165000'
g114
tp206
a(S'2015-09-09 10:35:43.168000'
S'data saved as csv to C:\\Users\\oleach\\Charlie\\charlie\\data\\csv\\4460_scap.csv'
tp207
a(S'2015-09-09 10:35:50.198000'
g114
tp208
a(S'2015-09-09 10:35:50.459000'
g116
tp209
a(S'2015-09-09 10:35:50.466000'
g114
tp210
a(S'2015-09-09 10:35:50.468000'
S'data saved as csv to C:\\Users\\oleach\\Charlie\\charlie\\data\\csv\\4460_scap.csv'
tp211
a(S'2015-09-09 10:35:57.647000'
g114
tp212
a(S'2015-09-09 10:35:58.048000'
g116
tp213
a(S'2015-09-09 10:35:58.058000'
g114
tp214
a(S'2015-09-09 10:35:58.061000'
S'data saved as csv to C:\\Users\\oleach\\Charlie\\charlie\\data\\csv\\4460_scap.csv'
tp215
a(S'2015-09-09 10:36:05.352000'
g114
tp216
a(S'2015-09-09 10:36:05.771000'
g116
tp217
a(S'2015-09-09 10:36:05.780000'
g114
tp218
a(S'2015-09-09 10:36:05.784000'
S'data saved as csv to C:\\Users\\oleach\\Charlie\\charlie\\data\\csv\\4460_scap.csv'
tp219
a(S'2015-09-09 10:36:14.094000'
g114
tp220
a(S'2015-09-09 10:36:14.390000'
g116
tp221
a(S'2015-09-09 10:36:14.397000'
g114
tp222
a(S'2015-09-09 10:36:14.399000'
S'data saved as csv to C:\\Users\\oleach\\Charlie\\charlie\\data\\csv\\4460_scap.csv'
tp223
a(S'2015-09-09 10:36:21.805000'
g114
tp224
a(S'2015-09-09 10:36:22.110000'
g116
tp225
a(S'2015-09-09 10:36:22.116000'
g114
tp226
a(S'2015-09-09 10:36:22.119000'
S'data saved as csv to C:\\Users\\oleach\\Charlie\\charlie\\data\\csv\\4460_scap.csv'
tp227
a(S'2015-09-09 10:36:29.049000'
g114
tp228
a(S'2015-09-09 10:36:29.209000'
g116
tp229
a(S'2015-09-09 10:36:29.211000'
g114
tp230
a(S'2015-09-09 10:36:29.212000'
S'data saved as csv to C:\\Users\\oleach\\Charlie\\charlie\\data\\csv\\4460_scap.csv'
tp231
a(S'2015-09-09 10:36:36.310000'
g114
tp232
a(S'2015-09-09 10:36:36.602000'
g116
tp233
a(S'2015-09-09 10:36:36.608000'
g114
tp234
a(S'2015-09-09 10:36:36.610000'
S'data saved as csv to C:\\Users\\oleach\\Charlie\\charlie\\data\\csv\\4460_scap.csv'
tp235
a(S'2015-09-09 10:36:43.709000'
g114
tp236
a(S'2015-09-09 10:36:44.002000'
g116
tp237
a(S'2015-09-09 10:36:44.008000'
g114
tp238
a(S'2015-09-09 10:36:44.010000'
S'data saved as csv to C:\\Users\\oleach\\Charlie\\charlie\\data\\csv\\4460_scap.csv'
tp239
a(S'2015-09-09 10:36:51.048000'
g114
tp240
a(S'2015-09-09 10:36:51.560000'
g116
tp241
a(S'2015-09-09 10:36:51.569000'
g114
tp242
a(S'2015-09-09 10:36:51.573000'
S'data saved as csv to C:\\Users\\oleach\\Charlie\\charlie\\data\\csv\\4460_scap.csv'
tp243
a(S'2015-09-09 10:36:58.675000'
g114
tp244
a(S'2015-09-09 10:36:58.988000'
g116
tp245
a(S'2015-09-09 10:36:58.993000'
g114
tp246
a(S'2015-09-09 10:36:58.996000'
S'data saved as csv to C:\\Users\\oleach\\Charlie\\charlie\\data\\csv\\4460_scap.csv'
tp247
a(S'2015-09-09 10:37:06.116000'
g114
tp248
a(S'2015-09-09 10:37:06.437000'
g116
tp249
a(S'2015-09-09 10:37:06.443000'
g114
tp250
a(S'2015-09-09 10:37:06.445000'
S'data saved as csv to C:\\Users\\oleach\\Charlie\\charlie\\data\\csv\\4460_scap.csv'
tp251
a(S'2015-09-09 10:37:13.855000'
g114
tp252
a(S'2015-09-09 10:37:14.188000'
g116
tp253
a(S'2015-09-09 10:37:14.194000'
g114
tp254
a(S'2015-09-09 10:37:14.196000'
S'data saved as csv to C:\\Users\\oleach\\Charlie\\charlie\\data\\csv\\4460_scap.csv'
tp255
a(S'2015-09-09 10:37:21.575000'
g114
tp256
a(S'2015-09-09 10:37:21.911000'
g116
tp257
a(S'2015-09-09 10:37:21.917000'
g114
tp258
a(S'2015-09-09 10:37:21.919000'
S'data saved as csv to C:\\Users\\oleach\\Charlie\\charlie\\data\\csv\\4460_scap.csv'
tp259
a(S'2015-09-09 10:37:29.559000'
g114
tp260
a(S'2015-09-09 10:37:29.957000'
g116
tp261
a(S'2015-09-09 10:37:29.964000'
g114
tp262
a(S'2015-09-09 10:37:29.966000'
S'data saved as csv to C:\\Users\\oleach\\Charlie\\charlie\\data\\csv\\4460_scap.csv'
tp263
a(S'2015-09-09 10:37:37.287000'
g114
tp264
a(S'2015-09-09 10:37:37.645000'
g116
tp265
a(S'2015-09-09 10:37:37.650000'
g114
tp266
a(S'2015-09-09 10:37:37.653000'
S'data saved as csv to C:\\Users\\oleach\\Charlie\\charlie\\data\\csv\\4460_scap.csv'
tp267
a(S'2015-09-09 10:37:44.763000'
g114
tp268
a(S'2015-09-09 10:37:45.138000'
g116
tp269
a(S'2015-09-09 10:37:45.141000'
g114
tp270
a(S'2015-09-09 10:37:45.142000'
S'data saved as csv to C:\\Users\\oleach\\Charlie\\charlie\\data\\csv\\4460_scap.csv'
tp271
a(S'2015-09-09 10:37:52.372000'
g114
tp272
a(S'2015-09-09 10:37:52.807000'
g116
tp273
a(S'2015-09-09 10:37:52.813000'
g114
tp274
a(S'2015-09-09 10:37:52.816000'
S'data saved as csv to C:\\Users\\oleach\\Charlie\\charlie\\data\\csv\\4460_scap.csv'
tp275
a(S'2015-09-09 10:37:59.815000'
g114
tp276
a(S'2015-09-09 10:38:00.465000'
g116
tp277
a(S'2015-09-09 10:38:00.475000'
g114
tp278
a(S'2015-09-09 10:38:00.479000'
S'data saved as csv to C:\\Users\\oleach\\Charlie\\charlie\\data\\csv\\4460_scap.csv'
tp279
a(S'2015-09-09 10:38:07.861000'
g114
tp280
a(S'2015-09-09 10:38:08.529000'
g116
tp281
a(S'2015-09-09 10:38:08.539000'
g114
tp282
a(S'2015-09-09 10:38:08.543000'
S'data saved as csv to C:\\Users\\oleach\\Charlie\\charlie\\data\\csv\\4460_scap.csv'
tp283
a(S'2015-09-09 10:38:15.715000'
g114
tp284
a(S'2015-09-09 10:38:16.361000'
g116
tp285
a(S'2015-09-09 10:38:16.367000'
g114
tp286
a(S'2015-09-09 10:38:16.371000'
S'data saved as csv to C:\\Users\\oleach\\Charlie\\charlie\\data\\csv\\4460_scap.csv'
tp287
a(S'2015-09-09 10:38:23.741000'
g114
tp288
a(S'2015-09-09 10:38:24.146000'
g116
tp289
a(S'2015-09-09 10:38:24.152000'
g114
tp290
a(S'2015-09-09 10:38:24.154000'
S'data saved as csv to C:\\Users\\oleach\\Charlie\\charlie\\data\\csv\\4460_scap.csv'
tp291
a(S'2015-09-09 10:38:31.333000'
g114
tp292
a(S'2015-09-09 10:38:32.045000'
g116
tp293
a(S'2015-09-09 10:38:32.055000'
g114
tp294
a(S'2015-09-09 10:38:32.059000'
S'data saved as csv to C:\\Users\\oleach\\Charlie\\charlie\\data\\csv\\4460_scap.csv'
tp295
a(S'2015-09-09 10:38:32.069000'
g114
tp296
asb.