(icharlie.tools.data
Data
p1
(dp2
S'lang'
p3
S'EN'
p4
sS'control'
p5
(lp6
sS'last_updated'
p7
S'2015-09-09 10:05:01.605000'
p8
sS'last_opened'
p9
cdatetime
datetime
p10
(S'\x07\xdf\t\t\n\x02\x00\x07\xd0\x00'
tRp11
sS'proj_id'
p12
S'connectivity'
p13
sS'date_done'
p14
g10
(S'\x07\xdf\t\t\n\x05\x01\t;H'
tRp15
sS'test_done'
p16
I01
sS'data'
p17
(lp18
(S'4460'
p19
S'digit_symbol'
p20
S'practice'
p21
I0
I2
I2
S'Yes'
p22
S'C:\\Users\\oleach\\Charlie\\charlie\\stimuli\\visual\\digit_symbol\\sym2.bmp'
g22
I3550
tp23
a(g19
g20
g21
I1
I6
I6
g22
S'C:\\Users\\oleach\\Charlie\\charlie\\stimuli\\visual\\digit_symbol\\sym6.bmp'
g22
I2270
tp24
a(g19
g20
g21
I2
I8
I4
S'No'
p25
S'C:\\Users\\oleach\\Charlie\\charlie\\stimuli\\visual\\digit_symbol\\sym4.bmp'
g25
I2030
tp26
a(g19
g20
g21
I3
I4
I4
g22
S'C:\\Users\\oleach\\Charlie\\charlie\\stimuli\\visual\\digit_symbol\\sym4.bmp'
g22
I1810
tp27
a(g19
g20
g21
I4
I7
I7
g22
S'C:\\Users\\oleach\\Charlie\\charlie\\stimuli\\visual\\digit_symbol\\sym7.bmp'
g22
I1690
tp28
a(g19
g20
g21
I5
I6
I5
g25
S'C:\\Users\\oleach\\Charlie\\charlie\\stimuli\\visual\\digit_symbol\\sym5.bmp'
g25
I1890
tp29
a(g19
g20
g21
I6
I2
I8
g25
S'C:\\Users\\oleach\\Charlie\\charlie\\stimuli\\visual\\digit_symbol\\sym8.bmp'
g25
I1880
tp30
a(g19
g20
g21
I7
I9
I2
g25
S'C:\\Users\\oleach\\Charlie\\charlie\\stimuli\\visual\\digit_symbol\\sym2.bmp'
g25
I1841
tp31
a(g19
g20
g21
I8
I3
I7
g25
S'C:\\Users\\oleach\\Charlie\\charlie\\stimuli\\visual\\digit_symbol\\sym7.bmp'
g25
I1870
tp32
a(g19
g20
g21
I9
I5
I6
g25
S'C:\\Users\\oleach\\Charlie\\charlie\\stimuli\\visual\\digit_symbol\\sym6.bmp'
g25
I1980
tp33
a(g19
g20
S'test'
p34
I0
I8
I8
g22
S'C:\\Users\\oleach\\Charlie\\charlie\\stimuli\\visual\\digit_symbol\\sym8.bmp'
g22
I2606
tp35
a(g19
g20
g34
I1
I1
I4
g25
S'C:\\Users\\oleach\\Charlie\\charlie\\stimuli\\visual\\digit_symbol\\sym4.bmp'
g22
I1103
tp36
a(g19
g20
g34
I2
I2
I8
g25
S'C:\\Users\\oleach\\Charlie\\charlie\\stimuli\\visual\\digit_symbol\\sym8.bmp'
g25
I2603
tp37
a(g19
g20
g34
I3
I6
I2
g25
S'C:\\Users\\oleach\\Charlie\\charlie\\stimuli\\visual\\digit_symbol\\sym2.bmp'
g25
I2003
tp38
a(g19
g20
g34
I4
I4
I4
g22
S'C:\\Users\\oleach\\Charlie\\charlie\\stimuli\\visual\\digit_symbol\\sym4.bmp'
g22
I2203
tp39
a(g19
g20
g34
I5
I9
I5
g25
S'C:\\Users\\oleach\\Charlie\\charlie\\stimuli\\visual\\digit_symbol\\sym5.bmp'
g25
I2204
tp40
a(g19
g20
g34
I6
I5
I6
g25
S'C:\\Users\\oleach\\Charlie\\charlie\\stimuli\\visual\\digit_symbol\\sym6.bmp'
g25
I1703
tp41
a(g19
g20
g34
I7
I3
I3
g22
S'C:\\Users\\oleach\\Charlie\\charlie\\stimuli\\visual\\digit_symbol\\sym3.bmp'
g22
I1803
tp42
a(g19
g20
g34
I8
I4
I4
g22
S'C:\\Users\\oleach\\Charlie\\charlie\\stimuli\\visual\\digit_symbol\\sym4.bmp'
g22
I1503
tp43
a(g19
g20
g34
I9
I9
I9
g22
S'C:\\Users\\oleach\\Charlie\\charlie\\stimuli\\visual\\digit_symbol\\sym9.bmp'
g22
I1703
tp44
a(g19
g20
g34
I10
I6
I6
g22
S'C:\\Users\\oleach\\Charlie\\charlie\\stimuli\\visual\\digit_symbol\\sym6.bmp'
g22
I1603
tp45
a(g19
g20
g34
I11
I1
I1
g22
S'C:\\Users\\oleach\\Charlie\\charlie\\stimuli\\visual\\digit_symbol\\sym1.bmp'
g22
I1403
tp46
a(g19
g20
g34
I12
I2
I2
g22
S'C:\\Users\\oleach\\Charlie\\charlie\\stimuli\\visual\\digit_symbol\\sym2.bmp'
g22
I1203
tp47
a(g19
g20
g34
I13
I7
I7
g22
S'C:\\Users\\oleach\\Charlie\\charlie\\stimuli\\visual\\digit_symbol\\sym7.bmp'
g22
I1804
tp48
a(g19
g20
g34
I14
I3
I3
g22
S'C:\\Users\\oleach\\Charlie\\charlie\\stimuli\\visual\\digit_symbol\\sym3.bmp'
g22
I2203
tp49
a(g19
g20
g34
I15
I8
I8
g22
S'C:\\Users\\oleach\\Charlie\\charlie\\stimuli\\visual\\digit_symbol\\sym8.bmp'
g22
I1704
tp50
a(g19
g20
g34
I16
I7
I7
g22
S'C:\\Users\\oleach\\Charlie\\charlie\\stimuli\\visual\\digit_symbol\\sym7.bmp'
g22
I1303
tp51
a(g19
g20
g34
I17
I5
I3
g25
S'C:\\Users\\oleach\\Charlie\\charlie\\stimuli\\visual\\digit_symbol\\sym3.bmp'
g25
I2203
tp52
a(g19
g20
g34
I18
I1
I5
g25
S'C:\\Users\\oleach\\Charlie\\charlie\\stimuli\\visual\\digit_symbol\\sym5.bmp'
g25
I1403
tp53
a(g19
g20
g34
I19
I4
I4
g22
S'C:\\Users\\oleach\\Charlie\\charlie\\stimuli\\visual\\digit_symbol\\sym4.bmp'
g22
I2003
tp54
a(g19
g20
g34
I20
I7
I8
g25
S'C:\\Users\\oleach\\Charlie\\charlie\\stimuli\\visual\\digit_symbol\\sym8.bmp'
g25
I2103
tp55
a(g19
g20
g34
I21
I4
I4
g22
S'C:\\Users\\oleach\\Charlie\\charlie\\stimuli\\visual\\digit_symbol\\sym4.bmp'
g22
I1703
tp56
a(g19
g20
g34
I22
I8
I8
g22
S'C:\\Users\\oleach\\Charlie\\charlie\\stimuli\\visual\\digit_symbol\\sym8.bmp'
g22
I1803
tp57
a(g19
g20
g34
I23
I3
I3
g22
S'C:\\Users\\oleach\\Charlie\\charlie\\stimuli\\visual\\digit_symbol\\sym3.bmp'
g22
I1503
tp58
a(g19
g20
g34
I24
I5
I5
g22
S'C:\\Users\\oleach\\Charlie\\charlie\\stimuli\\visual\\digit_symbol\\sym5.bmp'
g22
I1604
tp59
a(g19
g20
g34
I25
I3
I1
g25
S'C:\\Users\\oleach\\Charlie\\charlie\\stimuli\\visual\\digit_symbol\\sym1.bmp'
g25
I2303
tp60
a(g19
g20
g34
I26
I6
I9
g25
S'C:\\Users\\oleach\\Charlie\\charlie\\stimuli\\visual\\digit_symbol\\sym9.bmp'
g25
I2003
tp61
a(g19
g20
g34
I27
I2
I2
g22
S'C:\\Users\\oleach\\Charlie\\charlie\\stimuli\\visual\\digit_symbol\\sym2.bmp'
g22
I1604
tp62
a(g19
g20
g34
I28
I8
I8
g22
S'C:\\Users\\oleach\\Charlie\\charlie\\stimuli\\visual\\digit_symbol\\sym8.bmp'
g22
I1703
tp63
a(g19
g20
g34
I29
I9
I2
g25
S'C:\\Users\\oleach\\Charlie\\charlie\\stimuli\\visual\\digit_symbol\\sym2.bmp'
g25
I1803
tp64
a(g19
g20
g34
I30
I1
I6
g25
S'C:\\Users\\oleach\\Charlie\\charlie\\stimuli\\visual\\digit_symbol\\sym6.bmp'
g25
I1603
tp65
a(g19
g20
g34
I31
I5
I4
g25
S'C:\\Users\\oleach\\Charlie\\charlie\\stimuli\\visual\\digit_symbol\\sym4.bmp'
g25
I1603
tp66
a(g19
g20
g34
I32
I6
I6
g22
S'C:\\Users\\oleach\\Charlie\\charlie\\stimuli\\visual\\digit_symbol\\sym6.bmp'
g22
I1503
tp67
a(g19
g20
g34
I33
I2
I2
g22
S'C:\\Users\\oleach\\Charlie\\charlie\\stimuli\\visual\\digit_symbol\\sym2.bmp'
g22
I1703
tp68
a(g19
g20
g34
I34
I9
I9
g22
S'C:\\Users\\oleach\\Charlie\\charlie\\stimuli\\visual\\digit_symbol\\sym9.bmp'
g22
I1903
tp69
a(g19
g20
g34
I35
I7
I7
g22
S'C:\\Users\\oleach\\Charlie\\charlie\\stimuli\\visual\\digit_symbol\\sym7.bmp'
g22
I1603
tp70
a(g19
g20
g34
I36
I3
I3
g22
S'C:\\Users\\oleach\\Charlie\\charlie\\stimuli\\visual\\digit_symbol\\sym3.bmp'
g22
I1603
tp71
a(g19
g20
g34
I37
I1
I8
g25
S'C:\\Users\\oleach\\Charlie\\charlie\\stimuli\\visual\\digit_symbol\\sym8.bmp'
g25
I1403
tp72
a(g19
g20
g34
I38
I6
I6
g22
S'C:\\Users\\oleach\\Charlie\\charlie\\stimuli\\visual\\digit_symbol\\sym6.bmp'
g22
I1903
tp73
a(g19
g20
g34
I39
I7
I7
g22
S'C:\\Users\\oleach\\Charlie\\charlie\\stimuli\\visual\\digit_symbol\\sym7.bmp'
g22
I1503
tp74
a(g19
g20
g34
I40
I9
I5
g25
S'C:\\Users\\oleach\\Charlie\\charlie\\stimuli\\visual\\digit_symbol\\sym5.bmp'
g25
I1603
tp75
a(g19
g20
g34
I41
I7
I9
g25
S'C:\\Users\\oleach\\Charlie\\charlie\\stimuli\\visual\\digit_symbol\\sym9.bmp'
g25
I1603
tp76
a(g19
g20
g34
I42
I5
I7
g25
S'C:\\Users\\oleach\\Charlie\\charlie\\stimuli\\visual\\digit_symbol\\sym7.bmp'
g25
I1403
tp77
a(g19
g20
g34
I43
I2
I2
g22
S'C:\\Users\\oleach\\Charlie\\charlie\\stimuli\\visual\\digit_symbol\\sym2.bmp'
g22
I1503
tp78
a(g19
g20
g34
I44
I1
I1
g22
S'C:\\Users\\oleach\\Charlie\\charlie\\stimuli\\visual\\digit_symbol\\sym1.bmp'
g22
I1404
tp79
a(g19
g20
g34
I45
I6
I4
g25
S'C:\\Users\\oleach\\Charlie\\charlie\\stimuli\\visual\\digit_symbol\\sym4.bmp'
g22
I1603
tp80
a(g19
g20
g34
I46
I8
I3
g25
S'C:\\Users\\oleach\\Charlie\\charlie\\stimuli\\visual\\digit_symbol\\sym3.bmp'
g25
I2003
tp81
a(g19
g20
g34
I47
I2
I2
g22
S'C:\\Users\\oleach\\Charlie\\charlie\\stimuli\\visual\\digit_symbol\\sym2.bmp'
g22
I1603
tp82
asS'output_format'
p83
(lp84
(S'proband_id'
p85
c__builtin__
str
p86
tp87
a(S'test_name'
p88
g86
tp89
a(S'phase'
p90
g86
tp91
a(S'trialn'
p92
c__builtin__
int
p93
tp94
a(S'digit'
p95
g93
tp96
a(S'symbol'
p97
g93
tp98
a(S'ans'
p99
g86
tp100
a(S'f'
g86
tp101
a(S'rsp'
p102
g86
tp103
a(S'rt'
p104
g93
tp105
asg85
g19
sS'filename'
p106
S'4460_digit_symbol.data'
p107
sS'initialised'
p108
g10
(S'\x07\xdf\t\t\n\x02\x00\x07\xd0\x00'
tRp109
sg88
S'digit_symbol'
p110
sS'directory'
p111
S'C:\\Users\\oleach\\Charlie\\charlie\\data\\raw'
p112
sS'user_id'
p113
S'oleach'
p114
sS'test_started'
p115
I01
sS'abs_filename'
p116
S'C:\\Users\\oleach\\Charlie\\charlie\\data\\raw\\4460_digit_symbol.data'
p117
sS'date_started'
p118
g10
(S'\x07\xdf\t\t\n\x02)\x014\x98'
tRp119
sS'log'
p120
(lp121
(S'2015-09-09 10:02:00.512000'
S'instance created'
p122
tp123
a(S'2015-09-09 10:02:41.089000'
S'instance updated'
p124
tp125
a(S'2015-09-09 10:02:41.112000'
S'pandas DataFrame of data created'
p126
tp127
a(S'2015-09-09 10:02:41.118000'
g124
tp128
a(S'2015-09-09 10:02:41.121000'
S'data saved as csv to C:\\Users\\oleach\\Charlie\\charlie\\data\\csv\\4460_digit_symbol.csv'
tp129
a(S'2015-09-09 10:02:44.414000'
g124
tp130
a(S'2015-09-09 10:02:44.447000'
g126
tp131
a(S'2015-09-09 10:02:44.452000'
g124
tp132
a(S'2015-09-09 10:02:44.454000'
S'data saved as csv to C:\\Users\\oleach\\Charlie\\charlie\\data\\csv\\4460_digit_symbol.csv'
tp133
a(S'2015-09-09 10:02:47.508000'
g124
tp134
a(S'2015-09-09 10:02:47.554000'
g126
tp135
a(S'2015-09-09 10:02:47.562000'
g124
tp136
a(S'2015-09-09 10:02:47.565000'
S'data saved as csv to C:\\Users\\oleach\\Charlie\\charlie\\data\\csv\\4460_digit_symbol.csv'
tp137
a(S'2015-09-09 10:02:50.400000'
g124
tp138
a(S'2015-09-09 10:02:50.457000'
g126
tp139
a(S'2015-09-09 10:02:50.465000'
g124
tp140
a(S'2015-09-09 10:02:50.468000'
S'data saved as csv to C:\\Users\\oleach\\Charlie\\charlie\\data\\csv\\4460_digit_symbol.csv'
tp141
a(S'2015-09-09 10:02:53.184000'
g124
tp142
a(S'2015-09-09 10:02:53.254000'
g126
tp143
a(S'2015-09-09 10:02:53.262000'
g124
tp144
a(S'2015-09-09 10:02:53.266000'
S'data saved as csv to C:\\Users\\oleach\\Charlie\\charlie\\data\\csv\\4460_digit_symbol.csv'
tp145
a(S'2015-09-09 10:02:56.181000'
g124
tp146
a(S'2015-09-09 10:02:56.237000'
g126
tp147
a(S'2015-09-09 10:02:56.242000'
g124
tp148
a(S'2015-09-09 10:02:56.243000'
S'data saved as csv to C:\\Users\\oleach\\Charlie\\charlie\\data\\csv\\4460_digit_symbol.csv'
tp149
a(S'2015-09-09 10:02:59.147000'
g124
tp150
a(S'2015-09-09 10:02:59.238000'
g126
tp151
a(S'2015-09-09 10:02:59.246000'
g124
tp152
a(S'2015-09-09 10:02:59.249000'
S'data saved as csv to C:\\Users\\oleach\\Charlie\\charlie\\data\\csv\\4460_digit_symbol.csv'
tp153
a(S'2015-09-09 10:03:02.115000'
g124
tp154
a(S'2015-09-09 10:03:02.215000'
g126
tp155
a(S'2015-09-09 10:03:02.224000'
g124
tp156
a(S'2015-09-09 10:03:02.227000'
S'data saved as csv to C:\\Users\\oleach\\Charlie\\charlie\\data\\csv\\4460_digit_symbol.csv'
tp157
a(S'2015-09-09 10:03:05.122000'
g124
tp158
a(S'2015-09-09 10:03:05.205000'
g126
tp159
a(S'2015-09-09 10:03:05.210000'
g124
tp160
a(S'2015-09-09 10:03:05.212000'
S'data saved as csv to C:\\Users\\oleach\\Charlie\\charlie\\data\\csv\\4460_digit_symbol.csv'
tp161
a(S'2015-09-09 10:03:08.218000'
g124
tp162
a(S'2015-09-09 10:03:08.342000'
g126
tp163
a(S'2015-09-09 10:03:08.350000'
g124
tp164
a(S'2015-09-09 10:03:08.353000'
S'data saved as csv to C:\\Users\\oleach\\Charlie\\charlie\\data\\csv\\4460_digit_symbol.csv'
tp165
a(S'2015-09-09 10:05:01.372000'
g124
tp166
a(S'2015-09-09 10:05:01.599000'
g126
tp167
a(S'2015-09-09 10:05:01.601000'
g124
tp168
a(S'2015-09-09 10:05:01.602000'
S'data saved as csv to C:\\Users\\oleach\\Charlie\\charlie\\data\\csv\\4460_digit_symbol.csv'
tp169
a(S'2015-09-09 10:05:01.605000'
g124
tp170
asb.