(icharlie.tools.data
Data
p1
(dp2
S'lang'
p3
S'EN'
p4
sS'control'
p5
(lp6
sS'last_updated'
p7
S'2015-09-14 09:28:44.899000'
p8
sS'last_opened'
p9
cdatetime
datetime
p10
(S'\x07\xdf\t\x0e\t\x19#\x054\x08'
tRp11
sS'proj_id'
p12
S'connectivity'
p13
sS'date_done'
p14
g10
(S'\x07\xdf\t\x0e\t\x1c,\r\xb7\xb8'
tRp15
sS'test_done'
p16
I01
sS'data'
p17
(lp18
(S'4461'
p19
S'digit_symbol'
p20
S'practice'
p21
I0
I2
I2
S'Yes'
p22
S'c:\\Charlie\\charlie\\stimuli\\visual\\digit_symbol\\sym2.bmp'
g22
I14121
tp23
a(g19
g20
g21
I1
I6
I6
g22
S'c:\\Charlie\\charlie\\stimuli\\visual\\digit_symbol\\sym6.bmp'
g22
I5720
tp24
a(g19
g20
g21
I2
I8
I4
S'No'
p25
S'c:\\Charlie\\charlie\\stimuli\\visual\\digit_symbol\\sym4.bmp'
g25
I3810
tp26
a(g19
g20
g21
I3
I4
I4
g22
S'c:\\Charlie\\charlie\\stimuli\\visual\\digit_symbol\\sym4.bmp'
g22
I2880
tp27
a(g19
g20
g21
I4
I7
I7
g22
S'c:\\Charlie\\charlie\\stimuli\\visual\\digit_symbol\\sym7.bmp'
g22
I1731
tp28
a(g19
g20
g21
I5
I6
I5
g25
S'c:\\Charlie\\charlie\\stimuli\\visual\\digit_symbol\\sym5.bmp'
g25
I4380
tp29
a(g19
g20
g21
I6
I2
I8
g25
S'c:\\Charlie\\charlie\\stimuli\\visual\\digit_symbol\\sym8.bmp'
g25
I4080
tp30
a(g19
g20
g21
I7
I9
I2
g25
S'c:\\Charlie\\charlie\\stimuli\\visual\\digit_symbol\\sym2.bmp'
g25
I4020
tp31
a(g19
g20
g21
I8
I3
I7
g25
S'c:\\Charlie\\charlie\\stimuli\\visual\\digit_symbol\\sym7.bmp'
g25
I2830
tp32
a(g19
g20
g21
I9
I5
I6
g25
S'c:\\Charlie\\charlie\\stimuli\\visual\\digit_symbol\\sym6.bmp'
g25
I2490
tp33
a(g19
g20
S'test'
p34
I0
I8
I8
g22
S'c:\\Charlie\\charlie\\stimuli\\visual\\digit_symbol\\sym8.bmp'
g22
I2806
tp35
a(g19
g20
g34
I1
I1
I4
g25
S'c:\\Charlie\\charlie\\stimuli\\visual\\digit_symbol\\sym4.bmp'
g25
I2703
tp36
a(g19
g20
g34
I2
I2
I8
g25
S'c:\\Charlie\\charlie\\stimuli\\visual\\digit_symbol\\sym8.bmp'
g25
I2903
tp37
a(g19
g20
g34
I3
I6
I2
g25
S'c:\\Charlie\\charlie\\stimuli\\visual\\digit_symbol\\sym2.bmp'
g25
I4003
tp38
a(g19
g20
g34
I4
I4
I4
g22
S'c:\\Charlie\\charlie\\stimuli\\visual\\digit_symbol\\sym4.bmp'
g22
I2603
tp39
a(g19
g20
g34
I5
I9
I5
g25
S'c:\\Charlie\\charlie\\stimuli\\visual\\digit_symbol\\sym5.bmp'
g25
I6205
tp40
a(g19
g20
g34
I6
I5
I6
g25
S'c:\\Charlie\\charlie\\stimuli\\visual\\digit_symbol\\sym6.bmp'
g25
I2203
tp41
a(g19
g20
g34
I7
I3
I3
g22
S'c:\\Charlie\\charlie\\stimuli\\visual\\digit_symbol\\sym3.bmp'
g22
I2103
tp42
a(g19
g20
g34
I8
I4
I4
g22
S'c:\\Charlie\\charlie\\stimuli\\visual\\digit_symbol\\sym4.bmp'
g22
I2703
tp43
a(g19
g20
g34
I9
I9
I9
g22
S'c:\\Charlie\\charlie\\stimuli\\visual\\digit_symbol\\sym9.bmp'
g22
I2203
tp44
a(g19
g20
g34
I10
I6
I6
g22
S'c:\\Charlie\\charlie\\stimuli\\visual\\digit_symbol\\sym6.bmp'
g22
I3004
tp45
a(g19
g20
g34
I11
I1
I1
g22
S'c:\\Charlie\\charlie\\stimuli\\visual\\digit_symbol\\sym1.bmp'
g22
I3104
tp46
a(g19
g20
g34
I12
I2
I2
g22
S'c:\\Charlie\\charlie\\stimuli\\visual\\digit_symbol\\sym2.bmp'
g22
I1603
tp47
a(g19
g20
g34
I13
I7
I7
g22
S'c:\\Charlie\\charlie\\stimuli\\visual\\digit_symbol\\sym7.bmp'
g22
I4004
tp48
a(g19
g20
g34
I14
I3
I3
g22
S'c:\\Charlie\\charlie\\stimuli\\visual\\digit_symbol\\sym3.bmp'
g22
I5803
tp49
a(g19
g20
g34
I15
I8
I8
g22
S'c:\\Charlie\\charlie\\stimuli\\visual\\digit_symbol\\sym8.bmp'
g22
I2804
tp50
a(g19
g20
g34
I16
I7
I7
g22
S'c:\\Charlie\\charlie\\stimuli\\visual\\digit_symbol\\sym7.bmp'
g22
I1603
tp51
a(g19
g20
g34
I17
I5
I3
g25
S'c:\\Charlie\\charlie\\stimuli\\visual\\digit_symbol\\sym3.bmp'
g25
I3003
tp52
a(g19
g20
g34
I18
I1
I5
g25
S'c:\\Charlie\\charlie\\stimuli\\visual\\digit_symbol\\sym5.bmp'
g25
I3203
tp53
a(g19
g20
g34
I19
I4
I4
g22
S'c:\\Charlie\\charlie\\stimuli\\visual\\digit_symbol\\sym4.bmp'
g22
I2003
tp54
a(g19
g20
g34
I20
I7
I8
g25
S'c:\\Charlie\\charlie\\stimuli\\visual\\digit_symbol\\sym8.bmp'
g25
I2503
tp55
a(g19
g20
g34
I21
I4
I4
g22
S'c:\\Charlie\\charlie\\stimuli\\visual\\digit_symbol\\sym4.bmp'
g22
I2503
tp56
a(g19
g20
g34
I22
I8
I8
g22
S'c:\\Charlie\\charlie\\stimuli\\visual\\digit_symbol\\sym8.bmp'
g22
I2304
tp57
a(g19
g20
g34
I23
I3
I3
g22
S'c:\\Charlie\\charlie\\stimuli\\visual\\digit_symbol\\sym3.bmp'
g22
I2803
tp58
a(g19
g20
g34
I24
I5
I5
g22
S'c:\\Charlie\\charlie\\stimuli\\visual\\digit_symbol\\sym5.bmp'
g22
I2503
tp59
a(g19
g20
g34
I25
I3
I1
g25
S'c:\\Charlie\\charlie\\stimuli\\visual\\digit_symbol\\sym1.bmp'
g25
I3303
tp60
a(g19
g20
g34
I26
I6
I9
g25
S'c:\\Charlie\\charlie\\stimuli\\visual\\digit_symbol\\sym9.bmp'
g25
I3203
tp61
a(g19
g20
g34
I27
I2
I2
g22
S'c:\\Charlie\\charlie\\stimuli\\visual\\digit_symbol\\sym2.bmp'
g22
I1904
tp62
a(g19
g20
g34
I28
I8
I8
g22
S'c:\\Charlie\\charlie\\stimuli\\visual\\digit_symbol\\sym8.bmp'
g22
I2403
tp63
a(g19
g20
g34
I29
I9
I2
g25
S'c:\\Charlie\\charlie\\stimuli\\visual\\digit_symbol\\sym2.bmp'
g25
I2704
tp64
asS'output_format'
p65
(lp66
(S'proband_id'
p67
c__builtin__
str
p68
tp69
a(S'test_name'
p70
g68
tp71
a(S'phase'
p72
g68
tp73
a(S'trialn'
p74
c__builtin__
int
p75
tp76
a(S'digit'
p77
g75
tp78
a(S'symbol'
p79
g75
tp80
a(S'ans'
p81
g68
tp82
a(S'f'
g68
tp83
a(S'rsp'
p84
g68
tp85
a(S'rt'
p86
g75
tp87
asg67
g19
sS'filename'
p88
S'4461_digit_symbol.data'
p89
sS'initialised'
p90
g10
(S'\x07\xdf\t\x0e\t\x19#\x054\x08'
tRp91
sg70
S'digit_symbol'
p92
sS'directory'
p93
S'c:\\Charlie\\charlie\\data\\raw'
p94
sS'user_id'
p95
S'sbuccheri'
p96
sS'test_started'
p97
I01
sS'abs_filename'
p98
S'c:\\Charlie\\charlie\\data\\raw\\4461_digit_symbol.data'
p99
sS'date_started'
p100
g10
(S'\x07\xdf\t\x0e\t\x1a\x16\x0c{P'
tRp101
sS'log'
p102
(lp103
(S'2015-09-14 09:25:35.341000'
S'instance created'
p104
tp105
a(S'2015-09-14 09:26:22.836000'
S'instance updated'
p106
tp107
a(S'2015-09-14 09:26:22.855000'
S'pandas DataFrame of data created'
p108
tp109
a(S'2015-09-14 09:26:22.860000'
g106
tp110
a(S'2015-09-14 09:26:22.867000'
S'data saved as csv to c:\\Charlie\\charlie\\data\\csv\\4461_digit_symbol.csv'
tp111
a(S'2015-09-14 09:26:29.610000'
g106
tp112
a(S'2015-09-14 09:26:29.640000'
g108
tp113
a(S'2015-09-14 09:26:29.648000'
g106
tp114
a(S'2015-09-14 09:26:29.652000'
S'data saved as csv to c:\\Charlie\\charlie\\data\\csv\\4461_digit_symbol.csv'
tp115
a(S'2015-09-14 09:26:34.486000'
g106
tp116
a(S'2015-09-14 09:26:34.526000'
g108
tp117
a(S'2015-09-14 09:26:34.533000'
g106
tp118
a(S'2015-09-14 09:26:34.537000'
S'data saved as csv to c:\\Charlie\\charlie\\data\\csv\\4461_digit_symbol.csv'
tp119
a(S'2015-09-14 09:26:38.441000'
g106
tp120
a(S'2015-09-14 09:26:38.491000'
g108
tp121
a(S'2015-09-14 09:26:38.499000'
g106
tp122
a(S'2015-09-14 09:26:38.502000'
S'data saved as csv to c:\\Charlie\\charlie\\data\\csv\\4461_digit_symbol.csv'
tp123
a(S'2015-09-14 09:26:41.256000'
g106
tp124
a(S'2015-09-14 09:26:41.316000'
g108
tp125
a(S'2015-09-14 09:26:41.323000'
g106
tp126
a(S'2015-09-14 09:26:41.326000'
S'data saved as csv to c:\\Charlie\\charlie\\data\\csv\\4461_digit_symbol.csv'
tp127
a(S'2015-09-14 09:26:46.731000'
g106
tp128
a(S'2015-09-14 09:26:46.801000'
g108
tp129
a(S'2015-09-14 09:26:46.809000'
g106
tp130
a(S'2015-09-14 09:26:46.813000'
S'data saved as csv to c:\\Charlie\\charlie\\data\\csv\\4461_digit_symbol.csv'
tp131
a(S'2015-09-14 09:26:51.917000'
g106
tp132
a(S'2015-09-14 09:26:51.997000'
g108
tp133
a(S'2015-09-14 09:26:52.005000'
g106
tp134
a(S'2015-09-14 09:26:52.009000'
S'data saved as csv to c:\\Charlie\\charlie\\data\\csv\\4461_digit_symbol.csv'
tp135
a(S'2015-09-14 09:26:57.052000'
g106
tp136
a(S'2015-09-14 09:26:57.141000'
g108
tp137
a(S'2015-09-14 09:26:57.149000'
g106
tp138
a(S'2015-09-14 09:26:57.152000'
S'data saved as csv to c:\\Charlie\\charlie\\data\\csv\\4461_digit_symbol.csv'
tp139
a(S'2015-09-14 09:27:01.007000'
g106
tp140
a(S'2015-09-14 09:27:01.106000'
g108
tp141
a(S'2015-09-14 09:27:01.114000'
g106
tp142
a(S'2015-09-14 09:27:01.118000'
S'data saved as csv to c:\\Charlie\\charlie\\data\\csv\\4461_digit_symbol.csv'
tp143
a(S'2015-09-14 09:27:04.632000'
g106
tp144
a(S'2015-09-14 09:27:04.741000'
g108
tp145
a(S'2015-09-14 09:27:04.749000'
g106
tp146
a(S'2015-09-14 09:27:04.752000'
S'data saved as csv to c:\\Charlie\\charlie\\data\\csv\\4461_digit_symbol.csv'
tp147
a(S'2015-09-14 09:28:44.784000'
g106
tp148
a(S'2015-09-14 09:28:44.893000'
g108
tp149
a(S'2015-09-14 09:28:44.896000'
g106
tp150
a(S'2015-09-14 09:28:44.897000'
S'data saved as csv to c:\\Charlie\\charlie\\data\\csv\\4461_digit_symbol.csv'
tp151
a(S'2015-09-14 09:28:44.899000'
g106
tp152
asb.