(icharlie.tools.data
Data
p1
(dp2
S'lang'
p3
S'EN'
p4
sS'control'
p5
(lp6
sS'last_updated'
p7
S'2015-09-25 10:36:35.161000'
p8
sS'last_opened'
p9
cdatetime
datetime
p10
(S'\x07\xdf\t\x19\n\x1d7\x01W\xc0'
tRp11
sS'proj_id'
p12
S'connectivity'
p13
sS'date_done'
p14
g10
(S'\x07\xdf\t\x19\n$#\x02t\xe8'
tRp15
sS'test_done'
p16
I01
sS'data'
p17
(lp18
(S'4462'
p19
S'scap'
p20
S'practice'
p21
I3
I0
S'Yes'
p22
S'C:\\Users\\oleach\\Charlie\\charlie\\stimuli\\visual\\scap\\practice-1.BMP'
S'C:\\Users\\oleach\\Charlie\\charlie\\stimuli\\visual\\scap\\practice-2.BMP'
g22
I2360
tp23
a(g19
g20
g21
I4
I1
S'No'
p24
S'C:\\Users\\oleach\\Charlie\\charlie\\stimuli\\visual\\scap\\practice-3.BMP'
S'C:\\Users\\oleach\\Charlie\\charlie\\stimuli\\visual\\scap\\practice-4.BMP'
g22
I2490
tp25
a(g19
g20
g21
I5
I2
g22
S'C:\\Users\\oleach\\Charlie\\charlie\\stimuli\\visual\\scap\\practice-5.BMP'
S'C:\\Users\\oleach\\Charlie\\charlie\\stimuli\\visual\\scap\\practice-6.BMP'
g22
I1920
tp26
a(g19
g20
S'test'
p27
I3
I0
g22
S'C:\\Users\\oleach\\Charlie\\charlie\\stimuli\\visual\\scap\\load3-1.BMP'
S'C:\\Users\\oleach\\Charlie\\charlie\\stimuli\\visual\\scap\\load3-2.BMP'
g22
I1850
tp28
a(g19
g20
g27
I3
I1
g24
S'C:\\Users\\oleach\\Charlie\\charlie\\stimuli\\visual\\scap\\load3-3.BMP'
S'C:\\Users\\oleach\\Charlie\\charlie\\stimuli\\visual\\scap\\load3-4.BMP'
g24
I870
tp29
a(g19
g20
g27
I3
I2
g22
S'C:\\Users\\oleach\\Charlie\\charlie\\stimuli\\visual\\scap\\load3-5.BMP'
S'C:\\Users\\oleach\\Charlie\\charlie\\stimuli\\visual\\scap\\load3-6.BMP'
g22
I1360
tp30
a(g19
g20
g27
I3
I3
g22
S'C:\\Users\\oleach\\Charlie\\charlie\\stimuli\\visual\\scap\\load3-7.BMP'
S'C:\\Users\\oleach\\Charlie\\charlie\\stimuli\\visual\\scap\\load3-8.BMP'
g24
I970
tp31
a(g19
g20
g27
I3
I4
g24
S'C:\\Users\\oleach\\Charlie\\charlie\\stimuli\\visual\\scap\\load3-9.BMP'
S'C:\\Users\\oleach\\Charlie\\charlie\\stimuli\\visual\\scap\\load3-10.BMP'
g24
I951
tp32
a(g19
g20
g27
I3
I5
g22
S'C:\\Users\\oleach\\Charlie\\charlie\\stimuli\\visual\\scap\\load3-11.BMP'
S'C:\\Users\\oleach\\Charlie\\charlie\\stimuli\\visual\\scap\\load3-12.BMP'
g22
I1630
tp33
a(g19
g20
g27
I3
I6
g24
S'C:\\Users\\oleach\\Charlie\\charlie\\stimuli\\visual\\scap\\load3-13.BMP'
S'C:\\Users\\oleach\\Charlie\\charlie\\stimuli\\visual\\scap\\load3-14.BMP'
g24
I1090
tp34
a(g19
g20
g27
I3
I7
g24
S'C:\\Users\\oleach\\Charlie\\charlie\\stimuli\\visual\\scap\\load3-15.BMP'
S'C:\\Users\\oleach\\Charlie\\charlie\\stimuli\\visual\\scap\\load3-16.BMP'
g24
I1090
tp35
a(g19
g20
g27
I3
I8
g22
S'C:\\Users\\oleach\\Charlie\\charlie\\stimuli\\visual\\scap\\load3-17.BMP'
S'C:\\Users\\oleach\\Charlie\\charlie\\stimuli\\visual\\scap\\load3-18.BMP'
g22
I2080
tp36
a(g19
g20
g27
I3
I9
g24
S'C:\\Users\\oleach\\Charlie\\charlie\\stimuli\\visual\\scap\\load3-19.BMP'
S'C:\\Users\\oleach\\Charlie\\charlie\\stimuli\\visual\\scap\\load3-20.BMP'
g24
I900
tp37
a(g19
g20
g27
I3
I10
g22
S'C:\\Users\\oleach\\Charlie\\charlie\\stimuli\\visual\\scap\\load3-21.BMP'
S'C:\\Users\\oleach\\Charlie\\charlie\\stimuli\\visual\\scap\\load3-22.BMP'
g22
I1120
tp38
a(g19
g20
g27
I3
I11
g22
S'C:\\Users\\oleach\\Charlie\\charlie\\stimuli\\visual\\scap\\load3-23.BMP'
S'C:\\Users\\oleach\\Charlie\\charlie\\stimuli\\visual\\scap\\load3-24.BMP'
g22
I1260
tp39
a(g19
g20
g27
I3
I12
g24
S'C:\\Users\\oleach\\Charlie\\charlie\\stimuli\\visual\\scap\\load3-25.BMP'
S'C:\\Users\\oleach\\Charlie\\charlie\\stimuli\\visual\\scap\\load3-26.BMP'
g24
I820
tp40
a(g19
g20
g27
I3
I13
g24
S'C:\\Users\\oleach\\Charlie\\charlie\\stimuli\\visual\\scap\\load3-27.BMP'
S'C:\\Users\\oleach\\Charlie\\charlie\\stimuli\\visual\\scap\\load3-28.BMP'
g24
I810
tp41
a(g19
g20
g27
I4
I0
g24
S'C:\\Users\\oleach\\Charlie\\charlie\\stimuli\\visual\\scap\\load4-1.BMP'
S'C:\\Users\\oleach\\Charlie\\charlie\\stimuli\\visual\\scap\\load4-2.BMP'
g24
I1030
tp42
a(g19
g20
g27
I4
I1
g22
S'C:\\Users\\oleach\\Charlie\\charlie\\stimuli\\visual\\scap\\load4-3.BMP'
S'C:\\Users\\oleach\\Charlie\\charlie\\stimuli\\visual\\scap\\load4-4.BMP'
g22
I2040
tp43
a(g19
g20
g27
I4
I2
g22
S'C:\\Users\\oleach\\Charlie\\charlie\\stimuli\\visual\\scap\\load4-5.BMP'
S'C:\\Users\\oleach\\Charlie\\charlie\\stimuli\\visual\\scap\\load4-6.BMP'
g24
I1510
tp44
a(g19
g20
g27
I4
I3
g24
S'C:\\Users\\oleach\\Charlie\\charlie\\stimuli\\visual\\scap\\load4-7.BMP'
S'C:\\Users\\oleach\\Charlie\\charlie\\stimuli\\visual\\scap\\load4-8.BMP'
g24
I850
tp45
a(g19
g20
g27
I4
I4
g24
S'C:\\Users\\oleach\\Charlie\\charlie\\stimuli\\visual\\scap\\load4-9.BMP'
S'C:\\Users\\oleach\\Charlie\\charlie\\stimuli\\visual\\scap\\load4-10.BMP'
g24
I1030
tp46
a(g19
g20
g27
I4
I5
g22
S'C:\\Users\\oleach\\Charlie\\charlie\\stimuli\\visual\\scap\\load4-11.BMP'
S'C:\\Users\\oleach\\Charlie\\charlie\\stimuli\\visual\\scap\\load4-12.BMP'
g22
I1480
tp47
a(g19
g20
g27
I4
I6
g24
S'C:\\Users\\oleach\\Charlie\\charlie\\stimuli\\visual\\scap\\load4-13.BMP'
S'C:\\Users\\oleach\\Charlie\\charlie\\stimuli\\visual\\scap\\load4-14.BMP'
g24
I790
tp48
a(g19
g20
g27
I4
I7
g22
S'C:\\Users\\oleach\\Charlie\\charlie\\stimuli\\visual\\scap\\load4-15.BMP'
S'C:\\Users\\oleach\\Charlie\\charlie\\stimuli\\visual\\scap\\load4-16.BMP'
g22
I1130
tp49
a(g19
g20
g27
I4
I8
g24
S'C:\\Users\\oleach\\Charlie\\charlie\\stimuli\\visual\\scap\\load4-17.BMP'
S'C:\\Users\\oleach\\Charlie\\charlie\\stimuli\\visual\\scap\\load4-18.BMP'
g24
I1710
tp50
a(g19
g20
g27
I4
I9
g22
S'C:\\Users\\oleach\\Charlie\\charlie\\stimuli\\visual\\scap\\load4-19.BMP'
S'C:\\Users\\oleach\\Charlie\\charlie\\stimuli\\visual\\scap\\load4-20.BMP'
g22
I800
tp51
a(g19
g20
g27
I4
I10
g22
S'C:\\Users\\oleach\\Charlie\\charlie\\stimuli\\visual\\scap\\load4-21.BMP'
S'C:\\Users\\oleach\\Charlie\\charlie\\stimuli\\visual\\scap\\load4-22.BMP'
g22
I1000
tp52
a(g19
g20
g27
I4
I11
g24
S'C:\\Users\\oleach\\Charlie\\charlie\\stimuli\\visual\\scap\\load4-23.BMP'
S'C:\\Users\\oleach\\Charlie\\charlie\\stimuli\\visual\\scap\\load4-24.BMP'
g24
I2890
tp53
a(g19
g20
g27
I4
I12
g22
S'C:\\Users\\oleach\\Charlie\\charlie\\stimuli\\visual\\scap\\load4-25.BMP'
S'C:\\Users\\oleach\\Charlie\\charlie\\stimuli\\visual\\scap\\load4-26.BMP'
g22
I920
tp54
a(g19
g20
g27
I4
I13
g24
S'C:\\Users\\oleach\\Charlie\\charlie\\stimuli\\visual\\scap\\load4-27.BMP'
S'C:\\Users\\oleach\\Charlie\\charlie\\stimuli\\visual\\scap\\load4-28.BMP'
g24
I2820
tp55
a(g19
g20
g27
I5
I0
g22
S'C:\\Users\\oleach\\Charlie\\charlie\\stimuli\\visual\\scap\\load5-1.BMP'
S'C:\\Users\\oleach\\Charlie\\charlie\\stimuli\\visual\\scap\\load5-2.BMP'
g24
I1720
tp56
a(g19
g20
g27
I5
I1
g22
S'C:\\Users\\oleach\\Charlie\\charlie\\stimuli\\visual\\scap\\load5-3.BMP'
S'C:\\Users\\oleach\\Charlie\\charlie\\stimuli\\visual\\scap\\load5-4.BMP'
g22
I1390
tp57
a(g19
g20
g27
I5
I2
g22
S'C:\\Users\\oleach\\Charlie\\charlie\\stimuli\\visual\\scap\\load5-5.BMP'
S'C:\\Users\\oleach\\Charlie\\charlie\\stimuli\\visual\\scap\\load5-6.BMP'
g22
I1240
tp58
a(g19
g20
g27
I5
I3
g22
S'C:\\Users\\oleach\\Charlie\\charlie\\stimuli\\visual\\scap\\load5-7.BMP'
S'C:\\Users\\oleach\\Charlie\\charlie\\stimuli\\visual\\scap\\load5-8.BMP'
g22
I2090
tp59
a(g19
g20
g27
I5
I4
g22
S'C:\\Users\\oleach\\Charlie\\charlie\\stimuli\\visual\\scap\\load5-9.BMP'
S'C:\\Users\\oleach\\Charlie\\charlie\\stimuli\\visual\\scap\\load5-10.BMP'
g24
I1090
tp60
a(g19
g20
g27
I5
I5
g22
S'C:\\Users\\oleach\\Charlie\\charlie\\stimuli\\visual\\scap\\load5-11.BMP'
S'C:\\Users\\oleach\\Charlie\\charlie\\stimuli\\visual\\scap\\load5-12.BMP'
g22
I1330
tp61
a(g19
g20
g27
I5
I6
g24
S'C:\\Users\\oleach\\Charlie\\charlie\\stimuli\\visual\\scap\\load5-13.BMP'
S'C:\\Users\\oleach\\Charlie\\charlie\\stimuli\\visual\\scap\\load5-14.BMP'
g24
I680
tp62
a(g19
g20
g27
I5
I7
g24
S'C:\\Users\\oleach\\Charlie\\charlie\\stimuli\\visual\\scap\\load5-15.BMP'
S'C:\\Users\\oleach\\Charlie\\charlie\\stimuli\\visual\\scap\\load5-16.BMP'
g24
I1210
tp63
a(g19
g20
g27
I5
I8
g24
S'C:\\Users\\oleach\\Charlie\\charlie\\stimuli\\visual\\scap\\load5-17.BMP'
S'C:\\Users\\oleach\\Charlie\\charlie\\stimuli\\visual\\scap\\load5-18.BMP'
g24
I1330
tp64
a(g19
g20
g27
I5
I9
g24
S'C:\\Users\\oleach\\Charlie\\charlie\\stimuli\\visual\\scap\\load5-19.BMP'
S'C:\\Users\\oleach\\Charlie\\charlie\\stimuli\\visual\\scap\\load5-20.BMP'
g24
I760
tp65
a(g19
g20
g27
I5
I10
g24
S'C:\\Users\\oleach\\Charlie\\charlie\\stimuli\\visual\\scap\\load5-21.BMP'
S'C:\\Users\\oleach\\Charlie\\charlie\\stimuli\\visual\\scap\\load5-22.BMP'
g24
I1560
tp66
a(g19
g20
g27
I5
I11
g22
S'C:\\Users\\oleach\\Charlie\\charlie\\stimuli\\visual\\scap\\load5-23.BMP'
S'C:\\Users\\oleach\\Charlie\\charlie\\stimuli\\visual\\scap\\load5-24.BMP'
g22
I720
tp67
a(g19
g20
g27
I5
I12
g24
S'C:\\Users\\oleach\\Charlie\\charlie\\stimuli\\visual\\scap\\load5-25.BMP'
S'C:\\Users\\oleach\\Charlie\\charlie\\stimuli\\visual\\scap\\load5-26.BMP'
g22
I3330
tp68
a(g19
g20
g27
I5
I13
g24
S'C:\\Users\\oleach\\Charlie\\charlie\\stimuli\\visual\\scap\\load5-27.BMP'
p69
S'C:\\Users\\oleach\\Charlie\\charlie\\stimuli\\visual\\scap\\load5-28.BMP'
p70
g24
I1520
tp71
asS'output_format'
p72
(lp73
(S'proband_id'
p74
c__builtin__
str
p75
tp76
a(S'test_name'
p77
g75
tp78
a(S'phase'
p79
g75
tp80
a(S'load'
p81
c__builtin__
int
p82
tp83
a(S'trialn'
p84
g82
tp85
a(S'ans'
p86
g75
tp87
a(S'array_f'
p88
g75
tp89
a(S'probe_f'
p90
g75
tp91
a(S'rsp'
p92
g75
tp93
a(S'rt'
p94
g82
tp95
asg74
g19
sS'filename'
p96
S'4462_scap.data'
p97
sS'initialised'
p98
g10
(S'\x07\xdf\t\x19\n\x1d7\x01W\xc0'
tRp99
sg77
S'scap'
p100
sS'directory'
p101
S'C:\\Users\\oleach\\Charlie\\charlie\\data\\raw'
p102
sS'user_id'
p103
S'oleach'
p104
sS'test_started'
p105
I01
sS'abs_filename'
p106
S'C:\\Users\\oleach\\Charlie\\charlie\\data\\raw\\4462_scap.data'
p107
sS'date_started'
p108
g10
(S'\x07\xdf\t\x19\n\x1e$\x0b\xdb('
tRp109
sS'log'
p110
(lp111
(S'2015-09-25 10:29:55.088000'
S'instance created'
p112
tp113
a(S'2015-09-25 10:30:36.789000'
S'instance updated'
p114
tp115
a(S'2015-09-25 10:30:36.817000'
S'pandas DataFrame of data created'
p116
tp117
a(S'2015-09-25 10:30:36.834000'
g114
tp118
a(S'2015-09-25 10:30:36.837000'
S'data saved as csv to C:\\Users\\oleach\\Charlie\\charlie\\data\\csv\\4462_scap.csv'
tp119
a(S'2015-09-25 10:30:46.377000'
g114
tp120
a(S'2015-09-25 10:30:46.421000'
g116
tp121
a(S'2015-09-25 10:30:46.430000'
g114
tp122
a(S'2015-09-25 10:30:46.433000'
S'data saved as csv to C:\\Users\\oleach\\Charlie\\charlie\\data\\csv\\4462_scap.csv'
tp123
a(S'2015-09-25 10:30:55.394000'
g114
tp124
a(S'2015-09-25 10:30:55.455000'
g116
tp125
a(S'2015-09-25 10:30:55.463000'
g114
tp126
a(S'2015-09-25 10:30:55.467000'
S'data saved as csv to C:\\Users\\oleach\\Charlie\\charlie\\data\\csv\\4462_scap.csv'
tp127
a(S'2015-09-25 10:31:12.828000'
g114
tp128
a(S'2015-09-25 10:31:12.904000'
g116
tp129
a(S'2015-09-25 10:31:12.913000'
g114
tp130
a(S'2015-09-25 10:31:12.916000'
S'data saved as csv to C:\\Users\\oleach\\Charlie\\charlie\\data\\csv\\4462_scap.csv'
tp131
a(S'2015-09-25 10:31:19.927000'
g114
tp132
a(S'2015-09-25 10:31:20.020000'
g116
tp133
a(S'2015-09-25 10:31:20.029000'
g114
tp134
a(S'2015-09-25 10:31:20.032000'
S'data saved as csv to C:\\Users\\oleach\\Charlie\\charlie\\data\\csv\\4462_scap.csv'
tp135
a(S'2015-09-25 10:31:27.533000'
g114
tp136
a(S'2015-09-25 10:31:27.607000'
g116
tp137
a(S'2015-09-25 10:31:27.612000'
g114
tp138
a(S'2015-09-25 10:31:27.614000'
S'data saved as csv to C:\\Users\\oleach\\Charlie\\charlie\\data\\csv\\4462_scap.csv'
tp139
a(S'2015-09-25 10:31:34.723000'
g114
tp140
a(S'2015-09-25 10:31:34.846000'
g116
tp141
a(S'2015-09-25 10:31:34.855000'
g114
tp142
a(S'2015-09-25 10:31:34.858000'
S'data saved as csv to C:\\Users\\oleach\\Charlie\\charlie\\data\\csv\\4462_scap.csv'
tp143
a(S'2015-09-25 10:31:41.948000'
g114
tp144
a(S'2015-09-25 10:31:42.087000'
g116
tp145
a(S'2015-09-25 10:31:42.096000'
g114
tp146
a(S'2015-09-25 10:31:42.100000'
S'data saved as csv to C:\\Users\\oleach\\Charlie\\charlie\\data\\csv\\4462_scap.csv'
tp147
a(S'2015-09-25 10:31:49.871000'
g114
tp148
a(S'2015-09-25 10:31:49.964000'
g116
tp149
a(S'2015-09-25 10:31:49.969000'
g114
tp150
a(S'2015-09-25 10:31:49.971000'
S'data saved as csv to C:\\Users\\oleach\\Charlie\\charlie\\data\\csv\\4462_scap.csv'
tp151
a(S'2015-09-25 10:31:57.200000'
g114
tp152
a(S'2015-09-25 10:31:57.371000'
g116
tp153
a(S'2015-09-25 10:31:57.380000'
g114
tp154
a(S'2015-09-25 10:31:57.384000'
S'data saved as csv to C:\\Users\\oleach\\Charlie\\charlie\\data\\csv\\4462_scap.csv'
tp155
a(S'2015-09-25 10:32:04.614000'
g114
tp156
a(S'2015-09-25 10:32:04.801000'
g116
tp157
a(S'2015-09-25 10:32:04.810000'
g114
tp158
a(S'2015-09-25 10:32:04.814000'
S'data saved as csv to C:\\Users\\oleach\\Charlie\\charlie\\data\\csv\\4462_scap.csv'
tp159
a(S'2015-09-25 10:32:13.033000'
g114
tp160
a(S'2015-09-25 10:32:13.238000'
g116
tp161
a(S'2015-09-25 10:32:13.247000'
g114
tp162
a(S'2015-09-25 10:32:13.250000'
S'data saved as csv to C:\\Users\\oleach\\Charlie\\charlie\\data\\csv\\4462_scap.csv'
tp163
a(S'2015-09-25 10:32:20.291000'
g114
tp164
a(S'2015-09-25 10:32:20.510000'
g116
tp165
a(S'2015-09-25 10:32:20.519000'
g114
tp166
a(S'2015-09-25 10:32:20.523000'
S'data saved as csv to C:\\Users\\oleach\\Charlie\\charlie\\data\\csv\\4462_scap.csv'
tp167
a(S'2015-09-25 10:32:27.784000'
g114
tp168
a(S'2015-09-25 10:32:28.018000'
g116
tp169
a(S'2015-09-25 10:32:28.027000'
g114
tp170
a(S'2015-09-25 10:32:28.031000'
S'data saved as csv to C:\\Users\\oleach\\Charlie\\charlie\\data\\csv\\4462_scap.csv'
tp171
a(S'2015-09-25 10:32:35.432000'
g114
tp172
a(S'2015-09-25 10:32:35.683000'
g116
tp173
a(S'2015-09-25 10:32:35.692000'
g114
tp174
a(S'2015-09-25 10:32:35.695000'
S'data saved as csv to C:\\Users\\oleach\\Charlie\\charlie\\data\\csv\\4462_scap.csv'
tp175
a(S'2015-09-25 10:32:42.656000'
g114
tp176
a(S'2015-09-25 10:32:42.844000'
g116
tp177
a(S'2015-09-25 10:32:42.851000'
g114
tp178
a(S'2015-09-25 10:32:42.853000'
S'data saved as csv to C:\\Users\\oleach\\Charlie\\charlie\\data\\csv\\4462_scap.csv'
tp179
a(S'2015-09-25 10:32:49.803000'
g114
tp180
a(S'2015-09-25 10:32:50.085000'
g116
tp181
a(S'2015-09-25 10:32:50.095000'
g114
tp182
a(S'2015-09-25 10:32:50.098000'
S'data saved as csv to C:\\Users\\oleach\\Charlie\\charlie\\data\\csv\\4462_scap.csv'
tp183
a(S'2015-09-25 10:32:57.269000'
g114
tp184
a(S'2015-09-25 10:32:57.568000'
g116
tp185
a(S'2015-09-25 10:32:57.577000'
g114
tp186
a(S'2015-09-25 10:32:57.581000'
S'data saved as csv to C:\\Users\\oleach\\Charlie\\charlie\\data\\csv\\4462_scap.csv'
tp187
a(S'2015-09-25 10:33:05.761000'
g114
tp188
a(S'2015-09-25 10:33:06.043000'
g116
tp189
a(S'2015-09-25 10:33:06.052000'
g114
tp190
a(S'2015-09-25 10:33:06.055000'
S'data saved as csv to C:\\Users\\oleach\\Charlie\\charlie\\data\\csv\\4462_scap.csv'
tp191
a(S'2015-09-25 10:33:13.683000'
g114
tp192
a(S'2015-09-25 10:33:13.768000'
g116
tp193
a(S'2015-09-25 10:33:13.771000'
g114
tp194
a(S'2015-09-25 10:33:13.772000'
S'data saved as csv to C:\\Users\\oleach\\Charlie\\charlie\\data\\csv\\4462_scap.csv'
tp195
a(S'2015-09-25 10:33:20.735000'
g114
tp196
a(S'2015-09-25 10:33:20.822000'
g116
tp197
a(S'2015-09-25 10:33:20.825000'
g114
tp198
a(S'2015-09-25 10:33:20.826000'
S'data saved as csv to C:\\Users\\oleach\\Charlie\\charlie\\data\\csv\\4462_scap.csv'
tp199
a(S'2015-09-25 10:33:27.991000'
g114
tp200
a(S'2015-09-25 10:33:28.132000'
g116
tp201
a(S'2015-09-25 10:33:28.135000'
g114
tp202
a(S'2015-09-25 10:33:28.136000'
S'data saved as csv to C:\\Users\\oleach\\Charlie\\charlie\\data\\csv\\4462_scap.csv'
tp203
a(S'2015-09-25 10:33:35.731000'
g114
tp204
a(S'2015-09-25 10:33:35.825000'
g116
tp205
a(S'2015-09-25 10:33:35.828000'
g114
tp206
a(S'2015-09-25 10:33:35.829000'
S'data saved as csv to C:\\Users\\oleach\\Charlie\\charlie\\data\\csv\\4462_scap.csv'
tp207
a(S'2015-09-25 10:33:45.148000'
g114
tp208
a(S'2015-09-25 10:33:45.305000'
g116
tp209
a(S'2015-09-25 10:33:45.309000'
g114
tp210
a(S'2015-09-25 10:33:45.311000'
S'data saved as csv to C:\\Users\\oleach\\Charlie\\charlie\\data\\csv\\4462_scap.csv'
tp211
a(S'2015-09-25 10:33:52.558000'
g114
tp212
a(S'2015-09-25 10:33:52.672000'
g116
tp213
a(S'2015-09-25 10:33:52.674000'
g114
tp214
a(S'2015-09-25 10:33:52.675000'
S'data saved as csv to C:\\Users\\oleach\\Charlie\\charlie\\data\\csv\\4462_scap.csv'
tp215
a(S'2015-09-25 10:34:00.525000'
g114
tp216
a(S'2015-09-25 10:34:00.772000'
g116
tp217
a(S'2015-09-25 10:34:00.777000'
g114
tp218
a(S'2015-09-25 10:34:00.779000'
S'data saved as csv to C:\\Users\\oleach\\Charlie\\charlie\\data\\csv\\4462_scap.csv'
tp219
a(S'2015-09-25 10:34:07.719000'
g114
tp220
a(S'2015-09-25 10:34:08.158000'
g116
tp221
a(S'2015-09-25 10:34:08.168000'
g114
tp222
a(S'2015-09-25 10:34:08.172000'
S'data saved as csv to C:\\Users\\oleach\\Charlie\\charlie\\data\\csv\\4462_scap.csv'
tp223
a(S'2015-09-25 10:34:15.313000'
g114
tp224
a(S'2015-09-25 10:34:15.770000'
g116
tp225
a(S'2015-09-25 10:34:15.780000'
g114
tp226
a(S'2015-09-25 10:34:15.784000'
S'data saved as csv to C:\\Users\\oleach\\Charlie\\charlie\\data\\csv\\4462_scap.csv'
tp227
a(S'2015-09-25 10:34:24.815000'
g114
tp228
a(S'2015-09-25 10:34:25.108000'
g116
tp229
a(S'2015-09-25 10:34:25.114000'
g114
tp230
a(S'2015-09-25 10:34:25.116000'
S'data saved as csv to C:\\Users\\oleach\\Charlie\\charlie\\data\\csv\\4462_scap.csv'
tp231
a(S'2015-09-25 10:34:32.175000'
g114
tp232
a(S'2015-09-25 10:34:32.468000'
g116
tp233
a(S'2015-09-25 10:34:32.471000'
g114
tp234
a(S'2015-09-25 10:34:32.472000'
S'data saved as csv to C:\\Users\\oleach\\Charlie\\charlie\\data\\csv\\4462_scap.csv'
tp235
a(S'2015-09-25 10:34:41.432000'
g114
tp236
a(S'2015-09-25 10:34:41.939000'
g116
tp237
a(S'2015-09-25 10:34:41.949000'
g114
tp238
a(S'2015-09-25 10:34:41.953000'
S'data saved as csv to C:\\Users\\oleach\\Charlie\\charlie\\data\\csv\\4462_scap.csv'
tp239
a(S'2015-09-25 10:34:49.814000'
g114
tp240
a(S'2015-09-25 10:34:50.167000'
g116
tp241
a(S'2015-09-25 10:34:50.173000'
g114
tp242
a(S'2015-09-25 10:34:50.176000'
S'data saved as csv to C:\\Users\\oleach\\Charlie\\charlie\\data\\csv\\4462_scap.csv'
tp243
a(S'2015-09-25 10:34:57.706000'
g114
tp244
a(S'2015-09-25 10:34:58.066000'
g116
tp245
a(S'2015-09-25 10:34:58.073000'
g114
tp246
a(S'2015-09-25 10:34:58.076000'
S'data saved as csv to C:\\Users\\oleach\\Charlie\\charlie\\data\\csv\\4462_scap.csv'
tp247
a(S'2015-09-25 10:35:05.456000'
g114
tp248
a(S'2015-09-25 10:35:06.008000'
g116
tp249
a(S'2015-09-25 10:35:06.018000'
g114
tp250
a(S'2015-09-25 10:35:06.022000'
S'data saved as csv to C:\\Users\\oleach\\Charlie\\charlie\\data\\csv\\4462_scap.csv'
tp251
a(S'2015-09-25 10:35:14.254000'
g114
tp252
a(S'2015-09-25 10:35:14.463000'
g116
tp253
a(S'2015-09-25 10:35:14.466000'
g114
tp254
a(S'2015-09-25 10:35:14.467000'
S'data saved as csv to C:\\Users\\oleach\\Charlie\\charlie\\data\\csv\\4462_scap.csv'
tp255
a(S'2015-09-25 10:35:21.695000'
g114
tp256
a(S'2015-09-25 10:35:22.279000'
g116
tp257
a(S'2015-09-25 10:35:22.289000'
g114
tp258
a(S'2015-09-25 10:35:22.293000'
S'data saved as csv to C:\\Users\\oleach\\Charlie\\charlie\\data\\csv\\4462_scap.csv'
tp259
a(S'2015-09-25 10:35:29.762000'
g114
tp260
a(S'2015-09-25 10:35:30.172000'
g116
tp261
a(S'2015-09-25 10:35:30.179000'
g114
tp262
a(S'2015-09-25 10:35:30.182000'
S'data saved as csv to C:\\Users\\oleach\\Charlie\\charlie\\data\\csv\\4462_scap.csv'
tp263
a(S'2015-09-25 10:35:37.002000'
g114
tp264
a(S'2015-09-25 10:35:37.416000'
g116
tp265
a(S'2015-09-25 10:35:37.423000'
g114
tp266
a(S'2015-09-25 10:35:37.425000'
S'data saved as csv to C:\\Users\\oleach\\Charlie\\charlie\\data\\csv\\4462_scap.csv'
tp267
a(S'2015-09-25 10:35:44.776000'
g114
tp268
a(S'2015-09-25 10:35:45.404000'
g116
tp269
a(S'2015-09-25 10:35:45.414000'
g114
tp270
a(S'2015-09-25 10:35:45.418000'
S'data saved as csv to C:\\Users\\oleach\\Charlie\\charlie\\data\\csv\\4462_scap.csv'
tp271
a(S'2015-09-25 10:35:52.889000'
g114
tp272
a(S'2015-09-25 10:35:53.321000'
g116
tp273
a(S'2015-09-25 10:35:53.328000'
g114
tp274
a(S'2015-09-25 10:35:53.330000'
S'data saved as csv to C:\\Users\\oleach\\Charlie\\charlie\\data\\csv\\4462_scap.csv'
tp275
a(S'2015-09-25 10:36:00.231000'
g114
tp276
a(S'2015-09-25 10:36:00.890000'
g116
tp277
a(S'2015-09-25 10:36:00.900000'
g114
tp278
a(S'2015-09-25 10:36:00.905000'
S'data saved as csv to C:\\Users\\oleach\\Charlie\\charlie\\data\\csv\\4462_scap.csv'
tp279
a(S'2015-09-25 10:36:08.606000'
g114
tp280
a(S'2015-09-25 10:36:09.282000'
g116
tp281
a(S'2015-09-25 10:36:09.293000'
g114
tp282
a(S'2015-09-25 10:36:09.297000'
S'data saved as csv to C:\\Users\\oleach\\Charlie\\charlie\\data\\csv\\4462_scap.csv'
tp283
a(S'2015-09-25 10:36:16.158000'
g114
tp284
a(S'2015-09-25 10:36:16.856000'
g116
tp285
a(S'2015-09-25 10:36:16.864000'
g114
tp286
a(S'2015-09-25 10:36:16.867000'
S'data saved as csv to C:\\Users\\oleach\\Charlie\\charlie\\data\\csv\\4462_scap.csv'
tp287
a(S'2015-09-25 10:36:26.337000'
g114
tp288
a(S'2015-09-25 10:36:27.047000'
g116
tp289
a(S'2015-09-25 10:36:27.058000'
g114
tp290
a(S'2015-09-25 10:36:27.062000'
S'data saved as csv to C:\\Users\\oleach\\Charlie\\charlie\\data\\csv\\4462_scap.csv'
tp291
a(S'2015-09-25 10:36:34.723000'
g114
tp292
a(S'2015-09-25 10:36:35.147000'
g116
tp293
a(S'2015-09-25 10:36:35.153000'
g114
tp294
a(S'2015-09-25 10:36:35.155000'
S'data saved as csv to C:\\Users\\oleach\\Charlie\\charlie\\data\\csv\\4462_scap.csv'
tp295
a(S'2015-09-25 10:36:35.161000'
g114
tp296
asb.