(icharlie.tools.data
Data
p1
(dp2
S'lang'
p3
S'EN'
p4
sS'control'
p5
(lp6
sS'last_updated'
p7
S'2015-09-25 10:01:51.316000'
p8
sS'last_opened'
p9
cdatetime
datetime
p10
(S'\x07\xdf\t\x19\t:\x17\r\xfe\x08'
tRp11
sS'proj_id'
p12
S'connectivity'
p13
sS'date_done'
p14
g10
(S'\x07\xdf\t\x19\n\x013\x04\xd2`'
tRp15
sS'test_done'
p16
I01
sS'data'
p17
(lp18
(S'4462'
p19
S'digit_symbol'
p20
S'practice'
p21
I0
I2
I2
S'Yes'
p22
S'C:\\Users\\oleach\\Charlie\\charlie\\stimuli\\visual\\digit_symbol\\sym2.bmp'
g22
I8191
tp23
a(g19
g20
g21
I1
I6
I6
g22
S'C:\\Users\\oleach\\Charlie\\charlie\\stimuli\\visual\\digit_symbol\\sym6.bmp'
g22
I4420
tp24
a(g19
g20
g21
I2
I8
I4
S'No'
p25
S'C:\\Users\\oleach\\Charlie\\charlie\\stimuli\\visual\\digit_symbol\\sym4.bmp'
g25
I4661
tp26
a(g19
g20
g21
I3
I4
I4
g22
S'C:\\Users\\oleach\\Charlie\\charlie\\stimuli\\visual\\digit_symbol\\sym4.bmp'
g22
I3290
tp27
a(g19
g20
g21
I4
I7
I7
g22
S'C:\\Users\\oleach\\Charlie\\charlie\\stimuli\\visual\\digit_symbol\\sym7.bmp'
g22
I3960
tp28
a(g19
g20
g21
I5
I6
I5
g25
S'C:\\Users\\oleach\\Charlie\\charlie\\stimuli\\visual\\digit_symbol\\sym5.bmp'
g25
I10171
tp29
a(g19
g20
g21
I6
I2
I8
g25
S'C:\\Users\\oleach\\Charlie\\charlie\\stimuli\\visual\\digit_symbol\\sym8.bmp'
g25
I2600
tp30
a(g19
g20
g21
I7
I9
I2
g25
S'C:\\Users\\oleach\\Charlie\\charlie\\stimuli\\visual\\digit_symbol\\sym2.bmp'
g25
I5970
tp31
a(g19
g20
g21
I8
I3
I7
g25
S'C:\\Users\\oleach\\Charlie\\charlie\\stimuli\\visual\\digit_symbol\\sym7.bmp'
g25
I2731
tp32
a(g19
g20
g21
I9
I5
I6
g25
S'C:\\Users\\oleach\\Charlie\\charlie\\stimuli\\visual\\digit_symbol\\sym6.bmp'
g25
I2820
tp33
a(g19
g20
S'test'
p34
I0
I8
I8
g22
S'C:\\Users\\oleach\\Charlie\\charlie\\stimuli\\visual\\digit_symbol\\sym8.bmp'
g22
I3106
tp35
a(g19
g20
g34
I1
I1
I4
g25
S'C:\\Users\\oleach\\Charlie\\charlie\\stimuli\\visual\\digit_symbol\\sym4.bmp'
g25
I3403
tp36
a(g19
g20
g34
I2
I2
I8
g25
S'C:\\Users\\oleach\\Charlie\\charlie\\stimuli\\visual\\digit_symbol\\sym8.bmp'
g25
I3104
tp37
a(g19
g20
g34
I3
I6
I2
g25
S'C:\\Users\\oleach\\Charlie\\charlie\\stimuli\\visual\\digit_symbol\\sym2.bmp'
g25
I3703
tp38
a(g19
g20
g34
I4
I4
I4
g22
S'C:\\Users\\oleach\\Charlie\\charlie\\stimuli\\visual\\digit_symbol\\sym4.bmp'
g22
I2703
tp39
a(g19
g20
g34
I5
I9
I5
g25
S'C:\\Users\\oleach\\Charlie\\charlie\\stimuli\\visual\\digit_symbol\\sym5.bmp'
g25
I4003
tp40
a(g19
g20
g34
I6
I5
I6
g25
S'C:\\Users\\oleach\\Charlie\\charlie\\stimuli\\visual\\digit_symbol\\sym6.bmp'
g25
I3003
tp41
a(g19
g20
g34
I7
I3
I3
g22
S'C:\\Users\\oleach\\Charlie\\charlie\\stimuli\\visual\\digit_symbol\\sym3.bmp'
g22
I3003
tp42
a(g19
g20
g34
I8
I4
I4
g22
S'C:\\Users\\oleach\\Charlie\\charlie\\stimuli\\visual\\digit_symbol\\sym4.bmp'
g22
I2504
tp43
a(g19
g20
g34
I9
I9
I9
g22
S'C:\\Users\\oleach\\Charlie\\charlie\\stimuli\\visual\\digit_symbol\\sym9.bmp'
g22
I3203
tp44
a(g19
g20
g34
I10
I6
I6
g22
S'C:\\Users\\oleach\\Charlie\\charlie\\stimuli\\visual\\digit_symbol\\sym6.bmp'
g22
I2103
tp45
a(g19
g20
g34
I11
I1
I1
g22
S'C:\\Users\\oleach\\Charlie\\charlie\\stimuli\\visual\\digit_symbol\\sym1.bmp'
g22
I3403
tp46
a(g19
g20
g34
I12
I2
I2
g22
S'C:\\Users\\oleach\\Charlie\\charlie\\stimuli\\visual\\digit_symbol\\sym2.bmp'
g22
I3103
tp47
a(g19
g20
g34
I13
I7
I7
g22
S'C:\\Users\\oleach\\Charlie\\charlie\\stimuli\\visual\\digit_symbol\\sym7.bmp'
g22
I2103
tp48
a(g19
g20
g34
I14
I3
I3
g22
S'C:\\Users\\oleach\\Charlie\\charlie\\stimuli\\visual\\digit_symbol\\sym3.bmp'
g22
I2604
tp49
a(g19
g20
g34
I15
I8
I8
g22
S'C:\\Users\\oleach\\Charlie\\charlie\\stimuli\\visual\\digit_symbol\\sym8.bmp'
g22
I2603
tp50
a(g19
g20
g34
I16
I7
I7
g22
S'C:\\Users\\oleach\\Charlie\\charlie\\stimuli\\visual\\digit_symbol\\sym7.bmp'
g22
I2603
tp51
a(g19
g20
g34
I17
I5
I3
g25
S'C:\\Users\\oleach\\Charlie\\charlie\\stimuli\\visual\\digit_symbol\\sym3.bmp'
g25
I3003
tp52
a(g19
g20
g34
I18
I1
I5
g25
S'C:\\Users\\oleach\\Charlie\\charlie\\stimuli\\visual\\digit_symbol\\sym5.bmp'
g25
I2902
tp53
a(g19
g20
g34
I19
I4
I4
g22
S'C:\\Users\\oleach\\Charlie\\charlie\\stimuli\\visual\\digit_symbol\\sym4.bmp'
g22
I2203
tp54
a(g19
g20
g34
I20
I7
I8
g25
S'C:\\Users\\oleach\\Charlie\\charlie\\stimuli\\visual\\digit_symbol\\sym8.bmp'
g25
I2804
tp55
a(g19
g20
g34
I21
I4
I4
g22
S'C:\\Users\\oleach\\Charlie\\charlie\\stimuli\\visual\\digit_symbol\\sym4.bmp'
g22
I2603
tp56
a(g19
g20
g34
I22
I8
I8
g22
S'C:\\Users\\oleach\\Charlie\\charlie\\stimuli\\visual\\digit_symbol\\sym8.bmp'
g22
I2903
tp57
a(g19
g20
g34
I23
I3
I3
g22
S'C:\\Users\\oleach\\Charlie\\charlie\\stimuli\\visual\\digit_symbol\\sym3.bmp'
g22
I2903
tp58
a(g19
g20
g34
I24
I5
I5
g22
S'C:\\Users\\oleach\\Charlie\\charlie\\stimuli\\visual\\digit_symbol\\sym5.bmp'
g22
I4103
tp59
a(g19
g20
g34
I25
I3
I1
g25
S'C:\\Users\\oleach\\Charlie\\charlie\\stimuli\\visual\\digit_symbol\\sym1.bmp'
g25
I2403
tp60
a(g19
g20
g34
I26
I6
I9
g25
S'C:\\Users\\oleach\\Charlie\\charlie\\stimuli\\visual\\digit_symbol\\sym9.bmp'
g25
I2104
tp61
a(g19
g20
g34
I27
I2
I2
g22
S'C:\\Users\\oleach\\Charlie\\charlie\\stimuli\\visual\\digit_symbol\\sym2.bmp'
g22
I2503
tp62
a(g19
g20
g34
I28
I8
I8
g22
S'C:\\Users\\oleach\\Charlie\\charlie\\stimuli\\visual\\digit_symbol\\sym8.bmp'
g22
I2403
tp63
asS'output_format'
p64
(lp65
(S'proband_id'
p66
c__builtin__
str
p67
tp68
a(S'test_name'
p69
g67
tp70
a(S'phase'
p71
g67
tp72
a(S'trialn'
p73
c__builtin__
int
p74
tp75
a(S'digit'
p76
g74
tp77
a(S'symbol'
p78
g74
tp79
a(S'ans'
p80
g67
tp81
a(S'f'
g67
tp82
a(S'rsp'
p83
g67
tp84
a(S'rt'
p85
g74
tp86
asg66
g19
sS'filename'
p87
S'4462_digit_symbol.data'
p88
sS'initialised'
p89
g10
(S'\x07\xdf\t\x19\t:\x17\r\xfe\x08'
tRp90
sg69
S'digit_symbol'
p91
sS'directory'
p92
S'C:\\Users\\oleach\\Charlie\\charlie\\data\\raw'
p93
sS'user_id'
p94
S'oleach'
p95
sS'test_started'
p96
I01
sS'abs_filename'
p97
S'C:\\Users\\oleach\\Charlie\\charlie\\data\\raw\\4462_digit_symbol.data'
p98
sS'date_started'
p99
g10
(S'\x07\xdf\t\x19\t;\n\x07\xe7p'
tRp100
sS'log'
p101
(lp102
(S'2015-09-25 09:58:23.917000'
S'instance created'
p103
tp104
a(S'2015-09-25 09:59:10.528000'
S'instance updated'
p105
tp106
a(S'2015-09-25 09:59:10.550000'
S'pandas DataFrame of data created'
p107
tp108
a(S'2015-09-25 09:59:10.575000'
g105
tp109
a(S'2015-09-25 09:59:10.580000'
S'data saved as csv to C:\\Users\\oleach\\Charlie\\charlie\\data\\csv\\4462_digit_symbol.csv'
tp110
a(S'2015-09-25 09:59:16.025000'
g105
tp111
a(S'2015-09-25 09:59:16.059000'
g107
tp112
a(S'2015-09-25 09:59:16.066000'
g105
tp113
a(S'2015-09-25 09:59:16.070000'
S'data saved as csv to C:\\Users\\oleach\\Charlie\\charlie\\data\\csv\\4462_digit_symbol.csv'
tp114
a(S'2015-09-25 09:59:21.756000'
g105
tp115
a(S'2015-09-25 09:59:21.801000'
g107
tp116
a(S'2015-09-25 09:59:21.809000'
g105
tp117
a(S'2015-09-25 09:59:21.812000'
S'data saved as csv to C:\\Users\\oleach\\Charlie\\charlie\\data\\csv\\4462_digit_symbol.csv'
tp118
a(S'2015-09-25 09:59:26.126000'
g105
tp119
a(S'2015-09-25 09:59:26.187000'
g107
tp120
a(S'2015-09-25 09:59:26.195000'
g105
tp121
a(S'2015-09-25 09:59:26.198000'
S'data saved as csv to C:\\Users\\oleach\\Charlie\\charlie\\data\\csv\\4462_digit_symbol.csv'
tp122
a(S'2015-09-25 09:59:31.184000'
g105
tp123
a(S'2015-09-25 09:59:31.254000'
g107
tp124
a(S'2015-09-25 09:59:31.262000'
g105
tp125
a(S'2015-09-25 09:59:31.265000'
S'data saved as csv to C:\\Users\\oleach\\Charlie\\charlie\\data\\csv\\4462_digit_symbol.csv'
tp126
a(S'2015-09-25 09:59:42.460000'
g105
tp127
a(S'2015-09-25 09:59:42.540000'
g107
tp128
a(S'2015-09-25 09:59:42.548000'
g105
tp129
a(S'2015-09-25 09:59:42.552000'
S'data saved as csv to C:\\Users\\oleach\\Charlie\\charlie\\data\\csv\\4462_digit_symbol.csv'
tp130
a(S'2015-09-25 09:59:46.177000'
g105
tp131
a(S'2015-09-25 09:59:46.269000'
g107
tp132
a(S'2015-09-25 09:59:46.277000'
g105
tp133
a(S'2015-09-25 09:59:46.280000'
S'data saved as csv to C:\\Users\\oleach\\Charlie\\charlie\\data\\csv\\4462_digit_symbol.csv'
tp134
a(S'2015-09-25 09:59:53.275000'
g105
tp135
a(S'2015-09-25 09:59:53.378000'
g107
tp136
a(S'2015-09-25 09:59:53.386000'
g105
tp137
a(S'2015-09-25 09:59:53.389000'
S'data saved as csv to C:\\Users\\oleach\\Charlie\\charlie\\data\\csv\\4462_digit_symbol.csv'
tp138
a(S'2015-09-25 09:59:57.146000'
g105
tp139
a(S'2015-09-25 09:59:57.260000'
g107
tp140
a(S'2015-09-25 09:59:57.268000'
g105
tp141
a(S'2015-09-25 09:59:57.272000'
S'data saved as csv to C:\\Users\\oleach\\Charlie\\charlie\\data\\csv\\4462_digit_symbol.csv'
tp142
a(S'2015-09-25 10:00:01.118000'
g105
tp143
a(S'2015-09-25 10:00:01.203000'
g107
tp144
a(S'2015-09-25 10:00:01.208000'
g105
tp145
a(S'2015-09-25 10:00:01.209000'
S'data saved as csv to C:\\Users\\oleach\\Charlie\\charlie\\data\\csv\\4462_digit_symbol.csv'
tp146
a(S'2015-09-25 10:01:51.125000'
g105
tp147
a(S'2015-09-25 10:01:51.309000'
g107
tp148
a(S'2015-09-25 10:01:51.312000'
g105
tp149
a(S'2015-09-25 10:01:51.313000'
S'data saved as csv to C:\\Users\\oleach\\Charlie\\charlie\\data\\csv\\4462_digit_symbol.csv'
tp150
a(S'2015-09-25 10:01:51.316000'
g105
tp151
asb.