(icharlie.tools.data
Data
p1
(dp2
S'lang'
p3
S'EN'
p4
sS'control'
p5
(lp6
sS'last_updated'
p7
S'2015-09-16 16:09:58.846000'
p8
sS'last_opened'
p9
cdatetime
datetime
p10
(S'\x07\xdf\t\x10\x10\x05+\x07\x04\xe0'
tRp11
sS'proj_id'
p12
S'connectivity'
p13
sS'date_done'
p14
g10
(S'\x07\xdf\t\x10\x10\t:\x0c\xe4\xc8'
tRp15
sS'test_done'
p16
I01
sS'data'
p17
(lp18
(S'4465'
p19
S'matrix_reasoning'
p20
S'practice'
p21
I0
S'C:\\Users\\oleach\\Charlie\\charlie\\stimuli\\visual\\matrix_reasoning\\prac_MA.png'
S'C:\\Users\\oleach\\Charlie\\charlie\\stimuli\\visual\\matrix_reasoning\\prac_MAa.png'
I1
I1
I7023
tp22
a(g19
g20
S'test'
p23
I0
S'C:\\Users\\oleach\\Charlie\\charlie\\stimuli\\visual\\matrix_reasoning\\M001.png'
S'C:\\Users\\oleach\\Charlie\\charlie\\stimuli\\visual\\matrix_reasoning\\M001a.png'
I1
I1
I2824
tp24
a(g19
g20
g23
I1
S'C:\\Users\\oleach\\Charlie\\charlie\\stimuli\\visual\\matrix_reasoning\\M002.png'
S'C:\\Users\\oleach\\Charlie\\charlie\\stimuli\\visual\\matrix_reasoning\\M002a.png'
I3
I3
I2588
tp25
a(g19
g20
g23
I2
S'C:\\Users\\oleach\\Charlie\\charlie\\stimuli\\visual\\matrix_reasoning\\M003.png'
S'C:\\Users\\oleach\\Charlie\\charlie\\stimuli\\visual\\matrix_reasoning\\M003a.png'
I1
I1
I3802
tp26
a(g19
g20
g23
I3
S'C:\\Users\\oleach\\Charlie\\charlie\\stimuli\\visual\\matrix_reasoning\\M004.png'
S'C:\\Users\\oleach\\Charlie\\charlie\\stimuli\\visual\\matrix_reasoning\\M004a.png'
I3
I3
I3401
tp27
a(g19
g20
g23
I4
S'C:\\Users\\oleach\\Charlie\\charlie\\stimuli\\visual\\matrix_reasoning\\M005.png'
S'C:\\Users\\oleach\\Charlie\\charlie\\stimuli\\visual\\matrix_reasoning\\M005a.png'
I2
I2
I4205
tp28
a(g19
g20
g23
I5
S'C:\\Users\\oleach\\Charlie\\charlie\\stimuli\\visual\\matrix_reasoning\\M006.png'
S'C:\\Users\\oleach\\Charlie\\charlie\\stimuli\\visual\\matrix_reasoning\\M006a.png'
I0
I0
I5414
tp29
a(g19
g20
g23
I6
S'C:\\Users\\oleach\\Charlie\\charlie\\stimuli\\visual\\matrix_reasoning\\M007.png'
S'C:\\Users\\oleach\\Charlie\\charlie\\stimuli\\visual\\matrix_reasoning\\M007a.png'
I0
I0
I3926
tp30
a(g19
g20
g23
I7
S'C:\\Users\\oleach\\Charlie\\charlie\\stimuli\\visual\\matrix_reasoning\\M008.png'
S'C:\\Users\\oleach\\Charlie\\charlie\\stimuli\\visual\\matrix_reasoning\\M008a.png'
I2
I2
I3015
tp31
a(g19
g20
g23
I8
S'C:\\Users\\oleach\\Charlie\\charlie\\stimuli\\visual\\matrix_reasoning\\M009.png'
S'C:\\Users\\oleach\\Charlie\\charlie\\stimuli\\visual\\matrix_reasoning\\M009a.png'
I4
I4
I5164
tp32
a(g19
g20
g23
I9
S'C:\\Users\\oleach\\Charlie\\charlie\\stimuli\\visual\\matrix_reasoning\\M010.png'
S'C:\\Users\\oleach\\Charlie\\charlie\\stimuli\\visual\\matrix_reasoning\\M010a.png'
I4
I4
I8367
tp33
a(g19
g20
g23
I10
S'C:\\Users\\oleach\\Charlie\\charlie\\stimuli\\visual\\matrix_reasoning\\M011.png'
S'C:\\Users\\oleach\\Charlie\\charlie\\stimuli\\visual\\matrix_reasoning\\M011a.png'
I4
I4
I5222
tp34
a(g19
g20
g23
I11
S'C:\\Users\\oleach\\Charlie\\charlie\\stimuli\\visual\\matrix_reasoning\\M012.png'
S'C:\\Users\\oleach\\Charlie\\charlie\\stimuli\\visual\\matrix_reasoning\\M012a.png'
I1
I0
I5411
tp35
a(g19
g20
g23
I12
S'C:\\Users\\oleach\\Charlie\\charlie\\stimuli\\visual\\matrix_reasoning\\M013.png'
S'C:\\Users\\oleach\\Charlie\\charlie\\stimuli\\visual\\matrix_reasoning\\M013a.png'
I2
I2
I16678
tp36
a(g19
g20
g23
I13
S'C:\\Users\\oleach\\Charlie\\charlie\\stimuli\\visual\\matrix_reasoning\\M014.png'
S'C:\\Users\\oleach\\Charlie\\charlie\\stimuli\\visual\\matrix_reasoning\\M014a.png'
I0
I0
I11852
tp37
a(g19
g20
g23
I14
S'C:\\Users\\oleach\\Charlie\\charlie\\stimuli\\visual\\matrix_reasoning\\M015.png'
S'C:\\Users\\oleach\\Charlie\\charlie\\stimuli\\visual\\matrix_reasoning\\M015a.png'
I1
I1
I9167
tp38
a(g19
g20
g23
I15
S'C:\\Users\\oleach\\Charlie\\charlie\\stimuli\\visual\\matrix_reasoning\\M016.png'
S'C:\\Users\\oleach\\Charlie\\charlie\\stimuli\\visual\\matrix_reasoning\\M016a.png'
I3
I3
I12009
tp39
a(g19
g20
g23
I16
S'C:\\Users\\oleach\\Charlie\\charlie\\stimuli\\visual\\matrix_reasoning\\M017.png'
S'C:\\Users\\oleach\\Charlie\\charlie\\stimuli\\visual\\matrix_reasoning\\M017a.png'
I2
I2
I10418
tp40
a(g19
g20
g23
I17
S'C:\\Users\\oleach\\Charlie\\charlie\\stimuli\\visual\\matrix_reasoning\\M018.png'
S'C:\\Users\\oleach\\Charlie\\charlie\\stimuli\\visual\\matrix_reasoning\\M018a.png'
I0
I0
I10132
tp41
a(g19
g20
g23
I18
S'C:\\Users\\oleach\\Charlie\\charlie\\stimuli\\visual\\matrix_reasoning\\M019.png'
S'C:\\Users\\oleach\\Charlie\\charlie\\stimuli\\visual\\matrix_reasoning\\M019a.png'
I0
I0
I17533
tp42
a(g19
g20
g23
I19
S'C:\\Users\\oleach\\Charlie\\charlie\\stimuli\\visual\\matrix_reasoning\\M020.png'
S'C:\\Users\\oleach\\Charlie\\charlie\\stimuli\\visual\\matrix_reasoning\\M020a.png'
I3
I4
I12710
tp43
a(g19
g20
g23
I20
S'C:\\Users\\oleach\\Charlie\\charlie\\stimuli\\visual\\matrix_reasoning\\M021.png'
S'C:\\Users\\oleach\\Charlie\\charlie\\stimuli\\visual\\matrix_reasoning\\M021a.png'
I4
I4
I10948
tp44
a(g19
g20
g23
I21
S'C:\\Users\\oleach\\Charlie\\charlie\\stimuli\\visual\\matrix_reasoning\\M022.png'
S'C:\\Users\\oleach\\Charlie\\charlie\\stimuli\\visual\\matrix_reasoning\\M022a.png'
I4
I2
I8539
tp45
a(g19
g20
g23
I22
S'C:\\Users\\oleach\\Charlie\\charlie\\stimuli\\visual\\matrix_reasoning\\M023.png'
S'C:\\Users\\oleach\\Charlie\\charlie\\stimuli\\visual\\matrix_reasoning\\M023a.png'
I1
I1
I8402
tp46
a(g19
g20
g23
I23
S'C:\\Users\\oleach\\Charlie\\charlie\\stimuli\\visual\\matrix_reasoning\\M024.png'
S'C:\\Users\\oleach\\Charlie\\charlie\\stimuli\\visual\\matrix_reasoning\\M024a.png'
I1
I3
I7817
tp47
a(g19
g20
g23
I24
S'C:\\Users\\oleach\\Charlie\\charlie\\stimuli\\visual\\matrix_reasoning\\M025.png'
S'C:\\Users\\oleach\\Charlie\\charlie\\stimuli\\visual\\matrix_reasoning\\M025a.png'
I0
I2
I3906
tp48
a(g19
g20
g23
I25
S'C:\\Users\\oleach\\Charlie\\charlie\\stimuli\\visual\\matrix_reasoning\\M026.png'
p49
S'C:\\Users\\oleach\\Charlie\\charlie\\stimuli\\visual\\matrix_reasoning\\M026a.png'
p50
I4
I0
I8479
tp51
asS'output_format'
p52
(lp53
(S'proband_id'
p54
c__builtin__
str
p55
tp56
a(S'test_name'
p57
g55
tp58
a(S'phase'
p59
g55
tp60
a(S'trialn'
p61
c__builtin__
int
p62
tp63
a(S'matrix'
p64
g55
tp65
a(S'array'
p66
g55
tp67
a(S'ans'
p68
g62
tp69
a(S'rsp'
p70
g62
tp71
a(S'rt'
p72
g62
tp73
asg54
g19
sS'filename'
p74
S'4465_matrix_reasoning.data'
p75
sS'initialised'
p76
g10
(S'\x07\xdf\t\x10\x10\x05+\x07\x04\xe0'
tRp77
sg57
S'matrix_reasoning'
p78
sS'directory'
p79
S'C:\\Users\\oleach\\Charlie\\charlie\\data\\raw'
p80
sS'user_id'
p81
S'oleach'
p82
sS'test_started'
p83
I01
sS'abs_filename'
p84
S'C:\\Users\\oleach\\Charlie\\charlie\\data\\raw\\4465_matrix_reasoning.data'
p85
sS'date_started'
p86
g10
(S'\x07\xdf\t\x10\x10\x06\x13\x02\xce\xc0'
tRp87
sS'log'
p88
(lp89
(S'2015-09-16 16:05:43.460000'
S'instance created'
p90
tp91
a(S'2015-09-16 16:06:19.194000'
S'instance updated'
p92
tp93
a(S'2015-09-16 16:06:19.221000'
S'pandas DataFrame of data created'
p94
tp95
a(S'2015-09-16 16:06:19.226000'
g92
tp96
a(S'2015-09-16 16:06:19.228000'
S'data saved as csv to C:\\Users\\oleach\\Charlie\\charlie\\data\\csv\\4465_matrix_reasoning.csv'
tp97
a(S'2015-09-16 16:06:19.245000'
g94
tp98
a(S'2015-09-16 16:06:26.049000'
g92
tp99
a(S'2015-09-16 16:06:26.096000'
g94
tp100
a(S'2015-09-16 16:06:26.104000'
g92
tp101
a(S'2015-09-16 16:06:26.108000'
S'data saved as csv to C:\\Users\\oleach\\Charlie\\charlie\\data\\csv\\4465_matrix_reasoning.csv'
tp102
a(S'2015-09-16 16:06:26.137000'
g94
tp103
a(S'2015-09-16 16:06:28.866000'
g92
tp104
a(S'2015-09-16 16:06:28.915000'
g94
tp105
a(S'2015-09-16 16:06:28.922000'
g92
tp106
a(S'2015-09-16 16:06:28.924000'
S'data saved as csv to C:\\Users\\oleach\\Charlie\\charlie\\data\\csv\\4465_matrix_reasoning.csv'
tp107
a(S'2015-09-16 16:06:28.972000'
g94
tp108
a(S'2015-09-16 16:06:32.922000'
g92
tp109
a(S'2015-09-16 16:06:33.004000'
g94
tp110
a(S'2015-09-16 16:06:33.013000'
g92
tp111
a(S'2015-09-16 16:06:33.016000'
S'data saved as csv to C:\\Users\\oleach\\Charlie\\charlie\\data\\csv\\4465_matrix_reasoning.csv'
tp112
a(S'2015-09-16 16:06:33.099000'
g94
tp113
a(S'2015-09-16 16:06:36.649000'
g92
tp114
a(S'2015-09-16 16:06:36.725000'
g94
tp115
a(S'2015-09-16 16:06:36.730000'
g92
tp116
a(S'2015-09-16 16:06:36.732000'
S'data saved as csv to C:\\Users\\oleach\\Charlie\\charlie\\data\\csv\\4465_matrix_reasoning.csv'
tp117
a(S'2015-09-16 16:06:36.799000'
g94
tp118
a(S'2015-09-16 16:06:41.146000'
g92
tp119
a(S'2015-09-16 16:06:41.250000'
g94
tp120
a(S'2015-09-16 16:06:41.257000'
g92
tp121
a(S'2015-09-16 16:06:41.261000'
S'data saved as csv to C:\\Users\\oleach\\Charlie\\charlie\\data\\csv\\4465_matrix_reasoning.csv'
tp122
a(S'2015-09-16 16:06:41.343000'
g94
tp123
a(S'2015-09-16 16:06:46.898000'
g92
tp124
a(S'2015-09-16 16:06:47.034000'
g94
tp125
a(S'2015-09-16 16:06:47.042000'
g92
tp126
a(S'2015-09-16 16:06:47.046000'
S'data saved as csv to C:\\Users\\oleach\\Charlie\\charlie\\data\\csv\\4465_matrix_reasoning.csv'
tp127
a(S'2015-09-16 16:06:47.181000'
g94
tp128
a(S'2015-09-16 16:06:51.259000'
g92
tp129
a(S'2015-09-16 16:06:51.412000'
g94
tp130
a(S'2015-09-16 16:06:51.420000'
g92
tp131
a(S'2015-09-16 16:06:51.424000'
S'data saved as csv to C:\\Users\\oleach\\Charlie\\charlie\\data\\csv\\4465_matrix_reasoning.csv'
tp132
a(S'2015-09-16 16:06:51.578000'
g94
tp133
a(S'2015-09-16 16:06:54.738000'
g92
tp134
a(S'2015-09-16 16:06:54.861000'
g94
tp135
a(S'2015-09-16 16:06:54.867000'
g92
tp136
a(S'2015-09-16 16:06:54.870000'
S'data saved as csv to C:\\Users\\oleach\\Charlie\\charlie\\data\\csv\\4465_matrix_reasoning.csv'
tp137
a(S'2015-09-16 16:06:54.983000'
g94
tp138
a(S'2015-09-16 16:07:00.292000'
g92
tp139
a(S'2015-09-16 16:07:00.411000'
g94
tp140
a(S'2015-09-16 16:07:00.416000'
g92
tp141
a(S'2015-09-16 16:07:00.418000'
S'data saved as csv to C:\\Users\\oleach\\Charlie\\charlie\\data\\csv\\4465_matrix_reasoning.csv'
tp142
a(S'2015-09-16 16:07:00.501000'
g94
tp143
a(S'2015-09-16 16:07:09.005000'
g92
tp144
a(S'2015-09-16 16:07:09.209000'
g94
tp145
a(S'2015-09-16 16:07:09.218000'
g92
tp146
a(S'2015-09-16 16:07:09.221000'
S'data saved as csv to C:\\Users\\oleach\\Charlie\\charlie\\data\\csv\\4465_matrix_reasoning.csv'
tp147
a(S'2015-09-16 16:07:09.428000'
g94
tp148
a(S'2015-09-16 16:07:14.796000'
g92
tp149
a(S'2015-09-16 16:07:15.017000'
g94
tp150
a(S'2015-09-16 16:07:15.026000'
g92
tp151
a(S'2015-09-16 16:07:15.030000'
S'data saved as csv to C:\\Users\\oleach\\Charlie\\charlie\\data\\csv\\4465_matrix_reasoning.csv'
tp152
a(S'2015-09-16 16:07:15.184000'
g94
tp153
a(S'2015-09-16 16:07:20.741000'
g92
tp154
a(S'2015-09-16 16:07:20.956000'
g94
tp155
a(S'2015-09-16 16:07:20.964000'
g92
tp156
a(S'2015-09-16 16:07:20.967000'
S'data saved as csv to C:\\Users\\oleach\\Charlie\\charlie\\data\\csv\\4465_matrix_reasoning.csv'
tp157
a(S'2015-09-16 16:07:21.104000'
g94
tp158
a(S'2015-09-16 16:07:37.916000'
g92
tp159
a(S'2015-09-16 16:07:38.019000'
g94
tp160
a(S'2015-09-16 16:07:38.023000'
g92
tp161
a(S'2015-09-16 16:07:38.024000'
S'data saved as csv to C:\\Users\\oleach\\Charlie\\charlie\\data\\csv\\4465_matrix_reasoning.csv'
tp162
a(S'2015-09-16 16:07:38.128000'
g94
tp163
a(S'2015-09-16 16:07:50.118000'
g92
tp164
a(S'2015-09-16 16:07:50.394000'
g94
tp165
a(S'2015-09-16 16:07:50.403000'
g92
tp166
a(S'2015-09-16 16:07:50.407000'
S'data saved as csv to C:\\Users\\oleach\\Charlie\\charlie\\data\\csv\\4465_matrix_reasoning.csv'
tp167
a(S'2015-09-16 16:07:50.569000'
g94
tp168
a(S'2015-09-16 16:07:59.879000'
g92
tp169
a(S'2015-09-16 16:08:00.173000'
g94
tp170
a(S'2015-09-16 16:08:00.183000'
g92
tp171
a(S'2015-09-16 16:08:00.186000'
S'data saved as csv to C:\\Users\\oleach\\Charlie\\charlie\\data\\csv\\4465_matrix_reasoning.csv'
tp172
a(S'2015-09-16 16:08:00.360000'
g94
tp173
a(S'2015-09-16 16:08:12.511000'
g92
tp174
a(S'2015-09-16 16:08:12.793000'
g94
tp175
a(S'2015-09-16 16:08:12.801000'
g92
tp176
a(S'2015-09-16 16:08:12.804000'
S'data saved as csv to C:\\Users\\oleach\\Charlie\\charlie\\data\\csv\\4465_matrix_reasoning.csv'
tp177
a(S'2015-09-16 16:08:12.991000'
g94
tp178
a(S'2015-09-16 16:08:23.548000'
g92
tp179
a(S'2015-09-16 16:08:23.767000'
g94
tp180
a(S'2015-09-16 16:08:23.773000'
g92
tp181
a(S'2015-09-16 16:08:23.776000'
S'data saved as csv to C:\\Users\\oleach\\Charlie\\charlie\\data\\csv\\4465_matrix_reasoning.csv'
tp182
a(S'2015-09-16 16:08:23.994000'
g94
tp183
a(S'2015-09-16 16:08:34.269000'
g92
tp184
a(S'2015-09-16 16:08:34.575000'
g94
tp185
a(S'2015-09-16 16:08:34.583000'
g92
tp186
a(S'2015-09-16 16:08:34.587000'
S'data saved as csv to C:\\Users\\oleach\\Charlie\\charlie\\data\\csv\\4465_matrix_reasoning.csv'
tp187
a(S'2015-09-16 16:08:34.894000'
g94
tp188
a(S'2015-09-16 16:08:52.577000'
g92
tp189
a(S'2015-09-16 16:08:52.801000'
g94
tp190
a(S'2015-09-16 16:08:52.807000'
g92
tp191
a(S'2015-09-16 16:08:52.809000'
S'data saved as csv to C:\\Users\\oleach\\Charlie\\charlie\\data\\csv\\4465_matrix_reasoning.csv'
tp192
a(S'2015-09-16 16:08:52.936000'
g94
tp193
a(S'2015-09-16 16:09:05.785000'
g92
tp194
a(S'2015-09-16 16:09:05.979000'
g94
tp195
a(S'2015-09-16 16:09:05.983000'
g92
tp196
a(S'2015-09-16 16:09:05.985000'
S'data saved as csv to C:\\Users\\oleach\\Charlie\\charlie\\data\\csv\\4465_matrix_reasoning.csv'
tp197
a(S'2015-09-16 16:09:06.109000'
g94
tp198
a(S'2015-09-16 16:09:17.193000'
g92
tp199
a(S'2015-09-16 16:09:17.466000'
g94
tp200
a(S'2015-09-16 16:09:17.472000'
g92
tp201
a(S'2015-09-16 16:09:17.475000'
S'data saved as csv to C:\\Users\\oleach\\Charlie\\charlie\\data\\csv\\4465_matrix_reasoning.csv'
tp202
a(S'2015-09-16 16:09:17.743000'
g94
tp203
a(S'2015-09-16 16:09:26.426000'
g92
tp204
a(S'2015-09-16 16:09:26.677000'
g94
tp205
a(S'2015-09-16 16:09:26.682000'
g92
tp206
a(S'2015-09-16 16:09:26.684000'
S'data saved as csv to C:\\Users\\oleach\\Charlie\\charlie\\data\\csv\\4465_matrix_reasoning.csv'
tp207
a(S'2015-09-16 16:09:26.922000'
g94
tp208
a(S'2015-09-16 16:09:35.467000'
g92
tp209
a(S'2015-09-16 16:09:35.680000'
g94
tp210
a(S'2015-09-16 16:09:35.685000'
g92
tp211
a(S'2015-09-16 16:09:35.687000'
S'data saved as csv to C:\\Users\\oleach\\Charlie\\charlie\\data\\csv\\4465_matrix_reasoning.csv'
tp212
a(S'2015-09-16 16:09:35.891000'
g94
tp213
a(S'2015-09-16 16:09:43.851000'
g92
tp214
a(S'2015-09-16 16:09:44.305000'
g94
tp215
a(S'2015-09-16 16:09:44.311000'
g92
tp216
a(S'2015-09-16 16:09:44.313000'
S'data saved as csv to C:\\Users\\oleach\\Charlie\\charlie\\data\\csv\\4465_matrix_reasoning.csv'
tp217
a(S'2015-09-16 16:09:44.570000'
g94
tp218
a(S'2015-09-16 16:09:48.620000'
g92
tp219
a(S'2015-09-16 16:09:48.936000'
g94
tp220
a(S'2015-09-16 16:09:48.942000'
g92
tp221
a(S'2015-09-16 16:09:48.945000'
S'data saved as csv to C:\\Users\\oleach\\Charlie\\charlie\\data\\csv\\4465_matrix_reasoning.csv'
tp222
a(S'2015-09-16 16:09:49.258000'
g94
tp223
a(S'2015-09-16 16:09:57.883000'
g92
tp224
a(S'2015-09-16 16:09:58.371000'
g94
tp225
a(S'2015-09-16 16:09:58.381000'
g92
tp226
a(S'2015-09-16 16:09:58.385000'
S'data saved as csv to C:\\Users\\oleach\\Charlie\\charlie\\data\\csv\\4465_matrix_reasoning.csv'
tp227
a(S'2015-09-16 16:09:58.672000'
g94
tp228
a(S'2015-09-16 16:09:58.845000'
g92
tp229
asb.