(icharlie.tools.data
Data
p1
(dp2
S'lang'
p3
S'EN'
p4
sS'control'
p5
(lp6
sS'last_updated'
p7
S'2015-09-23 12:07:27.741000'
p8
sS'last_opened'
p9
cdatetime
datetime
p10
(S'\x07\xdf\t\x17\x0c\x00\x17\x01\xd0\xd8'
tRp11
sS'proj_id'
p12
S'connectivity'
p13
sS'date_done'
p14
g10
(S'\x07\xdf\t\x17\x0c\x07\x1b\x0bN\x88'
tRp15
sS'test_done'
p16
I01
sS'data'
p17
(lp18
(S'4467'
p19
S'ctrails'
p20
S'number'
p21
S'practice'
p22
I0
I1
S'Correct'
p23
I13512
I23078
tp24
a(g19
g20
g21
g22
I1
I2
g23
I2140
I23078
tp25
a(g19
g20
g21
g22
I2
I3
g23
I1190
I23078
tp26
a(g19
g20
g21
g22
I3
I4
g23
I1620
I23078
tp27
a(g19
g20
g21
g22
I4
I5
g23
I910
I23078
tp28
a(g19
g20
g21
g22
I5
I6
g23
I1300
I23078
tp29
a(g19
g20
g21
g22
I6
I7
g23
I990
I23078
tp30
a(g19
g20
g21
g22
I7
I8
g23
I1370
I23078
tp31
a(g19
g20
g21
S'test'
p32
I0
I1
g23
I2330
I86236
tp33
a(g19
g20
g21
g32
I1
I2
g23
I3880
I86236
tp34
a(g19
g20
g21
g32
I2
I3
g23
I1580
I86236
tp35
a(g19
g20
g21
g32
I3
I4
g23
I3481
I86236
tp36
a(g19
g20
g21
g32
I4
I5
g23
I2620
I86236
tp37
a(g19
g20
g21
g32
I5
I6
g23
I2360
I86236
tp38
a(g19
g20
g21
g32
I6
I7
g23
I1240
I86236
tp39
a(g19
g20
g21
g32
I7
I8
g23
I860
I86236
tp40
a(g19
g20
g21
g32
I8
I9
g23
I1210
I86236
tp41
a(g19
g20
g21
g32
I9
I10
g23
I2020
I86236
tp42
a(g19
g20
g21
g32
I10
I11
g23
I1410
I86236
tp43
a(g19
g20
g21
g32
I11
I12
g23
I6221
I86236
tp44
a(g19
g20
g21
g32
I12
I13
g23
I3340
I86236
tp45
a(g19
g20
g21
g32
I13
I14
g23
I1510
I86236
tp46
a(g19
g20
g21
g32
I14
I15
g23
I5160
I86236
tp47
a(g19
g20
g21
g32
I15
I16
g23
I5980
I86236
tp48
a(g19
g20
g21
g32
I16
I17
g23
I1341
I86236
tp49
a(g19
g20
g21
g32
I17
I18
g23
I8480
I86236
tp50
a(g19
g20
g21
g32
I18
I19
g23
I11841
I86236
tp51
a(g19
g20
g21
g32
I19
I20
g23
I4770
I86236
tp52
a(g19
g20
g21
g32
I20
I21
g23
I6890
I86236
tp53
a(g19
g20
g21
g32
I21
I22
g23
I3241
I86236
tp54
a(g19
g20
g21
g32
I22
I23
g23
I1300
I86236
tp55
a(g19
g20
g21
g32
I23
I24
g23
I1460
I86236
tp56
a(g19
g20
g21
g32
I24
I25
g23
I1580
I86236
tp57
a(g19
g20
S'letter'
p58
g22
I0
S'a'
g23
I2900
I13036
tp59
a(g19
g20
g58
g22
I1
S'b'
g23
I1510
I13036
tp60
a(g19
g20
g58
g22
I2
S'c'
g23
I1150
I13036
tp61
a(g19
g20
g58
g22
I3
S'd'
g23
I1410
I13036
tp62
a(g19
g20
g58
g22
I4
S'e'
g23
I1460
I13036
tp63
a(g19
g20
g58
g22
I5
S'f'
g23
I1050
I13036
tp64
a(g19
g20
g58
g22
I6
S'g'
g23
I1360
I13036
tp65
a(g19
g20
g58
g22
I7
S'h'
g23
I2150
I13036
tp66
a(g19
g20
g58
g32
I0
S'a'
g23
I4440
I70032
tp67
a(g19
g20
g58
g32
I1
S'b'
g23
I4130
I70032
tp68
a(g19
g20
g58
g32
I2
S'c'
g23
I2190
I70032
tp69
a(g19
g20
g58
g32
I3
S'd'
g23
I2751
I70032
tp70
a(g19
g20
g58
g32
I4
S'e'
g23
I970
I70032
tp71
a(g19
g20
g58
g32
I5
S'f'
g23
I1750
I70032
tp72
a(g19
g20
g58
g32
I6
S'g'
g23
I1880
I70032
tp73
a(g19
g20
g58
g32
I7
S'h'
g23
I6730
I70032
tp74
a(g19
g20
g58
g32
I8
S'i'
g23
I3250
I70032
tp75
a(g19
g20
g58
g32
I9
S'j'
g23
I1081
I70032
tp76
a(g19
g20
g58
g32
I10
S'k'
g23
I3090
I70032
tp77
a(g19
g20
g58
g32
I11
S'l'
g23
I2060
I70032
tp78
a(g19
g20
g58
g32
I12
S'm'
g23
I1260
I70032
tp79
a(g19
g20
g58
g32
I13
S'n'
g23
I3410
I70032
tp80
a(g19
g20
g58
g32
I14
S'o'
g23
I3630
I70032
tp81
a(g19
g20
g58
g32
I15
S'p'
g23
I1740
I70032
tp82
a(g19
g20
g58
g32
I16
S'q'
g23
I1771
I70032
tp83
a(g19
g20
g58
g32
I17
S'r'
g23
I1400
I70032
tp84
a(g19
g20
g58
g32
I18
S's'
g23
I1430
I70032
tp85
a(g19
g20
g58
g32
I19
S't'
g23
I990
I70032
tp86
a(g19
g20
g58
g32
I20
S'u'
g23
I13410
I70032
tp87
a(g19
g20
g58
g32
I21
S'v'
g23
I1331
I70032
tp88
a(g19
g20
g58
g32
I22
S'w'
g23
I2960
I70032
tp89
a(g19
g20
g58
g32
I23
S'x'
g23
I1020
I70032
tp90
a(g19
g20
g58
g32
I24
S'y'
g23
I1240
I70032
tp91
a(g19
g20
S'number-letter'
p92
g22
I0
I1
g23
I3780
I19937
tp93
a(g19
g20
g92
g22
I1
S'a'
g23
I2150
I19937
tp94
a(g19
g20
g92
g22
I2
I2
g23
I2520
I19937
tp95
a(g19
g20
g92
g22
I3
S'b'
g23
I3571
I19937
tp96
a(g19
g20
g92
g22
I4
I3
g23
I1860
I19937
tp97
a(g19
g20
g92
g22
I5
S'c'
g23
I2590
I19937
tp98
a(g19
g20
g92
g22
I6
I4
g23
I1850
I19937
tp99
a(g19
g20
g92
g22
I7
S'd'
g23
I1570
I19937
tp100
a(g19
g20
g92
g32
I0
I1
g23
I3280
I140867
tp101
a(g19
g20
g92
g32
I1
S'a'
g23
I1310
I140867
tp102
a(g19
g20
g92
g32
I2
I2
g23
I3940
I140867
tp103
a(g19
g20
g92
g32
I3
S'b'
g23
I1760
I140867
tp104
a(g19
g20
g92
g32
I4
I3
g23
I2310
I140867
tp105
a(g19
g20
g92
g32
I5
S'c'
g23
I3160
I140867
tp106
a(g19
g20
g92
g32
I6
I4
g23
I1211
I140867
tp107
a(g19
g20
g92
g32
I7
S'd'
g23
I1760
I140867
tp108
a(g19
g20
g92
g32
I8
I5
g23
I3190
I140867
tp109
a(g19
g20
g92
g32
I9
S'e'
g23
I1640
I140867
tp110
a(g19
g20
g92
g32
I10
I6
g23
I5240
I140867
tp111
a(g19
g20
g92
g32
I11
S'f'
g23
I3700
I140867
tp112
a(g19
g20
g92
g32
I12
I7
g23
I4391
I140867
tp113
a(g19
g20
g92
g32
I13
S'g'
g23
I3540
I140867
tp114
a(g19
g20
g92
g32
I14
I8
g23
I5270
I140867
tp115
a(g19
g20
g92
g32
I15
S'h'
g23
I1350
I140867
tp116
a(g19
g20
g92
g32
I16
I9
g23
I5941
I140867
tp117
a(g19
g20
g92
g32
I17
S'i'
g23
I1260
I140867
tp118
a(g19
g20
g92
g32
I18
I10
g23
I4130
I140867
tp119
a(g19
g20
g92
g32
I19
S'j'
g23
I4110
I140867
tp120
a(g19
g20
g92
g32
I20
I11
g23
I5110
I140867
tp121
a(g19
g20
g92
g32
I21
S'k'
g23
I1721
I140867
tp122
a(g19
g20
g92
g32
I22
I12
g23
I5790
I140867
tp123
a(g19
g20
g92
g32
I23
S'l'
g23
I1080
I140867
tp124
a(g19
g20
g92
g32
I24
I13
g23
I64544
I140867
tp125
asS'output_format'
p126
(lp127
(S'proband_id'
p128
c__builtin__
str
p129
tp130
a(S'test_name'
p131
g129
tp132
a(S'phase'
p133
g129
tp134
a(S'trial_type'
p135
g129
tp136
a(S'n'
c__builtin__
int
p137
tp138
a(S'rsp'
p139
g129
tp140
a(S'corr'
p141
g129
tp142
a(S'rt'
p143
g137
tp144
a(S'total_time'
p145
g137
tp146
asg128
g19
sS'filename'
p147
S'4467_ctrails.data'
p148
sS'initialised'
p149
g10
(S'\x07\xdf\t\x17\x0c\x00\x17\x01\xd0\xd8'
tRp150
sg131
S'ctrails'
p151
sS'directory'
p152
S'c:\\Charlie\\charlie\\data\\raw'
p153
sS'user_id'
p154
S'sbuccheri'
p155
sS'test_started'
p156
I01
sS'abs_filename'
p157
S'c:\\Charlie\\charlie\\data\\raw\\4467_ctrails.data'
p158
sS'date_started'
p159
g10
(S'\x07\xdf\t\x17\x0c\x00:\x02\xe2H'
tRp160
sS'log'
p161
(lp162
(S'2015-09-23 12:00:23.119000'
S'instance created'
p163
tp164
a(S'2015-09-23 12:00:58.207000'
S'instance updated'
p165
tp166
a(S'2015-09-23 12:00:58.257000'
S'pandas DataFrame of data created'
p167
tp168
a(S'2015-09-23 12:00:58.265000'
g165
tp169
a(S'2015-09-23 12:00:58.278000'
S'data saved as csv to c:\\Charlie\\charlie\\data\\csv\\4467_ctrails.csv'
tp170
a(S'2015-09-23 12:02:33.679000'
g165
tp171
a(S'2015-09-23 12:02:33.847000'
g167
tp172
a(S'2015-09-23 12:02:33.856000'
g165
tp173
a(S'2015-09-23 12:02:33.860000'
S'data saved as csv to c:\\Charlie\\charlie\\data\\csv\\4467_ctrails.csv'
tp174
a(S'2015-09-23 12:02:59.335000'
g165
tp175
a(S'2015-09-23 12:02:59.546000'
g167
tp176
a(S'2015-09-23 12:02:59.555000'
g165
tp177
a(S'2015-09-23 12:02:59.558000'
S'data saved as csv to c:\\Charlie\\charlie\\data\\csv\\4467_ctrails.csv'
tp178
a(S'2015-09-23 12:04:19.658000'
g165
tp179
a(S'2015-09-23 12:04:19.992000'
g167
tp180
a(S'2015-09-23 12:04:20.001000'
g165
tp181
a(S'2015-09-23 12:04:20.005000'
S'data saved as csv to c:\\Charlie\\charlie\\data\\csv\\4467_ctrails.csv'
tp182
a(S'2015-09-23 12:04:56.756000'
g165
tp183
a(S'2015-09-23 12:04:57.135000'
g167
tp184
a(S'2015-09-23 12:04:57.145000'
g165
tp185
a(S'2015-09-23 12:04:57.149000'
S'data saved as csv to c:\\Charlie\\charlie\\data\\csv\\4467_ctrails.csv'
tp186
a(S'2015-09-23 12:07:27.203000'
g165
tp187
a(S'2015-09-23 12:07:27.717000'
g167
tp188
a(S'2015-09-23 12:07:27.727000'
g165
tp189
a(S'2015-09-23 12:07:27.731000'
S'data saved as csv to c:\\Charlie\\charlie\\data\\csv\\4467_ctrails.csv'
tp190
a(S'2015-09-23 12:07:27.741000'
g165
tp191
asb.