(icharlie.tools.data
Data
p1
(dp2
S'lang'
p3
S'EN'
p4
sS'control'
p5
(lp6
sS'last_updated'
p7
S'2015-09-23 11:20:37.203000'
p8
sS'last_opened'
p9
cdatetime
datetime
p10
(S'\x07\xdf\t\x17\x0b\r9\x04\x84@'
tRp11
sS'proj_id'
p12
S'connectivity'
p13
sS'date_done'
p14
g10
(S'\x07\xdf\t\x17\x0b\x14%\x03\x15\x10'
tRp15
sS'test_done'
p16
I01
sS'data'
p17
(lp18
(S'4467'
p19
S'cvlt2'
p20
I0
csip
_unpickle_type
p21
(S'PyQt4.QtCore'
p22
S'QString'
(Vtruck
p23
ttRp24
tp25
a(g19
g20
I0
g21
(g22
S'QString'
(Vsubway
p26
ttRp27
tp28
a(g19
g20
I0
g21
(g22
S'QString'
(Vsquirrel
p29
ttRp30
tp31
a(g19
g20
I0
g21
(g22
S'QString'
(Vintrusion
p32
ttRp33
tp34
a(g19
g20
I0
g21
(g22
S'QString'
(Vcabinet
p35
ttRp36
tp37
a(g19
g20
I1
g21
(g22
S'QString'
(Vtruck
p38
ttRp39
tp40
a(g19
g20
I1
g21
(g22
S'QString'
(Vcabbage
p41
ttRp42
tp43
a(g19
g20
I1
g21
(g22
S'QString'
(Vsquirrel
p44
ttRp45
tp46
a(g19
g20
I1
g21
(g22
S'QString'
(Vboat
p47
ttRp48
tp49
a(g19
g20
I1
g21
(g22
S'QString'
(Vcabinet
p50
ttRp51
tp52
a(g19
g20
I1
g21
(g22
S'QString'
(Vsubway
p53
ttRp54
tp55
a(g19
g20
I1
g21
(g22
S'QString'
(Vcow
p56
ttRp57
tp58
a(g19
g20
I1
g21
(g22
S'QString'
(Vsquirrel
p59
ttRp60
tp61
a(g19
g20
I1
g21
(g22
S'QString'
(Vtruck
p62
ttRp63
tp64
a(g19
g20
I2
g21
(g22
S'QString'
(Vcabbage
p65
ttRp66
tp67
a(g19
g20
I2
g21
(g22
S'QString'
(Vsquirrel
p68
ttRp69
tp70
a(g19
g20
I2
g21
(g22
S'QString'
(Vboat
p71
ttRp72
tp73
a(g19
g20
I2
g21
(g22
S'QString'
(Vcow
p74
ttRp75
tp76
a(g19
g20
I2
g21
(g22
S'QString'
(Vspinach
p77
ttRp78
tp79
a(g19
g20
I2
g21
(g22
S'QString'
(Vdesk
p80
ttRp81
tp82
a(g19
g20
I2
g21
(g22
S'QString'
(Vonion
p83
ttRp84
tp85
a(g19
g20
I2
g21
(g22
S'QString'
(Vtruck
p86
ttRp87
tp88
a(g19
g20
I2
g21
(g22
S'QString'
(Vcelery
p89
ttRp90
tp91
a(g19
g20
I2
g21
(g22
S'QString'
(Vdesk
p92
ttRp93
tp94
a(g19
g20
I3
g21
(g22
S'QString'
(Vcabbage
p95
ttRp96
tp97
a(g19
g20
I3
g21
(g22
S'QString'
(Vmotorcycle
p98
ttRp99
tp100
a(g19
g20
I3
g21
(g22
S'QString'
(Vsquirrel
p101
ttRp102
tp103
a(g19
g20
I3
g21
(g22
S'QString'
(Vcow
p104
ttRp105
tp106
a(g19
g20
I3
g21
(g22
S'QString'
(Vboat
p107
ttRp108
tp109
a(g19
g20
I3
g21
(g22
S'QString'
(Vdesk
p110
ttRp111
tp112
a(g19
g20
I3
g21
(g22
S'QString'
(Vonion
p113
ttRp114
tp115
a(g19
g20
I3
g21
(g22
S'QString'
(Vspinach
p116
ttRp117
tp118
a(g19
g20
I3
g21
(g22
S'QString'
(Vintrusion
p119
ttRp120
tp121
a(g19
g20
I4
g21
(g22
S'QString'
(Vtruck
p122
ttRp123
tp124
a(g19
g20
I4
g21
(g22
S'QString'
(Vcabbage
p125
ttRp126
tp127
a(g19
g20
I4
g21
(g22
S'QString'
(Vboat
p128
ttRp129
tp130
a(g19
g20
I4
g21
(g22
S'QString'
(Vbookcase
p131
ttRp132
tp133
a(g19
g20
I4
g21
(g22
S'QString'
(Vsquirrel
p134
ttRp135
tp136
a(g19
g20
I4
g21
(g22
S'QString'
(Vcow
p137
ttRp138
tp139
a(g19
g20
I4
g21
(g22
S'QString'
(Vmotorcycle
p140
ttRp141
tp142
a(g19
g20
I4
g21
(g22
S'QString'
(Vzebra
p143
ttRp144
tp145
a(g19
g20
I4
g21
(g22
S'QString'
(Vgiraffe
p146
ttRp147
tp148
a(g19
g20
I4
g21
(g22
S'QString'
(Vcelery
p149
ttRp150
tp151
a(g19
g20
I4
g21
(g22
S'QString'
(Vonion
p152
ttRp153
tp154
a(g19
g20
I4
g21
(g22
S'QString'
(Vmotorcycle
p155
ttRp156
tp157
a(g19
g20
I4
g21
(g22
S'QString'
(Vboat
p158
ttRp159
tp160
asS'output_format'
p161
(lp162
(S'proband_id'
p163
c__builtin__
str
p164
tp165
a(S'test_name'
p166
g164
tp167
a(S'trialn'
p168
c__builtin__
int
p169
tp170
a(S'rsp'
p171
g164
tp172
asg163
g19
sS'filename'
p173
S'4467_cvlt2.data'
p174
sS'initialised'
p175
g10
(S'\x07\xdf\t\x17\x0b\r9\x04\x84@'
tRp176
sg166
S'cvlt2'
p177
sS'directory'
p178
S'c:\\Charlie\\charlie\\data\\raw'
p179
sS'user_id'
p180
S'sbuccheri'
p181
sS'test_started'
p182
I01
sS'abs_filename'
p183
S'c:\\Charlie\\charlie\\data\\raw\\4467_cvlt2.data'
p184
sS'date_started'
p185
g10
(S'\x07\xdf\t\x17\x0b\x0f\x0e\t\x00\xb0'
tRp186
sS'log'
p187
(lp188
(S'2015-09-23 11:13:57.296000'
S'instance created'
p189
tp190
a(S'2015-09-23 11:15:14.608000'
S'instance updated'
p191
tp192
a(S'2015-09-23 11:15:14.641000'
S'pandas DataFrame of data created'
p193
tp194
a(S'2015-09-23 11:15:14.647000'
g191
tp195
a(S'2015-09-23 11:15:14.655000'
S'data saved as csv to c:\\Charlie\\charlie\\data\\csv\\4467_cvlt2.csv'
tp196
a(S'2015-09-23 11:15:55.075000'
g191
tp197
a(S'2015-09-23 11:15:55.108000'
g193
tp198
a(S'2015-09-23 11:15:55.114000'
g191
tp199
a(S'2015-09-23 11:15:55.116000'
S'data saved as csv to c:\\Charlie\\charlie\\data\\csv\\4467_cvlt2.csv'
tp200
a(S'2015-09-23 11:16:19.657000'
g191
tp201
a(S'2015-09-23 11:16:19.726000'
g193
tp202
a(S'2015-09-23 11:16:19.732000'
g191
tp203
a(S'2015-09-23 11:16:19.734000'
S'data saved as csv to c:\\Charlie\\charlie\\data\\csv\\4467_cvlt2.csv'
tp204
a(S'2015-09-23 11:16:56.542000'
g191
tp205
a(S'2015-09-23 11:16:56.602000'
g193
tp206
a(S'2015-09-23 11:16:56.605000'
g191
tp207
a(S'2015-09-23 11:16:56.606000'
S'data saved as csv to c:\\Charlie\\charlie\\data\\csv\\4467_cvlt2.csv'
tp208
a(S'2015-09-23 11:17:40.709000'
g191
tp209
a(S'2015-09-23 11:17:40.786000'
g193
tp210
a(S'2015-09-23 11:17:40.789000'
g191
tp211
a(S'2015-09-23 11:17:40.791000'
S'data saved as csv to c:\\Charlie\\charlie\\data\\csv\\4467_cvlt2.csv'
tp212
a(S'2015-09-23 11:18:21.738000'
g191
tp213
a(S'2015-09-23 11:18:21.815000'
g193
tp214
a(S'2015-09-23 11:18:21.819000'
g191
tp215
a(S'2015-09-23 11:18:21.820000'
S'data saved as csv to c:\\Charlie\\charlie\\data\\csv\\4467_cvlt2.csv'
tp216
a(S'2015-09-23 11:19:01.975000'
g191
tp217
a(S'2015-09-23 11:19:02.082000'
g193
tp218
a(S'2015-09-23 11:19:02.085000'
g191
tp219
a(S'2015-09-23 11:19:02.086000'
S'data saved as csv to c:\\Charlie\\charlie\\data\\csv\\4467_cvlt2.csv'
tp220
a(S'2015-09-23 11:19:39.133000'
g191
tp221
a(S'2015-09-23 11:19:39.224000'
g193
tp222
a(S'2015-09-23 11:19:39.227000'
g191
tp223
a(S'2015-09-23 11:19:39.228000'
S'data saved as csv to c:\\Charlie\\charlie\\data\\csv\\4467_cvlt2.csv'
tp224
a(S'2015-09-23 11:20:37.065000'
g191
tp225
a(S'2015-09-23 11:20:37.199000'
g193
tp226
a(S'2015-09-23 11:20:37.202000'
g191
tp227
a(S'2015-09-23 11:20:37.203000'
S'data saved as csv to c:\\Charlie\\charlie\\data\\csv\\4467_cvlt2.csv'
tp228
asb.