(icharlie.tools.data
Data
p1
(dp2
S'lang'
p3
S'EN'
p4
sS'control'
p5
(lp6
sS'last_updated'
p7
S'2015-09-28 11:53:58.768000'
p8
sS'last_opened'
p9
cdatetime
datetime
p10
(S'\x07\xdf\t\x1c\x0b0,\x08\xc6\x18'
tRp11
sS'proj_id'
p12
S'connectivity'
p13
sS'date_done'
p14
g10
(S'\x07\xdf\t\x1c\x0b5:\x0b\xb4\x18'
tRp15
sS'test_done'
p16
I01
sS'data'
p17
(lp18
(S'4470'
p19
S'verbal_fluency'
p20
I0
S'True'
p21
tp22
a(g19
g20
I0
g21
tp23
a(g19
g20
I0
g21
tp24
a(g19
g20
I0
g21
tp25
a(g19
g20
I0
g21
tp26
a(g19
g20
I0
g21
tp27
a(g19
g20
I0
g21
tp28
a(g19
g20
I0
g21
tp29
a(g19
g20
I0
g21
tp30
a(g19
g20
I0
g21
tp31
a(g19
g20
I0
g21
tp32
a(g19
g20
I0
g21
tp33
a(g19
g20
I0
g21
tp34
a(g19
g20
I0
g21
tp35
a(g19
g20
I0
g21
tp36
a(g19
g20
I0
g21
tp37
a(g19
g20
I0
g21
tp38
a(g19
g20
I0
g21
tp39
a(g19
g20
I0
g21
tp40
a(g19
g20
I0
g21
tp41
a(g19
g20
I0
S'False'
p42
tp43
a(g19
g20
I0
g21
tp44
a(g19
g20
I0
g21
tp45
a(g19
g20
I0
g21
tp46
a(g19
g20
I0
g21
tp47
a(g19
g20
I0
g42
tp48
a(g19
g20
I1
g21
tp49
a(g19
g20
I1
g42
tp50
a(g19
g20
I1
g21
tp51
a(g19
g20
I1
g21
tp52
a(g19
g20
I1
g21
tp53
a(g19
g20
I1
g21
tp54
a(g19
g20
I1
g42
tp55
a(g19
g20
I1
g21
tp56
a(g19
g20
I1
g21
tp57
a(g19
g20
I1
g21
tp58
a(g19
g20
I1
g21
tp59
a(g19
g20
I1
g21
tp60
a(g19
g20
I1
g21
tp61
a(g19
g20
I1
g21
tp62
a(g19
g20
I1
g21
tp63
a(g19
g20
I1
g21
tp64
a(g19
g20
I1
g21
tp65
a(g19
g20
I1
g21
tp66
a(g19
g20
I1
g21
tp67
a(g19
g20
I1
g21
tp68
a(g19
g20
I1
g21
tp69
a(g19
g20
I1
g21
tp70
a(g19
g20
I1
g21
tp71
a(g19
g20
I1
g21
tp72
a(g19
g20
I1
g21
tp73
a(g19
g20
I1
g21
tp74
a(g19
g20
I2
g21
tp75
a(g19
g20
I2
g21
tp76
a(g19
g20
I2
g21
tp77
a(g19
g20
I2
g21
tp78
a(g19
g20
I2
g21
tp79
a(g19
g20
I2
g21
tp80
a(g19
g20
I2
g21
tp81
a(g19
g20
I2
g21
tp82
a(g19
g20
I2
g21
tp83
a(g19
g20
I2
g21
tp84
a(g19
g20
I2
g21
tp85
a(g19
g20
I2
g21
tp86
a(g19
g20
I2
g21
tp87
a(g19
g20
I2
g21
tp88
a(g19
g20
I2
g21
tp89
a(g19
g20
I2
g21
tp90
a(g19
g20
I2
g21
tp91
a(g19
g20
I2
g21
tp92
a(g19
g20
I2
g21
tp93
a(g19
g20
I2
g21
tp94
a(g19
g20
I2
g42
tp95
a(g19
g20
I2
g21
tp96
a(g19
g20
I2
g21
tp97
a(g19
g20
I2
g21
tp98
a(g19
g20
I2
g21
tp99
a(g19
g20
I2
g21
tp100
a(g19
g20
I2
g21
tp101
a(g19
g20
I2
g21
tp102
a(g19
g20
I2
g21
tp103
a(g19
g20
I2
g21
tp104
a(g19
g20
I2
g21
tp105
a(g19
g20
I3
g21
tp106
a(g19
g20
I3
g21
tp107
a(g19
g20
I3
g21
tp108
a(g19
g20
I3
g21
tp109
a(g19
g20
I3
g21
tp110
a(g19
g20
I3
g21
tp111
a(g19
g20
I3
g21
tp112
a(g19
g20
I3
g21
tp113
a(g19
g20
I3
g21
tp114
a(g19
g20
I3
g21
tp115
a(g19
g20
I3
g21
tp116
a(g19
g20
I3
g21
tp117
a(g19
g20
I3
g21
tp118
a(g19
g20
I3
g21
tp119
a(g19
g20
I3
g21
tp120
a(g19
g20
I3
g21
tp121
a(g19
g20
I3
g21
tp122
a(g19
g20
I3
g21
tp123
a(g19
g20
I3
g42
tp124
a(g19
g20
I3
g21
tp125
a(g19
g20
I3
g21
tp126
a(g19
g20
I3
g42
tp127
asS'output_format'
p128
(lp129
(S'proband_id'
p130
c__builtin__
str
p131
tp132
a(S'test_name'
p133
g131
tp134
a(S'trialn'
p135
c__builtin__
int
p136
tp137
a(S'rsp'
p138
g131
tp139
asg130
g19
sS'filename'
p140
S'4470_verbal_fluency.data'
p141
sS'initialised'
p142
g10
(S'\x07\xdf\t\x1c\x0b0,\x08\xc6\x18'
tRp143
sg133
S'verbal_fluency'
p144
sS'directory'
p145
S'C:\\Users\\Jbarrett\\Charlie\\charlie\\data\\raw'
p146
sS'user_id'
p147
S'barrett'
p148
sS'test_started'
p149
I01
sS'abs_filename'
p150
S'C:\\Users\\Jbarrett\\Charlie\\charlie\\data\\raw\\4470_verbal_fluency.data'
p151
sS'date_started'
p152
g10
(S'\x07\xdf\t\x1c\x0b2 \x04\xcex'
tRp153
sS'log'
p154
(lp155
(S'2015-09-28 11:48:44.575000'
S'instance created'
p156
tp157
a(S'2015-09-28 11:50:32.325000'
S'instance updated'
p158
tp159
a(S'2015-09-28 11:50:32.397000'
S'pandas DataFrame of data created'
p160
tp161
a(S'2015-09-28 11:50:32.400000'
g158
tp162
a(S'2015-09-28 11:50:32.401000'
S'data saved as csv to C:\\Users\\Jbarrett\\Charlie\\charlie\\data\\csv\\4470_verbal_fluency.csv'
tp163
a(S'2015-09-28 11:50:36.779000'
g158
tp164
a(S'2015-09-28 11:50:36.860000'
g160
tp165
a(S'2015-09-28 11:50:36.863000'
g158
tp166
a(S'2015-09-28 11:50:36.864000'
S'data saved as csv to C:\\Users\\Jbarrett\\Charlie\\charlie\\data\\csv\\4470_verbal_fluency.csv'
tp167
a(S'2015-09-28 11:51:41.928000'
g158
tp168
a(S'2015-09-28 11:51:42.052000'
g160
tp169
a(S'2015-09-28 11:51:42.054000'
g158
tp170
a(S'2015-09-28 11:51:42.055000'
S'data saved as csv to C:\\Users\\Jbarrett\\Charlie\\charlie\\data\\csv\\4470_verbal_fluency.csv'
tp171
a(S'2015-09-28 11:51:44.191000'
g158
tp172
a(S'2015-09-28 11:51:44.303000'
g160
tp173
a(S'2015-09-28 11:51:44.306000'
g158
tp174
a(S'2015-09-28 11:51:44.307000'
S'data saved as csv to C:\\Users\\Jbarrett\\Charlie\\charlie\\data\\csv\\4470_verbal_fluency.csv'
tp175
a(S'2015-09-28 11:52:47.941000'
g158
tp176
a(S'2015-09-28 11:52:48.102000'
g160
tp177
a(S'2015-09-28 11:52:48.105000'
g158
tp178
a(S'2015-09-28 11:52:48.106000'
S'data saved as csv to C:\\Users\\Jbarrett\\Charlie\\charlie\\data\\csv\\4470_verbal_fluency.csv'
tp179
a(S'2015-09-28 11:52:55.225000'
g158
tp180
a(S'2015-09-28 11:52:55.380000'
g160
tp181
a(S'2015-09-28 11:52:55.383000'
g158
tp182
a(S'2015-09-28 11:52:55.384000'
S'data saved as csv to C:\\Users\\Jbarrett\\Charlie\\charlie\\data\\csv\\4470_verbal_fluency.csv'
tp183
a(S'2015-09-28 11:53:58.573000'
g158
tp184
a(S'2015-09-28 11:53:58.764000'
g160
tp185
a(S'2015-09-28 11:53:58.767000'
g158
tp186
a(S'2015-09-28 11:53:58.768000'
S'data saved as csv to C:\\Users\\Jbarrett\\Charlie\\charlie\\data\\csv\\4470_verbal_fluency.csv'
tp187
asb.