(icharlie.tools.data
Data
p1
(dp2
S'lang'
p3
S'EN'
p4
sS'control'
p5
(lp6
sS'last_updated'
p7
S'2015-09-28 11:28:46.550000'
p8
sS'last_opened'
p9
cdatetime
datetime
p10
(S'\x07\xdf\t\x1c\x0b\x1a\x05\t^p'
tRp11
sS'proj_id'
p12
S'connectivity'
p13
sS'date_done'
p14
g10
(S'\x07\xdf\t\x1c\x0b\x1c.\x08dp'
tRp15
sS'test_done'
p16
I01
sS'data'
p17
(lp18
(S'4470'
p19
S'digit_symbol'
p20
S'practice'
p21
I0
I2
I2
S'Yes'
p22
S'C:\\Users\\Jbarrett\\Charlie\\charlie\\stimuli\\visual\\digit_symbol\\sym2.bmp'
g22
I14901
tp23
a(g19
g20
g21
I1
I6
I6
g22
S'C:\\Users\\Jbarrett\\Charlie\\charlie\\stimuli\\visual\\digit_symbol\\sym6.bmp'
g22
I2570
tp24
a(g19
g20
g21
I2
I8
I4
S'No'
p25
S'C:\\Users\\Jbarrett\\Charlie\\charlie\\stimuli\\visual\\digit_symbol\\sym4.bmp'
g25
I2440
tp26
a(g19
g20
g21
I3
I4
I4
g22
S'C:\\Users\\Jbarrett\\Charlie\\charlie\\stimuli\\visual\\digit_symbol\\sym4.bmp'
g22
I2780
tp27
a(g19
g20
g21
I4
I7
I7
g22
S'C:\\Users\\Jbarrett\\Charlie\\charlie\\stimuli\\visual\\digit_symbol\\sym7.bmp'
g22
I1880
tp28
a(g19
g20
g21
I5
I6
I5
g25
S'C:\\Users\\Jbarrett\\Charlie\\charlie\\stimuli\\visual\\digit_symbol\\sym5.bmp'
g25
I2760
tp29
a(g19
g20
g21
I6
I2
I8
g25
S'C:\\Users\\Jbarrett\\Charlie\\charlie\\stimuli\\visual\\digit_symbol\\sym8.bmp'
g25
I2120
tp30
a(g19
g20
g21
I7
I9
I2
g25
S'C:\\Users\\Jbarrett\\Charlie\\charlie\\stimuli\\visual\\digit_symbol\\sym2.bmp'
g25
I1470
tp31
a(g19
g20
g21
I8
I3
I7
g25
S'C:\\Users\\Jbarrett\\Charlie\\charlie\\stimuli\\visual\\digit_symbol\\sym7.bmp'
g25
I1780
tp32
a(g19
g20
g21
I9
I5
I6
g25
S'C:\\Users\\Jbarrett\\Charlie\\charlie\\stimuli\\visual\\digit_symbol\\sym6.bmp'
g22
I760
tp33
a(g19
g20
S'test'
p34
I0
I8
I8
g22
S'C:\\Users\\Jbarrett\\Charlie\\charlie\\stimuli\\visual\\digit_symbol\\sym8.bmp'
g22
I3305
tp35
a(g19
g20
g34
I1
I1
I4
g25
S'C:\\Users\\Jbarrett\\Charlie\\charlie\\stimuli\\visual\\digit_symbol\\sym4.bmp'
g25
I3304
tp36
a(g19
g20
g34
I2
I2
I8
g25
S'C:\\Users\\Jbarrett\\Charlie\\charlie\\stimuli\\visual\\digit_symbol\\sym8.bmp'
g25
I1803
tp37
a(g19
g20
g34
I3
I6
I2
g25
S'C:\\Users\\Jbarrett\\Charlie\\charlie\\stimuli\\visual\\digit_symbol\\sym2.bmp'
g25
I1903
tp38
a(g19
g20
g34
I4
I4
I4
g22
S'C:\\Users\\Jbarrett\\Charlie\\charlie\\stimuli\\visual\\digit_symbol\\sym4.bmp'
g22
I1603
tp39
a(g19
g20
g34
I5
I9
I5
g25
S'C:\\Users\\Jbarrett\\Charlie\\charlie\\stimuli\\visual\\digit_symbol\\sym5.bmp'
g25
I3204
tp40
a(g19
g20
g34
I6
I5
I6
g25
S'C:\\Users\\Jbarrett\\Charlie\\charlie\\stimuli\\visual\\digit_symbol\\sym6.bmp'
g25
I2003
tp41
a(g19
g20
g34
I7
I3
I3
g22
S'C:\\Users\\Jbarrett\\Charlie\\charlie\\stimuli\\visual\\digit_symbol\\sym3.bmp'
g22
I1903
tp42
a(g19
g20
g34
I8
I4
I4
g22
S'C:\\Users\\Jbarrett\\Charlie\\charlie\\stimuli\\visual\\digit_symbol\\sym4.bmp'
g22
I1502
tp43
a(g19
g20
g34
I9
I9
I9
g22
S'C:\\Users\\Jbarrett\\Charlie\\charlie\\stimuli\\visual\\digit_symbol\\sym9.bmp'
g22
I4102
tp44
a(g19
g20
g34
I10
I6
I6
g22
S'C:\\Users\\Jbarrett\\Charlie\\charlie\\stimuli\\visual\\digit_symbol\\sym6.bmp'
g22
I1802
tp45
a(g19
g20
g34
I11
I1
I1
g22
S'C:\\Users\\Jbarrett\\Charlie\\charlie\\stimuli\\visual\\digit_symbol\\sym1.bmp'
g22
I2103
tp46
a(g19
g20
g34
I12
I2
I2
g22
S'C:\\Users\\Jbarrett\\Charlie\\charlie\\stimuli\\visual\\digit_symbol\\sym2.bmp'
g22
I1802
tp47
a(g19
g20
g34
I13
I7
I7
g22
S'C:\\Users\\Jbarrett\\Charlie\\charlie\\stimuli\\visual\\digit_symbol\\sym7.bmp'
g22
I4103
tp48
a(g19
g20
g34
I14
I3
I3
g22
S'C:\\Users\\Jbarrett\\Charlie\\charlie\\stimuli\\visual\\digit_symbol\\sym3.bmp'
g22
I2103
tp49
a(g19
g20
g34
I15
I8
I8
g22
S'C:\\Users\\Jbarrett\\Charlie\\charlie\\stimuli\\visual\\digit_symbol\\sym8.bmp'
g22
I3003
tp50
a(g19
g20
g34
I16
I7
I7
g22
S'C:\\Users\\Jbarrett\\Charlie\\charlie\\stimuli\\visual\\digit_symbol\\sym7.bmp'
g22
I2503
tp51
a(g19
g20
g34
I17
I5
I3
g25
S'C:\\Users\\Jbarrett\\Charlie\\charlie\\stimuli\\visual\\digit_symbol\\sym3.bmp'
g25
I5204
tp52
a(g19
g20
g34
I18
I1
I5
g25
S'C:\\Users\\Jbarrett\\Charlie\\charlie\\stimuli\\visual\\digit_symbol\\sym5.bmp'
g25
I2503
tp53
a(g19
g20
g34
I19
I4
I4
g22
S'C:\\Users\\Jbarrett\\Charlie\\charlie\\stimuli\\visual\\digit_symbol\\sym4.bmp'
g22
I1703
tp54
a(g19
g20
g34
I20
I7
I8
g25
S'C:\\Users\\Jbarrett\\Charlie\\charlie\\stimuli\\visual\\digit_symbol\\sym8.bmp'
g25
I2504
tp55
a(g19
g20
g34
I21
I4
I4
g22
S'C:\\Users\\Jbarrett\\Charlie\\charlie\\stimuli\\visual\\digit_symbol\\sym4.bmp'
g22
I1603
tp56
a(g19
g20
g34
I22
I8
I8
g22
S'C:\\Users\\Jbarrett\\Charlie\\charlie\\stimuli\\visual\\digit_symbol\\sym8.bmp'
g22
I2103
tp57
a(g19
g20
g34
I23
I3
I3
g22
S'C:\\Users\\Jbarrett\\Charlie\\charlie\\stimuli\\visual\\digit_symbol\\sym3.bmp'
g22
I2004
tp58
a(g19
g20
g34
I24
I5
I5
g22
S'C:\\Users\\Jbarrett\\Charlie\\charlie\\stimuli\\visual\\digit_symbol\\sym5.bmp'
g25
I2203
tp59
a(g19
g20
g34
I25
I3
I1
g25
S'C:\\Users\\Jbarrett\\Charlie\\charlie\\stimuli\\visual\\digit_symbol\\sym1.bmp'
g25
I2604
tp60
a(g19
g20
g34
I26
I6
I9
g25
S'C:\\Users\\Jbarrett\\Charlie\\charlie\\stimuli\\visual\\digit_symbol\\sym9.bmp'
g25
I2103
tp61
a(g19
g20
g34
I27
I2
I2
g22
S'C:\\Users\\Jbarrett\\Charlie\\charlie\\stimuli\\visual\\digit_symbol\\sym2.bmp'
g22
I1603
tp62
a(g19
g20
g34
I28
I8
I8
g22
S'C:\\Users\\Jbarrett\\Charlie\\charlie\\stimuli\\visual\\digit_symbol\\sym8.bmp'
g22
I2303
tp63
a(g19
g20
g34
I29
I9
I2
g25
S'C:\\Users\\Jbarrett\\Charlie\\charlie\\stimuli\\visual\\digit_symbol\\sym2.bmp'
g25
I1703
tp64
a(g19
g20
g34
I30
I1
I6
g25
S'C:\\Users\\Jbarrett\\Charlie\\charlie\\stimuli\\visual\\digit_symbol\\sym6.bmp'
g25
I1503
tp65
a(g19
g20
g34
I31
I5
I4
g25
S'C:\\Users\\Jbarrett\\Charlie\\charlie\\stimuli\\visual\\digit_symbol\\sym4.bmp'
g25
I1304
tp66
a(g19
g20
g34
I32
I6
I6
g22
S'C:\\Users\\Jbarrett\\Charlie\\charlie\\stimuli\\visual\\digit_symbol\\sym6.bmp'
g22
I2202
tp67
a(g19
g20
g34
I33
I2
I2
g22
S'C:\\Users\\Jbarrett\\Charlie\\charlie\\stimuli\\visual\\digit_symbol\\sym2.bmp'
g22
I1601
tp68
a(g19
g20
g34
I34
I9
I9
g22
S'C:\\Users\\Jbarrett\\Charlie\\charlie\\stimuli\\visual\\digit_symbol\\sym9.bmp'
g22
I2002
tp69
a(g19
g20
g34
I35
I7
I7
g22
S'C:\\Users\\Jbarrett\\Charlie\\charlie\\stimuli\\visual\\digit_symbol\\sym7.bmp'
g22
I1701
tp70
a(g19
g20
g34
I36
I3
I3
g22
S'C:\\Users\\Jbarrett\\Charlie\\charlie\\stimuli\\visual\\digit_symbol\\sym3.bmp'
g22
I1602
tp71
asS'output_format'
p72
(lp73
(S'proband_id'
p74
c__builtin__
str
p75
tp76
a(S'test_name'
p77
g75
tp78
a(S'phase'
p79
g75
tp80
a(S'trialn'
p81
c__builtin__
int
p82
tp83
a(S'digit'
p84
g82
tp85
a(S'symbol'
p86
g82
tp87
a(S'ans'
p88
g75
tp89
a(S'f'
g75
tp90
a(S'rsp'
p91
g75
tp92
a(S'rt'
p93
g82
tp94
asg74
g19
sS'filename'
p95
S'4470_digit_symbol.data'
p96
sS'initialised'
p97
g10
(S'\x07\xdf\t\x1c\x0b\x1a\x05\t^p'
tRp98
sg77
S'digit_symbol'
p99
sS'directory'
p100
S'C:\\Users\\Jbarrett\\Charlie\\charlie\\data\\raw'
p101
sS'user_id'
p102
S'barrett'
p103
sS'test_started'
p104
I01
sS'abs_filename'
p105
S'C:\\Users\\Jbarrett\\Charlie\\charlie\\data\\raw\\4470_digit_symbol.data'
p106
sS'date_started'
p107
g10
(S'\x07\xdf\t\x1c\x0b\x1a"\x05?\xc0'
tRp108
sS'log'
p109
(lp110
(S'2015-09-28 11:26:05.614000'
S'instance created'
p111
tp112
a(S'2015-09-28 11:26:34.354000'
S'instance updated'
p113
tp114
a(S'2015-09-28 11:26:34.377000'
S'pandas DataFrame of data created'
p115
tp116
a(S'2015-09-28 11:26:34.385000'
g113
tp117
a(S'2015-09-28 11:26:34.389000'
S'data saved as csv to C:\\Users\\Jbarrett\\Charlie\\charlie\\data\\csv\\4470_digit_symbol.csv'
tp118
a(S'2015-09-28 11:26:37.985000'
g113
tp119
a(S'2015-09-28 11:26:38.020000'
g115
tp120
a(S'2015-09-28 11:26:38.028000'
g113
tp121
a(S'2015-09-28 11:26:38.031000'
S'data saved as csv to C:\\Users\\Jbarrett\\Charlie\\charlie\\data\\csv\\4470_digit_symbol.csv'
tp122
a(S'2015-09-28 11:26:41.483000'
g113
tp123
a(S'2015-09-28 11:26:41.512000'
g115
tp124
a(S'2015-09-28 11:26:41.517000'
g113
tp125
a(S'2015-09-28 11:26:41.520000'
S'data saved as csv to C:\\Users\\Jbarrett\\Charlie\\charlie\\data\\csv\\4470_digit_symbol.csv'
tp126
a(S'2015-09-28 11:26:45.313000'
g113
tp127
a(S'2015-09-28 11:26:45.333000'
g115
tp128
a(S'2015-09-28 11:26:45.335000'
g113
tp129
a(S'2015-09-28 11:26:45.336000'
S'data saved as csv to C:\\Users\\Jbarrett\\Charlie\\charlie\\data\\csv\\4470_digit_symbol.csv'
tp130
a(S'2015-09-28 11:26:48.226000'
g113
tp131
a(S'2015-09-28 11:26:48.245000'
g115
tp132
a(S'2015-09-28 11:26:48.247000'
g113
tp133
a(S'2015-09-28 11:26:48.248000'
S'data saved as csv to C:\\Users\\Jbarrett\\Charlie\\charlie\\data\\csv\\4470_digit_symbol.csv'
tp134
a(S'2015-09-28 11:26:52.033000'
g113
tp135
a(S'2015-09-28 11:26:52.116000'
g115
tp136
a(S'2015-09-28 11:26:52.124000'
g113
tp137
a(S'2015-09-28 11:26:52.128000'
S'data saved as csv to C:\\Users\\Jbarrett\\Charlie\\charlie\\data\\csv\\4470_digit_symbol.csv'
tp138
a(S'2015-09-28 11:26:55.274000'
g113
tp139
a(S'2015-09-28 11:26:55.368000'
g115
tp140
a(S'2015-09-28 11:26:55.376000'
g113
tp141
a(S'2015-09-28 11:26:55.379000'
S'data saved as csv to C:\\Users\\Jbarrett\\Charlie\\charlie\\data\\csv\\4470_digit_symbol.csv'
tp142
a(S'2015-09-28 11:26:57.878000'
g113
tp143
a(S'2015-09-28 11:26:57.945000'
g115
tp144
a(S'2015-09-28 11:26:57.949000'
g113
tp145
a(S'2015-09-28 11:26:57.951000'
S'data saved as csv to C:\\Users\\Jbarrett\\Charlie\\charlie\\data\\csv\\4470_digit_symbol.csv'
tp146
a(S'2015-09-28 11:27:00.743000'
g113
tp147
a(S'2015-09-28 11:27:00.790000'
g115
tp148
a(S'2015-09-28 11:27:00.793000'
g113
tp149
a(S'2015-09-28 11:27:00.795000'
S'data saved as csv to C:\\Users\\Jbarrett\\Charlie\\charlie\\data\\csv\\4470_digit_symbol.csv'
tp150
a(S'2015-09-28 11:27:04.260000'
g113
tp151
a(S'2015-09-28 11:27:04.392000'
g115
tp152
a(S'2015-09-28 11:27:04.400000'
g113
tp153
a(S'2015-09-28 11:27:04.404000'
S'data saved as csv to C:\\Users\\Jbarrett\\Charlie\\charlie\\data\\csv\\4470_digit_symbol.csv'
tp154
a(S'2015-09-28 11:28:46.394000'
g113
tp155
a(S'2015-09-28 11:28:46.543000'
g115
tp156
a(S'2015-09-28 11:28:46.546000'
g113
tp157
a(S'2015-09-28 11:28:46.547000'
S'data saved as csv to C:\\Users\\Jbarrett\\Charlie\\charlie\\data\\csv\\4470_digit_symbol.csv'
tp158
a(S'2015-09-28 11:28:46.550000'
g113
tp159
asb.